
/home/fae/nas/svn/1295/trunk-6.0.0_r1/bootcode/uboot/examples/efuse_verify/out/efuse_verify:     file format elf32-littlearm


Disassembly of section .text:

01610000 <_back_addr>:
 1610000:	01a00000 	moveq	r0, r0

01610004 <_stack_start>:
 1610004:	02000000 	andeq	r0, r0, #0

01610008 <_stack_start1>:
 1610008:	02500000 	subseq	r0, r0, #0

0161000c <start>:
.globl _stack_start1
_stack_start1:
        .word 0x02500000

start:
     mrc     p15, 0, r1, c0, c0, 5     @ Read Multiprocessor Affinity Register
 161000c:	ee101fb0 	mrc	15, 0, r1, cr0, cr0, {5}
     ands    r1, r1, #0x03             @ Mask off, leaving the CPU ID field
 1610010:	e2111003 	ands	r1, r1, #3
     cmp     r1,#0x00                  @ core0 : 0x00 , others 0x01 , 0x02 ...
 1610014:	e3510000 	cmp	r1, #0
     bne     run_secondary
 1610018:	1a00000c 	bne	1610050 <run_secondary>

     ldr     r8, _back_addr
 161001c:	e51f8024 	ldr	r8, [pc, #-36]	; 1610000 <_back_addr>
     str     lr, [r8]
 1610020:	e588e000 	str	lr, [r8]
     add     r8, r8,#4
 1610024:	e2888004 	add	r8, r8, #4
     str     sp, [r8]
 1610028:	e588d000 	str	sp, [r8]

     ldr     sp, _stack_start
 161002c:	e51fd030 	ldr	sp, [pc, #-48]	; 1610004 <_stack_start>
     bic     sp, sp, #7
 1610030:	e3cdd007 	bic	sp, sp, #7
     bl	     verifymain
 1610034:	eb000184 	bl	161064c <verifymain>

     ldr     r8, _back_addr
 1610038:	e51f8040 	ldr	r8, [pc, #-64]	; 1610000 <_back_addr>
     add     r9, r8,#4
 161003c:	e2889004 	add	r9, r8, #4
     ldr     sp, [r9]
 1610040:	e599d000 	ldr	sp, [r9]
     ldr     r1, [r8]
 1610044:	e5981000 	ldr	r1, [r8]
     mov     r0, #0
 1610048:	e3a00000 	mov	r0, #0
     bx      r1
 161004c:	e12fff11 	bx	r1

01610050 <run_secondary>:

run_secondary:
     ldr   sp, _stack_start1
 1610050:	e51fd050 	ldr	sp, [pc, #-80]	; 1610008 <_stack_start1>
     MSR   CPSR_c, #0xD3 ; #MODE_SVC:OR:DIS_IRQ:OR:DIS_FIRQ
 1610054:	e321f0d3 	msr	CPSR_c, #211	; 0xd3
     MOV   r0, r0
 1610058:	e1a00000 	nop			; (mov r0, r0)
     MOV   r0, r0
 161005c:	e1a00000 	nop			; (mov r0, r0)
     MOV   r0, r0
 1610060:	e1a00000 	nop			; (mov r0, r0)
9:
     b     9b
 1610064:	eafffffe 	b	1610064 <run_secondary+0x14>
     MOV   r0, r0
 1610068:	e1a00000 	nop			; (mov r0, r0)
     MOV   r0, r0
 161006c:	e1a00000 	nop			; (mov r0, r0)
     MOV   r0, r0
 1610070:	e1a00000 	nop			; (mov r0, r0)

01610074 <strlen>:

int strlen(const char *s)
{
	int	l = 0;

	while (*s++) 
 1610074:	e5d01000 	ldrb	r1, [r0]
 1610078:	e2803001 	add	r3, r0, #1
 161007c:	e3510000 	cmp	r1, #0
 1610080:	0a000003 	beq	1610094 <strlen+0x20>
 1610084:	e0601003 	rsb	r1, r0, r3
 1610088:	e4d32001 	ldrb	r2, [r3], #1
 161008c:	e3520000 	cmp	r2, #0
 1610090:	1afffffb 	bne	1610084 <strlen+0x10>
	{
		
	 l++;
	} 
	return l;
}
 1610094:	e1a00001 	mov	r0, r1
 1610098:	e12fff1e 	bx	lr

0161009c <strstr>:
	const char 	*s2)
{
    const char *s ;
    const char *t ;

    if (!s1 || !s2)
 161009c:	e3510000 	cmp	r1, #0
 16100a0:	13500000 	cmpne	r0, #0
 16100a4:	0a000022 	beq	1610134 <strstr+0x98>
#include "dvrboot_inc/string.h"

char *strstr(
	const char 	*s1, 
	const char 	*s2)
{
 16100a8:	e92d4030 	push	{r4, r5, lr}
    const char *t ;

    if (!s1 || !s2)
	return (0);

    if (!*s2)
 16100ac:	e5d15000 	ldrb	r5, [r1]
 16100b0:	e3550000 	cmp	r5, #0
 16100b4:	08bd8030 	popeq	{r4, r5, pc}
	return ((char*)s1);

    for (; *s1; s1++) 
 16100b8:	e5d03000 	ldrb	r3, [r0]
 16100bc:	e3530000 	cmp	r3, #0
 16100c0:	1a000003 	bne	16100d4 <strstr+0x38>
 16100c4:	ea000018 	b	161012c <strstr+0x90>
 16100c8:	e5f03001 	ldrb	r3, [r0, #1]!
 16100cc:	e3530000 	cmp	r3, #0
 16100d0:	0a000015 	beq	161012c <strstr+0x90>
    {
	if (*s1 == *s2) 
 16100d4:	e1550003 	cmp	r5, r3
 16100d8:	1afffffa 	bne	16100c8 <strstr+0x2c>
        {
	    t = s1;
	    s = s2;
	    for (; *t; s++, t++) 
 16100dc:	e5d03000 	ldrb	r3, [r0]
 16100e0:	e3530000 	cmp	r3, #0
 16100e4:	0afffff7 	beq	16100c8 <strstr+0x2c>
            {
		if (*t != *s)
 16100e8:	e1550003 	cmp	r5, r3
 16100ec:	1afffff5 	bne	16100c8 <strstr+0x2c>
 16100f0:	e2813001 	add	r3, r1, #1
 16100f4:	e1a0c000 	mov	ip, r0
 16100f8:	ea000002 	b	1610108 <strstr+0x6c>
 16100fc:	e5de4000 	ldrb	r4, [lr]
 1610100:	e1540002 	cmp	r4, r2
 1610104:	1a000004 	bne	161011c <strstr+0x80>
    {
	if (*s1 == *s2) 
        {
	    t = s1;
	    s = s2;
	    for (; *t; s++, t++) 
 1610108:	e5fc2001 	ldrb	r2, [ip, #1]!
 161010c:	e1a0e003 	mov	lr, r3
 1610110:	e2833001 	add	r3, r3, #1
 1610114:	e3520000 	cmp	r2, #0
 1610118:	1afffff7 	bne	16100fc <strstr+0x60>
            {
		if (*t != *s)
		    break;
	    }
	    if (!*s)
 161011c:	e5de3000 	ldrb	r3, [lr]
 1610120:	e3530000 	cmp	r3, #0
 1610124:	1affffe7 	bne	16100c8 <strstr+0x2c>
 1610128:	e8bd8030 	pop	{r4, r5, pc}
{
    const char *s ;
    const char *t ;

    if (!s1 || !s2)
	return (0);
 161012c:	e1a00003 	mov	r0, r3
	    if (!*s)
		return ((char*)s1);
	}
    }
    return (0);
}
 1610130:	e8bd8030 	pop	{r4, r5, pc}
{
    const char *s ;
    const char *t ;

    if (!s1 || !s2)
	return (0);
 1610134:	e3a00000 	mov	r0, #0
	    if (!*s)
		return ((char*)s1);
	}
    }
    return (0);
}
 1610138:	e12fff1e 	bx	lr

0161013c <strtoul>:
unsigned long
strtoul(
	const 	char 	*str,
		char 	**endptr,
		int 	base)
{
 161013c:	e92d47f0 	push	{r4, r5, r6, r7, r8, r9, sl, lr}
 1610140:	e30273b4 	movw	r7, #9140	; 0x23b4
 1610144:	e3407161 	movt	r7, #353	; 0x161
 1610148:	e1a08000 	mov	r8, r0
 161014c:	ea000000 	b	1610154 <strtoul+0x18>
 1610150:	e1a00003 	mov	r0, r3
	/*
	 * See strtol for comments as to the logic used.
	 */
	s = str;
	do {
		c = (unsigned char) *s++;
 1610154:	e1a03000 	mov	r3, r0
 1610158:	e4d3e001 	ldrb	lr, [r3], #1
	} while (isspace(c));
 161015c:	e7d7c00e 	ldrb	ip, [r7, lr]
 1610160:	e20cc020 	and	ip, ip, #32
 1610164:	e21cc0ff 	ands	ip, ip, #255	; 0xff
 1610168:	1afffff8 	bne	1610150 <strtoul+0x14>
	if (c == '-') {
 161016c:	e35e002d 	cmp	lr, #45	; 0x2d
 1610170:	0a000047 	beq	1610294 <strtoul+0x158>
		neg = 1;
		c = *s++;
	} else {
		neg = 0;
		if (c == '+')
 1610174:	e35e002b 	cmp	lr, #43	; 0x2b
			c = *s++;
 1610178:	02803002 	addeq	r3, r0, #2
 161017c:	05d0e001 	ldrbeq	lr, [r0, #1]
	}
	if ((base == 0 || base == 16) &&
 1610180:	e3d20010 	bics	r0, r2, #16
 1610184:	1a000011 	bne	16101d0 <strtoul+0x94>
 1610188:	e16f0f12 	clz	r0, r2
 161018c:	e35e0030 	cmp	lr, #48	; 0x30
 1610190:	e1a002a0 	lsr	r0, r0, #5
 1610194:	0a000042 	beq	16102a4 <strtoul+0x168>
	    c == '0' && (*s == 'x' || *s == 'X')) {
		c = s[1];
		s += 2;
		base = 16;
	}
	if (base == 0)
 1610198:	e3500000 	cmp	r0, #0
 161019c:	0a00000b 	beq	16101d0 <strtoul+0x94>
 16101a0:	e3a0200a 	mov	r2, #10
 16101a4:	e3090999 	movw	r0, #39321	; 0x9999
 16101a8:	e3410999 	movt	r0, #6553	; 0x1999
		base = c == '0' ? 8 : 10;
 16101ac:	e1a0a002 	mov	sl, r2
 16101b0:	e3a09005 	mov	r9, #5
 16101b4:	ea00000a 	b	16101e4 <strtoul+0xa8>
	    c == '0' && (*s == 'x' || *s == 'X')) {
		c = s[1];
		s += 2;
		base = 16;
	}
	if (base == 0)
 16101b8:	e3500000 	cmp	r0, #0
 16101bc:	13a02008 	movne	r2, #8
 16101c0:	13a09007 	movne	r9, #7
		base = c == '0' ? 8 : 10;
 16101c4:	11a0a002 	movne	sl, r2
	    c == '0' && (*s == 'x' || *s == 'X')) {
		c = s[1];
		s += 2;
		base = 16;
	}
	if (base == 0)
 16101c8:	13e0020e 	mvnne	r0, #-536870912	; 0xe0000000
 16101cc:	1a000004 	bne	16101e4 <strtoul+0xa8>
 16101d0:	e3e00000 	mvn	r0, #0
 16101d4:	e1a0a002 	mov	sl, r2
 16101d8:	e730f210 	udiv	r0, r0, r2
 16101dc:	e0090092 	mul	r9, r2, r0
 16101e0:	e1e09009 	mvn	r9, r9
		base = c == '0' ? 8 : 10;

	cutoff = MAXUINT(sizeof(UINT32)) / (unsigned long)base;
	cutlim = MAXUINT(sizeof(UINT32)) % (unsigned long)base;
	for (acc = 0, any = 0;; c = (unsigned char) *s++) {
 16101e4:	e3a05000 	mov	r5, #0
 16101e8:	e1a06005 	mov	r6, r5
 16101ec:	ea000009 	b	1610218 <strtoul+0xdc>
			break;
		if (c >= base)
			break;
		if (any < 0)
			continue;
		if ((acc > cutoff) || (acc == cutoff && c > cutlim)) {
 16101f0:	e15e0009 	cmp	lr, r9
 16101f4:	d3a04000 	movle	r4, #0
 16101f8:	c3a04001 	movgt	r4, #1
 16101fc:	e1560000 	cmp	r6, r0
 1610200:	13a04000 	movne	r4, #0
 1610204:	e3540000 	cmp	r4, #0
 1610208:	1a000012 	bne	1610258 <strtoul+0x11c>
			acc = MAXUINT(sizeof(UINT32));
			//errno = ERANGE;
		} else {
			any = 1;
			acc *= (unsigned long)base;
			acc += c;
 161020c:	e026e69a 	mla	r6, sl, r6, lr
		if ((acc > cutoff) || (acc == cutoff && c > cutlim)) {
			any = -1;
			acc = MAXUINT(sizeof(UINT32));
			//errno = ERANGE;
		} else {
			any = 1;
 1610210:	e3a05001 	mov	r5, #1
	if (base == 0)
		base = c == '0' ? 8 : 10;

	cutoff = MAXUINT(sizeof(UINT32)) / (unsigned long)base;
	cutlim = MAXUINT(sizeof(UINT32)) % (unsigned long)base;
	for (acc = 0, any = 0;; c = (unsigned char) *s++) {
 1610214:	e4d3e001 	ldrb	lr, [r3], #1
		if (isdigit(c))
 1610218:	e7d7400e 	ldrb	r4, [r7, lr]
 161021c:	e3140004 	tst	r4, #4
			c -= '0';
 1610220:	124ee030 	subne	lr, lr, #48	; 0x30
		base = c == '0' ? 8 : 10;

	cutoff = MAXUINT(sizeof(UINT32)) / (unsigned long)base;
	cutlim = MAXUINT(sizeof(UINT32)) % (unsigned long)base;
	for (acc = 0, any = 0;; c = (unsigned char) *s++) {
		if (isdigit(c))
 1610224:	1a000005 	bne	1610240 <strtoul+0x104>
			c -= '0';
		else if (isalpha(c))
 1610228:	e3140003 	tst	r4, #3
 161022c:	0a00000c 	beq	1610264 <strtoul+0x128>
			c -= isupper(c) ? 'A' - 10 : 'a' - 10;
 1610230:	e3140001 	tst	r4, #1
 1610234:	13a04037 	movne	r4, #55	; 0x37
 1610238:	03a04057 	moveq	r4, #87	; 0x57
 161023c:	e064e00e 	rsb	lr, r4, lr
		else
			break;
		if (c >= base)
 1610240:	e152000e 	cmp	r2, lr
 1610244:	da000006 	ble	1610264 <strtoul+0x128>
			break;
		if (any < 0)
 1610248:	e3750001 	cmn	r5, #1
 161024c:	0afffff0 	beq	1610214 <strtoul+0xd8>
			continue;
		if ((acc > cutoff) || (acc == cutoff && c > cutlim)) {
 1610250:	e1560000 	cmp	r6, r0
 1610254:	9affffe5 	bls	16101f0 <strtoul+0xb4>
			any = -1;
 1610258:	e3e05000 	mvn	r5, #0
			acc = MAXUINT(sizeof(UINT32));
 161025c:	e1a06005 	mov	r6, r5
 1610260:	eaffffeb 	b	1610214 <strtoul+0xd8>
			any = 1;
			acc *= (unsigned long)base;
			acc += c;
		}
	}
	if (neg && any > 0)
 1610264:	e3550000 	cmp	r5, #0
 1610268:	d3a0c000 	movle	ip, #0
 161026c:	c20cc001 	andgt	ip, ip, #1
		acc = -acc;
	if (endptr != 0)
 1610270:	e3510000 	cmp	r1, #0
 1610274:	e26c0000 	rsb	r0, ip, #0
 1610278:	e0266000 	eor	r6, r6, r0
 161027c:	e086000c 	add	r0, r6, ip
 1610280:	08bd87f0 	popeq	{r4, r5, r6, r7, r8, r9, sl, pc}
		*endptr = (char *) (any ? s - 1 : (char *) str);
 1610284:	e3550000 	cmp	r5, #0
 1610288:	12438001 	subne	r8, r3, #1
 161028c:	e5818000 	str	r8, [r1]
 1610290:	e8bd87f0 	pop	{r4, r5, r6, r7, r8, r9, sl, pc}
	do {
		c = (unsigned char) *s++;
	} while (isspace(c));
	if (c == '-') {
		neg = 1;
		c = *s++;
 1610294:	e2803002 	add	r3, r0, #2
 1610298:	e5d0e001 	ldrb	lr, [r0, #1]
 161029c:	e3a0c001 	mov	ip, #1
 16102a0:	eaffffb6 	b	1610180 <strtoul+0x44>
		neg = 0;
		if (c == '+')
			c = *s++;
	}
	if ((base == 0 || base == 16) &&
	    c == '0' && (*s == 'x' || *s == 'X')) {
 16102a4:	e5d34000 	ldrb	r4, [r3]
 16102a8:	e20440df 	and	r4, r4, #223	; 0xdf
 16102ac:	e3540058 	cmp	r4, #88	; 0x58
 16102b0:	1affffc0 	bne	16101b8 <strtoul+0x7c>
		c = s[1];
		s += 2;
 16102b4:	e3a02010 	mov	r2, #16
		if (c == '+')
			c = *s++;
	}
	if ((base == 0 || base == 16) &&
	    c == '0' && (*s == 'x' || *s == 'X')) {
		c = s[1];
 16102b8:	e5d3e001 	ldrb	lr, [r3, #1]
		s += 2;
		base = 16;
 16102bc:	e1a0a002 	mov	sl, r2
			c = *s++;
	}
	if ((base == 0 || base == 16) &&
	    c == '0' && (*s == 'x' || *s == 'X')) {
		c = s[1];
		s += 2;
 16102c0:	e2833002 	add	r3, r3, #2
 16102c4:	e3a0900f 	mov	r9, #15
 16102c8:	e3e0020f 	mvn	r0, #-268435456	; 0xf0000000
 16102cc:	eaffffc4 	b	16101e4 <strtoul+0xa8>

016102d0 <ctrlc>:
 16102d0:	e3a00000 	mov	r0, #0
 16102d4:	e12fff1e 	bx	lr

016102d8 <printf>:
 16102d8:	e92d000f 	push	{r0, r1, r2, r3}
 16102dc:	e3a00001 	mov	r0, #1
 16102e0:	e28dd010 	add	sp, sp, #16
 16102e4:	e12fff1e 	bx	lr

016102e8 <memcpy>:
 16102e8:	e3520000 	cmp	r2, #0
 16102ec:	012fff1e 	bxeq	lr
 16102f0:	e0812002 	add	r2, r1, r2
 16102f4:	e2403001 	sub	r3, r0, #1
 16102f8:	e4d1c001 	ldrb	ip, [r1], #1
 16102fc:	e5e3c001 	strb	ip, [r3, #1]!
 1610300:	e1510002 	cmp	r1, r2
 1610304:	1afffffb 	bne	16102f8 <memcpy+0x10>
 1610308:	e12fff1e 	bx	lr

0161030c <memcmp>:
 161030c:	e3520000 	cmp	r2, #0
 1610310:	0a000011 	beq	161035c <memcmp+0x50>
 1610314:	e5d03000 	ldrb	r3, [r0]
 1610318:	e1a0c000 	mov	ip, r0
 161031c:	e5d10000 	ldrb	r0, [r1]
 1610320:	e0530000 	subs	r0, r3, r0
 1610324:	112fff1e 	bxne	lr
 1610328:	e08c2002 	add	r2, ip, r2
 161032c:	e28cc001 	add	ip, ip, #1
 1610330:	e52de004 	push	{lr}		; (str lr, [sp, #-4]!)
 1610334:	ea000003 	b	1610348 <memcmp+0x3c>
 1610338:	e4dc3001 	ldrb	r3, [ip], #1
 161033c:	e5f1e001 	ldrb	lr, [r1, #1]!
 1610340:	e053300e 	subs	r3, r3, lr
 1610344:	1a000002 	bne	1610354 <memcmp+0x48>
 1610348:	e15c0002 	cmp	ip, r2
 161034c:	1afffff9 	bne	1610338 <memcmp+0x2c>
 1610350:	e49df004 	pop	{pc}		; (ldr pc, [sp], #4)
 1610354:	e1a00003 	mov	r0, r3
 1610358:	e49df004 	pop	{pc}		; (ldr pc, [sp], #4)
 161035c:	e1a00002 	mov	r0, r2
 1610360:	e12fff1e 	bx	lr

01610364 <do_verify>:
 1610364:	e92d40f0 	push	{r4, r5, r6, r7, lr}
 1610368:	e30f3fff 	movw	r3, #65535	; 0xffff
 161036c:	e340316f 	movt	r3, #367	; 0x16f
 1610370:	e24ddf89 	sub	sp, sp, #548	; 0x224
 1610374:	e3a02c01 	mov	r2, #256	; 0x100
 1610378:	e3a01000 	mov	r1, #0
 161037c:	e28d0020 	add	r0, sp, #32
 1610380:	e513400f 	ldr	r4, [r3, #-15]
 1610384:	eb00056d 	bl	1611940 <memset>
 1610388:	e3a02c01 	mov	r2, #256	; 0x100
 161038c:	e3a01000 	mov	r1, #0
 1610390:	e28d0e12 	add	r0, sp, #288	; 0x120
 1610394:	e3a06000 	mov	r6, #0
 1610398:	eb000568 	bl	1611940 <memset>
 161039c:	e30234b4 	movw	r3, #9396	; 0x24b4
 16103a0:	e3403161 	movt	r3, #353	; 0x161
 16103a4:	e1a05003 	mov	r5, r3
 16103a8:	e1a0e00d 	mov	lr, sp
 16103ac:	e28dc010 	add	ip, sp, #16
 16103b0:	e3e0704f 	mvn	r7, #79	; 0x4f
 16103b4:	e5930000 	ldr	r0, [r3]
 16103b8:	e5931004 	ldr	r1, [r3, #4]
 16103bc:	e5932008 	ldr	r2, [r3, #8]
 16103c0:	e593300c 	ldr	r3, [r3, #12]
 16103c4:	e8ae000f 	stmia	lr!, {r0, r1, r2, r3}
 16103c8:	e5b50010 	ldr	r0, [r5, #16]!
 16103cc:	e3a0e011 	mov	lr, #17
 16103d0:	e5951004 	ldr	r1, [r5, #4]
 16103d4:	e5952008 	ldr	r2, [r5, #8]
 16103d8:	e595300c 	ldr	r3, [r5, #12]
 16103dc:	e3a0502d 	mov	r5, #45	; 0x2d
 16103e0:	e8ac000f 	stmia	ip!, {r0, r1, r2, r3}
 16103e4:	e1a01006 	mov	r1, r6
 16103e8:	e3a02c01 	mov	r2, #256	; 0x100
 16103ec:	e28d0020 	add	r0, sp, #32
 16103f0:	e5cde011 	strb	lr, [sp, #17]
 16103f4:	e3a0c012 	mov	ip, #18
 16103f8:	e5cde01b 	strb	lr, [sp, #27]
 16103fc:	e3a0301a 	mov	r3, #26
 1610400:	e5cd5012 	strb	r5, [sp, #18]
 1610404:	e3e0e03b 	mvn	lr, #59	; 0x3b
 1610408:	e5cdc013 	strb	ip, [sp, #19]
 161040c:	e5cd3014 	strb	r3, [sp, #20]
 1610410:	e3a0c023 	mov	ip, #35	; 0x23
 1610414:	e3e0307c 	mvn	r3, #124	; 0x7c
 1610418:	e5cde015 	strb	lr, [sp, #21]
 161041c:	e5cdc016 	strb	ip, [sp, #22]
 1610420:	e3a0e033 	mov	lr, #51	; 0x33
 1610424:	e3e0c05d 	mvn	ip, #93	; 0x5d
 1610428:	e5cd3017 	strb	r3, [sp, #23]
 161042c:	e5cde018 	strb	lr, [sp, #24]
 1610430:	e3a0300f 	mov	r3, #15
 1610434:	e3a0e00b 	mov	lr, #11
 1610438:	e5cdc019 	strb	ip, [sp, #25]
 161043c:	e5cde01c 	strb	lr, [sp, #28]
 1610440:	e3a0c064 	mov	ip, #100	; 0x64
 1610444:	e5cd301a 	strb	r3, [sp, #26]
 1610448:	e3a0307b 	mov	r3, #123	; 0x7b
 161044c:	e5cdc01e 	strb	ip, [sp, #30]
 1610450:	e5cd301f 	strb	r3, [sp, #31]
 1610454:	e5cd601d 	strb	r6, [sp, #29]
 1610458:	e5cd7010 	strb	r7, [sp, #16]
 161045c:	eb000537 	bl	1611940 <memset>
 1610460:	e3a02c01 	mov	r2, #256	; 0x100
 1610464:	e1a01006 	mov	r1, r6
 1610468:	e28d0e12 	add	r0, sp, #288	; 0x120
 161046c:	eb000533 	bl	1611940 <memset>
 1610470:	e30204d4 	movw	r0, #9428	; 0x24d4
 1610474:	e3400161 	movt	r0, #353	; 0x161
 1610478:	eb00048d 	bl	16116b4 <prints>
 161047c:	e3a01004 	mov	r1, #4
 1610480:	e1a00004 	mov	r0, r4
 1610484:	eb0000ec 	bl	161083c <flush_cache>
 1610488:	e30204f4 	movw	r0, #9460	; 0x24f4
 161048c:	e3400161 	movt	r0, #353	; 0x161
 1610490:	eb000487 	bl	16116b4 <prints>
 1610494:	e3020514 	movw	r0, #9492	; 0x2514
 1610498:	e3400161 	movt	r0, #353	; 0x161
 161049c:	eb000484 	bl	16116b4 <prints>
 16104a0:	eb00045d 	bl	161161c <sync>
 16104a4:	e3a01010 	mov	r1, #16
 16104a8:	e3020a28 	movw	r0, #10792	; 0x2a28
 16104ac:	e3400162 	movt	r0, #354	; 0x162
 16104b0:	eb0000e1 	bl	161083c <flush_cache>
 16104b4:	e3a01010 	mov	r1, #16
 16104b8:	e1a0000d 	mov	r0, sp
 16104bc:	eb0000de 	bl	161083c <flush_cache>
 16104c0:	e3a01010 	mov	r1, #16
 16104c4:	e28d0010 	add	r0, sp, #16
 16104c8:	eb0000db 	bl	161083c <flush_cache>
 16104cc:	e28d3010 	add	r3, sp, #16
 16104d0:	e1a0200d 	mov	r2, sp
 16104d4:	e3a01010 	mov	r1, #16
 16104d8:	e3020a28 	movw	r0, #10792	; 0x2a28
 16104dc:	e3400162 	movt	r0, #354	; 0x162
 16104e0:	eb000243 	bl	1610df4 <AES_ECB_decrypt>
 16104e4:	e3a01010 	mov	r1, #16
 16104e8:	e1a0000d 	mov	r0, sp
 16104ec:	eb0000d2 	bl	161083c <flush_cache>
 16104f0:	e59d0000 	ldr	r0, [sp]
 16104f4:	eb000158 	bl	1610a5c <swap_endian>
 16104f8:	e58d0000 	str	r0, [sp]
 16104fc:	e59d0004 	ldr	r0, [sp, #4]
 1610500:	eb000155 	bl	1610a5c <swap_endian>
 1610504:	e58d0004 	str	r0, [sp, #4]
 1610508:	e59d0008 	ldr	r0, [sp, #8]
 161050c:	eb000152 	bl	1610a5c <swap_endian>
 1610510:	e58d0008 	str	r0, [sp, #8]
 1610514:	e59d000c 	ldr	r0, [sp, #12]
 1610518:	eb00014f 	bl	1610a5c <swap_endian>
 161051c:	e314000f 	tst	r4, #15
 1610520:	13c4100f 	bicne	r1, r4, #15
 1610524:	01a01004 	moveq	r1, r4
 1610528:	12811001 	addne	r1, r1, #1
 161052c:	e3a02615 	mov	r2, #22020096	; 0x1500000
 1610530:	e1a0300d 	mov	r3, sp
 1610534:	e58d000c 	str	r0, [sp, #12]
 1610538:	e3a00617 	mov	r0, #24117248	; 0x1700000
 161053c:	eb0001e4 	bl	1610cd4 <AES_CBC_decrypt>
 1610540:	e3a01010 	mov	r1, #16
 1610544:	e3a00615 	mov	r0, #22020096	; 0x1500000
 1610548:	eb0000bb 	bl	161083c <flush_cache>
 161054c:	e3a01010 	mov	r1, #16
 1610550:	e1a00004 	mov	r0, r4
 1610554:	eb0000b8 	bl	161083c <flush_cache>
 1610558:	e244324f 	sub	r3, r4, #-268435452	; 0xf0000004
 161055c:	e24336eb 	sub	r3, r3, #246415360	; 0xeb00000
 1610560:	e3a01004 	mov	r1, #4
 1610564:	e5935000 	ldr	r5, [r3]
 1610568:	e1a00005 	mov	r0, r5
 161056c:	eb0000b2 	bl	161083c <flush_cache>
 1610570:	e1a00005 	mov	r0, r5
 1610574:	eb000138 	bl	1610a5c <swap_endian>
 1610578:	e3a01004 	mov	r1, #4
 161057c:	e1a051a0 	lsr	r5, r0, #3
 1610580:	eb0000ad 	bl	161083c <flush_cache>
 1610584:	e3a01004 	mov	r1, #4
 1610588:	e1a00005 	mov	r0, r5
 161058c:	eb0000aa 	bl	161083c <flush_cache>
 1610590:	e3a03000 	mov	r3, #0
 1610594:	e28d2020 	add	r2, sp, #32
 1610598:	e1a01005 	mov	r1, r5
 161059c:	e3a00615 	mov	r0, #22020096	; 0x1500000
 16105a0:	eb000377 	bl	1611384 <SHA256_hash>
 16105a4:	e3a01010 	mov	r1, #16
 16105a8:	e28d0020 	add	r0, sp, #32
 16105ac:	eb0000a2 	bl	161083c <flush_cache>
 16105b0:	eb000419 	bl	161161c <sync>
 16105b4:	e28d2e12 	add	r2, sp, #288	; 0x120
 16105b8:	e2840617 	add	r0, r4, #24117248	; 0x1700000
 16105bc:	e3021924 	movw	r1, #10532	; 0x2924
 16105c0:	e3401162 	movt	r1, #354	; 0x162
 16105c4:	eb00030f 	bl	1611208 <do_RSA>
 16105c8:	eb000413 	bl	161161c <sync>
 16105cc:	e5dd2120 	ldrb	r2, [sp, #288]	; 0x120
 16105d0:	e5dd3020 	ldrb	r3, [sp, #32]
 16105d4:	e1520003 	cmp	r2, r3
 16105d8:	1a00000a 	bne	1610608 <do_verify+0x2a4>
 16105dc:	e28dcf87 	add	ip, sp, #540	; 0x21c
 16105e0:	e28d3e12 	add	r3, sp, #288	; 0x120
 16105e4:	e28d2020 	add	r2, sp, #32
 16105e8:	e28cc003 	add	ip, ip, #3
 16105ec:	ea000001 	b	16105f8 <do_verify+0x294>
 16105f0:	e153000c 	cmp	r3, ip
 16105f4:	0a000009 	beq	1610620 <do_verify+0x2bc>
 16105f8:	e5f30001 	ldrb	r0, [r3, #1]!
 16105fc:	e5f21001 	ldrb	r1, [r2, #1]!
 1610600:	e1500001 	cmp	r0, r1
 1610604:	0afffff9 	beq	16105f0 <do_verify+0x28c>
 1610608:	e302052c 	movw	r0, #9516	; 0x252c
 161060c:	e3400161 	movt	r0, #353	; 0x161
 1610610:	eb000427 	bl	16116b4 <prints>
 1610614:	e3e00000 	mvn	r0, #0
 1610618:	e28ddf89 	add	sp, sp, #548	; 0x224
 161061c:	e8bd80f0 	pop	{r4, r5, r6, r7, pc}
 1610620:	e3020520 	movw	r0, #9504	; 0x2520
 1610624:	e3400161 	movt	r0, #353	; 0x161
 1610628:	eb000421 	bl	16116b4 <prints>
 161062c:	e3a00001 	mov	r0, #1
 1610630:	e28ddf89 	add	sp, sp, #548	; 0x224
 1610634:	e8bd80f0 	pop	{r4, r5, r6, r7, pc}

01610638 <do_go_exec>:
 1610638:	e1a0c001 	mov	ip, r1
 161063c:	e1a03000 	mov	r3, r0
 1610640:	e1a01002 	mov	r1, r2
 1610644:	e1a0000c 	mov	r0, ip
 1610648:	e12fff13 	bx	r3

0161064c <verifymain>:
 161064c:	e3023bb8 	movw	r3, #11192	; 0x2bb8
 1610650:	e3403162 	movt	r3, #354	; 0x162
 1610654:	e92d4070 	push	{r4, r5, r6, lr}
 1610658:	e3a04000 	mov	r4, #0
 161065c:	e1a05001 	mov	r5, r1
 1610660:	e5834000 	str	r4, [r3]
 1610664:	eb0003f3 	bl	1611638 <init_uart>
 1610668:	e1a00004 	mov	r0, r4
 161066c:	eb000406 	bl	161168c <set_focus_uart>
 1610670:	e1a00005 	mov	r0, r5
 1610674:	ebffff3a 	bl	1610364 <do_verify>
 1610678:	e3500001 	cmp	r0, #1
 161067c:	0302053c 	movweq	r0, #9532	; 0x253c
 1610680:	13020560 	movwne	r0, #9568	; 0x2560
 1610684:	03400161 	movteq	r0, #353	; 0x161
 1610688:	13400161 	movtne	r0, #353	; 0x161
 161068c:	eb000408 	bl	16116b4 <prints>
 1610690:	e3a00000 	mov	r0, #0
 1610694:	e8bd8070 	pop	{r4, r5, r6, pc}

01610698 <v7_maint_dcache_all>:
 1610698:	e92d43f0 	push	{r4, r5, r6, r7, r8, r9, lr}
 161069c:	ee307f30 	mrc	15, 1, r7, cr0, cr0, {1}
 16106a0:	e3a0e000 	mov	lr, #0
 16106a4:	e1a0500e 	mov	r5, lr
 16106a8:	ea000003 	b	16106bc <v7_maint_dcache_all+0x24>
 16106ac:	e28ee003 	add	lr, lr, #3
 16106b0:	e2855001 	add	r5, r5, #1
 16106b4:	e35e0015 	cmp	lr, #21
 16106b8:	0a000025 	beq	1610754 <v7_maint_dcache_all+0xbc>
 16106bc:	e1a03e37 	lsr	r3, r7, lr
 16106c0:	e2033007 	and	r3, r3, #7
 16106c4:	e2433002 	sub	r3, r3, #2
 16106c8:	e3530002 	cmp	r3, #2
 16106cc:	8afffff6 	bhi	16106ac <v7_maint_dcache_all+0x14>
 16106d0:	e1a06085 	lsl	r6, r5, #1
 16106d4:	ee406f10 	mcr	15, 2, r6, cr0, cr0, {0}
 16106d8:	ee304f10 	mrc	15, 1, r4, cr0, cr0, {0}
 16106dc:	e7e991d4 	ubfx	r9, r4, #3, #10
 16106e0:	e2042007 	and	r2, r4, #7
 16106e4:	e289c001 	add	ip, r9, #1
 16106e8:	e2822004 	add	r2, r2, #4
 16106ec:	e1a0300c 	mov	r3, ip
 16106f0:	e7ee46d4 	ubfx	r4, r4, #13, #15
 16106f4:	e3e01000 	mvn	r1, #0
 16106f8:	e1b030a3 	lsrs	r3, r3, #1
 16106fc:	e2811001 	add	r1, r1, #1
 1610700:	1afffffc 	bne	16106f8 <v7_maint_dcache_all+0x60>
 1610704:	e11c0009 	tst	ip, r9
 1610708:	12811001 	addne	r1, r1, #1
 161070c:	e3500001 	cmp	r0, #1
 1610710:	e2618020 	rsb	r8, r1, #32
 1610714:	0a000011 	beq	1610760 <v7_maint_dcache_all+0xc8>
 1610718:	e3500002 	cmp	r0, #2
 161071c:	1affffe2 	bne	16106ac <v7_maint_dcache_all+0x14>
 1610720:	e186c819 	orr	ip, r6, r9, lsl r8
 1610724:	e1a03004 	mov	r3, r4
 1610728:	e18c1213 	orr	r1, ip, r3, lsl r2
 161072c:	ee071f5e 	mcr	15, 0, r1, cr7, cr14, {2}
 1610730:	e2533001 	subs	r3, r3, #1
 1610734:	2afffffb 	bcs	1610728 <v7_maint_dcache_all+0x90>
 1610738:	e2599001 	subs	r9, r9, #1
 161073c:	2afffff7 	bcs	1610720 <v7_maint_dcache_all+0x88>
 1610740:	f57ff04f 	dsb	sy
 1610744:	e28ee003 	add	lr, lr, #3
 1610748:	e2855001 	add	r5, r5, #1
 161074c:	e35e0015 	cmp	lr, #21
 1610750:	1affffd9 	bne	16106bc <v7_maint_dcache_all+0x24>
 1610754:	e8bd83f0 	pop	{r4, r5, r6, r7, r8, r9, pc}
 1610758:	e2599001 	subs	r9, r9, #1
 161075c:	3afffff7 	bcc	1610740 <v7_maint_dcache_all+0xa8>
 1610760:	e186c819 	orr	ip, r6, r9, lsl r8
 1610764:	e1a03004 	mov	r3, r4
 1610768:	e18c1213 	orr	r1, ip, r3, lsl r2
 161076c:	ee071f56 	mcr	15, 0, r1, cr7, cr6, {2}
 1610770:	e2533001 	subs	r3, r3, #1
 1610774:	2afffffb 	bcs	1610768 <v7_maint_dcache_all+0xd0>
 1610778:	eafffff6 	b	1610758 <v7_maint_dcache_all+0xc0>

0161077c <invalidate_icache_all>:
 161077c:	e3a03000 	mov	r3, #0
 1610780:	ee073f15 	mcr	15, 0, r3, cr7, cr5, {0}
 1610784:	ee073fd5 	mcr	15, 0, r3, cr7, cr5, {6}
 1610788:	f57ff04f 	dsb	sy
 161078c:	f57ff06f 	isb	sy
 1610790:	e12fff1e 	bx	lr

01610794 <__v7_outer_cache_enable>:
 1610794:	e12fff1e 	bx	lr

01610798 <__v7_outer_cache_disable>:
 1610798:	e12fff1e 	bx	lr

0161079c <__v7_outer_cache_flush_all>:
 161079c:	e12fff1e 	bx	lr

016107a0 <flush_dcache_all>:
 16107a0:	e92d4010 	push	{r4, lr}
 16107a4:	e3a00002 	mov	r0, #2
 16107a8:	ebffffba 	bl	1610698 <v7_maint_dcache_all>
 16107ac:	e8bd4010 	pop	{r4, lr}
 16107b0:	eafffff9 	b	161079c <__v7_outer_cache_flush_all>

016107b4 <__v7_outer_cache_inval_all>:
 16107b4:	e12fff1e 	bx	lr

016107b8 <invalidate_dcache_all>:
 16107b8:	e92d4010 	push	{r4, lr}
 16107bc:	e3a00001 	mov	r0, #1
 16107c0:	ebffffb4 	bl	1610698 <v7_maint_dcache_all>
 16107c4:	e8bd4010 	pop	{r4, lr}
 16107c8:	eafffff9 	b	16107b4 <__v7_outer_cache_inval_all>

016107cc <arm_init_before_mmu>:
 16107cc:	e92d4010 	push	{r4, lr}
 16107d0:	ebffffef 	bl	1610794 <__v7_outer_cache_enable>
 16107d4:	e3a00001 	mov	r0, #1
 16107d8:	ebffffae 	bl	1610698 <v7_maint_dcache_all>
 16107dc:	ebfffff4 	bl	16107b4 <__v7_outer_cache_inval_all>
 16107e0:	e3a03000 	mov	r3, #0
 16107e4:	ee083f17 	mcr	15, 0, r3, cr8, cr7, {0}
 16107e8:	ee083f16 	mcr	15, 0, r3, cr8, cr6, {0}
 16107ec:	ee083f15 	mcr	15, 0, r3, cr8, cr5, {0}
 16107f0:	f57ff04f 	dsb	sy
 16107f4:	f57ff06f 	isb	sy
 16107f8:	e8bd8010 	pop	{r4, pc}

016107fc <__v7_outer_cache_flush_range>:
 16107fc:	e12fff1e 	bx	lr

01610800 <flush_dcache_range>:
 1610800:	ee302f10 	mrc	15, 1, r2, cr0, cr0, {0}
 1610804:	e2022007 	and	r2, r2, #7
 1610808:	e3a03001 	mov	r3, #1
 161080c:	e2822004 	add	r2, r2, #4
 1610810:	e1a02213 	lsl	r2, r3, r2
 1610814:	e2623000 	rsb	r3, r2, #0
 1610818:	e0033000 	and	r3, r3, r0
 161081c:	e1510003 	cmp	r1, r3
 1610820:	3a000003 	bcc	1610834 <flush_dcache_range+0x34>
 1610824:	ee073f3e 	mcr	15, 0, r3, cr7, cr14, {1}
 1610828:	e0833002 	add	r3, r3, r2
 161082c:	e1510003 	cmp	r1, r3
 1610830:	2afffffb 	bcs	1610824 <flush_dcache_range+0x24>
 1610834:	f57ff04f 	dsb	sy
 1610838:	eaffffef 	b	16107fc <__v7_outer_cache_flush_range>

0161083c <flush_cache>:
 161083c:	e0801001 	add	r1, r0, r1
 1610840:	eaffffee 	b	1610800 <flush_dcache_range>

01610844 <__v7_outer_cache_inval_range>:
 1610844:	e12fff1e 	bx	lr

01610848 <invalidate_dcache_range>:
 1610848:	e52de004 	push	{lr}		; (str lr, [sp, #-4]!)
 161084c:	ee30cf10 	mrc	15, 1, ip, cr0, cr0, {0}
 1610850:	e20cc007 	and	ip, ip, #7
 1610854:	e3a03001 	mov	r3, #1
 1610858:	e28cc004 	add	ip, ip, #4
 161085c:	e1a0cc13 	lsl	ip, r3, ip
 1610860:	e24ce001 	sub	lr, ip, #1
 1610864:	e11e0000 	tst	lr, r0
 1610868:	12402001 	subne	r2, r0, #1
 161086c:	126c3000 	rsbne	r3, ip, #0
 1610870:	1082200c 	addne	r2, r2, ip
 1610874:	01a03000 	moveq	r3, r0
 1610878:	10033002 	andne	r3, r3, r2
 161087c:	e11e0001 	tst	lr, r1
 1610880:	126c2000 	rsbne	r2, ip, #0
 1610884:	01a02001 	moveq	r2, r1
 1610888:	10022001 	andne	r2, r2, r1
 161088c:	e1520003 	cmp	r2, r3
 1610890:	3a000003 	bcc	16108a4 <invalidate_dcache_range+0x5c>
 1610894:	ee073f36 	mcr	15, 0, r3, cr7, cr6, {1}
 1610898:	e083300c 	add	r3, r3, ip
 161089c:	e1530002 	cmp	r3, r2
 16108a0:	9afffffb 	bls	1610894 <invalidate_dcache_range+0x4c>
 16108a4:	f57ff04f 	dsb	sy
 16108a8:	e49de004 	pop	{lr}		; (ldr lr, [sp], #4)
 16108ac:	eaffffe4 	b	1610844 <__v7_outer_cache_inval_range>

016108b0 <alloc_mcp_descriptor>:
 16108b0:	e92d4070 	push	{r4, r5, r6, lr}
 16108b4:	e3024bb8 	movw	r4, #11192	; 0x2bb8
 16108b8:	e3404162 	movt	r4, #354	; 0x162
 16108bc:	e30f3837 	movw	r3, #63543	; 0xf837
 16108c0:	e34f3ebf 	movt	r3, #65215	; 0xfebf
 16108c4:	e30f27fe 	movw	r2, #63486	; 0xf7fe
 16108c8:	e34f2ebf 	movt	r2, #65215	; 0xfebf
 16108cc:	e5945000 	ldr	r5, [r4]
 16108d0:	e0853003 	add	r3, r5, r3
 16108d4:	e3550000 	cmp	r5, #0
 16108d8:	11530002 	cmpne	r3, r2
 16108dc:	8a000006 	bhi	16108fc <alloc_mcp_descriptor+0x4c>
 16108e0:	e3a03505 	mov	r3, #20971520	; 0x1400000
 16108e4:	e3a02b02 	mov	r2, #2048	; 0x800
 16108e8:	e1a00003 	mov	r0, r3
 16108ec:	e3a01000 	mov	r1, #0
 16108f0:	e5843000 	str	r3, [r4]
 16108f4:	eb000411 	bl	1611940 <memset>
 16108f8:	e5945000 	ldr	r5, [r4]
 16108fc:	e3a02038 	mov	r2, #56	; 0x38
 1610900:	e3a01000 	mov	r1, #0
 1610904:	e1a00005 	mov	r0, r5
 1610908:	eb00040c 	bl	1611940 <memset>
 161090c:	e5943000 	ldr	r3, [r4]
 1610910:	e1a00005 	mov	r0, r5
 1610914:	e2833c01 	add	r3, r3, #256	; 0x100
 1610918:	e5843000 	str	r3, [r4]
 161091c:	e8bd8070 	pop	{r4, r5, r6, pc}

01610920 <load_otp>:
 1610920:	e3a01a05 	mov	r1, #20480	; 0x5000
 1610924:	e3491801 	movt	r1, #38913	; 0x9801
 1610928:	e3a00001 	mov	r0, #1
 161092c:	e1a02001 	mov	r2, r1
 1610930:	e3a03801 	mov	r3, #65536	; 0x10000
 1610934:	e581019c 	str	r0, [r1, #412]	; 0x19c
 1610938:	e592019c 	ldr	r0, [r2, #412]	; 0x19c
 161093c:	e2100001 	ands	r0, r0, #1
 1610940:	012fff1e 	bxeq	lr
 1610944:	e2533001 	subs	r3, r3, #1
 1610948:	1afffffa 	bne	1610938 <load_otp+0x18>
 161094c:	e3e00000 	mvn	r0, #0
 1610950:	e12fff1e 	bx	lr

01610954 <do_mcp>:
 1610954:	e2503000 	subs	r3, r0, #0
 1610958:	0a00003d 	beq	1610a54 <do_mcp+0x100>
 161095c:	e92d4070 	push	{r4, r5, r6, lr}
 1610960:	e3a05a05 	mov	r5, #20480	; 0x5000
 1610964:	e3495801 	movt	r5, #38913	; 0x9801
 1610968:	e3a0e002 	mov	lr, #2
 161096c:	e283c070 	add	ip, r3, #112	; 0x70
 1610970:	e3a02001 	mov	r2, #1
 1610974:	e3a010fe 	mov	r1, #254	; 0xfe
 1610978:	e5852934 	str	r2, [r5, #2356]	; 0x934
 161097c:	e2832038 	add	r2, r3, #56	; 0x38
 1610980:	e5851908 	str	r1, [r5, #2312]	; 0x908
 1610984:	e3a01038 	mov	r1, #56	; 0x38
 1610988:	e585e900 	str	lr, [r5, #2304]	; 0x900
 161098c:	e585390c 	str	r3, [r5, #2316]	; 0x90c
 1610990:	e585c910 	str	ip, [r5, #2320]	; 0x910
 1610994:	e5853914 	str	r3, [r5, #2324]	; 0x914
 1610998:	e5852918 	str	r2, [r5, #2328]	; 0x918
 161099c:	ebffffa6 	bl	161083c <flush_cache>
 16109a0:	eb00031d 	bl	161161c <sync>
 16109a4:	f57ff06f 	isb	sy
 16109a8:	e3a03003 	mov	r3, #3
 16109ac:	e5853900 	str	r3, [r5, #2304]	; 0x900
 16109b0:	eb000319 	bl	161161c <sync>
 16109b4:	e5953904 	ldr	r3, [r5, #2308]	; 0x904
 16109b8:	e3130006 	tst	r3, #6
 16109bc:	030f4fff 	movweq	r4, #65535	; 0xffff
 16109c0:	0340407f 	movteq	r4, #127	; 0x7f
 16109c4:	0a000002 	beq	16109d4 <do_mcp+0x80>
 16109c8:	ea000009 	b	16109f4 <do_mcp+0xa0>
 16109cc:	e2544001 	subs	r4, r4, #1
 16109d0:	0a000019 	beq	1610a3c <do_mcp+0xe8>
 16109d4:	e3a00001 	mov	r0, #1
 16109d8:	eb0002e2 	bl	1611568 <mdelay>
 16109dc:	eb00030e 	bl	161161c <sync>
 16109e0:	e5952904 	ldr	r2, [r5, #2308]	; 0x904
 16109e4:	e3a03a05 	mov	r3, #20480	; 0x5000
 16109e8:	e3493801 	movt	r3, #38913	; 0x9801
 16109ec:	e3120006 	tst	r2, #6
 16109f0:	0afffff5 	beq	16109cc <do_mcp+0x78>
 16109f4:	e3a03a05 	mov	r3, #20480	; 0x5000
 16109f8:	e3493801 	movt	r3, #38913	; 0x9801
 16109fc:	e5932904 	ldr	r2, [r3, #2308]	; 0x904
 1610a00:	e3120002 	tst	r2, #2
 1610a04:	13a00000 	movne	r0, #0
 1610a08:	0a000006 	beq	1610a28 <do_mcp+0xd4>
 1610a0c:	e3a03a05 	mov	r3, #20480	; 0x5000
 1610a10:	e3493801 	movt	r3, #38913	; 0x9801
 1610a14:	e3a01002 	mov	r1, #2
 1610a18:	e3a02006 	mov	r2, #6
 1610a1c:	e5831900 	str	r1, [r3, #2304]	; 0x900
 1610a20:	e5832904 	str	r2, [r3, #2308]	; 0x904
 1610a24:	e8bd8070 	pop	{r4, r5, r6, pc}
 1610a28:	e5933904 	ldr	r3, [r3, #2308]	; 0x904
 1610a2c:	e3130004 	tst	r3, #4
 1610a30:	13e00000 	mvnne	r0, #0
 1610a34:	03e00001 	mvneq	r0, #1
 1610a38:	eafffff3 	b	1610a0c <do_mcp+0xb8>
 1610a3c:	e3a01002 	mov	r1, #2
 1610a40:	e3a02006 	mov	r2, #6
 1610a44:	e5831900 	str	r1, [r3, #2304]	; 0x900
 1610a48:	e3e00002 	mvn	r0, #2
 1610a4c:	e5832904 	str	r2, [r3, #2308]	; 0x904
 1610a50:	e8bd8070 	pop	{r4, r5, r6, pc}
 1610a54:	e3e00000 	mvn	r0, #0
 1610a58:	e12fff1e 	bx	lr

01610a5c <swap_endian>:
 1610a5c:	e6bf0f30 	rev	r0, r0
 1610a60:	e12fff1e 	bx	lr

01610a64 <reverse_rsa_signature>:
 1610a64:	e92d4030 	push	{r4, r5, lr}
 1610a68:	e2801206 	add	r1, r0, #1610612736	; 0x60000000
 1610a6c:	e30fefff 	movw	lr, #65535	; 0xffff
 1610a70:	e340e006 	movt	lr, #6
 1610a74:	e24dd014 	sub	sp, sp, #20
 1610a78:	e2814010 	add	r4, r1, #16
 1610a7c:	e1a0c00d 	mov	ip, sp
 1610a80:	e1a03001 	mov	r3, r1
 1610a84:	e283231a 	add	r2, r3, #1744830464	; 0x68000000
 1610a88:	e152000e 	cmp	r2, lr
 1610a8c:	8a00003f 	bhi	1610b90 <reverse_rsa_signature+0x12c>
 1610a90:	e5932000 	ldr	r2, [r3]
 1610a94:	e2833004 	add	r3, r3, #4
 1610a98:	e6bf2f32 	rev	r2, r2
 1610a9c:	e1530004 	cmp	r3, r4
 1610aa0:	e48c2004 	str	r2, [ip], #4
 1610aa4:	1afffff6 	bne	1610a84 <reverse_rsa_signature+0x20>
 1610aa8:	e2803332 	add	r3, r0, #-939524096	; 0xc8000000
 1610aac:	e283e01c 	add	lr, r3, #28
 1610ab0:	e35e0807 	cmp	lr, #458752	; 0x70000
 1610ab4:	2a000080 	bcs	1610cbc <reverse_rsa_signature+0x258>
 1610ab8:	e591201c 	ldr	r2, [r1, #28]
 1610abc:	e3530807 	cmp	r3, #458752	; 0x70000
 1610ac0:	e6bf2f32 	rev	r2, r2
 1610ac4:	2a000076 	bcs	1610ca4 <reverse_rsa_signature+0x240>
 1610ac8:	e5812000 	str	r2, [r1]
 1610acc:	e2834018 	add	r4, r3, #24
 1610ad0:	e3540807 	cmp	r4, #458752	; 0x70000
 1610ad4:	2a00006c 	bcs	1610c8c <reverse_rsa_signature+0x228>
 1610ad8:	e591c018 	ldr	ip, [r1, #24]
 1610adc:	e2832004 	add	r2, r3, #4
 1610ae0:	e6bfcf3c 	rev	ip, ip
 1610ae4:	e3520807 	cmp	r2, #458752	; 0x70000
 1610ae8:	2a000061 	bcs	1610c74 <reverse_rsa_signature+0x210>
 1610aec:	e2802246 	add	r2, r0, #1610612740	; 0x60000004
 1610af0:	e582c000 	str	ip, [r2]
 1610af4:	e2835014 	add	r5, r3, #20
 1610af8:	e3550807 	cmp	r5, #458752	; 0x70000
 1610afc:	2a000056 	bcs	1610c5c <reverse_rsa_signature+0x1f8>
 1610b00:	e591c014 	ldr	ip, [r1, #20]
 1610b04:	e2832008 	add	r2, r3, #8
 1610b08:	e6bfcf3c 	rev	ip, ip
 1610b0c:	e3520807 	cmp	r2, #458752	; 0x70000
 1610b10:	2a00004b 	bcs	1610c44 <reverse_rsa_signature+0x1e0>
 1610b14:	e2802286 	add	r2, r0, #1610612744	; 0x60000008
 1610b18:	e582c000 	str	ip, [r2]
 1610b1c:	e283c010 	add	ip, r3, #16
 1610b20:	e35c0807 	cmp	ip, #458752	; 0x70000
 1610b24:	2a000040 	bcs	1610c2c <reverse_rsa_signature+0x1c8>
 1610b28:	e5912010 	ldr	r2, [r1, #16]
 1610b2c:	e283300c 	add	r3, r3, #12
 1610b30:	e6bf2f32 	rev	r2, r2
 1610b34:	e3530807 	cmp	r3, #458752	; 0x70000
 1610b38:	2a000035 	bcs	1610c14 <reverse_rsa_signature+0x1b0>
 1610b3c:	e28032c6 	add	r3, r0, #1610612748	; 0x6000000c
 1610b40:	e5832000 	str	r2, [r3]
 1610b44:	e35c0807 	cmp	ip, #458752	; 0x70000
 1610b48:	e59d300c 	ldr	r3, [sp, #12]
 1610b4c:	2a00002a 	bcs	1610bfc <reverse_rsa_signature+0x198>
 1610b50:	e5813010 	str	r3, [r1, #16]
 1610b54:	e3550807 	cmp	r5, #458752	; 0x70000
 1610b58:	e59d3008 	ldr	r3, [sp, #8]
 1610b5c:	2a000020 	bcs	1610be4 <reverse_rsa_signature+0x180>
 1610b60:	e5813014 	str	r3, [r1, #20]
 1610b64:	e3540807 	cmp	r4, #458752	; 0x70000
 1610b68:	e59d3004 	ldr	r3, [sp, #4]
 1610b6c:	2a000016 	bcs	1610bcc <reverse_rsa_signature+0x168>
 1610b70:	e5813018 	str	r3, [r1, #24]
 1610b74:	e35e0807 	cmp	lr, #458752	; 0x70000
 1610b78:	e59d3000 	ldr	r3, [sp]
 1610b7c:	2a00000a 	bcs	1610bac <reverse_rsa_signature+0x148>
 1610b80:	e3a00000 	mov	r0, #0
 1610b84:	e581301c 	str	r3, [r1, #28]
 1610b88:	e28dd014 	add	sp, sp, #20
 1610b8c:	e8bd8030 	pop	{r4, r5, pc}
 1610b90:	e2832467 	add	r2, r3, #1728053248	; 0x67000000
 1610b94:	e283520a 	add	r5, r3, #-1610612736	; 0xa0000000
 1610b98:	e282260f 	add	r2, r2, #15728640	; 0xf00000
 1610b9c:	e3520402 	cmp	r2, #33554432	; 0x2000000
 1610ba0:	25952000 	ldrcs	r2, [r5]
 1610ba4:	2affffba 	bcs	1610a94 <reverse_rsa_signature+0x30>
 1610ba8:	eaffffb8 	b	1610a90 <reverse_rsa_signature+0x2c>
 1610bac:	e2802173 	add	r2, r0, #-1073741796	; 0xc000001c
 1610bb0:	e282267f 	add	r2, r2, #133169152	; 0x7f00000
 1610bb4:	e3520402 	cmp	r2, #33554432	; 0x2000000
 1610bb8:	2580301c 	strcs	r3, [r0, #28]
 1610bbc:	3affffef 	bcc	1610b80 <reverse_rsa_signature+0x11c>
 1610bc0:	e3a00000 	mov	r0, #0
 1610bc4:	e28dd014 	add	sp, sp, #20
 1610bc8:	e8bd8030 	pop	{r4, r5, pc}
 1610bcc:	e2802163 	add	r2, r0, #-1073741800	; 0xc0000018
 1610bd0:	e282267f 	add	r2, r2, #133169152	; 0x7f00000
 1610bd4:	e3520402 	cmp	r2, #33554432	; 0x2000000
 1610bd8:	25803018 	strcs	r3, [r0, #24]
 1610bdc:	2affffe4 	bcs	1610b74 <reverse_rsa_signature+0x110>
 1610be0:	eaffffe2 	b	1610b70 <reverse_rsa_signature+0x10c>
 1610be4:	e2802153 	add	r2, r0, #-1073741804	; 0xc0000014
 1610be8:	e282267f 	add	r2, r2, #133169152	; 0x7f00000
 1610bec:	e3520402 	cmp	r2, #33554432	; 0x2000000
 1610bf0:	25803014 	strcs	r3, [r0, #20]
 1610bf4:	2affffda 	bcs	1610b64 <reverse_rsa_signature+0x100>
 1610bf8:	eaffffd8 	b	1610b60 <reverse_rsa_signature+0xfc>
 1610bfc:	e2802143 	add	r2, r0, #-1073741808	; 0xc0000010
 1610c00:	e282267f 	add	r2, r2, #133169152	; 0x7f00000
 1610c04:	e3520402 	cmp	r2, #33554432	; 0x2000000
 1610c08:	25803010 	strcs	r3, [r0, #16]
 1610c0c:	2affffd0 	bcs	1610b54 <reverse_rsa_signature+0xf0>
 1610c10:	eaffffce 	b	1610b50 <reverse_rsa_signature+0xec>
 1610c14:	e2803133 	add	r3, r0, #-1073741812	; 0xc000000c
 1610c18:	e283367f 	add	r3, r3, #133169152	; 0x7f00000
 1610c1c:	e3530402 	cmp	r3, #33554432	; 0x2000000
 1610c20:	2580200c 	strcs	r2, [r0, #12]
 1610c24:	2affffc6 	bcs	1610b44 <reverse_rsa_signature+0xe0>
 1610c28:	eaffffc3 	b	1610b3c <reverse_rsa_signature+0xd8>
 1610c2c:	e2802143 	add	r2, r0, #-1073741808	; 0xc0000010
 1610c30:	e282267f 	add	r2, r2, #133169152	; 0x7f00000
 1610c34:	e3520402 	cmp	r2, #33554432	; 0x2000000
 1610c38:	25902010 	ldrcs	r2, [r0, #16]
 1610c3c:	2affffba 	bcs	1610b2c <reverse_rsa_signature+0xc8>
 1610c40:	eaffffb8 	b	1610b28 <reverse_rsa_signature+0xc4>
 1610c44:	e2802123 	add	r2, r0, #-1073741816	; 0xc0000008
 1610c48:	e282267f 	add	r2, r2, #133169152	; 0x7f00000
 1610c4c:	e3520402 	cmp	r2, #33554432	; 0x2000000
 1610c50:	2580c008 	strcs	ip, [r0, #8]
 1610c54:	2affffb0 	bcs	1610b1c <reverse_rsa_signature+0xb8>
 1610c58:	eaffffad 	b	1610b14 <reverse_rsa_signature+0xb0>
 1610c5c:	e2802153 	add	r2, r0, #-1073741804	; 0xc0000014
 1610c60:	e282267f 	add	r2, r2, #133169152	; 0x7f00000
 1610c64:	e3520402 	cmp	r2, #33554432	; 0x2000000
 1610c68:	2590c014 	ldrcs	ip, [r0, #20]
 1610c6c:	2affffa4 	bcs	1610b04 <reverse_rsa_signature+0xa0>
 1610c70:	eaffffa2 	b	1610b00 <reverse_rsa_signature+0x9c>
 1610c74:	e2802113 	add	r2, r0, #-1073741820	; 0xc0000004
 1610c78:	e282267f 	add	r2, r2, #133169152	; 0x7f00000
 1610c7c:	e3520402 	cmp	r2, #33554432	; 0x2000000
 1610c80:	2580c004 	strcs	ip, [r0, #4]
 1610c84:	2affff9a 	bcs	1610af4 <reverse_rsa_signature+0x90>
 1610c88:	eaffff97 	b	1610aec <reverse_rsa_signature+0x88>
 1610c8c:	e2802163 	add	r2, r0, #-1073741800	; 0xc0000018
 1610c90:	e282267f 	add	r2, r2, #133169152	; 0x7f00000
 1610c94:	e3520402 	cmp	r2, #33554432	; 0x2000000
 1610c98:	2590c018 	ldrcs	ip, [r0, #24]
 1610c9c:	2affff8e 	bcs	1610adc <reverse_rsa_signature+0x78>
 1610ca0:	eaffff8c 	b	1610ad8 <reverse_rsa_signature+0x74>
 1610ca4:	e280c4c7 	add	ip, r0, #-956301312	; 0xc7000000
 1610ca8:	e28cc60f 	add	ip, ip, #15728640	; 0xf00000
 1610cac:	e35c0402 	cmp	ip, #33554432	; 0x2000000
 1610cb0:	25802000 	strcs	r2, [r0]
 1610cb4:	2affff84 	bcs	1610acc <reverse_rsa_signature+0x68>
 1610cb8:	eaffff82 	b	1610ac8 <reverse_rsa_signature+0x64>
 1610cbc:	e2802173 	add	r2, r0, #-1073741796	; 0xc000001c
 1610cc0:	e282267f 	add	r2, r2, #133169152	; 0x7f00000
 1610cc4:	e3520402 	cmp	r2, #33554432	; 0x2000000
 1610cc8:	2590201c 	ldrcs	r2, [r0, #28]
 1610ccc:	2affff7a 	bcs	1610abc <reverse_rsa_signature+0x58>
 1610cd0:	eaffff78 	b	1610ab8 <reverse_rsa_signature+0x54>

01610cd4 <AES_CBC_decrypt>:
 1610cd4:	e92d41f0 	push	{r4, r5, r6, r7, r8, lr}
 1610cd8:	e1a08000 	mov	r8, r0
 1610cdc:	e1a06001 	mov	r6, r1
 1610ce0:	e1a07002 	mov	r7, r2
 1610ce4:	e1a05003 	mov	r5, r3
 1610ce8:	ebfffef0 	bl	16108b0 <alloc_mcp_descriptor>
 1610cec:	e2504000 	subs	r4, r0, #0
 1610cf0:	0a000017 	beq	1610d54 <AES_CBC_decrypt+0x80>
 1610cf4:	e3550000 	cmp	r5, #0
 1610cf8:	0a00000f 	beq	1610d3c <AES_CBC_decrypt+0x68>
 1610cfc:	e3a03045 	mov	r3, #69	; 0x45
 1610d00:	e5843000 	str	r3, [r4]
 1610d04:	e5953000 	ldr	r3, [r5]
 1610d08:	e5843004 	str	r3, [r4, #4]
 1610d0c:	e5953004 	ldr	r3, [r5, #4]
 1610d10:	e5843008 	str	r3, [r4, #8]
 1610d14:	e5953008 	ldr	r3, [r5, #8]
 1610d18:	e584300c 	str	r3, [r4, #12]
 1610d1c:	e595300c 	ldr	r3, [r5, #12]
 1610d20:	e5843010 	str	r3, [r4, #16]
 1610d24:	e584802c 	str	r8, [r4, #44]	; 0x2c
 1610d28:	e1a00004 	mov	r0, r4
 1610d2c:	e5847030 	str	r7, [r4, #48]	; 0x30
 1610d30:	e5846034 	str	r6, [r4, #52]	; 0x34
 1610d34:	e8bd41f0 	pop	{r4, r5, r6, r7, r8, lr}
 1610d38:	eaffff05 	b	1610954 <do_mcp>
 1610d3c:	ebfffef7 	bl	1610920 <load_otp>
 1610d40:	e3500000 	cmp	r0, #0
 1610d44:	1a000004 	bne	1610d5c <AES_CBC_decrypt+0x88>
 1610d48:	e3013045 	movw	r3, #4165	; 0x1045
 1610d4c:	e5843000 	str	r3, [r4]
 1610d50:	eafffff3 	b	1610d24 <AES_CBC_decrypt+0x50>
 1610d54:	e3e00000 	mvn	r0, #0
 1610d58:	e8bd81f0 	pop	{r4, r5, r6, r7, r8, pc}
 1610d5c:	e3e00001 	mvn	r0, #1
 1610d60:	e8bd81f0 	pop	{r4, r5, r6, r7, r8, pc}

01610d64 <AES_CBC_encrypt>:
 1610d64:	e92d41f0 	push	{r4, r5, r6, r7, r8, lr}
 1610d68:	e1a08000 	mov	r8, r0
 1610d6c:	e1a06001 	mov	r6, r1
 1610d70:	e1a07002 	mov	r7, r2
 1610d74:	e1a05003 	mov	r5, r3
 1610d78:	ebfffecc 	bl	16108b0 <alloc_mcp_descriptor>
 1610d7c:	e2504000 	subs	r4, r0, #0
 1610d80:	0a000017 	beq	1610de4 <AES_CBC_encrypt+0x80>
 1610d84:	e3550000 	cmp	r5, #0
 1610d88:	0a00000f 	beq	1610dcc <AES_CBC_encrypt+0x68>
 1610d8c:	e3a03065 	mov	r3, #101	; 0x65
 1610d90:	e5843000 	str	r3, [r4]
 1610d94:	e5953000 	ldr	r3, [r5]
 1610d98:	e5843004 	str	r3, [r4, #4]
 1610d9c:	e5953004 	ldr	r3, [r5, #4]
 1610da0:	e5843008 	str	r3, [r4, #8]
 1610da4:	e5953008 	ldr	r3, [r5, #8]
 1610da8:	e584300c 	str	r3, [r4, #12]
 1610dac:	e595300c 	ldr	r3, [r5, #12]
 1610db0:	e5843010 	str	r3, [r4, #16]
 1610db4:	e584802c 	str	r8, [r4, #44]	; 0x2c
 1610db8:	e1a00004 	mov	r0, r4
 1610dbc:	e5847030 	str	r7, [r4, #48]	; 0x30
 1610dc0:	e5846034 	str	r6, [r4, #52]	; 0x34
 1610dc4:	e8bd41f0 	pop	{r4, r5, r6, r7, r8, lr}
 1610dc8:	eafffee1 	b	1610954 <do_mcp>
 1610dcc:	ebfffed3 	bl	1610920 <load_otp>
 1610dd0:	e3500000 	cmp	r0, #0
 1610dd4:	1a000004 	bne	1610dec <AES_CBC_encrypt+0x88>
 1610dd8:	e3013065 	movw	r3, #4197	; 0x1065
 1610ddc:	e5843000 	str	r3, [r4]
 1610de0:	eafffff3 	b	1610db4 <AES_CBC_encrypt+0x50>
 1610de4:	e3e00000 	mvn	r0, #0
 1610de8:	e8bd81f0 	pop	{r4, r5, r6, r7, r8, pc}
 1610dec:	e3e00001 	mvn	r0, #1
 1610df0:	e8bd81f0 	pop	{r4, r5, r6, r7, r8, pc}

01610df4 <AES_ECB_decrypt>:
 1610df4:	e92d41f0 	push	{r4, r5, r6, r7, r8, lr}
 1610df8:	e1a08000 	mov	r8, r0
 1610dfc:	e1a06001 	mov	r6, r1
 1610e00:	e1a07002 	mov	r7, r2
 1610e04:	e1a05003 	mov	r5, r3
 1610e08:	ebfffea8 	bl	16108b0 <alloc_mcp_descriptor>
 1610e0c:	e2504000 	subs	r4, r0, #0
 1610e10:	0a000018 	beq	1610e78 <AES_ECB_decrypt+0x84>
 1610e14:	e3550000 	cmp	r5, #0
 1610e18:	0a00000f 	beq	1610e5c <AES_ECB_decrypt+0x68>
 1610e1c:	e3a03005 	mov	r3, #5
 1610e20:	e5843000 	str	r3, [r4]
 1610e24:	e5953000 	ldr	r3, [r5]
 1610e28:	e5843004 	str	r3, [r4, #4]
 1610e2c:	e5953004 	ldr	r3, [r5, #4]
 1610e30:	e5843008 	str	r3, [r4, #8]
 1610e34:	e5953008 	ldr	r3, [r5, #8]
 1610e38:	e584300c 	str	r3, [r4, #12]
 1610e3c:	e595300c 	ldr	r3, [r5, #12]
 1610e40:	e5843010 	str	r3, [r4, #16]
 1610e44:	e584802c 	str	r8, [r4, #44]	; 0x2c
 1610e48:	e1a00004 	mov	r0, r4
 1610e4c:	e5847030 	str	r7, [r4, #48]	; 0x30
 1610e50:	e5846034 	str	r6, [r4, #52]	; 0x34
 1610e54:	e8bd41f0 	pop	{r4, r5, r6, r7, r8, lr}
 1610e58:	eafffebd 	b	1610954 <do_mcp>
 1610e5c:	ebfffeaf 	bl	1610920 <load_otp>
 1610e60:	e3500000 	cmp	r0, #0
 1610e64:	1a000005 	bne	1610e80 <AES_ECB_decrypt+0x8c>
 1610e68:	e3a03a01 	mov	r3, #4096	; 0x1000
 1610e6c:	e3403010 	movt	r3, #16
 1610e70:	e5843000 	str	r3, [r4]
 1610e74:	eafffff2 	b	1610e44 <AES_ECB_decrypt+0x50>
 1610e78:	e3e00000 	mvn	r0, #0
 1610e7c:	e8bd81f0 	pop	{r4, r5, r6, r7, r8, pc}
 1610e80:	e3e00001 	mvn	r0, #1
 1610e84:	e8bd81f0 	pop	{r4, r5, r6, r7, r8, pc}

01610e88 <AES_ECB_encrypt>:
 1610e88:	e92d41f0 	push	{r4, r5, r6, r7, r8, lr}
 1610e8c:	e1a08000 	mov	r8, r0
 1610e90:	e1a07001 	mov	r7, r1
 1610e94:	e1a06002 	mov	r6, r2
 1610e98:	e1a05003 	mov	r5, r3
 1610e9c:	ebfffe83 	bl	16108b0 <alloc_mcp_descriptor>
 1610ea0:	e2504000 	subs	r4, r0, #0
 1610ea4:	0a000028 	beq	1610f4c <AES_ECB_encrypt+0xc4>
 1610ea8:	e3550000 	cmp	r5, #0
 1610eac:	0a000017 	beq	1610f10 <AES_ECB_encrypt+0x88>
 1610eb0:	e3a03025 	mov	r3, #37	; 0x25
 1610eb4:	e5843000 	str	r3, [r4]
 1610eb8:	e5953000 	ldr	r3, [r5]
 1610ebc:	e5843004 	str	r3, [r4, #4]
 1610ec0:	e5953004 	ldr	r3, [r5, #4]
 1610ec4:	e5843008 	str	r3, [r4, #8]
 1610ec8:	e5953008 	ldr	r3, [r5, #8]
 1610ecc:	e584300c 	str	r3, [r4, #12]
 1610ed0:	e595300c 	ldr	r3, [r5, #12]
 1610ed4:	e5843010 	str	r3, [r4, #16]
 1610ed8:	e584802c 	str	r8, [r4, #44]	; 0x2c
 1610edc:	e1a00004 	mov	r0, r4
 1610ee0:	e5846030 	str	r6, [r4, #48]	; 0x30
 1610ee4:	e5847034 	str	r7, [r4, #52]	; 0x34
 1610ee8:	ebfffe99 	bl	1610954 <do_mcp>
 1610eec:	e2504000 	subs	r4, r0, #0
 1610ef0:	0a000001 	beq	1610efc <AES_ECB_encrypt+0x74>
 1610ef4:	e1a00004 	mov	r0, r4
 1610ef8:	e8bd81f0 	pop	{r4, r5, r6, r7, r8, pc}
 1610efc:	e1a00006 	mov	r0, r6
 1610f00:	e1a01007 	mov	r1, r7
 1610f04:	ebfffe4c 	bl	161083c <flush_cache>
 1610f08:	e1a00004 	mov	r0, r4
 1610f0c:	e8bd81f0 	pop	{r4, r5, r6, r7, r8, pc}
 1610f10:	ebfffe82 	bl	1610920 <load_otp>
 1610f14:	e3500000 	cmp	r0, #0
 1610f18:	03013025 	movweq	r3, #4133	; 0x1025
 1610f1c:	05843000 	streq	r3, [r4]
 1610f20:	0affffec 	beq	1610ed8 <AES_ECB_encrypt+0x50>
 1610f24:	e3a030c4 	mov	r3, #196	; 0xc4
 1610f28:	e3022584 	movw	r2, #9604	; 0x2584
 1610f2c:	e3402161 	movt	r2, #353	; 0x161
 1610f30:	e30215a4 	movw	r1, #9636	; 0x25a4
 1610f34:	e3401161 	movt	r1, #353	; 0x161
 1610f38:	e30205ac 	movw	r0, #9644	; 0x25ac
 1610f3c:	e3400161 	movt	r0, #353	; 0x161
 1610f40:	ebfffce4 	bl	16102d8 <printf>
 1610f44:	e3e00001 	mvn	r0, #1
 1610f48:	e8bd81f0 	pop	{r4, r5, r6, r7, r8, pc}
 1610f4c:	e3a030be 	mov	r3, #190	; 0xbe
 1610f50:	e3022584 	movw	r2, #9604	; 0x2584
 1610f54:	e3402161 	movt	r2, #353	; 0x161
 1610f58:	e30215a4 	movw	r1, #9636	; 0x25a4
 1610f5c:	e3401161 	movt	r1, #353	; 0x161
 1610f60:	e30205ac 	movw	r0, #9644	; 0x25ac
 1610f64:	e3400161 	movt	r0, #353	; 0x161
 1610f68:	ebfffcda 	bl	16102d8 <printf>
 1610f6c:	e3e00000 	mvn	r0, #0
 1610f70:	e8bd81f0 	pop	{r4, r5, r6, r7, r8, pc}

01610f74 <AES_hash_one>:
 1610f74:	e92d4070 	push	{r4, r5, r6, lr}
 1610f78:	e1a06000 	mov	r6, r0
 1610f7c:	e1a04001 	mov	r4, r1
 1610f80:	e1a05002 	mov	r5, r2
 1610f84:	ebfffe49 	bl	16108b0 <alloc_mcp_descriptor>
 1610f88:	e2503000 	subs	r3, r0, #0
 1610f8c:	0a000012 	beq	1610fdc <AES_hash_one+0x68>
 1610f90:	e583602c 	str	r6, [r3, #44]	; 0x2c
 1610f94:	e30dcf39 	movw	ip, #57145	; 0xdf39
 1610f98:	e342cdc2 	movt	ip, #11714	; 0x2dc2
 1610f9c:	e583c01c 	str	ip, [r3, #28]
 1610fa0:	e5835030 	str	r5, [r3, #48]	; 0x30
 1610fa4:	e30221d0 	movw	r2, #8656	; 0x21d0
 1610fa8:	e3442203 	movt	r2, #16899	; 0x4203
 1610fac:	e5832020 	str	r2, [r3, #32]
 1610fb0:	e5834034 	str	r4, [r3, #52]	; 0x34
 1610fb4:	e30f2e23 	movw	r2, #65059	; 0xfe23
 1610fb8:	e34c2ef1 	movt	r2, #52977	; 0xcef1
 1610fbc:	e5832024 	str	r2, [r3, #36]	; 0x24
 1610fc0:	e3a01027 	mov	r1, #39	; 0x27
 1610fc4:	e3092d95 	movw	r2, #40341	; 0x9d95
 1610fc8:	e3472402 	movt	r2, #29698	; 0x7402
 1610fcc:	e5832028 	str	r2, [r3, #40]	; 0x28
 1610fd0:	e5831000 	str	r1, [r3]
 1610fd4:	e8bd4070 	pop	{r4, r5, r6, lr}
 1610fd8:	eafffe5d 	b	1610954 <do_mcp>
 1610fdc:	e3e00000 	mvn	r0, #0
 1610fe0:	e8bd8070 	pop	{r4, r5, r6, pc}

01610fe4 <AES_hash>:
 1610fe4:	e3520000 	cmp	r2, #0
 1610fe8:	13500000 	cmpne	r0, #0
 1610fec:	0a000050 	beq	1611134 <AES_hash+0x150>
 1610ff0:	e3530000 	cmp	r3, #0
 1610ff4:	13510000 	cmpne	r1, #0
 1610ff8:	e92d41f0 	push	{r4, r5, r6, r7, r8, lr}
 1610ffc:	e1a06001 	mov	r6, r1
 1611000:	e1a07003 	mov	r7, r3
 1611004:	0a000048 	beq	161112c <AES_hash+0x148>
 1611008:	e1a08000 	mov	r8, r0
 161100c:	e1a04002 	mov	r4, r2
 1611010:	ebfffe26 	bl	16108b0 <alloc_mcp_descriptor>
 1611014:	e2505000 	subs	r5, r0, #0
 1611018:	0a000043 	beq	161112c <AES_hash+0x148>
 161101c:	e30d3f39 	movw	r3, #57145	; 0xdf39
 1611020:	e3423dc2 	movt	r3, #11714	; 0x2dc2
 1611024:	e30221d0 	movw	r2, #8656	; 0x21d0
 1611028:	e3442203 	movt	r2, #16899	; 0x4203
 161102c:	e585301c 	str	r3, [r5, #28]
 1611030:	e30f3e23 	movw	r3, #65059	; 0xfe23
 1611034:	e34c3ef1 	movt	r3, #52977	; 0xcef1
 1611038:	e5853024 	str	r3, [r5, #36]	; 0x24
 161103c:	e5852020 	str	r2, [r5, #32]
 1611040:	e3a03027 	mov	r3, #39	; 0x27
 1611044:	e3092d95 	movw	r2, #40341	; 0x9d95
 1611048:	e3472402 	movt	r2, #29698	; 0x7402
 161104c:	e5854030 	str	r4, [r5, #48]	; 0x30
 1611050:	e5852028 	str	r2, [r5, #40]	; 0x28
 1611054:	e5853000 	str	r3, [r5]
 1611058:	ea000026 	b	16110f8 <AES_hash+0x114>
 161105c:	e3560000 	cmp	r6, #0
 1611060:	0a00002f 	beq	1611124 <AES_hash+0x140>
 1611064:	e5d41001 	ldrb	r1, [r4, #1]
 1611068:	e5d43000 	ldrb	r3, [r4]
 161106c:	e5d42003 	ldrb	r2, [r4, #3]
 1611070:	e5d40002 	ldrb	r0, [r4, #2]
 1611074:	e1a01801 	lsl	r1, r1, #16
 1611078:	e1813c03 	orr	r3, r1, r3, lsl #24
 161107c:	e5951034 	ldr	r1, [r5, #52]	; 0x34
 1611080:	e1833002 	orr	r3, r3, r2
 1611084:	e1833400 	orr	r3, r3, r0, lsl #8
 1611088:	e585301c 	str	r3, [r5, #28]
 161108c:	e0888001 	add	r8, r8, r1
 1611090:	e5d41005 	ldrb	r1, [r4, #5]
 1611094:	e5d43004 	ldrb	r3, [r4, #4]
 1611098:	e5d42007 	ldrb	r2, [r4, #7]
 161109c:	e5d40006 	ldrb	r0, [r4, #6]
 16110a0:	e1a01801 	lsl	r1, r1, #16
 16110a4:	e1813c03 	orr	r3, r1, r3, lsl #24
 16110a8:	e1833002 	orr	r3, r3, r2
 16110ac:	e1833400 	orr	r3, r3, r0, lsl #8
 16110b0:	e5853020 	str	r3, [r5, #32]
 16110b4:	e5d42009 	ldrb	r2, [r4, #9]
 16110b8:	e5d40008 	ldrb	r0, [r4, #8]
 16110bc:	e5d4100a 	ldrb	r1, [r4, #10]
 16110c0:	e1a03802 	lsl	r3, r2, #16
 16110c4:	e1833c00 	orr	r3, r3, r0, lsl #24
 16110c8:	e1832002 	orr	r2, r3, r2
 16110cc:	e1822401 	orr	r2, r2, r1, lsl #8
 16110d0:	e5852024 	str	r2, [r5, #36]	; 0x24
 16110d4:	e5d4100d 	ldrb	r1, [r4, #13]
 16110d8:	e5d4200c 	ldrb	r2, [r4, #12]
 16110dc:	e5d4300f 	ldrb	r3, [r4, #15]
 16110e0:	e5d4000e 	ldrb	r0, [r4, #14]
 16110e4:	e1a01801 	lsl	r1, r1, #16
 16110e8:	e1812c02 	orr	r2, r1, r2, lsl #24
 16110ec:	e1822003 	orr	r2, r2, r3
 16110f0:	e1822400 	orr	r2, r2, r0, lsl #8
 16110f4:	e5852028 	str	r2, [r5, #40]	; 0x28
 16110f8:	e1560007 	cmp	r6, r7
 16110fc:	e585802c 	str	r8, [r5, #44]	; 0x2c
 1611100:	31a03006 	movcc	r3, r6
 1611104:	21a03007 	movcs	r3, r7
 1611108:	e1a00005 	mov	r0, r5
 161110c:	e5853034 	str	r3, [r5, #52]	; 0x34
 1611110:	ebfffe0f 	bl	1610954 <do_mcp>
 1611114:	e3500000 	cmp	r0, #0
 1611118:	e0676006 	rsb	r6, r7, r6
 161111c:	0affffce 	beq	161105c <AES_hash+0x78>
 1611120:	e8bd81f0 	pop	{r4, r5, r6, r7, r8, pc}
 1611124:	e1a00006 	mov	r0, r6
 1611128:	e8bd81f0 	pop	{r4, r5, r6, r7, r8, pc}
 161112c:	e3e00000 	mvn	r0, #0
 1611130:	e8bd81f0 	pop	{r4, r5, r6, r7, r8, pc}
 1611134:	e3e00000 	mvn	r0, #0
 1611138:	e12fff1e 	bx	lr

0161113c <SHA1_hash>:
 161113c:	e3520000 	cmp	r2, #0
 1611140:	13500000 	cmpne	r0, #0
 1611144:	0a00002b 	beq	16111f8 <SHA1_hash+0xbc>
 1611148:	e92d41f0 	push	{r4, r5, r6, r7, r8, lr}
 161114c:	e1a07002 	mov	r7, r2
 1611150:	e1a06000 	mov	r6, r0
 1611154:	e1a04003 	mov	r4, r3
 1611158:	e1a05001 	mov	r5, r1
 161115c:	ebfffdd3 	bl	16108b0 <alloc_mcp_descriptor>
 1611160:	e250c000 	subs	ip, r0, #0
 1611164:	0a000025 	beq	1611200 <SHA1_hash+0xc4>
 1611168:	e3540000 	cmp	r4, #0
 161116c:	e3a03004 	mov	r3, #4
 1611170:	e58c3000 	str	r3, [ip]
 1611174:	0a00000f 	beq	16111b8 <SHA1_hash+0x7c>
 1611178:	e5943000 	ldr	r3, [r4]
 161117c:	e58c3004 	str	r3, [ip, #4]
 1611180:	e5943004 	ldr	r3, [r4, #4]
 1611184:	e58c3008 	str	r3, [ip, #8]
 1611188:	e5943008 	ldr	r3, [r4, #8]
 161118c:	e58c300c 	str	r3, [ip, #12]
 1611190:	e594300c 	ldr	r3, [r4, #12]
 1611194:	e58c3010 	str	r3, [ip, #16]
 1611198:	e5943010 	ldr	r3, [r4, #16]
 161119c:	e58c3014 	str	r3, [ip, #20]
 16111a0:	e58c602c 	str	r6, [ip, #44]	; 0x2c
 16111a4:	e1a0000c 	mov	r0, ip
 16111a8:	e58c7030 	str	r7, [ip, #48]	; 0x30
 16111ac:	e58c5034 	str	r5, [ip, #52]	; 0x34
 16111b0:	e8bd41f0 	pop	{r4, r5, r6, r7, r8, lr}
 16111b4:	eafffde6 	b	1610954 <do_mcp>
 16111b8:	e3022301 	movw	r2, #8961	; 0x2301
 16111bc:	e3462745 	movt	r2, #26437	; 0x6745
 16111c0:	e30a3b89 	movw	r3, #43913	; 0xab89
 16111c4:	e34e3fcd 	movt	r3, #61389	; 0xefcd
 16111c8:	e58c2004 	str	r2, [ip, #4]
 16111cc:	e30d2cfe 	movw	r2, #56574	; 0xdcfe
 16111d0:	e34928ba 	movt	r2, #39098	; 0x98ba
 16111d4:	e58c200c 	str	r2, [ip, #12]
 16111d8:	e58c3008 	str	r3, [ip, #8]
 16111dc:	e3053476 	movw	r3, #21622	; 0x5476
 16111e0:	e3413032 	movt	r3, #4146	; 0x1032
 16111e4:	e58c3010 	str	r3, [ip, #16]
 16111e8:	e30e31f0 	movw	r3, #57840	; 0xe1f0
 16111ec:	e34c33d2 	movt	r3, #50130	; 0xc3d2
 16111f0:	e58c3014 	str	r3, [ip, #20]
 16111f4:	eaffffe9 	b	16111a0 <SHA1_hash+0x64>
 16111f8:	e3e00000 	mvn	r0, #0
 16111fc:	e12fff1e 	bx	lr
 1611200:	e3e00000 	mvn	r0, #0
 1611204:	e8bd81f0 	pop	{r4, r5, r6, r7, r8, pc}

01611208 <do_RSA>:
 1611208:	e92d4070 	push	{r4, r5, r6, lr}
 161120c:	e1a04000 	mov	r4, r0
 1611210:	e1a05001 	mov	r5, r1
 1611214:	e24ddc01 	sub	sp, sp, #256	; 0x100
 1611218:	e1a06002 	mov	r6, r2
 161121c:	f57ff04f 	dsb	sy
 1611220:	eb0000fd 	bl	161161c <sync>
 1611224:	e3a03903 	mov	r3, #49152	; 0xc000
 1611228:	e3493804 	movt	r3, #38916	; 0x9804
 161122c:	e3550000 	cmp	r5, #0
 1611230:	e3a01002 	mov	r1, #2
 1611234:	e3a02000 	mov	r2, #0
 1611238:	e5831f08 	str	r1, [r3, #3848]	; 0xf08
 161123c:	e5832f80 	str	r2, [r3, #3968]	; 0xf80
 1611240:	0a000049 	beq	161136c <do_RSA+0x164>
 1611244:	e3a00b33 	mov	r0, #52224	; 0xcc00
 1611248:	e3490804 	movt	r0, #38916	; 0x9804
 161124c:	e1a01005 	mov	r1, r5
 1611250:	e3a02c01 	mov	r2, #256	; 0x100
 1611254:	eb0001c9 	bl	1611980 <copy_memory>
 1611258:	e3a01c01 	mov	r1, #256	; 0x100
 161125c:	e3a00b33 	mov	r0, #52224	; 0xcc00
 1611260:	e3490804 	movt	r0, #38916	; 0x9804
 1611264:	ebfffd74 	bl	161083c <flush_cache>
 1611268:	e3a02c01 	mov	r2, #256	; 0x100
 161126c:	e3a01000 	mov	r1, #0
 1611270:	e1a0000d 	mov	r0, sp
 1611274:	eb0001ba 	bl	1611964 <set_memory>
 1611278:	e1a0100d 	mov	r1, sp
 161127c:	e3a02c01 	mov	r2, #256	; 0x100
 1611280:	e3a03001 	mov	r3, #1
 1611284:	e30c0d80 	movw	r0, #52608	; 0xcd80
 1611288:	e3490804 	movt	r0, #38916	; 0x9804
 161128c:	e7df3813 	bfi	r3, r3, #16, #16
 1611290:	e58d3000 	str	r3, [sp]
 1611294:	eb0001b9 	bl	1611980 <copy_memory>
 1611298:	e1a01004 	mov	r1, r4
 161129c:	e3a02c01 	mov	r2, #256	; 0x100
 16112a0:	e30c0780 	movw	r0, #51072	; 0xc780
 16112a4:	e3490804 	movt	r0, #38916	; 0x9804
 16112a8:	eb0001b4 	bl	1611980 <copy_memory>
 16112ac:	e3a02c01 	mov	r2, #256	; 0x100
 16112b0:	e0841002 	add	r1, r4, r2
 16112b4:	e3a00cc9 	mov	r0, #51456	; 0xc900
 16112b8:	e3490804 	movt	r0, #38916	; 0x9804
 16112bc:	e3a05903 	mov	r5, #49152	; 0xc000
 16112c0:	e3495804 	movt	r5, #38916	; 0x9804
 16112c4:	eb0001ad 	bl	1611980 <copy_memory>
 16112c8:	e5943200 	ldr	r3, [r4, #512]	; 0x200
 16112cc:	e6bf3f33 	rev	r3, r3
 16112d0:	e5853f84 	str	r3, [r5, #3972]	; 0xf84
 16112d4:	e5953f88 	ldr	r3, [r5, #3976]	; 0xf88
 16112d8:	e3833102 	orr	r3, r3, #-2147483648	; 0x80000000
 16112dc:	e5853f88 	str	r3, [r5, #3976]	; 0xf88
 16112e0:	e5953f0c 	ldr	r3, [r5, #3852]	; 0xf0c
 16112e4:	e3530023 	cmp	r3, #35	; 0x23
 16112e8:	130043e9 	movwne	r4, #1001	; 0x3e9
 16112ec:	1a000002 	bne	16112fc <do_RSA+0xf4>
 16112f0:	ea000006 	b	1611310 <do_RSA+0x108>
 16112f4:	e2544001 	subs	r4, r4, #1
 16112f8:	0a000015 	beq	1611354 <do_RSA+0x14c>
 16112fc:	e3a00001 	mov	r0, #1
 1611300:	eb000098 	bl	1611568 <mdelay>
 1611304:	e5953f0c 	ldr	r3, [r5, #3852]	; 0xf0c
 1611308:	e3530023 	cmp	r3, #35	; 0x23
 161130c:	1afffff8 	bne	16112f4 <do_RSA+0xec>
 1611310:	e3a02020 	mov	r2, #32
 1611314:	e1a00006 	mov	r0, r6
 1611318:	e0864002 	add	r4, r6, r2
 161131c:	e3a01cc9 	mov	r1, #51456	; 0xc900
 1611320:	e3491804 	movt	r1, #38916	; 0x9804
 1611324:	eb000195 	bl	1611980 <copy_memory>
 1611328:	e1a01004 	mov	r1, r4
 161132c:	e1a00006 	mov	r0, r6
 1611330:	ebfffd41 	bl	161083c <flush_cache>
 1611334:	e1a00006 	mov	r0, r6
 1611338:	ebfffdc9 	bl	1610a64 <reverse_rsa_signature>
 161133c:	e1a00006 	mov	r0, r6
 1611340:	e1a01004 	mov	r1, r4
 1611344:	ebfffd3c 	bl	161083c <flush_cache>
 1611348:	e3a00000 	mov	r0, #0
 161134c:	e28ddc01 	add	sp, sp, #256	; 0x100
 1611350:	e8bd8070 	pop	{r4, r5, r6, pc}
 1611354:	e30205bc 	movw	r0, #9660	; 0x25bc
 1611358:	e3400161 	movt	r0, #353	; 0x161
 161135c:	eb0000d4 	bl	16116b4 <prints>
 1611360:	e3a00001 	mov	r0, #1
 1611364:	e28ddc01 	add	sp, sp, #256	; 0x100
 1611368:	e8bd8070 	pop	{r4, r5, r6, pc}
 161136c:	e1a00005 	mov	r0, r5
 1611370:	e3a01b33 	mov	r1, #52224	; 0xcc00
 1611374:	e3491804 	movt	r1, #38916	; 0x9804
 1611378:	e3a02040 	mov	r2, #64	; 0x40
 161137c:	eb0003bc 	bl	1612274 <OTP_Get_Word>
 1611380:	eaffffb4 	b	1611258 <do_RSA+0x50>

01611384 <SHA256_hash>:
 1611384:	e3520000 	cmp	r2, #0
 1611388:	13500000 	cmpne	r0, #0
 161138c:	1a000001 	bne	1611398 <SHA256_hash+0x14>
 1611390:	e3a00093 	mov	r0, #147	; 0x93
 1611394:	e12fff1e 	bx	lr
 1611398:	e92d41f0 	push	{r4, r5, r6, r7, r8, lr}
 161139c:	e1a07002 	mov	r7, r2
 16113a0:	e1a06000 	mov	r6, r0
 16113a4:	e1a04003 	mov	r4, r3
 16113a8:	e1a05001 	mov	r5, r1
 16113ac:	ebfffd3f 	bl	16108b0 <alloc_mcp_descriptor>
 16113b0:	e250c000 	subs	ip, r0, #0
 16113b4:	0a000019 	beq	1611420 <SHA256_hash+0x9c>
 16113b8:	e3540000 	cmp	r4, #0
 16113bc:	e3a0300b 	mov	r3, #11
 16113c0:	e58c3000 	str	r3, [ip]
 16113c4:	0a000017 	beq	1611428 <SHA256_hash+0xa4>
 16113c8:	e5943000 	ldr	r3, [r4]
 16113cc:	e58c3004 	str	r3, [ip, #4]
 16113d0:	e5943004 	ldr	r3, [r4, #4]
 16113d4:	e58c3008 	str	r3, [ip, #8]
 16113d8:	e5943008 	ldr	r3, [r4, #8]
 16113dc:	e58c300c 	str	r3, [ip, #12]
 16113e0:	e594300c 	ldr	r3, [r4, #12]
 16113e4:	e58c3010 	str	r3, [ip, #16]
 16113e8:	e5943010 	ldr	r3, [r4, #16]
 16113ec:	e58c3014 	str	r3, [ip, #20]
 16113f0:	e5943014 	ldr	r3, [r4, #20]
 16113f4:	e58c3018 	str	r3, [ip, #24]
 16113f8:	e5943018 	ldr	r3, [r4, #24]
 16113fc:	e58c301c 	str	r3, [ip, #28]
 1611400:	e594301c 	ldr	r3, [r4, #28]
 1611404:	e58c3020 	str	r3, [ip, #32]
 1611408:	e58c602c 	str	r6, [ip, #44]	; 0x2c
 161140c:	e1a0000c 	mov	r0, ip
 1611410:	e58c7030 	str	r7, [ip, #48]	; 0x30
 1611414:	e58c5034 	str	r5, [ip, #52]	; 0x34
 1611418:	e8bd41f0 	pop	{r4, r5, r6, r7, r8, lr}
 161141c:	eafffd4c 	b	1610954 <do_mcp>
 1611420:	e3a00094 	mov	r0, #148	; 0x94
 1611424:	e8bd81f0 	pop	{r4, r5, r6, r7, r8, pc}
 1611428:	e30e2667 	movw	r2, #58983	; 0xe667
 161142c:	e3462a09 	movt	r2, #27145	; 0x6a09
 1611430:	e30a3e85 	movw	r3, #44677	; 0xae85
 1611434:	e34b3b67 	movt	r3, #47975	; 0xbb67
 1611438:	e58c2004 	str	r2, [ip, #4]
 161143c:	e30f2372 	movw	r2, #62322	; 0xf372
 1611440:	e3432c6e 	movt	r2, #15470	; 0x3c6e
 1611444:	e58c200c 	str	r2, [ip, #12]
 1611448:	e58c3008 	str	r3, [ip, #8]
 161144c:	e305227f 	movw	r2, #21119	; 0x527f
 1611450:	e345210e 	movt	r2, #20750	; 0x510e
 1611454:	e58c2014 	str	r2, [ip, #20]
 1611458:	e30f353a 	movw	r3, #62778	; 0xf53a
 161145c:	e34a354f 	movt	r3, #42319	; 0xa54f
 1611460:	e30d29ab 	movw	r2, #55723	; 0xd9ab
 1611464:	e3412f83 	movt	r2, #8067	; 0x1f83
 1611468:	e58c3010 	str	r3, [ip, #16]
 161146c:	e306388c 	movw	r3, #26764	; 0x688c
 1611470:	e3493b05 	movt	r3, #39685	; 0x9b05
 1611474:	e58c3018 	str	r3, [ip, #24]
 1611478:	e58c201c 	str	r2, [ip, #28]
 161147c:	e30c3d19 	movw	r3, #52505	; 0xcd19
 1611480:	e3453be0 	movt	r3, #23520	; 0x5be0
 1611484:	e58c3020 	str	r3, [ip, #32]
 1611488:	eaffffde 	b	1611408 <SHA256_hash+0x84>

0161148c <reverse_signature>:
 161148c:	e2402001 	sub	r2, r0, #1
 1611490:	e2803c01 	add	r3, r0, #256	; 0x100
 1611494:	e280c080 	add	ip, r0, #128	; 0x80
 1611498:	e5730001 	ldrb	r0, [r3, #-1]!
 161149c:	e5f21001 	ldrb	r1, [r2, #1]!
 16114a0:	e153000c 	cmp	r3, ip
 16114a4:	e5c20000 	strb	r0, [r2]
 16114a8:	e5c31000 	strb	r1, [r3]
 16114ac:	1afffff9 	bne	1611498 <reverse_signature+0xc>
 16114b0:	e12fff1e 	bx	lr

016114b4 <InitTimer>:
 16114b4:	e3500001 	cmp	r0, #1
 16114b8:	9a000001 	bls	16114c4 <InitTimer+0x10>
 16114bc:	e3e00000 	mvn	r0, #0
 16114c0:	e12fff1e 	bx	lr
 16114c4:	e3062d40 	movw	r2, #27968	; 0x6d40
 16114c8:	e3422600 	movt	r2, #9728	; 0x2600
 16114cc:	e0802002 	add	r2, r0, r2
 16114d0:	e3a0ca0b 	mov	ip, #45056	; 0xb000
 16114d4:	e349c801 	movt	ip, #38913	; 0x9801
 16114d8:	e1a02102 	lsl	r2, r2, #2
 16114dc:	e2800001 	add	r0, r0, #1
 16114e0:	e92d4010 	push	{r4, lr}
 16114e4:	e1a03300 	lsl	r3, r0, #6
 16114e8:	e5821000 	str	r1, [r2]
 16114ec:	e3a0e000 	mov	lr, #0
 16114f0:	e3a04103 	mov	r4, #-1073741824	; 0xc0000000
 16114f4:	e582e024 	str	lr, [r2, #36]	; 0x24
 16114f8:	e3a00001 	mov	r0, #1
 16114fc:	e582e018 	str	lr, [r2, #24]
 1611500:	e58c3008 	str	r3, [ip, #8]
 1611504:	e5824018 	str	r4, [r2, #24]
 1611508:	e8bd8010 	pop	{r4, pc}

0161150c <DisableTimer>:
 161150c:	e3500001 	cmp	r0, #1
 1611510:	93063d49 	movwls	r3, #27977	; 0x6d49
 1611514:	93a02000 	movls	r2, #0
 1611518:	93423600 	movtls	r3, #9728	; 0x2600
 161151c:	90803003 	addls	r3, r0, r3
 1611520:	93a00001 	movls	r0, #1
 1611524:	83e00000 	mvnhi	r0, #0
 1611528:	91a03103 	lslls	r3, r3, #2
 161152c:	95832000 	strls	r2, [r3]
 1611530:	9503200c 	strls	r2, [r3, #-12]
 1611534:	e12fff1e 	bx	lr

01611538 <SystemTimeout>:
 1611538:	e3500001 	cmp	r0, #1
 161153c:	9a000001 	bls	1611548 <SystemTimeout+0x10>
 1611540:	e3a00000 	mov	r0, #0
 1611544:	e12fff1e 	bx	lr
 1611548:	e3a03a0b 	mov	r3, #45056	; 0xb000
 161154c:	e3493801 	movt	r3, #38913	; 0x9801
 1611550:	e2800001 	add	r0, r0, #1
 1611554:	e5933008 	ldr	r3, [r3, #8]
 1611558:	e0133300 	ands	r3, r3, r0, lsl #6
 161155c:	13a00001 	movne	r0, #1
 1611560:	03a00000 	moveq	r0, #0
 1611564:	e12fff1e 	bx	lr

01611568 <mdelay>:
 1611568:	e3043240 	movw	r3, #16960	; 0x4240
 161156c:	e340300f 	movt	r3, #15
 1611570:	e30c2ccd 	movw	r2, #52429	; 0xcccd
 1611574:	e34c2ccc 	movt	r2, #52428	; 0xcccc
 1611578:	e0000093 	mul	r0, r3, r0
 161157c:	e3a03a0b 	mov	r3, #45056	; 0xb000
 1611580:	e3493801 	movt	r3, #38913	; 0x9801
 1611584:	e52de004 	push	{lr}		; (str lr, [sp, #-4]!)
 1611588:	e0810290 	umull	r0, r1, r0, r2
 161158c:	e3a0c000 	mov	ip, #0
 1611590:	e3a0e040 	mov	lr, #64	; 0x40
 1611594:	e3a00103 	mov	r0, #-1073741824	; 0xc0000000
 1611598:	e1a02003 	mov	r2, r3
 161159c:	e1a01221 	lsr	r1, r1, #4
 16115a0:	e5831500 	str	r1, [r3, #1280]	; 0x500
 16115a4:	e583c524 	str	ip, [r3, #1316]	; 0x524
 16115a8:	e583c518 	str	ip, [r3, #1304]	; 0x518
 16115ac:	e583e008 	str	lr, [r3, #8]
 16115b0:	e5830518 	str	r0, [r3, #1304]	; 0x518
 16115b4:	e5923008 	ldr	r3, [r2, #8]
 16115b8:	e3130040 	tst	r3, #64	; 0x40
 16115bc:	0afffffc 	beq	16115b4 <mdelay+0x4c>
 16115c0:	e49df004 	pop	{pc}		; (ldr pc, [sp], #4)

016115c4 <udelay>:
 16115c4:	e3a03ffa 	mov	r3, #1000	; 0x3e8
 16115c8:	e30c2ccd 	movw	r2, #52429	; 0xcccd
 16115cc:	e34c2ccc 	movt	r2, #52428	; 0xcccc
 16115d0:	e0000093 	mul	r0, r3, r0
 16115d4:	e3a03a0b 	mov	r3, #45056	; 0xb000
 16115d8:	e3493801 	movt	r3, #38913	; 0x9801
 16115dc:	e52de004 	push	{lr}		; (str lr, [sp, #-4]!)
 16115e0:	e0810290 	umull	r0, r1, r0, r2
 16115e4:	e3a0c000 	mov	ip, #0
 16115e8:	e3a0e040 	mov	lr, #64	; 0x40
 16115ec:	e3a00103 	mov	r0, #-1073741824	; 0xc0000000
 16115f0:	e1a02003 	mov	r2, r3
 16115f4:	e1a01221 	lsr	r1, r1, #4
 16115f8:	e5831500 	str	r1, [r3, #1280]	; 0x500
 16115fc:	e583c524 	str	ip, [r3, #1316]	; 0x524
 1611600:	e583c518 	str	ip, [r3, #1304]	; 0x518
 1611604:	e583e008 	str	lr, [r3, #8]
 1611608:	e5830518 	str	r0, [r3, #1304]	; 0x518
 161160c:	e5923008 	ldr	r3, [r2, #8]
 1611610:	e3130040 	tst	r3, #64	; 0x40
 1611614:	0afffffc 	beq	161160c <udelay+0x48>
 1611618:	e49df004 	pop	{pc}		; (ldr pc, [sp], #4)

0161161c <sync>:
 161161c:	e3a03000 	mov	r3, #0
 1611620:	ee073fba 	mcr	15, 0, r3, cr7, cr10, {5}
 1611624:	e3a02a0a 	mov	r2, #40960	; 0xa000
 1611628:	e3492801 	movt	r2, #38913	; 0x9801
 161162c:	e5823020 	str	r3, [r2, #32]
 1611630:	ee073fba 	mcr	15, 0, r3, cr7, cr10, {5}
 1611634:	e12fff1e 	bx	lr

01611638 <init_uart>:
 1611638:	e3a03a07 	mov	r3, #28672	; 0x7000
 161163c:	e3493800 	movt	r3, #38912	; 0x9800
 1611640:	e92d4010 	push	{r4, lr}
 1611644:	e5932310 	ldr	r2, [r3, #784]	; 0x310
 1611648:	e3a01000 	mov	r1, #0
 161164c:	e3a04090 	mov	r4, #144	; 0x90
 1611650:	e3a0e00e 	mov	lr, #14
 1611654:	e3c228ff 	bic	r2, r2, #16711680	; 0xff0000
 1611658:	e3a0c003 	mov	ip, #3
 161165c:	e3c22a0f 	bic	r2, r2, #61440	; 0xf000
 1611660:	e3a000b7 	mov	r0, #183	; 0xb7
 1611664:	e3822855 	orr	r2, r2, #5570560	; 0x550000
 1611668:	e3822a05 	orr	r2, r2, #20480	; 0x5000
 161166c:	e5832310 	str	r2, [r3, #784]	; 0x310
 1611670:	e583480c 	str	r4, [r3, #2060]	; 0x80c
 1611674:	e583e800 	str	lr, [r3, #2048]	; 0x800
 1611678:	e5831804 	str	r1, [r3, #2052]	; 0x804
 161167c:	e583c80c 	str	ip, [r3, #2060]	; 0x80c
 1611680:	e5830808 	str	r0, [r3, #2056]	; 0x808
 1611684:	e5831804 	str	r1, [r3, #2052]	; 0x804
 1611688:	e8bd8010 	pop	{r4, pc}

0161168c <set_focus_uart>:
 161168c:	e3022a3c 	movw	r2, #10812	; 0x2a3c
 1611690:	e3402162 	movt	r2, #354	; 0x162
 1611694:	e3500000 	cmp	r0, #0
 1611698:	e3a01cb2 	mov	r1, #45568	; 0xb200
 161169c:	e3491801 	movt	r1, #38913	; 0x9801
 16116a0:	e3a03b1e 	mov	r3, #30720	; 0x7800
 16116a4:	e3493800 	movt	r3, #38912	; 0x9800
 16116a8:	11a03001 	movne	r3, r1
 16116ac:	e5823000 	str	r3, [r2]
 16116b0:	e12fff1e 	bx	lr

016116b4 <prints>:
 16116b4:	e5d03000 	ldrb	r3, [r0]
 16116b8:	e3530000 	cmp	r3, #0
 16116bc:	012fff1e 	bxeq	lr
 16116c0:	e3022a3c 	movw	r2, #10812	; 0x2a3c
 16116c4:	e3402162 	movt	r2, #354	; 0x162
 16116c8:	e3a0c00d 	mov	ip, #13
 16116cc:	e5922000 	ldr	r2, [r2]
 16116d0:	e353000a 	cmp	r3, #10
 16116d4:	11a01003 	movne	r1, r3
 16116d8:	0a000008 	beq	1611700 <prints+0x4c>
 16116dc:	e5923014 	ldr	r3, [r2, #20]
 16116e0:	e2033060 	and	r3, r3, #96	; 0x60
 16116e4:	e3530060 	cmp	r3, #96	; 0x60
 16116e8:	1afffffb 	bne	16116dc <prints+0x28>
 16116ec:	e5821000 	str	r1, [r2]
 16116f0:	e5f03001 	ldrb	r3, [r0, #1]!
 16116f4:	e3530000 	cmp	r3, #0
 16116f8:	1afffff4 	bne	16116d0 <prints+0x1c>
 16116fc:	e12fff1e 	bx	lr
 1611700:	e5923014 	ldr	r3, [r2, #20]
 1611704:	e2033060 	and	r3, r3, #96	; 0x60
 1611708:	e3530060 	cmp	r3, #96	; 0x60
 161170c:	1afffffb 	bne	1611700 <prints+0x4c>
 1611710:	e582c000 	str	ip, [r2]
 1611714:	e3a0100a 	mov	r1, #10
 1611718:	eaffffef 	b	16116dc <prints+0x28>

0161171c <wait_done>:
 161171c:	e5903000 	ldr	r3, [r0]
 1611720:	e0033001 	and	r3, r3, r1
 1611724:	e1530002 	cmp	r3, r2
 1611728:	0a000012 	beq	1611778 <wait_done+0x5c>
 161172c:	e92d41f0 	push	{r4, r5, r6, r7, r8, lr}
 1611730:	e1a07002 	mov	r7, r2
 1611734:	e1a06001 	mov	r6, r1
 1611738:	e1a05000 	mov	r5, r0
 161173c:	e3004bb9 	movw	r4, #3001	; 0xbb9
 1611740:	ea000001 	b	161174c <wait_done+0x30>
 1611744:	e2544001 	subs	r4, r4, #1
 1611748:	0a000006 	beq	1611768 <wait_done+0x4c>
 161174c:	e3a00001 	mov	r0, #1
 1611750:	ebffff84 	bl	1611568 <mdelay>
 1611754:	e5953000 	ldr	r3, [r5]
 1611758:	e0033006 	and	r3, r3, r6
 161175c:	e1530007 	cmp	r3, r7
 1611760:	1afffff7 	bne	1611744 <wait_done+0x28>
 1611764:	e8bd81f0 	pop	{r4, r5, r6, r7, r8, pc}
 1611768:	e30205d8 	movw	r0, #9688	; 0x25d8
 161176c:	e3400161 	movt	r0, #353	; 0x161
 1611770:	e8bd41f0 	pop	{r4, r5, r6, r7, r8, lr}
 1611774:	eaffffce 	b	16116b4 <prints>
 1611778:	e12fff1e 	bx	lr

0161177c <print_val>:
 161177c:	e3023a3c 	movw	r3, #10812	; 0x2a3c
 1611780:	e3403162 	movt	r3, #354	; 0x162
 1611784:	e2411001 	sub	r1, r1, #1
 1611788:	e5932000 	ldr	r2, [r3]
 161178c:	e1a03101 	lsl	r3, r1, #2
 1611790:	e1a03330 	lsr	r3, r0, r3
 1611794:	e203300f 	and	r3, r3, #15
 1611798:	e353000a 	cmp	r3, #10
 161179c:	33a0c030 	movcc	ip, #48	; 0x30
 16117a0:	23a0c037 	movcs	ip, #55	; 0x37
 16117a4:	e08cc003 	add	ip, ip, r3
 16117a8:	e5923014 	ldr	r3, [r2, #20]
 16117ac:	e2033060 	and	r3, r3, #96	; 0x60
 16117b0:	e3530060 	cmp	r3, #96	; 0x60
 16117b4:	1afffffb 	bne	16117a8 <print_val+0x2c>
 16117b8:	e2411001 	sub	r1, r1, #1
 16117bc:	e582c000 	str	ip, [r2]
 16117c0:	e3710001 	cmn	r1, #1
 16117c4:	1afffff0 	bne	161178c <print_val+0x10>
 16117c8:	e12fff1e 	bx	lr

016117cc <print_hex>:
 16117cc:	e3a01008 	mov	r1, #8
 16117d0:	eaffffe9 	b	161177c <print_val>

016117d4 <sys_dcache_flush_all>:
 16117d4:	e12fff1e 	bx	lr

016117d8 <put_char>:
 16117d8:	e3023a3c 	movw	r3, #10812	; 0x2a3c
 16117dc:	e3403162 	movt	r3, #354	; 0x162
 16117e0:	e5932000 	ldr	r2, [r3]
 16117e4:	e5923014 	ldr	r3, [r2, #20]
 16117e8:	e2033060 	and	r3, r3, #96	; 0x60
 16117ec:	e3530060 	cmp	r3, #96	; 0x60
 16117f0:	1afffffb 	bne	16117e4 <put_char+0xc>
 16117f4:	e5820000 	str	r0, [r2]
 16117f8:	e12fff1e 	bx	lr

016117fc <hexstr2int>:
 16117fc:	e3a02010 	mov	r2, #16
 1611800:	e3a01000 	mov	r1, #0
 1611804:	eafffa4c 	b	161013c <strtoul>

01611808 <simple_malloc>:
 1611808:	e3022bbc 	movw	r2, #11196	; 0x2bbc
 161180c:	e3402162 	movt	r2, #354	; 0x162
 1611810:	e92d4010 	push	{r4, lr}
 1611814:	e5924000 	ldr	r4, [r2]
 1611818:	e080e004 	add	lr, r0, r4
 161181c:	e35e0401 	cmp	lr, #16777216	; 0x1000000
 1611820:	8a00000b 	bhi	1611854 <simple_malloc+0x4c>
 1611824:	e302ca3c 	movw	ip, #10812	; 0x2a3c
 1611828:	e340c162 	movt	ip, #354	; 0x162
 161182c:	e3100003 	tst	r0, #3
 1611830:	13c03003 	bicne	r3, r0, #3
 1611834:	e59c1004 	ldr	r1, [ip, #4]
 1611838:	12830004 	addne	r0, r3, #4
 161183c:	1080e004 	addne	lr, r0, r4
 1611840:	e582e000 	str	lr, [r2]
 1611844:	e0803001 	add	r3, r0, r1
 1611848:	e1a00001 	mov	r0, r1
 161184c:	e58c3004 	str	r3, [ip, #4]
 1611850:	e8bd8010 	pop	{r4, pc}
 1611854:	e3a00000 	mov	r0, #0
 1611858:	e8bd8010 	pop	{r4, pc}

0161185c <is_hex_digit>:
 161185c:	e2403030 	sub	r3, r0, #48	; 0x30
 1611860:	e3530009 	cmp	r3, #9
 1611864:	9a000007 	bls	1611888 <is_hex_digit+0x2c>
 1611868:	e2403041 	sub	r3, r0, #65	; 0x41
 161186c:	e3530005 	cmp	r3, #5
 1611870:	9a000004 	bls	1611888 <is_hex_digit+0x2c>
 1611874:	e2400061 	sub	r0, r0, #97	; 0x61
 1611878:	e3500005 	cmp	r0, #5
 161187c:	93a00000 	movls	r0, #0
 1611880:	83e00000 	mvnhi	r0, #0
 1611884:	e12fff1e 	bx	lr
 1611888:	e3a00000 	mov	r0, #0
 161188c:	e12fff1e 	bx	lr

01611890 <hexdump>:
 1611890:	e3520000 	cmp	r2, #0
 1611894:	13510000 	cmpne	r1, #0
 1611898:	e92d4070 	push	{r4, r5, r6, lr}
 161189c:	03a04001 	moveq	r4, #1
 16118a0:	13a04000 	movne	r4, #0
 16118a4:	0a000021 	beq	1611930 <hexdump+0xa0>
 16118a8:	e3500000 	cmp	r0, #0
 16118ac:	e30235d0 	movw	r3, #9680	; 0x25d0
 16118b0:	e3403161 	movt	r3, #353	; 0x161
 16118b4:	01a00003 	moveq	r0, r3
 16118b8:	e1a05001 	mov	r5, r1
 16118bc:	e1a06002 	mov	r6, r2
 16118c0:	ebffff7b 	bl	16116b4 <prints>
 16118c4:	e30205ec 	movw	r0, #9708	; 0x25ec
 16118c8:	e3400161 	movt	r0, #353	; 0x161
 16118cc:	ebffff78 	bl	16116b4 <prints>
 16118d0:	e1a00005 	mov	r0, r5
 16118d4:	e3a01008 	mov	r1, #8
 16118d8:	e2455001 	sub	r5, r5, #1
 16118dc:	ebffffa6 	bl	161177c <print_val>
 16118e0:	e30205f4 	movw	r0, #9716	; 0x25f4
 16118e4:	e3400161 	movt	r0, #353	; 0x161
 16118e8:	ebffff71 	bl	16116b4 <prints>
 16118ec:	e3a01002 	mov	r1, #2
 16118f0:	e5f50001 	ldrb	r0, [r5, #1]!
 16118f4:	ebffffa0 	bl	161177c <print_val>
 16118f8:	e204300f 	and	r3, r4, #15
 16118fc:	e353000f 	cmp	r3, #15
 1611900:	e30205f8 	movw	r0, #9720	; 0x25f8
 1611904:	e3400161 	movt	r0, #353	; 0x161
 1611908:	0302051c 	movweq	r0, #9500	; 0x251c
 161190c:	03400161 	movteq	r0, #353	; 0x161
 1611910:	e2844001 	add	r4, r4, #1
 1611914:	ebffff66 	bl	16116b4 <prints>
 1611918:	e1540006 	cmp	r4, r6
 161191c:	1afffff2 	bne	16118ec <hexdump+0x5c>
 1611920:	e302051c 	movw	r0, #9500	; 0x251c
 1611924:	e3400161 	movt	r0, #353	; 0x161
 1611928:	e8bd4070 	pop	{r4, r5, r6, lr}
 161192c:	eaffff60 	b	16116b4 <prints>
 1611930:	e30205e4 	movw	r0, #9700	; 0x25e4
 1611934:	e3400161 	movt	r0, #353	; 0x161
 1611938:	e8bd4070 	pop	{r4, r5, r6, lr}
 161193c:	eaffff5c 	b	16116b4 <prints>

01611940 <memset>:
 1611940:	e3520000 	cmp	r2, #0
 1611944:	e6ef1071 	uxtb	r1, r1
 1611948:	012fff1e 	bxeq	lr
 161194c:	e0802002 	add	r2, r0, r2
 1611950:	e1a03000 	mov	r3, r0
 1611954:	e4c31001 	strb	r1, [r3], #1
 1611958:	e1530002 	cmp	r3, r2
 161195c:	1afffffc 	bne	1611954 <memset+0x14>
 1611960:	e12fff1e 	bx	lr

01611964 <set_memory>:
 1611964:	e3520000 	cmp	r2, #0
 1611968:	012fff1e 	bxeq	lr
 161196c:	e0802002 	add	r2, r0, r2
 1611970:	e4c01001 	strb	r1, [r0], #1
 1611974:	e1500002 	cmp	r0, r2
 1611978:	1afffffc 	bne	1611970 <set_memory+0xc>
 161197c:	e12fff1e 	bx	lr

01611980 <copy_memory>:
 1611980:	e1813002 	orr	r3, r1, r2
 1611984:	e24dd008 	sub	sp, sp, #8
 1611988:	e1803003 	orr	r3, r0, r3
 161198c:	e2133003 	ands	r3, r3, #3
 1611990:	1a00000f 	bne	16119d4 <copy_memory+0x54>
 1611994:	e58d3004 	str	r3, [sp, #4]
 1611998:	e59d3004 	ldr	r3, [sp, #4]
 161199c:	e1520003 	cmp	r2, r3
 16119a0:	9a000009 	bls	16119cc <copy_memory+0x4c>
 16119a4:	e59d3004 	ldr	r3, [sp, #4]
 16119a8:	e59dc004 	ldr	ip, [sp, #4]
 16119ac:	e791c00c 	ldr	ip, [r1, ip]
 16119b0:	e780c003 	str	ip, [r0, r3]
 16119b4:	e59d3004 	ldr	r3, [sp, #4]
 16119b8:	e2833004 	add	r3, r3, #4
 16119bc:	e58d3004 	str	r3, [sp, #4]
 16119c0:	e59d3004 	ldr	r3, [sp, #4]
 16119c4:	e1520003 	cmp	r2, r3
 16119c8:	8afffff5 	bhi	16119a4 <copy_memory+0x24>
 16119cc:	e28dd008 	add	sp, sp, #8
 16119d0:	e12fff1e 	bx	lr
 16119d4:	e3a03000 	mov	r3, #0
 16119d8:	e58d3004 	str	r3, [sp, #4]
 16119dc:	e59d3004 	ldr	r3, [sp, #4]
 16119e0:	e1520003 	cmp	r2, r3
 16119e4:	9afffff8 	bls	16119cc <copy_memory+0x4c>
 16119e8:	e59dc004 	ldr	ip, [sp, #4]
 16119ec:	e59d3004 	ldr	r3, [sp, #4]
 16119f0:	e7d13003 	ldrb	r3, [r1, r3]
 16119f4:	e6ef3073 	uxtb	r3, r3
 16119f8:	e7c0300c 	strb	r3, [r0, ip]
 16119fc:	e59d3004 	ldr	r3, [sp, #4]
 1611a00:	e2833001 	add	r3, r3, #1
 1611a04:	e58d3004 	str	r3, [sp, #4]
 1611a08:	e59d3004 	ldr	r3, [sp, #4]
 1611a0c:	e1520003 	cmp	r2, r3
 1611a10:	8afffff4 	bhi	16119e8 <copy_memory+0x68>
 1611a14:	e28dd008 	add	sp, sp, #8
 1611a18:	e12fff1e 	bx	lr

01611a1c <compare_memory>:
 1611a1c:	e3520000 	cmp	r2, #0
 1611a20:	0a000011 	beq	1611a6c <compare_memory+0x50>
 1611a24:	e52de004 	push	{lr}		; (str lr, [sp, #-4]!)
 1611a28:	e5d1e000 	ldrb	lr, [r1]
 1611a2c:	e5d0c000 	ldrb	ip, [r0]
 1611a30:	e15c000e 	cmp	ip, lr
 1611a34:	00802002 	addeq	r2, r0, r2
 1611a38:	02803001 	addeq	r3, r0, #1
 1611a3c:	0a000004 	beq	1611a54 <compare_memory+0x38>
 1611a40:	ea000007 	b	1611a64 <compare_memory+0x48>
 1611a44:	e4d3c001 	ldrb	ip, [r3], #1
 1611a48:	e5f1e001 	ldrb	lr, [r1, #1]!
 1611a4c:	e15c000e 	cmp	ip, lr
 1611a50:	1a000003 	bne	1611a64 <compare_memory+0x48>
 1611a54:	e1530002 	cmp	r3, r2
 1611a58:	1afffff9 	bne	1611a44 <compare_memory+0x28>
 1611a5c:	e3a00000 	mov	r0, #0
 1611a60:	e49df004 	pop	{pc}		; (ldr pc, [sp], #4)
 1611a64:	e06e000c 	rsb	r0, lr, ip
 1611a68:	e49df004 	pop	{pc}		; (ldr pc, [sp], #4)
 1611a6c:	e1a00002 	mov	r0, r2
 1611a70:	e12fff1e 	bx	lr

01611a74 <compare_str>:
 1611a74:	e5d03000 	ldrb	r3, [r0]
 1611a78:	e3530000 	cmp	r3, #0
 1611a7c:	0a000009 	beq	1611aa8 <compare_str+0x34>
 1611a80:	e5d12000 	ldrb	r2, [r1]
 1611a84:	e1530002 	cmp	r3, r2
 1611a88:	0a000003 	beq	1611a9c <compare_str+0x28>
 1611a8c:	ea000007 	b	1611ab0 <compare_str+0x3c>
 1611a90:	e5f12001 	ldrb	r2, [r1, #1]!
 1611a94:	e1530002 	cmp	r3, r2
 1611a98:	1a000004 	bne	1611ab0 <compare_str+0x3c>
 1611a9c:	e5f03001 	ldrb	r3, [r0, #1]!
 1611aa0:	e3530000 	cmp	r3, #0
 1611aa4:	1afffff9 	bne	1611a90 <compare_str+0x1c>
 1611aa8:	e1a00003 	mov	r0, r3
 1611aac:	e12fff1e 	bx	lr
 1611ab0:	e0620003 	rsb	r0, r2, r3
 1611ab4:	e12fff1e 	bx	lr

01611ab8 <watchdog_reset>:
 1611ab8:	e3a03a0b 	mov	r3, #45056	; 0xb000
 1611abc:	e3493801 	movt	r3, #38913	; 0x9801
 1611ac0:	e3a02000 	mov	r2, #0
 1611ac4:	e3a000a5 	mov	r0, #165	; 0xa5
 1611ac8:	e3a01001 	mov	r1, #1
 1611acc:	e58305b0 	str	r0, [r3, #1456]	; 0x5b0
 1611ad0:	e58315b4 	str	r1, [r3, #1460]	; 0x5b4
 1611ad4:	e58325bc 	str	r2, [r3, #1468]	; 0x5bc
 1611ad8:	e58325b0 	str	r2, [r3, #1456]	; 0x5b0
 1611adc:	e12fff1e 	bx	lr

01611ae0 <__div0>:
 1611ae0:	e12fff1e 	bx	lr

01611ae4 <e_buffer>:
 1611ae4:	e92d4ff0 	push	{r4, r5, r6, r7, r8, r9, sl, fp, lr}
 1611ae8:	e1a0b003 	mov	fp, r3
 1611aec:	e24dd054 	sub	sp, sp, #84	; 0x54
 1611af0:	e59d7080 	ldr	r7, [sp, #128]	; 0x80
 1611af4:	e88d0003 	stm	sp, {r0, r1}
 1611af8:	e59da078 	ldr	sl, [sp, #120]	; 0x78
 1611afc:	e0020793 	mul	r2, r3, r7
 1611b00:	e3520040 	cmp	r2, #64	; 0x40
 1611b04:	83a07040 	movhi	r7, #64	; 0x40
 1611b08:	8737f317 	udivhi	r7, r7, r3
 1611b0c:	e3570000 	cmp	r7, #0
 1611b10:	03a07010 	moveq	r7, #16
 1611b14:	0737f317 	udiveq	r7, r7, r3
 1611b18:	e35a0000 	cmp	sl, #0
 1611b1c:	11a0908b 	lslne	r9, fp, #1
 1611b20:	0a00005c 	beq	1611c98 <e_buffer+0x1b4>
 1611b24:	e302060c 	movw	r0, #9740	; 0x260c
 1611b28:	e3400161 	movt	r0, #353	; 0x161
 1611b2c:	e59d1000 	ldr	r1, [sp]
 1611b30:	ebfff9e8 	bl	16102d8 <printf>
 1611b34:	e157000a 	cmp	r7, sl
 1611b38:	21a0700a 	movcs	r7, sl
 1611b3c:	e59d3000 	ldr	r3, [sp]
 1611b40:	e3570000 	cmp	r7, #0
 1611b44:	e283831a 	add	r8, r3, #1744830464	; 0x68000000
 1611b48:	01a04007 	moveq	r4, r7
 1611b4c:	02488a17 	subeq	r8, r8, #94208	; 0x17000
 1611b50:	01a0e007 	moveq	lr, r7
 1611b54:	0a00003c 	beq	1611c4c <e_buffer+0x168>
 1611b58:	e59d6004 	ldr	r6, [sp, #4]
 1611b5c:	e2488a17 	sub	r8, r8, #94208	; 0x17000
 1611b60:	e3a05000 	mov	r5, #0
 1611b64:	e28d400c 	add	r4, sp, #12
 1611b68:	ea000004 	b	1611b80 <e_buffer+0x9c>
 1611b6c:	e2855001 	add	r5, r5, #1
 1611b70:	ebfff9d8 	bl	16102d8 <printf>
 1611b74:	e1550007 	cmp	r5, r7
 1611b78:	e086600b 	add	r6, r6, fp
 1611b7c:	0a000017 	beq	1611be0 <e_buffer+0xfc>
 1611b80:	e35b0004 	cmp	fp, #4
 1611b84:	05962000 	ldreq	r2, [r6]
 1611b88:	07842105 	streq	r2, [r4, r5, lsl #2]
 1611b8c:	0a000007 	beq	1611bb0 <e_buffer+0xcc>
 1611b90:	e35b0002 	cmp	fp, #2
 1611b94:	01a03085 	lsleq	r3, r5, #1
 1611b98:	01d620b0 	ldrheq	r2, [r6]
 1611b9c:	15d62000 	ldrbne	r2, [r6]
 1611ba0:	06ff2072 	uxtheq	r2, r2
 1611ba4:	018420b3 	strheq	r2, [r4, r3]
 1611ba8:	16ef2072 	uxtbne	r2, r2
 1611bac:	17c42005 	strbne	r2, [r4, r5]
 1611bb0:	e3580b01 	cmp	r8, #1024	; 0x400
 1611bb4:	e3020618 	movw	r0, #9752	; 0x2618
 1611bb8:	e3400161 	movt	r0, #353	; 0x161
 1611bbc:	e1a01009 	mov	r1, r9
 1611bc0:	2affffe9 	bcs	1611b6c <e_buffer+0x88>
 1611bc4:	e3020620 	movw	r0, #9760	; 0x2620
 1611bc8:	e3400161 	movt	r0, #353	; 0x161
 1611bcc:	e2855001 	add	r5, r5, #1
 1611bd0:	ebfff9c0 	bl	16102d8 <printf>
 1611bd4:	e1550007 	cmp	r5, r7
 1611bd8:	e086600b 	add	r6, r6, fp
 1611bdc:	1affffe7 	bne	1611b80 <e_buffer+0x9c>
 1611be0:	e00e079b 	mul	lr, fp, r7
 1611be4:	e59d3004 	ldr	r3, [sp, #4]
 1611be8:	e35e0000 	cmp	lr, #0
 1611bec:	01a0400e 	moveq	r4, lr
 1611bf0:	e083300e 	add	r3, r3, lr
 1611bf4:	01a0e004 	moveq	lr, r4
 1611bf8:	e58d3004 	str	r3, [sp, #4]
 1611bfc:	0a000012 	beq	1611c4c <e_buffer+0x168>
 1611c00:	e24e2001 	sub	r2, lr, #1
 1611c04:	e302c3b4 	movw	ip, #9140	; 0x23b4
 1611c08:	e340c161 	movt	ip, #353	; 0x161
 1611c0c:	e0844002 	add	r4, r4, r2
 1611c10:	e3a0502e 	mov	r5, #46	; 0x2e
 1611c14:	e28d200b 	add	r2, sp, #11
 1611c18:	ea000003 	b	1611c2c <e_buffer+0x148>
 1611c1c:	e3130080 	tst	r3, #128	; 0x80
 1611c20:	1a000005 	bne	1611c3c <e_buffer+0x158>
 1611c24:	e1520004 	cmp	r2, r4
 1611c28:	0a000006 	beq	1611c48 <e_buffer+0x164>
 1611c2c:	e5f23001 	ldrb	r3, [r2, #1]!
 1611c30:	e7dc1003 	ldrb	r1, [ip, r3]
 1611c34:	e3110097 	tst	r1, #151	; 0x97
 1611c38:	1afffff7 	bne	1611c1c <e_buffer+0x138>
 1611c3c:	e1520004 	cmp	r2, r4
 1611c40:	e5c25000 	strb	r5, [r2]
 1611c44:	1afffff8 	bne	1611c2c <e_buffer+0x148>
 1611c48:	e1a0400e 	mov	r4, lr
 1611c4c:	e28d3050 	add	r3, sp, #80	; 0x50
 1611c50:	e3580b01 	cmp	r8, #1024	; 0x400
 1611c54:	e083e00e 	add	lr, r3, lr
 1611c58:	e3a02000 	mov	r2, #0
 1611c5c:	e54e2044 	strb	r2, [lr, #-68]	; 0x44
 1611c60:	3a00000f 	bcc	1611ca4 <e_buffer+0x1c0>
 1611c64:	e3020624 	movw	r0, #9764	; 0x2624
 1611c68:	e3400161 	movt	r0, #353	; 0x161
 1611c6c:	e28d100c 	add	r1, sp, #12
 1611c70:	ebfff998 	bl	16102d8 <printf>
 1611c74:	ebfff995 	bl	16102d0 <ctrlc>
 1611c78:	e59d3000 	ldr	r3, [sp]
 1611c7c:	e3500000 	cmp	r0, #0
 1611c80:	e067a00a 	rsb	sl, r7, sl
 1611c84:	e0833004 	add	r3, r3, r4
 1611c88:	e58d3000 	str	r3, [sp]
 1611c8c:	1a000008 	bne	1611cb4 <e_buffer+0x1d0>
 1611c90:	e35a0000 	cmp	sl, #0
 1611c94:	1affffa2 	bne	1611b24 <e_buffer+0x40>
 1611c98:	e3a00000 	mov	r0, #0
 1611c9c:	e28dd054 	add	sp, sp, #84	; 0x54
 1611ca0:	e8bd8ff0 	pop	{r4, r5, r6, r7, r8, r9, sl, fp, pc}
 1611ca4:	e3020630 	movw	r0, #9776	; 0x2630
 1611ca8:	e3400161 	movt	r0, #353	; 0x161
 1611cac:	ebfff989 	bl	16102d8 <printf>
 1611cb0:	eaffffef 	b	1611c74 <e_buffer+0x190>
 1611cb4:	e3e00000 	mvn	r0, #0
 1611cb8:	e28dd054 	add	sp, sp, #84	; 0x54
 1611cbc:	e8bd8ff0 	pop	{r4, r5, r6, r7, r8, r9, sl, fp, pc}

01611cc0 <read_efuse>:
 1611cc0:	e92d41f0 	push	{r4, r5, r6, r7, r8, lr}
 1611cc4:	e3022a44 	movw	r2, #10820	; 0x2a44
 1611cc8:	e3402162 	movt	r2, #354	; 0x162
 1611ccc:	e59f4094 	ldr	r4, [pc, #148]	; 1611d68 <read_efuse+0xa8>
 1611cd0:	e3a01010 	mov	r1, #16
 1611cd4:	e2820010 	add	r0, r2, #16
 1611cd8:	e3a03000 	mov	r3, #0
 1611cdc:	e0847001 	add	r7, r4, r1
 1611ce0:	e2445010 	sub	r5, r4, #16
 1611ce4:	ebfffc67 	bl	1610e88 <AES_ECB_encrypt>
 1611ce8:	e1a01000 	mov	r1, r0
 1611cec:	e3020638 	movw	r0, #9784	; 0x2638
 1611cf0:	e3400161 	movt	r0, #353	; 0x161
 1611cf4:	e1a06005 	mov	r6, r5
 1611cf8:	ebfff976 	bl	16102d8 <printf>
 1611cfc:	e5f41001 	ldrb	r1, [r4, #1]!
 1611d00:	e3020640 	movw	r0, #9792	; 0x2640
 1611d04:	e3400161 	movt	r0, #353	; 0x161
 1611d08:	e5f62001 	ldrb	r2, [r6, #1]!
 1611d0c:	ebfff971 	bl	16102d8 <printf>
 1611d10:	e1540007 	cmp	r4, r7
 1611d14:	1afffff8 	bne	1611cfc <read_efuse+0x3c>
 1611d18:	e59f204c 	ldr	r2, [pc, #76]	; 1611d6c <read_efuse+0xac>
 1611d1c:	e3a01010 	mov	r1, #16
 1611d20:	e3a03000 	mov	r3, #0
 1611d24:	e2420020 	sub	r0, r2, #32
 1611d28:	e2424001 	sub	r4, r2, #1
 1611d2c:	ebfffc30 	bl	1610df4 <AES_ECB_decrypt>
 1611d30:	e1a01000 	mov	r1, r0
 1611d34:	e3020638 	movw	r0, #9784	; 0x2638
 1611d38:	e3400161 	movt	r0, #353	; 0x161
 1611d3c:	e2446010 	sub	r6, r4, #16
 1611d40:	ebfff964 	bl	16102d8 <printf>
 1611d44:	e5f51001 	ldrb	r1, [r5, #1]!
 1611d48:	e302065c 	movw	r0, #9820	; 0x265c
 1611d4c:	e3400161 	movt	r0, #353	; 0x161
 1611d50:	e5f42001 	ldrb	r2, [r4, #1]!
 1611d54:	ebfff95f 	bl	16102d8 <printf>
 1611d58:	e1550006 	cmp	r5, r6
 1611d5c:	1afffff8 	bne	1611d44 <read_efuse+0x84>
 1611d60:	e3a00000 	mov	r0, #0
 1611d64:	e8bd81f0 	pop	{r4, r5, r6, r7, r8, pc}
 1611d68:	01622a53 	cmneq	r2, r3, asr sl
 1611d6c:	01622a64 	cmneq	r2, r4, ror #20

01611d70 <OTP_JUDGE_BIT>:
 1611d70:	e2002007 	and	r2, r0, #7
 1611d74:	e1a001a0 	lsr	r0, r0, #3
 1611d78:	e3c03003 	bic	r3, r0, #3
 1611d7c:	e2000003 	and	r0, r0, #3
 1611d80:	e2833326 	add	r3, r3, #-1744830464	; 0x98000000
 1611d84:	e2833a17 	add	r3, r3, #94208	; 0x17000
 1611d88:	e1a00180 	lsl	r0, r0, #3
 1611d8c:	e5933000 	ldr	r3, [r3]
 1611d90:	e1a00033 	lsr	r0, r3, r0
 1611d94:	e1a00230 	lsr	r0, r0, r2
 1611d98:	e2000001 	and	r0, r0, #1
 1611d9c:	e12fff1e 	bx	lr

01611da0 <do_burn_efuse_getmptest2>:
 1611da0:	e92d4010 	push	{r4, lr}
 1611da4:	e3001e0a 	movw	r1, #3594	; 0xe0a
 1611da8:	e3020678 	movw	r0, #9848	; 0x2678
 1611dac:	e3400161 	movt	r0, #353	; 0x161
 1611db0:	ebfff948 	bl	16102d8 <printf>
 1611db4:	e3000e0a 	movw	r0, #3594	; 0xe0a
 1611db8:	ebffffec 	bl	1611d70 <OTP_JUDGE_BIT>
 1611dbc:	e3500000 	cmp	r0, #0
 1611dc0:	130206b0 	movwne	r0, #9904	; 0x26b0
 1611dc4:	030206ac 	movweq	r0, #9900	; 0x26ac
 1611dc8:	13400161 	movtne	r0, #353	; 0x161
 1611dcc:	03400161 	movteq	r0, #353	; 0x161
 1611dd0:	ebfff940 	bl	16102d8 <printf>
 1611dd4:	e3a00000 	mov	r0, #0
 1611dd8:	e8bd8010 	pop	{r4, pc}

01611ddc <OTP_Program_Start>:
 1611ddc:	e12fff1e 	bx	lr

01611de0 <OTP_Program_End>:
 1611de0:	e3a03a07 	mov	r3, #28672	; 0x7000
 1611de4:	e3493801 	movt	r3, #38913	; 0x9801
 1611de8:	e92d4010 	push	{r4, lr}
 1611dec:	e5931400 	ldr	r1, [r3, #1024]	; 0x400
 1611df0:	e3a00005 	mov	r0, #5
 1611df4:	e3a02a0a 	mov	r2, #40960	; 0xa000
 1611df8:	e3402080 	movt	r2, #128	; 0x80
 1611dfc:	e5832400 	str	r2, [r3, #1024]	; 0x400
 1611e00:	ebfffdef 	bl	16115c4 <udelay>
 1611e04:	e30215fc 	movw	r1, #9724	; 0x25fc
 1611e08:	e3401161 	movt	r1, #353	; 0x161
 1611e0c:	e30206b8 	movw	r0, #9912	; 0x26b8
 1611e10:	e3400161 	movt	r0, #353	; 0x161
 1611e14:	ebfff92f 	bl	16102d8 <printf>
 1611e18:	e3a00000 	mov	r0, #0
 1611e1c:	e8bd8010 	pop	{r4, pc}

01611e20 <start_program>:
 1611e20:	e92d41f0 	push	{r4, r5, r6, r7, r8, lr}
 1611e24:	e1a07001 	mov	r7, r1
 1611e28:	e1a04000 	mov	r4, r0
 1611e2c:	e30206c4 	movw	r0, #9924	; 0x26c4
 1611e30:	e3400161 	movt	r0, #353	; 0x161
 1611e34:	e1a08002 	mov	r8, r2
 1611e38:	ebfff926 	bl	16102d8 <printf>
 1611e3c:	e1a02007 	mov	r2, r7
 1611e40:	e1a01004 	mov	r1, r4
 1611e44:	e30206dc 	movw	r0, #9948	; 0x26dc
 1611e48:	e3400161 	movt	r0, #353	; 0x161
 1611e4c:	ebfff921 	bl	16102d8 <printf>
 1611e50:	e3a00efe 	mov	r0, #4064	; 0xfe0
 1611e54:	ebffffc5 	bl	1611d70 <OTP_JUDGE_BIT>
 1611e58:	e1b07187 	lsls	r7, r7, #3
 1611e5c:	13a05000 	movne	r5, #0
 1611e60:	11a04005 	movne	r4, r5
 1611e64:	1a00000c 	bne	1611e9c <start_program+0x7c>
 1611e68:	ea000012 	b	1611eb8 <start_program+0x98>
 1611e6c:	e7d83005 	ldrb	r3, [r8, r5]
 1611e70:	e3020724 	movw	r0, #10020	; 0x2724
 1611e74:	e3400161 	movt	r0, #353	; 0x161
 1611e78:	e2844001 	add	r4, r4, #1
 1611e7c:	e1a03653 	asr	r3, r3, r6
 1611e80:	e3130001 	tst	r3, #1
 1611e84:	e1a051a4 	lsr	r5, r4, #3
 1611e88:	13020720 	movwne	r0, #10016	; 0x2720
 1611e8c:	13400161 	movtne	r0, #353	; 0x161
 1611e90:	ebfff910 	bl	16102d8 <printf>
 1611e94:	e1540007 	cmp	r4, r7
 1611e98:	0a000006 	beq	1611eb8 <start_program+0x98>
 1611e9c:	e2146007 	ands	r6, r4, #7
 1611ea0:	1afffff1 	bne	1611e6c <start_program+0x4c>
 1611ea4:	e3020714 	movw	r0, #10004	; 0x2714
 1611ea8:	e3400161 	movt	r0, #353	; 0x161
 1611eac:	e1a01005 	mov	r1, r5
 1611eb0:	ebfff908 	bl	16102d8 <printf>
 1611eb4:	eaffffec 	b	1611e6c <start_program+0x4c>
 1611eb8:	ebffffc8 	bl	1611de0 <OTP_Program_End>
 1611ebc:	e30206fc 	movw	r0, #9980	; 0x26fc
 1611ec0:	e3400161 	movt	r0, #353	; 0x161
 1611ec4:	e8bd41f0 	pop	{r4, r5, r6, r7, r8, lr}
 1611ec8:	eafff902 	b	16102d8 <printf>

01611ecc <do_burn_efuse_rsa>:
 1611ecc:	e92d4010 	push	{r4, lr}
 1611ed0:	e3024a44 	movw	r4, #10820	; 0x2a44
 1611ed4:	e3404162 	movt	r4, #354	; 0x162
 1611ed8:	e3020728 	movw	r0, #10024	; 0x2728
 1611edc:	e3400161 	movt	r0, #353	; 0x161
 1611ee0:	e5b41030 	ldr	r1, [r4, #48]!	; 0x30
 1611ee4:	ebfff8fb 	bl	16102d8 <printf>
 1611ee8:	e3a01c01 	mov	r1, #256	; 0x100
 1611eec:	e1a02004 	mov	r2, r4
 1611ef0:	e3a00000 	mov	r0, #0
 1611ef4:	ebffffc9 	bl	1611e20 <start_program>
 1611ef8:	e3a00000 	mov	r0, #0
 1611efc:	e8bd8010 	pop	{r4, pc}

01611f00 <burn_id_test>:
 1611f00:	e92d4010 	push	{r4, lr}
 1611f04:	e300cff8 	movw	ip, #4088	; 0xff8
 1611f08:	e240ea01 	sub	lr, r0, #4096	; 0x1000
 1611f0c:	e15e000c 	cmp	lr, ip
 1611f10:	8a00000d 	bhi	1611f4c <burn_id_test+0x4c>
 1611f14:	e0803001 	add	r3, r0, r1
 1611f18:	e301cff8 	movw	ip, #8184	; 0x1ff8
 1611f1c:	e153000c 	cmp	r3, ip
 1611f20:	e1a04001 	mov	r4, r1
 1611f24:	8a000002 	bhi	1611f34 <burn_id_test+0x34>
 1611f28:	ebffffbc 	bl	1611e20 <start_program>
 1611f2c:	e3a00000 	mov	r0, #0
 1611f30:	e8bd8010 	pop	{r4, pc}
 1611f34:	e1a01003 	mov	r1, r3
 1611f38:	e3020760 	movw	r0, #10080	; 0x2760
 1611f3c:	e3400161 	movt	r0, #353	; 0x161
 1611f40:	ebfff8e4 	bl	16102d8 <printf>
 1611f44:	e3a00001 	mov	r0, #1
 1611f48:	e8bd8010 	pop	{r4, pc}
 1611f4c:	e1a01000 	mov	r1, r0
 1611f50:	e3020738 	movw	r0, #10040	; 0x2738
 1611f54:	e3400161 	movt	r0, #353	; 0x161
 1611f58:	ebfff8de 	bl	16102d8 <printf>
 1611f5c:	e3a00001 	mov	r0, #1
 1611f60:	e8bd8010 	pop	{r4, pc}

01611f64 <do_burn_efuse_aes>:
 1611f64:	e3500001 	cmp	r0, #1
 1611f68:	e92d4010 	push	{r4, lr}
 1611f6c:	0a00000e 	beq	1611fac <do_burn_efuse_aes+0x48>
 1611f70:	3a000007 	bcc	1611f94 <do_burn_efuse_aes+0x30>
 1611f74:	e3500002 	cmp	r0, #2
 1611f78:	1a000003 	bne	1611f8c <do_burn_efuse_aes+0x28>
 1611f7c:	e59f2040 	ldr	r2, [pc, #64]	; 1611fc4 <do_burn_efuse_aes+0x60>
 1611f80:	e3a01010 	mov	r1, #16
 1611f84:	e3a00c0a 	mov	r0, #2560	; 0xa00
 1611f88:	ebffffa4 	bl	1611e20 <start_program>
 1611f8c:	e3a00000 	mov	r0, #0
 1611f90:	e8bd8010 	pop	{r4, pc}
 1611f94:	e59f202c 	ldr	r2, [pc, #44]	; 1611fc8 <do_burn_efuse_aes+0x64>
 1611f98:	e3a01010 	mov	r1, #16
 1611f9c:	e3a00b02 	mov	r0, #2048	; 0x800
 1611fa0:	ebffff9e 	bl	1611e20 <start_program>
 1611fa4:	e3a00000 	mov	r0, #0
 1611fa8:	e8bd8010 	pop	{r4, pc}
 1611fac:	e59f2018 	ldr	r2, [pc, #24]	; 1611fcc <do_burn_efuse_aes+0x68>
 1611fb0:	e3a01010 	mov	r1, #16
 1611fb4:	e3a00c09 	mov	r0, #2304	; 0x900
 1611fb8:	ebffff98 	bl	1611e20 <start_program>
 1611fbc:	e3a00000 	mov	r0, #0
 1611fc0:	e8bd8010 	pop	{r4, pc}
 1611fc4:	01622b94 			; <UNDEFINED> instruction: 0x01622b94
 1611fc8:	01622b74 	smceq	8884	; 0x22b4
 1611fcc:	01622b84 	cmneq	r2, r4, lsl #23

01611fd0 <do_burn_efuse_deviceID>:
 1611fd0:	e92d4010 	push	{r4, lr}
 1611fd4:	e59f2010 	ldr	r2, [pc, #16]	; 1611fec <do_burn_efuse_deviceID+0x1c>
 1611fd8:	e3a01010 	mov	r1, #16
 1611fdc:	e3a00ed2 	mov	r0, #3360	; 0xd20
 1611fe0:	ebffff8e 	bl	1611e20 <start_program>
 1611fe4:	e3a00000 	mov	r0, #0
 1611fe8:	e8bd8010 	pop	{r4, pc}
 1611fec:	01622ba4 	cmneq	r2, r4, lsr #23

01611ff0 <do_burn_efuse_secureboot>:
 1611ff0:	e92d4010 	push	{r4, lr}
 1611ff4:	e3001da6 	movw	r1, #3494	; 0xda6
 1611ff8:	e3020788 	movw	r0, #10120	; 0x2788
 1611ffc:	e3400161 	movt	r0, #353	; 0x161
 1612000:	ebfff8b4 	bl	16102d8 <printf>
 1612004:	e3a00efe 	mov	r0, #4064	; 0xfe0
 1612008:	ebffff58 	bl	1611d70 <OTP_JUDGE_BIT>
 161200c:	ebffff73 	bl	1611de0 <OTP_Program_End>
 1612010:	e3a00000 	mov	r0, #0
 1612014:	e8bd8010 	pop	{r4, pc}

01612018 <do_burn_efuse_bootenc>:
 1612018:	e92d4010 	push	{r4, lr}
 161201c:	e3001dbb 	movw	r1, #3515	; 0xdbb
 1612020:	e30207ac 	movw	r0, #10156	; 0x27ac
 1612024:	e3400161 	movt	r0, #353	; 0x161
 1612028:	ebfff8aa 	bl	16102d8 <printf>
 161202c:	e3a00efe 	mov	r0, #4064	; 0xfe0
 1612030:	ebffff4e 	bl	1611d70 <OTP_JUDGE_BIT>
 1612034:	ebffff69 	bl	1611de0 <OTP_Program_End>
 1612038:	e3a00000 	mov	r0, #0
 161203c:	e8bd8010 	pop	{r4, pc}

01612040 <do_burn_efuse_loadsos>:
 1612040:	e92d4010 	push	{r4, lr}
 1612044:	e3001e0e 	movw	r1, #3598	; 0xe0e
 1612048:	e30207d0 	movw	r0, #10192	; 0x27d0
 161204c:	e3400161 	movt	r0, #353	; 0x161
 1612050:	ebfff8a0 	bl	16102d8 <printf>
 1612054:	e3a00efe 	mov	r0, #4064	; 0xfe0
 1612058:	ebffff44 	bl	1611d70 <OTP_JUDGE_BIT>
 161205c:	ebffff5f 	bl	1611de0 <OTP_Program_End>
 1612060:	e3a00000 	mov	r0, #0
 1612064:	e8bd8010 	pop	{r4, pc}

01612068 <do_burn_efuse_disonecore>:
 1612068:	e92d4010 	push	{r4, lr}
 161206c:	e3001e0f 	movw	r1, #3599	; 0xe0f
 1612070:	e30207f4 	movw	r0, #10228	; 0x27f4
 1612074:	e3400161 	movt	r0, #353	; 0x161
 1612078:	ebfff896 	bl	16102d8 <printf>
 161207c:	e3a00efe 	mov	r0, #4064	; 0xfe0
 1612080:	ebffff3a 	bl	1611d70 <OTP_JUDGE_BIT>
 1612084:	ebffff55 	bl	1611de0 <OTP_Program_End>
 1612088:	e3a00000 	mov	r0, #0
 161208c:	e8bd8010 	pop	{r4, pc}

01612090 <do_burn_efuse_usb2sram>:
 1612090:	e92d4010 	push	{r4, lr}
 1612094:	e3001dc2 	movw	r1, #3522	; 0xdc2
 1612098:	e302081c 	movw	r0, #10268	; 0x281c
 161209c:	e3400161 	movt	r0, #353	; 0x161
 16120a0:	ebfff88c 	bl	16102d8 <printf>
 16120a4:	e3a00efe 	mov	r0, #4064	; 0xfe0
 16120a8:	ebffff30 	bl	1611d70 <OTP_JUDGE_BIT>
 16120ac:	ebffff4b 	bl	1611de0 <OTP_Program_End>
 16120b0:	e3a00000 	mov	r0, #0
 16120b4:	e8bd8010 	pop	{r4, pc}

016120b8 <do_burn_efuse_mptest2>:
 16120b8:	e92d4010 	push	{r4, lr}
 16120bc:	e3001e0a 	movw	r1, #3594	; 0xe0a
 16120c0:	e3020840 	movw	r0, #10304	; 0x2840
 16120c4:	e3400161 	movt	r0, #353	; 0x161
 16120c8:	ebfff882 	bl	16102d8 <printf>
 16120cc:	e3a00efe 	mov	r0, #4064	; 0xfe0
 16120d0:	ebffff26 	bl	1611d70 <OTP_JUDGE_BIT>
 16120d4:	ebffff41 	bl	1611de0 <OTP_Program_End>
 16120d8:	e3a00000 	mov	r0, #0
 16120dc:	e8bd8010 	pop	{r4, pc}

016120e0 <do_burn_efuse_keysel>:
 16120e0:	e2403001 	sub	r3, r0, #1
 16120e4:	e3530002 	cmp	r3, #2
 16120e8:	e92d4010 	push	{r4, lr}
 16120ec:	e1a04000 	mov	r4, r0
 16120f0:	8a000008 	bhi	1612118 <do_burn_efuse_keysel+0x38>
 16120f4:	e3a00efe 	mov	r0, #4064	; 0xfe0
 16120f8:	ebffff1c 	bl	1611d70 <OTP_JUDGE_BIT>
 16120fc:	e3140001 	tst	r4, #1
 1612100:	1a00000e 	bne	1612140 <do_burn_efuse_keysel+0x60>
 1612104:	e3140002 	tst	r4, #2
 1612108:	1a000007 	bne	161212c <do_burn_efuse_keysel+0x4c>
 161210c:	ebffff33 	bl	1611de0 <OTP_Program_End>
 1612110:	e3a00000 	mov	r0, #0
 1612114:	e8bd8010 	pop	{r4, pc}
 1612118:	e3020870 	movw	r0, #10352	; 0x2870
 161211c:	e3400161 	movt	r0, #353	; 0x161
 1612120:	ebfff86c 	bl	16102d8 <printf>
 1612124:	e3a00001 	mov	r0, #1
 1612128:	e8bd8010 	pop	{r4, pc}
 161212c:	e30208ac 	movw	r0, #10412	; 0x28ac
 1612130:	e3400161 	movt	r0, #353	; 0x161
 1612134:	e3001da1 	movw	r1, #3489	; 0xda1
 1612138:	ebfff866 	bl	16102d8 <printf>
 161213c:	eafffff2 	b	161210c <do_burn_efuse_keysel+0x2c>
 1612140:	e3020888 	movw	r0, #10376	; 0x2888
 1612144:	e3400161 	movt	r0, #353	; 0x161
 1612148:	e3a01eda 	mov	r1, #3488	; 0xda0
 161214c:	ebfff861 	bl	16102d8 <printf>
 1612150:	e3140002 	tst	r4, #2
 1612154:	0affffec 	beq	161210c <do_burn_efuse_keysel+0x2c>
 1612158:	eafffff3 	b	161212c <do_burn_efuse_keysel+0x4c>

0161215c <do_burn_efuse_hwchk>:
 161215c:	e2403001 	sub	r3, r0, #1
 1612160:	e3530002 	cmp	r3, #2
 1612164:	e92d4010 	push	{r4, lr}
 1612168:	e1a04000 	mov	r4, r0
 161216c:	8a000008 	bhi	1612194 <do_burn_efuse_hwchk+0x38>
 1612170:	e3a00efe 	mov	r0, #4064	; 0xfe0
 1612174:	ebfffefd 	bl	1611d70 <OTP_JUDGE_BIT>
 1612178:	e3140001 	tst	r4, #1
 161217c:	1a00000e 	bne	16121bc <do_burn_efuse_hwchk+0x60>
 1612180:	e3140002 	tst	r4, #2
 1612184:	1a000007 	bne	16121a8 <do_burn_efuse_hwchk+0x4c>
 1612188:	ebffff14 	bl	1611de0 <OTP_Program_End>
 161218c:	e3a00000 	mov	r0, #0
 1612190:	e8bd8010 	pop	{r4, pc}
 1612194:	e30208d0 	movw	r0, #10448	; 0x28d0
 1612198:	e3400161 	movt	r0, #353	; 0x161
 161219c:	ebfff84d 	bl	16102d8 <printf>
 16121a0:	e3a00001 	mov	r0, #1
 16121a4:	e8bd8010 	pop	{r4, pc}
 16121a8:	e3020904 	movw	r0, #10500	; 0x2904
 16121ac:	e3400161 	movt	r0, #353	; 0x161
 16121b0:	e3001e0c 	movw	r1, #3596	; 0xe0c
 16121b4:	ebfff847 	bl	16102d8 <printf>
 16121b8:	eafffff2 	b	1612188 <do_burn_efuse_hwchk+0x2c>
 16121bc:	e30208e4 	movw	r0, #10468	; 0x28e4
 16121c0:	e3400161 	movt	r0, #353	; 0x161
 16121c4:	e3001e0b 	movw	r1, #3595	; 0xe0b
 16121c8:	ebfff842 	bl	16102d8 <printf>
 16121cc:	e3140002 	tst	r4, #2
 16121d0:	0affffec 	beq	1612188 <do_burn_efuse_hwchk+0x2c>
 16121d4:	eafffff3 	b	16121a8 <do_burn_efuse_hwchk+0x4c>

016121d8 <do_burn_efuse_all>:
 16121d8:	e92d4010 	push	{r4, lr}
 16121dc:	e3024a44 	movw	r4, #10820	; 0x2a44
 16121e0:	e3404162 	movt	r4, #354	; 0x162
 16121e4:	e2842030 	add	r2, r4, #48	; 0x30
 16121e8:	e3a01c01 	mov	r1, #256	; 0x100
 16121ec:	e3a00000 	mov	r0, #0
 16121f0:	ebffff0a 	bl	1611e20 <start_program>
 16121f4:	e2842e13 	add	r2, r4, #304	; 0x130
 16121f8:	e3a01010 	mov	r1, #16
 16121fc:	e3a00b02 	mov	r0, #2048	; 0x800
 1612200:	ebffff06 	bl	1611e20 <start_program>
 1612204:	e2842d05 	add	r2, r4, #320	; 0x140
 1612208:	e3a01010 	mov	r1, #16
 161220c:	e3a00c09 	mov	r0, #2304	; 0x900
 1612210:	ebffff02 	bl	1611e20 <start_program>
 1612214:	e2842e15 	add	r2, r4, #336	; 0x150
 1612218:	e3a01010 	mov	r1, #16
 161221c:	e3a00c0a 	mov	r0, #2560	; 0xa00
 1612220:	ebfffefe 	bl	1611e20 <start_program>
 1612224:	e2842e16 	add	r2, r4, #352	; 0x160
 1612228:	e3a01010 	mov	r1, #16
 161222c:	e3a00ed2 	mov	r0, #3360	; 0xd20
 1612230:	ebfffefa 	bl	1611e20 <start_program>
 1612234:	ebffff6d 	bl	1611ff0 <do_burn_efuse_secureboot>
 1612238:	ebffff76 	bl	1612018 <do_burn_efuse_bootenc>
 161223c:	ebffff7f 	bl	1612040 <do_burn_efuse_loadsos>
 1612240:	ebffff88 	bl	1612068 <do_burn_efuse_disonecore>
 1612244:	ebffff91 	bl	1612090 <do_burn_efuse_usb2sram>
 1612248:	ebffff9a 	bl	16120b8 <do_burn_efuse_mptest2>
 161224c:	e3a00001 	mov	r0, #1
 1612250:	ebffffa2 	bl	16120e0 <do_burn_efuse_keysel>
 1612254:	e3a00002 	mov	r0, #2
 1612258:	ebffffa0 	bl	16120e0 <do_burn_efuse_keysel>
 161225c:	e3a00001 	mov	r0, #1
 1612260:	ebffffbd 	bl	161215c <do_burn_efuse_hwchk>
 1612264:	e3a00002 	mov	r0, #2
 1612268:	ebffffbb 	bl	161215c <do_burn_efuse_hwchk>
 161226c:	e3a00000 	mov	r0, #0
 1612270:	e8bd8010 	pop	{r4, pc}

01612274 <OTP_Get_Word>:
 1612274:	e3520000 	cmp	r2, #0
 1612278:	e3c00003 	bic	r0, r0, #3
 161227c:	0a00001a 	beq	16122ec <OTP_Get_Word+0x78>
 1612280:	e280033e 	add	r0, r0, #-134217728	; 0xf8000000
 1612284:	e30fcfff 	movw	ip, #65535	; 0xffff
 1612288:	e340c006 	movt	ip, #6
 161228c:	e52de004 	push	{lr}		; (str lr, [sp, #-4]!)
 1612290:	e0812102 	add	r2, r1, r2, lsl #2
 1612294:	e2800a17 	add	r0, r0, #94208	; 0x17000
 1612298:	ea000004 	b	16122b0 <OTP_Get_Word+0x3c>
 161229c:	e5903000 	ldr	r3, [r0]
 16122a0:	e2800004 	add	r0, r0, #4
 16122a4:	e4813004 	str	r3, [r1], #4
 16122a8:	e1510002 	cmp	r1, r2
 16122ac:	0a00000c 	beq	16122e4 <OTP_Get_Word+0x70>
 16122b0:	e280331a 	add	r3, r0, #1744830464	; 0x68000000
 16122b4:	e153000c 	cmp	r3, ip
 16122b8:	9afffff7 	bls	161229c <OTP_Get_Word+0x28>
 16122bc:	e2803467 	add	r3, r0, #1728053248	; 0x67000000
 16122c0:	e280e20a 	add	lr, r0, #-1610612736	; 0xa0000000
 16122c4:	e283360f 	add	r3, r3, #15728640	; 0xf00000
 16122c8:	e3530402 	cmp	r3, #33554432	; 0x2000000
 16122cc:	259e3000 	ldrcs	r3, [lr]
 16122d0:	3afffff1 	bcc	161229c <OTP_Get_Word+0x28>
 16122d4:	e4813004 	str	r3, [r1], #4
 16122d8:	e2800004 	add	r0, r0, #4
 16122dc:	e1510002 	cmp	r1, r2
 16122e0:	1afffff2 	bne	16122b0 <OTP_Get_Word+0x3c>
 16122e4:	e3a00000 	mov	r0, #0
 16122e8:	e49df004 	pop	{pc}		; (ldr pc, [sp], #4)
 16122ec:	e3a00000 	mov	r0, #0
 16122f0:	e12fff1e 	bx	lr

016122f4 <OTP_Get_Byte>:
 16122f4:	e3520000 	cmp	r2, #0
 16122f8:	e3c00003 	bic	r0, r0, #3
 16122fc:	0a00000f 	beq	1612340 <OTP_Get_Byte+0x4c>
 1612300:	e52de004 	push	{lr}		; (str lr, [sp, #-4]!)
 1612304:	e081e002 	add	lr, r1, r2
 1612308:	e1a031a0 	lsr	r3, r0, #3
 161230c:	e2800008 	add	r0, r0, #8
 1612310:	e3c3c003 	bic	ip, r3, #3
 1612314:	e2033003 	and	r3, r3, #3
 1612318:	e28cc326 	add	ip, ip, #-1744830464	; 0x98000000
 161231c:	e28cca17 	add	ip, ip, #94208	; 0x17000
 1612320:	e1a03183 	lsl	r3, r3, #3
 1612324:	e59cc000 	ldr	ip, [ip]
 1612328:	e1a0333c 	lsr	r3, ip, r3
 161232c:	e4c13001 	strb	r3, [r1], #1
 1612330:	e151000e 	cmp	r1, lr
 1612334:	1afffff3 	bne	1612308 <OTP_Get_Byte+0x14>
 1612338:	e1a00002 	mov	r0, r2
 161233c:	e49df004 	pop	{pc}		; (ldr pc, [sp], #4)
 1612340:	e1a00002 	mov	r0, r2
 1612344:	e12fff1e 	bx	lr

01612348 <read_id_test>:
 1612348:	e92d4010 	push	{r4, lr}
 161234c:	e300cff8 	movw	ip, #4088	; 0xff8
 1612350:	e240ea01 	sub	lr, r0, #4096	; 0x1000
 1612354:	e15e000c 	cmp	lr, ip
 1612358:	8a00000f 	bhi	161239c <read_id_test+0x54>
 161235c:	e1a0c002 	mov	ip, r2
 1612360:	e0803001 	add	r3, r0, r1
 1612364:	e3012ff8 	movw	r2, #8184	; 0x1ff8
 1612368:	e1530002 	cmp	r3, r2
 161236c:	8a000004 	bhi	1612384 <read_id_test+0x3c>
 1612370:	e1a02001 	mov	r2, r1
 1612374:	e1a0100c 	mov	r1, ip
 1612378:	ebffffdd 	bl	16122f4 <OTP_Get_Byte>
 161237c:	e3a00000 	mov	r0, #0
 1612380:	e8bd8010 	pop	{r4, pc}
 1612384:	e1a01003 	mov	r1, r3
 1612388:	e3020760 	movw	r0, #10080	; 0x2760
 161238c:	e3400161 	movt	r0, #353	; 0x161
 1612390:	ebfff7d0 	bl	16102d8 <printf>
 1612394:	e3a00001 	mov	r0, #1
 1612398:	e8bd8010 	pop	{r4, pc}
 161239c:	e1a01000 	mov	r1, r0
 16123a0:	e3020738 	movw	r0, #10040	; 0x2738
 16123a4:	e3400161 	movt	r0, #353	; 0x161
 16123a8:	ebfff7ca 	bl	16102d8 <printf>
 16123ac:	e3a00001 	mov	r0, #1
 16123b0:	e8bd8010 	pop	{r4, pc}
