
/backup/wd/bootcode/uboot/examples/efuse_verify/out/efuse_verify:     file format elf32-littlearm


Disassembly of section .text:

01610000 <_back_addr>:
 1610000:	01a00000 	moveq	r0, r0

01610004 <_stack_start>:
 1610004:	02000000 	andeq	r0, r0, #0

01610008 <_stack_start1>:
 1610008:	02500000 	subseq	r0, r0, #0

0161000c <start>:
.globl _stack_start1
_stack_start1:
        .word 0x02500000

start:
     mrc     p15, 0, r1, c0, c0, 5     @ Read Multiprocessor Affinity Register
 161000c:	ee101fb0 	mrc	15, 0, r1, cr0, cr0, {5}
     ands    r1, r1, #0x03             @ Mask off, leaving the CPU ID field
 1610010:	e2111003 	ands	r1, r1, #3
     cmp     r1,#0x00                  @ core0 : 0x00 , others 0x01 , 0x02 ...
 1610014:	e3510000 	cmp	r1, #0
     bne     run_secondary
 1610018:	1a00000c 	bne	1610050 <run_secondary>

     ldr     r8, _back_addr
 161001c:	e51f8024 	ldr	r8, [pc, #-36]	; 1610000 <_back_addr>
     str     lr, [r8]
 1610020:	e588e000 	str	lr, [r8]
     add     r8, r8,#4
 1610024:	e2888004 	add	r8, r8, #4
     str     sp, [r8]
 1610028:	e588d000 	str	sp, [r8]

     ldr     sp, _stack_start
 161002c:	e51fd030 	ldr	sp, [pc, #-48]	; 1610004 <_stack_start>
     bic     sp, sp, #7
 1610030:	e3cdd007 	bic	sp, sp, #7
     bl	     verifymain
 1610034:	eb000187 	bl	1610658 <verifymain>

     ldr     r8, _back_addr
 1610038:	e51f8040 	ldr	r8, [pc, #-64]	; 1610000 <_back_addr>
     add     r9, r8,#4
 161003c:	e2889004 	add	r9, r8, #4
     ldr     sp, [r9]
 1610040:	e599d000 	ldr	sp, [r9]
     ldr     r1, [r8]
 1610044:	e5981000 	ldr	r1, [r8]
     mov     r0, #0
 1610048:	e3a00000 	mov	r0, #0
     bx      r1
 161004c:	e12fff11 	bx	r1

01610050 <run_secondary>:

run_secondary:
     ldr   sp, _stack_start1
 1610050:	e51fd050 	ldr	sp, [pc, #-80]	; 1610008 <_stack_start1>
     MSR   CPSR_c, #0xD3 ; #MODE_SVC:OR:DIS_IRQ:OR:DIS_FIRQ
 1610054:	e321f0d3 	msr	CPSR_c, #211	; 0xd3
     MOV   r0, r0
 1610058:	e1a00000 	nop			; (mov r0, r0)
     MOV   r0, r0
 161005c:	e1a00000 	nop			; (mov r0, r0)
     MOV   r0, r0
 1610060:	e1a00000 	nop			; (mov r0, r0)
9:
     b     9b
 1610064:	eafffffe 	b	1610064 <run_secondary+0x14>
     MOV   r0, r0
 1610068:	e1a00000 	nop			; (mov r0, r0)
     MOV   r0, r0
 161006c:	e1a00000 	nop			; (mov r0, r0)
     MOV   r0, r0
 1610070:	e1a00000 	nop			; (mov r0, r0)

01610074 <strlen>:

int strlen(const char *s)
{
	int	l = 0;

	while (*s++) 
 1610074:	e5d01000 	ldrb	r1, [r0]
 1610078:	e2803001 	add	r3, r0, #1
 161007c:	e3510000 	cmp	r1, #0
 1610080:	0a000003 	beq	1610094 <strlen+0x20>
 1610084:	e0601003 	rsb	r1, r0, r3
 1610088:	e4d32001 	ldrb	r2, [r3], #1
 161008c:	e3520000 	cmp	r2, #0
 1610090:	1afffffb 	bne	1610084 <strlen+0x10>
	{
		
	 l++;
	} 
	return l;
}
 1610094:	e1a00001 	mov	r0, r1
 1610098:	e12fff1e 	bx	lr

0161009c <strstr>:
	const char 	*s2)
{
    const char *s ;
    const char *t ;

    if (!s1 || !s2)
 161009c:	e3510000 	cmp	r1, #0
 16100a0:	13500000 	cmpne	r0, #0
 16100a4:	0a000022 	beq	1610134 <strstr+0x98>
#include "dvrboot_inc/string.h"

char *strstr(
	const char 	*s1, 
	const char 	*s2)
{
 16100a8:	e92d4030 	push	{r4, r5, lr}
    const char *t ;

    if (!s1 || !s2)
	return (0);

    if (!*s2)
 16100ac:	e5d15000 	ldrb	r5, [r1]
 16100b0:	e3550000 	cmp	r5, #0
 16100b4:	08bd8030 	popeq	{r4, r5, pc}
	return ((char*)s1);

    for (; *s1; s1++) 
 16100b8:	e5d03000 	ldrb	r3, [r0]
 16100bc:	e3530000 	cmp	r3, #0
 16100c0:	1a000003 	bne	16100d4 <strstr+0x38>
 16100c4:	ea000018 	b	161012c <strstr+0x90>
 16100c8:	e5f03001 	ldrb	r3, [r0, #1]!
 16100cc:	e3530000 	cmp	r3, #0
 16100d0:	0a000015 	beq	161012c <strstr+0x90>
    {
	if (*s1 == *s2) 
 16100d4:	e1550003 	cmp	r5, r3
 16100d8:	1afffffa 	bne	16100c8 <strstr+0x2c>
        {
	    t = s1;
	    s = s2;
	    for (; *t; s++, t++) 
 16100dc:	e5d03000 	ldrb	r3, [r0]
 16100e0:	e3530000 	cmp	r3, #0
 16100e4:	0afffff7 	beq	16100c8 <strstr+0x2c>
            {
		if (*t != *s)
 16100e8:	e1550003 	cmp	r5, r3
 16100ec:	1afffff5 	bne	16100c8 <strstr+0x2c>
 16100f0:	e2813001 	add	r3, r1, #1
 16100f4:	e1a0c000 	mov	ip, r0
 16100f8:	ea000002 	b	1610108 <strstr+0x6c>
 16100fc:	e5de4000 	ldrb	r4, [lr]
 1610100:	e1540002 	cmp	r4, r2
 1610104:	1a000004 	bne	161011c <strstr+0x80>
    {
	if (*s1 == *s2) 
        {
	    t = s1;
	    s = s2;
	    for (; *t; s++, t++) 
 1610108:	e5fc2001 	ldrb	r2, [ip, #1]!
 161010c:	e1a0e003 	mov	lr, r3
 1610110:	e2833001 	add	r3, r3, #1
 1610114:	e3520000 	cmp	r2, #0
 1610118:	1afffff7 	bne	16100fc <strstr+0x60>
            {
		if (*t != *s)
		    break;
	    }
	    if (!*s)
 161011c:	e5de3000 	ldrb	r3, [lr]
 1610120:	e3530000 	cmp	r3, #0
 1610124:	1affffe7 	bne	16100c8 <strstr+0x2c>
 1610128:	e8bd8030 	pop	{r4, r5, pc}
{
    const char *s ;
    const char *t ;

    if (!s1 || !s2)
	return (0);
 161012c:	e1a00003 	mov	r0, r3
	    if (!*s)
		return ((char*)s1);
	}
    }
    return (0);
}
 1610130:	e8bd8030 	pop	{r4, r5, pc}
{
    const char *s ;
    const char *t ;

    if (!s1 || !s2)
	return (0);
 1610134:	e3a00000 	mov	r0, #0
	    if (!*s)
		return ((char*)s1);
	}
    }
    return (0);
}
 1610138:	e12fff1e 	bx	lr

0161013c <strtoul>:
unsigned long
strtoul(
	const 	char 	*str,
		char 	**endptr,
		int 	base)
{
 161013c:	e92d47f0 	push	{r4, r5, r6, r7, r8, r9, sl, lr}
 1610140:	e302741c 	movw	r7, #9244	; 0x241c
 1610144:	e3407161 	movt	r7, #353	; 0x161
 1610148:	e1a08000 	mov	r8, r0
 161014c:	ea000000 	b	1610154 <strtoul+0x18>
 1610150:	e1a00003 	mov	r0, r3
	/*
	 * See strtol for comments as to the logic used.
	 */
	s = str;
	do {
		c = (unsigned char) *s++;
 1610154:	e1a03000 	mov	r3, r0
 1610158:	e4d3e001 	ldrb	lr, [r3], #1
	} while (isspace(c));
 161015c:	e7d7c00e 	ldrb	ip, [r7, lr]
 1610160:	e20cc020 	and	ip, ip, #32
 1610164:	e21cc0ff 	ands	ip, ip, #255	; 0xff
 1610168:	1afffff8 	bne	1610150 <strtoul+0x14>
	if (c == '-') {
 161016c:	e35e002d 	cmp	lr, #45	; 0x2d
 1610170:	0a000047 	beq	1610294 <strtoul+0x158>
		neg = 1;
		c = *s++;
	} else {
		neg = 0;
		if (c == '+')
 1610174:	e35e002b 	cmp	lr, #43	; 0x2b
			c = *s++;
 1610178:	02803002 	addeq	r3, r0, #2
 161017c:	05d0e001 	ldrbeq	lr, [r0, #1]
	}
	if ((base == 0 || base == 16) &&
 1610180:	e3d20010 	bics	r0, r2, #16
 1610184:	1a000011 	bne	16101d0 <strtoul+0x94>
 1610188:	e16f0f12 	clz	r0, r2
 161018c:	e35e0030 	cmp	lr, #48	; 0x30
 1610190:	e1a002a0 	lsr	r0, r0, #5
 1610194:	0a000042 	beq	16102a4 <strtoul+0x168>
	    c == '0' && (*s == 'x' || *s == 'X')) {
		c = s[1];
		s += 2;
		base = 16;
	}
	if (base == 0)
 1610198:	e3500000 	cmp	r0, #0
 161019c:	0a00000b 	beq	16101d0 <strtoul+0x94>
 16101a0:	e3a0200a 	mov	r2, #10
 16101a4:	e3090999 	movw	r0, #39321	; 0x9999
 16101a8:	e3410999 	movt	r0, #6553	; 0x1999
		base = c == '0' ? 8 : 10;
 16101ac:	e1a0a002 	mov	sl, r2
 16101b0:	e3a09005 	mov	r9, #5
 16101b4:	ea00000a 	b	16101e4 <strtoul+0xa8>
	    c == '0' && (*s == 'x' || *s == 'X')) {
		c = s[1];
		s += 2;
		base = 16;
	}
	if (base == 0)
 16101b8:	e3500000 	cmp	r0, #0
 16101bc:	13a02008 	movne	r2, #8
 16101c0:	13a09007 	movne	r9, #7
		base = c == '0' ? 8 : 10;
 16101c4:	11a0a002 	movne	sl, r2
	    c == '0' && (*s == 'x' || *s == 'X')) {
		c = s[1];
		s += 2;
		base = 16;
	}
	if (base == 0)
 16101c8:	13e0020e 	mvnne	r0, #-536870912	; 0xe0000000
 16101cc:	1a000004 	bne	16101e4 <strtoul+0xa8>
 16101d0:	e3e00000 	mvn	r0, #0
 16101d4:	e1a0a002 	mov	sl, r2
 16101d8:	e730f210 	udiv	r0, r0, r2
 16101dc:	e0090092 	mul	r9, r2, r0
 16101e0:	e1e09009 	mvn	r9, r9
		base = c == '0' ? 8 : 10;

	cutoff = MAXUINT(sizeof(UINT32)) / (unsigned long)base;
	cutlim = MAXUINT(sizeof(UINT32)) % (unsigned long)base;
	for (acc = 0, any = 0;; c = (unsigned char) *s++) {
 16101e4:	e3a05000 	mov	r5, #0
 16101e8:	e1a06005 	mov	r6, r5
 16101ec:	ea000009 	b	1610218 <strtoul+0xdc>
			break;
		if (c >= base)
			break;
		if (any < 0)
			continue;
		if ((acc > cutoff) || (acc == cutoff && c > cutlim)) {
 16101f0:	e15e0009 	cmp	lr, r9
 16101f4:	d3a04000 	movle	r4, #0
 16101f8:	c3a04001 	movgt	r4, #1
 16101fc:	e1560000 	cmp	r6, r0
 1610200:	13a04000 	movne	r4, #0
 1610204:	e3540000 	cmp	r4, #0
 1610208:	1a000012 	bne	1610258 <strtoul+0x11c>
			acc = MAXUINT(sizeof(UINT32));
			//errno = ERANGE;
		} else {
			any = 1;
			acc *= (unsigned long)base;
			acc += c;
 161020c:	e026e69a 	mla	r6, sl, r6, lr
		if ((acc > cutoff) || (acc == cutoff && c > cutlim)) {
			any = -1;
			acc = MAXUINT(sizeof(UINT32));
			//errno = ERANGE;
		} else {
			any = 1;
 1610210:	e3a05001 	mov	r5, #1
	if (base == 0)
		base = c == '0' ? 8 : 10;

	cutoff = MAXUINT(sizeof(UINT32)) / (unsigned long)base;
	cutlim = MAXUINT(sizeof(UINT32)) % (unsigned long)base;
	for (acc = 0, any = 0;; c = (unsigned char) *s++) {
 1610214:	e4d3e001 	ldrb	lr, [r3], #1
		if (isdigit(c))
 1610218:	e7d7400e 	ldrb	r4, [r7, lr]
 161021c:	e3140004 	tst	r4, #4
			c -= '0';
 1610220:	124ee030 	subne	lr, lr, #48	; 0x30
		base = c == '0' ? 8 : 10;

	cutoff = MAXUINT(sizeof(UINT32)) / (unsigned long)base;
	cutlim = MAXUINT(sizeof(UINT32)) % (unsigned long)base;
	for (acc = 0, any = 0;; c = (unsigned char) *s++) {
		if (isdigit(c))
 1610224:	1a000005 	bne	1610240 <strtoul+0x104>
			c -= '0';
		else if (isalpha(c))
 1610228:	e3140003 	tst	r4, #3
 161022c:	0a00000c 	beq	1610264 <strtoul+0x128>
			c -= isupper(c) ? 'A' - 10 : 'a' - 10;
 1610230:	e3140001 	tst	r4, #1
 1610234:	13a04037 	movne	r4, #55	; 0x37
 1610238:	03a04057 	moveq	r4, #87	; 0x57
 161023c:	e064e00e 	rsb	lr, r4, lr
		else
			break;
		if (c >= base)
 1610240:	e152000e 	cmp	r2, lr
 1610244:	da000006 	ble	1610264 <strtoul+0x128>
			break;
		if (any < 0)
 1610248:	e3750001 	cmn	r5, #1
 161024c:	0afffff0 	beq	1610214 <strtoul+0xd8>
			continue;
		if ((acc > cutoff) || (acc == cutoff && c > cutlim)) {
 1610250:	e1560000 	cmp	r6, r0
 1610254:	9affffe5 	bls	16101f0 <strtoul+0xb4>
			any = -1;
 1610258:	e3e05000 	mvn	r5, #0
			acc = MAXUINT(sizeof(UINT32));
 161025c:	e1a06005 	mov	r6, r5
 1610260:	eaffffeb 	b	1610214 <strtoul+0xd8>
			any = 1;
			acc *= (unsigned long)base;
			acc += c;
		}
	}
	if (neg && any > 0)
 1610264:	e3550000 	cmp	r5, #0
 1610268:	d3a0c000 	movle	ip, #0
 161026c:	c20cc001 	andgt	ip, ip, #1
		acc = -acc;
	if (endptr != 0)
 1610270:	e3510000 	cmp	r1, #0
 1610274:	e26c0000 	rsb	r0, ip, #0
 1610278:	e0266000 	eor	r6, r6, r0
 161027c:	e086000c 	add	r0, r6, ip
 1610280:	08bd87f0 	popeq	{r4, r5, r6, r7, r8, r9, sl, pc}
		*endptr = (char *) (any ? s - 1 : (char *) str);
 1610284:	e3550000 	cmp	r5, #0
 1610288:	12438001 	subne	r8, r3, #1
 161028c:	e5818000 	str	r8, [r1]
 1610290:	e8bd87f0 	pop	{r4, r5, r6, r7, r8, r9, sl, pc}
	do {
		c = (unsigned char) *s++;
	} while (isspace(c));
	if (c == '-') {
		neg = 1;
		c = *s++;
 1610294:	e2803002 	add	r3, r0, #2
 1610298:	e5d0e001 	ldrb	lr, [r0, #1]
 161029c:	e3a0c001 	mov	ip, #1
 16102a0:	eaffffb6 	b	1610180 <strtoul+0x44>
		neg = 0;
		if (c == '+')
			c = *s++;
	}
	if ((base == 0 || base == 16) &&
	    c == '0' && (*s == 'x' || *s == 'X')) {
 16102a4:	e5d34000 	ldrb	r4, [r3]
 16102a8:	e20440df 	and	r4, r4, #223	; 0xdf
 16102ac:	e3540058 	cmp	r4, #88	; 0x58
 16102b0:	1affffc0 	bne	16101b8 <strtoul+0x7c>
		c = s[1];
		s += 2;
 16102b4:	e3a02010 	mov	r2, #16
		if (c == '+')
			c = *s++;
	}
	if ((base == 0 || base == 16) &&
	    c == '0' && (*s == 'x' || *s == 'X')) {
		c = s[1];
 16102b8:	e5d3e001 	ldrb	lr, [r3, #1]
		s += 2;
		base = 16;
 16102bc:	e1a0a002 	mov	sl, r2
			c = *s++;
	}
	if ((base == 0 || base == 16) &&
	    c == '0' && (*s == 'x' || *s == 'X')) {
		c = s[1];
		s += 2;
 16102c0:	e2833002 	add	r3, r3, #2
 16102c4:	e3a0900f 	mov	r9, #15
 16102c8:	e3e0020f 	mvn	r0, #-268435456	; 0xf0000000
 16102cc:	eaffffc4 	b	16101e4 <strtoul+0xa8>

016102d0 <ctrlc>:
 16102d0:	e3a00000 	mov	r0, #0
 16102d4:	e12fff1e 	bx	lr

016102d8 <printf>:
 16102d8:	e92d000f 	push	{r0, r1, r2, r3}
 16102dc:	e3a00001 	mov	r0, #1
 16102e0:	e28dd010 	add	sp, sp, #16
 16102e4:	e12fff1e 	bx	lr

016102e8 <memcpy>:
 16102e8:	e3520000 	cmp	r2, #0
 16102ec:	012fff1e 	bxeq	lr
 16102f0:	e0812002 	add	r2, r1, r2
 16102f4:	e2403001 	sub	r3, r0, #1
 16102f8:	e4d1c001 	ldrb	ip, [r1], #1
 16102fc:	e5e3c001 	strb	ip, [r3, #1]!
 1610300:	e1510002 	cmp	r1, r2
 1610304:	1afffffb 	bne	16102f8 <memcpy+0x10>
 1610308:	e12fff1e 	bx	lr

0161030c <memcmp>:
 161030c:	e3520000 	cmp	r2, #0
 1610310:	0a000011 	beq	161035c <memcmp+0x50>
 1610314:	e5d03000 	ldrb	r3, [r0]
 1610318:	e1a0c000 	mov	ip, r0
 161031c:	e5d10000 	ldrb	r0, [r1]
 1610320:	e0530000 	subs	r0, r3, r0
 1610324:	112fff1e 	bxne	lr
 1610328:	e08c2002 	add	r2, ip, r2
 161032c:	e28cc001 	add	ip, ip, #1
 1610330:	e52de004 	push	{lr}		; (str lr, [sp, #-4]!)
 1610334:	ea000003 	b	1610348 <memcmp+0x3c>
 1610338:	e4dc3001 	ldrb	r3, [ip], #1
 161033c:	e5f1e001 	ldrb	lr, [r1, #1]!
 1610340:	e053300e 	subs	r3, r3, lr
 1610344:	1a000002 	bne	1610354 <memcmp+0x48>
 1610348:	e15c0002 	cmp	ip, r2
 161034c:	1afffff9 	bne	1610338 <memcmp+0x2c>
 1610350:	e49df004 	pop	{pc}		; (ldr pc, [sp], #4)
 1610354:	e1a00003 	mov	r0, r3
 1610358:	e49df004 	pop	{pc}		; (ldr pc, [sp], #4)
 161035c:	e1a00002 	mov	r0, r2
 1610360:	e12fff1e 	bx	lr

01610364 <do_verify>:
 1610364:	e92d40f0 	push	{r4, r5, r6, r7, lr}
 1610368:	e3a03617 	mov	r3, #24117248	; 0x1700000
 161036c:	e3a02c01 	mov	r2, #256	; 0x100
 1610370:	e24ddf89 	sub	sp, sp, #548	; 0x224
 1610374:	e3a01000 	mov	r1, #0
 1610378:	e28d0020 	add	r0, sp, #32
 161037c:	e3a05011 	mov	r5, #17
 1610380:	e5936000 	ldr	r6, [r3]
 1610384:	eb000587 	bl	16119a8 <memset>
 1610388:	e3a01000 	mov	r1, #0
 161038c:	e3a02c01 	mov	r2, #256	; 0x100
 1610390:	e28d0e12 	add	r0, sp, #288	; 0x120
 1610394:	e1a04001 	mov	r4, r1
 1610398:	eb000582 	bl	16119a8 <memset>
 161039c:	e302351c 	movw	r3, #9500	; 0x251c
 16103a0:	e3403161 	movt	r3, #353	; 0x161
 16103a4:	e1a0e003 	mov	lr, r3
 16103a8:	e1a0c00d 	mov	ip, sp
 16103ac:	e3e0704f 	mvn	r7, #79	; 0x4f
 16103b0:	e5930000 	ldr	r0, [r3]
 16103b4:	e5931004 	ldr	r1, [r3, #4]
 16103b8:	e5932008 	ldr	r2, [r3, #8]
 16103bc:	e593300c 	ldr	r3, [r3, #12]
 16103c0:	e8ac000f 	stmia	ip!, {r0, r1, r2, r3}
 16103c4:	e5be0010 	ldr	r0, [lr, #16]!
 16103c8:	e59e1004 	ldr	r1, [lr, #4]
 16103cc:	e59e2008 	ldr	r2, [lr, #8]
 16103d0:	e59e300c 	ldr	r3, [lr, #12]
 16103d4:	e3a0e02d 	mov	lr, #45	; 0x2d
 16103d8:	e8ac000f 	stmia	ip!, {r0, r1, r2, r3}
 16103dc:	e1a01004 	mov	r1, r4
 16103e0:	e3a02c01 	mov	r2, #256	; 0x100
 16103e4:	e28d0020 	add	r0, sp, #32
 16103e8:	e5cd401d 	strb	r4, [sp, #29]
 16103ec:	e5cd5011 	strb	r5, [sp, #17]
 16103f0:	e3a0c012 	mov	ip, #18
 16103f4:	e5cd501b 	strb	r5, [sp, #27]
 16103f8:	e3a0301a 	mov	r3, #26
 16103fc:	e5cde012 	strb	lr, [sp, #18]
 1610400:	e3e0e03b 	mvn	lr, #59	; 0x3b
 1610404:	e5cdc013 	strb	ip, [sp, #19]
 1610408:	e3a0c023 	mov	ip, #35	; 0x23
 161040c:	e5cd3014 	strb	r3, [sp, #20]
 1610410:	e3e0307c 	mvn	r3, #124	; 0x7c
 1610414:	e5cde015 	strb	lr, [sp, #21]
 1610418:	e3a0e033 	mov	lr, #51	; 0x33
 161041c:	e5cdc016 	strb	ip, [sp, #22]
 1610420:	e3e0c05d 	mvn	ip, #93	; 0x5d
 1610424:	e5cd3017 	strb	r3, [sp, #23]
 1610428:	e3a0300f 	mov	r3, #15
 161042c:	e5cde018 	strb	lr, [sp, #24]
 1610430:	e3a0e00b 	mov	lr, #11
 1610434:	e5cdc019 	strb	ip, [sp, #25]
 1610438:	e3a0c064 	mov	ip, #100	; 0x64
 161043c:	e5cde01c 	strb	lr, [sp, #28]
 1610440:	e5cdc01e 	strb	ip, [sp, #30]
 1610444:	e5cd301a 	strb	r3, [sp, #26]
 1610448:	e3a0307b 	mov	r3, #123	; 0x7b
 161044c:	e5cd7010 	strb	r7, [sp, #16]
 1610450:	e5cd301f 	strb	r3, [sp, #31]
 1610454:	eb000553 	bl	16119a8 <memset>
 1610458:	e3a02c01 	mov	r2, #256	; 0x100
 161045c:	e1a01004 	mov	r1, r4
 1610460:	e28d0e12 	add	r0, sp, #288	; 0x120
 1610464:	eb00054f 	bl	16119a8 <memset>
 1610468:	e1a00006 	mov	r0, r6
 161046c:	eb000194 	bl	1610ac4 <swap_endian>
 1610470:	e1a04000 	mov	r4, r0
 1610474:	e302053c 	movw	r0, #9532	; 0x253c
 1610478:	e3400161 	movt	r0, #353	; 0x161
 161047c:	eb0004a6 	bl	161171c <prints>
 1610480:	e3a01004 	mov	r1, #4
 1610484:	e1a00004 	mov	r0, r4
 1610488:	eb000105 	bl	16108a4 <flush_cache>
 161048c:	e302055c 	movw	r0, #9564	; 0x255c
 1610490:	e3400161 	movt	r0, #353	; 0x161
 1610494:	eb0004a0 	bl	161171c <prints>
 1610498:	e302057c 	movw	r0, #9596	; 0x257c
 161049c:	e3400161 	movt	r0, #353	; 0x161
 16104a0:	eb00049d 	bl	161171c <prints>
 16104a4:	eb000476 	bl	1611684 <sync>
 16104a8:	e3a01010 	mov	r1, #16
 16104ac:	e3020ab8 	movw	r0, #10936	; 0x2ab8
 16104b0:	e3400162 	movt	r0, #354	; 0x162
 16104b4:	eb0000fa 	bl	16108a4 <flush_cache>
 16104b8:	e3a01010 	mov	r1, #16
 16104bc:	e1a0000d 	mov	r0, sp
 16104c0:	eb0000f7 	bl	16108a4 <flush_cache>
 16104c4:	e3a01010 	mov	r1, #16
 16104c8:	e28d0010 	add	r0, sp, #16
 16104cc:	eb0000f4 	bl	16108a4 <flush_cache>
 16104d0:	e28d3010 	add	r3, sp, #16
 16104d4:	e1a0200d 	mov	r2, sp
 16104d8:	e3a01010 	mov	r1, #16
 16104dc:	e3020ab8 	movw	r0, #10936	; 0x2ab8
 16104e0:	e3400162 	movt	r0, #354	; 0x162
 16104e4:	eb00025c 	bl	1610e5c <AES_ECB_decrypt>
 16104e8:	e3a01010 	mov	r1, #16
 16104ec:	e1a0000d 	mov	r0, sp
 16104f0:	eb0000eb 	bl	16108a4 <flush_cache>
 16104f4:	e59d0000 	ldr	r0, [sp]
 16104f8:	eb000171 	bl	1610ac4 <swap_endian>
 16104fc:	e58d0000 	str	r0, [sp]
 1610500:	e59d0004 	ldr	r0, [sp, #4]
 1610504:	eb00016e 	bl	1610ac4 <swap_endian>
 1610508:	e58d0004 	str	r0, [sp, #4]
 161050c:	e59d0008 	ldr	r0, [sp, #8]
 1610510:	eb00016b 	bl	1610ac4 <swap_endian>
 1610514:	e58d0008 	str	r0, [sp, #8]
 1610518:	e59d000c 	ldr	r0, [sp, #12]
 161051c:	eb000168 	bl	1610ac4 <swap_endian>
 1610520:	e314000f 	tst	r4, #15
 1610524:	13c4100f 	bicne	r1, r4, #15
 1610528:	01a01004 	moveq	r1, r4
 161052c:	12811001 	addne	r1, r1, #1
 1610530:	e3a02615 	mov	r2, #22020096	; 0x1500000
 1610534:	e1a0300d 	mov	r3, sp
 1610538:	e58d000c 	str	r0, [sp, #12]
 161053c:	e3a00004 	mov	r0, #4
 1610540:	e3400170 	movt	r0, #368	; 0x170
 1610544:	eb0001fc 	bl	1610d3c <AES_CBC_decrypt>
 1610548:	e3a01010 	mov	r1, #16
 161054c:	e3a00615 	mov	r0, #22020096	; 0x1500000
 1610550:	eb0000d3 	bl	16108a4 <flush_cache>
 1610554:	e3a01010 	mov	r1, #16
 1610558:	e1a00004 	mov	r0, r4
 161055c:	eb0000d0 	bl	16108a4 <flush_cache>
 1610560:	e244324f 	sub	r3, r4, #-268435452	; 0xf0000004
 1610564:	e24336eb 	sub	r3, r3, #246415360	; 0xeb00000
 1610568:	e3a01004 	mov	r1, #4
 161056c:	e5935000 	ldr	r5, [r3]
 1610570:	e1a00005 	mov	r0, r5
 1610574:	eb0000ca 	bl	16108a4 <flush_cache>
 1610578:	e1a00005 	mov	r0, r5
 161057c:	eb000150 	bl	1610ac4 <swap_endian>
 1610580:	e3a01004 	mov	r1, #4
 1610584:	e1a051a0 	lsr	r5, r0, #3
 1610588:	eb0000c5 	bl	16108a4 <flush_cache>
 161058c:	e3a01004 	mov	r1, #4
 1610590:	e1a00005 	mov	r0, r5
 1610594:	eb0000c2 	bl	16108a4 <flush_cache>
 1610598:	e3a03000 	mov	r3, #0
 161059c:	e28d2020 	add	r2, sp, #32
 16105a0:	e1a01005 	mov	r1, r5
 16105a4:	e3a00615 	mov	r0, #22020096	; 0x1500000
 16105a8:	eb00038f 	bl	16113ec <SHA256_hash>
 16105ac:	e3a01010 	mov	r1, #16
 16105b0:	e28d0020 	add	r0, sp, #32
 16105b4:	eb0000ba 	bl	16108a4 <flush_cache>
 16105b8:	eb000431 	bl	1611684 <sync>
 16105bc:	e2840617 	add	r0, r4, #24117248	; 0x1700000
 16105c0:	e28d2e12 	add	r2, sp, #288	; 0x120
 16105c4:	e30219b4 	movw	r1, #10676	; 0x29b4
 16105c8:	e3401162 	movt	r1, #354	; 0x162
 16105cc:	e2800004 	add	r0, r0, #4
 16105d0:	eb000326 	bl	1611270 <do_RSA>
 16105d4:	eb00042a 	bl	1611684 <sync>
 16105d8:	e5dd2120 	ldrb	r2, [sp, #288]	; 0x120
 16105dc:	e5dd3020 	ldrb	r3, [sp, #32]
 16105e0:	e1520003 	cmp	r2, r3
 16105e4:	1a00000a 	bne	1610614 <do_verify+0x2b0>
 16105e8:	e28dcf87 	add	ip, sp, #540	; 0x21c
 16105ec:	e28d3e12 	add	r3, sp, #288	; 0x120
 16105f0:	e28d2020 	add	r2, sp, #32
 16105f4:	e28cc003 	add	ip, ip, #3
 16105f8:	ea000001 	b	1610604 <do_verify+0x2a0>
 16105fc:	e153000c 	cmp	r3, ip
 1610600:	0a000009 	beq	161062c <do_verify+0x2c8>
 1610604:	e5f30001 	ldrb	r0, [r3, #1]!
 1610608:	e5f21001 	ldrb	r1, [r2, #1]!
 161060c:	e1500001 	cmp	r0, r1
 1610610:	0afffff9 	beq	16105fc <do_verify+0x298>
 1610614:	e3020594 	movw	r0, #9620	; 0x2594
 1610618:	e3400161 	movt	r0, #353	; 0x161
 161061c:	eb00043e 	bl	161171c <prints>
 1610620:	e3e00000 	mvn	r0, #0
 1610624:	e28ddf89 	add	sp, sp, #548	; 0x224
 1610628:	e8bd80f0 	pop	{r4, r5, r6, r7, pc}
 161062c:	e3020588 	movw	r0, #9608	; 0x2588
 1610630:	e3400161 	movt	r0, #353	; 0x161
 1610634:	eb000438 	bl	161171c <prints>
 1610638:	e3a00001 	mov	r0, #1
 161063c:	e28ddf89 	add	sp, sp, #548	; 0x224
 1610640:	e8bd80f0 	pop	{r4, r5, r6, r7, pc}

01610644 <do_go_exec>:
 1610644:	e1a0c001 	mov	ip, r1
 1610648:	e1a03000 	mov	r3, r0
 161064c:	e1a01002 	mov	r1, r2
 1610650:	e1a0000c 	mov	r0, ip
 1610654:	e12fff13 	bx	r3

01610658 <verifymain>:
 1610658:	e92d4070 	push	{r4, r5, r6, lr}
 161065c:	e3023c48 	movw	r3, #11336	; 0x2c48
 1610660:	e3403162 	movt	r3, #354	; 0x162
 1610664:	e24dd008 	sub	sp, sp, #8
 1610668:	e3a04000 	mov	r4, #0
 161066c:	e1a05001 	mov	r5, r1
 1610670:	e1a06000 	mov	r6, r0
 1610674:	e5834000 	str	r4, [r3]
 1610678:	eb000408 	bl	16116a0 <init_uart>
 161067c:	e1a00004 	mov	r0, r4
 1610680:	eb00041b 	bl	16116f4 <set_focus_uart>
 1610684:	e1a00005 	mov	r0, r5
 1610688:	ebffff35 	bl	1610364 <do_verify>
 161068c:	e3500001 	cmp	r0, #1
 1610690:	0a000005 	beq	16106ac <verifymain+0x54>
 1610694:	e30205f0 	movw	r0, #9712	; 0x25f0
 1610698:	e3400161 	movt	r0, #353	; 0x161
 161069c:	eb00041e 	bl	161171c <prints>
 16106a0:	e3a00000 	mov	r0, #0
 16106a4:	e28dd008 	add	sp, sp, #8
 16106a8:	e8bd8070 	pop	{r4, r5, r6, pc}
 16106ac:	e30205a4 	movw	r0, #9636	; 0x25a4
 16106b0:	e3400161 	movt	r0, #353	; 0x161
 16106b4:	eb000418 	bl	161171c <prints>
 16106b8:	e3a03615 	mov	r3, #22020096	; 0x1500000
 16106bc:	e58d3004 	str	r3, [sp, #4]
 16106c0:	e2852004 	add	r2, r5, #4
 16106c4:	e2461001 	sub	r1, r6, #1
 16106c8:	e59d0004 	ldr	r0, [sp, #4]
 16106cc:	ebffffdc 	bl	1610644 <do_go_exec>
 16106d0:	e1a04000 	mov	r4, r0
 16106d4:	e30205c8 	movw	r0, #9672	; 0x25c8
 16106d8:	e3400161 	movt	r0, #353	; 0x161
 16106dc:	eb00040e 	bl	161171c <prints>
 16106e0:	e1a00004 	mov	r0, r4
 16106e4:	eb000452 	bl	1611834 <print_hex>
 16106e8:	e3020584 	movw	r0, #9604	; 0x2584
 16106ec:	e3400161 	movt	r0, #353	; 0x161
 16106f0:	eb000409 	bl	161171c <prints>
 16106f4:	e3a00000 	mov	r0, #0
 16106f8:	e28dd008 	add	sp, sp, #8
 16106fc:	e8bd8070 	pop	{r4, r5, r6, pc}

01610700 <v7_maint_dcache_all>:
 1610700:	e92d43f0 	push	{r4, r5, r6, r7, r8, r9, lr}
 1610704:	ee307f30 	mrc	15, 1, r7, cr0, cr0, {1}
 1610708:	e3a0e000 	mov	lr, #0
 161070c:	e1a0500e 	mov	r5, lr
 1610710:	ea000003 	b	1610724 <v7_maint_dcache_all+0x24>
 1610714:	e28ee003 	add	lr, lr, #3
 1610718:	e2855001 	add	r5, r5, #1
 161071c:	e35e0015 	cmp	lr, #21
 1610720:	0a000025 	beq	16107bc <v7_maint_dcache_all+0xbc>
 1610724:	e1a03e37 	lsr	r3, r7, lr
 1610728:	e2033007 	and	r3, r3, #7
 161072c:	e2433002 	sub	r3, r3, #2
 1610730:	e3530002 	cmp	r3, #2
 1610734:	8afffff6 	bhi	1610714 <v7_maint_dcache_all+0x14>
 1610738:	e1a06085 	lsl	r6, r5, #1
 161073c:	ee406f10 	mcr	15, 2, r6, cr0, cr0, {0}
 1610740:	ee304f10 	mrc	15, 1, r4, cr0, cr0, {0}
 1610744:	e7e991d4 	ubfx	r9, r4, #3, #10
 1610748:	e2042007 	and	r2, r4, #7
 161074c:	e289c001 	add	ip, r9, #1
 1610750:	e2822004 	add	r2, r2, #4
 1610754:	e1a0300c 	mov	r3, ip
 1610758:	e7ee46d4 	ubfx	r4, r4, #13, #15
 161075c:	e3e01000 	mvn	r1, #0
 1610760:	e1b030a3 	lsrs	r3, r3, #1
 1610764:	e2811001 	add	r1, r1, #1
 1610768:	1afffffc 	bne	1610760 <v7_maint_dcache_all+0x60>
 161076c:	e11c0009 	tst	ip, r9
 1610770:	12811001 	addne	r1, r1, #1
 1610774:	e3500001 	cmp	r0, #1
 1610778:	e2618020 	rsb	r8, r1, #32
 161077c:	0a000011 	beq	16107c8 <v7_maint_dcache_all+0xc8>
 1610780:	e3500002 	cmp	r0, #2
 1610784:	1affffe2 	bne	1610714 <v7_maint_dcache_all+0x14>
 1610788:	e186c819 	orr	ip, r6, r9, lsl r8
 161078c:	e1a03004 	mov	r3, r4
 1610790:	e18c1213 	orr	r1, ip, r3, lsl r2
 1610794:	ee071f5e 	mcr	15, 0, r1, cr7, cr14, {2}
 1610798:	e2533001 	subs	r3, r3, #1
 161079c:	2afffffb 	bcs	1610790 <v7_maint_dcache_all+0x90>
 16107a0:	e2599001 	subs	r9, r9, #1
 16107a4:	2afffff7 	bcs	1610788 <v7_maint_dcache_all+0x88>
 16107a8:	f57ff04f 	dsb	sy
 16107ac:	e28ee003 	add	lr, lr, #3
 16107b0:	e2855001 	add	r5, r5, #1
 16107b4:	e35e0015 	cmp	lr, #21
 16107b8:	1affffd9 	bne	1610724 <v7_maint_dcache_all+0x24>
 16107bc:	e8bd83f0 	pop	{r4, r5, r6, r7, r8, r9, pc}
 16107c0:	e2599001 	subs	r9, r9, #1
 16107c4:	3afffff7 	bcc	16107a8 <v7_maint_dcache_all+0xa8>
 16107c8:	e186c819 	orr	ip, r6, r9, lsl r8
 16107cc:	e1a03004 	mov	r3, r4
 16107d0:	e18c1213 	orr	r1, ip, r3, lsl r2
 16107d4:	ee071f56 	mcr	15, 0, r1, cr7, cr6, {2}
 16107d8:	e2533001 	subs	r3, r3, #1
 16107dc:	2afffffb 	bcs	16107d0 <v7_maint_dcache_all+0xd0>
 16107e0:	eafffff6 	b	16107c0 <v7_maint_dcache_all+0xc0>

016107e4 <invalidate_icache_all>:
 16107e4:	e3a03000 	mov	r3, #0
 16107e8:	ee073f15 	mcr	15, 0, r3, cr7, cr5, {0}
 16107ec:	ee073fd5 	mcr	15, 0, r3, cr7, cr5, {6}
 16107f0:	f57ff04f 	dsb	sy
 16107f4:	f57ff06f 	isb	sy
 16107f8:	e12fff1e 	bx	lr

016107fc <__v7_outer_cache_enable>:
 16107fc:	e12fff1e 	bx	lr

01610800 <__v7_outer_cache_disable>:
 1610800:	e12fff1e 	bx	lr

01610804 <__v7_outer_cache_flush_all>:
 1610804:	e12fff1e 	bx	lr

01610808 <flush_dcache_all>:
 1610808:	e92d4010 	push	{r4, lr}
 161080c:	e3a00002 	mov	r0, #2
 1610810:	ebffffba 	bl	1610700 <v7_maint_dcache_all>
 1610814:	e8bd4010 	pop	{r4, lr}
 1610818:	eafffff9 	b	1610804 <__v7_outer_cache_flush_all>

0161081c <__v7_outer_cache_inval_all>:
 161081c:	e12fff1e 	bx	lr

01610820 <invalidate_dcache_all>:
 1610820:	e92d4010 	push	{r4, lr}
 1610824:	e3a00001 	mov	r0, #1
 1610828:	ebffffb4 	bl	1610700 <v7_maint_dcache_all>
 161082c:	e8bd4010 	pop	{r4, lr}
 1610830:	eafffff9 	b	161081c <__v7_outer_cache_inval_all>

01610834 <arm_init_before_mmu>:
 1610834:	e92d4010 	push	{r4, lr}
 1610838:	ebffffef 	bl	16107fc <__v7_outer_cache_enable>
 161083c:	e3a00001 	mov	r0, #1
 1610840:	ebffffae 	bl	1610700 <v7_maint_dcache_all>
 1610844:	ebfffff4 	bl	161081c <__v7_outer_cache_inval_all>
 1610848:	e3a03000 	mov	r3, #0
 161084c:	ee083f17 	mcr	15, 0, r3, cr8, cr7, {0}
 1610850:	ee083f16 	mcr	15, 0, r3, cr8, cr6, {0}
 1610854:	ee083f15 	mcr	15, 0, r3, cr8, cr5, {0}
 1610858:	f57ff04f 	dsb	sy
 161085c:	f57ff06f 	isb	sy
 1610860:	e8bd8010 	pop	{r4, pc}

01610864 <__v7_outer_cache_flush_range>:
 1610864:	e12fff1e 	bx	lr

01610868 <flush_dcache_range>:
 1610868:	ee302f10 	mrc	15, 1, r2, cr0, cr0, {0}
 161086c:	e2022007 	and	r2, r2, #7
 1610870:	e3a03001 	mov	r3, #1
 1610874:	e2822004 	add	r2, r2, #4
 1610878:	e1a02213 	lsl	r2, r3, r2
 161087c:	e2623000 	rsb	r3, r2, #0
 1610880:	e0033000 	and	r3, r3, r0
 1610884:	e1510003 	cmp	r1, r3
 1610888:	3a000003 	bcc	161089c <flush_dcache_range+0x34>
 161088c:	ee073f3e 	mcr	15, 0, r3, cr7, cr14, {1}
 1610890:	e0833002 	add	r3, r3, r2
 1610894:	e1510003 	cmp	r1, r3
 1610898:	2afffffb 	bcs	161088c <flush_dcache_range+0x24>
 161089c:	f57ff04f 	dsb	sy
 16108a0:	eaffffef 	b	1610864 <__v7_outer_cache_flush_range>

016108a4 <flush_cache>:
 16108a4:	e0801001 	add	r1, r0, r1
 16108a8:	eaffffee 	b	1610868 <flush_dcache_range>

016108ac <__v7_outer_cache_inval_range>:
 16108ac:	e12fff1e 	bx	lr

016108b0 <invalidate_dcache_range>:
 16108b0:	e52de004 	push	{lr}		; (str lr, [sp, #-4]!)
 16108b4:	ee30cf10 	mrc	15, 1, ip, cr0, cr0, {0}
 16108b8:	e20cc007 	and	ip, ip, #7
 16108bc:	e3a03001 	mov	r3, #1
 16108c0:	e28cc004 	add	ip, ip, #4
 16108c4:	e1a0cc13 	lsl	ip, r3, ip
 16108c8:	e24ce001 	sub	lr, ip, #1
 16108cc:	e11e0000 	tst	lr, r0
 16108d0:	12402001 	subne	r2, r0, #1
 16108d4:	126c3000 	rsbne	r3, ip, #0
 16108d8:	1082200c 	addne	r2, r2, ip
 16108dc:	01a03000 	moveq	r3, r0
 16108e0:	10033002 	andne	r3, r3, r2
 16108e4:	e11e0001 	tst	lr, r1
 16108e8:	126c2000 	rsbne	r2, ip, #0
 16108ec:	01a02001 	moveq	r2, r1
 16108f0:	10022001 	andne	r2, r2, r1
 16108f4:	e1520003 	cmp	r2, r3
 16108f8:	3a000003 	bcc	161090c <invalidate_dcache_range+0x5c>
 16108fc:	ee073f36 	mcr	15, 0, r3, cr7, cr6, {1}
 1610900:	e083300c 	add	r3, r3, ip
 1610904:	e1530002 	cmp	r3, r2
 1610908:	9afffffb 	bls	16108fc <invalidate_dcache_range+0x4c>
 161090c:	f57ff04f 	dsb	sy
 1610910:	e49de004 	pop	{lr}		; (ldr lr, [sp], #4)
 1610914:	eaffffe4 	b	16108ac <__v7_outer_cache_inval_range>

01610918 <alloc_mcp_descriptor>:
 1610918:	e92d4070 	push	{r4, r5, r6, lr}
 161091c:	e3024c48 	movw	r4, #11336	; 0x2c48
 1610920:	e3404162 	movt	r4, #354	; 0x162
 1610924:	e30f3837 	movw	r3, #63543	; 0xf837
 1610928:	e34f3ebf 	movt	r3, #65215	; 0xfebf
 161092c:	e30f27fe 	movw	r2, #63486	; 0xf7fe
 1610930:	e34f2ebf 	movt	r2, #65215	; 0xfebf
 1610934:	e5945000 	ldr	r5, [r4]
 1610938:	e0853003 	add	r3, r5, r3
 161093c:	e3550000 	cmp	r5, #0
 1610940:	11530002 	cmpne	r3, r2
 1610944:	8a000006 	bhi	1610964 <alloc_mcp_descriptor+0x4c>
 1610948:	e3a03505 	mov	r3, #20971520	; 0x1400000
 161094c:	e3a02b02 	mov	r2, #2048	; 0x800
 1610950:	e1a00003 	mov	r0, r3
 1610954:	e3a01000 	mov	r1, #0
 1610958:	e5843000 	str	r3, [r4]
 161095c:	eb000411 	bl	16119a8 <memset>
 1610960:	e5945000 	ldr	r5, [r4]
 1610964:	e3a02038 	mov	r2, #56	; 0x38
 1610968:	e3a01000 	mov	r1, #0
 161096c:	e1a00005 	mov	r0, r5
 1610970:	eb00040c 	bl	16119a8 <memset>
 1610974:	e5943000 	ldr	r3, [r4]
 1610978:	e1a00005 	mov	r0, r5
 161097c:	e2833c01 	add	r3, r3, #256	; 0x100
 1610980:	e5843000 	str	r3, [r4]
 1610984:	e8bd8070 	pop	{r4, r5, r6, pc}

01610988 <load_otp>:
 1610988:	e3a01a05 	mov	r1, #20480	; 0x5000
 161098c:	e3491801 	movt	r1, #38913	; 0x9801
 1610990:	e3a00001 	mov	r0, #1
 1610994:	e1a02001 	mov	r2, r1
 1610998:	e3a03801 	mov	r3, #65536	; 0x10000
 161099c:	e581019c 	str	r0, [r1, #412]	; 0x19c
 16109a0:	e592019c 	ldr	r0, [r2, #412]	; 0x19c
 16109a4:	e2100001 	ands	r0, r0, #1
 16109a8:	012fff1e 	bxeq	lr
 16109ac:	e2533001 	subs	r3, r3, #1
 16109b0:	1afffffa 	bne	16109a0 <load_otp+0x18>
 16109b4:	e3e00000 	mvn	r0, #0
 16109b8:	e12fff1e 	bx	lr

016109bc <do_mcp>:
 16109bc:	e2503000 	subs	r3, r0, #0
 16109c0:	0a00003d 	beq	1610abc <do_mcp+0x100>
 16109c4:	e92d4070 	push	{r4, r5, r6, lr}
 16109c8:	e3a05a05 	mov	r5, #20480	; 0x5000
 16109cc:	e3495801 	movt	r5, #38913	; 0x9801
 16109d0:	e3a0e002 	mov	lr, #2
 16109d4:	e283c070 	add	ip, r3, #112	; 0x70
 16109d8:	e3a02001 	mov	r2, #1
 16109dc:	e3a010fe 	mov	r1, #254	; 0xfe
 16109e0:	e5852934 	str	r2, [r5, #2356]	; 0x934
 16109e4:	e2832038 	add	r2, r3, #56	; 0x38
 16109e8:	e5851908 	str	r1, [r5, #2312]	; 0x908
 16109ec:	e3a01038 	mov	r1, #56	; 0x38
 16109f0:	e585e900 	str	lr, [r5, #2304]	; 0x900
 16109f4:	e585390c 	str	r3, [r5, #2316]	; 0x90c
 16109f8:	e585c910 	str	ip, [r5, #2320]	; 0x910
 16109fc:	e5853914 	str	r3, [r5, #2324]	; 0x914
 1610a00:	e5852918 	str	r2, [r5, #2328]	; 0x918
 1610a04:	ebffffa6 	bl	16108a4 <flush_cache>
 1610a08:	eb00031d 	bl	1611684 <sync>
 1610a0c:	f57ff06f 	isb	sy
 1610a10:	e3a03003 	mov	r3, #3
 1610a14:	e5853900 	str	r3, [r5, #2304]	; 0x900
 1610a18:	eb000319 	bl	1611684 <sync>
 1610a1c:	e5953904 	ldr	r3, [r5, #2308]	; 0x904
 1610a20:	e3130006 	tst	r3, #6
 1610a24:	030f4fff 	movweq	r4, #65535	; 0xffff
 1610a28:	0340407f 	movteq	r4, #127	; 0x7f
 1610a2c:	0a000002 	beq	1610a3c <do_mcp+0x80>
 1610a30:	ea000009 	b	1610a5c <do_mcp+0xa0>
 1610a34:	e2544001 	subs	r4, r4, #1
 1610a38:	0a000019 	beq	1610aa4 <do_mcp+0xe8>
 1610a3c:	e3a00001 	mov	r0, #1
 1610a40:	eb0002e2 	bl	16115d0 <mdelay>
 1610a44:	eb00030e 	bl	1611684 <sync>
 1610a48:	e5952904 	ldr	r2, [r5, #2308]	; 0x904
 1610a4c:	e3a03a05 	mov	r3, #20480	; 0x5000
 1610a50:	e3493801 	movt	r3, #38913	; 0x9801
 1610a54:	e3120006 	tst	r2, #6
 1610a58:	0afffff5 	beq	1610a34 <do_mcp+0x78>
 1610a5c:	e3a03a05 	mov	r3, #20480	; 0x5000
 1610a60:	e3493801 	movt	r3, #38913	; 0x9801
 1610a64:	e5932904 	ldr	r2, [r3, #2308]	; 0x904
 1610a68:	e3120002 	tst	r2, #2
 1610a6c:	13a00000 	movne	r0, #0
 1610a70:	0a000006 	beq	1610a90 <do_mcp+0xd4>
 1610a74:	e3a03a05 	mov	r3, #20480	; 0x5000
 1610a78:	e3493801 	movt	r3, #38913	; 0x9801
 1610a7c:	e3a01002 	mov	r1, #2
 1610a80:	e3a02006 	mov	r2, #6
 1610a84:	e5831900 	str	r1, [r3, #2304]	; 0x900
 1610a88:	e5832904 	str	r2, [r3, #2308]	; 0x904
 1610a8c:	e8bd8070 	pop	{r4, r5, r6, pc}
 1610a90:	e5933904 	ldr	r3, [r3, #2308]	; 0x904
 1610a94:	e3130004 	tst	r3, #4
 1610a98:	13e00000 	mvnne	r0, #0
 1610a9c:	03e00001 	mvneq	r0, #1
 1610aa0:	eafffff3 	b	1610a74 <do_mcp+0xb8>
 1610aa4:	e3a01002 	mov	r1, #2
 1610aa8:	e3a02006 	mov	r2, #6
 1610aac:	e5831900 	str	r1, [r3, #2304]	; 0x900
 1610ab0:	e3e00002 	mvn	r0, #2
 1610ab4:	e5832904 	str	r2, [r3, #2308]	; 0x904
 1610ab8:	e8bd8070 	pop	{r4, r5, r6, pc}
 1610abc:	e3e00000 	mvn	r0, #0
 1610ac0:	e12fff1e 	bx	lr

01610ac4 <swap_endian>:
 1610ac4:	e6bf0f30 	rev	r0, r0
 1610ac8:	e12fff1e 	bx	lr

01610acc <reverse_rsa_signature>:
 1610acc:	e92d4030 	push	{r4, r5, lr}
 1610ad0:	e2801206 	add	r1, r0, #1610612736	; 0x60000000
 1610ad4:	e30fefff 	movw	lr, #65535	; 0xffff
 1610ad8:	e340e006 	movt	lr, #6
 1610adc:	e24dd014 	sub	sp, sp, #20
 1610ae0:	e2814010 	add	r4, r1, #16
 1610ae4:	e1a0c00d 	mov	ip, sp
 1610ae8:	e1a03001 	mov	r3, r1
 1610aec:	e283231a 	add	r2, r3, #1744830464	; 0x68000000
 1610af0:	e152000e 	cmp	r2, lr
 1610af4:	8a00003f 	bhi	1610bf8 <reverse_rsa_signature+0x12c>
 1610af8:	e5932000 	ldr	r2, [r3]
 1610afc:	e2833004 	add	r3, r3, #4
 1610b00:	e6bf2f32 	rev	r2, r2
 1610b04:	e1530004 	cmp	r3, r4
 1610b08:	e48c2004 	str	r2, [ip], #4
 1610b0c:	1afffff6 	bne	1610aec <reverse_rsa_signature+0x20>
 1610b10:	e2803332 	add	r3, r0, #-939524096	; 0xc8000000
 1610b14:	e283e01c 	add	lr, r3, #28
 1610b18:	e35e0807 	cmp	lr, #458752	; 0x70000
 1610b1c:	2a000080 	bcs	1610d24 <reverse_rsa_signature+0x258>
 1610b20:	e591201c 	ldr	r2, [r1, #28]
 1610b24:	e3530807 	cmp	r3, #458752	; 0x70000
 1610b28:	e6bf2f32 	rev	r2, r2
 1610b2c:	2a000076 	bcs	1610d0c <reverse_rsa_signature+0x240>
 1610b30:	e5812000 	str	r2, [r1]
 1610b34:	e2834018 	add	r4, r3, #24
 1610b38:	e3540807 	cmp	r4, #458752	; 0x70000
 1610b3c:	2a00006c 	bcs	1610cf4 <reverse_rsa_signature+0x228>
 1610b40:	e591c018 	ldr	ip, [r1, #24]
 1610b44:	e2832004 	add	r2, r3, #4
 1610b48:	e6bfcf3c 	rev	ip, ip
 1610b4c:	e3520807 	cmp	r2, #458752	; 0x70000
 1610b50:	2a000061 	bcs	1610cdc <reverse_rsa_signature+0x210>
 1610b54:	e2802246 	add	r2, r0, #1610612740	; 0x60000004
 1610b58:	e582c000 	str	ip, [r2]
 1610b5c:	e2835014 	add	r5, r3, #20
 1610b60:	e3550807 	cmp	r5, #458752	; 0x70000
 1610b64:	2a000056 	bcs	1610cc4 <reverse_rsa_signature+0x1f8>
 1610b68:	e591c014 	ldr	ip, [r1, #20]
 1610b6c:	e2832008 	add	r2, r3, #8
 1610b70:	e6bfcf3c 	rev	ip, ip
 1610b74:	e3520807 	cmp	r2, #458752	; 0x70000
 1610b78:	2a00004b 	bcs	1610cac <reverse_rsa_signature+0x1e0>
 1610b7c:	e2802286 	add	r2, r0, #1610612744	; 0x60000008
 1610b80:	e582c000 	str	ip, [r2]
 1610b84:	e283c010 	add	ip, r3, #16
 1610b88:	e35c0807 	cmp	ip, #458752	; 0x70000
 1610b8c:	2a000040 	bcs	1610c94 <reverse_rsa_signature+0x1c8>
 1610b90:	e5912010 	ldr	r2, [r1, #16]
 1610b94:	e283300c 	add	r3, r3, #12
 1610b98:	e6bf2f32 	rev	r2, r2
 1610b9c:	e3530807 	cmp	r3, #458752	; 0x70000
 1610ba0:	2a000035 	bcs	1610c7c <reverse_rsa_signature+0x1b0>
 1610ba4:	e28032c6 	add	r3, r0, #1610612748	; 0x6000000c
 1610ba8:	e5832000 	str	r2, [r3]
 1610bac:	e35c0807 	cmp	ip, #458752	; 0x70000
 1610bb0:	e59d300c 	ldr	r3, [sp, #12]
 1610bb4:	2a00002a 	bcs	1610c64 <reverse_rsa_signature+0x198>
 1610bb8:	e5813010 	str	r3, [r1, #16]
 1610bbc:	e3550807 	cmp	r5, #458752	; 0x70000
 1610bc0:	e59d3008 	ldr	r3, [sp, #8]
 1610bc4:	2a000020 	bcs	1610c4c <reverse_rsa_signature+0x180>
 1610bc8:	e5813014 	str	r3, [r1, #20]
 1610bcc:	e3540807 	cmp	r4, #458752	; 0x70000
 1610bd0:	e59d3004 	ldr	r3, [sp, #4]
 1610bd4:	2a000016 	bcs	1610c34 <reverse_rsa_signature+0x168>
 1610bd8:	e5813018 	str	r3, [r1, #24]
 1610bdc:	e35e0807 	cmp	lr, #458752	; 0x70000
 1610be0:	e59d3000 	ldr	r3, [sp]
 1610be4:	2a00000a 	bcs	1610c14 <reverse_rsa_signature+0x148>
 1610be8:	e3a00000 	mov	r0, #0
 1610bec:	e581301c 	str	r3, [r1, #28]
 1610bf0:	e28dd014 	add	sp, sp, #20
 1610bf4:	e8bd8030 	pop	{r4, r5, pc}
 1610bf8:	e2832467 	add	r2, r3, #1728053248	; 0x67000000
 1610bfc:	e283520a 	add	r5, r3, #-1610612736	; 0xa0000000
 1610c00:	e282260f 	add	r2, r2, #15728640	; 0xf00000
 1610c04:	e3520402 	cmp	r2, #33554432	; 0x2000000
 1610c08:	25952000 	ldrcs	r2, [r5]
 1610c0c:	2affffba 	bcs	1610afc <reverse_rsa_signature+0x30>
 1610c10:	eaffffb8 	b	1610af8 <reverse_rsa_signature+0x2c>
 1610c14:	e2802173 	add	r2, r0, #-1073741796	; 0xc000001c
 1610c18:	e282267f 	add	r2, r2, #133169152	; 0x7f00000
 1610c1c:	e3520402 	cmp	r2, #33554432	; 0x2000000
 1610c20:	2580301c 	strcs	r3, [r0, #28]
 1610c24:	3affffef 	bcc	1610be8 <reverse_rsa_signature+0x11c>
 1610c28:	e3a00000 	mov	r0, #0
 1610c2c:	e28dd014 	add	sp, sp, #20
 1610c30:	e8bd8030 	pop	{r4, r5, pc}
 1610c34:	e2802163 	add	r2, r0, #-1073741800	; 0xc0000018
 1610c38:	e282267f 	add	r2, r2, #133169152	; 0x7f00000
 1610c3c:	e3520402 	cmp	r2, #33554432	; 0x2000000
 1610c40:	25803018 	strcs	r3, [r0, #24]
 1610c44:	2affffe4 	bcs	1610bdc <reverse_rsa_signature+0x110>
 1610c48:	eaffffe2 	b	1610bd8 <reverse_rsa_signature+0x10c>
 1610c4c:	e2802153 	add	r2, r0, #-1073741804	; 0xc0000014
 1610c50:	e282267f 	add	r2, r2, #133169152	; 0x7f00000
 1610c54:	e3520402 	cmp	r2, #33554432	; 0x2000000
 1610c58:	25803014 	strcs	r3, [r0, #20]
 1610c5c:	2affffda 	bcs	1610bcc <reverse_rsa_signature+0x100>
 1610c60:	eaffffd8 	b	1610bc8 <reverse_rsa_signature+0xfc>
 1610c64:	e2802143 	add	r2, r0, #-1073741808	; 0xc0000010
 1610c68:	e282267f 	add	r2, r2, #133169152	; 0x7f00000
 1610c6c:	e3520402 	cmp	r2, #33554432	; 0x2000000
 1610c70:	25803010 	strcs	r3, [r0, #16]
 1610c74:	2affffd0 	bcs	1610bbc <reverse_rsa_signature+0xf0>
 1610c78:	eaffffce 	b	1610bb8 <reverse_rsa_signature+0xec>
 1610c7c:	e2803133 	add	r3, r0, #-1073741812	; 0xc000000c
 1610c80:	e283367f 	add	r3, r3, #133169152	; 0x7f00000
 1610c84:	e3530402 	cmp	r3, #33554432	; 0x2000000
 1610c88:	2580200c 	strcs	r2, [r0, #12]
 1610c8c:	2affffc6 	bcs	1610bac <reverse_rsa_signature+0xe0>
 1610c90:	eaffffc3 	b	1610ba4 <reverse_rsa_signature+0xd8>
 1610c94:	e2802143 	add	r2, r0, #-1073741808	; 0xc0000010
 1610c98:	e282267f 	add	r2, r2, #133169152	; 0x7f00000
 1610c9c:	e3520402 	cmp	r2, #33554432	; 0x2000000
 1610ca0:	25902010 	ldrcs	r2, [r0, #16]
 1610ca4:	2affffba 	bcs	1610b94 <reverse_rsa_signature+0xc8>
 1610ca8:	eaffffb8 	b	1610b90 <reverse_rsa_signature+0xc4>
 1610cac:	e2802123 	add	r2, r0, #-1073741816	; 0xc0000008
 1610cb0:	e282267f 	add	r2, r2, #133169152	; 0x7f00000
 1610cb4:	e3520402 	cmp	r2, #33554432	; 0x2000000
 1610cb8:	2580c008 	strcs	ip, [r0, #8]
 1610cbc:	2affffb0 	bcs	1610b84 <reverse_rsa_signature+0xb8>
 1610cc0:	eaffffad 	b	1610b7c <reverse_rsa_signature+0xb0>
 1610cc4:	e2802153 	add	r2, r0, #-1073741804	; 0xc0000014
 1610cc8:	e282267f 	add	r2, r2, #133169152	; 0x7f00000
 1610ccc:	e3520402 	cmp	r2, #33554432	; 0x2000000
 1610cd0:	2590c014 	ldrcs	ip, [r0, #20]
 1610cd4:	2affffa4 	bcs	1610b6c <reverse_rsa_signature+0xa0>
 1610cd8:	eaffffa2 	b	1610b68 <reverse_rsa_signature+0x9c>
 1610cdc:	e2802113 	add	r2, r0, #-1073741820	; 0xc0000004
 1610ce0:	e282267f 	add	r2, r2, #133169152	; 0x7f00000
 1610ce4:	e3520402 	cmp	r2, #33554432	; 0x2000000
 1610ce8:	2580c004 	strcs	ip, [r0, #4]
 1610cec:	2affff9a 	bcs	1610b5c <reverse_rsa_signature+0x90>
 1610cf0:	eaffff97 	b	1610b54 <reverse_rsa_signature+0x88>
 1610cf4:	e2802163 	add	r2, r0, #-1073741800	; 0xc0000018
 1610cf8:	e282267f 	add	r2, r2, #133169152	; 0x7f00000
 1610cfc:	e3520402 	cmp	r2, #33554432	; 0x2000000
 1610d00:	2590c018 	ldrcs	ip, [r0, #24]
 1610d04:	2affff8e 	bcs	1610b44 <reverse_rsa_signature+0x78>
 1610d08:	eaffff8c 	b	1610b40 <reverse_rsa_signature+0x74>
 1610d0c:	e280c4c7 	add	ip, r0, #-956301312	; 0xc7000000
 1610d10:	e28cc60f 	add	ip, ip, #15728640	; 0xf00000
 1610d14:	e35c0402 	cmp	ip, #33554432	; 0x2000000
 1610d18:	25802000 	strcs	r2, [r0]
 1610d1c:	2affff84 	bcs	1610b34 <reverse_rsa_signature+0x68>
 1610d20:	eaffff82 	b	1610b30 <reverse_rsa_signature+0x64>
 1610d24:	e2802173 	add	r2, r0, #-1073741796	; 0xc000001c
 1610d28:	e282267f 	add	r2, r2, #133169152	; 0x7f00000
 1610d2c:	e3520402 	cmp	r2, #33554432	; 0x2000000
 1610d30:	2590201c 	ldrcs	r2, [r0, #28]
 1610d34:	2affff7a 	bcs	1610b24 <reverse_rsa_signature+0x58>
 1610d38:	eaffff78 	b	1610b20 <reverse_rsa_signature+0x54>

01610d3c <AES_CBC_decrypt>:
 1610d3c:	e92d41f0 	push	{r4, r5, r6, r7, r8, lr}
 1610d40:	e1a08000 	mov	r8, r0
 1610d44:	e1a06001 	mov	r6, r1
 1610d48:	e1a07002 	mov	r7, r2
 1610d4c:	e1a05003 	mov	r5, r3
 1610d50:	ebfffef0 	bl	1610918 <alloc_mcp_descriptor>
 1610d54:	e2504000 	subs	r4, r0, #0
 1610d58:	0a000017 	beq	1610dbc <AES_CBC_decrypt+0x80>
 1610d5c:	e3550000 	cmp	r5, #0
 1610d60:	0a00000f 	beq	1610da4 <AES_CBC_decrypt+0x68>
 1610d64:	e3a03045 	mov	r3, #69	; 0x45
 1610d68:	e5843000 	str	r3, [r4]
 1610d6c:	e5953000 	ldr	r3, [r5]
 1610d70:	e5843004 	str	r3, [r4, #4]
 1610d74:	e5953004 	ldr	r3, [r5, #4]
 1610d78:	e5843008 	str	r3, [r4, #8]
 1610d7c:	e5953008 	ldr	r3, [r5, #8]
 1610d80:	e584300c 	str	r3, [r4, #12]
 1610d84:	e595300c 	ldr	r3, [r5, #12]
 1610d88:	e5843010 	str	r3, [r4, #16]
 1610d8c:	e584802c 	str	r8, [r4, #44]	; 0x2c
 1610d90:	e1a00004 	mov	r0, r4
 1610d94:	e5847030 	str	r7, [r4, #48]	; 0x30
 1610d98:	e5846034 	str	r6, [r4, #52]	; 0x34
 1610d9c:	e8bd41f0 	pop	{r4, r5, r6, r7, r8, lr}
 1610da0:	eaffff05 	b	16109bc <do_mcp>
 1610da4:	ebfffef7 	bl	1610988 <load_otp>
 1610da8:	e3500000 	cmp	r0, #0
 1610dac:	1a000004 	bne	1610dc4 <AES_CBC_decrypt+0x88>
 1610db0:	e3013045 	movw	r3, #4165	; 0x1045
 1610db4:	e5843000 	str	r3, [r4]
 1610db8:	eafffff3 	b	1610d8c <AES_CBC_decrypt+0x50>
 1610dbc:	e3e00000 	mvn	r0, #0
 1610dc0:	e8bd81f0 	pop	{r4, r5, r6, r7, r8, pc}
 1610dc4:	e3e00001 	mvn	r0, #1
 1610dc8:	e8bd81f0 	pop	{r4, r5, r6, r7, r8, pc}

01610dcc <AES_CBC_encrypt>:
 1610dcc:	e92d41f0 	push	{r4, r5, r6, r7, r8, lr}
 1610dd0:	e1a08000 	mov	r8, r0
 1610dd4:	e1a06001 	mov	r6, r1
 1610dd8:	e1a07002 	mov	r7, r2
 1610ddc:	e1a05003 	mov	r5, r3
 1610de0:	ebfffecc 	bl	1610918 <alloc_mcp_descriptor>
 1610de4:	e2504000 	subs	r4, r0, #0
 1610de8:	0a000017 	beq	1610e4c <AES_CBC_encrypt+0x80>
 1610dec:	e3550000 	cmp	r5, #0
 1610df0:	0a00000f 	beq	1610e34 <AES_CBC_encrypt+0x68>
 1610df4:	e3a03065 	mov	r3, #101	; 0x65
 1610df8:	e5843000 	str	r3, [r4]
 1610dfc:	e5953000 	ldr	r3, [r5]
 1610e00:	e5843004 	str	r3, [r4, #4]
 1610e04:	e5953004 	ldr	r3, [r5, #4]
 1610e08:	e5843008 	str	r3, [r4, #8]
 1610e0c:	e5953008 	ldr	r3, [r5, #8]
 1610e10:	e584300c 	str	r3, [r4, #12]
 1610e14:	e595300c 	ldr	r3, [r5, #12]
 1610e18:	e5843010 	str	r3, [r4, #16]
 1610e1c:	e584802c 	str	r8, [r4, #44]	; 0x2c
 1610e20:	e1a00004 	mov	r0, r4
 1610e24:	e5847030 	str	r7, [r4, #48]	; 0x30
 1610e28:	e5846034 	str	r6, [r4, #52]	; 0x34
 1610e2c:	e8bd41f0 	pop	{r4, r5, r6, r7, r8, lr}
 1610e30:	eafffee1 	b	16109bc <do_mcp>
 1610e34:	ebfffed3 	bl	1610988 <load_otp>
 1610e38:	e3500000 	cmp	r0, #0
 1610e3c:	1a000004 	bne	1610e54 <AES_CBC_encrypt+0x88>
 1610e40:	e3013065 	movw	r3, #4197	; 0x1065
 1610e44:	e5843000 	str	r3, [r4]
 1610e48:	eafffff3 	b	1610e1c <AES_CBC_encrypt+0x50>
 1610e4c:	e3e00000 	mvn	r0, #0
 1610e50:	e8bd81f0 	pop	{r4, r5, r6, r7, r8, pc}
 1610e54:	e3e00001 	mvn	r0, #1
 1610e58:	e8bd81f0 	pop	{r4, r5, r6, r7, r8, pc}

01610e5c <AES_ECB_decrypt>:
 1610e5c:	e92d41f0 	push	{r4, r5, r6, r7, r8, lr}
 1610e60:	e1a08000 	mov	r8, r0
 1610e64:	e1a06001 	mov	r6, r1
 1610e68:	e1a07002 	mov	r7, r2
 1610e6c:	e1a05003 	mov	r5, r3
 1610e70:	ebfffea8 	bl	1610918 <alloc_mcp_descriptor>
 1610e74:	e2504000 	subs	r4, r0, #0
 1610e78:	0a000018 	beq	1610ee0 <AES_ECB_decrypt+0x84>
 1610e7c:	e3550000 	cmp	r5, #0
 1610e80:	0a00000f 	beq	1610ec4 <AES_ECB_decrypt+0x68>
 1610e84:	e3a03005 	mov	r3, #5
 1610e88:	e5843000 	str	r3, [r4]
 1610e8c:	e5953000 	ldr	r3, [r5]
 1610e90:	e5843004 	str	r3, [r4, #4]
 1610e94:	e5953004 	ldr	r3, [r5, #4]
 1610e98:	e5843008 	str	r3, [r4, #8]
 1610e9c:	e5953008 	ldr	r3, [r5, #8]
 1610ea0:	e584300c 	str	r3, [r4, #12]
 1610ea4:	e595300c 	ldr	r3, [r5, #12]
 1610ea8:	e5843010 	str	r3, [r4, #16]
 1610eac:	e584802c 	str	r8, [r4, #44]	; 0x2c
 1610eb0:	e1a00004 	mov	r0, r4
 1610eb4:	e5847030 	str	r7, [r4, #48]	; 0x30
 1610eb8:	e5846034 	str	r6, [r4, #52]	; 0x34
 1610ebc:	e8bd41f0 	pop	{r4, r5, r6, r7, r8, lr}
 1610ec0:	eafffebd 	b	16109bc <do_mcp>
 1610ec4:	ebfffeaf 	bl	1610988 <load_otp>
 1610ec8:	e3500000 	cmp	r0, #0
 1610ecc:	1a000005 	bne	1610ee8 <AES_ECB_decrypt+0x8c>
 1610ed0:	e3a03a01 	mov	r3, #4096	; 0x1000
 1610ed4:	e3403010 	movt	r3, #16
 1610ed8:	e5843000 	str	r3, [r4]
 1610edc:	eafffff2 	b	1610eac <AES_ECB_decrypt+0x50>
 1610ee0:	e3e00000 	mvn	r0, #0
 1610ee4:	e8bd81f0 	pop	{r4, r5, r6, r7, r8, pc}
 1610ee8:	e3e00001 	mvn	r0, #1
 1610eec:	e8bd81f0 	pop	{r4, r5, r6, r7, r8, pc}

01610ef0 <AES_ECB_encrypt>:
 1610ef0:	e92d41f0 	push	{r4, r5, r6, r7, r8, lr}
 1610ef4:	e1a08000 	mov	r8, r0
 1610ef8:	e1a07001 	mov	r7, r1
 1610efc:	e1a06002 	mov	r6, r2
 1610f00:	e1a05003 	mov	r5, r3
 1610f04:	ebfffe83 	bl	1610918 <alloc_mcp_descriptor>
 1610f08:	e2504000 	subs	r4, r0, #0
 1610f0c:	0a000028 	beq	1610fb4 <AES_ECB_encrypt+0xc4>
 1610f10:	e3550000 	cmp	r5, #0
 1610f14:	0a000017 	beq	1610f78 <AES_ECB_encrypt+0x88>
 1610f18:	e3a03025 	mov	r3, #37	; 0x25
 1610f1c:	e5843000 	str	r3, [r4]
 1610f20:	e5953000 	ldr	r3, [r5]
 1610f24:	e5843004 	str	r3, [r4, #4]
 1610f28:	e5953004 	ldr	r3, [r5, #4]
 1610f2c:	e5843008 	str	r3, [r4, #8]
 1610f30:	e5953008 	ldr	r3, [r5, #8]
 1610f34:	e584300c 	str	r3, [r4, #12]
 1610f38:	e595300c 	ldr	r3, [r5, #12]
 1610f3c:	e5843010 	str	r3, [r4, #16]
 1610f40:	e584802c 	str	r8, [r4, #44]	; 0x2c
 1610f44:	e1a00004 	mov	r0, r4
 1610f48:	e5846030 	str	r6, [r4, #48]	; 0x30
 1610f4c:	e5847034 	str	r7, [r4, #52]	; 0x34
 1610f50:	ebfffe99 	bl	16109bc <do_mcp>
 1610f54:	e2504000 	subs	r4, r0, #0
 1610f58:	0a000001 	beq	1610f64 <AES_ECB_encrypt+0x74>
 1610f5c:	e1a00004 	mov	r0, r4
 1610f60:	e8bd81f0 	pop	{r4, r5, r6, r7, r8, pc}
 1610f64:	e1a00006 	mov	r0, r6
 1610f68:	e1a01007 	mov	r1, r7
 1610f6c:	ebfffe4c 	bl	16108a4 <flush_cache>
 1610f70:	e1a00004 	mov	r0, r4
 1610f74:	e8bd81f0 	pop	{r4, r5, r6, r7, r8, pc}
 1610f78:	ebfffe82 	bl	1610988 <load_otp>
 1610f7c:	e3500000 	cmp	r0, #0
 1610f80:	03013025 	movweq	r3, #4133	; 0x1025
 1610f84:	05843000 	streq	r3, [r4]
 1610f88:	0affffec 	beq	1610f40 <AES_ECB_encrypt+0x50>
 1610f8c:	e3a030c4 	mov	r3, #196	; 0xc4
 1610f90:	e3022614 	movw	r2, #9748	; 0x2614
 1610f94:	e3402161 	movt	r2, #353	; 0x161
 1610f98:	e3021634 	movw	r1, #9780	; 0x2634
 1610f9c:	e3401161 	movt	r1, #353	; 0x161
 1610fa0:	e302063c 	movw	r0, #9788	; 0x263c
 1610fa4:	e3400161 	movt	r0, #353	; 0x161
 1610fa8:	ebfffcca 	bl	16102d8 <printf>
 1610fac:	e3e00001 	mvn	r0, #1
 1610fb0:	e8bd81f0 	pop	{r4, r5, r6, r7, r8, pc}
 1610fb4:	e3a030be 	mov	r3, #190	; 0xbe
 1610fb8:	e3022614 	movw	r2, #9748	; 0x2614
 1610fbc:	e3402161 	movt	r2, #353	; 0x161
 1610fc0:	e3021634 	movw	r1, #9780	; 0x2634
 1610fc4:	e3401161 	movt	r1, #353	; 0x161
 1610fc8:	e302063c 	movw	r0, #9788	; 0x263c
 1610fcc:	e3400161 	movt	r0, #353	; 0x161
 1610fd0:	ebfffcc0 	bl	16102d8 <printf>
 1610fd4:	e3e00000 	mvn	r0, #0
 1610fd8:	e8bd81f0 	pop	{r4, r5, r6, r7, r8, pc}

01610fdc <AES_hash_one>:
 1610fdc:	e92d4070 	push	{r4, r5, r6, lr}
 1610fe0:	e1a06000 	mov	r6, r0
 1610fe4:	e1a04001 	mov	r4, r1
 1610fe8:	e1a05002 	mov	r5, r2
 1610fec:	ebfffe49 	bl	1610918 <alloc_mcp_descriptor>
 1610ff0:	e2503000 	subs	r3, r0, #0
 1610ff4:	0a000012 	beq	1611044 <AES_hash_one+0x68>
 1610ff8:	e583602c 	str	r6, [r3, #44]	; 0x2c
 1610ffc:	e30dcf39 	movw	ip, #57145	; 0xdf39
 1611000:	e342cdc2 	movt	ip, #11714	; 0x2dc2
 1611004:	e583c01c 	str	ip, [r3, #28]
 1611008:	e5835030 	str	r5, [r3, #48]	; 0x30
 161100c:	e30221d0 	movw	r2, #8656	; 0x21d0
 1611010:	e3442203 	movt	r2, #16899	; 0x4203
 1611014:	e5832020 	str	r2, [r3, #32]
 1611018:	e5834034 	str	r4, [r3, #52]	; 0x34
 161101c:	e30f2e23 	movw	r2, #65059	; 0xfe23
 1611020:	e34c2ef1 	movt	r2, #52977	; 0xcef1
 1611024:	e5832024 	str	r2, [r3, #36]	; 0x24
 1611028:	e3a01027 	mov	r1, #39	; 0x27
 161102c:	e3092d95 	movw	r2, #40341	; 0x9d95
 1611030:	e3472402 	movt	r2, #29698	; 0x7402
 1611034:	e5832028 	str	r2, [r3, #40]	; 0x28
 1611038:	e5831000 	str	r1, [r3]
 161103c:	e8bd4070 	pop	{r4, r5, r6, lr}
 1611040:	eafffe5d 	b	16109bc <do_mcp>
 1611044:	e3e00000 	mvn	r0, #0
 1611048:	e8bd8070 	pop	{r4, r5, r6, pc}

0161104c <AES_hash>:
 161104c:	e3520000 	cmp	r2, #0
 1611050:	13500000 	cmpne	r0, #0
 1611054:	0a000050 	beq	161119c <AES_hash+0x150>
 1611058:	e3530000 	cmp	r3, #0
 161105c:	13510000 	cmpne	r1, #0
 1611060:	e92d41f0 	push	{r4, r5, r6, r7, r8, lr}
 1611064:	e1a06001 	mov	r6, r1
 1611068:	e1a07003 	mov	r7, r3
 161106c:	0a000048 	beq	1611194 <AES_hash+0x148>
 1611070:	e1a08000 	mov	r8, r0
 1611074:	e1a04002 	mov	r4, r2
 1611078:	ebfffe26 	bl	1610918 <alloc_mcp_descriptor>
 161107c:	e2505000 	subs	r5, r0, #0
 1611080:	0a000043 	beq	1611194 <AES_hash+0x148>
 1611084:	e30d3f39 	movw	r3, #57145	; 0xdf39
 1611088:	e3423dc2 	movt	r3, #11714	; 0x2dc2
 161108c:	e30221d0 	movw	r2, #8656	; 0x21d0
 1611090:	e3442203 	movt	r2, #16899	; 0x4203
 1611094:	e585301c 	str	r3, [r5, #28]
 1611098:	e30f3e23 	movw	r3, #65059	; 0xfe23
 161109c:	e34c3ef1 	movt	r3, #52977	; 0xcef1
 16110a0:	e5853024 	str	r3, [r5, #36]	; 0x24
 16110a4:	e5852020 	str	r2, [r5, #32]
 16110a8:	e3a03027 	mov	r3, #39	; 0x27
 16110ac:	e3092d95 	movw	r2, #40341	; 0x9d95
 16110b0:	e3472402 	movt	r2, #29698	; 0x7402
 16110b4:	e5854030 	str	r4, [r5, #48]	; 0x30
 16110b8:	e5852028 	str	r2, [r5, #40]	; 0x28
 16110bc:	e5853000 	str	r3, [r5]
 16110c0:	ea000026 	b	1611160 <AES_hash+0x114>
 16110c4:	e3560000 	cmp	r6, #0
 16110c8:	0a00002f 	beq	161118c <AES_hash+0x140>
 16110cc:	e5d41001 	ldrb	r1, [r4, #1]
 16110d0:	e5d43000 	ldrb	r3, [r4]
 16110d4:	e5d42003 	ldrb	r2, [r4, #3]
 16110d8:	e5d40002 	ldrb	r0, [r4, #2]
 16110dc:	e1a01801 	lsl	r1, r1, #16
 16110e0:	e1813c03 	orr	r3, r1, r3, lsl #24
 16110e4:	e5951034 	ldr	r1, [r5, #52]	; 0x34
 16110e8:	e1833002 	orr	r3, r3, r2
 16110ec:	e1833400 	orr	r3, r3, r0, lsl #8
 16110f0:	e585301c 	str	r3, [r5, #28]
 16110f4:	e0888001 	add	r8, r8, r1
 16110f8:	e5d41005 	ldrb	r1, [r4, #5]
 16110fc:	e5d43004 	ldrb	r3, [r4, #4]
 1611100:	e5d42007 	ldrb	r2, [r4, #7]
 1611104:	e5d40006 	ldrb	r0, [r4, #6]
 1611108:	e1a01801 	lsl	r1, r1, #16
 161110c:	e1813c03 	orr	r3, r1, r3, lsl #24
 1611110:	e1833002 	orr	r3, r3, r2
 1611114:	e1833400 	orr	r3, r3, r0, lsl #8
 1611118:	e5853020 	str	r3, [r5, #32]
 161111c:	e5d42009 	ldrb	r2, [r4, #9]
 1611120:	e5d40008 	ldrb	r0, [r4, #8]
 1611124:	e5d4100a 	ldrb	r1, [r4, #10]
 1611128:	e1a03802 	lsl	r3, r2, #16
 161112c:	e1833c00 	orr	r3, r3, r0, lsl #24
 1611130:	e1832002 	orr	r2, r3, r2
 1611134:	e1822401 	orr	r2, r2, r1, lsl #8
 1611138:	e5852024 	str	r2, [r5, #36]	; 0x24
 161113c:	e5d4100d 	ldrb	r1, [r4, #13]
 1611140:	e5d4200c 	ldrb	r2, [r4, #12]
 1611144:	e5d4300f 	ldrb	r3, [r4, #15]
 1611148:	e5d4000e 	ldrb	r0, [r4, #14]
 161114c:	e1a01801 	lsl	r1, r1, #16
 1611150:	e1812c02 	orr	r2, r1, r2, lsl #24
 1611154:	e1822003 	orr	r2, r2, r3
 1611158:	e1822400 	orr	r2, r2, r0, lsl #8
 161115c:	e5852028 	str	r2, [r5, #40]	; 0x28
 1611160:	e1560007 	cmp	r6, r7
 1611164:	e585802c 	str	r8, [r5, #44]	; 0x2c
 1611168:	31a03006 	movcc	r3, r6
 161116c:	21a03007 	movcs	r3, r7
 1611170:	e1a00005 	mov	r0, r5
 1611174:	e5853034 	str	r3, [r5, #52]	; 0x34
 1611178:	ebfffe0f 	bl	16109bc <do_mcp>
 161117c:	e3500000 	cmp	r0, #0
 1611180:	e0676006 	rsb	r6, r7, r6
 1611184:	0affffce 	beq	16110c4 <AES_hash+0x78>
 1611188:	e8bd81f0 	pop	{r4, r5, r6, r7, r8, pc}
 161118c:	e1a00006 	mov	r0, r6
 1611190:	e8bd81f0 	pop	{r4, r5, r6, r7, r8, pc}
 1611194:	e3e00000 	mvn	r0, #0
 1611198:	e8bd81f0 	pop	{r4, r5, r6, r7, r8, pc}
 161119c:	e3e00000 	mvn	r0, #0
 16111a0:	e12fff1e 	bx	lr

016111a4 <SHA1_hash>:
 16111a4:	e3520000 	cmp	r2, #0
 16111a8:	13500000 	cmpne	r0, #0
 16111ac:	0a00002b 	beq	1611260 <SHA1_hash+0xbc>
 16111b0:	e92d41f0 	push	{r4, r5, r6, r7, r8, lr}
 16111b4:	e1a07002 	mov	r7, r2
 16111b8:	e1a06000 	mov	r6, r0
 16111bc:	e1a04003 	mov	r4, r3
 16111c0:	e1a05001 	mov	r5, r1
 16111c4:	ebfffdd3 	bl	1610918 <alloc_mcp_descriptor>
 16111c8:	e250c000 	subs	ip, r0, #0
 16111cc:	0a000025 	beq	1611268 <SHA1_hash+0xc4>
 16111d0:	e3540000 	cmp	r4, #0
 16111d4:	e3a03004 	mov	r3, #4
 16111d8:	e58c3000 	str	r3, [ip]
 16111dc:	0a00000f 	beq	1611220 <SHA1_hash+0x7c>
 16111e0:	e5943000 	ldr	r3, [r4]
 16111e4:	e58c3004 	str	r3, [ip, #4]
 16111e8:	e5943004 	ldr	r3, [r4, #4]
 16111ec:	e58c3008 	str	r3, [ip, #8]
 16111f0:	e5943008 	ldr	r3, [r4, #8]
 16111f4:	e58c300c 	str	r3, [ip, #12]
 16111f8:	e594300c 	ldr	r3, [r4, #12]
 16111fc:	e58c3010 	str	r3, [ip, #16]
 1611200:	e5943010 	ldr	r3, [r4, #16]
 1611204:	e58c3014 	str	r3, [ip, #20]
 1611208:	e58c602c 	str	r6, [ip, #44]	; 0x2c
 161120c:	e1a0000c 	mov	r0, ip
 1611210:	e58c7030 	str	r7, [ip, #48]	; 0x30
 1611214:	e58c5034 	str	r5, [ip, #52]	; 0x34
 1611218:	e8bd41f0 	pop	{r4, r5, r6, r7, r8, lr}
 161121c:	eafffde6 	b	16109bc <do_mcp>
 1611220:	e3022301 	movw	r2, #8961	; 0x2301
 1611224:	e3462745 	movt	r2, #26437	; 0x6745
 1611228:	e30a3b89 	movw	r3, #43913	; 0xab89
 161122c:	e34e3fcd 	movt	r3, #61389	; 0xefcd
 1611230:	e58c2004 	str	r2, [ip, #4]
 1611234:	e30d2cfe 	movw	r2, #56574	; 0xdcfe
 1611238:	e34928ba 	movt	r2, #39098	; 0x98ba
 161123c:	e58c200c 	str	r2, [ip, #12]
 1611240:	e58c3008 	str	r3, [ip, #8]
 1611244:	e3053476 	movw	r3, #21622	; 0x5476
 1611248:	e3413032 	movt	r3, #4146	; 0x1032
 161124c:	e58c3010 	str	r3, [ip, #16]
 1611250:	e30e31f0 	movw	r3, #57840	; 0xe1f0
 1611254:	e34c33d2 	movt	r3, #50130	; 0xc3d2
 1611258:	e58c3014 	str	r3, [ip, #20]
 161125c:	eaffffe9 	b	1611208 <SHA1_hash+0x64>
 1611260:	e3e00000 	mvn	r0, #0
 1611264:	e12fff1e 	bx	lr
 1611268:	e3e00000 	mvn	r0, #0
 161126c:	e8bd81f0 	pop	{r4, r5, r6, r7, r8, pc}

01611270 <do_RSA>:
 1611270:	e92d4070 	push	{r4, r5, r6, lr}
 1611274:	e1a04000 	mov	r4, r0
 1611278:	e1a05001 	mov	r5, r1
 161127c:	e24ddc01 	sub	sp, sp, #256	; 0x100
 1611280:	e1a06002 	mov	r6, r2
 1611284:	f57ff04f 	dsb	sy
 1611288:	eb0000fd 	bl	1611684 <sync>
 161128c:	e3a03903 	mov	r3, #49152	; 0xc000
 1611290:	e3493804 	movt	r3, #38916	; 0x9804
 1611294:	e3550000 	cmp	r5, #0
 1611298:	e3a01002 	mov	r1, #2
 161129c:	e3a02000 	mov	r2, #0
 16112a0:	e5831f08 	str	r1, [r3, #3848]	; 0xf08
 16112a4:	e5832f80 	str	r2, [r3, #3968]	; 0xf80
 16112a8:	0a000049 	beq	16113d4 <do_RSA+0x164>
 16112ac:	e3a00b33 	mov	r0, #52224	; 0xcc00
 16112b0:	e3490804 	movt	r0, #38916	; 0x9804
 16112b4:	e1a01005 	mov	r1, r5
 16112b8:	e3a02c01 	mov	r2, #256	; 0x100
 16112bc:	eb0001c9 	bl	16119e8 <copy_memory>
 16112c0:	e3a01c01 	mov	r1, #256	; 0x100
 16112c4:	e3a00b33 	mov	r0, #52224	; 0xcc00
 16112c8:	e3490804 	movt	r0, #38916	; 0x9804
 16112cc:	ebfffd74 	bl	16108a4 <flush_cache>
 16112d0:	e3a02c01 	mov	r2, #256	; 0x100
 16112d4:	e3a01000 	mov	r1, #0
 16112d8:	e1a0000d 	mov	r0, sp
 16112dc:	eb0001ba 	bl	16119cc <set_memory>
 16112e0:	e1a0100d 	mov	r1, sp
 16112e4:	e3a02c01 	mov	r2, #256	; 0x100
 16112e8:	e3a03001 	mov	r3, #1
 16112ec:	e30c0d80 	movw	r0, #52608	; 0xcd80
 16112f0:	e3490804 	movt	r0, #38916	; 0x9804
 16112f4:	e7df3813 	bfi	r3, r3, #16, #16
 16112f8:	e58d3000 	str	r3, [sp]
 16112fc:	eb0001b9 	bl	16119e8 <copy_memory>
 1611300:	e1a01004 	mov	r1, r4
 1611304:	e3a02c01 	mov	r2, #256	; 0x100
 1611308:	e30c0780 	movw	r0, #51072	; 0xc780
 161130c:	e3490804 	movt	r0, #38916	; 0x9804
 1611310:	eb0001b4 	bl	16119e8 <copy_memory>
 1611314:	e3a02c01 	mov	r2, #256	; 0x100
 1611318:	e0841002 	add	r1, r4, r2
 161131c:	e3a00cc9 	mov	r0, #51456	; 0xc900
 1611320:	e3490804 	movt	r0, #38916	; 0x9804
 1611324:	e3a05903 	mov	r5, #49152	; 0xc000
 1611328:	e3495804 	movt	r5, #38916	; 0x9804
 161132c:	eb0001ad 	bl	16119e8 <copy_memory>
 1611330:	e5943200 	ldr	r3, [r4, #512]	; 0x200
 1611334:	e6bf3f33 	rev	r3, r3
 1611338:	e5853f84 	str	r3, [r5, #3972]	; 0xf84
 161133c:	e5953f88 	ldr	r3, [r5, #3976]	; 0xf88
 1611340:	e3833102 	orr	r3, r3, #-2147483648	; 0x80000000
 1611344:	e5853f88 	str	r3, [r5, #3976]	; 0xf88
 1611348:	e5953f0c 	ldr	r3, [r5, #3852]	; 0xf0c
 161134c:	e3530023 	cmp	r3, #35	; 0x23
 1611350:	130043e9 	movwne	r4, #1001	; 0x3e9
 1611354:	1a000002 	bne	1611364 <do_RSA+0xf4>
 1611358:	ea000006 	b	1611378 <do_RSA+0x108>
 161135c:	e2544001 	subs	r4, r4, #1
 1611360:	0a000015 	beq	16113bc <do_RSA+0x14c>
 1611364:	e3a00001 	mov	r0, #1
 1611368:	eb000098 	bl	16115d0 <mdelay>
 161136c:	e5953f0c 	ldr	r3, [r5, #3852]	; 0xf0c
 1611370:	e3530023 	cmp	r3, #35	; 0x23
 1611374:	1afffff8 	bne	161135c <do_RSA+0xec>
 1611378:	e3a02020 	mov	r2, #32
 161137c:	e1a00006 	mov	r0, r6
 1611380:	e0864002 	add	r4, r6, r2
 1611384:	e3a01cc9 	mov	r1, #51456	; 0xc900
 1611388:	e3491804 	movt	r1, #38916	; 0x9804
 161138c:	eb000195 	bl	16119e8 <copy_memory>
 1611390:	e1a01004 	mov	r1, r4
 1611394:	e1a00006 	mov	r0, r6
 1611398:	ebfffd41 	bl	16108a4 <flush_cache>
 161139c:	e1a00006 	mov	r0, r6
 16113a0:	ebfffdc9 	bl	1610acc <reverse_rsa_signature>
 16113a4:	e1a00006 	mov	r0, r6
 16113a8:	e1a01004 	mov	r1, r4
 16113ac:	ebfffd3c 	bl	16108a4 <flush_cache>
 16113b0:	e3a00000 	mov	r0, #0
 16113b4:	e28ddc01 	add	sp, sp, #256	; 0x100
 16113b8:	e8bd8070 	pop	{r4, r5, r6, pc}
 16113bc:	e302064c 	movw	r0, #9804	; 0x264c
 16113c0:	e3400161 	movt	r0, #353	; 0x161
 16113c4:	eb0000d4 	bl	161171c <prints>
 16113c8:	e3a00001 	mov	r0, #1
 16113cc:	e28ddc01 	add	sp, sp, #256	; 0x100
 16113d0:	e8bd8070 	pop	{r4, r5, r6, pc}
 16113d4:	e1a00005 	mov	r0, r5
 16113d8:	e3a01b33 	mov	r1, #52224	; 0xcc00
 16113dc:	e3491804 	movt	r1, #38916	; 0x9804
 16113e0:	e3a02040 	mov	r2, #64	; 0x40
 16113e4:	eb0003bc 	bl	16122dc <OTP_Get_Word>
 16113e8:	eaffffb4 	b	16112c0 <do_RSA+0x50>

016113ec <SHA256_hash>:
 16113ec:	e3520000 	cmp	r2, #0
 16113f0:	13500000 	cmpne	r0, #0
 16113f4:	1a000001 	bne	1611400 <SHA256_hash+0x14>
 16113f8:	e3a00093 	mov	r0, #147	; 0x93
 16113fc:	e12fff1e 	bx	lr
 1611400:	e92d41f0 	push	{r4, r5, r6, r7, r8, lr}
 1611404:	e1a07002 	mov	r7, r2
 1611408:	e1a06000 	mov	r6, r0
 161140c:	e1a04003 	mov	r4, r3
 1611410:	e1a05001 	mov	r5, r1
 1611414:	ebfffd3f 	bl	1610918 <alloc_mcp_descriptor>
 1611418:	e250c000 	subs	ip, r0, #0
 161141c:	0a000019 	beq	1611488 <SHA256_hash+0x9c>
 1611420:	e3540000 	cmp	r4, #0
 1611424:	e3a0300b 	mov	r3, #11
 1611428:	e58c3000 	str	r3, [ip]
 161142c:	0a000017 	beq	1611490 <SHA256_hash+0xa4>
 1611430:	e5943000 	ldr	r3, [r4]
 1611434:	e58c3004 	str	r3, [ip, #4]
 1611438:	e5943004 	ldr	r3, [r4, #4]
 161143c:	e58c3008 	str	r3, [ip, #8]
 1611440:	e5943008 	ldr	r3, [r4, #8]
 1611444:	e58c300c 	str	r3, [ip, #12]
 1611448:	e594300c 	ldr	r3, [r4, #12]
 161144c:	e58c3010 	str	r3, [ip, #16]
 1611450:	e5943010 	ldr	r3, [r4, #16]
 1611454:	e58c3014 	str	r3, [ip, #20]
 1611458:	e5943014 	ldr	r3, [r4, #20]
 161145c:	e58c3018 	str	r3, [ip, #24]
 1611460:	e5943018 	ldr	r3, [r4, #24]
 1611464:	e58c301c 	str	r3, [ip, #28]
 1611468:	e594301c 	ldr	r3, [r4, #28]
 161146c:	e58c3020 	str	r3, [ip, #32]
 1611470:	e58c602c 	str	r6, [ip, #44]	; 0x2c
 1611474:	e1a0000c 	mov	r0, ip
 1611478:	e58c7030 	str	r7, [ip, #48]	; 0x30
 161147c:	e58c5034 	str	r5, [ip, #52]	; 0x34
 1611480:	e8bd41f0 	pop	{r4, r5, r6, r7, r8, lr}
 1611484:	eafffd4c 	b	16109bc <do_mcp>
 1611488:	e3a00094 	mov	r0, #148	; 0x94
 161148c:	e8bd81f0 	pop	{r4, r5, r6, r7, r8, pc}
 1611490:	e30e2667 	movw	r2, #58983	; 0xe667
 1611494:	e3462a09 	movt	r2, #27145	; 0x6a09
 1611498:	e30a3e85 	movw	r3, #44677	; 0xae85
 161149c:	e34b3b67 	movt	r3, #47975	; 0xbb67
 16114a0:	e58c2004 	str	r2, [ip, #4]
 16114a4:	e30f2372 	movw	r2, #62322	; 0xf372
 16114a8:	e3432c6e 	movt	r2, #15470	; 0x3c6e
 16114ac:	e58c200c 	str	r2, [ip, #12]
 16114b0:	e58c3008 	str	r3, [ip, #8]
 16114b4:	e305227f 	movw	r2, #21119	; 0x527f
 16114b8:	e345210e 	movt	r2, #20750	; 0x510e
 16114bc:	e58c2014 	str	r2, [ip, #20]
 16114c0:	e30f353a 	movw	r3, #62778	; 0xf53a
 16114c4:	e34a354f 	movt	r3, #42319	; 0xa54f
 16114c8:	e30d29ab 	movw	r2, #55723	; 0xd9ab
 16114cc:	e3412f83 	movt	r2, #8067	; 0x1f83
 16114d0:	e58c3010 	str	r3, [ip, #16]
 16114d4:	e306388c 	movw	r3, #26764	; 0x688c
 16114d8:	e3493b05 	movt	r3, #39685	; 0x9b05
 16114dc:	e58c3018 	str	r3, [ip, #24]
 16114e0:	e58c201c 	str	r2, [ip, #28]
 16114e4:	e30c3d19 	movw	r3, #52505	; 0xcd19
 16114e8:	e3453be0 	movt	r3, #23520	; 0x5be0
 16114ec:	e58c3020 	str	r3, [ip, #32]
 16114f0:	eaffffde 	b	1611470 <SHA256_hash+0x84>

016114f4 <reverse_signature>:
 16114f4:	e2402001 	sub	r2, r0, #1
 16114f8:	e2803c01 	add	r3, r0, #256	; 0x100
 16114fc:	e280c080 	add	ip, r0, #128	; 0x80
 1611500:	e5730001 	ldrb	r0, [r3, #-1]!
 1611504:	e5f21001 	ldrb	r1, [r2, #1]!
 1611508:	e153000c 	cmp	r3, ip
 161150c:	e5c20000 	strb	r0, [r2]
 1611510:	e5c31000 	strb	r1, [r3]
 1611514:	1afffff9 	bne	1611500 <reverse_signature+0xc>
 1611518:	e12fff1e 	bx	lr

0161151c <InitTimer>:
 161151c:	e3500001 	cmp	r0, #1
 1611520:	9a000001 	bls	161152c <InitTimer+0x10>
 1611524:	e3e00000 	mvn	r0, #0
 1611528:	e12fff1e 	bx	lr
 161152c:	e3062d40 	movw	r2, #27968	; 0x6d40
 1611530:	e3422600 	movt	r2, #9728	; 0x2600
 1611534:	e0802002 	add	r2, r0, r2
 1611538:	e3a0ca0b 	mov	ip, #45056	; 0xb000
 161153c:	e349c801 	movt	ip, #38913	; 0x9801
 1611540:	e1a02102 	lsl	r2, r2, #2
 1611544:	e2800001 	add	r0, r0, #1
 1611548:	e92d4010 	push	{r4, lr}
 161154c:	e1a03300 	lsl	r3, r0, #6
 1611550:	e5821000 	str	r1, [r2]
 1611554:	e3a0e000 	mov	lr, #0
 1611558:	e3a04103 	mov	r4, #-1073741824	; 0xc0000000
 161155c:	e582e024 	str	lr, [r2, #36]	; 0x24
 1611560:	e3a00001 	mov	r0, #1
 1611564:	e582e018 	str	lr, [r2, #24]
 1611568:	e58c3008 	str	r3, [ip, #8]
 161156c:	e5824018 	str	r4, [r2, #24]
 1611570:	e8bd8010 	pop	{r4, pc}

01611574 <DisableTimer>:
 1611574:	e3500001 	cmp	r0, #1
 1611578:	93063d49 	movwls	r3, #27977	; 0x6d49
 161157c:	93a02000 	movls	r2, #0
 1611580:	93423600 	movtls	r3, #9728	; 0x2600
 1611584:	90803003 	addls	r3, r0, r3
 1611588:	93a00001 	movls	r0, #1
 161158c:	83e00000 	mvnhi	r0, #0
 1611590:	91a03103 	lslls	r3, r3, #2
 1611594:	95832000 	strls	r2, [r3]
 1611598:	9503200c 	strls	r2, [r3, #-12]
 161159c:	e12fff1e 	bx	lr

016115a0 <SystemTimeout>:
 16115a0:	e3500001 	cmp	r0, #1
 16115a4:	9a000001 	bls	16115b0 <SystemTimeout+0x10>
 16115a8:	e3a00000 	mov	r0, #0
 16115ac:	e12fff1e 	bx	lr
 16115b0:	e3a03a0b 	mov	r3, #45056	; 0xb000
 16115b4:	e3493801 	movt	r3, #38913	; 0x9801
 16115b8:	e2800001 	add	r0, r0, #1
 16115bc:	e5933008 	ldr	r3, [r3, #8]
 16115c0:	e0133300 	ands	r3, r3, r0, lsl #6
 16115c4:	13a00001 	movne	r0, #1
 16115c8:	03a00000 	moveq	r0, #0
 16115cc:	e12fff1e 	bx	lr

016115d0 <mdelay>:
 16115d0:	e3043240 	movw	r3, #16960	; 0x4240
 16115d4:	e340300f 	movt	r3, #15
 16115d8:	e30c2ccd 	movw	r2, #52429	; 0xcccd
 16115dc:	e34c2ccc 	movt	r2, #52428	; 0xcccc
 16115e0:	e0000093 	mul	r0, r3, r0
 16115e4:	e3a03a0b 	mov	r3, #45056	; 0xb000
 16115e8:	e3493801 	movt	r3, #38913	; 0x9801
 16115ec:	e52de004 	push	{lr}		; (str lr, [sp, #-4]!)
 16115f0:	e0810290 	umull	r0, r1, r0, r2
 16115f4:	e3a0c000 	mov	ip, #0
 16115f8:	e3a0e040 	mov	lr, #64	; 0x40
 16115fc:	e3a00103 	mov	r0, #-1073741824	; 0xc0000000
 1611600:	e1a02003 	mov	r2, r3
 1611604:	e1a01221 	lsr	r1, r1, #4
 1611608:	e5831500 	str	r1, [r3, #1280]	; 0x500
 161160c:	e583c524 	str	ip, [r3, #1316]	; 0x524
 1611610:	e583c518 	str	ip, [r3, #1304]	; 0x518
 1611614:	e583e008 	str	lr, [r3, #8]
 1611618:	e5830518 	str	r0, [r3, #1304]	; 0x518
 161161c:	e5923008 	ldr	r3, [r2, #8]
 1611620:	e3130040 	tst	r3, #64	; 0x40
 1611624:	0afffffc 	beq	161161c <mdelay+0x4c>
 1611628:	e49df004 	pop	{pc}		; (ldr pc, [sp], #4)

0161162c <udelay>:
 161162c:	e3a03ffa 	mov	r3, #1000	; 0x3e8
 1611630:	e30c2ccd 	movw	r2, #52429	; 0xcccd
 1611634:	e34c2ccc 	movt	r2, #52428	; 0xcccc
 1611638:	e0000093 	mul	r0, r3, r0
 161163c:	e3a03a0b 	mov	r3, #45056	; 0xb000
 1611640:	e3493801 	movt	r3, #38913	; 0x9801
 1611644:	e52de004 	push	{lr}		; (str lr, [sp, #-4]!)
 1611648:	e0810290 	umull	r0, r1, r0, r2
 161164c:	e3a0c000 	mov	ip, #0
 1611650:	e3a0e040 	mov	lr, #64	; 0x40
 1611654:	e3a00103 	mov	r0, #-1073741824	; 0xc0000000
 1611658:	e1a02003 	mov	r2, r3
 161165c:	e1a01221 	lsr	r1, r1, #4
 1611660:	e5831500 	str	r1, [r3, #1280]	; 0x500
 1611664:	e583c524 	str	ip, [r3, #1316]	; 0x524
 1611668:	e583c518 	str	ip, [r3, #1304]	; 0x518
 161166c:	e583e008 	str	lr, [r3, #8]
 1611670:	e5830518 	str	r0, [r3, #1304]	; 0x518
 1611674:	e5923008 	ldr	r3, [r2, #8]
 1611678:	e3130040 	tst	r3, #64	; 0x40
 161167c:	0afffffc 	beq	1611674 <udelay+0x48>
 1611680:	e49df004 	pop	{pc}		; (ldr pc, [sp], #4)

01611684 <sync>:
 1611684:	e3a03000 	mov	r3, #0
 1611688:	ee073fba 	mcr	15, 0, r3, cr7, cr10, {5}
 161168c:	e3a02a0a 	mov	r2, #40960	; 0xa000
 1611690:	e3492801 	movt	r2, #38913	; 0x9801
 1611694:	e5823020 	str	r3, [r2, #32]
 1611698:	ee073fba 	mcr	15, 0, r3, cr7, cr10, {5}
 161169c:	e12fff1e 	bx	lr

016116a0 <init_uart>:
 16116a0:	e3a03a07 	mov	r3, #28672	; 0x7000
 16116a4:	e3493800 	movt	r3, #38912	; 0x9800
 16116a8:	e92d4010 	push	{r4, lr}
 16116ac:	e5932310 	ldr	r2, [r3, #784]	; 0x310
 16116b0:	e3a01000 	mov	r1, #0
 16116b4:	e3a04090 	mov	r4, #144	; 0x90
 16116b8:	e3a0e00e 	mov	lr, #14
 16116bc:	e3c228ff 	bic	r2, r2, #16711680	; 0xff0000
 16116c0:	e3a0c003 	mov	ip, #3
 16116c4:	e3c22a0f 	bic	r2, r2, #61440	; 0xf000
 16116c8:	e3a000b7 	mov	r0, #183	; 0xb7
 16116cc:	e3822855 	orr	r2, r2, #5570560	; 0x550000
 16116d0:	e3822a05 	orr	r2, r2, #20480	; 0x5000
 16116d4:	e5832310 	str	r2, [r3, #784]	; 0x310
 16116d8:	e583480c 	str	r4, [r3, #2060]	; 0x80c
 16116dc:	e583e800 	str	lr, [r3, #2048]	; 0x800
 16116e0:	e5831804 	str	r1, [r3, #2052]	; 0x804
 16116e4:	e583c80c 	str	ip, [r3, #2060]	; 0x80c
 16116e8:	e5830808 	str	r0, [r3, #2056]	; 0x808
 16116ec:	e5831804 	str	r1, [r3, #2052]	; 0x804
 16116f0:	e8bd8010 	pop	{r4, pc}

016116f4 <set_focus_uart>:
 16116f4:	e3022acc 	movw	r2, #10956	; 0x2acc
 16116f8:	e3402162 	movt	r2, #354	; 0x162
 16116fc:	e3500000 	cmp	r0, #0
 1611700:	e3a01cb2 	mov	r1, #45568	; 0xb200
 1611704:	e3491801 	movt	r1, #38913	; 0x9801
 1611708:	e3a03b1e 	mov	r3, #30720	; 0x7800
 161170c:	e3493800 	movt	r3, #38912	; 0x9800
 1611710:	11a03001 	movne	r3, r1
 1611714:	e5823000 	str	r3, [r2]
 1611718:	e12fff1e 	bx	lr

0161171c <prints>:
 161171c:	e5d03000 	ldrb	r3, [r0]
 1611720:	e3530000 	cmp	r3, #0
 1611724:	012fff1e 	bxeq	lr
 1611728:	e3022acc 	movw	r2, #10956	; 0x2acc
 161172c:	e3402162 	movt	r2, #354	; 0x162
 1611730:	e3a0c00d 	mov	ip, #13
 1611734:	e5922000 	ldr	r2, [r2]
 1611738:	e353000a 	cmp	r3, #10
 161173c:	11a01003 	movne	r1, r3
 1611740:	0a000008 	beq	1611768 <prints+0x4c>
 1611744:	e5923014 	ldr	r3, [r2, #20]
 1611748:	e2033060 	and	r3, r3, #96	; 0x60
 161174c:	e3530060 	cmp	r3, #96	; 0x60
 1611750:	1afffffb 	bne	1611744 <prints+0x28>
 1611754:	e5821000 	str	r1, [r2]
 1611758:	e5f03001 	ldrb	r3, [r0, #1]!
 161175c:	e3530000 	cmp	r3, #0
 1611760:	1afffff4 	bne	1611738 <prints+0x1c>
 1611764:	e12fff1e 	bx	lr
 1611768:	e5923014 	ldr	r3, [r2, #20]
 161176c:	e2033060 	and	r3, r3, #96	; 0x60
 1611770:	e3530060 	cmp	r3, #96	; 0x60
 1611774:	1afffffb 	bne	1611768 <prints+0x4c>
 1611778:	e582c000 	str	ip, [r2]
 161177c:	e3a0100a 	mov	r1, #10
 1611780:	eaffffef 	b	1611744 <prints+0x28>

01611784 <wait_done>:
 1611784:	e5903000 	ldr	r3, [r0]
 1611788:	e0033001 	and	r3, r3, r1
 161178c:	e1530002 	cmp	r3, r2
 1611790:	0a000012 	beq	16117e0 <wait_done+0x5c>
 1611794:	e92d41f0 	push	{r4, r5, r6, r7, r8, lr}
 1611798:	e1a07002 	mov	r7, r2
 161179c:	e1a06001 	mov	r6, r1
 16117a0:	e1a05000 	mov	r5, r0
 16117a4:	e3004bb9 	movw	r4, #3001	; 0xbb9
 16117a8:	ea000001 	b	16117b4 <wait_done+0x30>
 16117ac:	e2544001 	subs	r4, r4, #1
 16117b0:	0a000006 	beq	16117d0 <wait_done+0x4c>
 16117b4:	e3a00001 	mov	r0, #1
 16117b8:	ebffff84 	bl	16115d0 <mdelay>
 16117bc:	e5953000 	ldr	r3, [r5]
 16117c0:	e0033006 	and	r3, r3, r6
 16117c4:	e1530007 	cmp	r3, r7
 16117c8:	1afffff7 	bne	16117ac <wait_done+0x28>
 16117cc:	e8bd81f0 	pop	{r4, r5, r6, r7, r8, pc}
 16117d0:	e3020668 	movw	r0, #9832	; 0x2668
 16117d4:	e3400161 	movt	r0, #353	; 0x161
 16117d8:	e8bd41f0 	pop	{r4, r5, r6, r7, r8, lr}
 16117dc:	eaffffce 	b	161171c <prints>
 16117e0:	e12fff1e 	bx	lr

016117e4 <print_val>:
 16117e4:	e3023acc 	movw	r3, #10956	; 0x2acc
 16117e8:	e3403162 	movt	r3, #354	; 0x162
 16117ec:	e2411001 	sub	r1, r1, #1
 16117f0:	e5932000 	ldr	r2, [r3]
 16117f4:	e1a03101 	lsl	r3, r1, #2
 16117f8:	e1a03330 	lsr	r3, r0, r3
 16117fc:	e203300f 	and	r3, r3, #15
 1611800:	e353000a 	cmp	r3, #10
 1611804:	33a0c030 	movcc	ip, #48	; 0x30
 1611808:	23a0c037 	movcs	ip, #55	; 0x37
 161180c:	e08cc003 	add	ip, ip, r3
 1611810:	e5923014 	ldr	r3, [r2, #20]
 1611814:	e2033060 	and	r3, r3, #96	; 0x60
 1611818:	e3530060 	cmp	r3, #96	; 0x60
 161181c:	1afffffb 	bne	1611810 <print_val+0x2c>
 1611820:	e2411001 	sub	r1, r1, #1
 1611824:	e582c000 	str	ip, [r2]
 1611828:	e3710001 	cmn	r1, #1
 161182c:	1afffff0 	bne	16117f4 <print_val+0x10>
 1611830:	e12fff1e 	bx	lr

01611834 <print_hex>:
 1611834:	e3a01008 	mov	r1, #8
 1611838:	eaffffe9 	b	16117e4 <print_val>

0161183c <sys_dcache_flush_all>:
 161183c:	e12fff1e 	bx	lr

01611840 <put_char>:
 1611840:	e3023acc 	movw	r3, #10956	; 0x2acc
 1611844:	e3403162 	movt	r3, #354	; 0x162
 1611848:	e5932000 	ldr	r2, [r3]
 161184c:	e5923014 	ldr	r3, [r2, #20]
 1611850:	e2033060 	and	r3, r3, #96	; 0x60
 1611854:	e3530060 	cmp	r3, #96	; 0x60
 1611858:	1afffffb 	bne	161184c <put_char+0xc>
 161185c:	e5820000 	str	r0, [r2]
 1611860:	e12fff1e 	bx	lr

01611864 <hexstr2int>:
 1611864:	e3a02010 	mov	r2, #16
 1611868:	e3a01000 	mov	r1, #0
 161186c:	eafffa32 	b	161013c <strtoul>

01611870 <simple_malloc>:
 1611870:	e3022c4c 	movw	r2, #11340	; 0x2c4c
 1611874:	e3402162 	movt	r2, #354	; 0x162
 1611878:	e92d4010 	push	{r4, lr}
 161187c:	e5924000 	ldr	r4, [r2]
 1611880:	e080e004 	add	lr, r0, r4
 1611884:	e35e0401 	cmp	lr, #16777216	; 0x1000000
 1611888:	8a00000b 	bhi	16118bc <simple_malloc+0x4c>
 161188c:	e302cacc 	movw	ip, #10956	; 0x2acc
 1611890:	e340c162 	movt	ip, #354	; 0x162
 1611894:	e3100003 	tst	r0, #3
 1611898:	13c03003 	bicne	r3, r0, #3
 161189c:	e59c1004 	ldr	r1, [ip, #4]
 16118a0:	12830004 	addne	r0, r3, #4
 16118a4:	1080e004 	addne	lr, r0, r4
 16118a8:	e582e000 	str	lr, [r2]
 16118ac:	e0803001 	add	r3, r0, r1
 16118b0:	e1a00001 	mov	r0, r1
 16118b4:	e58c3004 	str	r3, [ip, #4]
 16118b8:	e8bd8010 	pop	{r4, pc}
 16118bc:	e3a00000 	mov	r0, #0
 16118c0:	e8bd8010 	pop	{r4, pc}

016118c4 <is_hex_digit>:
 16118c4:	e2403030 	sub	r3, r0, #48	; 0x30
 16118c8:	e3530009 	cmp	r3, #9
 16118cc:	9a000007 	bls	16118f0 <is_hex_digit+0x2c>
 16118d0:	e2403041 	sub	r3, r0, #65	; 0x41
 16118d4:	e3530005 	cmp	r3, #5
 16118d8:	9a000004 	bls	16118f0 <is_hex_digit+0x2c>
 16118dc:	e2400061 	sub	r0, r0, #97	; 0x61
 16118e0:	e3500005 	cmp	r0, #5
 16118e4:	93a00000 	movls	r0, #0
 16118e8:	83e00000 	mvnhi	r0, #0
 16118ec:	e12fff1e 	bx	lr
 16118f0:	e3a00000 	mov	r0, #0
 16118f4:	e12fff1e 	bx	lr

016118f8 <hexdump>:
 16118f8:	e3520000 	cmp	r2, #0
 16118fc:	13510000 	cmpne	r1, #0
 1611900:	e92d4070 	push	{r4, r5, r6, lr}
 1611904:	03a04001 	moveq	r4, #1
 1611908:	13a04000 	movne	r4, #0
 161190c:	0a000021 	beq	1611998 <hexdump+0xa0>
 1611910:	e3500000 	cmp	r0, #0
 1611914:	e3023660 	movw	r3, #9824	; 0x2660
 1611918:	e3403161 	movt	r3, #353	; 0x161
 161191c:	01a00003 	moveq	r0, r3
 1611920:	e1a05001 	mov	r5, r1
 1611924:	e1a06002 	mov	r6, r2
 1611928:	ebffff7b 	bl	161171c <prints>
 161192c:	e302067c 	movw	r0, #9852	; 0x267c
 1611930:	e3400161 	movt	r0, #353	; 0x161
 1611934:	ebffff78 	bl	161171c <prints>
 1611938:	e1a00005 	mov	r0, r5
 161193c:	e3a01008 	mov	r1, #8
 1611940:	e2455001 	sub	r5, r5, #1
 1611944:	ebffffa6 	bl	16117e4 <print_val>
 1611948:	e3020684 	movw	r0, #9860	; 0x2684
 161194c:	e3400161 	movt	r0, #353	; 0x161
 1611950:	ebffff71 	bl	161171c <prints>
 1611954:	e3a01002 	mov	r1, #2
 1611958:	e5f50001 	ldrb	r0, [r5, #1]!
 161195c:	ebffffa0 	bl	16117e4 <print_val>
 1611960:	e204300f 	and	r3, r4, #15
 1611964:	e353000f 	cmp	r3, #15
 1611968:	e3020688 	movw	r0, #9864	; 0x2688
 161196c:	e3400161 	movt	r0, #353	; 0x161
 1611970:	03020584 	movweq	r0, #9604	; 0x2584
 1611974:	03400161 	movteq	r0, #353	; 0x161
 1611978:	e2844001 	add	r4, r4, #1
 161197c:	ebffff66 	bl	161171c <prints>
 1611980:	e1540006 	cmp	r4, r6
 1611984:	1afffff2 	bne	1611954 <hexdump+0x5c>
 1611988:	e3020584 	movw	r0, #9604	; 0x2584
 161198c:	e3400161 	movt	r0, #353	; 0x161
 1611990:	e8bd4070 	pop	{r4, r5, r6, lr}
 1611994:	eaffff60 	b	161171c <prints>
 1611998:	e3020674 	movw	r0, #9844	; 0x2674
 161199c:	e3400161 	movt	r0, #353	; 0x161
 16119a0:	e8bd4070 	pop	{r4, r5, r6, lr}
 16119a4:	eaffff5c 	b	161171c <prints>

016119a8 <memset>:
 16119a8:	e3520000 	cmp	r2, #0
 16119ac:	e6ef1071 	uxtb	r1, r1
 16119b0:	012fff1e 	bxeq	lr
 16119b4:	e0802002 	add	r2, r0, r2
 16119b8:	e1a03000 	mov	r3, r0
 16119bc:	e4c31001 	strb	r1, [r3], #1
 16119c0:	e1530002 	cmp	r3, r2
 16119c4:	1afffffc 	bne	16119bc <memset+0x14>
 16119c8:	e12fff1e 	bx	lr

016119cc <set_memory>:
 16119cc:	e3520000 	cmp	r2, #0
 16119d0:	012fff1e 	bxeq	lr
 16119d4:	e0802002 	add	r2, r0, r2
 16119d8:	e4c01001 	strb	r1, [r0], #1
 16119dc:	e1500002 	cmp	r0, r2
 16119e0:	1afffffc 	bne	16119d8 <set_memory+0xc>
 16119e4:	e12fff1e 	bx	lr

016119e8 <copy_memory>:
 16119e8:	e1813002 	orr	r3, r1, r2
 16119ec:	e24dd008 	sub	sp, sp, #8
 16119f0:	e1803003 	orr	r3, r0, r3
 16119f4:	e2133003 	ands	r3, r3, #3
 16119f8:	1a00000f 	bne	1611a3c <copy_memory+0x54>
 16119fc:	e58d3004 	str	r3, [sp, #4]
 1611a00:	e59d3004 	ldr	r3, [sp, #4]
 1611a04:	e1520003 	cmp	r2, r3
 1611a08:	9a000009 	bls	1611a34 <copy_memory+0x4c>
 1611a0c:	e59d3004 	ldr	r3, [sp, #4]
 1611a10:	e59dc004 	ldr	ip, [sp, #4]
 1611a14:	e791c00c 	ldr	ip, [r1, ip]
 1611a18:	e780c003 	str	ip, [r0, r3]
 1611a1c:	e59d3004 	ldr	r3, [sp, #4]
 1611a20:	e2833004 	add	r3, r3, #4
 1611a24:	e58d3004 	str	r3, [sp, #4]
 1611a28:	e59d3004 	ldr	r3, [sp, #4]
 1611a2c:	e1520003 	cmp	r2, r3
 1611a30:	8afffff5 	bhi	1611a0c <copy_memory+0x24>
 1611a34:	e28dd008 	add	sp, sp, #8
 1611a38:	e12fff1e 	bx	lr
 1611a3c:	e3a03000 	mov	r3, #0
 1611a40:	e58d3004 	str	r3, [sp, #4]
 1611a44:	e59d3004 	ldr	r3, [sp, #4]
 1611a48:	e1520003 	cmp	r2, r3
 1611a4c:	9afffff8 	bls	1611a34 <copy_memory+0x4c>
 1611a50:	e59dc004 	ldr	ip, [sp, #4]
 1611a54:	e59d3004 	ldr	r3, [sp, #4]
 1611a58:	e7d13003 	ldrb	r3, [r1, r3]
 1611a5c:	e6ef3073 	uxtb	r3, r3
 1611a60:	e7c0300c 	strb	r3, [r0, ip]
 1611a64:	e59d3004 	ldr	r3, [sp, #4]
 1611a68:	e2833001 	add	r3, r3, #1
 1611a6c:	e58d3004 	str	r3, [sp, #4]
 1611a70:	e59d3004 	ldr	r3, [sp, #4]
 1611a74:	e1520003 	cmp	r2, r3
 1611a78:	8afffff4 	bhi	1611a50 <copy_memory+0x68>
 1611a7c:	e28dd008 	add	sp, sp, #8
 1611a80:	e12fff1e 	bx	lr

01611a84 <compare_memory>:
 1611a84:	e3520000 	cmp	r2, #0
 1611a88:	0a000011 	beq	1611ad4 <compare_memory+0x50>
 1611a8c:	e52de004 	push	{lr}		; (str lr, [sp, #-4]!)
 1611a90:	e5d1e000 	ldrb	lr, [r1]
 1611a94:	e5d0c000 	ldrb	ip, [r0]
 1611a98:	e15c000e 	cmp	ip, lr
 1611a9c:	00802002 	addeq	r2, r0, r2
 1611aa0:	02803001 	addeq	r3, r0, #1
 1611aa4:	0a000004 	beq	1611abc <compare_memory+0x38>
 1611aa8:	ea000007 	b	1611acc <compare_memory+0x48>
 1611aac:	e4d3c001 	ldrb	ip, [r3], #1
 1611ab0:	e5f1e001 	ldrb	lr, [r1, #1]!
 1611ab4:	e15c000e 	cmp	ip, lr
 1611ab8:	1a000003 	bne	1611acc <compare_memory+0x48>
 1611abc:	e1530002 	cmp	r3, r2
 1611ac0:	1afffff9 	bne	1611aac <compare_memory+0x28>
 1611ac4:	e3a00000 	mov	r0, #0
 1611ac8:	e49df004 	pop	{pc}		; (ldr pc, [sp], #4)
 1611acc:	e06e000c 	rsb	r0, lr, ip
 1611ad0:	e49df004 	pop	{pc}		; (ldr pc, [sp], #4)
 1611ad4:	e1a00002 	mov	r0, r2
 1611ad8:	e12fff1e 	bx	lr

01611adc <compare_str>:
 1611adc:	e5d03000 	ldrb	r3, [r0]
 1611ae0:	e3530000 	cmp	r3, #0
 1611ae4:	0a000009 	beq	1611b10 <compare_str+0x34>
 1611ae8:	e5d12000 	ldrb	r2, [r1]
 1611aec:	e1530002 	cmp	r3, r2
 1611af0:	0a000003 	beq	1611b04 <compare_str+0x28>
 1611af4:	ea000007 	b	1611b18 <compare_str+0x3c>
 1611af8:	e5f12001 	ldrb	r2, [r1, #1]!
 1611afc:	e1530002 	cmp	r3, r2
 1611b00:	1a000004 	bne	1611b18 <compare_str+0x3c>
 1611b04:	e5f03001 	ldrb	r3, [r0, #1]!
 1611b08:	e3530000 	cmp	r3, #0
 1611b0c:	1afffff9 	bne	1611af8 <compare_str+0x1c>
 1611b10:	e1a00003 	mov	r0, r3
 1611b14:	e12fff1e 	bx	lr
 1611b18:	e0620003 	rsb	r0, r2, r3
 1611b1c:	e12fff1e 	bx	lr

01611b20 <watchdog_reset>:
 1611b20:	e3a03a0b 	mov	r3, #45056	; 0xb000
 1611b24:	e3493801 	movt	r3, #38913	; 0x9801
 1611b28:	e3a02000 	mov	r2, #0
 1611b2c:	e3a000a5 	mov	r0, #165	; 0xa5
 1611b30:	e3a01001 	mov	r1, #1
 1611b34:	e58305b0 	str	r0, [r3, #1456]	; 0x5b0
 1611b38:	e58315b4 	str	r1, [r3, #1460]	; 0x5b4
 1611b3c:	e58325bc 	str	r2, [r3, #1468]	; 0x5bc
 1611b40:	e58325b0 	str	r2, [r3, #1456]	; 0x5b0
 1611b44:	e12fff1e 	bx	lr

01611b48 <__div0>:
 1611b48:	e12fff1e 	bx	lr

01611b4c <e_buffer>:
 1611b4c:	e92d4ff0 	push	{r4, r5, r6, r7, r8, r9, sl, fp, lr}
 1611b50:	e1a0b003 	mov	fp, r3
 1611b54:	e24dd054 	sub	sp, sp, #84	; 0x54
 1611b58:	e59d7080 	ldr	r7, [sp, #128]	; 0x80
 1611b5c:	e88d0003 	stm	sp, {r0, r1}
 1611b60:	e59da078 	ldr	sl, [sp, #120]	; 0x78
 1611b64:	e0020793 	mul	r2, r3, r7
 1611b68:	e3520040 	cmp	r2, #64	; 0x40
 1611b6c:	83a07040 	movhi	r7, #64	; 0x40
 1611b70:	8737f317 	udivhi	r7, r7, r3
 1611b74:	e3570000 	cmp	r7, #0
 1611b78:	03a07010 	moveq	r7, #16
 1611b7c:	0737f317 	udiveq	r7, r7, r3
 1611b80:	e35a0000 	cmp	sl, #0
 1611b84:	11a0908b 	lslne	r9, fp, #1
 1611b88:	0a00005c 	beq	1611d00 <e_buffer+0x1b4>
 1611b8c:	e302069c 	movw	r0, #9884	; 0x269c
 1611b90:	e3400161 	movt	r0, #353	; 0x161
 1611b94:	e59d1000 	ldr	r1, [sp]
 1611b98:	ebfff9ce 	bl	16102d8 <printf>
 1611b9c:	e157000a 	cmp	r7, sl
 1611ba0:	21a0700a 	movcs	r7, sl
 1611ba4:	e59d3000 	ldr	r3, [sp]
 1611ba8:	e3570000 	cmp	r7, #0
 1611bac:	e283831a 	add	r8, r3, #1744830464	; 0x68000000
 1611bb0:	01a04007 	moveq	r4, r7
 1611bb4:	02488a17 	subeq	r8, r8, #94208	; 0x17000
 1611bb8:	01a0e007 	moveq	lr, r7
 1611bbc:	0a00003c 	beq	1611cb4 <e_buffer+0x168>
 1611bc0:	e59d6004 	ldr	r6, [sp, #4]
 1611bc4:	e2488a17 	sub	r8, r8, #94208	; 0x17000
 1611bc8:	e3a05000 	mov	r5, #0
 1611bcc:	e28d400c 	add	r4, sp, #12
 1611bd0:	ea000004 	b	1611be8 <e_buffer+0x9c>
 1611bd4:	e2855001 	add	r5, r5, #1
 1611bd8:	ebfff9be 	bl	16102d8 <printf>
 1611bdc:	e1550007 	cmp	r5, r7
 1611be0:	e086600b 	add	r6, r6, fp
 1611be4:	0a000017 	beq	1611c48 <e_buffer+0xfc>
 1611be8:	e35b0004 	cmp	fp, #4
 1611bec:	05962000 	ldreq	r2, [r6]
 1611bf0:	07842105 	streq	r2, [r4, r5, lsl #2]
 1611bf4:	0a000007 	beq	1611c18 <e_buffer+0xcc>
 1611bf8:	e35b0002 	cmp	fp, #2
 1611bfc:	01a03085 	lsleq	r3, r5, #1
 1611c00:	01d620b0 	ldrheq	r2, [r6]
 1611c04:	15d62000 	ldrbne	r2, [r6]
 1611c08:	06ff2072 	uxtheq	r2, r2
 1611c0c:	018420b3 	strheq	r2, [r4, r3]
 1611c10:	16ef2072 	uxtbne	r2, r2
 1611c14:	17c42005 	strbne	r2, [r4, r5]
 1611c18:	e3580b01 	cmp	r8, #1024	; 0x400
 1611c1c:	e30206a8 	movw	r0, #9896	; 0x26a8
 1611c20:	e3400161 	movt	r0, #353	; 0x161
 1611c24:	e1a01009 	mov	r1, r9
 1611c28:	2affffe9 	bcs	1611bd4 <e_buffer+0x88>
 1611c2c:	e30206b0 	movw	r0, #9904	; 0x26b0
 1611c30:	e3400161 	movt	r0, #353	; 0x161
 1611c34:	e2855001 	add	r5, r5, #1
 1611c38:	ebfff9a6 	bl	16102d8 <printf>
 1611c3c:	e1550007 	cmp	r5, r7
 1611c40:	e086600b 	add	r6, r6, fp
 1611c44:	1affffe7 	bne	1611be8 <e_buffer+0x9c>
 1611c48:	e00e079b 	mul	lr, fp, r7
 1611c4c:	e59d3004 	ldr	r3, [sp, #4]
 1611c50:	e35e0000 	cmp	lr, #0
 1611c54:	01a0400e 	moveq	r4, lr
 1611c58:	e083300e 	add	r3, r3, lr
 1611c5c:	01a0e004 	moveq	lr, r4
 1611c60:	e58d3004 	str	r3, [sp, #4]
 1611c64:	0a000012 	beq	1611cb4 <e_buffer+0x168>
 1611c68:	e24e2001 	sub	r2, lr, #1
 1611c6c:	e302c41c 	movw	ip, #9244	; 0x241c
 1611c70:	e340c161 	movt	ip, #353	; 0x161
 1611c74:	e0844002 	add	r4, r4, r2
 1611c78:	e3a0502e 	mov	r5, #46	; 0x2e
 1611c7c:	e28d200b 	add	r2, sp, #11
 1611c80:	ea000003 	b	1611c94 <e_buffer+0x148>
 1611c84:	e3130080 	tst	r3, #128	; 0x80
 1611c88:	1a000005 	bne	1611ca4 <e_buffer+0x158>
 1611c8c:	e1520004 	cmp	r2, r4
 1611c90:	0a000006 	beq	1611cb0 <e_buffer+0x164>
 1611c94:	e5f23001 	ldrb	r3, [r2, #1]!
 1611c98:	e7dc1003 	ldrb	r1, [ip, r3]
 1611c9c:	e3110097 	tst	r1, #151	; 0x97
 1611ca0:	1afffff7 	bne	1611c84 <e_buffer+0x138>
 1611ca4:	e1520004 	cmp	r2, r4
 1611ca8:	e5c25000 	strb	r5, [r2]
 1611cac:	1afffff8 	bne	1611c94 <e_buffer+0x148>
 1611cb0:	e1a0400e 	mov	r4, lr
 1611cb4:	e28d3050 	add	r3, sp, #80	; 0x50
 1611cb8:	e3580b01 	cmp	r8, #1024	; 0x400
 1611cbc:	e083e00e 	add	lr, r3, lr
 1611cc0:	e3a02000 	mov	r2, #0
 1611cc4:	e54e2044 	strb	r2, [lr, #-68]	; 0x44
 1611cc8:	3a00000f 	bcc	1611d0c <e_buffer+0x1c0>
 1611ccc:	e30206b4 	movw	r0, #9908	; 0x26b4
 1611cd0:	e3400161 	movt	r0, #353	; 0x161
 1611cd4:	e28d100c 	add	r1, sp, #12
 1611cd8:	ebfff97e 	bl	16102d8 <printf>
 1611cdc:	ebfff97b 	bl	16102d0 <ctrlc>
 1611ce0:	e59d3000 	ldr	r3, [sp]
 1611ce4:	e3500000 	cmp	r0, #0
 1611ce8:	e067a00a 	rsb	sl, r7, sl
 1611cec:	e0833004 	add	r3, r3, r4
 1611cf0:	e58d3000 	str	r3, [sp]
 1611cf4:	1a000008 	bne	1611d1c <e_buffer+0x1d0>
 1611cf8:	e35a0000 	cmp	sl, #0
 1611cfc:	1affffa2 	bne	1611b8c <e_buffer+0x40>
 1611d00:	e3a00000 	mov	r0, #0
 1611d04:	e28dd054 	add	sp, sp, #84	; 0x54
 1611d08:	e8bd8ff0 	pop	{r4, r5, r6, r7, r8, r9, sl, fp, pc}
 1611d0c:	e30206c0 	movw	r0, #9920	; 0x26c0
 1611d10:	e3400161 	movt	r0, #353	; 0x161
 1611d14:	ebfff96f 	bl	16102d8 <printf>
 1611d18:	eaffffef 	b	1611cdc <e_buffer+0x190>
 1611d1c:	e3e00000 	mvn	r0, #0
 1611d20:	e28dd054 	add	sp, sp, #84	; 0x54
 1611d24:	e8bd8ff0 	pop	{r4, r5, r6, r7, r8, r9, sl, fp, pc}

01611d28 <read_efuse>:
 1611d28:	e92d41f0 	push	{r4, r5, r6, r7, r8, lr}
 1611d2c:	e3022ad4 	movw	r2, #10964	; 0x2ad4
 1611d30:	e3402162 	movt	r2, #354	; 0x162
 1611d34:	e59f4094 	ldr	r4, [pc, #148]	; 1611dd0 <read_efuse+0xa8>
 1611d38:	e3a01010 	mov	r1, #16
 1611d3c:	e2820010 	add	r0, r2, #16
 1611d40:	e3a03000 	mov	r3, #0
 1611d44:	e0847001 	add	r7, r4, r1
 1611d48:	e2445010 	sub	r5, r4, #16
 1611d4c:	ebfffc67 	bl	1610ef0 <AES_ECB_encrypt>
 1611d50:	e1a01000 	mov	r1, r0
 1611d54:	e30206c8 	movw	r0, #9928	; 0x26c8
 1611d58:	e3400161 	movt	r0, #353	; 0x161
 1611d5c:	e1a06005 	mov	r6, r5
 1611d60:	ebfff95c 	bl	16102d8 <printf>
 1611d64:	e5f41001 	ldrb	r1, [r4, #1]!
 1611d68:	e30206d0 	movw	r0, #9936	; 0x26d0
 1611d6c:	e3400161 	movt	r0, #353	; 0x161
 1611d70:	e5f62001 	ldrb	r2, [r6, #1]!
 1611d74:	ebfff957 	bl	16102d8 <printf>
 1611d78:	e1540007 	cmp	r4, r7
 1611d7c:	1afffff8 	bne	1611d64 <read_efuse+0x3c>
 1611d80:	e59f204c 	ldr	r2, [pc, #76]	; 1611dd4 <read_efuse+0xac>
 1611d84:	e3a01010 	mov	r1, #16
 1611d88:	e3a03000 	mov	r3, #0
 1611d8c:	e2420020 	sub	r0, r2, #32
 1611d90:	e2424001 	sub	r4, r2, #1
 1611d94:	ebfffc30 	bl	1610e5c <AES_ECB_decrypt>
 1611d98:	e1a01000 	mov	r1, r0
 1611d9c:	e30206c8 	movw	r0, #9928	; 0x26c8
 1611da0:	e3400161 	movt	r0, #353	; 0x161
 1611da4:	e2446010 	sub	r6, r4, #16
 1611da8:	ebfff94a 	bl	16102d8 <printf>
 1611dac:	e5f51001 	ldrb	r1, [r5, #1]!
 1611db0:	e30206ec 	movw	r0, #9964	; 0x26ec
 1611db4:	e3400161 	movt	r0, #353	; 0x161
 1611db8:	e5f42001 	ldrb	r2, [r4, #1]!
 1611dbc:	ebfff945 	bl	16102d8 <printf>
 1611dc0:	e1550006 	cmp	r5, r6
 1611dc4:	1afffff8 	bne	1611dac <read_efuse+0x84>
 1611dc8:	e3a00000 	mov	r0, #0
 1611dcc:	e8bd81f0 	pop	{r4, r5, r6, r7, r8, pc}
 1611dd0:	01622ae3 	cmneq	r2, r3, ror #21
 1611dd4:	01622af4 	strdeq	r2, [r2, #-164]!	; 0xffffff5c

01611dd8 <OTP_JUDGE_BIT>:
 1611dd8:	e2002007 	and	r2, r0, #7
 1611ddc:	e1a001a0 	lsr	r0, r0, #3
 1611de0:	e3c03003 	bic	r3, r0, #3
 1611de4:	e2000003 	and	r0, r0, #3
 1611de8:	e2833326 	add	r3, r3, #-1744830464	; 0x98000000
 1611dec:	e2833a17 	add	r3, r3, #94208	; 0x17000
 1611df0:	e1a00180 	lsl	r0, r0, #3
 1611df4:	e5933000 	ldr	r3, [r3]
 1611df8:	e1a00033 	lsr	r0, r3, r0
 1611dfc:	e1a00230 	lsr	r0, r0, r2
 1611e00:	e2000001 	and	r0, r0, #1
 1611e04:	e12fff1e 	bx	lr

01611e08 <do_burn_efuse_getmptest2>:
 1611e08:	e92d4010 	push	{r4, lr}
 1611e0c:	e3001e0a 	movw	r1, #3594	; 0xe0a
 1611e10:	e3020708 	movw	r0, #9992	; 0x2708
 1611e14:	e3400161 	movt	r0, #353	; 0x161
 1611e18:	ebfff92e 	bl	16102d8 <printf>
 1611e1c:	e3000e0a 	movw	r0, #3594	; 0xe0a
 1611e20:	ebffffec 	bl	1611dd8 <OTP_JUDGE_BIT>
 1611e24:	e3500000 	cmp	r0, #0
 1611e28:	13020740 	movwne	r0, #10048	; 0x2740
 1611e2c:	0302073c 	movweq	r0, #10044	; 0x273c
 1611e30:	13400161 	movtne	r0, #353	; 0x161
 1611e34:	03400161 	movteq	r0, #353	; 0x161
 1611e38:	ebfff926 	bl	16102d8 <printf>
 1611e3c:	e3a00000 	mov	r0, #0
 1611e40:	e8bd8010 	pop	{r4, pc}

01611e44 <OTP_Program_Start>:
 1611e44:	e12fff1e 	bx	lr

01611e48 <OTP_Program_End>:
 1611e48:	e3a03a07 	mov	r3, #28672	; 0x7000
 1611e4c:	e3493801 	movt	r3, #38913	; 0x9801
 1611e50:	e92d4010 	push	{r4, lr}
 1611e54:	e5931400 	ldr	r1, [r3, #1024]	; 0x400
 1611e58:	e3a00005 	mov	r0, #5
 1611e5c:	e3a02a0a 	mov	r2, #40960	; 0xa000
 1611e60:	e3402080 	movt	r2, #128	; 0x80
 1611e64:	e5832400 	str	r2, [r3, #1024]	; 0x400
 1611e68:	ebfffdef 	bl	161162c <udelay>
 1611e6c:	e302168c 	movw	r1, #9868	; 0x268c
 1611e70:	e3401161 	movt	r1, #353	; 0x161
 1611e74:	e3020748 	movw	r0, #10056	; 0x2748
 1611e78:	e3400161 	movt	r0, #353	; 0x161
 1611e7c:	ebfff915 	bl	16102d8 <printf>
 1611e80:	e3a00000 	mov	r0, #0
 1611e84:	e8bd8010 	pop	{r4, pc}

01611e88 <start_program>:
 1611e88:	e92d41f0 	push	{r4, r5, r6, r7, r8, lr}
 1611e8c:	e1a07001 	mov	r7, r1
 1611e90:	e1a04000 	mov	r4, r0
 1611e94:	e3020754 	movw	r0, #10068	; 0x2754
 1611e98:	e3400161 	movt	r0, #353	; 0x161
 1611e9c:	e1a08002 	mov	r8, r2
 1611ea0:	ebfff90c 	bl	16102d8 <printf>
 1611ea4:	e1a02007 	mov	r2, r7
 1611ea8:	e1a01004 	mov	r1, r4
 1611eac:	e302076c 	movw	r0, #10092	; 0x276c
 1611eb0:	e3400161 	movt	r0, #353	; 0x161
 1611eb4:	ebfff907 	bl	16102d8 <printf>
 1611eb8:	e3a00efe 	mov	r0, #4064	; 0xfe0
 1611ebc:	ebffffc5 	bl	1611dd8 <OTP_JUDGE_BIT>
 1611ec0:	e1b07187 	lsls	r7, r7, #3
 1611ec4:	13a05000 	movne	r5, #0
 1611ec8:	11a04005 	movne	r4, r5
 1611ecc:	1a00000c 	bne	1611f04 <start_program+0x7c>
 1611ed0:	ea000012 	b	1611f20 <start_program+0x98>
 1611ed4:	e7d83005 	ldrb	r3, [r8, r5]
 1611ed8:	e30207b4 	movw	r0, #10164	; 0x27b4
 1611edc:	e3400161 	movt	r0, #353	; 0x161
 1611ee0:	e2844001 	add	r4, r4, #1
 1611ee4:	e1a03653 	asr	r3, r3, r6
 1611ee8:	e3130001 	tst	r3, #1
 1611eec:	e1a051a4 	lsr	r5, r4, #3
 1611ef0:	130207b0 	movwne	r0, #10160	; 0x27b0
 1611ef4:	13400161 	movtne	r0, #353	; 0x161
 1611ef8:	ebfff8f6 	bl	16102d8 <printf>
 1611efc:	e1540007 	cmp	r4, r7
 1611f00:	0a000006 	beq	1611f20 <start_program+0x98>
 1611f04:	e2146007 	ands	r6, r4, #7
 1611f08:	1afffff1 	bne	1611ed4 <start_program+0x4c>
 1611f0c:	e30207a4 	movw	r0, #10148	; 0x27a4
 1611f10:	e3400161 	movt	r0, #353	; 0x161
 1611f14:	e1a01005 	mov	r1, r5
 1611f18:	ebfff8ee 	bl	16102d8 <printf>
 1611f1c:	eaffffec 	b	1611ed4 <start_program+0x4c>
 1611f20:	ebffffc8 	bl	1611e48 <OTP_Program_End>
 1611f24:	e302078c 	movw	r0, #10124	; 0x278c
 1611f28:	e3400161 	movt	r0, #353	; 0x161
 1611f2c:	e8bd41f0 	pop	{r4, r5, r6, r7, r8, lr}
 1611f30:	eafff8e8 	b	16102d8 <printf>

01611f34 <do_burn_efuse_rsa>:
 1611f34:	e92d4010 	push	{r4, lr}
 1611f38:	e3024ad4 	movw	r4, #10964	; 0x2ad4
 1611f3c:	e3404162 	movt	r4, #354	; 0x162
 1611f40:	e30207b8 	movw	r0, #10168	; 0x27b8
 1611f44:	e3400161 	movt	r0, #353	; 0x161
 1611f48:	e5b41030 	ldr	r1, [r4, #48]!	; 0x30
 1611f4c:	ebfff8e1 	bl	16102d8 <printf>
 1611f50:	e3a01c01 	mov	r1, #256	; 0x100
 1611f54:	e1a02004 	mov	r2, r4
 1611f58:	e3a00000 	mov	r0, #0
 1611f5c:	ebffffc9 	bl	1611e88 <start_program>
 1611f60:	e3a00000 	mov	r0, #0
 1611f64:	e8bd8010 	pop	{r4, pc}

01611f68 <burn_id_test>:
 1611f68:	e92d4010 	push	{r4, lr}
 1611f6c:	e300cff8 	movw	ip, #4088	; 0xff8
 1611f70:	e240ea01 	sub	lr, r0, #4096	; 0x1000
 1611f74:	e15e000c 	cmp	lr, ip
 1611f78:	8a00000d 	bhi	1611fb4 <burn_id_test+0x4c>
 1611f7c:	e0803001 	add	r3, r0, r1
 1611f80:	e301cff8 	movw	ip, #8184	; 0x1ff8
 1611f84:	e153000c 	cmp	r3, ip
 1611f88:	e1a04001 	mov	r4, r1
 1611f8c:	8a000002 	bhi	1611f9c <burn_id_test+0x34>
 1611f90:	ebffffbc 	bl	1611e88 <start_program>
 1611f94:	e3a00000 	mov	r0, #0
 1611f98:	e8bd8010 	pop	{r4, pc}
 1611f9c:	e1a01003 	mov	r1, r3
 1611fa0:	e30207f0 	movw	r0, #10224	; 0x27f0
 1611fa4:	e3400161 	movt	r0, #353	; 0x161
 1611fa8:	ebfff8ca 	bl	16102d8 <printf>
 1611fac:	e3a00001 	mov	r0, #1
 1611fb0:	e8bd8010 	pop	{r4, pc}
 1611fb4:	e1a01000 	mov	r1, r0
 1611fb8:	e30207c8 	movw	r0, #10184	; 0x27c8
 1611fbc:	e3400161 	movt	r0, #353	; 0x161
 1611fc0:	ebfff8c4 	bl	16102d8 <printf>
 1611fc4:	e3a00001 	mov	r0, #1
 1611fc8:	e8bd8010 	pop	{r4, pc}

01611fcc <do_burn_efuse_aes>:
 1611fcc:	e3500001 	cmp	r0, #1
 1611fd0:	e92d4010 	push	{r4, lr}
 1611fd4:	0a00000e 	beq	1612014 <do_burn_efuse_aes+0x48>
 1611fd8:	3a000007 	bcc	1611ffc <do_burn_efuse_aes+0x30>
 1611fdc:	e3500002 	cmp	r0, #2
 1611fe0:	1a000003 	bne	1611ff4 <do_burn_efuse_aes+0x28>
 1611fe4:	e59f2040 	ldr	r2, [pc, #64]	; 161202c <do_burn_efuse_aes+0x60>
 1611fe8:	e3a01010 	mov	r1, #16
 1611fec:	e3a00c0a 	mov	r0, #2560	; 0xa00
 1611ff0:	ebffffa4 	bl	1611e88 <start_program>
 1611ff4:	e3a00000 	mov	r0, #0
 1611ff8:	e8bd8010 	pop	{r4, pc}
 1611ffc:	e59f202c 	ldr	r2, [pc, #44]	; 1612030 <do_burn_efuse_aes+0x64>
 1612000:	e3a01010 	mov	r1, #16
 1612004:	e3a00b02 	mov	r0, #2048	; 0x800
 1612008:	ebffff9e 	bl	1611e88 <start_program>
 161200c:	e3a00000 	mov	r0, #0
 1612010:	e8bd8010 	pop	{r4, pc}
 1612014:	e59f2018 	ldr	r2, [pc, #24]	; 1612034 <do_burn_efuse_aes+0x68>
 1612018:	e3a01010 	mov	r1, #16
 161201c:	e3a00c09 	mov	r0, #2304	; 0x900
 1612020:	ebffff98 	bl	1611e88 <start_program>
 1612024:	e3a00000 	mov	r0, #0
 1612028:	e8bd8010 	pop	{r4, pc}
 161202c:	01622c24 	cmneq	r2, r4, lsr #24
 1612030:	01622c04 	cmneq	r2, r4, lsl #24
 1612034:	01622c14 	cmneq	r2, r4, lsl ip

01612038 <do_burn_efuse_deviceID>:
 1612038:	e92d4010 	push	{r4, lr}
 161203c:	e59f2010 	ldr	r2, [pc, #16]	; 1612054 <do_burn_efuse_deviceID+0x1c>
 1612040:	e3a01010 	mov	r1, #16
 1612044:	e3a00ed2 	mov	r0, #3360	; 0xd20
 1612048:	ebffff8e 	bl	1611e88 <start_program>
 161204c:	e3a00000 	mov	r0, #0
 1612050:	e8bd8010 	pop	{r4, pc}
 1612054:	01622c34 	cmneq	r2, r4, lsr ip

01612058 <do_burn_efuse_secureboot>:
 1612058:	e92d4010 	push	{r4, lr}
 161205c:	e3001da6 	movw	r1, #3494	; 0xda6
 1612060:	e3020818 	movw	r0, #10264	; 0x2818
 1612064:	e3400161 	movt	r0, #353	; 0x161
 1612068:	ebfff89a 	bl	16102d8 <printf>
 161206c:	e3a00efe 	mov	r0, #4064	; 0xfe0
 1612070:	ebffff58 	bl	1611dd8 <OTP_JUDGE_BIT>
 1612074:	ebffff73 	bl	1611e48 <OTP_Program_End>
 1612078:	e3a00000 	mov	r0, #0
 161207c:	e8bd8010 	pop	{r4, pc}

01612080 <do_burn_efuse_bootenc>:
 1612080:	e92d4010 	push	{r4, lr}
 1612084:	e3001dbb 	movw	r1, #3515	; 0xdbb
 1612088:	e302083c 	movw	r0, #10300	; 0x283c
 161208c:	e3400161 	movt	r0, #353	; 0x161
 1612090:	ebfff890 	bl	16102d8 <printf>
 1612094:	e3a00efe 	mov	r0, #4064	; 0xfe0
 1612098:	ebffff4e 	bl	1611dd8 <OTP_JUDGE_BIT>
 161209c:	ebffff69 	bl	1611e48 <OTP_Program_End>
 16120a0:	e3a00000 	mov	r0, #0
 16120a4:	e8bd8010 	pop	{r4, pc}

016120a8 <do_burn_efuse_loadsos>:
 16120a8:	e92d4010 	push	{r4, lr}
 16120ac:	e3001e0e 	movw	r1, #3598	; 0xe0e
 16120b0:	e3020860 	movw	r0, #10336	; 0x2860
 16120b4:	e3400161 	movt	r0, #353	; 0x161
 16120b8:	ebfff886 	bl	16102d8 <printf>
 16120bc:	e3a00efe 	mov	r0, #4064	; 0xfe0
 16120c0:	ebffff44 	bl	1611dd8 <OTP_JUDGE_BIT>
 16120c4:	ebffff5f 	bl	1611e48 <OTP_Program_End>
 16120c8:	e3a00000 	mov	r0, #0
 16120cc:	e8bd8010 	pop	{r4, pc}

016120d0 <do_burn_efuse_disonecore>:
 16120d0:	e92d4010 	push	{r4, lr}
 16120d4:	e3001e0f 	movw	r1, #3599	; 0xe0f
 16120d8:	e3020884 	movw	r0, #10372	; 0x2884
 16120dc:	e3400161 	movt	r0, #353	; 0x161
 16120e0:	ebfff87c 	bl	16102d8 <printf>
 16120e4:	e3a00efe 	mov	r0, #4064	; 0xfe0
 16120e8:	ebffff3a 	bl	1611dd8 <OTP_JUDGE_BIT>
 16120ec:	ebffff55 	bl	1611e48 <OTP_Program_End>
 16120f0:	e3a00000 	mov	r0, #0
 16120f4:	e8bd8010 	pop	{r4, pc}

016120f8 <do_burn_efuse_usb2sram>:
 16120f8:	e92d4010 	push	{r4, lr}
 16120fc:	e3001dc2 	movw	r1, #3522	; 0xdc2
 1612100:	e30208ac 	movw	r0, #10412	; 0x28ac
 1612104:	e3400161 	movt	r0, #353	; 0x161
 1612108:	ebfff872 	bl	16102d8 <printf>
 161210c:	e3a00efe 	mov	r0, #4064	; 0xfe0
 1612110:	ebffff30 	bl	1611dd8 <OTP_JUDGE_BIT>
 1612114:	ebffff4b 	bl	1611e48 <OTP_Program_End>
 1612118:	e3a00000 	mov	r0, #0
 161211c:	e8bd8010 	pop	{r4, pc}

01612120 <do_burn_efuse_mptest2>:
 1612120:	e92d4010 	push	{r4, lr}
 1612124:	e3001e0a 	movw	r1, #3594	; 0xe0a
 1612128:	e30208d0 	movw	r0, #10448	; 0x28d0
 161212c:	e3400161 	movt	r0, #353	; 0x161
 1612130:	ebfff868 	bl	16102d8 <printf>
 1612134:	e3a00efe 	mov	r0, #4064	; 0xfe0
 1612138:	ebffff26 	bl	1611dd8 <OTP_JUDGE_BIT>
 161213c:	ebffff41 	bl	1611e48 <OTP_Program_End>
 1612140:	e3a00000 	mov	r0, #0
 1612144:	e8bd8010 	pop	{r4, pc}

01612148 <do_burn_efuse_keysel>:
 1612148:	e2403001 	sub	r3, r0, #1
 161214c:	e3530002 	cmp	r3, #2
 1612150:	e92d4010 	push	{r4, lr}
 1612154:	e1a04000 	mov	r4, r0
 1612158:	8a000008 	bhi	1612180 <do_burn_efuse_keysel+0x38>
 161215c:	e3a00efe 	mov	r0, #4064	; 0xfe0
 1612160:	ebffff1c 	bl	1611dd8 <OTP_JUDGE_BIT>
 1612164:	e3140001 	tst	r4, #1
 1612168:	1a00000e 	bne	16121a8 <do_burn_efuse_keysel+0x60>
 161216c:	e3140002 	tst	r4, #2
 1612170:	1a000007 	bne	1612194 <do_burn_efuse_keysel+0x4c>
 1612174:	ebffff33 	bl	1611e48 <OTP_Program_End>
 1612178:	e3a00000 	mov	r0, #0
 161217c:	e8bd8010 	pop	{r4, pc}
 1612180:	e3020900 	movw	r0, #10496	; 0x2900
 1612184:	e3400161 	movt	r0, #353	; 0x161
 1612188:	ebfff852 	bl	16102d8 <printf>
 161218c:	e3a00001 	mov	r0, #1
 1612190:	e8bd8010 	pop	{r4, pc}
 1612194:	e302093c 	movw	r0, #10556	; 0x293c
 1612198:	e3400161 	movt	r0, #353	; 0x161
 161219c:	e3001da1 	movw	r1, #3489	; 0xda1
 16121a0:	ebfff84c 	bl	16102d8 <printf>
 16121a4:	eafffff2 	b	1612174 <do_burn_efuse_keysel+0x2c>
 16121a8:	e3020918 	movw	r0, #10520	; 0x2918
 16121ac:	e3400161 	movt	r0, #353	; 0x161
 16121b0:	e3a01eda 	mov	r1, #3488	; 0xda0
 16121b4:	ebfff847 	bl	16102d8 <printf>
 16121b8:	e3140002 	tst	r4, #2
 16121bc:	0affffec 	beq	1612174 <do_burn_efuse_keysel+0x2c>
 16121c0:	eafffff3 	b	1612194 <do_burn_efuse_keysel+0x4c>

016121c4 <do_burn_efuse_hwchk>:
 16121c4:	e2403001 	sub	r3, r0, #1
 16121c8:	e3530002 	cmp	r3, #2
 16121cc:	e92d4010 	push	{r4, lr}
 16121d0:	e1a04000 	mov	r4, r0
 16121d4:	8a000008 	bhi	16121fc <do_burn_efuse_hwchk+0x38>
 16121d8:	e3a00efe 	mov	r0, #4064	; 0xfe0
 16121dc:	ebfffefd 	bl	1611dd8 <OTP_JUDGE_BIT>
 16121e0:	e3140001 	tst	r4, #1
 16121e4:	1a00000e 	bne	1612224 <do_burn_efuse_hwchk+0x60>
 16121e8:	e3140002 	tst	r4, #2
 16121ec:	1a000007 	bne	1612210 <do_burn_efuse_hwchk+0x4c>
 16121f0:	ebffff14 	bl	1611e48 <OTP_Program_End>
 16121f4:	e3a00000 	mov	r0, #0
 16121f8:	e8bd8010 	pop	{r4, pc}
 16121fc:	e3020960 	movw	r0, #10592	; 0x2960
 1612200:	e3400161 	movt	r0, #353	; 0x161
 1612204:	ebfff833 	bl	16102d8 <printf>
 1612208:	e3a00001 	mov	r0, #1
 161220c:	e8bd8010 	pop	{r4, pc}
 1612210:	e3020994 	movw	r0, #10644	; 0x2994
 1612214:	e3400161 	movt	r0, #353	; 0x161
 1612218:	e3001e0c 	movw	r1, #3596	; 0xe0c
 161221c:	ebfff82d 	bl	16102d8 <printf>
 1612220:	eafffff2 	b	16121f0 <do_burn_efuse_hwchk+0x2c>
 1612224:	e3020974 	movw	r0, #10612	; 0x2974
 1612228:	e3400161 	movt	r0, #353	; 0x161
 161222c:	e3001e0b 	movw	r1, #3595	; 0xe0b
 1612230:	ebfff828 	bl	16102d8 <printf>
 1612234:	e3140002 	tst	r4, #2
 1612238:	0affffec 	beq	16121f0 <do_burn_efuse_hwchk+0x2c>
 161223c:	eafffff3 	b	1612210 <do_burn_efuse_hwchk+0x4c>

01612240 <do_burn_efuse_all>:
 1612240:	e92d4010 	push	{r4, lr}
 1612244:	e3024ad4 	movw	r4, #10964	; 0x2ad4
 1612248:	e3404162 	movt	r4, #354	; 0x162
 161224c:	e2842030 	add	r2, r4, #48	; 0x30
 1612250:	e3a01c01 	mov	r1, #256	; 0x100
 1612254:	e3a00000 	mov	r0, #0
 1612258:	ebffff0a 	bl	1611e88 <start_program>
 161225c:	e2842e13 	add	r2, r4, #304	; 0x130
 1612260:	e3a01010 	mov	r1, #16
 1612264:	e3a00b02 	mov	r0, #2048	; 0x800
 1612268:	ebffff06 	bl	1611e88 <start_program>
 161226c:	e2842d05 	add	r2, r4, #320	; 0x140
 1612270:	e3a01010 	mov	r1, #16
 1612274:	e3a00c09 	mov	r0, #2304	; 0x900
 1612278:	ebffff02 	bl	1611e88 <start_program>
 161227c:	e2842e15 	add	r2, r4, #336	; 0x150
 1612280:	e3a01010 	mov	r1, #16
 1612284:	e3a00c0a 	mov	r0, #2560	; 0xa00
 1612288:	ebfffefe 	bl	1611e88 <start_program>
 161228c:	e2842e16 	add	r2, r4, #352	; 0x160
 1612290:	e3a01010 	mov	r1, #16
 1612294:	e3a00ed2 	mov	r0, #3360	; 0xd20
 1612298:	ebfffefa 	bl	1611e88 <start_program>
 161229c:	ebffff6d 	bl	1612058 <do_burn_efuse_secureboot>
 16122a0:	ebffff76 	bl	1612080 <do_burn_efuse_bootenc>
 16122a4:	ebffff7f 	bl	16120a8 <do_burn_efuse_loadsos>
 16122a8:	ebffff88 	bl	16120d0 <do_burn_efuse_disonecore>
 16122ac:	ebffff91 	bl	16120f8 <do_burn_efuse_usb2sram>
 16122b0:	ebffff9a 	bl	1612120 <do_burn_efuse_mptest2>
 16122b4:	e3a00001 	mov	r0, #1
 16122b8:	ebffffa2 	bl	1612148 <do_burn_efuse_keysel>
 16122bc:	e3a00002 	mov	r0, #2
 16122c0:	ebffffa0 	bl	1612148 <do_burn_efuse_keysel>
 16122c4:	e3a00001 	mov	r0, #1
 16122c8:	ebffffbd 	bl	16121c4 <do_burn_efuse_hwchk>
 16122cc:	e3a00002 	mov	r0, #2
 16122d0:	ebffffbb 	bl	16121c4 <do_burn_efuse_hwchk>
 16122d4:	e3a00000 	mov	r0, #0
 16122d8:	e8bd8010 	pop	{r4, pc}

016122dc <OTP_Get_Word>:
 16122dc:	e3520000 	cmp	r2, #0
 16122e0:	e3c00003 	bic	r0, r0, #3
 16122e4:	0a00001a 	beq	1612354 <OTP_Get_Word+0x78>
 16122e8:	e280033e 	add	r0, r0, #-134217728	; 0xf8000000
 16122ec:	e30fcfff 	movw	ip, #65535	; 0xffff
 16122f0:	e340c006 	movt	ip, #6
 16122f4:	e52de004 	push	{lr}		; (str lr, [sp, #-4]!)
 16122f8:	e0812102 	add	r2, r1, r2, lsl #2
 16122fc:	e2800a17 	add	r0, r0, #94208	; 0x17000
 1612300:	ea000004 	b	1612318 <OTP_Get_Word+0x3c>
 1612304:	e5903000 	ldr	r3, [r0]
 1612308:	e2800004 	add	r0, r0, #4
 161230c:	e4813004 	str	r3, [r1], #4
 1612310:	e1510002 	cmp	r1, r2
 1612314:	0a00000c 	beq	161234c <OTP_Get_Word+0x70>
 1612318:	e280331a 	add	r3, r0, #1744830464	; 0x68000000
 161231c:	e153000c 	cmp	r3, ip
 1612320:	9afffff7 	bls	1612304 <OTP_Get_Word+0x28>
 1612324:	e2803467 	add	r3, r0, #1728053248	; 0x67000000
 1612328:	e280e20a 	add	lr, r0, #-1610612736	; 0xa0000000
 161232c:	e283360f 	add	r3, r3, #15728640	; 0xf00000
 1612330:	e3530402 	cmp	r3, #33554432	; 0x2000000
 1612334:	259e3000 	ldrcs	r3, [lr]
 1612338:	3afffff1 	bcc	1612304 <OTP_Get_Word+0x28>
 161233c:	e4813004 	str	r3, [r1], #4
 1612340:	e2800004 	add	r0, r0, #4
 1612344:	e1510002 	cmp	r1, r2
 1612348:	1afffff2 	bne	1612318 <OTP_Get_Word+0x3c>
 161234c:	e3a00000 	mov	r0, #0
 1612350:	e49df004 	pop	{pc}		; (ldr pc, [sp], #4)
 1612354:	e3a00000 	mov	r0, #0
 1612358:	e12fff1e 	bx	lr

0161235c <OTP_Get_Byte>:
 161235c:	e3520000 	cmp	r2, #0
 1612360:	e3c00003 	bic	r0, r0, #3
 1612364:	0a00000f 	beq	16123a8 <OTP_Get_Byte+0x4c>
 1612368:	e52de004 	push	{lr}		; (str lr, [sp, #-4]!)
 161236c:	e081e002 	add	lr, r1, r2
 1612370:	e1a031a0 	lsr	r3, r0, #3
 1612374:	e2800008 	add	r0, r0, #8
 1612378:	e3c3c003 	bic	ip, r3, #3
 161237c:	e2033003 	and	r3, r3, #3
 1612380:	e28cc326 	add	ip, ip, #-1744830464	; 0x98000000
 1612384:	e28cca17 	add	ip, ip, #94208	; 0x17000
 1612388:	e1a03183 	lsl	r3, r3, #3
 161238c:	e59cc000 	ldr	ip, [ip]
 1612390:	e1a0333c 	lsr	r3, ip, r3
 1612394:	e4c13001 	strb	r3, [r1], #1
 1612398:	e151000e 	cmp	r1, lr
 161239c:	1afffff3 	bne	1612370 <OTP_Get_Byte+0x14>
 16123a0:	e1a00002 	mov	r0, r2
 16123a4:	e49df004 	pop	{pc}		; (ldr pc, [sp], #4)
 16123a8:	e1a00002 	mov	r0, r2
 16123ac:	e12fff1e 	bx	lr

016123b0 <read_id_test>:
 16123b0:	e92d4010 	push	{r4, lr}
 16123b4:	e300cff8 	movw	ip, #4088	; 0xff8
 16123b8:	e240ea01 	sub	lr, r0, #4096	; 0x1000
 16123bc:	e15e000c 	cmp	lr, ip
 16123c0:	8a00000f 	bhi	1612404 <read_id_test+0x54>
 16123c4:	e1a0c002 	mov	ip, r2
 16123c8:	e0803001 	add	r3, r0, r1
 16123cc:	e3012ff8 	movw	r2, #8184	; 0x1ff8
 16123d0:	e1530002 	cmp	r3, r2
 16123d4:	8a000004 	bhi	16123ec <read_id_test+0x3c>
 16123d8:	e1a02001 	mov	r2, r1
 16123dc:	e1a0100c 	mov	r1, ip
 16123e0:	ebffffdd 	bl	161235c <OTP_Get_Byte>
 16123e4:	e3a00000 	mov	r0, #0
 16123e8:	e8bd8010 	pop	{r4, pc}
 16123ec:	e1a01003 	mov	r1, r3
 16123f0:	e30207f0 	movw	r0, #10224	; 0x27f0
 16123f4:	e3400161 	movt	r0, #353	; 0x161
 16123f8:	ebfff7b6 	bl	16102d8 <printf>
 16123fc:	e3a00001 	mov	r0, #1
 1612400:	e8bd8010 	pop	{r4, pc}
 1612404:	e1a01000 	mov	r1, r0
 1612408:	e30207c8 	movw	r0, #10184	; 0x27c8
 161240c:	e3400161 	movt	r0, #353	; 0x161
 1612410:	ebfff7b0 	bl	16102d8 <printf>
 1612414:	e3a00001 	mov	r0, #1
 1612418:	e8bd8010 	pop	{r4, pc}

Disassembly of section .rodata:

0161241c <_ctype>:
 161241c:	08080808 	stmdaeq	r8, {r3, fp}
 1612420:	08080808 	stmdaeq	r8, {r3, fp}
 1612424:	28282808 	stmdacs	r8!, {r3, fp, sp}
 1612428:	08082828 	stmdaeq	r8, {r3, r5, fp, sp}
 161242c:	08080808 	stmdaeq	r8, {r3, fp}
 1612430:	08080808 	stmdaeq	r8, {r3, fp}
 1612434:	08080808 	stmdaeq	r8, {r3, fp}
 1612438:	08080808 	stmdaeq	r8, {r3, fp}
 161243c:	101010a0 	andsne	r1, r0, r0, lsr #1
 1612440:	10101010 	andsne	r1, r0, r0, lsl r0
 1612444:	10101010 	andsne	r1, r0, r0, lsl r0
 1612448:	10101010 	andsne	r1, r0, r0, lsl r0
 161244c:	04040404 	streq	r0, [r4], #-1028	; 0x404
 1612450:	04040404 	streq	r0, [r4], #-1028	; 0x404
 1612454:	10100404 	andsne	r0, r0, r4, lsl #8
 1612458:	10101010 	andsne	r1, r0, r0, lsl r0
 161245c:	41414110 	cmpmi	r1, r0, lsl r1
 1612460:	01414141 	cmpeq	r1, r1, asr #2
 1612464:	01010101 	tsteq	r1, r1, lsl #2
 1612468:	01010101 	tsteq	r1, r1, lsl #2
 161246c:	01010101 	tsteq	r1, r1, lsl #2
 1612470:	01010101 	tsteq	r1, r1, lsl #2
 1612474:	10010101 	andne	r0, r1, r1, lsl #2
 1612478:	10101010 	andsne	r1, r0, r0, lsl r0
 161247c:	42424210 	submi	r4, r2, #16, 4
 1612480:	02424242 	subeq	r4, r2, #536870916	; 0x20000004
 1612484:	02020202 	andeq	r0, r2, #536870912	; 0x20000000
 1612488:	02020202 	andeq	r0, r2, #536870912	; 0x20000000
 161248c:	02020202 	andeq	r0, r2, #536870912	; 0x20000000
 1612490:	02020202 	andeq	r0, r2, #536870912	; 0x20000000
 1612494:	10020202 	andne	r0, r2, r2, lsl #4
 1612498:	08101010 	ldmdaeq	r0, {r4, ip}
	...
 16124bc:	101010a0 	andsne	r1, r0, r0, lsr #1
 16124c0:	10101010 	andsne	r1, r0, r0, lsl r0
 16124c4:	10101010 	andsne	r1, r0, r0, lsl r0
 16124c8:	10101010 	andsne	r1, r0, r0, lsl r0
 16124cc:	10101010 	andsne	r1, r0, r0, lsl r0
 16124d0:	10101010 	andsne	r1, r0, r0, lsl r0
 16124d4:	10101010 	andsne	r1, r0, r0, lsl r0
 16124d8:	10101010 	andsne	r1, r0, r0, lsl r0
 16124dc:	01010101 	tsteq	r1, r1, lsl #2
 16124e0:	01010101 	tsteq	r1, r1, lsl #2
 16124e4:	01010101 	tsteq	r1, r1, lsl #2
 16124e8:	01010101 	tsteq	r1, r1, lsl #2
 16124ec:	01010101 	tsteq	r1, r1, lsl #2
 16124f0:	10010101 	andne	r0, r1, r1, lsl #2
 16124f4:	01010101 	tsteq	r1, r1, lsl #2
 16124f8:	02010101 	andeq	r0, r1, #1073741824	; 0x40000000
 16124fc:	02020202 	andeq	r0, r2, #536870912	; 0x20000000
 1612500:	02020202 	andeq	r0, r2, #536870912	; 0x20000000
 1612504:	02020202 	andeq	r0, r2, #536870912	; 0x20000000
 1612508:	02020202 	andeq	r0, r2, #536870912	; 0x20000000
 161250c:	02020202 	andeq	r0, r2, #536870912	; 0x20000000
 1612510:	10020202 	andne	r0, r2, r2, lsl #4
 1612514:	02020202 	andeq	r0, r2, #536870912	; 0x20000000
 1612518:	02020202 	andeq	r0, r2, #536870912	; 0x20000000

0161251c <.LANCHOR0>:
 161251c:	34112008 	ldrcc	r2, [r1], #-8
 1612520:	5501500f 	strpl	r5, [r1, #-15]
 1612524:	880d6058 	stmdahi	sp, {r3, r4, r6, sp, lr}
 1612528:	d088ab0e 	addle	sl, r8, lr, lsl #22
 161252c:	34192008 	ldrcc	r2, [r9], #-8
 1612530:	5501500f 	strpl	r5, [r1, #-15]
 1612534:	880d6658 	stmdahi	sp, {r3, r4, r6, r9, sl, sp, lr}
 1612538:	d088ac0e 	addle	sl, r8, lr, lsl #24
 161253c:	7566650a 	strbvc	r6, [r6, #-1290]!	; 0x50a
 1612540:	76206573 			; <UNDEFINED> instruction: 0x76206573
 1612544:	66697265 	strbtvs	r7, [r9], -r5, ror #4
 1612548:	31762079 	cmncc	r6, r9, ror r0
 161254c:	2033302e 	eorscs	r3, r3, lr, lsr #32
 1612550:	72617473 	rsbvc	r7, r1, #1929379840	; 0x73000000
 1612554:	2e2e2e74 	mcrcs	14, 1, r2, cr14, cr4, {3}
 1612558:	00000a2e 	andeq	r0, r0, lr, lsr #20
 161255c:	726f6609 	rsbvc	r6, pc, #9437184	; 0x900000
 1612560:	63657320 	cmnvs	r5, #32, 6	; 0x80000000
 1612564:	20657275 	rsbcs	r7, r5, r5, ror r2
 1612568:	746f6f62 	strbtvc	r6, [pc], #-3938	; 1612570 <.LANCHOR0+0x54>
 161256c:	616c7020 	cmnvs	ip, r0, lsr #32
 1612570:	726f6674 	rsbvc	r6, pc, #116, 12	; 0x7400000
 1612574:	0a202c6d 	beq	1e1d730 <__bss_end__+0x7faae0>
 1612578:	00000000 	andeq	r0, r0, r0
 161257c:	20772d09 	rsbscs	r2, r7, r9, lsl #26
 1612580:	20617372 	rsbcs	r7, r1, r2, ror r3
 1612584:	0000000a 	andeq	r0, r0, sl
 1612588:	6764756a 	strbvs	r7, [r4, -sl, ror #10]!
 161258c:	61702065 	cmnvs	r0, r5, rrx
 1612590:	000a7373 	andeq	r7, sl, r3, ror r3
 1612594:	6764756a 	strbvs	r7, [r4, -sl, ror #10]!
 1612598:	61662065 	cmnvs	r6, r5, rrx
 161259c:	0a206c69 	beq	1e2d748 <__bss_end__+0x80aaf8>
 16125a0:	00000000 	andeq	r0, r0, r0
 16125a4:	69726576 	ldmdbvs	r2!, {r1, r2, r4, r5, r6, r8, sl, sp, lr}^
 16125a8:	70207966 	eorvc	r7, r0, r6, ror #18
 16125ac:	72676f72 	rsbvc	r6, r7, #456	; 0x1c8
 16125b0:	4f206d61 	svcmi	0x00206d61
 16125b4:	4f4b4f4b 	svcmi	0x004b4f4b
 16125b8:	4f4b4f4b 	svcmi	0x004b4f4b
 16125bc:	214b4f4b 	cmpcs	fp, fp, asr #30
 16125c0:	21212121 	teqcs	r1, r1, lsr #2
 16125c4:	000a2121 	andeq	r2, sl, r1, lsr #2
 16125c8:	69726576 	ldmdbvs	r2!, {r1, r2, r4, r5, r6, r8, sl, sp, lr}^
 16125cc:	41207966 	teqmi	r0, r6, ror #18
 16125d0:	696c7070 	stmdbvs	ip!, {r4, r5, r6, ip, sp, lr}^
 16125d4:	69746163 	ldmdbvs	r4!, {r0, r1, r5, r6, r8, sp, lr}^
 16125d8:	74206e6f 	strtvc	r6, [r0], #-3695	; 0xe6f
 16125dc:	696d7265 	stmdbvs	sp!, {r0, r2, r5, r6, r9, ip, sp, lr}^
 16125e0:	6574616e 	ldrbvs	r6, [r4, #-366]!	; 0x16e
 16125e4:	72202c64 	eorvc	r2, r0, #100, 24	; 0x6400
 16125e8:	203d2063 	eorscs	r2, sp, r3, rrx
 16125ec:	00007830 	andeq	r7, r0, r0, lsr r8
 16125f0:	69726576 	ldmdbvs	r2!, {r1, r2, r4, r5, r6, r8, sl, sp, lr}^
 16125f4:	70207966 	eorvc	r7, r0, r6, ror #18
 16125f8:	72676f72 	rsbvc	r6, r7, #456	; 0x1c8
 16125fc:	66206d61 	strtvs	r6, [r0], -r1, ror #26
 1612600:	666c6961 	strbtvs	r6, [ip], -r1, ror #18
 1612604:	666c6961 	strbtvs	r6, [ip], -r1, ror #18
 1612608:	216c6961 	cmncs	ip, r1, ror #18
 161260c:	21212121 	teqcs	r1, r1, lsr #2
 1612610:	000a2121 	andeq	r2, sl, r1, lsr #2

01612614 <__FUNCTION__.6529>:
 1612614:	5f534541 	svcpl	0x00534541
 1612618:	5f424345 	svcpl	0x00424345
 161261c:	72636e65 	rsbvc	r6, r3, #1616	; 0x650
 1612620:	00747079 	rsbseq	r7, r4, r9, ror r0

01612624 <Kh_key_default>:
 1612624:	ad0d8175 	stfged	f0, [sp, #-468]	; 0xfffffe2c
 1612628:	a0d732c0 	sbcsge	r3, r7, r0, asr #5
 161262c:	e56ef350 	strb	pc, [lr, #-848]!	; 0x350	; <UNPREDICTABLE>
 1612630:	c53ce48b 	ldrgt	lr, [ip, #-1163]!	; 0x48b
 1612634:	2e70636d 	cdpcs	3, 7, cr6, cr0, cr13, {3}
 1612638:	00000063 	andeq	r0, r0, r3, rrx
 161263c:	202a2a2a 	eorcs	r2, sl, sl, lsr #20
 1612640:	25207325 	strcs	r7, [r0, #-805]!	; 0x325
 1612644:	64252073 	strtvs	r2, [r5], #-115	; 0x73
 1612648:	0000000a 	andeq	r0, r0, sl
 161264c:	483e3d3d 	ldmdami	lr!, {r0, r2, r3, r4, r5, r8, sl, fp, ip, sp}
 1612650:	41535257 	cmpmi	r3, r7, asr r2
 1612654:	6d697420 	cfstrdvs	mvd7, [r9, #-128]!	; 0xffffff80
 1612658:	74756f65 	ldrbtvc	r6, [r5], #-3941	; 0xf65
 161265c:	000a2120 	andeq	r2, sl, r0, lsr #2

01612660 <__FUNCTION__.3994>:
 1612660:	64786568 	ldrbtvs	r6, [r8], #-1384	; 0x568
 1612664:	00706d75 	rsbseq	r6, r0, r5, ror sp
 1612668:	656d6954 	strbvs	r6, [sp, #-2388]!	; 0x954
 161266c:	74756f20 	ldrbtvc	r6, [r5], #-3872	; 0xf20
 1612670:	00000a20 	andeq	r0, r0, r0, lsr #20
 1612674:	4c4c554e 	cfstr64mi	mvdx5, [ip], {78}	; 0x4e
 1612678:	0000000a 	andeq	r0, r0, sl
 161267c:	78302820 	ldmdavc	r0!, {r5, fp, sp}
 1612680:	00000000 	andeq	r0, r0, r0
 1612684:	00000a29 	andeq	r0, r0, r9, lsr #20
 1612688:	00000020 	andeq	r0, r0, r0, lsr #32

0161268c <__func__.4068>:
 161268c:	5f50544f 	svcpl	0x0050544f
 1612690:	676f7250 			; <UNDEFINED> instruction: 0x676f7250
 1612694:	5f6d6172 	svcpl	0x006d6172
 1612698:	00646e45 	rsbeq	r6, r4, r5, asr #28
 161269c:	30257830 	eorcc	r7, r5, r0, lsr r8
 16126a0:	3a786c38 	bcc	342d788 <__bss_end__+0x1e0ab38>
 16126a4:	00000000 	andeq	r0, r0, r0
 16126a8:	2a302520 	bcs	221bb30 <__bss_end__+0xbf8ee0>
 16126ac:	00000078 	andeq	r0, r0, r8, ror r0
 16126b0:	0000002a 	andeq	r0, r0, sl, lsr #32
 16126b4:	20202020 	eorcs	r2, r0, r0, lsr #32
 16126b8:	0a73253a 	beq	32dbba8 <__bss_end__+0x1cb8f58>
 16126bc:	00000000 	andeq	r0, r0, r0
 16126c0:	20202020 	eorcs	r2, r0, r0, lsr #32
 16126c4:	000a2a3a 	andeq	r2, sl, sl, lsr sl
 16126c8:	3d746572 	cfldr64cc	mvdx6, [r4, #-456]!	; 0xfffffe38
 16126cc:	000a6425 	andeq	r6, sl, r5, lsr #8
 16126d0:	5b776172 	blpl	33eaca0 <__bss_end__+0x1dc8050>
 16126d4:	20782520 	rsbscs	r2, r8, r0, lsr #10
 16126d8:	2020205d 	eorcs	r2, r0, sp, asr r0
 16126dc:	20202020 	eorcs	r2, r0, r0, lsr #32
 16126e0:	20636e65 	rsbcs	r6, r3, r5, ror #28
 16126e4:	7825205b 	stmdavc	r5!, {r0, r1, r3, r4, r6, sp}
 16126e8:	000a5d20 	andeq	r5, sl, r0, lsr #26
 16126ec:	5b636e65 	blpl	2eee088 <__bss_end__+0x18cb438>
 16126f0:	20782520 	rsbscs	r2, r8, r0, lsr #10
 16126f4:	2020205d 	eorcs	r2, r0, sp, asr r0
 16126f8:	20202020 	eorcs	r2, r0, r0, lsr #32
 16126fc:	5b776172 	blpl	33eaccc <__bss_end__+0x1dc807c>
 1612700:	5d782520 	cfldr64pl	mvdx2, [r8, #-128]!	; 0xffffff80
 1612704:	0000000a 	andeq	r0, r0, sl
 1612708:	6174730a 	cmnvs	r4, sl, lsl #6
 161270c:	70207472 	eorvc	r7, r0, r2, ror r4
 1612710:	72676f72 	rsbvc	r6, r7, #456	; 0x1c8
 1612714:	3a206d61 	bcc	1e2dca0 <__bss_end__+0x80b050>
 1612718:	74656720 	strbtvc	r6, [r5], #-1824	; 0x720
 161271c:	73657220 	cmnvc	r5, #32, 4
 1612720:	65767265 	ldrbvs	r7, [r6, #-613]!	; 0x265
 1612724:	706d2064 	rsbvc	r2, sp, r4, rrx
 1612728:	73657420 	cmnvc	r5, #32, 8	; 0x20000000
 161272c:	61702074 	cmnvs	r0, r4, ror r0
 1612730:	20327472 	eorscs	r7, r2, r2, ror r4
 1612734:	20746962 	rsbscs	r6, r4, r2, ror #18
 1612738:	000a6425 	andeq	r6, sl, r5, lsr #8
 161273c:	20746f6e 	rsbscs	r6, r4, lr, ror #30
 1612740:	6e727562 	cdpvs	5, 7, cr7, cr2, cr2, {3}
 1612744:	00000a21 	andeq	r0, r0, r1, lsr #20
 1612748:	3a207325 	bcc	1e2f3e4 <__bss_end__+0x80c794>
 161274c:	6e6f6420 	cdpvs	4, 6, cr6, cr15, cr0, {1}
 1612750:	00000a65 	andeq	r0, r0, r5, ror #20
 1612754:	72617473 	rsbvc	r7, r1, #1929379840	; 0x73000000
 1612758:	72702074 	rsbsvc	r2, r0, #116	; 0x74
 161275c:	6172676f 	cmnvs	r2, pc, ror #14
 1612760:	203a206d 	eorscs	r2, sl, sp, rrx
 1612764:	72617473 	rsbvc	r7, r1, #1929379840	; 0x73000000
 1612768:	00000a74 	andeq	r0, r0, r4, ror sl
 161276c:	72617473 	rsbvc	r7, r1, #1929379840	; 0x73000000
 1612770:	74696274 	strbtvc	r6, [r9], #-628	; 0x274
 1612774:	25203d20 	strcs	r3, [r0, #-3360]!	; 0xd20
 1612778:	74202c64 	strtvc	r2, [r0], #-3172	; 0xc64
 161277c:	6c61746f 	cfstrdvs	mvd7, [r1], #-444	; 0xfffffe44
 1612780:	65747962 	ldrbvs	r7, [r4, #-2402]!	; 0x962
 1612784:	203d2073 	eorscs	r2, sp, r3, ror r0
 1612788:	000a6425 	andeq	r6, sl, r5, lsr #8
 161278c:	6174730a 	cmnvs	r4, sl, lsl #6
 1612790:	70207472 	eorvc	r7, r0, r2, ror r4
 1612794:	72676f72 	rsbvc	r6, r7, #456	; 0x1c8
 1612798:	3a206d61 	bcc	1e2dd24 <__bss_end__+0x80b0d4>
 161279c:	646e6520 	strbtvs	r6, [lr], #-1312	; 0x520
 16127a0:	0000000a 	andeq	r0, r0, sl
 16127a4:	7479420a 	ldrbtvc	r4, [r9], #-522	; 0x20a
 16127a8:	64255b65 	strtvs	r5, [r5], #-2917	; 0xb65
 16127ac:	00203a5d 	eoreq	r3, r0, sp, asr sl
 16127b0:	00000031 	andeq	r0, r0, r1, lsr r0
 16127b4:	00000030 	andeq	r0, r0, r0, lsr r0
 16127b8:	5f617372 	svcpl	0x00617372
 16127bc:	5f627570 	svcpl	0x00627570
 16127c0:	3d79656b 	cfldr64cc	mvdx6, [r9, #-428]!	; 0xfffffe54
 16127c4:	000a7825 	andeq	r7, sl, r5, lsr #16
 16127c8:	72617473 	rsbvc	r7, r1, #1929379840	; 0x73000000
 16127cc:	74796274 	ldrbtvc	r6, [r9], #-628	; 0x274
 16127d0:	3d203a65 	vstmdbcc	r0!, {s6-s106}
 16127d4:	6d206425 	cfstrsvs	mvf6, [r0, #-148]!	; 0xffffff6c
 16127d8:	20747375 	rsbscs	r7, r4, r5, ror r3
 16127dc:	30343d3e 	eorscc	r3, r4, lr, lsr sp
 16127e0:	26203639 			; <UNDEFINED> instruction: 0x26203639
 16127e4:	3d3c2026 	ldccc	0, cr2, [ip, #-152]!	; 0xffffff68
 16127e8:	34383138 	ldrtcc	r3, [r8], #-312	; 0x138
 16127ec:	0000000a 	andeq	r0, r0, sl
 16127f0:	72617473 	rsbvc	r7, r1, #1929379840	; 0x73000000
 16127f4:	74796274 	ldrbtvc	r6, [r9], #-628	; 0x274
 16127f8:	6f742b65 	svcvs	0x00742b65
 16127fc:	626c6174 	rsbvs	r6, ip, #116, 2
 1612800:	3a657479 	bcc	2f6f9ec <__bss_end__+0x194cd9c>
 1612804:	64253d20 	strtvs	r3, [r5], #-3360	; 0xd20
 1612808:	73756d20 	cmnvc	r5, #32, 26	; 0x800
 161280c:	3d3c2074 	ldccc	0, cr2, [ip, #-464]!	; 0xfffffe30
 1612810:	34383138 	ldrtcc	r3, [r8], #-312	; 0x138
 1612814:	0000000a 	andeq	r0, r0, sl
 1612818:	6174730a 	cmnvs	r4, sl, lsl #6
 161281c:	70207472 	eorvc	r7, r0, r2, ror r4
 1612820:	72676f72 	rsbvc	r6, r7, #456	; 0x1c8
 1612824:	3a206d61 	bcc	1e2ddb0 <__bss_end__+0x80b160>
 1612828:	63657320 	cmnvs	r5, #32, 6	; 0x80000000
 161282c:	62657275 	rsbvs	r7, r5, #1342177287	; 0x50000007
 1612830:	20746f6f 	rsbscs	r6, r4, pc, ror #30
 1612834:	20746962 	rsbscs	r6, r4, r2, ror #18
 1612838:	000a6425 	andeq	r6, sl, r5, lsr #8
 161283c:	6174730a 	cmnvs	r4, sl, lsl #6
 1612840:	70207472 	eorvc	r7, r0, r2, ror r4
 1612844:	72676f72 	rsbvc	r6, r7, #456	; 0x1c8
 1612848:	3a206d61 	bcc	1e2ddd4 <__bss_end__+0x80b184>
 161284c:	6f6f6220 	svcvs	0x006f6220
 1612850:	636e6574 	cmnvs	lr, #116, 10	; 0x1d000000
 1612854:	74696220 	strbtvc	r6, [r9], #-544	; 0x220
 1612858:	0a642520 	beq	2f1bce0 <__bss_end__+0x18f9090>
 161285c:	00000000 	andeq	r0, r0, r0
 1612860:	6174730a 	cmnvs	r4, sl, lsl #6
 1612864:	70207472 	eorvc	r7, r0, r2, ror r4
 1612868:	72676f72 	rsbvc	r6, r7, #456	; 0x1c8
 161286c:	3a206d61 	bcc	1e2ddf8 <__bss_end__+0x80b1a8>
 1612870:	616f6c20 	cmnvs	pc, r0, lsr #24
 1612874:	736f7364 	cmnvc	pc, #100, 6	; 0x90000001
 1612878:	74696220 	strbtvc	r6, [r9], #-544	; 0x220
 161287c:	0a642520 	beq	2f1bd04 <__bss_end__+0x18f90b4>
 1612880:	00000000 	andeq	r0, r0, r0
 1612884:	6174730a 	cmnvs	r4, sl, lsl #6
 1612888:	70207472 	eorvc	r7, r0, r2, ror r4
 161288c:	72676f72 	rsbvc	r6, r7, #456	; 0x1c8
 1612890:	3a206d61 	bcc	1e2de1c <__bss_end__+0x80b1cc>
 1612894:	73696420 	cmnvc	r9, #32, 8	; 0x20000000
 1612898:	656e6f2d 	strbvs	r6, [lr, #-3885]!	; 0xf2d
 161289c:	65726f63 	ldrbvs	r6, [r2, #-3939]!	; 0xf63
 16128a0:	74696220 	strbtvc	r6, [r9], #-544	; 0x220
 16128a4:	0a642520 	beq	2f1bd2c <__bss_end__+0x18f90dc>
 16128a8:	00000000 	andeq	r0, r0, r0
 16128ac:	6174730a 	cmnvs	r4, sl, lsl #6
 16128b0:	70207472 	eorvc	r7, r0, r2, ror r4
 16128b4:	72676f72 	rsbvc	r6, r7, #456	; 0x1c8
 16128b8:	3a206d61 	bcc	1e2de44 <__bss_end__+0x80b1f4>
 16128bc:	62737520 	rsbsvs	r7, r3, #32, 10	; 0x8000000
 16128c0:	61727332 	cmnvs	r2, r2, lsr r3
 16128c4:	6962206d 	stmdbvs	r2!, {r0, r2, r3, r5, r6, sp}^
 16128c8:	64252074 	strtvs	r2, [r5], #-116	; 0x74
 16128cc:	0000000a 	andeq	r0, r0, sl
 16128d0:	6174730a 	cmnvs	r4, sl, lsl #6
 16128d4:	70207472 	eorvc	r7, r0, r2, ror r4
 16128d8:	72676f72 	rsbvc	r6, r7, #456	; 0x1c8
 16128dc:	3a206d61 	bcc	1e2de68 <__bss_end__+0x80b218>
 16128e0:	73657220 	cmnvc	r5, #32, 4
 16128e4:	65767265 	ldrbvs	r7, [r6, #-613]!	; 0x265
 16128e8:	706d2064 	rsbvc	r2, sp, r4, rrx
 16128ec:	73657420 	cmnvc	r5, #32, 8	; 0x20000000
 16128f0:	61702074 	cmnvs	r0, r4, ror r0
 16128f4:	20327472 	eorscs	r7, r2, r2, ror r4
 16128f8:	20746962 	rsbscs	r6, r4, r2, ror #18
 16128fc:	000a6425 	andeq	r6, sl, r5, lsr #8
 1612900:	65637865 	strbvs	r7, [r3, #-2149]!	; 0x865
 1612904:	6b206465 	blvs	1e2baa0 <__bss_end__+0x808e50>
 1612908:	65737965 	ldrbvs	r7, [r3, #-2405]!	; 0x965
 161290c:	6176206c 	cmnvs	r6, ip, rrx
 1612910:	0a65756c 	beq	2f6fec8 <__bss_end__+0x194d278>
 1612914:	00000000 	andeq	r0, r0, r0
 1612918:	6174730a 	cmnvs	r4, sl, lsl #6
 161291c:	70207472 	eorvc	r7, r0, r2, ror r4
 1612920:	72676f72 	rsbvc	r6, r7, #456	; 0x1c8
 1612924:	3a206d61 	bcc	1e2deb0 <__bss_end__+0x80b260>
 1612928:	79656b20 	stmdbvc	r5!, {r5, r8, r9, fp, sp, lr}^
 161292c:	206c6573 	rsbcs	r6, ip, r3, ror r5
 1612930:	30746962 	rsbscc	r6, r4, r2, ror #18
 1612934:	0a64253d 	beq	2f1be30 <__bss_end__+0x18f91e0>
 1612938:	00000000 	andeq	r0, r0, r0
 161293c:	6174730a 	cmnvs	r4, sl, lsl #6
 1612940:	70207472 	eorvc	r7, r0, r2, ror r4
 1612944:	72676f72 	rsbvc	r6, r7, #456	; 0x1c8
 1612948:	3a206d61 	bcc	1e2ded4 <__bss_end__+0x80b284>
 161294c:	79656b20 	stmdbvc	r5!, {r5, r8, r9, fp, sp, lr}^
 1612950:	206c6573 	rsbcs	r6, ip, r3, ror r5
 1612954:	31746962 	cmncc	r4, r2, ror #18
 1612958:	0a64253d 	beq	2f1be54 <__bss_end__+0x18f9204>
 161295c:	00000000 	andeq	r0, r0, r0
 1612960:	65637865 	strbvs	r7, [r3, #-2149]!	; 0x865
 1612964:	68206465 	stmdavs	r0!, {r0, r2, r5, r6, sl, sp, lr}
 1612968:	6b686377 	blvs	302b74c <__bss_end__+0x1a08afc>
 161296c:	6c617620 	stclvs	6, cr7, [r1], #-128	; 0xffffff80
 1612970:	000a6575 	andeq	r6, sl, r5, ror r5
 1612974:	6174730a 	cmnvs	r4, sl, lsl #6
 1612978:	70207472 	eorvc	r7, r0, r2, ror r4
 161297c:	72676f72 	rsbvc	r6, r7, #456	; 0x1c8
 1612980:	3a206d61 	bcc	1e2df0c <__bss_end__+0x80b2bc>
 1612984:	63776820 	cmnvs	r7, #32, 16	; 0x200000
 1612988:	62206b68 	eorvs	r6, r0, #104, 22	; 0x1a000
 161298c:	3d307469 	cfldrscc	mvf7, [r0, #-420]!	; 0xfffffe5c
 1612990:	000a6425 	andeq	r6, sl, r5, lsr #8
 1612994:	6174730a 	cmnvs	r4, sl, lsl #6
 1612998:	70207472 	eorvc	r7, r0, r2, ror r4
 161299c:	72676f72 	rsbvc	r6, r7, #456	; 0x1c8
 16129a0:	3a206d61 	bcc	1e2df2c <__bss_end__+0x80b2dc>
 16129a4:	63776820 	cmnvs	r7, #32, 16	; 0x200000
 16129a8:	62206b68 	eorvs	r6, r0, #104, 22	; 0x1a000
 16129ac:	3d317469 	cfldrscc	mvf7, [r1, #-420]!	; 0xfffffe5c
 16129b0:	000a6425 	andeq	r6, sl, r5, lsr #8

Disassembly of section .data:

016229b4 <rsa_pub_key>:
 16229b4:	bb1019c1 	bllt	1a290c0 <__bss_end__+0x406470>
 16229b8:	ed08e036 	stc	0, cr14, [r8, #-216]	; 0xffffff28
 16229bc:	ba987f37 	blt	ffc426a0 <__bss_end__+0xfe61fa50>
 16229c0:	48ee5df2 	stmiami	lr!, {r1, r4, r5, r6, r7, r8, sl, fp, ip, lr}^
 16229c4:	f0ebca83 			; <UNDEFINED> instruction: 0xf0ebca83
 16229c8:	c2354bd3 	eorsgt	r4, r5, #216064	; 0x34c00
 16229cc:	b07fce1f 	rsbslt	ip, pc, pc, lsl lr	; <UNPREDICTABLE>
 16229d0:	47ac6df4 			; <UNDEFINED> instruction: 0x47ac6df4
 16229d4:	139cde78 	orrsne	sp, ip, #120, 28	; 0x780
 16229d8:	199b3b70 	ldmibne	fp, {r4, r5, r6, r8, r9, fp, ip, sp}
 16229dc:	38577245 	ldmdacc	r7, {r0, r2, r6, r9, ip, sp, lr}^
 16229e0:	1b1ddb8a 	blne	1d99810 <__bss_end__+0x776bc0>
 16229e4:	d8da5627 	ldmle	sl, {r0, r1, r2, r5, r9, sl, ip, lr}^
 16229e8:	724b9aa1 	subvc	r9, fp, #659456	; 0xa1000
 16229ec:	220504b4 	andcs	r0, r5, #180, 8	; 0xb4000000
 16229f0:	ab004604 	blge	1634208 <__bss_end__+0x115b8>
 16229f4:	56d5d842 	ldrbpl	sp, [r5], r2, asr #16
 16229f8:	34e02e74 	strbtcc	r2, [r0], #3700	; 0xe74
 16229fc:	efd204db 	svc	0x00d204db
 1622a00:	fa576b35 	blx	2bfd6dc <__bss_end__+0x15daa8c>
 1622a04:	91fe0272 	mvnsls	r0, r2, ror r2
 1622a08:	08610530 	stmdaeq	r1!, {r4, r5, r8, sl}^
 1622a0c:	cf6c90a8 	svcgt	0x006c90a8
 1622a10:	3591bb1c 	ldrcc	fp, [r1, #2844]	; 0xb1c
 1622a14:	9db86303 	ldcls	3, cr6, [r8, #12]!
 1622a18:	b7000be6 	strlt	r0, [r0, -r6, ror #23]
 1622a1c:	b2defc04 	sbcslt	pc, lr, #4, 24	; 0x400
 1622a20:	572e48c1 	strpl	r4, [lr, -r1, asr #17]!
 1622a24:	3c328ccb 	ldccc	12, cr8, [r2], #-812	; 0xfffffcd4
 1622a28:	fe61dd16 	mcr2	13, 3, sp, cr1, cr6, {0}
 1622a2c:	62a545d4 	adcvs	r4, r5, #212, 10	; 0x35000000
 1622a30:	5151e2b7 	ldrhpl	lr, [r1, #-39]	; 0xffffffd9
 1622a34:	4c86ee36 	stcmi	14, cr14, [r6], {54}	; 0x36
 1622a38:	97272010 			; <UNDEFINED> instruction: 0x97272010
 1622a3c:	0f0e8fc9 	svceq	0x000e8fc9
 1622a40:	cca21d08 	stcgt	13, cr1, [r2], #32
 1622a44:	34ca2876 	strbcc	r2, [sl], #2166	; 0x876
 1622a48:	4ddf8fab 	ldclmi	15, cr8, [pc, #684]	; 1622cfc <__bss_end__+0xac>
 1622a4c:	166763de 			; <UNDEFINED> instruction: 0x166763de
 1622a50:	b89a4752 	ldmlt	sl, {r1, r4, r6, r8, r9, sl, lr}
 1622a54:	50059ce4 	andpl	r9, r5, r4, ror #25
 1622a58:	44fb7aa5 	ldrbtmi	r7, [fp], #2725	; 0xaa5
 1622a5c:	68304466 	ldmdavs	r0!, {r1, r2, r5, r6, sl, lr}
 1622a60:	04b8731b 	ldrteq	r7, [r8], #795	; 0x31b
 1622a64:	15d80fe6 	ldrbne	r0, [r8, #4070]	; 0xfe6
 1622a68:	8c205a39 	stchi	10, cr5, [r0], #-228	; 0xffffff1c
 1622a6c:	27e60af0 			; <UNDEFINED> instruction: 0x27e60af0
 1622a70:	e0850e86 	add	r0, r5, r6, lsl #29
 1622a74:	f210b148 	vrhadd.s16	<illegal reg q5.5>, q0, q4
 1622a78:	1166f23a 	msrne	(UNDEF: 102), sl
 1622a7c:	972c4aba 			; <UNDEFINED> instruction: 0x972c4aba
 1622a80:	49714159 	ldmdbmi	r1!, {r0, r3, r4, r6, r8, lr}^
 1622a84:	e54d891d 	strb	r8, [sp, #-2333]	; 0x91d
 1622a88:	94fd7671 	ldrbtls	r7, [sp], #1649	; 0x671
 1622a8c:	62fb63dd 	rscsvs	r6, fp, #1946157059	; 0x74000003
 1622a90:	7d629686 	stclvc	6, cr9, [r2, #-536]!	; 0xfffffde8
 1622a94:	c1584c8f 	cmpgt	r8, pc, lsl #25
 1622a98:	dd417cec 	stclle	12, cr7, [r1, #-944]	; 0xfffffc50
 1622a9c:	be9797d4 	mrclt	7, 4, r9, cr7, cr4, {6}
 1622aa0:	cc334fd7 	ldcgt	15, cr4, [r3], #-860	; 0xfffffca4
 1622aa4:	551c4f54 	ldrpl	r4, [ip, #-3924]	; 0xf54
 1622aa8:	4f7f787b 	svcmi	0x007f787b
 1622aac:	db0783a5 	blle	1803948 <__bss_end__+0x1e0cf8>
 1622ab0:	c4877ba9 	strgt	r7, [r7], #2985	; 0xba9

01622ab4 <rsa_pub_key_end>:
 1622ab4:	00000000 	andeq	r0, r0, r0

01622ab8 <aes_key>:
 1622ab8:	8c08a058 	stchi	0, cr10, [r8], {88}	; 0x58
 1622abc:	dee979ca 	cdple	9, 14, cr7, cr9, cr10, {6}
 1622ac0:	d5db778d 	ldrble	r7, [fp, #1933]	; 0x78d
 1622ac4:	fac42ded 	blx	72e280 <_back_addr-0xee1d80>

01622ac8 <aes_key_end>:
 1622ac8:	00000000 	andeq	r0, r0, r0

01622acc <UartReg>:
 1622acc:	98007800 	stmdals	r0, {fp, ip, sp, lr}

01622ad0 <alloc_current.3981>:
 1622ad0:	04000000 	streq	r0, [r0], #-0

01622ad4 <arrayB>:
 1622ad4:	ffffffff 			; <UNDEFINED> instruction: 0xffffffff
 1622ad8:	ffffffff 			; <UNDEFINED> instruction: 0xffffffff
 1622adc:	ffffffff 			; <UNDEFINED> instruction: 0xffffffff
 1622ae0:	ffffffff 			; <UNDEFINED> instruction: 0xffffffff

01622ae4 <arrayA>:
 1622ae4:	07050301 	streq	r0, [r5, -r1, lsl #6]
 1622ae8:	23211109 	teqcs	r1, #1073741826	; 0x40000002
 1622aec:	31292725 	teqcc	r9, r5, lsr #14
 1622af0:	39373533 	ldmdbcc	r7!, {r0, r1, r4, r5, r8, sl, ip, sp}

01622af4 <arrayC>:
 1622af4:	ffffffff 			; <UNDEFINED> instruction: 0xffffffff
 1622af8:	ffffffff 			; <UNDEFINED> instruction: 0xffffffff
 1622afc:	ffffffff 			; <UNDEFINED> instruction: 0xffffffff
 1622b00:	ffffffff 			; <UNDEFINED> instruction: 0xffffffff

01622b04 <rsa_pub_key>:
 1622b04:	ec39e4af 	cfldrs	mvf14, [r9], #-700	; 0xfffffd44
 1622b08:	0016e5dd 			; <UNDEFINED> instruction: 0x0016e5dd
 1622b0c:	8465bb72 	strbthi	fp, [r5], #-2930	; 0xb72
 1622b10:	bd4fa5dd 	cfstr64lt	mvdx10, [pc, #-884]	; 16227a4 <__func__.4068+0x10118>
 1622b14:	e32ee3df 	teq	lr, #2080374787	; 0x7c000003
 1622b18:	00db5c17 	sbcseq	r5, fp, r7, lsl ip
 1622b1c:	d2fe52ac 	rscsle	r5, lr, #172, 4	; 0xc000000a
 1622b20:	ec2a71c3 	stfs	f7, [sl], #-780	; 0xfffffcf4
 1622b24:	1d77452b 	cfldr64ne	mvdx4, [r7, #-172]!	; 0xffffff54
 1622b28:	304c7f48 	subcc	r7, ip, r8, asr #30
 1622b2c:	7c2c34c7 	cfstrsvc	mvf3, [ip], #-796	; 0xfffffce4
 1622b30:	01e5958f 	mvneq	r9, pc, lsl #11
 1622b34:	1f9473d8 	svcne	0x009473d8
 1622b38:	2710e662 	ldrcs	lr, [r0, -r2, ror #12]
 1622b3c:	acf87a98 	vldmiage	r8!, {s15-s166}
 1622b40:	9f9b925a 	svcls	0x009b925a
 1622b44:	1719b66e 	ldrne	fp, [r9, -lr, ror #12]
 1622b48:	0c3d1971 	ldceq	9, cr1, [sp], #-452	; 0xfffffe3c
 1622b4c:	18f46303 	ldmne	r4!, {r0, r1, r8, r9, sp, lr}^
 1622b50:	fcbfc6a4 	ldc2	6, cr12, [pc], #656	; 1622de8 <__bss_end__+0x198>
 1622b54:	12ff9440 	rscsne	r9, pc, #64, 8	; 0x40000000
 1622b58:	8ec0883f 	mcrhi	8, 6, r8, cr0, cr15, {1}
 1622b5c:	5481c382 	strpl	ip, [r1], #898	; 0x382
 1622b60:	3dba11fa 	ldfccs	f1, [sl, #1000]!	; 0x3e8
 1622b64:	9ef62b74 	vmovls.u8	r2, d6[7]
 1622b68:	ffef1d46 			; <UNDEFINED> instruction: 0xffef1d46
 1622b6c:	894305d8 	stmdbhi	r3, {r3, r4, r6, r7, r8, sl}^
 1622b70:	76ed8476 	uxtabvc	r8, sp, r6, ror #8
 1622b74:	ad9060f3 	ldcge	0, cr6, [r0, #972]	; 0x3cc
 1622b78:	38c2ccfa 	stmiacc	r2, {r1, r3, r4, r5, r6, r7, sl, fp, lr, pc}^
 1622b7c:	62c0ff88 	sbcvs	pc, r0, #136, 30	; 0x220
 1622b80:	1579ec0a 	ldrbne	lr, [r9, #-3082]!	; 0xc0a
 1622b84:	675e0048 	ldrbvs	r0, [lr, -r8, asr #32]
 1622b88:	486be9a4 	stmdami	fp!, {r2, r5, r7, r8, fp, sp, lr, pc}^
 1622b8c:	0cde44d9 	cfldrdeq	mvd4, [lr], {217}	; 0xd9
 1622b90:	56cf0ee8 	strbpl	r0, [pc], r8, ror #29
 1622b94:	2618c91b 			; <UNDEFINED> instruction: 0x2618c91b
 1622b98:	8a24e311 	bhi	1f5b7e4 <__bss_end__+0x938b94>
 1622b9c:	642f509c 	strtvs	r5, [pc], #-156	; 1622ba4 <rsa_pub_key+0xa0>
 1622ba0:	48d88a99 	ldmmi	r8, {r0, r3, r4, r7, r9, fp, pc}^
 1622ba4:	629dd425 	addsvs	sp, sp, #620756992	; 0x25000000
 1622ba8:	a8af95be 	stmiage	pc!, {r1, r2, r3, r4, r5, r7, r8, sl, ip, pc}	; <UNPREDICTABLE>
 1622bac:	9d305a0e 	vldmdbls	r0!, {s10-s23}
 1622bb0:	6eeee264 	cdpvs	2, 14, cr14, cr14, cr4, {3}
 1622bb4:	25d2f066 	ldrbcs	pc, [r2, #102]	; 0x66	; <UNPREDICTABLE>
 1622bb8:	db143839 	blle	1b30ca4 <__bss_end__+0x50e054>
 1622bbc:	a86d03d4 	stmdage	sp!, {r2, r4, r6, r7, r8, r9}^
 1622bc0:	fa80cb0f 	blx	ff655804 <__bss_end__+0xfe032bb4>
 1622bc4:	def72263 	cdple	2, 15, cr2, cr7, cr3, {3}
 1622bc8:	83944dbf 	orrshi	r4, r4, #12224	; 0x2fc0
 1622bcc:	2ec53a81 	vdivcs.f32	s7, s11, s2
 1622bd0:	a8c593d3 	stmiage	r5, {r0, r1, r4, r6, r7, r8, r9, ip, pc}^
 1622bd4:	9374b09c 	cmnls	r4, #156	; 0x9c
 1622bd8:	11fd65c8 	mvnsne	r6, r8, asr #11
 1622bdc:	2a5e7165 	bcs	2dbf178 <__bss_end__+0x179c528>
 1622be0:	f148b0b7 			; <UNDEFINED> instruction: 0xf148b0b7
 1622be4:	41054302 	tstmi	r5, r2, lsl #6
 1622be8:	7a64a9a8 	bvc	2f4d290 <__bss_end__+0x192a640>
 1622bec:	ab81b7ec 	blge	ff690ba4 <__bss_end__+0xfe06df54>
 1622bf0:	dad35f89 	ble	afaa1c <_back_addr-0xb155e4>
 1622bf4:	0db8b8c3 	ldceq	8, cr11, [r8, #780]!	; 0x30c
 1622bf8:	3f74dba1 	svccc	0x0074dba1
 1622bfc:	af3f83eb 	svcge	0x003f83eb
 1622c00:	b9975438 	ldmiblt	r7, {r3, r4, r5, sl, ip, lr}

01622c04 <aes_key_ks>:
 1622c04:	12efcdab 	rscne	ip, pc, #10944	; 0x2ac0
 1622c08:	68245713 	stmdavs	r4!, {r0, r1, r4, r8, r9, sl, ip, lr}
 1622c0c:	d4c3b2a1 	strble	fp, [r3], #673	; 0x2a1
 1622c10:	beba9090 	mrclt	0, 5, r9, cr10, cr0, {4}

01622c14 <aes_key_kh>:
 1622c14:	12efcdab 	rscne	ip, pc, #10944	; 0x2ac0
 1622c18:	68245713 	stmdavs	r4!, {r0, r1, r4, r8, r9, sl, ip, lr}
 1622c1c:	d4c3b2a1 	strble	fp, [r3], #673	; 0x2a1
 1622c20:	beba9090 	mrclt	0, 5, r9, cr10, cr0, {4}

01622c24 <aes_key_kn>:
 1622c24:	12efcdab 	rscne	ip, pc, #10944	; 0x2ac0
 1622c28:	68245713 	stmdavs	r4!, {r0, r1, r4, r8, r9, sl, ip, lr}
 1622c2c:	d4c3b2a1 	strble	fp, [r3], #673	; 0x2a1
 1622c30:	beba9090 	mrclt	0, 5, r9, cr10, cr0, {4}

01622c34 <deviceID>:
 1622c34:	31445452 	cmpcc	r4, r2, asr r4
 1622c38:	30783931 	rsbscc	r3, r8, r1, lsr r9
 1622c3c:	30303030 	eorscc	r3, r0, r0, lsr r0
 1622c40:	31303030 	teqcc	r0, r0, lsr r0
 1622c44:	00000000 	andeq	r0, r0, r0

Disassembly of section .bss:

01622c48 <__bss_start>:
 1622c48:	00000000 	andeq	r0, r0, r0

01622c4c <alloc_count.3982>:
 1622c4c:	00000000 	andeq	r0, r0, r0

Disassembly of section .comment:

00000000 <.comment>:
   0:	3a434347 	bcc	10d0d24 <_back_addr-0x53f2dc>
   4:	65522820 	ldrbvs	r2, [r2, #-2080]	; 0x820
   8:	65746c61 	ldrbvs	r6, [r4, #-3169]!	; 0xc61
   c:	5341206b 	movtpl	r2, #4203	; 0x106b
  10:	342d4b44 	strtcc	r4, [sp], #-2884	; 0xb44
  14:	332e392e 	teqcc	lr, #753664	; 0xb8000
  18:	69754220 	ldmdbvs	r5!, {r5, r9, lr}^
  1c:	3220646c 	eorcc	r6, r0, #108, 8	; 0x6c000000
  20:	29303831 	ldmdbcs	r0!, {r0, r4, r5, fp, ip, sp}
  24:	392e3420 	stmdbcc	lr!, {r5, sl, ip, sp}
  28:	3220332e 	eorcc	r3, r0, #-1207959552	; 0xb8000000
  2c:	30353130 	eorscc	r3, r5, r0, lsr r1
  30:	20333134 	eorscs	r3, r3, r4, lsr r1
  34:	65727028 	ldrbvs	r7, [r2, #-40]!	; 0x28
  38:	656c6572 	strbvs	r6, [ip, #-1394]!	; 0x572
  3c:	29657361 	stmdbcs	r5!, {r0, r5, r6, r8, r9, ip, sp, lr}^
	...

Disassembly of section .ARM.attributes:

00000000 <.ARM.attributes>:
   0:	00003241 	andeq	r3, r0, r1, asr #4
   4:	61656100 	cmnvs	r5, r0, lsl #2
   8:	01006962 	tsteq	r0, r2, ror #18
   c:	00000028 	andeq	r0, r0, r8, lsr #32
  10:	412d3805 	teqmi	sp, r5, lsl #16
  14:	070e0600 	streq	r0, [lr, -r0, lsl #12]
  18:	09010841 	stmdbeq	r1, {r0, r6, fp}
  1c:	0c030a02 	stceq	10, cr0, [r3], {2}
  20:	14041201 	strne	r1, [r4], #-513	; 0x201
  24:	17011501 	strne	r1, [r1, -r1, lsl #10]
  28:	1a011803 	bne	4603c <_back_addr-0x15c9fc4>
  2c:	2a012202 	bcs	4883c <_back_addr-0x15c77c4>
  30:	Address 0x00000030 is out of bounds.


Disassembly of section .debug_aranges:

00000000 <.debug_aranges>:
   0:	0000001c 	andeq	r0, r0, ip, lsl r0
   4:	00000002 	andeq	r0, r0, r2
   8:	00040000 	andeq	r0, r4, r0
   c:	00000000 	andeq	r0, r0, r0
  10:	01610000 	cmneq	r1, r0
  14:	00000074 	andeq	r0, r0, r4, ror r0
	...
  20:	0000001c 	andeq	r0, r0, ip, lsl r0
  24:	00600002 	rsbeq	r0, r0, r2
  28:	00040000 	andeq	r0, r4, r0
  2c:	00000000 	andeq	r0, r0, r0
  30:	01610074 	smceq	4100	; 0x1004
  34:	00000028 	andeq	r0, r0, r8, lsr #32
	...
  40:	0000001c 	andeq	r0, r0, ip, lsl r0
  44:	010b0002 	tsteq	fp, r2
  48:	00040000 	andeq	r0, r4, r0
  4c:	00000000 	andeq	r0, r0, r0
  50:	0161009c 			; <UNDEFINED> instruction: 0x0161009c
  54:	000000a0 	andeq	r0, r0, r0, lsr #1
	...
  60:	0000001c 	andeq	r0, r0, ip, lsl r0
  64:	01d60002 	bicseq	r0, r6, r2
  68:	00040000 	andeq	r0, r4, r0
  6c:	00000000 	andeq	r0, r0, r0
  70:	0161013c 	cmneq	r1, ip, lsr r1
  74:	00000194 	muleq	r0, r4, r1
	...
  80:	00000014 	andeq	r0, r0, r4, lsl r0
  84:	031e0002 	tsteq	lr, #2
  88:	00040000 	andeq	r0, r4, r0
	...
  98:	0000001c 	andeq	r0, r0, ip, lsl r0
  9c:	03700002 	cmneq	r0, #2
  a0:	00040000 	andeq	r0, r4, r0
  a4:	00000000 	andeq	r0, r0, r0
  a8:	016102d0 	ldrdeq	r0, [r1, #-32]!	; 0xffffffe0
  ac:	00000430 	andeq	r0, r0, r0, lsr r4
	...
  b8:	0000001c 	andeq	r0, r0, ip, lsl r0
  bc:	0fa50002 	svceq	0x00a50002
  c0:	00040000 	andeq	r0, r4, r0
  c4:	00000000 	andeq	r0, r0, r0
  c8:	01610700 	cmneq	r1, r0, lsl #14
  cc:	00000218 	andeq	r0, r0, r8, lsl r2
	...
  d8:	0000001c 	andeq	r0, r0, ip, lsl r0
  dc:	189e0002 	ldmne	lr, {r1}
  e0:	00040000 	andeq	r0, r4, r0
  e4:	00000000 	andeq	r0, r0, r0
  e8:	01610918 	cmneq	r1, r8, lsl r9
  ec:	00000c04 	andeq	r0, r0, r4, lsl #24
	...
  f8:	0000001c 	andeq	r0, r0, ip, lsl r0
  fc:	2ce50002 	stclcs	0, cr0, [r5], #8
 100:	00040000 	andeq	r0, r4, r0
 104:	00000000 	andeq	r0, r0, r0
 108:	0161151c 	cmneq	r1, ip, lsl r5
 10c:	00000168 	andeq	r0, r0, r8, ror #2
	...
 118:	0000001c 	andeq	r0, r0, ip, lsl r0
 11c:	2fd40002 	svccs	0x00d40002
 120:	00040000 	andeq	r0, r4, r0
 124:	00000000 	andeq	r0, r0, r0
 128:	01611684 	cmneq	r1, r4, lsl #13
 12c:	000004c8 	andeq	r0, r0, r8, asr #9
	...
 138:	0000001c 	andeq	r0, r0, ip, lsl r0
 13c:	3d280002 	stccc	0, cr0, [r8, #-8]!
 140:	00040000 	andeq	r0, r4, r0
 144:	00000000 	andeq	r0, r0, r0
 148:	01611b4c 	cmneq	r1, ip, asr #22
 14c:	000008d0 	ldrdeq	r0, [r0], -r0	; <UNPREDICTABLE>
	...

Disassembly of section .debug_info:

00000000 <.debug_info>:
       0:	0000005c 	andeq	r0, r0, ip, asr r0
       4:	00000002 	andeq	r0, r0, r2
       8:	01040000 	mrseq	r0, (UNDEF: 4)
       c:	00000000 	andeq	r0, r0, r0
      10:	01610000 	cmneq	r1, r0
      14:	01610074 	smceq	4100	; 0x1004
      18:	72617473 	rsbvc	r7, r1, #1929379840	; 0x73000000
      1c:	00532e74 	subseq	r2, r3, r4, ror lr
      20:	6361622f 	cmnvs	r1, #-268435454	; 0xf0000002
      24:	2f70756b 	svccs	0x0070756b
      28:	622f6477 	eorvs	r6, pc, #1996488704	; 0x77000000
      2c:	63746f6f 	cmnvs	r4, #444	; 0x1bc
      30:	2f65646f 	svccs	0x0065646f
      34:	6f6f6275 	svcvs	0x006f6275
      38:	78652f74 	stmdavc	r5!, {r2, r4, r5, r6, r8, r9, sl, fp, sp}^
      3c:	6c706d61 	ldclvs	13, cr6, [r0], #-388	; 0xfffffe7c
      40:	652f7365 	strvs	r7, [pc, #-869]!	; fffffce3 <__bss_end__+0xfe9dd093>
      44:	65737566 	ldrbvs	r7, [r3, #-1382]!	; 0x566
      48:	7265765f 	rsbvc	r7, r5, #99614720	; 0x5f00000
      4c:	00796669 	rsbseq	r6, r9, r9, ror #12
      50:	20554e47 	subscs	r4, r5, r7, asr #28
      54:	32205341 	eorcc	r5, r0, #67108865	; 0x4000001
      58:	2e34322e 	cdpcs	2, 3, cr3, cr4, cr14, {1}
      5c:	80010030 	andhi	r0, r1, r0, lsr r0
      60:	000000a7 	andeq	r0, r0, r7, lsr #1
      64:	00140004 	andseq	r0, r4, r4
      68:	01040000 	mrseq	r0, (UNDEF: 4)
      6c:	00000060 	andeq	r0, r0, r0, rrx
      70:	00000001 	andeq	r0, r0, r1
      74:	00017100 	andeq	r7, r1, r0, lsl #2
      78:	61007400 	tstvs	r0, r0, lsl #8
      7c:	00002801 	andeq	r2, r0, r1, lsl #16
      80:	00005000 	andeq	r5, r0, r0
      84:	08010200 	stmdaeq	r1, {r9}
      88:	00000010 	andeq	r0, r0, r0, lsl r0
      8c:	12060102 	andne	r0, r6, #-2147483648	; 0x80000000
      90:	02000000 	andeq	r0, r0, #0
      94:	001e0702 	andseq	r0, lr, r2, lsl #14
      98:	02020000 	andeq	r0, r2, #0
      9c:	00005605 	andeq	r5, r0, r5, lsl #12
      a0:	07040200 	streq	r0, [r4, -r0, lsl #4]
      a4:	0000003b 	andeq	r0, r0, fp, lsr r0
      a8:	69050403 	stmdbvs	r5, {r0, r1, sl}
      ac:	0200746e 	andeq	r7, r0, #1845493760	; 0x6e000000
      b0:	00310708 	eorseq	r0, r1, r8, lsl #14
      b4:	08020000 	stmdaeq	r2, {}	; <UNPREDICTABLE>
      b8:	00004805 	andeq	r4, r0, r5, lsl #16
      bc:	07040200 	streq	r0, [r4, -r0, lsl #4]
      c0:	00000036 	andeq	r0, r0, r6, lsr r0
      c4:	00000904 	andeq	r0, r0, r4, lsl #18
      c8:	483c0100 	ldmdami	ip!, {r8}
      cc:	74000000 	strvc	r0, [r0], #-0
      d0:	28016100 	stmdacs	r1, {r8, sp, lr}
      d4:	01000000 	mrseq	r0, (UNDEF: 0)
      d8:	0000989c 	muleq	r0, ip, r8
      dc:	00730500 	rsbseq	r0, r3, r0, lsl #10
      e0:	00983c01 	addseq	r3, r8, r1, lsl #24
      e4:	00000000 	andeq	r0, r0, r0
      e8:	6c060000 	stcvs	0, cr0, [r6], {-0}
      ec:	483e0100 	ldmdami	lr!, {r8}
      f0:	2b000000 	blcs	f8 <_back_addr-0x160ff08>
      f4:	00000000 	andeq	r0, r0, r0
      f8:	009e0407 	addseq	r0, lr, r7, lsl #8
      fc:	a3080000 	movwge	r0, #32768	; 0x8000
     100:	02000000 	andeq	r0, r0, #0
     104:	00190801 	andseq	r0, r9, r1, lsl #16
     108:	c7000000 	strgt	r0, [r0, -r0]
     10c:	04000000 	streq	r0, [r0], #-0
     110:	00008800 	andeq	r8, r0, r0, lsl #16
     114:	60010400 	andvs	r0, r1, r0, lsl #8
     118:	01000000 	mrseq	r0, (UNDEF: 0)
     11c:	000001a1 	andeq	r0, r0, r1, lsr #3
     120:	00000171 	andeq	r0, r0, r1, ror r1
     124:	0161009c 			; <UNDEFINED> instruction: 0x0161009c
     128:	000000a0 	andeq	r0, r0, r0, lsr #1
     12c:	0000008a 	andeq	r0, r0, sl, lsl #1
     130:	10080102 	andne	r0, r8, r2, lsl #2
     134:	02000000 	andeq	r0, r0, #0
     138:	00120601 	andseq	r0, r2, r1, lsl #12
     13c:	02020000 	andeq	r0, r2, #0
     140:	00001e07 	andeq	r1, r0, r7, lsl #28
     144:	05020200 	streq	r0, [r2, #-512]	; 0x200
     148:	00000056 	andeq	r0, r0, r6, asr r0
     14c:	3b070402 	blcc	1c115c <_back_addr-0x144eea4>
     150:	03000000 	movweq	r0, #0
     154:	6e690504 	cdpvs	5, 6, cr0, cr9, cr4, {0}
     158:	08020074 	stmdaeq	r2, {r2, r4, r5, r6}
     15c:	00003107 	andeq	r3, r0, r7, lsl #2
     160:	05080200 	streq	r0, [r8, #-512]	; 0x200
     164:	00000048 	andeq	r0, r0, r8, asr #32
     168:	36070402 	strcc	r0, [r7], -r2, lsl #8
     16c:	04000000 	streq	r0, [r0], #-0
     170:	000001aa 	andeq	r0, r0, sl, lsr #3
     174:	00b23e01 	adcseq	r3, r2, r1, lsl #28
     178:	009c0000 	addseq	r0, ip, r0
     17c:	00a00161 	adceq	r0, r0, r1, ror #2
     180:	9c010000 	stcls	0, cr0, [r1], {-0}
     184:	000000b2 	strheq	r0, [r0], -r2
     188:	00317305 	eorseq	r7, r1, r5, lsl #6
     18c:	00bf3f01 	adcseq	r3, pc, r1, lsl #30
     190:	005b0000 	subseq	r0, fp, r0
     194:	73060000 	movwvc	r0, #24576	; 0x6000
     198:	40010032 	andmi	r0, r1, r2, lsr r0
     19c:	000000bf 	strheq	r0, [r0], -pc	; <UNPREDICTABLE>
     1a0:	73075101 	movwvc	r5, #28929	; 0x7101
     1a4:	bf420100 	svclt	0x00420100
     1a8:	9f000000 	svcls	0x00000000
     1ac:	07000000 	streq	r0, [r0, -r0]
     1b0:	43010074 	movwmi	r0, #4212	; 0x1074
     1b4:	000000bf 	strheq	r0, [r0], -pc	; <UNPREDICTABLE>
     1b8:	000000d5 	ldrdeq	r0, [r0], -r5
     1bc:	b8040800 	stmdalt	r4, {fp}
     1c0:	02000000 	andeq	r0, r0, #0
     1c4:	00190801 	andseq	r0, r9, r1, lsl #16
     1c8:	04080000 	streq	r0, [r8], #-0
     1cc:	000000c5 	andeq	r0, r0, r5, asr #1
     1d0:	0000b809 	andeq	fp, r0, r9, lsl #16
     1d4:	01440000 	mrseq	r0, (UNDEF: 68)
     1d8:	00040000 	andeq	r0, r4, r0
     1dc:	0000010b 	andeq	r0, r0, fp, lsl #2
     1e0:	00600104 	rsbeq	r0, r0, r4, lsl #2
     1e4:	c7010000 	strgt	r0, [r1, -r0]
     1e8:	71000001 	tstvc	r0, r1
     1ec:	3c000001 	stccc	0, cr0, [r0], {1}
     1f0:	94016101 	strls	r6, [r1], #-257	; 0x101
     1f4:	e3000001 	movw	r0, #1
     1f8:	02000000 	andeq	r0, r0, #0
     1fc:	00100801 	andseq	r0, r0, r1, lsl #16
     200:	01020000 	mrseq	r0, (UNDEF: 2)
     204:	00001206 	andeq	r1, r0, r6, lsl #4
     208:	07020200 	streq	r0, [r2, -r0, lsl #4]
     20c:	0000001e 	andeq	r0, r0, lr, lsl r0
     210:	56050202 	strpl	r0, [r5], -r2, lsl #4
     214:	02000000 	andeq	r0, r0, #0
     218:	003b0704 	eorseq	r0, fp, r4, lsl #14
     21c:	04030000 	streq	r0, [r3], #-0
     220:	746e6905 	strbtvc	r6, [lr], #-2309	; 0x905
     224:	07080200 	streq	r0, [r8, -r0, lsl #4]
     228:	00000031 	andeq	r0, r0, r1, lsr r0
     22c:	48050802 	stmdami	r5, {r1, fp}
     230:	02000000 	andeq	r0, r0, #0
     234:	00360704 	eorseq	r0, r6, r4, lsl #14
     238:	bf040000 	svclt	0x00040000
     23c:	01000001 	tsteq	r0, r1
     240:	00005d41 	andeq	r5, r0, r1, asr #26
     244:	61013c00 	tstvs	r1, r0, lsl #24
     248:	00019401 	andeq	r9, r1, r1, lsl #8
     24c:	0e9c0100 	fmleqe	f0, f4, f0
     250:	05000001 	streq	r0, [r0, #-1]
     254:	00727473 	rsbseq	r7, r2, r3, ror r4
     258:	010e4201 	tsteq	lr, r1, lsl #4
     25c:	01000000 	mrseq	r0, (UNDEF: 0)
     260:	b1060000 	mrslt	r0, (UNDEF: 6)
     264:	01000001 	tsteq	r0, r1
     268:	00012043 	andeq	r2, r1, r3, asr #32
     26c:	07510100 	ldrbeq	r0, [r1, -r0, lsl #2]
     270:	000001d1 	ldrdeq	r0, [r0], -r1
     274:	00484401 	subeq	r4, r8, r1, lsl #8
     278:	01370000 	teqeq	r7, r0
     27c:	73080000 	movwvc	r0, #32768	; 0x8000
     280:	0e460100 	dvfeqs	f0, f6, f0
     284:	96000001 	strls	r0, [r0], -r1
     288:	08000001 	stmdaeq	r0, {r0}
     28c:	00636361 	rsbeq	r6, r3, r1, ror #6
     290:	005d4701 	subseq	r4, sp, r1, lsl #14
     294:	01ca0000 	biceq	r0, sl, r0
     298:	d6090000 	strle	r0, [r9], -r0
     29c:	01000001 	tsteq	r0, r1
     2a0:	00005d47 	andeq	r5, r0, r7, asr #26
     2a4:	00021a00 	andeq	r1, r2, r0, lsl #20
     2a8:	00630800 	rsbeq	r0, r3, r0, lsl #16
     2ac:	00484801 	subeq	r4, r8, r1, lsl #16
     2b0:	022d0000 	eoreq	r0, sp, #0
     2b4:	6e080000 	cdpvs	0, 0, cr0, cr8, cr0, {0}
     2b8:	01006765 	tsteq	r0, r5, ror #14
     2bc:	00004849 	andeq	r4, r0, r9, asr #16
     2c0:	00027900 	andeq	r7, r2, r0, lsl #18
     2c4:	6e610800 	cdpvs	8, 6, cr0, cr1, cr0, {0}
     2c8:	49010079 	stmdbmi	r1, {r0, r3, r4, r5, r6}
     2cc:	00000048 	andeq	r0, r0, r8, asr #32
     2d0:	00000299 	muleq	r0, r9, r2
     2d4:	0001b809 	andeq	fp, r1, r9, lsl #16
     2d8:	48490100 	stmdami	r9, {r8}^
     2dc:	da000000 	ble	2e4 <_back_addr-0x160fd1c>
     2e0:	00000002 	andeq	r0, r0, r2
     2e4:	0114040a 	tsteq	r4, sl, lsl #8
     2e8:	190b0000 	stmdbne	fp, {}	; <UNPREDICTABLE>
     2ec:	02000001 	andeq	r0, r0, #1
     2f0:	00190801 	andseq	r0, r9, r1, lsl #16
     2f4:	040a0000 	streq	r0, [sl], #-0
     2f8:	00000126 	andeq	r0, r0, r6, lsr #2
     2fc:	0119040a 	tsteq	r9, sl, lsl #8
     300:	250c0000 	strcs	r0, [ip, #-0]
     304:	37000000 	strcc	r0, [r0, -r0]
     308:	0d000001 	stceq	0, cr0, [r0, #-4]
     30c:	01dd0e00 	bicseq	r0, sp, r0, lsl #28
     310:	12020000 	andne	r0, r2, #0
     314:	00000142 	andeq	r0, r0, r2, asr #2
     318:	00012c0b 	andeq	r2, r1, fp, lsl #24
     31c:	004e0000 	subeq	r0, lr, r0
     320:	00040000 	andeq	r0, r4, r0
     324:	000001cb 	andeq	r0, r0, fp, asr #3
     328:	00600104 	rsbeq	r0, r0, r4, lsl #2
     32c:	e4010000 	str	r0, [r1], #-0
     330:	71000001 	tstvc	r0, r1
     334:	ab000001 	blge	340 <_back_addr-0x160fcc0>
     338:	02000001 	andeq	r0, r0, #1
     33c:	00000034 	andeq	r0, r0, r4, lsr r0
     340:	0000002d 	andeq	r0, r0, sp, lsr #32
     344:	00002d03 	andeq	r2, r0, r3, lsl #26
     348:	0400ff00 	streq	pc, [r0], #-3840	; 0xf00
     34c:	01ec0704 	mvneq	r0, r4, lsl #14
     350:	01040000 	mrseq	r0, (UNDEF: 4)
     354:	00001008 	andeq	r1, r0, r8
     358:	01dd0500 	bicseq	r0, sp, r0, lsl #10
     35c:	20010000 	andcs	r0, r1, r0
     360:	0000004c 	andeq	r0, r0, ip, asr #32
     364:	241c0305 	ldrcs	r0, [ip], #-773	; 0x305
     368:	1d060161 	stfnes	f0, [r6, #-388]	; 0xfffffe7c
     36c:	00000000 	andeq	r0, r0, r0
     370:	00000c31 	andeq	r0, r0, r1, lsr ip
     374:	02100004 	andseq	r0, r0, #4
     378:	01040000 	mrseq	r0, (UNDEF: 4)
     37c:	00000060 	andeq	r0, r0, r0, rrx
     380:	00028001 	andeq	r8, r2, r1
     384:	00033400 	andeq	r3, r3, r0, lsl #8
     388:	6102d000 	mrsvs	sp, (UNDEF: 2)
     38c:	00043001 	andeq	r3, r4, r1
     390:	0001d300 	andeq	sp, r1, r0, lsl #6
     394:	08010200 	stmdaeq	r1, {r9}
     398:	00000010 	andeq	r0, r0, r0, lsl r0
     39c:	12060102 	andne	r0, r6, #-2147483648	; 0x80000000
     3a0:	02000000 	andeq	r0, r0, #0
     3a4:	001e0702 	andseq	r0, lr, r2, lsl #14
     3a8:	02020000 	andeq	r0, r2, #0
     3ac:	00005605 	andeq	r5, r0, r5, lsl #12
     3b0:	02660300 	rsbeq	r0, r6, #0, 6
     3b4:	b4020000 	strlt	r0, [r2], #-0
     3b8:	0000004c 	andeq	r0, r0, ip, asr #32
     3bc:	3b070402 	blcc	1c13cc <_back_addr-0x144ec34>
     3c0:	04000000 	streq	r0, [r0], #-0
     3c4:	6e690504 	cdpvs	5, 6, cr0, cr9, cr4, {0}
     3c8:	08020074 	stmdaeq	r2, {r2, r4, r5, r6}
     3cc:	00003107 	andeq	r3, r0, r7, lsl #2
     3d0:	05080200 	streq	r0, [r8, #-512]	; 0x200
     3d4:	00000048 	andeq	r0, r0, r8, asr #32
     3d8:	36070402 	strcc	r0, [r7], -r2, lsl #8
     3dc:	03000000 	movweq	r0, #0
     3e0:	00000311 	andeq	r0, r0, r1, lsl r3
     3e4:	0068c702 	rsbeq	ip, r8, r2, lsl #14
     3e8:	9d030000 	stcls	0, cr0, [r3, #-0]
     3ec:	02000008 	andeq	r0, r0, #8
     3f0:	000068e5 	andeq	r6, r0, r5, ror #17
     3f4:	8b040500 	blhi	1017fc <_back_addr-0x150e804>
     3f8:	06000000 	streq	r0, [r0], -r0
     3fc:	00000090 	muleq	r0, r0, r0
     400:	19080102 	stmdbne	r8, {r1, r8}
     404:	02000000 	andeq	r0, r0, #0
     408:	01ec0704 	mvneq	r0, r4, lsl #14
     40c:	f5070000 			; <UNDEFINED> instruction: 0xf5070000
     410:	01000001 	tsteq	r0, r1
     414:	0000536f 	andeq	r5, r0, pc, ror #6
     418:	00d40100 	sbcseq	r0, r4, r0, lsl #2
     41c:	17080000 	strne	r0, [r8, -r0]
     420:	01000008 	tsteq	r0, r8
     424:	0000d46f 	andeq	sp, r0, pc, ror #8
     428:	69730900 	ldmdbvs	r3!, {r8, fp}^
     42c:	6f010067 	svcvs	0x00010067
     430:	000000d4 	ldrdeq	r0, [r0], -r4
     434:	00030a0a 	andeq	r0, r3, sl, lsl #20
     438:	53710100 	cmnpl	r1, #0, 2
     43c:	00000000 	andeq	r0, r0, r0
     440:	00000b0b 	andeq	r0, r0, fp, lsl #22
     444:	00250405 	eoreq	r0, r5, r5, lsl #8
     448:	8d0c0000 	stchi	0, cr0, [ip, #-0]
     44c:	01000002 	tsteq	r0, r2
     450:	00005395 	muleq	r0, r5, r3
     454:	012b0100 	teqeq	fp, r0, lsl #2
     458:	63090000 	movwvs	r0, #36864	; 0x9000
     45c:	95010073 	strls	r0, [r1, #-115]	; 0x73
     460:	0000012b 	andeq	r0, r0, fp, lsr #2
     464:	00746309 	rsbseq	r6, r4, r9, lsl #6
     468:	012b9501 	teqeq	fp, r1, lsl #10
     46c:	7c080000 	stcvc	0, cr0, [r8], {-0}
     470:	0100000a 	tsteq	r0, sl
     474:	00007a95 	muleq	r0, r5, sl
     478:	75730d00 	ldrbvc	r0, [r3, #-3328]!	; 0xd00
     47c:	97010031 	smladxls	r1, r1, r0, r0
     480:	00000132 	andeq	r0, r0, r2, lsr r1
     484:	3275730d 	rsbscc	r7, r5, #872415232	; 0x34000000
     488:	32970100 	addscc	r0, r7, #0, 2
     48c:	0d000001 	stceq	0, cr0, [r0, #-4]
     490:	00736572 	rsbseq	r6, r3, r2, ror r5
     494:	00539801 	subseq	r9, r3, r1, lsl #16
     498:	05000000 	streq	r0, [r0, #-0]
     49c:	00013104 	andeq	r3, r1, r4, lsl #2
     4a0:	04050e00 	streq	r0, [r5], #-3584	; 0xe00
     4a4:	00000138 	andeq	r0, r0, r8, lsr r1
     4a8:	00002506 	andeq	r2, r0, r6, lsl #10
     4ac:	021e0700 	andseq	r0, lr, #0, 14
     4b0:	44010000 	strmi	r0, [r1], #-0
     4b4:	00000053 	andeq	r0, r0, r3, asr r0
     4b8:	0001b201 	andeq	fp, r1, r1, lsl #4
     4bc:	08170800 	ldmdaeq	r7, {fp}
     4c0:	44010000 	strmi	r0, [r1], #-0
     4c4:	000000d4 	ldrdeq	r0, [r0], -r4
     4c8:	6e656c09 	cdpvs	12, 6, cr6, cr5, cr9, {0}
     4cc:	4c440100 	stfmie	f0, [r4], {-0}
     4d0:	08000000 	stmdaeq	r0, {}	; <UNPREDICTABLE>
     4d4:	0000031c 	andeq	r0, r0, ip, lsl r3
     4d8:	00d44401 	sbcseq	r4, r4, r1, lsl #8
     4dc:	73090000 	movwvc	r0, #36864	; 0x9000
     4e0:	01006769 	tsteq	r0, r9, ror #14
     4e4:	0000d444 	andeq	sp, r0, r4, asr #8
     4e8:	656b0900 	strbvs	r0, [fp, #-2304]!	; 0x900
     4ec:	44010079 	strmi	r0, [r1], #-121	; 0x79
     4f0:	000001b2 			; <UNDEFINED> instruction: 0x000001b2
     4f4:	0003d10f 	andeq	sp, r3, pc, lsl #2
     4f8:	4c460100 	stfmie	f0, [r6], {-0}
     4fc:	10000000 	andne	r0, r0, r0
     500:	00000294 	muleq	r0, r4, r2
     504:	00534701 	subseq	r4, r3, r1, lsl #14
     508:	a2000000 	andge	r0, r0, #0
     50c:	0b000001 	bleq	518 <_back_addr-0x160fae8>
     510:	740a000b 	strvc	r0, [sl], #-11
     514:	01000002 	tsteq	r0, r2
     518:	0000534c 	andeq	r5, r0, ip, asr #6
     51c:	0b0b0000 	bleq	2c0524 <_back_addr-0x134fadc>
     520:	04050000 	streq	r0, [r5], #-0
     524:	0000004c 	andeq	r0, r0, ip, asr #32
     528:	00020b11 	andeq	r0, r2, r1, lsl fp
     52c:	537b0100 	cmnpl	fp, #0, 2
     530:	d0000000 	andle	r0, r0, r0
     534:	08016102 	stmdaeq	r1, {r1, r8, sp, lr}
     538:	01000000 	mrseq	r0, (UNDEF: 0)
     53c:	039b129c 	orrseq	r1, fp, #156, 4	; 0xc0000009
     540:	80010000 	andhi	r0, r1, r0
     544:	00000053 	andeq	r0, r0, r3, asr r0
     548:	016102d8 	ldrdeq	r0, [r1, #-40]!	; 0xffffffd8
     54c:	00000010 	andeq	r0, r0, r0, lsl r0
     550:	01f69c01 	mvnseq	r9, r1, lsl #24
     554:	66130000 	ldrvs	r0, [r3], -r0
     558:	0100746d 	tsteq	r0, sp, ror #8
     55c:	00008580 	andeq	r8, r0, r0, lsl #11
     560:	70910200 	addsvc	r0, r1, r0, lsl #4
     564:	6d12000b 	ldcvs	0, cr0, [r2, #-44]	; 0xffffffd4
     568:	01000002 	tsteq	r0, r2
     56c:	00025985 	andeq	r5, r2, r5, lsl #19
     570:	6102e800 	tstvs	r2, r0, lsl #16
     574:	00002401 	andeq	r2, r0, r1, lsl #8
     578:	599c0100 	ldmibpl	ip, {r8}
     57c:	14000002 	strne	r0, [r0], #-2
     580:	00000211 	andeq	r0, r0, r1, lsl r2
     584:	02598501 	subseq	r8, r9, #4194304	; 0x400000
     588:	50010000 	andpl	r0, r1, r0
     58c:	63727315 	cmnvs	r2, #1409286144	; 0x54000000
     590:	2b850100 	blcs	fe140998 <__bss_end__+0xfcb1dd48>
     594:	ed000001 	stc	0, cr0, [r0, #-4]
     598:	16000002 	strne	r0, [r0], -r2
     59c:	00000a7c 	andeq	r0, r0, ip, ror sl
     5a0:	007a8501 	rsbseq	r8, sl, r1, lsl #10
     5a4:	030e0000 	movweq	r0, #57344	; 0xe000
     5a8:	f9170000 			; <UNDEFINED> instruction: 0xf9170000
     5ac:	01000002 	tsteq	r0, r2
     5b0:	00025b86 	andeq	r5, r2, r6, lsl #23
     5b4:	00036800 	andeq	r6, r3, r0, lsl #16
     5b8:	02d11700 	sbcseq	r1, r1, #0, 14
     5bc:	87010000 	strhi	r0, [r1, -r0]
     5c0:	0000025b 	andeq	r0, r0, fp, asr r2
     5c4:	0000037b 	andeq	r0, r0, fp, ror r3
     5c8:	05041800 	streq	r1, [r4, #-2048]	; 0x800
     5cc:	00009004 	andeq	r9, r0, r4
     5d0:	00da1900 	sbcseq	r1, sl, r0, lsl #18
     5d4:	030c0000 	movweq	r0, #49152	; 0xc000
     5d8:	00580161 	subseq	r0, r8, r1, ror #2
     5dc:	9c010000 	stcls	0, cr0, [r1], {-0}
     5e0:	000002ab 	andeq	r0, r0, fp, lsr #5
     5e4:	0000ea1a 	andeq	lr, r0, sl, lsl sl
     5e8:	0003a600 	andeq	sl, r3, r0, lsl #12
     5ec:	00f41a00 	rscseq	r1, r4, r0, lsl #20
     5f0:	03f80000 	mvnseq	r0, #0
     5f4:	fe1a0000 	cdp2	0, 1, cr0, cr10, cr0, {0}
     5f8:	24000000 	strcs	r0, [r0], #-0
     5fc:	1b000004 	blne	614 <_back_addr-0x160f9ec>
     600:	00000109 	andeq	r0, r0, r9, lsl #2
     604:	000004a8 	andeq	r0, r0, r8, lsr #9
     608:	0001141b 	andeq	r1, r1, fp, lsl r4
     60c:	00051c00 	andeq	r1, r5, r0, lsl #24
     610:	011f1b00 	tsteq	pc, r0, lsl #22
     614:	05900000 	ldreq	r0, [r0]
     618:	12000000 	andne	r0, r0, #0
     61c:	0000037c 	andeq	r0, r0, ip, ror r3
     620:	0053a101 	subseq	sl, r3, r1, lsl #2
     624:	03640000 	cmneq	r4, #0
     628:	02e00161 	rsceq	r0, r0, #1073741848	; 0x40000018
     62c:	9c010000 	stcls	0, cr0, [r1], {-0}
     630:	00000812 	andeq	r0, r0, r2, lsl r8
     634:	0002d616 	andeq	sp, r2, r6, lsl r6
     638:	12a10100 	adcne	r0, r1, #0, 2
     63c:	1f000008 	svcne	0x00000008
     640:	0f000006 	svceq	0x00000006
     644:	000003da 	ldrdeq	r0, [r0], -sl
     648:	0041a301 	subeq	sl, r1, r1, lsl #6
     64c:	860f0000 	strhi	r0, [pc], -r0
     650:	01000003 	tsteq	r0, r3
     654:	000041a4 	andeq	r4, r0, r4, lsr #3
     658:	65721c00 	ldrbvs	r1, [r2, #-3072]!	; 0xc00
     65c:	a5010073 	strge	r0, [r1, #-115]	; 0x73
     660:	00000053 	andeq	r0, r0, r3, asr r0
     664:	00000640 	andeq	r0, r0, r0, asr #12
     668:	6e656c1c 	mcrvs	12, 3, r6, cr5, cr12, {0}
     66c:	53a60100 			; <UNDEFINED> instruction: 0x53a60100
     670:	79000000 	stmdbvc	r0, {}	; <UNPREDICTABLE>
     674:	1d000006 	stcne	0, cr0, [r0, #-24]	; 0xffffffe8
     678:	00000216 	andeq	r0, r0, r6, lsl r2
     67c:	004ca701 	subeq	sl, ip, r1, lsl #14
     680:	00040000 	andeq	r0, r4, r0
     684:	1c1d0170 	ldfnes	f0, [sp], {112}	; 0x70
     688:	01000003 	tsteq	r0, r3
     68c:	00004ca8 	andeq	r4, r0, r8, lsr #25
     690:	50000000 	andpl	r0, r0, r0
     694:	03eb1e01 	mvneq	r1, #1, 28
     698:	a9010000 	stmdbge	r1, {}	; <UNPREDICTABLE>
     69c:	0000081d 	andeq	r0, r0, sp, lsl r8
     6a0:	7be89103 	blvc	ffa24ab4 <__bss_end__+0xfe401e64>
     6a4:	0003931e 	andeq	r9, r3, lr, lsl r3
     6a8:	1daa0100 	stfnes	f0, [sl]
     6ac:	03000008 	movweq	r0, #8
     6b0:	1f7de891 	svcne	0x007de891
     6b4:	00313172 	eorseq	r3, r1, r2, ror r1
     6b8:	082dab01 	stmdaeq	sp!, {r0, r8, r9, fp, sp, pc}
     6bc:	01950000 	orrseq	r0, r5, r0
     6c0:	9f320193 	svcls	0x00320193
     6c4:	9f310193 	svcls	0x00310193
     6c8:	21080193 			; <UNDEFINED> instruction: 0x21080193
     6cc:	0801939f 	stmdaeq	r1, {r0, r1, r2, r3, r4, r7, r8, r9, ip, pc}
     6d0:	01939f4a 	orrseq	r9, r3, sl, asr #30
     6d4:	939f2c08 	orrsls	r2, pc, #8, 24	; 0x800
     6d8:	9f850901 	svcls	0x00850901
     6dc:	82090193 	andhi	r0, r9, #-1073741788	; 0xc0000024
     6e0:	0801939f 	stmdaeq	r1, {r0, r1, r2, r3, r4, r7, r8, r9, ip, pc}
     6e4:	01939f7a 	orrseq	r9, r3, sl, ror pc
     6e8:	939f2108 	orrsls	r2, pc, #8, 2
     6ec:	9f340801 	svcls	0x00340801
     6f0:	3d080193 	stfccs	f0, [r8, #-588]	; 0xfffffdb4
     6f4:	4401939f 	strmi	r9, [r1], #-927	; 0x39f
     6f8:	9301939f 	movwls	r9, #5023	; 0x139f
     6fc:	939f4401 	orrsls	r4, pc, #16777216	; 0x1000000
     700:	9f990901 	svcls	0x00990901
     704:	20080193 	mulcs	r8, r3, r1
     708:	0901939f 	stmdbeq	r1, {r0, r1, r2, r3, r4, r7, r8, r9, ip, pc}
     70c:	01939fa2 	orrseq	r9, r3, r2, lsr #31
     710:	01939f32 	orrseq	r9, r3, r2, lsr pc
     714:	939f2208 	orrsls	r2, pc, #8, 4	; 0x80000000
     718:	9fb50901 	svcls	0x00b50901
     71c:	9f4b0193 	svcls	0x004b0193
     720:	21080193 			; <UNDEFINED> instruction: 0x21080193
     724:	4a01939f 	bmi	655a8 <_back_addr-0x15aaa58>
     728:	0801939f 	stmdaeq	r1, {r0, r1, r2, r3, r4, r7, r8, r9, ip, pc}
     72c:	01939f71 	orrseq	r9, r3, r1, ror pc
     730:	939f2208 	orrsls	r2, pc, #8, 4	; 0x80000000
     734:	9fa00901 	svcls	0x00a00901
     738:	2d080193 	stfcss	f0, [r8, #-588]	; 0xfffffdb4
     73c:	0801939f 	stmdaeq	r1, {r0, r1, r2, r3, r4, r7, r8, r9, ip, pc}
     740:	01939f31 	orrseq	r9, r3, r1, lsr pc
     744:	01939f3a 	orrseq	r9, r3, sl, lsr pc
     748:	939f3408 	orrsls	r3, pc, #8, 8	; 0x8000000
     74c:	9f290801 	svcls	0x00290801
     750:	e0930193 	umulls	r0, r3, r3, r1
     754:	39721f03 	ldmdbcc	r2!, {r0, r1, r8, r9, sl, fp, ip}^
     758:	3ebd0100 	frdcce	f0, f5, f0
     75c:	03000008 	movweq	r0, #8
     760:	1f7bc891 	svcne	0x007bc891
     764:	00303172 	eorseq	r3, r0, r2, ror r1
     768:	083ec301 	ldmdaeq	lr!, {r0, r8, r9, lr, pc}
     76c:	93150000 	tstls	r5, #0
     770:	9f300803 	svcls	0x00300803
     774:	04930193 	ldreq	r0, [r3], #403	; 0x193
     778:	01939f32 	orrseq	r9, r3, r2, lsr pc
     77c:	9f380593 	svcls	0x00380593
     780:	01930193 			; <UNDEFINED> instruction: 0x01930193
     784:	3231721f 	eorscc	r7, r1, #-268435455	; 0xf0000001
     788:	3ec90100 	polcce	f0, f1, f0
     78c:	03000008 	movweq	r0, #8
     790:	207bd891 			; <UNDEFINED> instruction: 0x207bd891
     794:	00000294 	muleq	r0, r4, r2
     798:	00534701 	subseq	r4, r3, r1, lsl #14
     79c:	04340000 	ldrteq	r0, [r4], #-0
     7a0:	000b0000 	andeq	r0, fp, r0
     7a4:	0002ca20 	andeq	ip, r2, r0, lsr #20
     7a8:	53e90100 	mvnpl	r0, #0, 2
     7ac:	45000000 	strmi	r0, [r0, #-0]
     7b0:	0b000004 	bleq	7c8 <_back_addr-0x160f838>
     7b4:	02742000 	rsbseq	r2, r4, #0
     7b8:	4c010000 	stcmi	0, cr0, [r1], {-0}
     7bc:	00000053 	andeq	r0, r0, r3, asr r0
     7c0:	00000456 	andeq	r0, r0, r6, asr r4
     7c4:	3d21000b 	stccc	0, cr0, [r1, #-44]!	; 0xffffffd4
     7c8:	f4000001 	vst4.8	{d0-d3}, [r0], r1
     7cc:	c4016104 	strgt	r6, [r1], #-260	; 0x104
     7d0:	01000000 	mrseq	r0, (UNDEF: 0)
     7d4:	05b10110 	ldreq	r0, [r1, #272]!	; 0x110
     7d8:	4d220000 	stcmi	0, cr0, [r2, #-0]
     7dc:	04000001 	streq	r0, [r0], #-1
     7e0:	22017000 	andcs	r7, r1, #0
     7e4:	00000163 	andeq	r0, r0, r3, ror #2
     7e8:	01500000 	cmpeq	r0, r0
     7ec:	0001791a 	andeq	r7, r1, sl, lsl r9
     7f0:	0006a200 	andeq	sl, r6, r0, lsl #4
     7f4:	016e1a00 	cmneq	lr, r0, lsl #20
     7f8:	06dc0000 	ldrbeq	r0, [ip], r0
     7fc:	58230000 	stmdapl	r3!, {}	; <UNPREDICTABLE>
     800:	01000001 	tsteq	r0, r1
     804:	04f42454 	ldrbteq	r2, [r4], #1108	; 0x454
     808:	00c40161 	sbceq	r0, r4, r1, ror #2
     80c:	841b0000 	ldrhi	r0, [fp], #-0
     810:	3d000001 	stccc	0, cr0, [r0, #-4]
     814:	25000007 	strcs	r0, [r0, #-7]
     818:	016104fc 	strdeq	r0, [r1, #-76]!	; 0xffffffb4
     81c:	00000b1a 	andeq	r0, r0, sl, lsl fp
     820:	61050825 	tstvs	r5, r5, lsr #16
     824:	000b1a01 	andeq	r1, fp, r1, lsl #20
     828:	05142500 	ldreq	r2, [r4, #-1280]	; 0x500
     82c:	0b1a0161 	bleq	680db8 <_back_addr-0xf8f248>
     830:	20250000 	eorcs	r0, r5, r0
     834:	1a016105 	bne	58c50 <_back_addr-0x15b73b0>
     838:	2600000b 	strcs	r0, [r0], -fp
     83c:	01610548 	cmneq	r1, r8, asr #10
     840:	00000b2b 	andeq	r0, r0, fp, lsr #22
     844:	000004e6 	andeq	r0, r0, r6, ror #9
     848:	03520127 	cmpeq	r2, #-1073741815	; 0xc0000009
     84c:	27244445 	strcs	r4, [r4, -r5, asr #8]!
     850:	7d025301 	stcvc	3, cr5, [r2, #-4]
     854:	54260000 	strtpl	r0, [r6], #-0
     858:	4f016105 	svcmi	0x00016105
     85c:	0000000b 	andeq	r0, r0, fp
     860:	27000005 	strcs	r0, [r0, -r5]
     864:	45035001 	strmi	r5, [r3, #-1]
     868:	01272444 	teqeq	r7, r4, asr #8
     86c:	00400151 	subeq	r0, r0, r1, asr r1
     870:	61056026 	tstvs	r5, r6, lsr #32
     874:	000b4f01 	andeq	r4, fp, r1, lsl #30
     878:	00051900 	andeq	r1, r5, r0, lsl #18
     87c:	50012700 	andpl	r2, r1, r0, lsl #14
     880:	27007402 	strcs	r7, [r0, -r2, lsl #8]
     884:	40015101 	andmi	r5, r1, r1, lsl #2
     888:	05782600 	ldrbeq	r2, [r8, #-1536]!	; 0x600
     88c:	0b4f0161 	bleq	13c0e18 <_back_addr-0x24f1e8>
     890:	05320000 	ldreq	r0, [r2, #-0]!
     894:	01270000 	teqeq	r7, r0
     898:	00750250 	rsbseq	r0, r5, r0, asr r2
     89c:	01510127 	cmpeq	r1, r7, lsr #2
     8a0:	80260034 	eorhi	r0, r6, r4, lsr r0
     8a4:	1a016105 	bne	58cc0 <_back_addr-0x15b7340>
     8a8:	4600000b 	strmi	r0, [r0], -fp
     8ac:	27000005 	strcs	r0, [r0, -r5]
     8b0:	75025001 	strvc	r5, [r2, #-1]
     8b4:	8c260000 	stchi	0, cr0, [r6], #-0
     8b8:	4f016105 	svcmi	0x00016105
     8bc:	5900000b 	stmdbpl	r0, {r0, r1, r3}
     8c0:	27000005 	strcs	r0, [r0, -r5]
     8c4:	34015101 	strcc	r5, [r1], #-257	; 0x101
     8c8:	05982600 	ldreq	r2, [r8, #1536]	; 0x600
     8cc:	0b4f0161 	bleq	13c0e58 <_back_addr-0x24f1a8>
     8d0:	05720000 	ldrbeq	r0, [r2, #-0]!
     8d4:	01270000 	teqeq	r7, r0
     8d8:	00750250 	rsbseq	r0, r5, r0, asr r2
     8dc:	01510127 	cmpeq	r1, r7, lsr #2
     8e0:	ac260034 	stcge	0, cr0, [r6], #-208	; 0xffffff30
     8e4:	60016105 	andvs	r6, r1, r5, lsl #2
     8e8:	9900000b 	stmdbls	r0, {r0, r1, r3}
     8ec:	27000005 	strcs	r0, [r0, -r5]
     8f0:	45035001 	strmi	r5, [r3, #-1]
     8f4:	01272444 	teqeq	r7, r4, asr #8
     8f8:	00750251 	rsbseq	r0, r5, r1, asr r2
     8fc:	03520127 	cmpeq	r2, #-1073741815	; 0xc0000009
     900:	277be091 			; <UNDEFINED> instruction: 0x277be091
     904:	30015301 	andcc	r5, r1, r1, lsl #6
     908:	05b82800 	ldreq	r2, [r8, #2048]!	; 0x800
     90c:	0b4f0161 	bleq	13c0e98 <_back_addr-0x24f168>
     910:	01270000 	teqeq	r7, r0
     914:	e0910350 	adds	r0, r1, r0, asr r3
     918:	5101277b 	tstpl	r1, fp, ror r7
     91c:	00004001 	andeq	r4, r0, r1
     920:	009e2100 	addseq	r2, lr, r0, lsl #2
     924:	05bc0000 	ldreq	r0, [ip, #0]!
     928:	00180161 	andseq	r0, r8, r1, ror #2
     92c:	13010000 	movwne	r0, #4096	; 0x1000
     930:	0005ff01 	andeq	pc, r5, r1, lsl #30
     934:	00b91a00 	adcseq	r1, r9, r0, lsl #20
     938:	07720000 	ldrbeq	r0, [r2, -r0]!
     93c:	ae230000 	cdpge	0, 2, cr0, cr3, cr0, {0}
     940:	06000000 	streq	r0, [r0], -r0
     944:	c0808474 	addgt	r8, r0, r4, ror r4
     948:	bc249f0b 	stclt	15, cr9, [r4], #-44	; 0xffffffd4
     94c:	18016105 	stmdane	r1, {r0, r2, r8, sp, lr}
     950:	28000000 	stmdacs	r0, {}	; <UNPREDICTABLE>
     954:	016105d4 	ldrdeq	r0, [r1, #-84]!	; 0xffffffac
     958:	00000b84 	andeq	r0, r0, r4, lsl #23
     95c:	05500127 	ldrbeq	r0, [r0, #-295]	; 0x127
     960:	c0808474 	addgt	r8, r0, r4, ror r4
     964:	5201270b 	andpl	r2, r1, #2883584	; 0x2c0000
     968:	7de09103 	stfvcp	f1, [r0, #12]!
     96c:	21000000 	mrscs	r0, (UNDEF: 0)
     970:	000000da 	ldrdeq	r0, [r0], -sl
     974:	016105d8 	ldrdeq	r0, [r1, #-88]!	; 0xffffffa8
     978:	0000003c 	andeq	r0, r0, ip, lsr r0
     97c:	54011601 	strpl	r1, [r1], #-1537	; 0x601
     980:	1a000006 	bne	9a0 <_back_addr-0x160f660>
     984:	000000fe 	strdeq	r0, [r0], -lr
     988:	000007ba 			; <UNDEFINED> instruction: 0x000007ba
     98c:	0000f41a 	andeq	pc, r0, sl, lsl r4	; <UNPREDICTABLE>
     990:	0007f400 	andeq	pc, r7, r0, lsl #8
     994:	00ea1a00 	rsceq	r1, sl, r0, lsl #20
     998:	08230000 	stmdaeq	r3!, {}	; <UNPREDICTABLE>
     99c:	d8240000 	stmdale	r4!, {}	; <UNPREDICTABLE>
     9a0:	3c016105 	stfccs	f6, [r1], {5}
     9a4:	1b000000 	blne	9ac <_back_addr-0x160f654>
     9a8:	00000109 	andeq	r0, r0, r9, lsl #2
     9ac:	00000852 	andeq	r0, r0, r2, asr r8
     9b0:	0001141b 	andeq	r1, r1, fp, lsl r4
     9b4:	00088d00 	andeq	r8, r8, r0, lsl #26
     9b8:	011f1b00 	tsteq	pc, r0, lsl #22
     9bc:	08ca0000 	stmiaeq	sl, {}^	; <UNPREDICTABLE>
     9c0:	00000000 	andeq	r0, r0, r0
     9c4:	61038826 	tstvs	r3, r6, lsr #16
     9c8:	000b9501 	andeq	r9, fp, r1, lsl #10
     9cc:	00067500 	andeq	r7, r6, r0, lsl #10
     9d0:	50012700 	andpl	r2, r1, r0, lsl #14
     9d4:	7be09103 	blvc	ff824de8 <__bss_end__+0xfe202198>
     9d8:	01510127 	cmpeq	r1, r7, lsr #2
     9dc:	52012730 	andpl	r2, r1, #48, 14	; 0xc00000
     9e0:	01000a03 	tsteq	r0, r3, lsl #20
     9e4:	039c2600 	orrseq	r2, ip, #0, 12
     9e8:	0b950161 	bleq	fe540f74 <__bss_end__+0xfcf1e324>
     9ec:	06970000 	ldreq	r0, [r7], r0
     9f0:	01270000 	teqeq	r7, r0
     9f4:	e0910350 	adds	r0, r1, r0, asr r3
     9f8:	5101277d 	tstpl	r1, sp, ror r7
     9fc:	27007402 	strcs	r7, [r0, -r2, lsl #8]
     a00:	0a035201 	beq	d520c <_back_addr-0x153adf4>
     a04:	26000100 	strcs	r0, [r0], -r0, lsl #2
     a08:	01610458 	cmneq	r1, r8, asr r4
     a0c:	00000bb2 			; <UNDEFINED> instruction: 0x00000bb2
     a10:	000006b9 			; <UNDEFINED> instruction: 0x000006b9
     a14:	03500127 	cmpeq	r0, #-1073741815	; 0xc0000009
     a18:	277be091 			; <UNDEFINED> instruction: 0x277be091
     a1c:	74025101 	strvc	r5, [r2], #-257	; 0x101
     a20:	52012700 	andpl	r2, r1, #0, 14
     a24:	01000a03 	tsteq	r0, r3, lsl #20
     a28:	04682600 	strbteq	r2, [r8], #-1536	; 0x600
     a2c:	0bb20161 	bleq	fec80fb8 <__bss_end__+0xfd65e368>
     a30:	06db0000 	ldrbeq	r0, [fp], r0
     a34:	01270000 	teqeq	r7, r0
     a38:	e0910350 	adds	r0, r1, r0, asr r3
     a3c:	5101277d 	tstpl	r1, sp, ror r7
     a40:	27007402 	strcs	r7, [r0, -r2, lsl #8]
     a44:	0a035201 	beq	d5250 <_back_addr-0x153adb0>
     a48:	26000100 	strcs	r0, [r0], -r0, lsl #2
     a4c:	01610470 	smceq	4160	; 0x1040
     a50:	00000b1a 	andeq	r0, r0, sl, lsl fp
     a54:	000006ef 	andeq	r0, r0, pc, ror #13
     a58:	02500127 	subseq	r0, r0, #-1073741815	; 0xc0000009
     a5c:	26000076 			; <UNDEFINED> instruction: 0x26000076
     a60:	01610480 	smulbbeq	r1, r0, r4
     a64:	00000bd1 	ldrdeq	r0, [r0], -r1
     a68:	00000706 	andeq	r0, r0, r6, lsl #14
     a6c:	05500127 	ldrbeq	r0, [r0, #-295]	; 0x127
     a70:	61253c03 	teqvs	r5, r3, lsl #24
     a74:	8c260001 	stchi	0, cr0, [r6], #-4
     a78:	4f016104 	svcmi	0x00016104
     a7c:	1f00000b 	svcne	0x0000000b
     a80:	27000007 	strcs	r0, [r0, -r7]
     a84:	74025001 	strvc	r5, [r2], #-1
     a88:	51012700 	tstpl	r1, r0, lsl #14
     a8c:	26003401 	strcs	r3, [r0], -r1, lsl #8
     a90:	01610498 			; <UNDEFINED> instruction: 0x01610498
     a94:	00000bd1 	ldrdeq	r0, [r0], -r1
     a98:	00000736 	andeq	r0, r0, r6, lsr r7
     a9c:	05500127 	ldrbeq	r0, [r0, #-295]	; 0x127
     aa0:	61255c03 	teqvs	r5, r3, lsl #24
     aa4:	a4260001 	strtge	r0, [r6], #-1
     aa8:	d1016104 	tstle	r1, r4, lsl #2
     aac:	4d00000b 	stcmi	0, cr0, [r0, #-44]	; 0xffffffd4
     ab0:	27000007 	strcs	r0, [r0, -r7]
     ab4:	03055001 	movweq	r5, #20481	; 0x5001
     ab8:	0161257c 	smceq	4700	; 0x125c
     abc:	04a82500 	strteq	r2, [r8], #1280	; 0x500
     ac0:	0be20161 	bleq	ff88104c <__bss_end__+0xfe25e3fc>
     ac4:	b8260000 	stmdalt	r6!, {}	; <UNPREDICTABLE>
     ac8:	4f016104 	svcmi	0x00016104
     acc:	6900000b 	stmdbvs	r0, {r0, r1, r3}
     ad0:	27000007 	strcs	r0, [r0, -r7]
     ad4:	40015101 	andmi	r5, r1, r1, lsl #2
     ad8:	04c42600 	strbeq	r2, [r4], #1536	; 0x600
     adc:	0b4f0161 	bleq	13c1068 <_back_addr-0x24ef98>
     ae0:	07820000 	streq	r0, [r2, r0]
     ae4:	01270000 	teqeq	r7, r0
     ae8:	007d0250 	rsbseq	r0, sp, r0, asr r2
     aec:	01510127 	cmpeq	r1, r7, lsr #2
     af0:	d0260040 	eorle	r0, r6, r0, asr #32
     af4:	4f016104 	svcmi	0x00016104
     af8:	9c00000b 	stcls	0, cr0, [r0], {11}
     afc:	27000007 	strcs	r0, [r0, -r7]
     b00:	91035001 	tstls	r3, r1
     b04:	01277bd0 	ldrdeq	r7, [r7, -r0]!
     b08:	00400151 	subeq	r0, r0, r1, asr r1
     b0c:	6104e826 	tstvs	r4, r6, lsr #16
     b10:	000be901 	andeq	lr, fp, r1, lsl #18
     b14:	0007bc00 	andeq	fp, r7, r0, lsl #24
     b18:	51012700 	tstpl	r1, r0, lsl #14
     b1c:	01274001 	teqeq	r7, r1
     b20:	007d0252 	rsbseq	r0, sp, r2, asr r2
     b24:	03530127 	cmpeq	r3, #-1073741815	; 0xc0000009
     b28:	007bd091 			; <UNDEFINED> instruction: 0x007bd091
     b2c:	6104f426 	tstvs	r4, r6, lsr #8
     b30:	000b4f01 	andeq	r4, fp, r1, lsl #30
     b34:	0007d500 	andeq	sp, r7, r0, lsl #10
     b38:	50012700 	andpl	r2, r1, r0, lsl #14
     b3c:	27007d02 	strcs	r7, [r0, -r2, lsl #26]
     b40:	40015101 	andmi	r5, r1, r1, lsl #2
     b44:	05bc2500 	ldreq	r2, [ip, #1280]!	; 0x500
     b48:	0be20161 	bleq	ff8810d4 <__bss_end__+0xfe25e484>
     b4c:	d8250000 	stmdale	r5!, {}	; <UNPREDICTABLE>
     b50:	e2016105 	and	r6, r1, #1073741825	; 0x40000001
     b54:	2600000b 	strcs	r0, [r0], -fp
     b58:	01610620 	cmneq	r1, r0, lsr #12
     b5c:	00000bd1 	ldrdeq	r0, [r0], -r1
     b60:	000007fe 	strdeq	r0, [r0], -lr
     b64:	05500127 	ldrbeq	r0, [r0, #-295]	; 0x127
     b68:	61259403 	teqvs	r5, r3, lsl #8
     b6c:	38280001 	stmdacc	r8!, {r0}
     b70:	d1016106 	tstle	r1, r6, lsl #2
     b74:	2700000b 	strcs	r0, [r0, -fp]
     b78:	03055001 	movweq	r5, #20481	; 0x5001
     b7c:	01612588 	cmneq	r1, r8, lsl #11
     b80:	04050000 	streq	r0, [r5], #-0
     b84:	00000818 	andeq	r0, r0, r8, lsl r8
     b88:	00025b06 	andeq	r5, r2, r6, lsl #22
     b8c:	00252900 	eoreq	r2, r5, r0, lsl #18
     b90:	082d0000 	stmdaeq	sp!, {}	; <UNPREDICTABLE>
     b94:	972a0000 	strls	r0, [sl, -r0]!
     b98:	ff000000 			; <UNDEFINED> instruction: 0xff000000
     b9c:	00252900 	eoreq	r2, r5, r0, lsl #18
     ba0:	083e0000 	ldmdaeq	lr!, {}	; <UNPREDICTABLE>
     ba4:	972b0000 	strls	r0, [fp, -r0]!
     ba8:	ff000000 			; <UNDEFINED> instruction: 0xff000000
     bac:	25290001 	strcs	r0, [r9, #-1]!
     bb0:	4e000000 	cdpmi	0, 0, cr0, cr0, cr0, {0}
     bb4:	2a000008 	bcs	bdc <_back_addr-0x160f424>
     bb8:	00000097 	muleq	r0, r7, r0
     bbc:	402c000f 	eormi	r0, ip, pc
     bc0:	01000002 	tsteq	r0, r2
     bc4:	0068012d 	rsbeq	r0, r8, sp, lsr #2
     bc8:	06440000 	strbeq	r0, [r4], -r0
     bcc:	00140161 	andseq	r0, r4, r1, ror #2
     bd0:	9c010000 	stcls	0, cr0, [r1], {-0}
     bd4:	000008b1 			; <UNDEFINED> instruction: 0x000008b1
     bd8:	0002eb2d 	andeq	lr, r2, sp, lsr #22
     bdc:	012d0100 	teqeq	sp, r0, lsl #2
     be0:	000008c5 	andeq	r0, r0, r5, asr #17
     be4:	00000976 	andeq	r0, r0, r6, ror r9
     be8:	0003172d 	andeq	r1, r3, sp, lsr #14
     bec:	012d0100 	teqeq	sp, r0, lsl #2
     bf0:	00000053 	andeq	r0, r0, r3, asr r0
     bf4:	000009a2 	andeq	r0, r0, r2, lsr #19
     bf8:	0002d62d 	andeq	sp, r2, sp, lsr #12
     bfc:	012d0100 	teqeq	sp, r0, lsl #2
     c00:	00000812 	andeq	r0, r0, r2, lsl r8
     c04:	000009ce 	andeq	r0, r0, lr, asr #19
     c08:	6106582e 	tstvs	r6, lr, lsr #16
     c0c:	01f30301 	mvnseq	r0, r1, lsl #6
     c10:	50012750 	andpl	r2, r1, r0, asr r7
     c14:	5101f303 	tstpl	r1, r3, lsl #6
     c18:	03510127 	cmpeq	r1, #-1073741815	; 0xc0000009
     c1c:	005201f3 	ldrsheq	r0, [r2], #-19	; 0xffffffed
     c20:	006f2f00 	rsbeq	r2, pc, r0, lsl #30
     c24:	08c50000 	stmiaeq	r5, {}^	; <UNPREDICTABLE>
     c28:	53300000 	teqpl	r0, #0
     c2c:	30000000 	andcc	r0, r0, r0
     c30:	00000812 	andeq	r0, r0, r2, lsl r8
     c34:	b1040500 	tstlt	r4, r0, lsl #10
     c38:	31000008 	tstcc	r0, r8
     c3c:	000002b6 			; <UNDEFINED> instruction: 0x000002b6
     c40:	01013101 	tsteq	r1, r1, lsl #2
     c44:	00000937 	andeq	r0, r0, r7, lsr r9
     c48:	00031732 	andeq	r1, r3, r2, lsr r7
     c4c:	01310100 	teqeq	r1, r0, lsl #2
     c50:	00000053 	andeq	r0, r0, r3, asr r0
     c54:	0002d632 	andeq	sp, r2, r2, lsr r6
     c58:	01310100 	teqeq	r1, r0, lsl #2
     c5c:	00000812 	andeq	r0, r0, r2, lsl r8
     c60:	00637233 	rsbeq	r7, r3, r3, lsr r2
     c64:	68013301 	stmdavs	r1, {r0, r8, r9, ip, sp}
     c68:	34000000 	strcc	r0, [r0], #-0
     c6c:	000003a2 	andeq	r0, r0, r2, lsr #7
     c70:	4c013401 	cfstrsmi	mvf3, [r1], {1}
     c74:	34000000 	strcc	r0, [r0], #-0
     c78:	00000817 	andeq	r0, r0, r7, lsl r8
     c7c:	37013501 	strcc	r3, [r1, -r1, lsl #10]
     c80:	10000009 	andne	r0, r0, r9
     c84:	000002ca 	andeq	r0, r0, sl, asr #5
     c88:	0053e901 	subseq	lr, r3, r1, lsl #18
     c8c:	26000000 	strcs	r0, [r0], -r0
     c90:	0b000009 	bleq	cbc <_back_addr-0x160f344>
     c94:	b235000b 	eorslt	r0, r5, #11
     c98:	01000003 	tsteq	r0, r3
     c9c:	0053013a 	subseq	r0, r3, sl, lsr r1
     ca0:	0b000000 	bleq	ca8 <_back_addr-0x160f358>
     ca4:	3600000b 	strcc	r0, [r0], -fp
     ca8:	0000004c 	andeq	r0, r0, ip, asr #32
     cac:	00024b2c 	andeq	r4, r2, ip, lsr #22
     cb0:	01510100 	cmpeq	r1, r0, lsl #2
     cb4:	00000053 	andeq	r0, r0, r3, asr r0
     cb8:	01610658 	cmneq	r1, r8, asr r6
     cbc:	000000a8 	andeq	r0, r0, r8, lsr #1
     cc0:	0ac79c01 	beq	ff1e7ccc <__bss_end__+0xfdbc507c>
     cc4:	172d0000 	strne	r0, [sp, -r0]!
     cc8:	01000003 	tsteq	r0, r3
     ccc:	00530151 	subseq	r0, r3, r1, asr r1
     cd0:	09ef0000 	stmibeq	pc!, {}^	; <UNPREDICTABLE>
     cd4:	d62d0000 	strtle	r0, [sp], -r0
     cd8:	01000002 	tsteq	r0, r2
     cdc:	08120151 	ldmdaeq	r2, {r0, r4, r6, r8}
     ce0:	0a0d0000 	beq	340ce8 <_back_addr-0x12cf318>
     ce4:	72370000 	eorsvc	r0, r7, #0
     ce8:	01007465 	tsteq	r0, r5, ror #8
     cec:	00530153 	subseq	r0, r3, r3, asr r1
     cf0:	0a2b0000 	beq	ac0cf8 <_back_addr-0xb4f308>
     cf4:	a7380000 	ldrge	r0, [r8, -r0]!
     cf8:	01000002 	tsteq	r0, r2
     cfc:	004c0154 	subeq	r0, ip, r4, asr r1
     d00:	25390000 	ldrcs	r0, [r9, #-0]!
     d04:	01000003 	tsteq	r0, r3
     d08:	00530158 	subseq	r0, r3, r8, asr r1
     d0c:	09a40000 	stmibeq	r4!, {}	; <UNPREDICTABLE>
     d10:	000b0000 	andeq	r0, fp, r0
     d14:	0002ca20 	andeq	ip, r2, r0, lsr #20
     d18:	53e90100 	mvnpl	r0, #0, 2
     d1c:	b5000000 	strlt	r0, [r0, #-0]
     d20:	0b000009 	bleq	d4c <_back_addr-0x160f2b4>
     d24:	06ac3a00 	strteq	r3, [ip], r0, lsl #20
     d28:	00480161 	subeq	r0, r8, r1, ror #2
     d2c:	0a820000 	beq	fe080d34 <__bss_end__+0xfca5e0e4>
     d30:	ca200000 	bgt	800d38 <_back_addr-0xe0f2c8>
     d34:	01000002 	tsteq	r0, r2
     d38:	000053e9 	andeq	r5, r0, r9, ror #7
     d3c:	0009d300 	andeq	sp, r9, r0, lsl #6
     d40:	21000b00 	tstcs	r0, r0, lsl #22
     d44:	000008cb 	andeq	r0, r0, fp, asr #17
     d48:	016106b8 	strheq	r0, [r1, #-104]!	; 0xffffff98
     d4c:	0000003c 	andeq	r0, r0, ip, lsr r0
     d50:	6e015e01 	cdpvs	14, 0, cr5, cr1, cr1, {0}
     d54:	2300000a 	movwcs	r0, #10
     d58:	000008e4 	andeq	r0, r0, r4, ror #17
     d5c:	d8235501 	stmdale	r3!, {r0, r8, sl, ip, lr}
     d60:	01000008 	tsteq	r0, r8
     d64:	06b82456 	ssateq	r2, #25, r6, asr #8
     d68:	003c0161 	eorseq	r0, ip, r1, ror #2
     d6c:	f01b0000 			; <UNDEFINED> instruction: 0xf01b0000
     d70:	56000008 	strpl	r0, [r0], -r8
     d74:	3b00000a 	blcc	da4 <_back_addr-0x160f25c>
     d78:	000008fb 	strdeq	r0, [r0], -fp
     d7c:	0009073c 	andeq	r0, r9, ip, lsr r7
     d80:	6c910200 	lfmvs	f0, 4, [r1], {0}
     d84:	6106d026 	tstvs	r6, r6, lsr #32
     d88:	00084e01 	andeq	r4, r8, r1, lsl #28
     d8c:	000a2e00 	andeq	r2, sl, r0, lsl #28
     d90:	51012700 	tstpl	r1, r0, lsl #14
     d94:	277f7602 	ldrbcs	r7, [pc, -r2, lsl #12]!
     d98:	75025201 	strvc	r5, [r2, #-513]	; 0x201
     d9c:	e0260004 	eor	r0, r6, r4
     da0:	d1016106 	tstle	r1, r6, lsl #2
     da4:	4500000b 	strmi	r0, [r0, #-11]
     da8:	2700000a 	strcs	r0, [r0, -sl]
     dac:	03055001 	movweq	r5, #20481	; 0x5001
     db0:	016125c8 	cmneq	r1, r8, asr #11
     db4:	06e82600 	strbteq	r2, [r8], r0, lsl #12
     db8:	0c0d0161 	stfeqs	f0, [sp], {97}	; 0x61
     dbc:	0a590000 	beq	1640dc4 <__bss_end__+0x1e174>
     dc0:	01270000 	teqeq	r7, r0
     dc4:	00740250 	rsbseq	r0, r4, r0, asr r2
     dc8:	06f42800 	ldrbteq	r2, [r4], r0, lsl #16
     dcc:	0bd10161 	bleq	ff441358 <__bss_end__+0xfde1e708>
     dd0:	01270000 	teqeq	r7, r0
     dd4:	84030550 	strhi	r0, [r3], #-1360	; 0x550
     dd8:	00016125 	andeq	r6, r1, r5, lsr #2
     ddc:	b8280000 	stmdalt	r8!, {}	; <UNPREDICTABLE>
     de0:	d1016106 	tstle	r1, r6, lsl #2
     de4:	2700000b 	strcs	r0, [r0, -fp]
     de8:	03055001 	movweq	r5, #20481	; 0x5001
     dec:	016125a4 	cmneq	r1, r4, lsr #11
     df0:	7c250000 	stcvc	0, cr0, [r5], #-0
     df4:	1f016106 	svcne	0x00016106
     df8:	2600000c 	strcs	r0, [r0], -ip
     dfc:	01610684 	smulbbeq	r1, r4, r6
     e00:	00000c26 	andeq	r0, r0, r6, lsr #24
     e04:	00000a9f 	muleq	r0, pc, sl	; <UNPREDICTABLE>
     e08:	02500127 	subseq	r0, r0, #-1073741815	; 0xc0000009
     e0c:	26000074 			; <UNDEFINED> instruction: 0x26000074
     e10:	0161068c 	smulbbeq	r1, ip, r6
     e14:	000002ab 	andeq	r0, r0, fp, lsr #5
     e18:	00000ab3 			; <UNDEFINED> instruction: 0x00000ab3
     e1c:	02500127 	subseq	r0, r0, #-1073741815	; 0xc0000009
     e20:	28000075 	stmdacs	r0, {r0, r2, r4, r5, r6}
     e24:	016106a0 	smultbeq	r1, r0, r6
     e28:	00000bd1 	ldrdeq	r0, [r0], -r1
     e2c:	05500127 	ldrbeq	r0, [r0, #-295]	; 0x127
     e30:	6125f003 	msrvs	CPSR_sc, r3
     e34:	29000001 	stmdbcs	r0, {r0}
     e38:	00000025 	andeq	r0, r0, r5, lsr #32
     e3c:	00000ad2 	ldrdeq	r0, [r0], -r2
     e40:	dd3e003d 	ldcle	0, cr0, [lr, #-244]!	; 0xffffff0c
     e44:	03000001 	movweq	r0, #1
     e48:	000add12 	andeq	sp, sl, r2, lsl sp
     e4c:	0ac70600 	beq	ff1c2654 <__bss_end__+0xfdb9fa04>
     e50:	fe3e0000 	cdp2	0, 3, cr0, cr14, cr0, {0}
     e54:	01000002 	tsteq	r0, r2
     e58:	000ac70a 	andeq	ip, sl, sl, lsl #14
     e5c:	03bc3e00 			; <UNDEFINED> instruction: 0x03bc3e00
     e60:	0b010000 	bleq	40e68 <_back_addr-0x15cf198>
     e64:	00000025 	andeq	r0, r0, r5, lsr #32
     e68:	0002f13e 	andeq	pc, r2, lr, lsr r1	; <UNPREDICTABLE>
     e6c:	c70c0100 	strgt	r0, [ip, -r0, lsl #2]
     e70:	3e00000a 	cdpcc	0, 0, cr0, cr0, cr10, {0}
     e74:	00000370 	andeq	r0, r0, r0, ror r3
     e78:	00250d01 	eoreq	r0, r5, r1, lsl #26
     e7c:	a7380000 	ldrge	r0, [r8, -r0]!
     e80:	01000002 	tsteq	r0, r2
     e84:	004c0154 	subeq	r0, ip, r4, asr r1
     e88:	94200000 	strtls	r0, [r0], #-0
     e8c:	01000002 	tsteq	r0, r2
     e90:	00005347 	andeq	r5, r0, r7, asr #6
     e94:	000b2b00 	andeq	r2, fp, r0, lsl #22
     e98:	3f000b00 	svccc	0x00000b00
     e9c:	000002db 	ldrdeq	r0, [r0], -fp
     ea0:	00538604 	subseq	r8, r3, r4, lsl #12
     ea4:	0b4f0000 	bleq	13c0eac <_back_addr-0x24f154>
     ea8:	d4300000 	ldrtle	r0, [r0], #-0
     eac:	30000000 	andcc	r0, r0, r0
     eb0:	0000004c 	andeq	r0, r0, ip, asr #32
     eb4:	0000d430 	andeq	sp, r0, r0, lsr r4
     eb8:	01b23000 			; <UNDEFINED> instruction: 0x01b23000
     ebc:	20000000 	andcs	r0, r0, r0
     ec0:	00000274 	andeq	r0, r0, r4, ror r2
     ec4:	00534c01 	subseq	r4, r3, r1, lsl #24
     ec8:	0b600000 	bleq	1800ed0 <__bss_end__+0x1de280>
     ecc:	000b0000 	andeq	r0, fp, r0
     ed0:	0002343f 	andeq	r3, r2, pc, lsr r4
     ed4:	538d0400 	orrpl	r0, sp, #0, 8
     ed8:	84000000 	strhi	r0, [r0], #-0
     edc:	3000000b 	andcc	r0, r0, fp
     ee0:	000000d4 	ldrdeq	r0, [r0], -r4
     ee4:	00004c30 	andeq	r4, r0, r0, lsr ip
     ee8:	00d43000 	sbcseq	r3, r4, r0
     eec:	b2300000 	eorslt	r0, r0, #0
     ef0:	00000001 	andeq	r0, r0, r1
     ef4:	00030a20 	andeq	r0, r3, r0, lsr #20
     ef8:	53710100 	cmnpl	r1, #0, 2
     efc:	95000000 	strls	r0, [r0, #-0]
     f00:	0b00000b 	bleq	f34 <_back_addr-0x160f0cc>
     f04:	02a04000 	adceq	r4, r0, #0
     f08:	02590000 	subseq	r0, r9, #0
     f0c:	0bb20000 	bleq	fec80f14 <__bss_end__+0xfd65e2c4>
     f10:	59300000 	ldmdbpl	r0!, {}	; <UNPREDICTABLE>
     f14:	30000002 	andcc	r0, r0, r2
     f18:	00000053 	andeq	r0, r0, r3, asr r0
     f1c:	00009730 	andeq	r9, r0, r0, lsr r7
     f20:	a03f0000 	eorsge	r0, pc, r0
     f24:	05000002 	streq	r0, [r0, #-2]
     f28:	00025988 	andeq	r5, r2, r8, lsl #19
     f2c:	000bd100 	andeq	sp, fp, r0, lsl #2
     f30:	02593000 	subseq	r3, r9, #0
     f34:	53300000 	teqpl	r0, #0
     f38:	30000000 	andcc	r0, r0, r0
     f3c:	0000007a 	andeq	r0, r0, sl, ror r0
     f40:	02ca2000 	sbceq	r2, sl, #0
     f44:	e9010000 	stmdb	r1, {}	; <UNPREDICTABLE>
     f48:	00000053 	andeq	r0, r0, r3, asr r0
     f4c:	00000be2 	andeq	r0, r0, r2, ror #23
     f50:	cc41000b 	mcrrgt	0, 0, r0, r1, cr11
     f54:	05000003 	streq	r0, [r0, #-3]
     f58:	02563f73 	subseq	r3, r6, #460	; 0x1cc
     f5c:	88040000 	stmdahi	r4, {}	; <UNPREDICTABLE>
     f60:	00000053 	andeq	r0, r0, r3, asr r0
     f64:	00000c0d 	andeq	r0, r0, sp, lsl #24
     f68:	0000d430 	andeq	sp, r0, r0, lsr r4
     f6c:	004c3000 	subeq	r3, ip, r0
     f70:	d4300000 	ldrtle	r0, [r0], #-0
     f74:	30000000 	andcc	r0, r0, r0
     f78:	000001b2 			; <UNDEFINED> instruction: 0x000001b2
     f7c:	03b23900 			; <UNDEFINED> instruction: 0x03b23900
     f80:	3a010000 	bcc	40f88 <_back_addr-0x15cf078>
     f84:	00005301 	andeq	r5, r0, r1, lsl #6
     f88:	000c1f00 	andeq	r1, ip, r0, lsl #30
     f8c:	41000b00 	tstmi	r0, r0, lsl #22
     f90:	000003a8 	andeq	r0, r0, r8, lsr #7
     f94:	25427405 	strbcs	r7, [r2, #-1029]	; 0x405
     f98:	01000003 	tsteq	r0, r3
     f9c:	00530158 	subseq	r0, r3, r8, asr r1
     fa0:	000b0000 	andeq	r0, fp, r0
     fa4:	0008f500 	andeq	pc, r8, r0, lsl #10
     fa8:	9a000400 	bls	1fb0 <_back_addr-0x160e050>
     fac:	04000005 	streq	r0, [r0], #-5
     fb0:	00006001 	andeq	r6, r0, r1
     fb4:	05260100 	streq	r0, [r6, #-256]!	; 0x100
     fb8:	03340000 	teqeq	r4, #0
     fbc:	07000000 	streq	r0, [r0, -r0]
     fc0:	02180161 	andseq	r0, r8, #1073741848	; 0x40000018
     fc4:	03a10000 			; <UNDEFINED> instruction: 0x03a10000
     fc8:	04020000 	streq	r0, [r2], #-0
     fcc:	0001ec07 	andeq	lr, r1, r7, lsl #24
     fd0:	07040200 	streq	r0, [r4, -r0, lsl #4]
     fd4:	00000036 	andeq	r0, r0, r6, lsr r0
     fd8:	69050403 	stmdbvs	r5, {r0, r1, sl}
     fdc:	0200746e 	andeq	r7, r0, #1845493760	; 0x6e000000
     fe0:	001e0702 	andseq	r0, lr, r2, lsl #14
     fe4:	04020000 	streq	r0, [r2], #-0
     fe8:	00004d05 	andeq	r4, r0, r5, lsl #26
     fec:	07040200 	streq	r0, [r4, -r0, lsl #4]
     ff0:	0000003b 	andeq	r0, r0, fp, lsr r0
     ff4:	19080102 	stmdbne	r8, {r1, r8}
     ff8:	02000000 	andeq	r0, r0, #0
     ffc:	00480508 	subeq	r0, r8, r8, lsl #10
    1000:	01020000 	mrseq	r0, (UNDEF: 2)
    1004:	00001206 	andeq	r1, r0, r6, lsl #4
    1008:	08010200 	stmdaeq	r1, {r9}
    100c:	00000010 	andeq	r0, r0, r0, lsl r0
    1010:	56050202 	strpl	r0, [r5], -r2, lsl #4
    1014:	02000000 	andeq	r0, r0, #0
    1018:	00310708 	eorseq	r0, r1, r8, lsl #14
    101c:	73040000 	movwvc	r0, #16384	; 0x4000
    1020:	03003233 	movweq	r3, #563	; 0x233
    1024:	00003324 	andeq	r3, r0, r4, lsr #6
    1028:	33750400 	cmncc	r5, #0, 8
    102c:	25030032 	strcs	r0, [r3, #-50]	; 0x32
    1030:	00000048 	andeq	r0, r0, r8, asr #32
    1034:	0006b605 	andeq	fp, r6, r5, lsl #12
    1038:	ee050400 	cfcpys	mvf0, mvf5
    103c:	0000b501 	andeq	fp, r0, r1, lsl #10
    1040:	05930600 	ldreq	r0, [r3, #1536]	; 0x600
    1044:	06000000 	streq	r0, [r0], -r0
    1048:	000004dd 	ldrdeq	r0, [r0], -sp
    104c:	044e0601 	strbeq	r0, [lr], #-1537	; 0x601
    1050:	06020000 	streq	r0, [r2], -r0
    1054:	00000531 	andeq	r0, r0, r1, lsr r5
    1058:	f3070003 	vhadd.u8	d0, d7, d3
    105c:	01000003 	tsteq	r0, r3
    1060:	00e30127 	rsceq	r0, r3, r7, lsr #2
    1064:	8f080000 	svchi	0x00080000
    1068:	01000006 	tsteq	r0, r6
    106c:	00008427 	andeq	r8, r0, r7, lsr #8
    1070:	06b10800 	ldrteq	r0, [r1], r0, lsl #16
    1074:	27010000 	strcs	r0, [r1, -r0]
    1078:	00000084 	andeq	r0, r0, r4, lsl #1
    107c:	0003f709 	andeq	pc, r3, r9, lsl #14
    1080:	84280100 	strthi	r0, [r8], #-256	; 0x100
    1084:	00000000 	andeq	r0, r0, r0
    1088:	0006190a 	andeq	r1, r6, sl, lsl #18
    108c:	842e0100 	strthi	r0, [lr], #-256	; 0x100
    1090:	01000000 	mrseq	r0, (UNDEF: 0)
    1094:	000000ff 	strdeq	r0, [r0], -pc	; <UNPREDICTABLE>
    1098:	00061d09 	andeq	r1, r6, r9, lsl #26
    109c:	84300100 	ldrthi	r0, [r0], #-256	; 0x100
    10a0:	00000000 	andeq	r0, r0, r0
    10a4:	0005150a 	andeq	r1, r5, sl, lsl #10
    10a8:	791b0200 	ldmdbvc	fp, {r9}
    10ac:	03000000 	movweq	r0, #0
    10b0:	0000012f 	andeq	r0, r0, pc, lsr #2
    10b4:	02006e0b 	andeq	r6, r0, #11, 28	; 0xb0
    10b8:	0000841b 	andeq	r8, r0, fp, lsl r4
    10bc:	058d0900 	streq	r0, [sp, #2304]	; 0x900
    10c0:	1d020000 	stcne	0, cr0, [r2, #-0]
    10c4:	00000079 	andeq	r0, r0, r9, ror r0
    10c8:	00045e09 	andeq	r5, r4, r9, lsl #28
    10cc:	841e0200 	ldrhi	r0, [lr], #-512	; 0x200
    10d0:	00000000 	andeq	r0, r0, r0
    10d4:	00043107 	andeq	r3, r4, r7, lsl #2
    10d8:	01400100 	mrseq	r0, (UNDEF: 80)
    10dc:	00000194 	muleq	r0, r4, r1
    10e0:	00068f08 	andeq	r8, r6, r8, lsl #30
    10e4:	84400100 	strbhi	r0, [r0], #-256	; 0x100
    10e8:	08000000 	stmdaeq	r0, {}	; <UNPREDICTABLE>
    10ec:	000005a4 	andeq	r0, r0, r4, lsr #11
    10f0:	00844001 	addeq	r4, r4, r1
    10f4:	5f080000 	svcpl	0x00080000
    10f8:	01000005 	tsteq	r0, r5
    10fc:	00008441 	andeq	r8, r0, r1, asr #8
    1100:	05680800 	strbeq	r0, [r8, #-2048]!	; 0x800
    1104:	41010000 	mrsmi	r0, (UNDEF: 1)
    1108:	00000084 	andeq	r0, r0, r4, lsl #1
    110c:	0005bd08 	andeq	fp, r5, r8, lsl #26
    1110:	84420100 	strbhi	r0, [r2], #-256	; 0x100
    1114:	0c000000 	stceq	0, cr0, [r0], {-0}
    1118:	00796177 	rsbseq	r6, r9, r7, ror r1
    111c:	00334401 	eorseq	r4, r3, r1, lsl #8
    1120:	730c0000 	movwvc	r0, #49152	; 0xc000
    1124:	01007465 	tsteq	r0, r5, ror #8
    1128:	00003344 	andeq	r3, r0, r4, asr #6
    112c:	04470900 	strbeq	r0, [r7], #-2304	; 0x900
    1130:	44010000 	strmi	r0, [r1], #-0
    1134:	00000033 	andeq	r0, r0, r3, lsr r0
    1138:	05db0700 	ldrbeq	r0, [fp, #1792]	; 0x700
    113c:	58010000 	stmdapl	r1, {}	; <UNPREDICTABLE>
    1140:	0001f901 	andeq	pc, r1, r1, lsl #18
    1144:	068f0800 	streq	r0, [pc], r0, lsl #16
    1148:	58010000 	stmdapl	r1, {}	; <UNPREDICTABLE>
    114c:	00000084 	andeq	r0, r0, r4, lsl #1
    1150:	0005a408 	andeq	sl, r5, r8, lsl #8
    1154:	84580100 	ldrbhi	r0, [r8], #-256	; 0x100
    1158:	08000000 	stmdaeq	r0, {}	; <UNPREDICTABLE>
    115c:	0000055f 	andeq	r0, r0, pc, asr r5
    1160:	00845901 	addeq	r5, r4, r1, lsl #18
    1164:	68080000 	stmdavs	r8, {}	; <UNPREDICTABLE>
    1168:	01000005 	tsteq	r0, r5
    116c:	00008459 	andeq	r8, r0, r9, asr r4
    1170:	05bd0800 	ldreq	r0, [sp, #2048]!	; 0x800
    1174:	5a010000 	bpl	4117c <_back_addr-0x15cee84>
    1178:	00000084 	andeq	r0, r0, r4, lsl #1
    117c:	7961770c 	stmdbvc	r1!, {r2, r3, r8, r9, sl, ip, sp, lr}^
    1180:	335c0100 	cmpcc	ip, #0, 2
    1184:	0c000000 	stceq	0, cr0, [r0], {-0}
    1188:	00746573 	rsbseq	r6, r4, r3, ror r5
    118c:	00335c01 	eorseq	r5, r3, r1, lsl #24
    1190:	47090000 	strmi	r0, [r9, -r0]
    1194:	01000004 	tsteq	r0, r4
    1198:	0000335c 	andeq	r3, r0, ip, asr r3
    119c:	140a0000 	strne	r0, [sl], #-0
    11a0:	01000004 	tsteq	r0, r4
    11a4:	00008437 	andeq	r8, r0, r7, lsr r4
    11a8:	02150100 	andseq	r0, r5, #0, 2
    11ac:	18090000 	stmdane	r9, {}	; <UNPREDICTABLE>
    11b0:	01000004 	tsteq	r0, r4
    11b4:	00008439 	andeq	r8, r0, r9, lsr r4
    11b8:	3e070000 	cdpcc	0, 0, cr0, cr7, cr0, {0}
    11bc:	01000005 	tsteq	r0, r5
    11c0:	024e01a6 	subeq	r0, lr, #-2147483607	; 0x80000029
    11c4:	cb080000 	blgt	2011cc <_back_addr-0x140ee34>
    11c8:	01000005 	tsteq	r0, r5
    11cc:	000084a6 	andeq	r8, r0, r6, lsr #9
    11d0:	05fe0800 	ldrbeq	r0, [lr, #2048]!	; 0x800
    11d4:	a7010000 	strge	r0, [r1, -r0]
    11d8:	00000084 	andeq	r0, r0, r4, lsl #1
    11dc:	0005c208 	andeq	ip, r5, r8, lsl #4
    11e0:	84a70100 	strthi	r0, [r7], #256	; 0x100
    11e4:	0c000000 	stceq	0, cr0, [r0], {-0}
    11e8:	0061766d 	rsbeq	r7, r1, sp, ror #12
    11ec:	0084a901 	addeq	sl, r4, r1, lsl #18
    11f0:	0d000000 	stceq	0, cr0, [r0, #-0]
    11f4:	000006d6 	ldrdeq	r0, [r0], -r6
    11f8:	0e01fb01 	vmlaeq.f64	d15, d1, d1
    11fc:	000004ed 	andeq	r0, r0, sp, ror #9
    1200:	0701ed01 	streq	lr, [r1, -r1, lsl #26]
    1204:	000004b6 			; <UNDEFINED> instruction: 0x000004b6
    1208:	c3017301 	movwgt	r7, #4865	; 0x1301
    120c:	08000002 	stmdaeq	r0, {r1}
    1210:	0000068f 	andeq	r0, r0, pc, lsl #13
    1214:	00847301 	addeq	r7, r4, r1, lsl #6
    1218:	d1080000 	mrsle	r0, (UNDEF: 8)
    121c:	01000005 	tsteq	r0, r5
    1220:	00008473 	andeq	r8, r0, r3, ror r4
    1224:	061d0900 	ldreq	r0, [sp], -r0, lsl #18
    1228:	75010000 	strvc	r0, [r1, #-0]
    122c:	00000084 	andeq	r0, r0, r4, lsl #1
    1230:	0005a409 	andeq	sl, r5, r9, lsl #8
    1234:	84760100 	ldrbthi	r0, [r6], #-256	; 0x100
    1238:	09000000 	stmdbeq	r0, {}	; <UNPREDICTABLE>
    123c:	0000055f 	andeq	r0, r0, pc, asr r5
    1240:	00847601 	addeq	r7, r4, r1, lsl #12
    1244:	bd090000 	stclt	0, cr0, [r9, #-0]
    1248:	01000005 	tsteq	r0, r5
    124c:	00008476 	andeq	r8, r0, r6, ror r4
    1250:	055a0900 	ldrbeq	r0, [sl, #-2304]	; 0x900
    1254:	76010000 	strvc	r0, [r1], -r0
    1258:	00000084 	andeq	r0, r0, r4, lsl #1
    125c:	00056809 	andeq	r6, r5, r9, lsl #16
    1260:	84770100 	ldrbthi	r0, [r7], #-256	; 0x100
    1264:	00000000 	andeq	r0, r0, r0
    1268:	0004a20f 	andeq	sl, r4, pc, lsl #4
    126c:	00960100 	addseq	r0, r6, r0, lsl #2
    1270:	e4016107 	str	r6, [r1], #-263	; 0x107
    1274:	01000000 	mrseq	r0, (UNDEF: 0)
    1278:	0004cc9c 	muleq	r4, ip, ip
    127c:	05d11000 	ldrbeq	r1, [r1]
    1280:	96010000 	strls	r0, [r1], -r0
    1284:	00000084 	andeq	r0, r0, r4, lsl #1
    1288:	8f115001 	svchi	0x00115001
    128c:	01000006 	tsteq	r0, r6
    1290:	00008498 	muleq	r0, r8, r4
    1294:	000a7400 	andeq	r7, sl, r0, lsl #8
    1298:	06ab1100 	strteq	r1, [fp], r0, lsl #2
    129c:	98010000 	stmdals	r1, {}	; <UNPREDICTABLE>
    12a0:	00000084 	andeq	r0, r0, r4, lsl #1
    12a4:	00000a93 	muleq	r0, r3, sl
    12a8:	0005ad11 	andeq	sl, r5, r1, lsl sp
    12ac:	84980100 	ldrhi	r0, [r8], #256	; 0x100
    12b0:	1f000000 	svcne	0x00000000
    12b4:	1200000b 	andne	r0, r0, #11
    12b8:	00000418 	andeq	r0, r0, r8, lsl r4
    12bc:	00849a01 	addeq	r9, r4, r1, lsl #20
    12c0:	57010000 	strpl	r0, [r1, -r0]
    12c4:	0001f913 	andeq	pc, r1, r3, lsl r9	; <UNPREDICTABLE>
    12c8:	61070400 	tstvs	r7, r0, lsl #8
    12cc:	00000401 	andeq	r0, r0, r1, lsl #8
    12d0:	449a0100 	ldrmi	r0, [sl], #256	; 0x100
    12d4:	14000003 	strne	r0, [r0], #-3
    12d8:	01610704 	cmneq	r1, r4, lsl #14
    12dc:	00000004 	andeq	r0, r0, r4
    12e0:	00020915 	andeq	r0, r2, r5, lsl r9
    12e4:	00570100 	subseq	r0, r7, r0, lsl #2
    12e8:	025e1600 	subseq	r1, lr, #0, 12
    12ec:	07380000 	ldreq	r0, [r8, -r0]!
    12f0:	00000161 	andeq	r0, r0, r1, ror #2
    12f4:	a1010000 	mrsge	r0, (UNDEF: 1)
    12f8:	00027517 	andeq	r7, r2, r7, lsl r5
    12fc:	026a1800 	rsbeq	r1, sl, #0, 16
    1300:	0b3e0000 	bleq	f81308 <_back_addr-0x68ecf8>
    1304:	00190000 	andseq	r0, r9, r0
    1308:	1a000000 	bne	1310 <_back_addr-0x160ecf0>
    130c:	00000280 	andeq	r0, r0, r0, lsl #5
    1310:	00028b1b 	andeq	r8, r2, fp, lsl fp
    1314:	000b6900 	andeq	r6, fp, r0, lsl #18
    1318:	02961b00 	addseq	r1, r6, #0, 22
    131c:	0b8b0000 	bleq	fe2c1324 <__bss_end__+0xfcc9e6d4>
    1320:	a11b0000 	tstge	fp, r0
    1324:	a8000002 	stmdage	r0, {r1}
    1328:	1b00000b 	blne	135c <_back_addr-0x160eca4>
    132c:	000002ac 	andeq	r0, r0, ip, lsr #5
    1330:	00000bd7 	ldrdeq	r0, [r0], -r7
    1334:	0002b71b 	andeq	fp, r2, fp, lsl r7
    1338:	000bea00 	andeq	lr, fp, r0, lsl #20
    133c:	00b51300 	adcseq	r1, r5, r0, lsl #6
    1340:	07380000 	ldreq	r0, [r8, -r0]!
    1344:	00080161 	andeq	r0, r8, r1, ror #2
    1348:	79010000 	stmdbvc	r1, {}	; <UNPREDICTABLE>
    134c:	000003d1 	ldrdeq	r0, [r0], -r1
    1350:	0000cc18 	andeq	ip, r0, r8, lsl ip
    1354:	000c0800 	andeq	r0, ip, r0, lsl #16
    1358:	00c11800 	sbceq	r1, r1, r0, lsl #16
    135c:	0b3e0000 	bleq	f81364 <_back_addr-0x68ec9c>
    1360:	38140000 	ldmdacc	r4, {}	; <UNPREDICTABLE>
    1364:	08016107 	stmdaeq	r1, {r0, r1, r2, r8, sp, lr}
    1368:	1b000000 	blne	1370 <_back_addr-0x160ec90>
    136c:	000000d7 	ldrdeq	r0, [r0], -r7
    1370:	00000c28 	andeq	r0, r0, r8, lsr #24
    1374:	e3130000 	tst	r3, #0
    1378:	40000000 	andmi	r0, r0, r0
    137c:	04016107 	streq	r6, [r1], #-263	; 0x107
    1380:	01000000 	mrseq	r0, (UNDEF: 0)
    1384:	0003f87b 	andeq	pc, r3, fp, ror r8	; <UNPREDICTABLE>
    1388:	07401400 	strbeq	r1, [r0, -r0, lsl #8]
    138c:	00040161 	andeq	r0, r4, r1, ror #2
    1390:	f31b0000 	vhadd.u16	d0, d11, d0
    1394:	46000000 	strmi	r0, [r0], -r0
    1398:	0000000c 	andeq	r0, r0, ip
    139c:	00ff1c00 	rscseq	r1, pc, r0, lsl #24
    13a0:	07540000 	ldrbeq	r0, [r4, -r0]
    13a4:	00180161 	andseq	r0, r8, r1, ror #2
    13a8:	8a010000 	bhi	413b0 <_back_addr-0x15cec50>
    13ac:	00000429 	andeq	r0, r0, r9, lsr #8
    13b0:	00010f17 	andeq	r0, r1, r7, lsl pc
    13b4:	00181900 	andseq	r1, r8, r0, lsl #18
    13b8:	181b0000 	ldmdane	fp, {}	; <UNPREDICTABLE>
    13bc:	59000001 	stmdbpl	r0, {r0}
    13c0:	1b00000c 	blne	13f8 <_back_addr-0x160ec08>
    13c4:	00000123 	andeq	r0, r0, r3, lsr #2
    13c8:	00000c79 	andeq	r0, r0, r9, ror ip
    13cc:	94130000 	ldrls	r0, [r3], #-0
    13d0:	8c000001 	stchi	0, cr0, [r0], {1}
    13d4:	20016107 	andcs	r6, r1, r7, lsl #2
    13d8:	01000000 	mrseq	r0, (UNDEF: 0)
    13dc:	00047b91 	muleq	r4, r1, fp
    13e0:	01cc1700 	biceq	r1, ip, r0, lsl #14
    13e4:	c1170000 	tstgt	r7, r0
    13e8:	17000001 	strne	r0, [r0, -r1]
    13ec:	000001b6 			; <UNDEFINED> instruction: 0x000001b6
    13f0:	0001ab17 	andeq	sl, r1, r7, lsl fp
    13f4:	01a01700 	lsleq	r1, r0, #14
    13f8:	8c140000 	ldchi	0, cr0, [r4], {-0}
    13fc:	20016107 	andcs	r6, r1, r7, lsl #2
    1400:	1b000000 	blne	1408 <_back_addr-0x160ebf8>
    1404:	000001d7 	ldrdeq	r0, [r0], -r7
    1408:	00000c8c 	andeq	r0, r0, ip, lsl #25
    140c:	0001e21b 	andeq	lr, r1, fp, lsl r2
    1410:	000cac00 	andeq	sl, ip, r0, lsl #24
    1414:	01ed1b00 	mvneq	r1, r0, lsl #22
    1418:	0ccc0000 	stcleq	0, cr0, [ip], {0}
    141c:	00000000 	andeq	r0, r0, r0
    1420:	00012f1d 	andeq	r2, r1, sp, lsl pc
    1424:	6107c000 	mrsvs	ip, (UNDEF: 7)
    1428:	00002401 	andeq	r2, r0, r1, lsl #8
    142c:	178e0100 	strne	r0, [lr, r0, lsl #2]
    1430:	00000167 	andeq	r0, r0, r7, ror #2
    1434:	00015c17 	andeq	r5, r1, r7, lsl ip
    1438:	01511700 	cmpeq	r1, r0, lsl #14
    143c:	46170000 	ldrmi	r0, [r7], -r0
    1440:	17000001 	strne	r0, [r0, -r1]
    1444:	0000013b 	andeq	r0, r0, fp, lsr r1
    1448:	6107c014 	tstvs	r7, r4, lsl r0
    144c:	00002401 	andeq	r2, r0, r1, lsl #8
    1450:	01721b00 	cmneq	r2, r0, lsl #22
    1454:	0cf20000 	ldcleq	0, cr0, [r2]
    1458:	7d1b0000 	ldcvc	0, cr0, [fp, #-0]
    145c:	1d000001 	stcne	0, cr0, [r0, #-4]
    1460:	1b00000d 	blne	149c <_back_addr-0x160eb64>
    1464:	00000188 	andeq	r0, r0, r8, lsl #3
    1468:	00000d4a 	andeq	r0, r0, sl, asr #26
    146c:	00000000 	andeq	r0, r0, r0
    1470:	03fe1e00 	mvnseq	r1, #0, 28
    1474:	50010000 	andpl	r0, r1, r0
    1478:	6107e401 	tstvs	r7, r1, lsl #8
    147c:	00001801 	andeq	r1, r0, r1, lsl #16
    1480:	1e9c0100 	fmlnee	f0, f4, f0
    1484:	0000065e 	andeq	r0, r0, lr, asr r6
    1488:	fc016a01 	stc2	10, cr6, [r1], {1}
    148c:	04016107 	streq	r6, [r1], #-263	; 0x107
    1490:	01000000 	mrseq	r0, (UNDEF: 0)
    1494:	06761e9c 			; <UNDEFINED> instruction: 0x06761e9c
    1498:	70010000 	andvc	r0, r1, r0
    149c:	61080001 	tstvs	r8, r1
    14a0:	00000401 	andeq	r0, r0, r1, lsl #8
    14a4:	1e9c0100 	fmlnee	f0, f4, f0
    14a8:	00000572 	andeq	r0, r0, r2, ror r5
    14ac:	04017601 	streq	r7, [r1], #-1537	; 0x601
    14b0:	04016108 	streq	r6, [r1], #-264	; 0x108
    14b4:	01000000 	mrseq	r0, (UNDEF: 0)
    14b8:	06c51f9c 			; <UNDEFINED> instruction: 0x06c51f9c
    14bc:	06010000 	streq	r0, [r1], -r0
    14c0:	61080801 	tstvs	r8, r1, lsl #16
    14c4:	00001401 	andeq	r1, r0, r1, lsl #8
    14c8:	439c0100 	orrsmi	r0, ip, #0, 2
    14cc:	20000005 	andcs	r0, r0, r5
    14d0:	01610814 	cmneq	r1, r4, lsl r8
    14d4:	000002c3 	andeq	r0, r0, r3, asr #5
    14d8:	0000053d 	andeq	r0, r0, sp, lsr r5
    14dc:	01500121 	cmpeq	r0, r1, lsr #2
    14e0:	1c220032 	stcne	0, cr0, [r2], #-200	; 0xffffff38
    14e4:	00016108 	andeq	r6, r1, r8, lsl #2
    14e8:	0004fa1e 	andeq	pc, r4, lr, lsl sl	; <UNPREDICTABLE>
    14ec:	017c0100 	cmneq	ip, r0, lsl #2
    14f0:	0161081c 	cmneq	r1, ip, lsl r8
    14f4:	00000004 	andeq	r0, r0, r4
    14f8:	4e239c01 	cdpmi	12, 2, cr9, cr3, cr1, {0}
    14fc:	20000002 	andcs	r0, r0, r2
    1500:	14016108 	strne	r6, [r1], #-264	; 0x108
    1504:	01000000 	mrseq	r0, (UNDEF: 0)
    1508:	0005819c 	muleq	r5, ip, r1
    150c:	082c2000 	stmdaeq	ip!, {sp}
    1510:	02c30161 	sbceq	r0, r3, #1073741848	; 0x40000018
    1514:	057b0000 	ldrbeq	r0, [fp, #-0]!
    1518:	01210000 	teqeq	r1, r0
    151c:	00310150 	eorseq	r0, r1, r0, asr r1
    1520:	61083422 	tstvs	r8, r2, lsr #8
    1524:	411f0001 	tstmi	pc, r1
    1528:	01000006 	tsteq	r0, r6
    152c:	08340125 	ldmdaeq	r4!, {r0, r2, r5, r8}
    1530:	00300161 	eorseq	r0, r0, r1, ror #2
    1534:	9c010000 	stcls	0, cr0, [r1], {-0}
    1538:	000005da 	ldrdeq	r0, [r0], -sl
    153c:	00024e24 	andeq	r4, r2, r4, lsr #28
    1540:	61083c00 	tstvs	r8, r0, lsl #24
    1544:	00000c01 	andeq	r0, r0, r1, lsl #24
    1548:	01280100 	teqeq	r8, r0, lsl #2
    154c:	000005c4 	andeq	r0, r0, r4, asr #11
    1550:	61084420 	tstvs	r8, r0, lsr #8
    1554:	0002c301 	andeq	ip, r2, r1, lsl #6
    1558:	0005be00 	andeq	fp, r5, r0, lsl #28
    155c:	50012100 	andpl	r2, r1, r0, lsl #2
    1560:	25003101 	strcs	r3, [r0, #-257]	; 0x101
    1564:	01610848 	cmneq	r1, r8, asr #16
    1568:	02562600 	subseq	r2, r6, #0, 12
    156c:	08480000 	stmdaeq	r8, {}^	; <UNPREDICTABLE>
    1570:	001c0161 	andseq	r0, ip, r1, ror #2
    1574:	29010000 	stmdbcs	r1, {}	; <UNPREDICTABLE>
    1578:	083c2501 	ldmdaeq	ip!, {r0, r8, sl, sp}
    157c:	1f000161 	svcne	0x00000161
    1580:	00000485 	andeq	r0, r0, r5, lsl #9
    1584:	64018201 	strvs	r8, [r1], #-513	; 0x201
    1588:	04016108 	streq	r6, [r1], #-264	; 0x108
    158c:	01000000 	mrseq	r0, (UNDEF: 0)
    1590:	00060d9c 	muleq	r6, ip, sp
    1594:	05cb2700 	strbeq	r2, [fp, #1792]	; 0x700
    1598:	82010000 	andhi	r0, r1, #0
    159c:	00008401 	andeq	r8, r0, r1, lsl #8
    15a0:	28500100 	ldmdacs	r0, {r8}^
    15a4:	00646e65 	rsbeq	r6, r4, r5, ror #28
    15a8:	84018201 	strhi	r8, [r1], #-513	; 0x201
    15ac:	01000000 	mrseq	r0, (UNDEF: 0)
    15b0:	95070051 	strls	r0, [r7, #-81]	; 0x51
    15b4:	01000006 	tsteq	r0, r6
    15b8:	065101d3 			; <UNDEFINED> instruction: 0x065101d3
    15bc:	cb080000 	blgt	2015c4 <_back_addr-0x140ea3c>
    15c0:	01000005 	tsteq	r0, r5
    15c4:	000084d3 	ldrdeq	r8, [r0], -r3
    15c8:	05fe0800 	ldrbeq	r0, [lr, #2048]!	; 0x800
    15cc:	d3010000 	movwle	r0, #4096	; 0x1000
    15d0:	00000084 	andeq	r0, r0, r4, lsl #1
    15d4:	00065508 	andeq	r5, r6, r8, lsl #10
    15d8:	84d30100 	ldrbhi	r0, [r3], #256	; 0x100
    15dc:	09000000 	stmdbeq	r0, {}	; <UNPREDICTABLE>
    15e0:	000005c2 	andeq	r0, r0, r2, asr #11
    15e4:	0084d501 	addeq	sp, r4, r1, lsl #10
    15e8:	1d090000 	stcne	0, cr0, [r9, #-0]
    15ec:	01000006 	tsteq	r0, r6
    15f0:	000084d5 	ldrdeq	r8, [r0], -r5
    15f4:	1e1f0000 	cdpne	0, 1, cr0, cr15, cr0, {0}
    15f8:	01000004 	tsteq	r0, r4
    15fc:	0868011e 	stmdaeq	r8!, {r1, r2, r3, r4, r8}^
    1600:	003c0161 	eorseq	r0, ip, r1, ror #2
    1604:	9c010000 	stcls	0, cr0, [r1], {-0}
    1608:	00000737 	andeq	r0, r0, r7, lsr r7
    160c:	0005cb29 	andeq	ip, r5, r9, lsr #22
    1610:	011e0100 	tsteq	lr, r0, lsl #2
    1614:	0000002c 	andeq	r0, r0, ip, lsr #32
    1618:	00000d7b 	andeq	r0, r0, fp, ror sp
    161c:	0005fe29 	andeq	pc, r5, r9, lsr #28
    1620:	011e0100 	tsteq	lr, r0, lsl #2
    1624:	0000002c 	andeq	r0, r0, ip, lsr #32
    1628:	00000d9c 	muleq	r0, ip, sp
    162c:	00060d24 	andeq	r0, r6, r4, lsr #26
    1630:	61086800 	tstvs	r8, r0, lsl #16
    1634:	00003801 	andeq	r3, r0, r1, lsl #16
    1638:	01200100 	teqeq	r0, r0, lsl #2
    163c:	00000731 	andeq	r0, r0, r1, lsr r7
    1640:	00062f2a 	andeq	r2, r6, sl, lsr #30
    1644:	24180400 	ldrcs	r0, [r8], #-1024	; 0x400
    1648:	9c000006 	stcls	0, cr0, [r0], {6}
    164c:	1800000d 	stmdane	r0, {r0, r2, r3}
    1650:	00000619 	andeq	r0, r0, r9, lsl r6
    1654:	00000d7b 	andeq	r0, r0, fp, ror sp
    1658:	61086814 	tstvs	r8, r4, lsl r8
    165c:	00003801 	andeq	r3, r0, r1, lsl #16
    1660:	063a1b00 	ldrteq	r1, [sl], -r0, lsl #22
    1664:	0dbd0000 	ldceq	0, cr0, [sp]
    1668:	451a0000 	ldrmi	r0, [sl, #-0]
    166c:	13000006 	movwne	r0, #6
    1670:	000000e3 	andeq	r0, r0, r3, ror #1
    1674:	01610868 	cmneq	r1, r8, ror #16
    1678:	00000004 	andeq	r0, r0, r4
    167c:	06f1d701 	ldrbteq	sp, [r1], r1, lsl #14
    1680:	68140000 	ldmdavs	r4, {}	; <UNPREDICTABLE>
    1684:	04016108 	streq	r6, [r1], #-264	; 0x108
    1688:	1b000000 	blne	1690 <_back_addr-0x160e970>
    168c:	000000f3 	strdeq	r0, [r0], -r3
    1690:	00000de1 	andeq	r0, r0, r1, ror #27
    1694:	151d0000 	ldrne	r0, [sp, #-0]
    1698:	7c000002 	stcvc	0, cr0, [r0], {2}
    169c:	20016108 	andcs	r6, r1, r8, lsl #2
    16a0:	01000000 	mrseq	r0, (UNDEF: 0)
    16a4:	023718e1 	eorseq	r1, r7, #14745600	; 0xe10000
    16a8:	0df40000 	ldcleq	0, cr0, [r4]
    16ac:	2c180000 	ldccs	0, cr0, [r8], {-0}
    16b0:	07000002 	streq	r0, [r0, -r2]
    16b4:	1800000e 	stmdane	r0, {r1, r2, r3}
    16b8:	00000221 	andeq	r0, r0, r1, lsr #4
    16bc:	00000e28 	andeq	r0, r0, r8, lsr #28
    16c0:	61087c14 	tstvs	r8, r4, lsl ip
    16c4:	00002001 	andeq	r2, r0, r1
    16c8:	02421b00 	subeq	r1, r2, #0, 22
    16cc:	0e570000 	cdpeq	0, 5, cr0, cr7, cr0, {0}
    16d0:	00000000 	andeq	r0, r0, r0
    16d4:	a4220000 	strtge	r0, [r2], #-0
    16d8:	00016108 	andeq	r6, r1, r8, lsl #2
    16dc:	0002741f 	andeq	r7, r2, pc, lsl r4
    16e0:	01300100 	teqeq	r0, r0, lsl #2
    16e4:	016108a4 	smultbeq	r1, r4, r8
    16e8:	00000008 	andeq	r0, r0, r8
    16ec:	078a9c01 	streq	r9, [sl, r1, lsl #24]
    16f0:	cb290000 	blgt	a416f8 <_back_addr-0xbce908>
    16f4:	01000005 	tsteq	r0, r5
    16f8:	002c0130 	eoreq	r0, ip, r0, lsr r1
    16fc:	0e6a0000 	cdpeq	0, 6, cr0, cr10, cr0, {0}
    1700:	0d290000 	stceq	0, cr0, [r9, #-0]
    1704:	01000007 	tsteq	r0, r7
    1708:	002c0130 	eoreq	r0, ip, r0, lsr r1
    170c:	0e8b0000 	cdpeq	0, 8, cr0, cr11, cr0, {0}
    1710:	ac2b0000 	stcge	0, cr0, [fp], #-0
    1714:	51016108 	tstpl	r1, r8, lsl #2
    1718:	21000006 	tstcs	r0, r6
    171c:	f3035001 	vhadd.u8	d5, d3, d1
    1720:	01215001 	teqeq	r1, r1
    1724:	01f30751 	mvnseq	r0, r1, asr r7
    1728:	5101f350 	tstpl	r1, r0, asr r3
    172c:	1f000022 	svcne	0x00000022
    1730:	00000624 	andeq	r0, r0, r4, lsr #12
    1734:	ac018801 	stcge	8, cr8, [r1], {1}
    1738:	04016108 	streq	r6, [r1], #-264	; 0x108
    173c:	01000000 	mrseq	r0, (UNDEF: 0)
    1740:	0007bd9c 	muleq	r7, ip, sp
    1744:	05cb2700 	strbeq	r2, [fp, #1792]	; 0x700
    1748:	88010000 	stmdahi	r1, {}	; <UNPREDICTABLE>
    174c:	00008401 	andeq	r8, r0, r1, lsl #8
    1750:	28500100 	ldmdacs	r0, {r8}^
    1754:	00646e65 	rsbeq	r6, r4, r5, ror #28
    1758:	84018801 	strhi	r8, [r1], #-2049	; 0x801
    175c:	01000000 	mrseq	r0, (UNDEF: 0)
    1760:	03070051 	movweq	r0, #28753	; 0x7051
    1764:	01000006 	tsteq	r0, r6
    1768:	07f601b3 			; <UNDEFINED> instruction: 0x07f601b3
    176c:	cb080000 	blgt	201774 <_back_addr-0x140e88c>
    1770:	01000005 	tsteq	r0, r5
    1774:	000084b3 			; <UNDEFINED> instruction: 0x000084b3
    1778:	05fe0800 	ldrbeq	r0, [lr, #2048]!	; 0x800
    177c:	b3010000 	movwlt	r0, #4096	; 0x1000
    1780:	00000084 	andeq	r0, r0, r4, lsl #1
    1784:	0005c208 	andeq	ip, r5, r8, lsl #4
    1788:	84b30100 	ldrthi	r0, [r3], #256	; 0x100
    178c:	0c000000 	stceq	0, cr0, [r0], {-0}
    1790:	0061766d 	rsbeq	r7, r1, sp, ror #12
    1794:	0084b501 	addeq	fp, r4, r1, lsl #10
    1798:	1f000000 	svcne	0x00000000
    179c:	0000046d 	andeq	r0, r0, sp, ror #8
    17a0:	b0011101 	andlt	r1, r1, r1, lsl #2
    17a4:	68016108 	stmdavs	r1, {r3, r8, sp, lr}
    17a8:	01000000 	mrseq	r0, (UNDEF: 0)
    17ac:	0008dc9c 	muleq	r8, ip, ip
    17b0:	05cb2900 	strbeq	r2, [fp, #2304]	; 0x900
    17b4:	11010000 	mrsne	r0, (UNDEF: 1)
    17b8:	00002c01 	andeq	r2, r0, r1, lsl #24
    17bc:	000eac00 	andeq	sl, lr, r0, lsl #24
    17c0:	05fe2900 	ldrbeq	r2, [lr, #2304]!	; 0x900
    17c4:	11010000 	mrsne	r0, (UNDEF: 1)
    17c8:	00002c01 	andeq	r2, r0, r1, lsl #24
    17cc:	000ecd00 	andeq	ip, lr, r0, lsl #26
    17d0:	060d2400 	streq	r2, [sp], -r0, lsl #8
    17d4:	08b40000 	ldmeq	r4!, {}	; <UNPREDICTABLE>
    17d8:	005c0161 	subseq	r0, ip, r1, ror #2
    17dc:	14010000 	strne	r0, [r1], #-0
    17e0:	0008d601 	andeq	sp, r8, r1, lsl #12
    17e4:	062f2a00 	strteq	r2, [pc], -r0, lsl #20
    17e8:	18030000 	stmdane	r3, {}	; <UNPREDICTABLE>
    17ec:	00000624 	andeq	r0, r0, r4, lsr #12
    17f0:	00000ecd 	andeq	r0, r0, sp, asr #29
    17f4:	00061918 	andeq	r1, r6, r8, lsl r9
    17f8:	000eac00 	andeq	sl, lr, r0, lsl #24
    17fc:	08b41400 	ldmeq	r4!, {sl, ip}
    1800:	005c0161 	subseq	r0, ip, r1, ror #2
    1804:	3a1b0000 	bcc	6c180c <_back_addr-0xf4e7f4>
    1808:	ee000006 	cdp	0, 0, cr0, cr0, cr6, {0}
    180c:	1a00000e 	bne	184c <_back_addr-0x160e7b4>
    1810:	00000645 	andeq	r0, r0, r5, asr #12
    1814:	0000e313 	andeq	lr, r0, r3, lsl r3
    1818:	6108b400 	tstvs	r8, r0, lsl #8
    181c:	00000401 	andeq	r0, r0, r1, lsl #8
    1820:	96d70100 	ldrbls	r0, [r7], r0, lsl #2
    1824:	14000008 	strne	r0, [r0], #-8
    1828:	016108b4 	strheq	r0, [r1, #-132]!	; 0xffffff7c
    182c:	00000004 	andeq	r0, r0, r4
    1830:	0000f31b 	andeq	pc, r0, fp, lsl r3	; <UNPREDICTABLE>
    1834:	000f1200 	andeq	r1, pc, r0, lsl #4
    1838:	1d000000 	stcne	0, cr0, [r0, #-0]
    183c:	000007bd 			; <UNDEFINED> instruction: 0x000007bd
    1840:	016108c8 	smulbteq	r1, r8, r8
    1844:	00000044 	andeq	r0, r0, r4, asr #32
    1848:	df18e401 	svcle	0x0018e401
    184c:	25000007 	strcs	r0, [r0, #-7]
    1850:	1800000f 	stmdane	r0, {r0, r1, r2, r3}
    1854:	000007d4 	ldrdeq	r0, [r0], -r4
    1858:	00000f38 	andeq	r0, r0, r8, lsr pc
    185c:	0007c918 	andeq	ip, r7, r8, lsl r9
    1860:	000f5600 	andeq	r5, pc, r0, lsl #12
    1864:	08c81400 	stmiaeq	r8, {sl, ip}^
    1868:	00440161 	subeq	r0, r4, r1, ror #2
    186c:	ea1b0000 	b	6c1874 <_back_addr-0xf4e78c>
    1870:	74000007 	strvc	r0, [r0], #-7
    1874:	0000000f 	andeq	r0, r0, pc
    1878:	22000000 	andcs	r0, r0, #0
    187c:	01610918 	cmneq	r1, r8, lsl r9
    1880:	04d32c00 	ldrbeq	r2, [r3], #3072	; 0xc00
    1884:	e7040000 	str	r0, [r4, -r0]
    1888:	00004803 	andeq	r4, r0, r3, lsl #16
    188c:	20000000 	andcs	r0, r0, r0
    1890:	04632d00 	strbteq	r2, [r3], #-3328	; 0xd00
    1894:	f6050000 			; <UNDEFINED> instruction: 0xf6050000
    1898:	00008f01 	andeq	r8, r0, r1, lsl #30
    189c:	14430000 	strbne	r0, [r3], #-0
    18a0:	00040000 	andeq	r0, r4, r0
    18a4:	00000815 	andeq	r0, r0, r5, lsl r8
    18a8:	00600104 	rsbeq	r0, r0, r4, lsl #2
    18ac:	01010000 	mrseq	r0, (UNDEF: 1)
    18b0:	34000007 	strcc	r0, [r0], #-7
    18b4:	18000003 	stmdane	r0, {r0, r1}
    18b8:	04016109 	streq	r6, [r1], #-265	; 0x109
    18bc:	7a00000c 	bvc	18f4 <_back_addr-0x160e70c>
    18c0:	02000005 	andeq	r0, r0, #5
    18c4:	01ec0704 	mvneq	r0, r4, lsl #14
    18c8:	04020000 	streq	r0, [r2], #-0
    18cc:	00003607 	andeq	r3, r0, r7, lsl #12
    18d0:	05040300 	streq	r0, [r4, #-768]	; 0x300
    18d4:	00746e69 	rsbseq	r6, r4, r9, ror #28
    18d8:	1e070202 	cdpne	2, 0, cr0, cr7, cr2, {0}
    18dc:	02000000 	andeq	r0, r0, #0
    18e0:	004d0504 	subeq	r0, sp, r4, lsl #10
    18e4:	94040000 	strls	r0, [r4], #-0
    18e8:	03000008 	movweq	r0, #8
    18ec:	0000531f 	andeq	r5, r0, pc, lsl r3
    18f0:	07040200 	streq	r0, [r4, -r0, lsl #4]
    18f4:	0000003b 	andeq	r0, r0, fp, lsr r0
    18f8:	19080102 	stmdbne	r8, {r1, r8}
    18fc:	02000000 	andeq	r0, r0, #0
    1900:	00480508 	subeq	r0, r8, r8, lsl #10
    1904:	01020000 	mrseq	r0, (UNDEF: 2)
    1908:	00001206 	andeq	r1, r0, r6, lsl #4
    190c:	08010200 	stmdaeq	r1, {r9}
    1910:	00000010 	andeq	r0, r0, r0, lsl r0
    1914:	56050202 	strpl	r0, [r5], -r2, lsl #4
    1918:	02000000 	andeq	r0, r0, #0
    191c:	00310708 	eorseq	r0, r1, r8, lsl #14
    1920:	2c040000 	stccs	0, cr0, [r4], {-0}
    1924:	04000008 	streq	r0, [r0], #-8
    1928:	0000535c 	andeq	r5, r0, ip, asr r3
    192c:	06040500 	streq	r0, [r4], -r0, lsl #10
    1930:	00009704 	andeq	r9, r0, r4, lsl #14
    1934:	005a0700 	subseq	r0, sl, r0, lsl #14
    1938:	5a080000 	bpl	201940 <_back_addr-0x140e6c0>
    193c:	ac000000 	stcge	0, cr0, [r0], {-0}
    1940:	09000000 	stmdbeq	r0, {}	; <UNPREDICTABLE>
    1944:	00000025 	andeq	r0, r0, r5, lsr #32
    1948:	b60a000f 	strlt	r0, [sl], -pc
    194c:	04000006 	streq	r0, [r0], #-6
    1950:	d201ee07 	andle	lr, r1, #7, 28	; 0x70
    1954:	0b000000 	bleq	195c <_back_addr-0x160e6a4>
    1958:	00000593 	muleq	r0, r3, r5
    195c:	04dd0b00 	ldrbeq	r0, [sp], #2816	; 0xb00
    1960:	0b010000 	bleq	41968 <_back_addr-0x15ce698>
    1964:	0000044e 	andeq	r0, r0, lr, asr #8
    1968:	05310b02 	ldreq	r0, [r1, #-2818]!	; 0xb02
    196c:	00030000 	andeq	r0, r3, r0
    1970:	0006f20c 	andeq	pc, r6, ip, lsl #4
    1974:	50053800 	andpl	r3, r5, r0, lsl #16
    1978:	00000127 	andeq	r0, r0, r7, lsr #2
    197c:	0007330d 	andeq	r3, r7, sp, lsl #6
    1980:	53520500 	cmppl	r2, #0, 10
    1984:	00000000 	andeq	r0, r0, r0
    1988:	79656b0e 	stmdbvc	r5!, {r1, r2, r3, r8, r9, fp, sp, lr}^
    198c:	27530500 	ldrbcs	r0, [r3, -r0, lsl #10]
    1990:	04000001 	streq	r0, [r0], #-1
    1994:	0007740d 	andeq	r7, r7, sp, lsl #8
    1998:	37540500 	ldrbcc	r0, [r4, -r0, lsl #10]
    199c:	1c000001 	stcne	0, cr0, [r0], {1}
    19a0:	0007a50d 	andeq	sl, r7, sp, lsl #10
    19a4:	53550500 	cmppl	r5, #0, 10
    19a8:	2c000000 	stccs	0, cr0, [r0], {-0}
    19ac:	0007380d 	andeq	r3, r7, sp, lsl #16
    19b0:	53560500 	cmppl	r6, #0, 10
    19b4:	30000000 	andcc	r0, r0, r0
    19b8:	0007e80d 	andeq	lr, r7, sp, lsl #16
    19bc:	53570500 	cmppl	r7, #0, 10
    19c0:	34000000 	strcc	r0, [r0], #-0
    19c4:	00530800 	subseq	r0, r3, r0, lsl #16
    19c8:	01370000 	teqeq	r7, r0
    19cc:	25090000 	strcs	r0, [r9, #-0]
    19d0:	05000000 	streq	r0, [r0, #-0]
    19d4:	00530800 	subseq	r0, r3, r0, lsl #16
    19d8:	01470000 	mrseq	r0, (UNDEF: 71)
    19dc:	25090000 	strcs	r0, [r9, #-0]
    19e0:	03000000 	movweq	r0, #0
    19e4:	07630400 	strbeq	r0, [r3, -r0, lsl #8]!
    19e8:	58050000 	stmdapl	r5, {}	; <UNPREDICTABLE>
    19ec:	000000d2 	ldrdeq	r0, [r0], -r2
    19f0:	00088c0f 	andeq	r8, r8, pc, lsl #24
    19f4:	53440200 	movtpl	r0, #16896	; 0x4200
    19f8:	03000000 	movweq	r0, #0
    19fc:	0000016e 	andeq	r0, r0, lr, ror #2
    1a00:	00081710 	andeq	r1, r8, r0, lsl r7
    1a04:	53440200 	movtpl	r0, #16896	; 0x4200
    1a08:	00000000 	andeq	r0, r0, r0
    1a0c:	00071211 	andeq	r1, r7, r1, lsl r2
    1a10:	035f0200 	cmpeq	pc, #0, 4
    1a14:	00000191 	muleq	r0, r1, r1
    1a18:	00081710 	andeq	r1, r8, r0, lsl r7
    1a1c:	535f0200 	cmppl	pc, #0, 4
    1a20:	12000000 	andne	r0, r0, #0
    1a24:	006c6176 	rsbeq	r6, ip, r6, ror r1
    1a28:	00535f02 	subseq	r5, r3, r2, lsl #30
    1a2c:	13000000 	movwne	r0, #0
    1a30:	000007c6 	andeq	r0, r0, r6, asr #15
    1a34:	33020801 	movwcc	r0, #10241	; 0x2801
    1a38:	01000000 	mrseq	r0, (UNDEF: 0)
    1a3c:	000001d5 	ldrdeq	r0, [r0], -r5
    1a40:	00087514 	andeq	r7, r8, r4, lsl r5
    1a44:	02080100 	andeq	r0, r8, #0, 2
    1a48:	000001d5 	ldrdeq	r0, [r0], -r5
    1a4c:	73657215 	cmnvc	r5, #1342177281	; 0x50000001
    1a50:	020d0100 	andeq	r0, sp, #0, 2
    1a54:	00000033 	andeq	r0, r0, r3, lsr r0
    1a58:	000a7c16 	andeq	r7, sl, r6, lsl ip
    1a5c:	020e0100 	andeq	r0, lr, #0, 2
    1a60:	00000033 	andeq	r0, r0, r3, lsr r0
    1a64:	0003cc17 	andeq	ip, r3, r7, lsl ip
    1a68:	015a0100 	cmpeq	sl, r0, lsl #2
    1a6c:	00000033 	andeq	r0, r0, r3, lsr r0
    1a70:	06000018 			; <UNDEFINED> instruction: 0x06000018
    1a74:	00014704 	andeq	r4, r1, r4, lsl #14
    1a78:	02941900 	addseq	r1, r4, #0, 18
    1a7c:	47010000 	strmi	r0, [r1, -r0]
    1a80:	00000033 	andeq	r0, r0, r3, lsr r0
    1a84:	00020201 	andeq	r0, r2, r1, lsl #4
    1a88:	072d1000 	streq	r1, [sp, -r0]!
    1a8c:	47010000 	strmi	r0, [r1, -r0]
    1a90:	00000053 	andeq	r0, r0, r3, asr r0
    1a94:	0008851a 	andeq	r8, r8, sl, lsl r5
    1a98:	53490100 	movtpl	r0, #37120	; 0x9100
    1a9c:	00000000 	andeq	r0, r0, r0
    1aa0:	0006ec1b 	andeq	lr, r6, fp, lsl ip
    1aa4:	02a60100 	adceq	r0, r6, #0, 2
    1aa8:	000001d5 	ldrdeq	r0, [r0], -r5
    1aac:	01610918 	cmneq	r1, r8, lsl r9
    1ab0:	00000070 	andeq	r0, r0, r0, ror r0
    1ab4:	02679c01 	rsbeq	r9, r7, #256	; 0x100
    1ab8:	711c0000 	tstvc	ip, r0
    1abc:	01000009 	tsteq	r0, r9
    1ac0:	01d502a9 	bicseq	r0, r5, r9, lsr #5
    1ac4:	55010000 	strpl	r0, [r1, #-0]
    1ac8:	6109601d 	tstvs	r9, sp, lsl r0
    1acc:	00139101 	andseq	r9, r3, r1, lsl #2
    1ad0:	00024b00 	andeq	r4, r2, r0, lsl #22
    1ad4:	50011e00 	andpl	r1, r1, r0, lsl #28
    1ad8:	24444403 	strbcs	r4, [r4], #-1027	; 0x403
    1adc:	0151011e 	cmpeq	r1, lr, lsl r1
    1ae0:	52011e30 	andpl	r1, r1, #48, 28	; 0x300
    1ae4:	08000a03 	stmdaeq	r0, {r0, r1, r9, fp}
    1ae8:	09741f00 	ldmdbeq	r4!, {r8, r9, sl, fp, ip}^
    1aec:	13910161 	orrsne	r0, r1, #1073741848	; 0x40000018
    1af0:	011e0000 	tsteq	lr, r0
    1af4:	00750250 	rsbseq	r0, r5, r0, asr r2
    1af8:	0151011e 	cmpeq	r1, lr, lsl r1
    1afc:	52011e30 	andpl	r1, r1, #48, 28	; 0x300
    1b00:	00380802 	eorseq	r0, r8, r2, lsl #16
    1b04:	08ac1b00 	stmiaeq	ip!, {r8, r9, fp, ip}
    1b08:	d6010000 	strle	r0, [r1], -r0
    1b0c:	00003302 	andeq	r3, r0, r2, lsl #6
    1b10:	61098800 	tstvs	r9, r0, lsl #16
    1b14:	00003401 	andeq	r3, r0, r1, lsl #8
    1b18:	f69c0100 			; <UNDEFINED> instruction: 0xf69c0100
    1b1c:	20000002 	andcs	r0, r0, r2
    1b20:	d8010069 	stmdale	r1, {r0, r3, r5, r6}
    1b24:	00005302 	andeq	r5, r0, r2, lsl #6
    1b28:	000f8700 	andeq	r8, pc, r0, lsl #14
    1b2c:	016e2100 	cmneq	lr, r0, lsl #2
    1b30:	09880000 	stmibeq	r8, {}	; <UNPREDICTABLE>
    1b34:	00300161 	eorseq	r0, r0, r1, ror #2
    1b38:	da010000 	ble	41b40 <_back_addr-0x15ce4c0>
    1b3c:	0002ca02 	andeq	ip, r2, r2, lsl #20
    1b40:	01852200 	orreq	r2, r5, r0, lsl #4
    1b44:	23010000 	movwcs	r0, #4096	; 0x1000
    1b48:	0000017a 	andeq	r0, r0, sl, ror r1
    1b4c:	c085a39c 	umullgt	sl, r5, ip, r3
    1b50:	00302479 	eorseq	r2, r0, r9, ror r4
    1b54:	85220000 	strhi	r0, [r2, #-0]!
    1b58:	01000001 	tsteq	r0, r1
    1b5c:	00017a23 	andeq	r7, r1, r3, lsr #20
    1b60:	85a39c00 	strhi	r9, [r3, #3072]!	; 0xc00
    1b64:	000079c0 	andeq	r7, r0, r0, asr #19
    1b68:	00015225 	andeq	r5, r1, r5, lsr #4
    1b6c:	61099400 	tstvs	r9, r0, lsl #8
    1b70:	00004801 	andeq	r4, r0, r1, lsl #16
    1b74:	02dc0100 	sbcseq	r0, ip, #0, 2
    1b78:	00016223 	andeq	r6, r1, r3, lsr #4
    1b7c:	85a39c00 	strhi	r9, [r3, #3072]!	; 0xc00
    1b80:	482479c0 	stmdami	r4!, {r6, r7, r8, fp, ip, sp, lr}
    1b84:	23000000 	movwcs	r0, #0
    1b88:	00000162 	andeq	r0, r0, r2, ror #2
    1b8c:	c085a39c 	umullgt	sl, r5, ip, r3
    1b90:	00000079 	andeq	r0, r0, r9, ror r0
    1b94:	00019126 	andeq	r9, r1, r6, lsr #2
    1b98:	6109bc00 	tstvs	r9, r0, lsl #24
    1b9c:	00010801 	andeq	r0, r1, r1, lsl #16
    1ba0:	419c0100 	orrsmi	r0, ip, r0, lsl #2
    1ba4:	27000007 	strcs	r0, [r0, -r7]
    1ba8:	000001a2 	andeq	r0, r0, r2, lsr #3
    1bac:	00000fb3 			; <UNDEFINED> instruction: 0x00000fb3
    1bb0:	0001ae28 	andeq	sl, r1, r8, lsr #28
    1bb4:	01ba2900 			; <UNDEFINED> instruction: 0x01ba2900
    1bb8:	0fea0000 	svceq	0x00ea0000
    1bbc:	c62a0000 	strtgt	r0, [sl], -r0
    1bc0:	00000001 	andeq	r0, r0, r1
    1bc4:	0000032d 	andeq	r0, r0, sp, lsr #6
    1bc8:	21001818 	tstcs	r0, r8, lsl r8
    1bcc:	0000016e 	andeq	r0, r0, lr, ror #2
    1bd0:	016109c8 	smulbteq	r1, r8, r9
    1bd4:	00000060 	andeq	r0, r0, r0, rrx
    1bd8:	6c021601 	stcvs	6, cr1, [r2], {1}
    1bdc:	27000003 	strcs	r0, [r0, -r3]
    1be0:	00000185 	andeq	r0, r0, r5, lsl #3
    1be4:	00000ffe 	strdeq	r0, [r0], -lr
    1be8:	00017a27 	andeq	r7, r1, r7, lsr #20
    1bec:	00101200 	andseq	r1, r0, r0, lsl #4
    1bf0:	00602400 	rsbeq	r2, r0, r0, lsl #8
    1bf4:	85270000 	strhi	r0, [r7, #-0]!
    1bf8:	fe000001 	cdp2	0, 0, cr0, cr0, cr1, {0}
    1bfc:	2700000f 	strcs	r0, [r0, -pc]
    1c00:	0000017a 	andeq	r0, r0, sl, ror r1
    1c04:	00001012 	andeq	r1, r0, r2, lsl r0
    1c08:	6e210000 	cdpvs	0, 2, cr0, cr1, cr0, {0}
    1c0c:	d0000001 	andle	r0, r0, r1
    1c10:	80016109 	andhi	r6, r1, r9, lsl #2
    1c14:	01000000 	mrseq	r0, (UNDEF: 0)
    1c18:	03ab021a 			; <UNDEFINED> instruction: 0x03ab021a
    1c1c:	85270000 	strhi	r0, [r7, #-0]!
    1c20:	2a000001 	bcs	1c2c <_back_addr-0x160e3d4>
    1c24:	27000010 	smladcs	r0, r0, r0, r0
    1c28:	0000017a 	andeq	r0, r0, sl, ror r1
    1c2c:	0000103e 	andeq	r1, r0, lr, lsr r0
    1c30:	00008024 	andeq	r8, r0, r4, lsr #32
    1c34:	01852700 	orreq	r2, r5, r0, lsl #14
    1c38:	102a0000 	eorne	r0, sl, r0
    1c3c:	7a270000 	bvc	9c1c44 <_back_addr-0xc4e3bc>
    1c40:	3e000001 	cdpcc	0, 0, cr0, cr0, cr1, {0}
    1c44:	00000010 	andeq	r0, r0, r0, lsl r0
    1c48:	016e2100 	cmneq	lr, r0, lsl #2
    1c4c:	09dc0000 	ldmibeq	ip, {}^	; <UNPREDICTABLE>
    1c50:	00980161 	addseq	r0, r8, r1, ror #2
    1c54:	17010000 	strne	r0, [r1, -r0]
    1c58:	0003ea02 	andeq	lr, r3, r2, lsl #20
    1c5c:	01852700 	orreq	r2, r5, r0, lsl #14
    1c60:	10560000 	subsne	r0, r6, r0
    1c64:	7a270000 	bvc	9c1c6c <_back_addr-0xc4e394>
    1c68:	6b000001 	blvs	1c74 <_back_addr-0x160e38c>
    1c6c:	24000010 	strcs	r0, [r0], #-16
    1c70:	00000098 	muleq	r0, r8, r0
    1c74:	00018527 	andeq	r8, r1, r7, lsr #10
    1c78:	00105600 	andseq	r5, r0, r0, lsl #12
    1c7c:	017a2700 	cmneq	sl, r0, lsl #14
    1c80:	106b0000 	rsbne	r0, fp, r0
    1c84:	00000000 	andeq	r0, r0, r0
    1c88:	00016e2b 	andeq	r6, r1, fp, lsr #28
    1c8c:	6109f400 	tstvs	r9, r0, lsl #8
    1c90:	00000401 	andeq	r0, r0, r1, lsl #8
    1c94:	021d0100 	andseq	r0, sp, #0, 2
    1c98:	0000042d 	andeq	r0, r0, sp, lsr #8
    1c9c:	00018527 	andeq	r8, r1, r7, lsr #10
    1ca0:	00108300 	andseq	r8, r0, r0, lsl #6
    1ca4:	017a2700 	cmneq	sl, r0, lsl #14
    1ca8:	10a40000 	adcne	r0, r4, r0
    1cac:	f42c0000 	vld4.8	{d0-d3}, [ip], r0
    1cb0:	04016109 	streq	r6, [r1], #-265	; 0x109
    1cb4:	27000000 	strcs	r0, [r0, -r0]
    1cb8:	00000185 	andeq	r0, r0, r5, lsl #3
    1cbc:	00001083 	andeq	r1, r0, r3, lsl #1
    1cc0:	00017a27 	andeq	r7, r1, r7, lsr #20
    1cc4:	0010a400 	andseq	sl, r0, r0, lsl #8
    1cc8:	2b000000 	blcs	1cd0 <_back_addr-0x160e330>
    1ccc:	0000016e 	andeq	r0, r0, lr, ror #2
    1cd0:	016109f8 	strdeq	r0, [r1, #-152]!	; 0xffffff68
    1cd4:	00000004 	andeq	r0, r0, r4
    1cd8:	70021e01 	andvc	r1, r2, r1, lsl #28
    1cdc:	27000004 	strcs	r0, [r0, -r4]
    1ce0:	00000185 	andeq	r0, r0, r5, lsl #3
    1ce4:	000010bc 	strheq	r1, [r0], -ip
    1ce8:	00017a27 	andeq	r7, r1, r7, lsr #20
    1cec:	0010df00 	andseq	sp, r0, r0, lsl #30
    1cf0:	09f82c00 	ldmibeq	r8!, {sl, fp, sp}^
    1cf4:	00040161 	andeq	r0, r4, r1, ror #2
    1cf8:	85270000 	strhi	r0, [r7, #-0]!
    1cfc:	bc000001 	stclt	0, cr0, [r0], {1}
    1d00:	27000010 	smladcs	r0, r0, r0, r0
    1d04:	0000017a 	andeq	r0, r0, sl, ror r1
    1d08:	000010df 	ldrdeq	r1, [r0], -pc	; <UNPREDICTABLE>
    1d0c:	6e2b0000 	cdpvs	0, 2, cr0, cr11, cr0, {0}
    1d10:	fc000001 	stc2	0, cr0, [r0], {1}
    1d14:	04016109 	streq	r6, [r1], #-265	; 0x109
    1d18:	01000000 	mrseq	r0, (UNDEF: 0)
    1d1c:	04b3021f 	ldrteq	r0, [r3], #543	; 0x21f
    1d20:	85270000 	strhi	r0, [r7, #-0]!
    1d24:	f7000001 			; <UNDEFINED> instruction: 0xf7000001
    1d28:	27000010 	smladcs	r0, r0, r0, r0
    1d2c:	0000017a 	andeq	r0, r0, sl, ror r1
    1d30:	00001118 	andeq	r1, r0, r8, lsl r1
    1d34:	6109fc2c 	tstvs	r9, ip, lsr #24
    1d38:	00000401 	andeq	r0, r0, r1, lsl #8
    1d3c:	01852700 	orreq	r2, r5, r0, lsl #14
    1d40:	10f70000 	rscsne	r0, r7, r0
    1d44:	7a270000 	bvc	9c1d4c <_back_addr-0xc4e2b4>
    1d48:	18000001 	stmdane	r0, {r0}
    1d4c:	00000011 	andeq	r0, r0, r1, lsl r0
    1d50:	016e2b00 	cmneq	lr, r0, lsl #22
    1d54:	0a000000 	beq	1d5c <_back_addr-0x160e2a4>
    1d58:	00040161 	andeq	r0, r4, r1, ror #2
    1d5c:	20010000 	andcs	r0, r1, r0
    1d60:	0004f602 	andeq	pc, r4, r2, lsl #12
    1d64:	01852700 	orreq	r2, r5, r0, lsl #14
    1d68:	11300000 	teqne	r0, r0
    1d6c:	7a270000 	bvc	9c1d74 <_back_addr-0xc4e28c>
    1d70:	53000001 	movwpl	r0, #1
    1d74:	2c000011 	stccs	0, cr0, [r0], {17}
    1d78:	01610a00 	cmneq	r1, r0, lsl #20
    1d7c:	00000004 	andeq	r0, r0, r4
    1d80:	00018527 	andeq	r8, r1, r7, lsr #10
    1d84:	00113000 	andseq	r3, r1, r0
    1d88:	017a2700 	cmneq	sl, r0, lsl #14
    1d8c:	11530000 	cmpne	r3, r0
    1d90:	00000000 	andeq	r0, r0, r0
    1d94:	00016e2b 	andeq	r6, r1, fp, lsr #28
    1d98:	610a1000 	mrsvs	r1, (UNDEF: 10)
    1d9c:	00000801 	andeq	r0, r0, r1, lsl #16
    1da0:	02750100 	rsbseq	r0, r5, #0, 2
    1da4:	00000539 	andeq	r0, r0, r9, lsr r5
    1da8:	00018527 	andeq	r8, r1, r7, lsr #10
    1dac:	00116b00 	andseq	r6, r1, r0, lsl #22
    1db0:	017a2700 	cmneq	sl, r0, lsl #14
    1db4:	117f0000 	cmnne	pc, r0
    1db8:	102c0000 	eorne	r0, ip, r0
    1dbc:	0801610a 	stmdaeq	r1, {r1, r3, r8, sp, lr}
    1dc0:	27000000 	strcs	r0, [r0, -r0]
    1dc4:	00000185 	andeq	r0, r0, r5, lsl #3
    1dc8:	0000116b 	andeq	r1, r0, fp, ror #2
    1dcc:	00017a27 	andeq	r7, r1, r7, lsr #20
    1dd0:	00117f00 	andseq	r7, r1, r0, lsl #30
    1dd4:	2d000000 	stccs	0, cr0, [r0, #-0]
    1dd8:	01610a1c 	cmneq	r1, ip, lsl sl
    1ddc:	000000a0 	andeq	r0, r0, r0, lsr #1
    1de0:	00000713 	andeq	r0, r0, r3, lsl r7
    1de4:	0001a227 	andeq	sl, r1, r7, lsr #4
    1de8:	00119700 	andseq	r9, r1, r0, lsl #14
    1dec:	0a1c2c00 	beq	70cdf4 <_back_addr-0xf0320c>
    1df0:	00a00161 	adceq	r0, r0, r1, ror #2
    1df4:	ae290000 	cdpge	0, 2, cr0, cr9, cr0, {0}
    1df8:	ad000001 	stcge	0, cr0, [r0, #-4]
    1dfc:	29000011 	stmdbcs	r0, {r0, r4}
    1e00:	000001ba 			; <UNDEFINED> instruction: 0x000001ba
    1e04:	000011c0 	andeq	r1, r0, r0, asr #3
    1e08:	00015221 	andeq	r5, r1, r1, lsr #4
    1e0c:	610a1c00 	tstvs	sl, r0, lsl #24
    1e10:	0000b001 	andeq	fp, r0, r1
    1e14:	02780100 	rsbseq	r0, r8, #0, 2
    1e18:	00000597 	muleq	r0, r7, r5
    1e1c:	00016227 	andeq	r6, r1, r7, lsr #4
    1e20:	00121c00 	andseq	r1, r2, r0, lsl #24
    1e24:	00b02400 	adcseq	r2, r0, r0, lsl #8
    1e28:	62270000 	eorvs	r0, r7, #0
    1e2c:	1c000001 	stcne	0, cr0, [r0], {1}
    1e30:	00000012 	andeq	r0, r0, r2, lsl r0
    1e34:	01522b00 	cmpeq	r2, r0, lsl #22
    1e38:	0a5c0000 	beq	1701e40 <__bss_end__+0xdf1f0>
    1e3c:	000c0161 	andeq	r0, ip, r1, ror #2
    1e40:	96010000 	strls	r0, [r1], -r0
    1e44:	0005c802 	andeq	ip, r5, r2, lsl #16
    1e48:	01622700 	cmneq	r2, r0, lsl #14
    1e4c:	12340000 	eorsne	r0, r4, #0
    1e50:	5c2c0000 	stcpl	0, cr0, [ip], #-0
    1e54:	0c01610a 	stfeqs	f6, [r1], {10}
    1e58:	27000000 	strcs	r0, [r0, -r0]
    1e5c:	00000162 	andeq	r0, r0, r2, ror #2
    1e60:	00001234 	andeq	r1, r0, r4, lsr r2
    1e64:	6e210000 	cdpvs	0, 2, cr0, cr1, cr0, {0}
    1e68:	74000001 	strvc	r0, [r0], #-1
    1e6c:	c801610a 	stmdagt	r1, {r1, r3, r8, sp, lr}
    1e70:	01000000 	mrseq	r0, (UNDEF: 0)
    1e74:	0607029e 			; <UNDEFINED> instruction: 0x0607029e
    1e78:	85270000 	strhi	r0, [r7, #-0]!
    1e7c:	4c000001 	stcmi	0, cr0, [r0], {1}
    1e80:	27000012 	smladcs	r0, r2, r0, r0
    1e84:	0000017a 	andeq	r0, r0, sl, ror r1
    1e88:	00001260 	andeq	r1, r0, r0, ror #4
    1e8c:	0000c824 	andeq	ip, r0, r4, lsr #16
    1e90:	01852700 	orreq	r2, r5, r0, lsl #14
    1e94:	124c0000 	subne	r0, ip, #0
    1e98:	7a270000 	bvc	9c1ea0 <_back_addr-0xc4e160>
    1e9c:	60000001 	andvs	r0, r0, r1
    1ea0:	00000012 	andeq	r0, r0, r2, lsl r0
    1ea4:	016e2100 	cmneq	lr, r0, lsl #2
    1ea8:	0a800000 	beq	fe001eb0 <__bss_end__+0xfc9df260>
    1eac:	00e00161 	rsceq	r0, r0, r1, ror #2
    1eb0:	9f010000 	svcls	0x00010000
    1eb4:	00064602 	andeq	r4, r6, r2, lsl #12
    1eb8:	01852700 	orreq	r2, r5, r0, lsl #14
    1ebc:	12780000 	rsbsne	r0, r8, #0
    1ec0:	7a270000 	bvc	9c1ec8 <_back_addr-0xc4e138>
    1ec4:	8c000001 	stchi	0, cr0, [r0], {1}
    1ec8:	24000012 	strcs	r0, [r0], #-18
    1ecc:	000000e0 	andeq	r0, r0, r0, ror #1
    1ed0:	00018527 	andeq	r8, r1, r7, lsr #10
    1ed4:	00127800 	andseq	r7, r2, r0, lsl #16
    1ed8:	017a2700 	cmneq	sl, r0, lsl #14
    1edc:	128c0000 	addne	r0, ip, #0
    1ee0:	00000000 	andeq	r0, r0, r0
    1ee4:	0001522b 	andeq	r5, r1, fp, lsr #4
    1ee8:	610a9000 	mrsvs	r9, (UNDEF: 10)
    1eec:	00000401 	andeq	r0, r0, r1, lsl #8
    1ef0:	02980100 	addseq	r0, r8, #0, 2
    1ef4:	00000677 	andeq	r0, r0, r7, ror r6
    1ef8:	00016227 	andeq	r6, r1, r7, lsr #4
    1efc:	0012a400 	andseq	sl, r2, r0, lsl #8
    1f00:	0a902c00 	beq	fe40cf08 <__bss_end__+0xfcdea2b8>
    1f04:	00040161 	andeq	r0, r4, r1, ror #2
    1f08:	62270000 	eorvs	r0, r7, #0
    1f0c:	a4000001 	strge	r0, [r0], #-1
    1f10:	00000012 	andeq	r0, r0, r2, lsl r0
    1f14:	016e2100 	cmneq	lr, r0, lsl #2
    1f18:	0aa40000 	beq	fe901f20 <__bss_end__+0xfd2df2d0>
    1f1c:	00f80161 	rscseq	r0, r8, r1, ror #2
    1f20:	84010000 	strhi	r0, [r1], #-0
    1f24:	0006b602 	andeq	fp, r6, r2, lsl #12
    1f28:	01852700 	orreq	r2, r5, r0, lsl #14
    1f2c:	12bc0000 	adcsne	r0, ip, #0
    1f30:	7a270000 	bvc	9c1f38 <_back_addr-0xc4e0c8>
    1f34:	d0000001 	andle	r0, r0, r1
    1f38:	24000012 	strcs	r0, [r0], #-18
    1f3c:	000000f8 	strdeq	r0, [r0], -r8
    1f40:	00018527 	andeq	r8, r1, r7, lsr #10
    1f44:	0012bc00 	andseq	fp, r2, r0, lsl #24
    1f48:	017a2700 	cmneq	sl, r0, lsl #14
    1f4c:	12d00000 	sbcsne	r0, r0, #0
    1f50:	00000000 	andeq	r0, r0, r0
    1f54:	00016e21 	andeq	r6, r1, r1, lsr #28
    1f58:	610aa800 	tstvs	sl, r0, lsl #16
    1f5c:	00011001 	andeq	r1, r1, r1
    1f60:	02850100 	addeq	r0, r5, #0, 2
    1f64:	000006f5 	strdeq	r0, [r0], -r5
    1f68:	00018527 	andeq	r8, r1, r7, lsr #10
    1f6c:	0012e800 	andseq	lr, r2, r0, lsl #16
    1f70:	017a2700 	cmneq	sl, r0, lsl #14
    1f74:	12fc0000 	rscsne	r0, ip, #0
    1f78:	10240000 	eorne	r0, r4, r0
    1f7c:	27000001 	strcs	r0, [r0, -r1]
    1f80:	00000185 	andeq	r0, r0, r5, lsl #3
    1f84:	000012e8 	andeq	r1, r0, r8, ror #5
    1f88:	00017a27 	andeq	r7, r1, r7, lsr #20
    1f8c:	0012fc00 	andseq	pc, r2, r0, lsl #24
    1f90:	1d000000 	stcne	0, cr0, [r0, #-0]
    1f94:	01610a44 	cmneq	r1, r4, asr #20
    1f98:	000013b0 			; <UNDEFINED> instruction: 0x000013b0
    1f9c:	00000708 	andeq	r0, r0, r8, lsl #14
    1fa0:	0150011e 	cmpeq	r0, lr, lsl r1
    1fa4:	482e0031 	stmdami	lr!, {r0, r4, r5}
    1fa8:	c201610a 	andgt	r6, r1, #-2147483646	; 0x80000002
    1fac:	00000013 	andeq	r0, r0, r3, lsl r0
    1fb0:	0a081d00 	beq	2093b8 <_back_addr-0x1406c48>
    1fb4:	13d40161 	bicsne	r0, r4, #1073741848	; 0x40000018
    1fb8:	072e0000 	streq	r0, [lr, -r0]!
    1fbc:	011e0000 	tsteq	lr, r0
    1fc0:	01f30350 	mvnseq	r0, r0, asr r3
    1fc4:	51011e50 	tstpl	r1, r0, asr lr
    1fc8:	00380802 	eorseq	r0, r8, r2, lsl #16
    1fcc:	610a0c2e 	tstvs	sl, lr, lsr #24
    1fd0:	0013c201 	andseq	ip, r3, r1, lsl #4
    1fd4:	0a1c2e00 	beq	70d7dc <_back_addr-0xf02824>
    1fd8:	13c20161 	bicne	r0, r2, #1073741848	; 0x40000018
    1fdc:	26000000 	strcs	r0, [r0], -r0
    1fe0:	000001db 	ldrdeq	r0, [r0], -fp
    1fe4:	01610ac4 	smulbteq	r1, r4, sl
    1fe8:	00000008 	andeq	r0, r0, r8
    1fec:	07679c01 	strbeq	r9, [r7, -r1, lsl #24]!
    1ff0:	eb270000 	bl	9c1ff8 <_back_addr-0xc4e008>
    1ff4:	14000001 	strne	r0, [r0], #-1
    1ff8:	29000013 	stmdbcs	r0, {r0, r1, r4}
    1ffc:	000001f6 	strdeq	r0, [r0], -r6
    2000:	00001335 	andeq	r1, r0, r5, lsr r3
    2004:	08472f00 	stmdaeq	r7, {r8, r9, sl, fp, sp}^
    2008:	52010000 	andpl	r0, r1, #0
    200c:	00000033 	andeq	r0, r0, r3, lsr r0
    2010:	01610acc 	smulbteq	r1, ip, sl
    2014:	00000270 	andeq	r0, r0, r0, ror r2
    2018:	0a539c01 	beq	14e9024 <_back_addr-0x126fdc>
    201c:	17300000 	ldrne	r0, [r0, -r0]!
    2020:	01000008 	tsteq	r0, r8
    2024:	00005352 	andeq	r5, r0, r2, asr r3
    2028:	00138f00 	andseq	r8, r3, r0, lsl #30
    202c:	07bb3100 	ldreq	r3, [fp, r0, lsl #2]!
    2030:	54010000 	strpl	r0, [r1], #-0
    2034:	00000137 	andeq	r0, r0, r7, lsr r1
    2038:	32609102 	rsbcc	r9, r0, #-2147483648	; 0x80000000
    203c:	54010069 	strpl	r0, [r1], #-105	; 0x69
    2040:	00000053 	andeq	r0, r0, r3, asr r0
    2044:	000013da 	ldrdeq	r1, [r0], -sl
    2048:	00015233 	andeq	r5, r1, r3, lsr r2
    204c:	610ad400 	tstvs	sl, r0, lsl #8
    2050:	00012801 	andeq	r2, r1, r1, lsl #16
    2054:	d6570100 	ldrble	r0, [r7], -r0, lsl #2
    2058:	27000007 	strcs	r0, [r0, -r7]
    205c:	00000162 	andeq	r0, r0, r2, ror #2
    2060:	000013ee 	andeq	r1, r0, lr, ror #7
    2064:	00014824 	andeq	r4, r1, r4, lsr #16
    2068:	01622700 	cmneq	r2, r0, lsl #14
    206c:	14290000 	strtne	r0, [r9], #-0
    2070:	00000000 	andeq	r0, r0, r0
    2074:	00015233 	andeq	r5, r1, r3, lsr r2
    2078:	610b1000 	mrsvs	r1, (UNDEF: 11)
    207c:	00016001 	andeq	r6, r1, r1
    2080:	02580100 	subseq	r0, r8, #0, 2
    2084:	27000008 	strcs	r0, [r0, -r8]
    2088:	00000162 	andeq	r0, r0, r2, ror #2
    208c:	00001442 	andeq	r1, r0, r2, asr #8
    2090:	00017824 	andeq	r7, r1, r4, lsr #16
    2094:	01623400 	cmneq	r2, r0, lsl #8
    2098:	70030000 	andvc	r0, r3, r0
    209c:	00009f1c 	andeq	r9, r0, ip, lsl pc
    20a0:	00016e33 	andeq	r6, r1, r3, lsr lr
    20a4:	610b2400 	tstvs	fp, r0, lsl #8
    20a8:	00019001 	andeq	r9, r1, r1
    20ac:	38580100 	ldmdacc	r8, {r8}^
    20b0:	35000008 	strcc	r0, [r0, #-8]
    20b4:	00000185 	andeq	r0, r0, r5, lsl #3
    20b8:	00017a27 	andeq	r7, r1, r7, lsr #20
    20bc:	0014a400 	andseq	sl, r4, r0, lsl #8
    20c0:	01a82400 			; <UNDEFINED> instruction: 0x01a82400
    20c4:	85350000 	ldrhi	r0, [r5, #-0]!
    20c8:	27000001 	strcs	r0, [r0, -r1]
    20cc:	0000017a 	andeq	r0, r0, sl, ror r1
    20d0:	000014ef 	andeq	r1, r0, pc, ror #9
    20d4:	52330000 	eorspl	r0, r3, #0
    20d8:	34000001 	strcc	r0, [r0], #-1
    20dc:	c001610b 	andgt	r6, r1, fp, lsl #2
    20e0:	01000001 	tsteq	r0, r1
    20e4:	00086459 	andeq	r6, r8, r9, asr r4
    20e8:	01622700 	cmneq	r2, r0, lsl #14
    20ec:	15020000 	strne	r0, [r2, #-0]
    20f0:	d8240000 	stmdale	r4!, {}	; <UNPREDICTABLE>
    20f4:	27000001 	strcs	r0, [r0, -r1]
    20f8:	00000162 	andeq	r0, r0, r2, ror #2
    20fc:	00001553 	andeq	r1, r0, r3, asr r5
    2100:	6e330000 	cdpvs	0, 3, cr0, cr3, cr0, {0}
    2104:	44000001 	strmi	r0, [r0], #-1
    2108:	f001610b 			; <UNDEFINED> instruction: 0xf001610b
    210c:	01000001 	tsteq	r0, r1
    2110:	00089a59 	andeq	r9, r8, r9, asr sl
    2114:	01853500 	orreq	r3, r5, r0, lsl #10
    2118:	7a270000 	bvc	9c2120 <_back_addr-0xc4dee0>
    211c:	68000001 	stmdavs	r0, {r0}
    2120:	24000015 	strcs	r0, [r0], #-21
    2124:	00000208 	andeq	r0, r0, r8, lsl #4
    2128:	00018535 	andeq	r8, r1, r5, lsr r5
    212c:	017a2700 	cmneq	sl, r0, lsl #14
    2130:	15b90000 	ldrne	r0, [r9, #0]!
    2134:	00000000 	andeq	r0, r0, r0
    2138:	00015233 	andeq	r5, r1, r3, lsr r2
    213c:	610b5c00 	tstvs	fp, r0, lsl #24
    2140:	00022001 	andeq	r2, r2, r1
    2144:	c65a0100 	ldrbgt	r0, [sl], -r0, lsl #2
    2148:	27000008 	strcs	r0, [r0, -r8]
    214c:	00000162 	andeq	r0, r0, r2, ror #2
    2150:	000015ce 	andeq	r1, r0, lr, asr #11
    2154:	00023824 	andeq	r3, r2, r4, lsr #16
    2158:	01622700 	cmneq	r2, r0, lsl #14
    215c:	161f0000 	ldrne	r0, [pc], -r0
    2160:	00000000 	andeq	r0, r0, r0
    2164:	00016e33 	andeq	r6, r1, r3, lsr lr
    2168:	610b6c00 	tstvs	fp, r0, lsl #24
    216c:	00025001 	andeq	r5, r2, r1
    2170:	fc5a0100 	mrrc2	1, 0, r0, sl, cr0
    2174:	35000008 	strcc	r0, [r0, #-8]
    2178:	00000185 	andeq	r0, r0, r5, lsl #3
    217c:	00017a27 	andeq	r7, r1, r7, lsr #20
    2180:	00163400 	andseq	r3, r6, r0, lsl #8
    2184:	02682400 	rsbeq	r2, r8, #0, 8
    2188:	85350000 	ldrhi	r0, [r5, #-0]!
    218c:	27000001 	strcs	r0, [r0, -r1]
    2190:	0000017a 	andeq	r0, r0, sl, ror r1
    2194:	00001685 	andeq	r1, r0, r5, lsl #13
    2198:	52330000 	eorspl	r0, r3, #0
    219c:	84000001 	strhi	r0, [r0], #-1
    21a0:	8001610b 	andhi	r6, r1, fp, lsl #2
    21a4:	01000002 	tsteq	r0, r2
    21a8:	0009285b 	andeq	r2, r9, fp, asr r8
    21ac:	01622700 	cmneq	r2, r0, lsl #14
    21b0:	169a0000 	ldrne	r0, [sl], r0
    21b4:	98240000 	stmdals	r4!, {}	; <UNPREDICTABLE>
    21b8:	27000002 	strcs	r0, [r0, -r2]
    21bc:	00000162 	andeq	r0, r0, r2, ror #2
    21c0:	000016eb 	andeq	r1, r0, fp, ror #13
    21c4:	6e330000 	cdpvs	0, 3, cr0, cr3, cr0, {0}
    21c8:	94000001 	strls	r0, [r0], #-1
    21cc:	b001610b 	andlt	r6, r1, fp, lsl #2
    21d0:	01000002 	tsteq	r0, r2
    21d4:	00095e5b 	andeq	r5, r9, fp, asr lr
    21d8:	01853500 	orreq	r3, r5, r0, lsl #10
    21dc:	7a270000 	bvc	9c21e4 <_back_addr-0xc4de1c>
    21e0:	00000001 	andeq	r0, r0, r1
    21e4:	24000017 	strcs	r0, [r0], #-23
    21e8:	000002c8 	andeq	r0, r0, r8, asr #5
    21ec:	00018535 	andeq	r8, r1, r5, lsr r5
    21f0:	017a2700 	cmneq	sl, r0, lsl #14
    21f4:	17510000 	ldrbne	r0, [r1, -r0]
    21f8:	00000000 	andeq	r0, r0, r0
    21fc:	00016e33 	andeq	r6, r1, r3, lsr lr
    2200:	610bac00 	tstvs	fp, r0, lsl #24
    2204:	0002e001 	andeq	lr, r2, r1
    2208:	9c5c0100 	ldflse	f0, [ip], {-0}
    220c:	27000009 	strcs	r0, [r0, -r9]
    2210:	00000185 	andeq	r0, r0, r5, lsl #3
    2214:	00001766 	andeq	r1, r0, r6, ror #14
    2218:	00017a27 	andeq	r7, r1, r7, lsr #20
    221c:	00178400 	andseq	r8, r7, r0, lsl #8
    2220:	03002400 	movweq	r2, #1024	; 0x400
    2224:	85270000 	strhi	r0, [r7, #-0]!
    2228:	d5000001 	strle	r0, [r0, #-1]
    222c:	27000017 	smladcs	r0, r7, r0, r0
    2230:	0000017a 	andeq	r0, r0, sl, ror r1
    2234:	000017e8 	andeq	r1, r0, r8, ror #15
    2238:	6e330000 	cdpvs	0, 3, cr0, cr3, cr0, {0}
    223c:	bc000001 	stclt	0, cr0, [r0], {1}
    2240:	1801610b 	stmdane	r1, {r0, r1, r3, r8, sp, lr}
    2244:	01000003 	tsteq	r0, r3
    2248:	0009da5d 	andeq	sp, r9, sp, asr sl
    224c:	01852700 	orreq	r2, r5, r0, lsl #14
    2250:	17fd0000 	ldrbne	r0, [sp, r0]!
    2254:	7a270000 	bvc	9c225c <_back_addr-0xc4dda4>
    2258:	1b000001 	blne	2264 <_back_addr-0x160dd9c>
    225c:	24000018 	strcs	r0, [r0], #-24
    2260:	00000338 	andeq	r0, r0, r8, lsr r3
    2264:	00018527 	andeq	r8, r1, r7, lsr #10
    2268:	00186c00 	andseq	r6, r8, r0, lsl #24
    226c:	017a2700 	cmneq	sl, r0, lsl #14
    2270:	187f0000 	ldmdane	pc!, {}^	; <UNPREDICTABLE>
    2274:	00000000 	andeq	r0, r0, r0
    2278:	00016e33 	andeq	r6, r1, r3, lsr lr
    227c:	610bcc00 	tstvs	fp, r0, lsl #24
    2280:	00035001 	andeq	r5, r3, r1
    2284:	185e0100 	ldmdane	lr, {r8}^
    2288:	2700000a 	strcs	r0, [r0, -sl]
    228c:	00000185 	andeq	r0, r0, r5, lsl #3
    2290:	00001894 	muleq	r0, r4, r8
    2294:	00017a27 	andeq	r7, r1, r7, lsr #20
    2298:	0018b200 	andseq	fp, r8, r0, lsl #4
    229c:	03702400 	cmneq	r0, #0, 8
    22a0:	85270000 	strhi	r0, [r7, #-0]!
    22a4:	03000001 	movweq	r0, #1
    22a8:	27000019 	smladcs	r0, r9, r0, r0
    22ac:	0000017a 	andeq	r0, r0, sl, ror r1
    22b0:	00001916 	andeq	r1, r0, r6, lsl r9
    22b4:	6e360000 	cdpvs	0, 3, cr0, cr6, cr0, {0}
    22b8:	dc000001 	stcle	0, cr0, [r0], {1}
    22bc:	8801610b 	stmdahi	r1, {r0, r1, r3, r8, sp, lr}
    22c0:	01000003 	tsteq	r0, r3
    22c4:	0185275f 	orreq	r2, r5, pc, asr r7
    22c8:	192b0000 	stmdbne	fp!, {}	; <UNPREDICTABLE>
    22cc:	7a270000 	bvc	9c22d4 <_back_addr-0xc4dd2c>
    22d0:	49000001 	stmdbmi	r0, {r0}
    22d4:	24000019 	strcs	r0, [r0], #-25
    22d8:	000003b0 			; <UNDEFINED> instruction: 0x000003b0
    22dc:	00018527 	andeq	r8, r1, r7, lsr #10
    22e0:	00198d00 	andseq	r8, r9, r0, lsl #26
    22e4:	017a2700 	cmneq	sl, r0, lsl #14
    22e8:	19a00000 	stmibne	r0!, {}	; <UNPREDICTABLE>
    22ec:	00000000 	andeq	r0, r0, r0
    22f0:	02db2f00 	sbcseq	r2, fp, #0, 30
    22f4:	64010000 	strvs	r0, [r1], #-0
    22f8:	00000033 	andeq	r0, r0, r3, lsr r0
    22fc:	01610d3c 	cmneq	r1, ip, lsr sp
    2300:	00000090 	muleq	r0, r0, r0
    2304:	0ad39c01 	beq	ff4e9310 <__bss_end__+0xfdec66c0>
    2308:	a5300000 	ldrge	r0, [r0, #-0]!
    230c:	01000007 	tsteq	r0, r7
    2310:	000ad364 	andeq	sp, sl, r4, ror #6
    2314:	0019c600 	andseq	ip, r9, r0, lsl #12
    2318:	07e83000 	strbeq	r3, [r8, r0]!
    231c:	64010000 	strvs	r0, [r1], #-0
    2320:	00000053 	andeq	r0, r0, r3, asr r0
    2324:	00001a09 	andeq	r1, r0, r9, lsl #20
    2328:	00073830 	andeq	r3, r7, r0, lsr r8
    232c:	d3640100 	cmnle	r4, #0, 2
    2330:	4c00000a 	stcmi	0, cr0, [r0], {10}
    2334:	3700001a 	smladcc	r0, sl, r0, r0
    2338:	0079656b 	rsbseq	r6, r9, fp, ror #10
    233c:	0ad96401 	beq	ff65b348 <__bss_end__+0xfe0386f8>
    2340:	1a8f0000 	bne	fe3c2348 <__bss_end__+0xfcd9f6f8>
    2344:	75380000 	ldrvc	r0, [r8, #-0]!
    2348:	01000008 	tsteq	r0, r8
    234c:	0001d566 	andeq	sp, r1, r6, ror #10
    2350:	001ac600 	andseq	ip, sl, r0, lsl #12
    2354:	0d542e00 	ldcleq	14, cr2, [r4, #-0]
    2358:	02020161 	andeq	r0, r2, #1073741848	; 0x40000018
    235c:	a4390000 	ldrtge	r0, [r9], #-0
    2360:	9101610d 	tstls	r1, sp, lsl #2
    2364:	2e000001 	cdpcs	0, 0, cr0, cr0, cr1, {0}
    2368:	01610da8 	smultbeq	r1, r8, sp
    236c:	00000267 	andeq	r0, r0, r7, ror #4
    2370:	6f040600 	svcvs	0x00040600
    2374:	06000000 	streq	r0, [r0], -r0
    2378:	00005304 	andeq	r5, r0, r4, lsl #6
    237c:	07d82f00 	ldrbeq	r2, [r8, r0, lsl #30]
    2380:	7f010000 	svcvc	0x00010000
    2384:	00000033 	andeq	r0, r0, r3, lsr r0
    2388:	01610dcc 	smulbteq	r1, ip, sp
    238c:	00000090 	muleq	r0, r0, r0
    2390:	0b5f9c01 	bleq	17e939c <__bss_end__+0x1c674c>
    2394:	a5300000 	ldrge	r0, [r0, #-0]!
    2398:	01000007 	tsteq	r0, r7
    239c:	000ad37f 	andeq	sp, sl, pc, ror r3
    23a0:	001b1b00 	andseq	r1, fp, r0, lsl #22
    23a4:	07e83000 	strbeq	r3, [r8, r0]!
    23a8:	7f010000 	svcvc	0x00010000
    23ac:	00000053 	andeq	r0, r0, r3, asr r0
    23b0:	00001b5e 	andeq	r1, r0, lr, asr fp
    23b4:	00073830 	andeq	r3, r7, r0, lsr r8
    23b8:	d37f0100 	cmnle	pc, #0, 2
    23bc:	a100000a 	tstge	r0, sl
    23c0:	3700001b 	smladcc	r0, fp, r0, r0
    23c4:	0079656b 	rsbseq	r6, r9, fp, ror #10
    23c8:	0ad97f01 	beq	ff661fd4 <__bss_end__+0xfe03f384>
    23cc:	1be40000 	blne	ff9023d4 <__bss_end__+0xfe2df784>
    23d0:	75380000 	ldrvc	r0, [r8, #-0]!
    23d4:	01000008 	tsteq	r0, r8
    23d8:	0001d581 	andeq	sp, r1, r1, lsl #11
    23dc:	001c1b00 	andseq	r1, ip, r0, lsl #22
    23e0:	0de42e00 	stcleq	14, cr2, [r4]
    23e4:	02020161 	andeq	r0, r2, #1073741848	; 0x40000018
    23e8:	34390000 	ldrtcc	r0, [r9], #-0
    23ec:	9101610e 	tstls	r1, lr, lsl #2
    23f0:	2e000001 	cdpcs	0, 0, cr0, cr0, cr1, {0}
    23f4:	01610e38 	cmneq	r1, r8, lsr lr
    23f8:	00000267 	andeq	r0, r0, r7, ror #4
    23fc:	02562f00 	subseq	r2, r6, #0, 30
    2400:	9a010000 	bls	42408 <_back_addr-0x15cdbf8>
    2404:	00000033 	andeq	r0, r0, r3, lsr r0
    2408:	01610e5c 	cmneq	r1, ip, asr lr
    240c:	00000094 	muleq	r0, r4, r0
    2410:	0bdf9c01 	bleq	ff7e941c <__bss_end__+0xfe1c67cc>
    2414:	a5300000 	ldrge	r0, [r0, #-0]!
    2418:	01000007 	tsteq	r0, r7
    241c:	000ad39a 	muleq	sl, sl, r3
    2420:	001c7000 	andseq	r7, ip, r0
    2424:	07e83000 	strbeq	r3, [r8, r0]!
    2428:	9a010000 	bls	42430 <_back_addr-0x15cdbd0>
    242c:	00000053 	andeq	r0, r0, r3, asr r0
    2430:	00001cb3 			; <UNDEFINED> instruction: 0x00001cb3
    2434:	00073830 	andeq	r3, r7, r0, lsr r8
    2438:	d39a0100 	orrsle	r0, sl, #0, 2
    243c:	f600000a 			; <UNDEFINED> instruction: 0xf600000a
    2440:	3700001c 	smladcc	r0, ip, r0, r0
    2444:	0079656b 	rsbseq	r6, r9, fp, ror #10
    2448:	0ad99a01 	beq	ff668c54 <__bss_end__+0xfe046004>
    244c:	1d390000 	ldcne	0, cr0, [r9, #-0]
    2450:	75380000 	ldrvc	r0, [r8, #-0]!
    2454:	01000008 	tsteq	r0, r8
    2458:	0001d59c 	muleq	r1, ip, r5
    245c:	001d7000 	andseq	r7, sp, r0
    2460:	0e742e00 	cdpeq	14, 7, cr2, cr4, cr0, {0}
    2464:	02020161 	andeq	r0, r2, #1073741848	; 0x40000018
    2468:	c4390000 	ldrtgt	r0, [r9], #-0
    246c:	9101610e 	tstls	r1, lr, lsl #2
    2470:	2e000001 	cdpcs	0, 0, cr0, cr0, cr1, {0}
    2474:	01610ec8 	smulbteq	r1, r8, lr
    2478:	00000267 	andeq	r0, r0, r7, ror #4
    247c:	081c2f00 	ldmdaeq	ip, {r8, r9, sl, fp, sp}
    2480:	b7010000 	strlt	r0, [r1, -r0]
    2484:	00000033 	andeq	r0, r0, r3, lsr r0
    2488:	01610ef0 	strdeq	r0, [r1, #-224]!	; 0xffffff20
    248c:	000000ec 	andeq	r0, r0, ip, ror #1
    2490:	0cfc9c01 	ldcleq	12, cr9, [ip], #4
    2494:	a5300000 	ldrge	r0, [r0, #-0]!
    2498:	01000007 	tsteq	r0, r7
    249c:	000ad3b7 			; <UNDEFINED> instruction: 0x000ad3b7
    24a0:	001dc500 	andseq	ip, sp, r0, lsl #10
    24a4:	07e83000 	strbeq	r3, [r8, r0]!
    24a8:	b7010000 	strlt	r0, [r1, -r0]
    24ac:	00000053 	andeq	r0, r0, r3, asr r0
    24b0:	00001de3 	andeq	r1, r0, r3, ror #27
    24b4:	00073830 	andeq	r3, r7, r0, lsr r8
    24b8:	d3b70100 			; <UNDEFINED> instruction: 0xd3b70100
    24bc:	0100000a 	tsteq	r0, sl
    24c0:	3700001e 	smladcc	r0, lr, r0, r0
    24c4:	0079656b 	rsbseq	r6, r9, fp, ror #10
    24c8:	0ad9b701 	beq	ff6700d4 <__bss_end__+0xfe04d484>
    24cc:	1e1f0000 	cdpne	0, 1, cr0, cr15, cr0, {0}
    24d0:	72320000 	eorsvc	r0, r2, #0
    24d4:	01007465 	tsteq	r0, r5, ror #8
    24d8:	000033b9 			; <UNDEFINED> instruction: 0x000033b9
    24dc:	001e3d00 	andseq	r3, lr, r0, lsl #26
    24e0:	08753800 	ldmdaeq	r5!, {fp, ip, sp}^
    24e4:	ba010000 	blt	424ec <_back_addr-0x15cdb14>
    24e8:	000001d5 	ldrdeq	r0, [r0], -r5
    24ec:	00001e68 	andeq	r1, r0, r8, ror #28
    24f0:	0007ae3a 	andeq	sl, r7, sl, lsr lr
    24f4:	000cfc00 	andeq	pc, ip, r0, lsl #24
    24f8:	14030500 	strne	r0, [r3], #-1280	; 0x500
    24fc:	2e016126 	adfcssp	f6, f1, f6
    2500:	01610f08 	cmneq	r1, r8, lsl #30
    2504:	00000202 	andeq	r0, r0, r2, lsl #4
    2508:	610f541d 	tstvs	pc, sp, lsl r4	; <UNPREDICTABLE>
    250c:	00019101 	andeq	r9, r1, r1, lsl #2
    2510:	000c7e00 	andeq	r7, ip, r0, lsl #28
    2514:	50011e00 	andpl	r1, r1, r0, lsl #28
    2518:	00007402 	andeq	r7, r0, r2, lsl #8
    251c:	610f701d 	tstvs	pc, sp, lsl r0	; <UNPREDICTABLE>
    2520:	0013d401 	andseq	sp, r3, r1, lsl #8
    2524:	000c9800 	andeq	r9, ip, r0, lsl #16
    2528:	50011e00 	andpl	r1, r1, r0, lsl #28
    252c:	1e007602 	cfmadd32ne	mvax0, mvfx7, mvfx0, mvfx2
    2530:	77025101 	strvc	r5, [r2, -r1, lsl #2]
    2534:	7c2e0000 	stcvc	0, cr0, [lr], #-0
    2538:	6701610f 	strvs	r6, [r1, -pc, lsl #2]
    253c:	1d000002 	stcne	0, cr0, [r0, #-8]
    2540:	01610fac 	smultbeq	r1, ip, pc	; <UNPREDICTABLE>
    2544:	000013eb 	andeq	r1, r0, fp, ror #7
    2548:	00000cd0 	ldrdeq	r0, [r0], -r0	; <UNPREDICTABLE>
    254c:	0550011e 	ldrbeq	r0, [r0, #-286]	; 0x11e
    2550:	61263c03 	teqvs	r6, r3, lsl #24
    2554:	51011e01 	tstpl	r1, r1, lsl #28
    2558:	26340305 	ldrtcs	r0, [r4], -r5, lsl #6
    255c:	011e0161 	tsteq	lr, r1, ror #2
    2560:	14030552 	strne	r0, [r3], #-1362	; 0x552
    2564:	1e016126 	adfnesp	f6, f1, f6
    2568:	08025301 	stmdaeq	r2, {r0, r8, r9, ip, lr}
    256c:	d41f00c4 	ldrle	r0, [pc], #-196	; 2574 <_back_addr-0x160da8c>
    2570:	eb01610f 	bl	5a9b4 <_back_addr-0x15b564c>
    2574:	1e000013 	mcrne	0, 0, r0, cr0, cr3, {0}
    2578:	03055001 	movweq	r5, #20481	; 0x5001
    257c:	0161263c 	cmneq	r1, ip, lsr r6
    2580:	0551011e 	ldrbeq	r0, [r1, #-286]	; 0x11e
    2584:	61263403 	teqvs	r6, r3, lsl #8
    2588:	52011e01 	andpl	r1, r1, #1, 28
    258c:	26140305 	ldrcs	r0, [r4], -r5, lsl #6
    2590:	011e0161 	tsteq	lr, r1, ror #2
    2594:	be080253 	mcrlt	2, 0, r0, cr8, cr3, {2}
    2598:	9c070000 	stcls	0, cr0, [r7], {-0}
    259c:	2f000000 	svccs	0x00000000
    25a0:	0000074e 	andeq	r0, r0, lr, asr #14
    25a4:	0033e401 	eorseq	lr, r3, r1, lsl #8
    25a8:	0fdc0000 	svceq	0x00dc0000
    25ac:	00700161 	rsbseq	r0, r0, r1, ror #2
    25b0:	9c010000 	stcls	0, cr0, [r1], {-0}
    25b4:	00000d69 	andeq	r0, r0, r9, ror #26
    25b8:	0007a530 	andeq	sl, r7, r0, lsr r5
    25bc:	d3e40100 	mvnle	r0, #0, 2
    25c0:	b200000a 	andlt	r0, r0, #10
    25c4:	3000001e 	andcc	r0, r0, lr, lsl r0
    25c8:	000007e8 	andeq	r0, r0, r8, ror #15
    25cc:	0053e401 	subseq	lr, r3, r1, lsl #8
    25d0:	1ef50000 	cdpne	0, 15, cr0, cr5, cr0, {0}
    25d4:	38300000 	ldmdacc	r0!, {}	; <UNPREDICTABLE>
    25d8:	01000007 	tsteq	r0, r7
    25dc:	000ad3e4 	andeq	sp, sl, r4, ror #7
    25e0:	001f3800 	andseq	r3, pc, r0, lsl #16
    25e4:	08753800 	ldmdaeq	r5!, {fp, ip, sp}^
    25e8:	e6010000 	str	r0, [r1], -r0
    25ec:	000001d5 	ldrdeq	r0, [r0], -r5
    25f0:	00001f7b 	andeq	r1, r0, fp, ror pc
    25f4:	610ff02e 	tstvs	pc, lr, lsr #32
    25f8:	00020201 	andeq	r0, r2, r1, lsl #4
    25fc:	10443900 	subne	r3, r4, r0, lsl #18
    2600:	01910161 	orrseq	r0, r1, r1, ror #2
    2604:	3b000000 	blcc	260c <_back_addr-0x160d9f4>
    2608:	000007ef 	andeq	r0, r0, pc, ror #15
    260c:	0102cb01 	tsteq	r2, r1, lsl #22
    2610:	00000d8f 	andeq	r0, r0, pc, lsl #27
    2614:	00087514 	andeq	r7, r8, r4, lsl r5
    2618:	02cb0100 	sbceq	r0, fp, #0, 2
    261c:	000001d5 	ldrdeq	r0, [r0], -r5
    2620:	0007fe14 	andeq	pc, r7, r4, lsl lr	; <UNPREDICTABLE>
    2624:	02cb0100 	sbceq	r0, fp, #0, 2
    2628:	00000ad3 	ldrdeq	r0, [r0], -r3
    262c:	08052f00 	stmdaeq	r5, {r8, r9, sl, fp, sp}
    2630:	f9010000 			; <UNDEFINED> instruction: 0xf9010000
    2634:	00000033 	andeq	r0, r0, r3, lsr r0
    2638:	0161104c 	cmneq	r1, ip, asr #32
    263c:	00000158 	andeq	r0, r0, r8, asr r1
    2640:	0e529c01 	cdpeq	12, 5, cr9, cr2, cr1, {0}
    2644:	a5300000 	ldrge	r0, [r0, #-0]!
    2648:	01000007 	tsteq	r0, r7
    264c:	000ad3f9 	strdeq	sp, [sl], -r9
    2650:	001fa400 	andseq	sl, pc, r0, lsl #8
    2654:	07e83000 	strbeq	r3, [r8, r0]!
    2658:	f9010000 			; <UNDEFINED> instruction: 0xf9010000
    265c:	00000053 	andeq	r0, r0, r3, asr r0
    2660:	00001fe9 	andeq	r1, r0, r9, ror #31
    2664:	00073830 	andeq	r3, r7, r0, lsr r8
    2668:	d3f90100 	mvnsle	r0, #0, 2
    266c:	1200000a 	andne	r0, r0, #10
    2670:	30000020 	andcc	r0, r0, r0, lsr #32
    2674:	00000707 	andeq	r0, r0, r7, lsl #14
    2678:	0053f901 	subseq	pc, r3, r1, lsl #18
    267c:	20490000 	subcs	r0, r9, r0
    2680:	75380000 	ldrvc	r0, [r8, #-0]!
    2684:	01000008 	tsteq	r0, r8
    2688:	0001d5fb 	strdeq	sp, [r1], -fp
    268c:	00207200 	eoreq	r7, r0, r0, lsl #4
    2690:	08a43800 	stmiaeq	r4!, {fp, ip, sp}
    2694:	fc010000 	stc2	0, cr0, [r1], {-0}
    2698:	00000ad3 	ldrdeq	r0, [r0], -r3
    269c:	00002090 	muleq	r0, r0, r0
    26a0:	73657232 	cmnvc	r5, #536870915	; 0x20000003
    26a4:	33fd0100 	mvnscc	r0, #0, 2
    26a8:	a3000000 	movwge	r0, #0
    26ac:	21000020 	tstcs	r0, r0, lsr #32
    26b0:	00000d69 	andeq	r0, r0, r9, ror #26
    26b4:	016110cc 	cmneq	r1, ip, asr #1
    26b8:	000003c8 	andeq	r0, r0, r8, asr #7
    26bc:	38011e01 	stmdacc	r1, {r0, r9, sl, fp, ip}
    26c0:	2700000e 	strcs	r0, [r0, -lr]
    26c4:	00000d82 	andeq	r0, r0, r2, lsl #27
    26c8:	000020c3 	andeq	r2, r0, r3, asr #1
    26cc:	000d7627 	andeq	r7, sp, r7, lsr #12
    26d0:	0020e100 	eoreq	lr, r0, r0, lsl #2
    26d4:	7c2e0000 	stcvc	0, cr0, [lr], #-0
    26d8:	02016110 	andeq	r6, r1, #16, 2
    26dc:	1f000002 	svcne	0x00000002
    26e0:	0161117c 	smceq	4380	; 0x111c
    26e4:	00000191 	muleq	r0, r1, r1
    26e8:	0250011e 	subseq	r0, r0, #-2147483641	; 0x80000007
    26ec:	00000075 	andeq	r0, r0, r5, ror r0
    26f0:	00087b3c 	andeq	r7, r8, ip, lsr fp
    26f4:	01290100 	teqeq	r9, r0, lsl #2
    26f8:	00000033 	andeq	r0, r0, r3, lsr r0
    26fc:	016111a4 	cmneq	r1, r4, lsr #3
    2700:	000000cc 	andeq	r0, r0, ip, asr #1
    2704:	0ece9c01 	cdpeq	12, 12, cr9, cr14, cr1, {0}
    2708:	a53d0000 	ldrge	r0, [sp, #-0]!
    270c:	01000007 	tsteq	r0, r7
    2710:	0ad30129 	beq	ff4c2bbc <__bss_end__+0xfde9ff6c>
    2714:	20ff0000 	rscscs	r0, pc, r0
    2718:	e83d0000 	ldmda	sp!, {}	; <UNPREDICTABLE>
    271c:	01000007 	tsteq	r0, r7
    2720:	00530129 	subseq	r0, r3, r9, lsr #2
    2724:	21660000 	cmncs	r6, r0
    2728:	383d0000 	ldmdacc	sp!, {}	; <UNPREDICTABLE>
    272c:	01000007 	tsteq	r0, r7
    2730:	0ad30129 	beq	ff4c2bdc <__bss_end__+0xfde9ff8c>
    2734:	21bf0000 			; <UNDEFINED> instruction: 0x21bf0000
    2738:	693e0000 	ldmdbvs	lr!, {}	; <UNPREDICTABLE>
    273c:	29010076 	stmdbcs	r1, {r1, r2, r4, r5, r6}
    2740:	000ad901 	andeq	sp, sl, r1, lsl #18
    2744:	00221800 	eoreq	r1, r2, r0, lsl #16
    2748:	08753f00 	ldmdaeq	r5!, {r8, r9, sl, fp, ip, sp}^
    274c:	2b010000 	blcs	42754 <_back_addr-0x15cd8ac>
    2750:	0001d501 	andeq	sp, r1, r1, lsl #10
    2754:	00226500 	eoreq	r6, r2, r0, lsl #10
    2758:	11c82e00 	bicne	r2, r8, r0, lsl #28
    275c:	02020161 	andeq	r0, r2, #1073741848	; 0x40000018
    2760:	20390000 	eorscs	r0, r9, r0
    2764:	91016112 	tstls	r1, r2, lsl r1
    2768:	00000001 	andeq	r0, r0, r1
    276c:	00030a3c 	andeq	r0, r3, ip, lsr sl
    2770:	014e0100 	mrseq	r0, (UNDEF: 94)
    2774:	00000033 	andeq	r0, r0, r3, lsr r0
    2778:	01611270 	smceq	4384	; 0x1120
    277c:	0000017c 	andeq	r0, r0, ip, ror r1
    2780:	126a9c01 	rsbne	r9, sl, #256	; 0x100
    2784:	7c3d0000 	ldcvc	0, cr0, [sp], #-0
    2788:	01000007 	tsteq	r0, r7
    278c:	0ad3014e 	beq	ff4c2ccc <__bss_end__+0xfdea007c>
    2790:	22a40000 	adccs	r0, r4, #0
    2794:	133d0000 	teqne	sp, #0
    2798:	01000008 	tsteq	r0, r8
    279c:	0ad3014e 	beq	ff4c2cdc <__bss_end__+0xfdea008c>
    27a0:	22db0000 	sbcscs	r0, fp, #0
    27a4:	5d3d0000 	ldcpl	0, cr0, [sp, #-0]
    27a8:	01000008 	tsteq	r0, r8
    27ac:	0ad3014e 	beq	ff4c2cec <__bss_end__+0xfdea009c>
    27b0:	23120000 	tstcs	r2, #0
    27b4:	69150000 	ldmdbvs	r5, {}	; <UNPREDICTABLE>
    27b8:	01510100 	cmpeq	r1, r0, lsl #2
    27bc:	00000033 	andeq	r0, r0, r3, lsr r0
    27c0:	0008381c 	andeq	r3, r8, ip, lsl r8
    27c4:	01520100 	cmpeq	r2, r0, lsl #2
    27c8:	0000126a 	andeq	r1, r0, sl, ror #4
    27cc:	7df09103 	ldfvcp	f1, [r0, #12]!
    27d0:	00080e3f 	andeq	r0, r8, pc, lsr lr
    27d4:	01530100 	cmpeq	r3, r0, lsl #2
    27d8:	00000053 	andeq	r0, r0, r3, asr r0
    27dc:	00002330 	andeq	r2, r0, r0, lsr r3
    27e0:	00075b40 	andeq	r5, r7, r0, asr #22
    27e4:	01540100 	cmpeq	r4, r0, lsl #2
    27e8:	0000128a 	andeq	r1, r0, sl, lsl #5
    27ec:	30313013 	eorscc	r3, r1, r3, lsl r0
    27f0:	6009060d 	andvs	r0, r9, sp, lsl #12
    27f4:	65014886 	strvs	r4, [r1, #-2182]	; 0x886
    27f8:	01020403 	tsteq	r2, r3, lsl #8
    27fc:	20040005 	andcs	r0, r4, r5
    2800:	0003cc41 	andeq	ip, r3, r1, asr #24
    2804:	015a0100 	cmpeq	sl, r0, lsl #2
    2808:	00000033 	andeq	r0, r0, r3, lsr r0
    280c:	00000f74 	andeq	r0, r0, r4, ror pc
    2810:	41410018 	cmpmi	r1, r8, lsl r0
    2814:	01000007 	tsteq	r0, r7
    2818:	0033016c 	eorseq	r0, r3, ip, ror #2
    281c:	0f860000 	svceq	0x00860000
    2820:	00180000 	andseq	r0, r8, r0
    2824:	00086941 	andeq	r6, r8, r1, asr #18
    2828:	016e0100 	cmneq	lr, r0, lsl #2
    282c:	00000033 	andeq	r0, r0, r3, lsr r0
    2830:	00000f98 	muleq	r0, r8, pc	; <UNPREDICTABLE>
    2834:	cd410018 	stclgt	0, cr0, [r1, #-96]	; 0xffffffa0
    2838:	01000007 	tsteq	r0, r7
    283c:	00330175 	eorseq	r0, r3, r5, ror r1
    2840:	0faa0000 	svceq	0x00aa0000
    2844:	00180000 	andseq	r0, r8, r0
    2848:	00016e21 	andeq	r6, r1, r1, lsr #28
    284c:	61128c00 	tstvs	r2, r0, lsl #24
    2850:	0003e801 	andeq	lr, r3, r1, lsl #16
    2854:	01620100 	cmneq	r2, r0, lsl #2
    2858:	00000fe5 	andeq	r0, r0, r5, ror #31
    285c:	00018522 	andeq	r8, r1, r2, lsr #10
    2860:	7a230200 	bvc	8c3068 <_back_addr-0xd4cf98>
    2864:	88000001 	stmdahi	r0, {r0}
    2868:	79c0939e 	stmibvc	r0, {r1, r2, r3, r4, r7, r8, r9, ip, pc}^
    286c:	0003e824 	andeq	lr, r3, r4, lsr #16
    2870:	01852200 	orreq	r2, r5, r0, lsl #4
    2874:	23020000 	movwcs	r0, #8192	; 0x2000
    2878:	0000017a 	andeq	r0, r0, sl, ror r1
    287c:	c0939e88 	addsgt	r9, r3, r8, lsl #29
    2880:	21000079 	tstcs	r0, r9, ror r0
    2884:	0000016e 	andeq	r0, r0, lr, ror #2
    2888:	0161129c 			; <UNDEFINED> instruction: 0x0161129c
    288c:	00000408 	andeq	r0, r0, r8, lsl #8
    2890:	20016301 	andcs	r6, r1, r1, lsl #6
    2894:	22000010 	andcs	r0, r0, #16
    2898:	00000185 	andeq	r0, r0, r5, lsl #3
    289c:	017a2300 	cmneq	sl, r0, lsl #6
    28a0:	9f800000 	svcls	0x00800000
    28a4:	2479c093 	ldrbtcs	ip, [r9], #-147	; 0x93
    28a8:	00000408 	andeq	r0, r0, r8, lsl #8
    28ac:	00018522 	andeq	r8, r1, r2, lsr #10
    28b0:	7a230000 	bvc	8c28b8 <_back_addr-0xd4d748>
    28b4:	80000001 	andhi	r0, r0, r1
    28b8:	79c0939f 	stmibvc	r0, {r0, r1, r2, r3, r4, r7, r8, r9, ip, pc}^
    28bc:	6e210000 	cdpvs	0, 2, cr0, cr1, cr0, {0}
    28c0:	24000001 	strcs	r0, [r0], #-1
    28c4:	20016113 	andcs	r6, r1, r3, lsl r1
    28c8:	01000004 	tsteq	r0, r4
    28cc:	105f0181 	subsne	r0, pc, r1, lsl #3
    28d0:	85270000 	strhi	r0, [r7, #-0]!
    28d4:	94000001 	strls	r0, [r0], #-1
    28d8:	27000023 	strcs	r0, [r0, -r3, lsr #32]
    28dc:	0000017a 	andeq	r0, r0, sl, ror r1
    28e0:	000023cb 	andeq	r2, r0, fp, asr #7
    28e4:	00042024 	andeq	r2, r4, r4, lsr #32
    28e8:	01852700 	orreq	r2, r5, r0, lsl #14
    28ec:	23940000 	orrscs	r0, r4, #0
    28f0:	7a270000 	bvc	9c28f8 <_back_addr-0xc4d708>
    28f4:	cb000001 	blgt	2900 <_back_addr-0x160d700>
    28f8:	00000023 	andeq	r0, r0, r3, lsr #32
    28fc:	01522b00 	cmpeq	r2, r0, lsl #22
    2900:	133c0000 	teqne	ip, #0
    2904:	00040161 	andeq	r0, r4, r1, ror #2
    2908:	85010000 	strhi	r0, [r1, #-0]
    290c:	00109001 	andseq	r9, r0, r1
    2910:	01622700 	cmneq	r2, r0, lsl #14
    2914:	23e30000 	mvncs	r0, #0
    2918:	3c2c0000 	stccc	0, cr0, [ip], #-0
    291c:	04016113 	streq	r6, [r1], #-275	; 0x113
    2920:	27000000 	strcs	r0, [r0, -r0]
    2924:	00000162 	andeq	r0, r0, r2, ror #2
    2928:	000023e3 	andeq	r2, r0, r3, ror #7
    292c:	6e2b0000 	cdpvs	0, 2, cr0, cr11, cr0, {0}
    2930:	44000001 	strmi	r0, [r0], #-1
    2934:	04016113 	streq	r6, [r1], #-275	; 0x113
    2938:	01000000 	mrseq	r0, (UNDEF: 0)
    293c:	10d30185 	sbcsne	r0, r3, r5, lsl #3
    2940:	85270000 	strhi	r0, [r7, #-0]!
    2944:	fb000001 	blx	2952 <_back_addr-0x160d6ae>
    2948:	27000023 	strcs	r0, [r0, -r3, lsr #32]
    294c:	0000017a 	andeq	r0, r0, sl, ror r1
    2950:	0000241b 	andeq	r2, r0, fp, lsl r4
    2954:	6113442c 	tstvs	r3, ip, lsr #8
    2958:	00000401 	andeq	r0, r0, r1, lsl #8
    295c:	01852700 	orreq	r2, r5, r0, lsl #14
    2960:	23fb0000 	mvnscs	r0, #0
    2964:	7a270000 	bvc	9c296c <_back_addr-0xc4d694>
    2968:	1b000001 	blne	2974 <_back_addr-0x160d68c>
    296c:	00000024 	andeq	r0, r0, r4, lsr #32
    2970:	01522100 	cmpeq	r2, r0, lsl #2
    2974:	13480000 	movtne	r0, #32768	; 0x8000
    2978:	04380161 	ldrteq	r0, [r8], #-353	; 0x161
    297c:	86010000 	strhi	r0, [r1], -r0
    2980:	00110001 	andseq	r0, r1, r1
    2984:	01622700 	cmneq	r2, r0, lsl #14
    2988:	24330000 	ldrtcs	r0, [r3], #-0
    298c:	38240000 	stmdacc	r4!, {}	; <UNPREDICTABLE>
    2990:	27000004 	strcs	r0, [r0, -r4]
    2994:	00000162 	andeq	r0, r0, r2, ror #2
    2998:	00002433 	andeq	r2, r0, r3, lsr r4
    299c:	bc2d0000 	stclt	0, cr0, [sp], #-0
    29a0:	10016113 	andne	r6, r1, r3, lsl r1
    29a4:	33000000 	movwcc	r0, #0
    29a8:	41000011 	tstmi	r0, r1, lsl r0
    29ac:	000002ca 	andeq	r0, r0, sl, asr #5
    29b0:	33018a01 	movwcc	r8, #6657	; 0x1a01
    29b4:	1f000000 	svcne	0x00000000
    29b8:	18000011 	stmdane	r0, {r0, r4}
    29bc:	13c81f00 	bicne	r1, r8, #0, 30
    29c0:	14020161 	strne	r0, [r2], #-353	; 0x161
    29c4:	011e0000 	tsteq	lr, r0
    29c8:	4c030550 	cfstr32mi	mvfx0, [r3], {80}	; 0x50
    29cc:	00016126 	andeq	r6, r1, r6, lsr #2
    29d0:	128c2e00 	addne	r2, ip, #0, 28
    29d4:	13c20161 	bicne	r0, r2, #1073741848	; 0x40000018
    29d8:	c01d0000 	andsgt	r0, sp, r0
    29dc:	14016112 	strne	r6, [r1], #-274	; 0x112
    29e0:	57000014 	smladpl	r0, r4, r0, r0
    29e4:	1e000011 	mcrne	0, 0, r0, cr0, cr1, {0}
    29e8:	75025101 	strvc	r5, [r2, #-257]	; 0x101
    29ec:	52011e00 	andpl	r1, r1, #0, 28
    29f0:	01000a03 	tsteq	r0, r3, lsl #20
    29f4:	12d01d00 	sbcsne	r1, r0, #0, 26
    29f8:	13d40161 	bicsne	r0, r4, #1073741848	; 0x40000018
    29fc:	116c0000 	cmnne	ip, r0
    2a00:	011e0000 	tsteq	lr, r0
    2a04:	000a0351 	andeq	r0, sl, r1, asr r3
    2a08:	e01d0001 	ands	r0, sp, r1
    2a0c:	26016112 			; <UNDEFINED> instruction: 0x26016112
    2a10:	8c000014 	stchi	0, cr0, [r0], {20}
    2a14:	1e000011 	mcrne	0, 0, r0, cr0, cr1, {0}
    2a18:	7d025001 	stcvc	0, cr5, [r2, #-4]
    2a1c:	51011e00 	tstpl	r1, r0, lsl #28
    2a20:	011e3001 	tsteq	lr, r1
    2a24:	000a0352 	andeq	r0, sl, r2, asr r3
    2a28:	001d0001 	andseq	r0, sp, r1
    2a2c:	14016113 	strne	r6, [r1], #-275	; 0x113
    2a30:	a7000014 	smladge	r0, r4, r0, r0
    2a34:	1e000011 	mcrne	0, 0, r0, cr0, cr1, {0}
    2a38:	7d025101 	stfvcs	f5, [r2, #-4]
    2a3c:	52011e00 	andpl	r1, r1, #0, 28
    2a40:	01000a03 	tsteq	r0, r3, lsl #20
    2a44:	13141d00 	tstne	r4, #0, 26
    2a48:	14140161 	ldrne	r0, [r4], #-353	; 0x161
    2a4c:	11c20000 	bicne	r0, r2, r0
    2a50:	011e0000 	tsteq	lr, r0
    2a54:	00740251 	rsbseq	r0, r4, r1, asr r2
    2a58:	0352011e 	cmpeq	r2, #-2147483641	; 0x80000007
    2a5c:	0001000a 	andeq	r0, r1, sl
    2a60:	6113301d 	tstvs	r3, sp, lsl r0
    2a64:	00141401 	andseq	r1, r4, r1, lsl #8
    2a68:	0011de00 	andseq	sp, r1, r0, lsl #28
    2a6c:	51011e00 	tstpl	r1, r0, lsl #28
    2a70:	02807403 	addeq	r7, r0, #50331648	; 0x3000000
    2a74:	0352011e 	cmpeq	r2, #-2147483641	; 0x80000007
    2a78:	0001000a 	andeq	r0, r1, sl
    2a7c:	61136c1d 	tstvs	r3, sp, lsl ip
    2a80:	0013b001 	andseq	fp, r3, r1
    2a84:	0011f100 	andseq	pc, r1, r0, lsl #2
    2a88:	50011e00 	andpl	r1, r1, r0, lsl #28
    2a8c:	1d003101 	stfnes	f3, [r0, #-4]
    2a90:	01611390 			; <UNDEFINED> instruction: 0x01611390
    2a94:	00001414 	andeq	r1, r0, r4, lsl r4
    2a98:	0000120b 	andeq	r1, r0, fp, lsl #4
    2a9c:	0250011e 	subseq	r0, r0, #-2147483641	; 0x80000007
    2aa0:	011e0076 	tsteq	lr, r6, ror r0
    2aa4:	20080252 	andcs	r0, r8, r2, asr r2
    2aa8:	139c1d00 	orrsne	r1, ip, #0, 26
    2aac:	13d40161 	bicsne	r0, r4, #1073741848	; 0x40000018
    2ab0:	12250000 	eorne	r0, r5, #0
    2ab4:	011e0000 	tsteq	lr, r0
    2ab8:	00760250 	rsbseq	r0, r6, r0, asr r2
    2abc:	0251011e 	subseq	r0, r1, #-2147483641	; 0x80000007
    2ac0:	1d000074 	stcne	0, cr0, [r0, #-464]	; 0xfffffe30
    2ac4:	016113a4 	cmneq	r1, r4, lsr #7
    2ac8:	00000767 	andeq	r0, r0, r7, ror #14
    2acc:	00001239 	andeq	r1, r0, r9, lsr r2
    2ad0:	0250011e 	subseq	r0, r0, #-2147483641	; 0x80000007
    2ad4:	1d000076 	stcne	0, cr0, [r0, #-472]	; 0xfffffe28
    2ad8:	016113b0 	strheq	r1, [r1, #-48]!	; 0xffffffd0
    2adc:	000013d4 	ldrdeq	r1, [r0], -r4
    2ae0:	00001253 	andeq	r1, r0, r3, asr r2
    2ae4:	0250011e 	subseq	r0, r0, #-2147483641	; 0x80000007
    2ae8:	011e0076 	tsteq	lr, r6, ror r0
    2aec:	00740251 	rsbseq	r0, r4, r1, asr r2
    2af0:	13e81f00 	mvnne	r1, #0, 30
    2af4:	14380161 	ldrtne	r0, [r8], #-353	; 0x161
    2af8:	011e0000 	tsteq	lr, r0
    2afc:	00750250 	rsbseq	r0, r5, r0, asr r2
    2b00:	0252011e 	subseq	r0, r2, #-2147483641	; 0x80000007
    2b04:	00004008 	andeq	r4, r0, r8
    2b08:	00005308 	andeq	r5, r0, r8, lsl #6
    2b0c:	00127a00 	andseq	r7, r2, r0, lsl #20
    2b10:	00250900 	eoreq	r0, r5, r0, lsl #18
    2b14:	003f0000 	eorseq	r0, pc, r0
    2b18:	00005a08 	andeq	r5, r0, r8, lsl #20
    2b1c:	00128a00 	andseq	r8, r2, r0, lsl #20
    2b20:	00250900 	eoreq	r0, r5, r0, lsl #18
    2b24:	00120000 	andseq	r0, r2, r0
    2b28:	00127a07 	andseq	r7, r2, r7, lsl #20
    2b2c:	02343c00 	eorseq	r3, r4, #0, 24
    2b30:	96010000 	strls	r0, [r1], -r0
    2b34:	00003301 	andeq	r3, r0, r1, lsl #6
    2b38:	6113ec00 	tstvs	r3, r0, lsl #24
    2b3c:	00010801 	andeq	r0, r1, r1, lsl #16
    2b40:	0b9c0100 	bleq	fe702f48 <__bss_end__+0xfd0e02f8>
    2b44:	3d000013 	stccc	0, cr0, [r0, #-76]	; 0xffffffb4
    2b48:	000007a5 	andeq	r0, r0, r5, lsr #15
    2b4c:	d3019601 	movwle	r9, #5633	; 0x1601
    2b50:	4b00000a 	blmi	2b80 <_back_addr-0x160d480>
    2b54:	3d000024 	stccc	0, cr0, [r0, #-144]	; 0xffffff70
    2b58:	000007e8 	andeq	r0, r0, r8, ror #15
    2b5c:	53019601 	movwpl	r9, #5633	; 0x1601
    2b60:	a7000000 	strge	r0, [r0, -r0]
    2b64:	3d000024 	stccc	0, cr0, [r0, #-144]	; 0xffffff70
    2b68:	00000738 	andeq	r0, r0, r8, lsr r7
    2b6c:	d3019601 	movwle	r9, #5633	; 0x1601
    2b70:	ea00000a 	b	2ba0 <_back_addr-0x160d460>
    2b74:	3e000024 	cdpcc	0, 0, cr0, cr0, cr4, {1}
    2b78:	01007669 	tsteq	r0, r9, ror #12
    2b7c:	0ad90196 	beq	ff6431dc <__bss_end__+0xfe02058c>
    2b80:	252d0000 	strcs	r0, [sp, #-0]!
    2b84:	753f0000 	ldrvc	r0, [pc, #-0]!	; 2b8c <_back_addr-0x160d474>
    2b88:	01000008 	tsteq	r0, r8
    2b8c:	01d50198 			; <UNDEFINED> instruction: 0x01d50198
    2b90:	25640000 	strbcs	r0, [r4, #-0]!
    2b94:	182e0000 	stmdane	lr!, {}	; <UNPREDICTABLE>
    2b98:	02016114 	andeq	r6, r1, #20, 2
    2b9c:	39000002 	stmdbcc	r0, {r1}
    2ba0:	01611488 	cmneq	r1, r8, lsl #9
    2ba4:	00000191 	muleq	r0, r1, r1
    2ba8:	071b4200 	ldreq	r4, [fp, -r0, lsl #4]
    2bac:	e6010000 	str	r0, [r1], -r0
    2bb0:	6114f402 	tstvs	r4, r2, lsl #8
    2bb4:	00002801 	andeq	r2, r0, r1, lsl #16
    2bb8:	4e9c0100 	fmlmie	f0, f4, f0
    2bbc:	3d000013 	stccc	0, cr0, [r0, #-76]	; 0xffffffb4
    2bc0:	0000078b 	andeq	r0, r0, fp, lsl #15
    2bc4:	d302e601 	movwle	lr, #9729	; 0x2601
    2bc8:	a300000a 	movwge	r0, #10
    2bcc:	1c000025 	stcne	0, cr0, [r0], {37}	; 0x25
    2bd0:	0000045e 	andeq	r0, r0, lr, asr r4
    2bd4:	6f02e801 	svcvs	0x0002e801
    2bd8:	01000000 	mrseq	r0, (UNDEF: 0)
    2bdc:	00692051 	rsbeq	r2, r9, r1, asr r0
    2be0:	5302e901 	movwpl	lr, #10497	; 0x2901
    2be4:	c4000000 	strgt	r0, [r0], #-0
    2be8:	00000025 	andeq	r0, r0, r5, lsr #32
    2bec:	0004d343 	andeq	sp, r4, r3, asr #6
    2bf0:	03e70600 	mvneq	r0, #0, 12
    2bf4:	00000053 	andeq	r0, r0, r3, asr r0
    2bf8:	00200000 	eoreq	r0, r0, r0
    2bfc:	00046344 	andeq	r6, r4, r4, asr #6
    2c00:	01f60700 	mvnseq	r0, r0, lsl #14
    2c04:	000000ac 	andeq	r0, r0, ip, lsr #1
    2c08:	0002a745 	andeq	sl, r2, r5, asr #14
    2c0c:	53280100 	teqpl	r8, #0, 2
    2c10:	05000000 	streq	r0, [r0, #-0]
    2c14:	622c4803 	eorvs	r4, ip, #196608	; 0x30000
    2c18:	07964501 	ldreq	r4, [r6, r1, lsl #10]
    2c1c:	29010000 	stmdbcs	r1, {}	; <UNPREDICTABLE>
    2c20:	0000138c 	andeq	r1, r0, ip, lsl #7
    2c24:	26240305 	strtcs	r0, [r4], -r5, lsl #6
    2c28:	37070161 	strcc	r0, [r7, -r1, ror #2]
    2c2c:	46000001 	strmi	r0, [r0], -r1
    2c30:	000002a0 	andeq	r0, r0, r0, lsr #5
    2c34:	008f4708 	addeq	r4, pc, r8, lsl #14
    2c38:	13b00000 	movsne	r0, #0
    2c3c:	8f470000 	svchi	0x00470000
    2c40:	47000000 	strmi	r0, [r0, -r0]
    2c44:	00000033 	andeq	r0, r0, r3, lsr r0
    2c48:	00004847 	andeq	r4, r0, r7, asr #16
    2c4c:	31480000 	mrscc	r0, (UNDEF: 72)
    2c50:	06000008 	streq	r0, [r0], -r8
    2c54:	13c2030d 	bicne	r0, r2, #872415232	; 0x34000000
    2c58:	2c470000 	marcs	acc0, r0, r7
    2c5c:	00000000 	andeq	r0, r0, r0
    2c60:	0003cc41 	andeq	ip, r3, r1, asr #24
    2c64:	015a0100 	cmpeq	sl, r0, lsl #2
    2c68:	00000033 	andeq	r0, r0, r3, lsr r0
    2c6c:	000013d4 	ldrdeq	r1, [r0], -r4
    2c70:	74480018 	strbvc	r0, [r8], #-24
    2c74:	06000002 	streq	r0, [r0], -r2
    2c78:	13eb02f0 	mvnne	r0, #240, 4
    2c7c:	2c470000 	marcs	acc0, r0, r7
    2c80:	47000000 	strmi	r0, [r0, -r0]
    2c84:	0000002c 	andeq	r0, r0, ip, lsr #32
    2c88:	039b4900 	orrseq	r4, fp, #0, 18
    2c8c:	4d060000 	stcmi	0, cr0, [r6, #-0]
    2c90:	00003303 	andeq	r3, r0, r3, lsl #6
    2c94:	00140200 	andseq	r0, r4, r0, lsl #4
    2c98:	00914700 	addseq	r4, r1, r0, lsl #14
    2c9c:	00180000 	andseq	r0, r8, r0
    2ca0:	0002ca41 	andeq	ip, r2, r1, asr #20
    2ca4:	018a0100 	orreq	r0, sl, r0, lsl #2
    2ca8:	00000033 	andeq	r0, r0, r3, lsr r0
    2cac:	00001414 	andeq	r1, r0, r4, lsl r4
    2cb0:	69410018 	stmdbvs	r1, {r3, r4}^
    2cb4:	01000008 	tsteq	r0, r8
    2cb8:	0033016e 	eorseq	r0, r3, lr, ror #2
    2cbc:	14260000 	strtne	r0, [r6], #-0
    2cc0:	00180000 	andseq	r0, r8, r0
    2cc4:	0007cd41 	andeq	ip, r7, r1, asr #26
    2cc8:	01750100 	cmneq	r5, r0, lsl #2
    2ccc:	00000033 	andeq	r0, r0, r3, lsr r0
    2cd0:	00001438 	andeq	r1, r0, r8, lsr r4
    2cd4:	41170018 	tstmi	r7, r8, lsl r0
    2cd8:	01000007 	tsteq	r0, r7
    2cdc:	0033016c 	eorseq	r0, r3, ip, ror #2
    2ce0:	00180000 	andseq	r0, r8, r0
    2ce4:	0002eb00 	andeq	lr, r2, r0, lsl #22
    2ce8:	22000400 	andcs	r0, r0, #0, 8
    2cec:	0400000c 	streq	r0, [r0], #-12
    2cf0:	00006001 	andeq	r6, r0, r1
    2cf4:	08c80100 	stmiaeq	r8, {r8}^
    2cf8:	03340000 	teqeq	r4, #0
    2cfc:	151c0000 	ldrne	r0, [ip, #-0]
    2d00:	01680161 	cmneq	r8, r1, ror #2
    2d04:	0a300000 	beq	c02d0c <_back_addr-0xa0d2f4>
    2d08:	32020000 	andcc	r0, r2, #0
    2d0c:	02000009 	andeq	r0, r0, #9
    2d10:	000030b0 	strheq	r3, [r0], -r0
    2d14:	08010300 	stmdaeq	r1, {r8, r9}
    2d18:	00000010 	andeq	r0, r0, r0, lsl r0
    2d1c:	12060103 	andne	r0, r6, #-1073741824	; 0xc0000000
    2d20:	03000000 	movweq	r0, #0
    2d24:	001e0702 	andseq	r0, lr, r2, lsl #14
    2d28:	02030000 	andeq	r0, r3, #0
    2d2c:	00005605 	andeq	r5, r0, r5, lsl #12
    2d30:	02660200 	rsbeq	r0, r6, #0, 4
    2d34:	b4020000 	strlt	r0, [r2], #-0
    2d38:	00000057 	andeq	r0, r0, r7, asr r0
    2d3c:	3b070403 	blcc	1c3d50 <_back_addr-0x144c2b0>
    2d40:	04000000 	streq	r0, [r0], #-0
    2d44:	6e690504 	cdpvs	5, 6, cr0, cr9, cr4, {0}
    2d48:	08030074 	stmdaeq	r3, {r2, r4, r5, r6}
    2d4c:	00003107 	andeq	r3, r0, r7, lsl #2
    2d50:	05080300 	streq	r0, [r8, #-768]	; 0x300
    2d54:	00000048 	andeq	r0, r0, r8, asr #32
    2d58:	0008b502 	andeq	fp, r8, r2, lsl #10
    2d5c:	25b80200 	ldrcs	r0, [r8, #512]!	; 0x200
    2d60:	03000000 	movweq	r0, #0
    2d64:	00360704 	eorseq	r0, r6, r4, lsl #14
    2d68:	28050000 	stmdacs	r5, {}	; <UNPREDICTABLE>
    2d6c:	01000009 	tsteq	r0, r9
    2d70:	00004c13 	andeq	r4, r0, r3, lsl ip
    2d74:	00ac0100 	adceq	r0, ip, r0, lsl #2
    2d78:	dd060000 	stcle	0, cr0, [r6, #-0]
    2d7c:	01000008 	tsteq	r0, r8
    2d80:	00005713 	andeq	r5, r0, r3, lsl r7
    2d84:	09210600 	stmdbeq	r1!, {r9, sl}
    2d88:	13010000 	movwne	r0, #4096	; 0x1000
    2d8c:	00000057 	andeq	r0, r0, r7, asr r0
    2d90:	08ba0500 	ldmeq	sl!, {r8, sl}
    2d94:	3d010000 	stccc	0, cr0, [r1, #-0]
    2d98:	00000073 	andeq	r0, r0, r3, ror r0
    2d9c:	0000de01 	andeq	sp, r0, r1, lsl #28
    2da0:	08dd0600 	ldmeq	sp, {r9, sl}^
    2da4:	3d010000 	stccc	0, cr0, [r1, #-0]
    2da8:	0000004c 	andeq	r0, r0, ip, asr #32
    2dac:	00091106 	andeq	r1, r9, r6, lsl #2
    2db0:	4c3d0100 	ldfmis	f0, [sp], #-0
    2db4:	07000000 	streq	r0, [r0, -r0]
    2db8:	00000917 	andeq	r0, r0, r7, lsl r9
    2dbc:	00733f01 	rsbseq	r3, r3, r1, lsl #30
    2dc0:	08000000 	stmdaeq	r0, {}	; <UNPREDICTABLE>
    2dc4:	00000085 	andeq	r0, r0, r5, lsl #1
    2dc8:	0161151c 	cmneq	r1, ip, lsl r5
    2dcc:	00000058 	andeq	r0, r0, r8, asr r0
    2dd0:	01189c01 	tsteq	r8, r1, lsl #24
    2dd4:	95090000 	strls	r0, [r9, #-0]
    2dd8:	11000000 	mrsne	r0, (UNDEF: 0)
    2ddc:	0a000026 	beq	2e7c <_back_addr-0x160d184>
    2de0:	000000a0 	andeq	r0, r0, r0, lsr #1
    2de4:	500b5101 	andpl	r5, fp, r1, lsl #2
    2de8:	0a000004 	beq	2e00 <_back_addr-0x160d200>
    2dec:	000000a0 	andeq	r0, r0, r0, lsr #1
    2df0:	95095101 	strls	r5, [r9, #-257]	; 0x101
    2df4:	58000000 	stmdapl	r0, {}	; <UNPREDICTABLE>
    2df8:	00000026 	andeq	r0, r0, r6, lsr #32
    2dfc:	08d00c00 	ldmeq	r0, {sl, fp}^
    2e00:	2e010000 	cdpcs	0, 0, cr0, cr1, cr0, {0}
    2e04:	0000004c 	andeq	r0, r0, ip, asr #32
    2e08:	01611574 	smceq	4436	; 0x1154
    2e0c:	0000002c 	andeq	r0, r0, ip, lsr #32
    2e10:	01419c01 	cmpeq	r1, r1, lsl #24
    2e14:	dd0d0000 	stcle	0, cr0, [sp, #-0]
    2e18:	01000008 	tsteq	r0, r8
    2e1c:	00004c2e 	andeq	r4, r0, lr, lsr #24
    2e20:	00268600 	eoreq	r8, r6, r0, lsl #12
    2e24:	ac080000 	stcge	0, cr0, [r8], {-0}
    2e28:	a0000000 	andge	r0, r0, r0
    2e2c:	30016115 	andcc	r6, r1, r5, lsl r1
    2e30:	01000000 	mrseq	r0, (UNDEF: 0)
    2e34:	0001949c 	muleq	r1, ip, r4
    2e38:	00bc0900 	adcseq	r0, ip, r0, lsl #18
    2e3c:	26a70000 	strtcs	r0, [r7], r0
    2e40:	c70a0000 	strgt	r0, [sl, -r0]
    2e44:	01000000 	mrseq	r0, (UNDEF: 0)
    2e48:	00d20e51 	sbcseq	r0, r2, r1, asr lr
    2e4c:	0f000000 	svceq	0x00000000
    2e50:	016115b0 	strheq	r1, [r1, #-80]!	; 0xffffffb0
    2e54:	00000014 	andeq	r0, r0, r4, lsl r0
    2e58:	0000c70a 	andeq	ip, r0, sl, lsl #14
    2e5c:	09510100 	ldmdbeq	r1, {r8}^
    2e60:	000000bc 	strheq	r0, [r0], -ip
    2e64:	000026e1 	andeq	r2, r0, r1, ror #13
    2e68:	6115b00f 	tstvs	r5, pc
    2e6c:	00001401 	andeq	r1, r0, r1, lsl #8
    2e70:	00d21000 	sbcseq	r1, r2, r0
    2e74:	00000000 	andeq	r0, r0, r0
    2e78:	08311100 	ldmdaeq	r1!, {r8, ip}
    2e7c:	5e010000 	cdppl	0, 0, cr0, cr1, cr0, {0}
    2e80:	016115d0 	ldrdeq	r1, [r1, #-80]!	; 0xffffffb0
    2e84:	0000005c 	andeq	r0, r0, ip, asr r0
    2e88:	02439c01 	subeq	r9, r3, #256	; 0x100
    2e8c:	ec0d0000 	stc	0, cr0, [sp], {-0}
    2e90:	01000008 	tsteq	r0, r8
    2e94:	0000575e 	andeq	r5, r0, lr, asr r7
    2e98:	00270f00 	eoreq	r0, r7, r0, lsl #30
    2e9c:	09071200 	stmdbeq	r7, {r9, ip}
    2ea0:	60010000 	andvs	r0, r1, r0
    2ea4:	0000004c 	andeq	r0, r0, ip, asr #32
    2ea8:	00002730 	andeq	r2, r0, r0, lsr r7
    2eac:	00008513 	andeq	r8, r0, r3, lsl r5
    2eb0:	6115e400 	tstvs	r5, r0, lsl #8
    2eb4:	00046801 	andeq	r6, r4, r1, lsl #16
    2eb8:	fb680100 	blx	1a032c2 <__bss_end__+0x3e0672>
    2ebc:	0a000001 	beq	2ec8 <_back_addr-0x160d138>
    2ec0:	000000a0 	andeq	r0, r0, r0, lsr #1
    2ec4:	95145101 	ldrls	r5, [r4, #-257]	; 0x101
    2ec8:	00000000 	andeq	r0, r0, r0
    2ecc:	0004680b 	andeq	r6, r4, fp, lsl #16
    2ed0:	00a00a00 	adceq	r0, r0, r0, lsl #20
    2ed4:	51010000 	mrspl	r0, (UNDEF: 1)
    2ed8:	00009514 	andeq	r9, r0, r4, lsl r5
    2edc:	00000000 	andeq	r0, r0, r0
    2ee0:	0000ac15 	andeq	sl, r0, r5, lsl ip
    2ee4:	61160000 	tstvs	r6, r0
    2ee8:	00048801 	andeq	r8, r4, r1, lsl #16
    2eec:	0a6b0100 	beq	1ac32f4 <__bss_end__+0x4a06a4>
    2ef0:	000000c7 	andeq	r0, r0, r7, asr #1
    2ef4:	bc145101 	ldflts	f5, [r4], {1}
    2ef8:	00000000 	andeq	r0, r0, r0
    2efc:	0004880b 	andeq	r8, r4, fp, lsl #16
    2f00:	00d20e00 	sbcseq	r0, r2, r0, lsl #28
    2f04:	0b000000 	bleq	2f0c <_back_addr-0x160d0f4>
    2f08:	00000488 	andeq	r0, r0, r8, lsl #9
    2f0c:	0000c70a 	andeq	ip, r0, sl, lsl #14
    2f10:	14510100 	ldrbne	r0, [r1], #-256	; 0x100
    2f14:	000000bc 	strheq	r0, [r0], -ip
    2f18:	04880b00 	streq	r0, [r8], #2816	; 0xb00
    2f1c:	d2100000 	andsle	r0, r0, #0
	...
    2f28:	0008e516 	andeq	lr, r8, r6, lsl r5
    2f2c:	2c6d0100 	stfcse	f0, [sp], #-0
    2f30:	58016116 	stmdapl	r1, {r1, r2, r4, r8, sp, lr}
    2f34:	01000000 	mrseq	r0, (UNDEF: 0)
    2f38:	08f90d9c 	ldmeq	r9!, {r2, r3, r4, r7, r8, sl, fp}^
    2f3c:	6d010000 	stcvs	0, cr0, [r1, #-0]
    2f40:	00000057 	andeq	r0, r0, r7, asr r0
    2f44:	0000274f 	andeq	r2, r0, pc, asr #14
    2f48:	00090712 	andeq	r0, r9, r2, lsl r7
    2f4c:	4c6f0100 	stfmie	f0, [pc], #-0	; 2f54 <_back_addr-0x160d0ac>
    2f50:	70000000 	andvc	r0, r0, r0
    2f54:	13000027 	movwne	r0, #39	; 0x27
    2f58:	00000085 	andeq	r0, r0, r5, lsl #1
    2f5c:	0161163c 	cmneq	r1, ip, lsr r6
    2f60:	000004a0 	andeq	r0, r0, r0, lsr #9
    2f64:	02a67501 	adceq	r7, r6, #4194304	; 0x400000
    2f68:	a00a0000 	andge	r0, sl, r0
    2f6c:	01000000 	mrseq	r0, (UNDEF: 0)
    2f70:	00951451 	addseq	r1, r5, r1, asr r4
    2f74:	0b000000 	bleq	2f7c <_back_addr-0x160d084>
    2f78:	000004a0 	andeq	r0, r0, r0, lsr #9
    2f7c:	0000a00a 	andeq	sl, r0, sl
    2f80:	14510100 	ldrbne	r0, [r1], #-256	; 0x100
    2f84:	00000095 	muleq	r0, r5, r0
    2f88:	15000000 	strne	r0, [r0, #-0]
    2f8c:	000000ac 	andeq	r0, r0, ip, lsr #1
    2f90:	01611658 	cmneq	r1, r8, asr r6
    2f94:	000004c0 	andeq	r0, r0, r0, asr #9
    2f98:	c70a7801 	strgt	r7, [sl, -r1, lsl #16]
    2f9c:	01000000 	mrseq	r0, (UNDEF: 0)
    2fa0:	00bc1451 	adcseq	r1, ip, r1, asr r4
    2fa4:	0b000000 	bleq	2fac <_back_addr-0x160d054>
    2fa8:	000004c0 	andeq	r0, r0, r0, asr #9
    2fac:	0000d20e 	andeq	sp, r0, lr, lsl #4
    2fb0:	c00b0000 	andgt	r0, fp, r0
    2fb4:	0a000004 	beq	2fcc <_back_addr-0x160d034>
    2fb8:	000000c7 	andeq	r0, r0, r7, asr #1
    2fbc:	bc145101 	ldflts	f5, [r4], {1}
    2fc0:	00000000 	andeq	r0, r0, r0
    2fc4:	0004c00b 	andeq	ip, r4, fp
    2fc8:	00d21000 	sbcseq	r1, r2, r0
	...
    2fd4:	00000d50 	andeq	r0, r0, r0, asr sp
    2fd8:	0d610004 	stcleq	0, cr0, [r1, #-16]!
    2fdc:	01040000 	mrseq	r0, (UNDEF: 4)
    2fe0:	00000060 	andeq	r0, r0, r0, rrx
    2fe4:	00098a01 	andeq	r8, r9, r1, lsl #20
    2fe8:	00033400 	andeq	r3, r3, r0, lsl #8
    2fec:	61168400 	tstvs	r6, r0, lsl #8
    2ff0:	0004c801 	andeq	ip, r4, r1, lsl #16
    2ff4:	000b4900 	andeq	r4, fp, r0, lsl #18
    2ff8:	09320200 	ldmdbeq	r2!, {r9}
    2ffc:	b0020000 	andlt	r0, r2, r0
    3000:	00000030 	andeq	r0, r0, r0, lsr r0
    3004:	10080103 	andne	r0, r8, r3, lsl #2
    3008:	03000000 	movweq	r0, #0
    300c:	00120601 	andseq	r0, r2, r1, lsl #12
    3010:	02030000 	andeq	r0, r3, #0
    3014:	00001e07 	andeq	r1, r0, r7, lsl #28
    3018:	05020300 	streq	r0, [r2, #-768]	; 0x300
    301c:	00000056 	andeq	r0, r0, r6, asr r0
    3020:	00026602 	andeq	r6, r2, r2, lsl #12
    3024:	57b40200 	ldrpl	r0, [r4, r0, lsl #4]!
    3028:	03000000 	movweq	r0, #0
    302c:	003b0704 	eorseq	r0, fp, r4, lsl #14
    3030:	04040000 	streq	r0, [r4], #-0
    3034:	746e6905 	strbtvc	r6, [lr], #-2309	; 0x905
    3038:	07080300 	streq	r0, [r8, -r0, lsl #6]
    303c:	00000031 	andeq	r0, r0, r1, lsr r0
    3040:	48050803 	stmdami	r5, {r0, r1, fp}
    3044:	03000000 	movweq	r0, #0
    3048:	00360704 	eorseq	r0, r6, r4, lsl #14
    304c:	9d020000 	stcls	0, cr0, [r2, #-0]
    3050:	02000008 	andeq	r0, r0, #8
    3054:	000073e5 	andeq	r7, r0, r5, ror #7
    3058:	8b040500 	blhi	104460 <_back_addr-0x150bba0>
    305c:	06000000 	streq	r0, [r0], -r0
    3060:	00000090 	muleq	r0, r0, r0
    3064:	19080103 	stmdbne	r8, {r0, r1, r8}
    3068:	07000000 	streq	r0, [r0, -r0]
    306c:	be2f0304 	cdplt	3, 2, cr0, cr15, cr4, {0}
    3070:	08000000 	stmdaeq	r0, {}	; <UNPREDICTABLE>
    3074:	004c4c44 	subeq	r4, ip, r4, asr #24
    3078:	004c3203 	subeq	r3, ip, r3, lsl #4
    307c:	08040000 	stmdaeq	r4, {}	; <UNPREDICTABLE>
    3080:	5d090018 	stcpl	0, cr0, [r9, #-96]	; 0xffffffa0
    3084:	03000009 	movweq	r0, #9
    3088:	00004c33 	andeq	r4, r0, r3, lsr ip
    308c:	00180400 	andseq	r0, r8, r0, lsl #8
    3090:	04070000 	streq	r0, [r7], #-0
    3094:	00e53703 	rsceq	r3, r5, r3, lsl #14
    3098:	52080000 	andpl	r0, r8, #0
    309c:	03004442 	movweq	r4, #1090	; 0x442
    30a0:	00004c3a 	andeq	r4, r0, sl, lsr ip
    30a4:	18080400 	stmdane	r8, {sl}
    30a8:	095d0900 	ldmdbeq	sp, {r8, fp}^
    30ac:	3b030000 	blcc	c30b4 <_back_addr-0x154cf4c>
    30b0:	0000004c 	andeq	r0, r0, ip, asr #32
    30b4:	00001804 	andeq	r1, r0, r4, lsl #16
    30b8:	03040700 	movweq	r0, #18176	; 0x4700
    30bc:	00010c3f 	andeq	r0, r1, pc, lsr ip
    30c0:	48540800 	ldmdami	r4, {fp}^
    30c4:	42030044 	andmi	r0, r3, #68	; 0x44
    30c8:	0000004c 	andeq	r0, r0, ip, asr #32
    30cc:	00180804 	andseq	r0, r8, r4, lsl #16
    30d0:	00095d09 	andeq	r5, r9, r9, lsl #26
    30d4:	4c430300 	mcrrmi	3, 0, r0, r3, cr0
    30d8:	04000000 	streq	r0, [r0], #-0
    30dc:	00000018 	andeq	r0, r0, r8, lsl r0
    30e0:	000b420a 	andeq	r4, fp, sl, lsl #4
    30e4:	2c030400 	cfstrscs	mvf0, [r3], {-0}
    30e8:	00000145 	andeq	r0, r0, r5, asr #2
    30ec:	000a700b 	andeq	r7, sl, fp
    30f0:	4c2e0300 	stcmi	3, cr0, [lr], #-0
    30f4:	0b000000 	bleq	30fc <_back_addr-0x160cf04>
    30f8:	00000b9d 	muleq	r0, sp, fp
    30fc:	00973503 	addseq	r3, r7, r3, lsl #10
    3100:	380b0000 	stmdacc	fp, {}	; <UNPREDICTABLE>
    3104:	03000009 	movweq	r0, #9
    3108:	0000be3d 	andeq	fp, r0, sp, lsr lr
    310c:	09400b00 	stmdbeq	r0, {r8, r9, fp}^
    3110:	45030000 	strmi	r0, [r3, #-0]
    3114:	000000e5 	andeq	r0, r0, r5, ror #1
    3118:	0b430200 	bleq	10c3920 <_back_addr-0x54c6e0>
    311c:	47030000 	strmi	r0, [r3, -r0]
    3120:	0000010c 	andeq	r0, r0, ip, lsl #2
    3124:	4c030407 	cfstrsmi	mvf0, [r3], {7}
    3128:	00000177 	andeq	r0, r0, r7, ror r1
    312c:	4d4c4408 	cfstrdmi	mvd4, [ip, #-32]	; 0xffffffe0
    3130:	4c4f0300 	mcrrmi	3, 0, r0, pc, cr0
    3134:	04000000 	streq	r0, [r0], #-0
    3138:	09001808 	stmdbeq	r0, {r3, fp, ip}
    313c:	0000095d 	andeq	r0, r0, sp, asr r9
    3140:	004c5003 	subeq	r5, ip, r3
    3144:	18040000 	stmdane	r4, {}	; <UNPREDICTABLE>
    3148:	07000000 	streq	r0, [r0, -r0]
    314c:	cb530304 	blgt	14c3d64 <_back_addr-0x14c29c>
    3150:	09000001 	stmdbeq	r0, {r0}
    3154:	00000b82 	andeq	r0, r0, r2, lsl #23
    3158:	004c5603 	subeq	r5, ip, r3, lsl #12
    315c:	01040000 	mrseq	r0, (UNDEF: 4)
    3160:	8409001f 	strhi	r0, [r9], #-31
    3164:	03000009 	movweq	r0, #9
    3168:	00004c57 	andeq	r4, r0, r7, asr ip
    316c:	1e010400 	cfcpysne	mvf0, mvf1
    3170:	09e40900 	stmibeq	r4!, {r8, fp}^
    3174:	58030000 	stmdapl	r3, {}	; <UNPREDICTABLE>
    3178:	0000004c 	andeq	r0, r0, ip, asr #32
    317c:	001d0104 	andseq	r0, sp, r4, lsl #2
    3180:	000b2709 	andeq	r2, fp, r9, lsl #14
    3184:	4c590300 	mrrcmi	3, 0, r0, r9, cr0
    3188:	04000000 	streq	r0, [r0], #-0
    318c:	09001c01 	stmdbeq	r0, {r0, sl, fp, ip}
    3190:	0000095d 	andeq	r0, r0, sp, asr r9
    3194:	004c5a03 	subeq	r5, ip, r3, lsl #20
    3198:	1c040000 	stcne	0, cr0, [r4], {-0}
    319c:	0a000000 	beq	31a4 <_back_addr-0x160ce5c>
    31a0:	00000b16 	andeq	r0, r0, r6, lsl fp
    31a4:	f9490304 			; <UNDEFINED> instruction: 0xf9490304
    31a8:	0b000001 	bleq	31b4 <_back_addr-0x160ce4c>
    31ac:	00000a70 	andeq	r0, r0, r0, ror sl
    31b0:	004c4b03 	subeq	r4, ip, r3, lsl #22
    31b4:	9d0b0000 	stcls	0, cr0, [fp, #-0]
    31b8:	0300000b 	movweq	r0, #11
    31bc:	00015051 	andeq	r5, r1, r1, asr r0
    31c0:	09380b00 	ldmdbeq	r8!, {r8, r9, fp}
    31c4:	5b030000 	blpl	c31cc <_back_addr-0x154ce34>
    31c8:	00000177 	andeq	r0, r0, r7, ror r1
    31cc:	0b170200 	bleq	5c39d4 <_back_addr-0x104c62c>
    31d0:	5d030000 	stcpl	0, cr0, [r3, #-0]
    31d4:	000001cb 	andeq	r0, r0, fp, asr #3
    31d8:	62030407 	andvs	r0, r3, #117440512	; 0x7000000
    31dc:	00000258 	andeq	r0, r0, r8, asr r2
    31e0:	000a5e09 	andeq	r5, sl, r9, lsl #28
    31e4:	4c650300 	stclmi	3, cr0, [r5], #-0
    31e8:	04000000 	streq	r0, [r0], #-0
    31ec:	08001f01 	stmdaeq	r0, {r0, r8, r9, sl, fp, ip}
    31f0:	00444949 	subeq	r4, r4, r9, asr #18
    31f4:	004c6703 	subeq	r6, ip, r3, lsl #14
    31f8:	03040000 	movweq	r0, #16384	; 0x4000
    31fc:	ef09001c 	svc	0x0009001c
    3200:	03000009 	movweq	r0, #9
    3204:	00004c6d 	andeq	r4, r0, sp, ror #24
    3208:	1a020400 	bne	84210 <_back_addr-0x158bdf0>
    320c:	0a030900 	beq	c5614 <_back_addr-0x154a9ec>
    3210:	6e030000 	cdpvs	0, 0, cr0, cr3, cr0, {0}
    3214:	0000004c 	andeq	r0, r0, ip, asr #32
    3218:	00180204 	andseq	r0, r8, r4, lsl #4
    321c:	0009f909 	andeq	pc, r9, r9, lsl #18
    3220:	4c710300 	ldclmi	3, cr0, [r1], #-0
    3224:	04000000 	streq	r0, [r0], #-0
    3228:	00000018 	andeq	r0, r0, r8, lsl r0
    322c:	74030407 	strvc	r0, [r3], #-1031	; 0x407
    3230:	000002ca 	andeq	r0, r0, sl, asr #5
    3234:	000b5f09 	andeq	r5, fp, r9, lsl #30
    3238:	4c770300 	ldclmi	3, cr0, [r7], #-0
    323c:	04000000 	streq	r0, [r0], #-0
    3240:	09001f01 	stmdbeq	r0, {r0, r8, r9, sl, fp, ip}
    3244:	00000b65 	andeq	r0, r0, r5, ror #22
    3248:	004c7c03 	subeq	r7, ip, r3, lsl #24
    324c:	01040000 	mrseq	r0, (UNDEF: 4)
    3250:	9c09001e 	stcls	0, cr0, [r9], {30}
    3254:	0300000a 	movweq	r0, #10
    3258:	00004c7e 	andeq	r4, r0, lr, ror ip
    325c:	1d010400 	cfstrsne	mvf0, [r1, #-0]
    3260:	09660900 	stmdbeq	r6!, {r8, fp}^
    3264:	80030000 	andhi	r0, r3, r0
    3268:	0000004c 	andeq	r0, r0, ip, asr #32
    326c:	001c0104 	andseq	r0, ip, r4, lsl #2
    3270:	0009ef09 	andeq	lr, r9, r9, lsl #30
    3274:	4c810300 	stcmi	3, cr0, [r1], {0}
    3278:	04000000 	streq	r0, [r0], #-0
    327c:	09001a02 	stmdbeq	r0, {r1, r9, fp, ip}
    3280:	00000a49 	andeq	r0, r0, r9, asr #20
    3284:	004c8203 	subeq	r8, ip, r3, lsl #4
    3288:	02040000 	andeq	r0, r4, #0
    328c:	f9090018 			; <UNDEFINED> instruction: 0xf9090018
    3290:	03000009 	movweq	r0, #9
    3294:	00004c88 	andeq	r4, r0, r8, lsl #25
    3298:	00180400 	andseq	r0, r8, r0, lsl #8
    329c:	b80a0000 	stmdalt	sl, {}	; <UNPREDICTABLE>
    32a0:	0400000a 	streq	r0, [r0], #-10
    32a4:	02f85f03 	rscseq	r5, r8, #3, 30
    32a8:	700b0000 	andvc	r0, fp, r0
    32ac:	0300000a 	movweq	r0, #10
    32b0:	00004c61 	andeq	r4, r0, r1, ror #24
    32b4:	0b9d0b00 	bleq	fe745ebc <__bss_end__+0xfd12326c>
    32b8:	72030000 	andvc	r0, r3, #0
    32bc:	00000204 	andeq	r0, r0, r4, lsl #4
    32c0:	0009380b 	andeq	r3, r9, fp, lsl #16
    32c4:	58890300 	stmpl	r9, {r8, r9}
    32c8:	00000002 	andeq	r0, r0, r2
    32cc:	000ab902 	andeq	fp, sl, r2, lsl #18
    32d0:	ca8b0300 	bgt	fe2c3ed8 <__bss_end__+0xfcca1288>
    32d4:	07000002 	streq	r0, [r0, -r2]
    32d8:	75900304 	ldrvc	r0, [r0, #772]	; 0x304
    32dc:	08000003 	stmdaeq	r0, {r0, r1}
    32e0:	00534c57 	subseq	r4, r3, r7, asr ip
    32e4:	004c9303 	subeq	r9, ip, r3, lsl #6
    32e8:	02040000 	andeq	r0, r4, #0
    32ec:	5308001e 	movwpl	r0, #32798	; 0x801e
    32f0:	03005054 	movweq	r5, #84	; 0x54
    32f4:	00004c98 	muleq	r0, r8, ip
    32f8:	1d010400 	cfstrsne	mvf0, [r1, #-0]
    32fc:	45500800 	ldrbmi	r0, [r0, #-2048]	; 0x800
    3300:	9b03004e 	blls	c3440 <_back_addr-0x154cbc0>
    3304:	0000004c 	andeq	r0, r0, ip, asr #32
    3308:	001c0104 	andseq	r0, ip, r4, lsl #2
    330c:	53504508 	cmppl	r0, #8, 10	; 0x2000000
    3310:	4c9c0300 	ldcmi	3, cr0, [ip], {0}
    3314:	04000000 	streq	r0, [r0], #-0
    3318:	08001a02 	stmdaeq	r0, {r1, r9, fp, ip}
    331c:	004b5242 	subeq	r5, fp, r2, asr #4
    3320:	004ca103 	subeq	sl, ip, r3, lsl #2
    3324:	01040000 	mrseq	r0, (UNDEF: 4)
    3328:	9a090019 	bls	243394 <_back_addr-0x13ccc6c>
    332c:	03000009 	movweq	r0, #9
    3330:	00004ca4 	andeq	r4, r0, r4, lsr #25
    3334:	18010400 	stmdane	r1, {sl}
    3338:	095d0900 	ldmdbeq	sp, {r8, fp}^
    333c:	a5030000 	strge	r0, [r3, #-0]
    3340:	0000004c 	andeq	r0, r0, ip, asr #32
    3344:	00001804 	andeq	r1, r0, r4, lsl #16
    3348:	09d70a00 	ldmibeq	r7, {r9, fp}^
    334c:	03040000 	movweq	r0, #16384	; 0x4000
    3350:	0003988d 	andeq	r9, r3, sp, lsl #17
    3354:	0a700b00 	beq	1c05f5c <__bss_end__+0x5e330c>
    3358:	8f030000 	svchi	0x00030000
    335c:	0000004c 	andeq	r0, r0, ip, asr #32
    3360:	000b960b 	andeq	r9, fp, fp, lsl #12
    3364:	03a60300 			; <UNDEFINED> instruction: 0x03a60300
    3368:	00000003 	andeq	r0, r0, r3
    336c:	0009d802 	andeq	sp, r9, r2, lsl #16
    3370:	75a80300 	strvc	r0, [r8, #768]!	; 0x300
    3374:	07000003 	streq	r0, [r0, -r3]
    3378:	f7ad0304 			; <UNDEFINED> instruction: 0xf7ad0304
    337c:	08000003 	stmdaeq	r0, {r0, r1}
    3380:	00525444 	subseq	r5, r2, r4, asr #8
    3384:	004cb003 	subeq	fp, ip, r3
    3388:	01040000 	mrseq	r0, (UNDEF: 4)
    338c:	5208001f 	andpl	r0, r8, #31
    3390:	03005354 	movweq	r5, #852	; 0x354
    3394:	00004cb3 			; <UNDEFINED> instruction: 0x00004cb3
    3398:	1e010400 	cfcpysne	mvf0, mvf1
    339c:	09ef0900 	stmibeq	pc!, {r8, fp}^	; <UNPREDICTABLE>
    33a0:	b6030000 	strlt	r0, [r3], -r0
    33a4:	0000004c 	andeq	r0, r0, ip, asr #32
    33a8:	001c0204 	andseq	r0, ip, r4, lsl #4
    33ac:	0009f909 	andeq	pc, r9, r9, lsl #18
    33b0:	4cb70300 	ldcmi	3, cr0, [r7]
    33b4:	04000000 	streq	r0, [r0], #-0
    33b8:	0900011b 	stmdbeq	r0, {r0, r1, r3, r4, r8}
    33bc:	00000a97 	muleq	r0, r7, sl
    33c0:	004cb803 	subeq	fp, ip, r3, lsl #16
    33c4:	01040000 	mrseq	r0, (UNDEF: 4)
    33c8:	0a000000 	beq	33d0 <_back_addr-0x160cc30>
    33cc:	00000b2d 	andeq	r0, r0, sp, lsr #22
    33d0:	1aaa0304 	bne	fea83fe8 <__bss_end__+0xfd461398>
    33d4:	0b000004 	bleq	33ec <_back_addr-0x160cc14>
    33d8:	00000a70 	andeq	r0, r0, r0, ror sl
    33dc:	004cac03 	subeq	sl, ip, r3, lsl #24
    33e0:	960b0000 	strls	r0, [fp], -r0
    33e4:	0300000b 	movweq	r0, #11
    33e8:	0003a3b9 			; <UNDEFINED> instruction: 0x0003a3b9
    33ec:	2e020000 	cdpcs	0, 0, cr0, cr2, cr0, {0}
    33f0:	0300000b 	movweq	r0, #11
    33f4:	0003f7bb 			; <UNDEFINED> instruction: 0x0003f7bb
    33f8:	03040700 	movweq	r0, #18176	; 0x4700
    33fc:	0004b0c0 	andeq	fp, r4, r0, asr #1
    3400:	52440800 	subpl	r0, r4, #0, 16
    3404:	4cc30300 	stclmi	3, cr0, [r3], {0}
    3408:	04000000 	streq	r0, [r0], #-0
    340c:	08001f01 	stmdaeq	r0, {r0, r8, r9, sl, fp, ip}
    3410:	0300454f 	movweq	r4, #1359	; 0x54f
    3414:	00004cc7 	andeq	r4, r0, r7, asr #25
    3418:	1e010400 	cfcpysne	mvf0, mvf1
    341c:	45500800 	ldrbmi	r0, [r0, #-2048]	; 0x800
    3420:	4ccc0300 	stclmi	3, cr0, [ip], {0}
    3424:	04000000 	streq	r0, [r0], #-0
    3428:	08001d01 	stmdaeq	r0, {r0, r8, sl, fp, ip}
    342c:	03004546 	movweq	r4, #1350	; 0x546
    3430:	00004ccd 	andeq	r4, r0, sp, asr #25
    3434:	1c010400 	cfstrsne	mvf0, [r1], {-0}
    3438:	49420800 	stmdbmi	r2, {fp}^
    343c:	4cce0300 	stclmi	3, cr0, [lr], {0}
    3440:	04000000 	streq	r0, [r0], #-0
    3444:	09001b01 	stmdbeq	r0, {r0, r8, r9, fp, ip}
    3448:	00000a1f 	andeq	r0, r0, pc, lsl sl
    344c:	004ccf03 	subeq	ip, ip, r3, lsl #30
    3450:	01040000 	mrseq	r0, (UNDEF: 4)
    3454:	3c09001a 	stccc	0, cr0, [r9], {26}
    3458:	0300000a 	movweq	r0, #10
    345c:	00004cd2 	ldrdeq	r4, [r0], -r2
    3460:	19010400 	stmdbne	r1, {sl}
    3464:	46520800 	ldrbmi	r0, [r2], -r0, lsl #16
    3468:	d5030045 	strle	r0, [r3, #-69]	; 0x45
    346c:	0000004c 	andeq	r0, r0, ip, asr #32
    3470:	00180104 	andseq	r0, r8, r4, lsl #2
    3474:	00095d09 	andeq	r5, r9, r9, lsl #26
    3478:	4cd70300 	ldclmi	3, cr0, [r7], {0}
    347c:	04000000 	streq	r0, [r0], #-0
    3480:	00000018 	andeq	r0, r0, r8, lsl r0
    3484:	0009aa0a 	andeq	sl, r9, sl, lsl #20
    3488:	bd030400 	cfstrslt	mvf0, [r3, #-0]
    348c:	000004d3 	ldrdeq	r0, [r0], -r3
    3490:	000a700b 	andeq	r7, sl, fp
    3494:	4cbf0300 	ldcmi	3, cr0, [pc]	; 349c <_back_addr-0x160cb64>
    3498:	0b000000 	bleq	34a0 <_back_addr-0x160cb60>
    349c:	00000b96 	muleq	r0, r6, fp
    34a0:	0425d803 	strteq	sp, [r5], #-2051	; 0x803
    34a4:	02000000 	andeq	r0, r0, #0
    34a8:	000009ab 	andeq	r0, r0, fp, lsr #19
    34ac:	04b0da03 	ldrteq	sp, [r0], #2563	; 0xa03
    34b0:	04070000 	streq	r0, [r7], #-0
    34b4:	054fdf03 	strbeq	sp, [pc, #-3843]	; 25b9 <_back_addr-0x160da47>
    34b8:	2c090000 	stccs	0, cr0, [r9], {-0}
    34bc:	0300000a 	movweq	r0, #10
    34c0:	00004ce3 	andeq	r4, r0, r3, ror #25
    34c4:	1f010400 	svcne	0x00010400
    34c8:	09ef0900 	stmibeq	pc!, {r8, fp}^	; <UNPREDICTABLE>
    34cc:	e5030000 	str	r0, [r3, #-0]
    34d0:	0000004c 	andeq	r0, r0, ip, asr #32
    34d4:	001c0304 	andseq	r0, ip, r4, lsl #6
    34d8:	53544308 	cmppl	r4, #8, 6	; 0x20000000
    34dc:	4ce60300 	stclmi	3, cr0, [r6]
    34e0:	04000000 	streq	r0, [r0], #-0
    34e4:	08001b01 	stmdaeq	r0, {r0, r8, r9, fp, ip}
    34e8:	00525344 	subseq	r5, r2, r4, asr #6
    34ec:	004ce903 	subeq	lr, ip, r3, lsl #18
    34f0:	01040000 	mrseq	r0, (UNDEF: 4)
    34f4:	5208001a 	andpl	r0, r8, #26
    34f8:	ec030049 	stc	0, cr0, [r3], {73}	; 0x49
    34fc:	0000004c 	andeq	r0, r0, ip, asr #32
    3500:	00190104 	andseq	r0, r9, r4, lsl #2
    3504:	44434408 	strbmi	r4, [r3], #-1032	; 0x408
    3508:	4cef0300 	stclmi	3, cr0, [pc]	; 3510 <_back_addr-0x160caf0>
    350c:	04000000 	streq	r0, [r0], #-0
    3510:	09001801 	stmdbeq	r0, {r0, fp, ip}
    3514:	000009f9 	strdeq	r0, [r0], -r9
    3518:	004cf203 	subeq	pc, ip, r3, lsl #4
    351c:	18040000 	stmdane	r4, {}	; <UNPREDICTABLE>
    3520:	0a000000 	beq	3528 <_back_addr-0x160cad8>
    3524:	00000ad8 	ldrdeq	r0, [r0], -r8
    3528:	72dc0304 	sbcsvc	r0, ip, #4, 6	; 0x10000000
    352c:	0b000005 	bleq	3548 <_back_addr-0x160cab8>
    3530:	00000a70 	andeq	r0, r0, r0, ror sl
    3534:	004cde03 	subeq	sp, ip, r3, lsl #28
    3538:	960b0000 	strls	r0, [fp], -r0
    353c:	0300000b 	movweq	r0, #11
    3540:	0004def4 	strdeq	sp, [r4], -r4
    3544:	d9020000 	stmdble	r2, {}	; <UNPREDICTABLE>
    3548:	0300000a 	movweq	r0, #10
    354c:	00054ff6 	strdeq	r4, [r5], -r6
    3550:	03040700 	movweq	r0, #18176	; 0x4700
    3554:	0005a4fb 	strdeq	sl, [r5], -fp
    3558:	43530800 	cmpmi	r3, #0, 16
    355c:	fe030052 	mcr2	0, 0, r0, cr3, cr2, {2}
    3560:	0000004c 	andeq	r0, r0, ip, asr #32
    3564:	00180804 	andseq	r0, r8, r4, lsl #16
    3568:	00095d09 	andeq	r5, r9, r9, lsl #26
    356c:	4cff0300 	ldclmi	3, cr0, [pc]	; 3574 <_back_addr-0x160ca8c>
    3570:	04000000 	streq	r0, [r0], #-0
    3574:	00000018 	andeq	r0, r0, r8, lsl r0
    3578:	000b6b0a 	andeq	r6, fp, sl, lsl #22
    357c:	f8030400 			; <UNDEFINED> instruction: 0xf8030400
    3580:	000005c8 	andeq	r0, r0, r8, asr #11
    3584:	000a700b 	andeq	r7, sl, fp
    3588:	4cfa0300 	ldclmi	3, cr0, [sl]
    358c:	0c000000 	stceq	0, cr0, [r0], {-0}
    3590:	00000b96 	muleq	r0, r6, fp
    3594:	7d010003 	stcvc	0, cr0, [r1, #-12]
    3598:	00000005 	andeq	r0, r0, r5
    359c:	000b6c0d 	andeq	r6, fp, sp, lsl #24
    35a0:	01020300 	mrseq	r0, LR_svc
    35a4:	000005a4 	andeq	r0, r0, r4, lsr #11
    35a8:	000a8e0e 	andeq	r8, sl, lr, lsl #28
    35ac:	05032000 	streq	r2, [r3, #-0]
    35b0:	00064a01 	andeq	r4, r6, r1, lsl #20
    35b4:	0aa20f00 	beq	fe8871bc <__bss_end__+0xfd26456c>
    35b8:	07030000 	streq	r0, [r3, -r0]
    35bc:	00014501 	andeq	r4, r1, r1, lsl #10
    35c0:	790f0000 	stmdbvc	pc, {}	; <UNPREDICTABLE>
    35c4:	03000009 	movweq	r0, #9
    35c8:	01f90108 	mvnseq	r0, r8, lsl #2
    35cc:	0f040000 	svceq	0x00040000
    35d0:	0000099f 	muleq	r0, pc, r9	; <UNPREDICTABLE>
    35d4:	f8010903 			; <UNDEFINED> instruction: 0xf8010903
    35d8:	08000002 	stmdaeq	r0, {r1}
    35dc:	000b570f 	andeq	r5, fp, pc, lsl #14
    35e0:	010a0300 	mrseq	r0, (UNDEF: 58)
    35e4:	00000398 	muleq	r0, r8, r3
    35e8:	0b0e0f0c 	bleq	387220 <_back_addr-0x1288de0>
    35ec:	0b030000 	bleq	c35f4 <_back_addr-0x154ca0c>
    35f0:	00041a01 	andeq	r1, r4, r1, lsl #20
    35f4:	410f1000 	mrsmi	r1, CPSR
    35f8:	0300000a 	movweq	r0, #10
    35fc:	04d3010c 	ldrbeq	r0, [r3], #268	; 0x10c
    3600:	0f140000 	svceq	0x00140000
    3604:	00000a0a 	andeq	r0, r0, sl, lsl #20
    3608:	72010d03 	andvc	r0, r1, #3, 26	; 0xc0
    360c:	18000005 	stmdane	r0, {r0, r2}
    3610:	000a240f 	andeq	r2, sl, pc, lsl #8
    3614:	010e0300 	mrseq	r0, ELR_hyp
    3618:	000005c8 	andeq	r0, r0, r8, asr #11
    361c:	8f0d001c 	svchi	0x000d001c
    3620:	0300000a 	movweq	r0, #10
    3624:	05d40110 	ldrbeq	r0, [r4, #272]	; 0x110
    3628:	f5100000 			; <UNDEFINED> instruction: 0xf5100000
    362c:	0100000a 	tsteq	r0, sl
    3630:	066e0167 	strbteq	r0, [lr], -r7, ror #2
    3634:	b0110000 	andslt	r0, r1, r0
    3638:	0100000a 	tsteq	r0, sl
    363c:	00066e67 	andeq	r6, r6, r7, ror #28
    3640:	04050000 	streq	r0, [r5], #-0
    3644:	00000030 	andeq	r0, r0, r0, lsr r0
    3648:	0003b212 	andeq	fp, r3, r2, lsl r2
    364c:	018e0100 	orreq	r0, lr, r0, lsl #2
    3650:	0000068c 	andeq	r0, r0, ip, lsl #13
    3654:	0009e911 	andeq	lr, r9, r1, lsl r9
    3658:	578e0100 	strpl	r0, [lr, r0, lsl #2]
    365c:	00000000 	andeq	r0, r0, r0
    3660:	0007cd12 	andeq	ip, r7, r2, lsl sp
    3664:	01f60100 	mvnseq	r0, r0, lsl #2
    3668:	000006c3 	andeq	r0, r0, r3, asr #13
    366c:	74736413 	ldrbtvc	r6, [r3], #-1043	; 0x413
    3670:	c3f60100 	mvnsgt	r0, #0, 2
    3674:	11000006 	tstne	r0, r6
    3678:	000009e9 	andeq	r0, r0, r9, ror #19
    367c:	0025f601 	eoreq	pc, r5, r1, lsl #12
    3680:	0d110000 	ldceq	0, cr0, [r1, #-0]
    3684:	01000007 	tsteq	r0, r7
    3688:	00004cf6 	strdeq	r4, [r0], -r6
    368c:	00691400 	rsbeq	r1, r9, r0, lsl #8
    3690:	004cf801 	subeq	pc, ip, r1, lsl #16
    3694:	15000000 	strne	r0, [r0, #-0]
    3698:	03cc1604 	biceq	r1, ip, #4, 12	; 0x400000
    369c:	33010000 	movwcc	r0, #4096	; 0x1000
    36a0:	01611684 	cmneq	r1, r4, lsl #13
    36a4:	0000001c 	andeq	r0, r0, ip, lsl r0
    36a8:	a8179c01 	ldmdage	r7, {r0, sl, fp, ip, pc}
    36ac:	01000003 	tsteq	r0, r3
    36b0:	6116a048 	tstvs	r6, r8, asr #32
    36b4:	00005401 	andeq	r5, r0, r1, lsl #8
    36b8:	0a9c0100 	beq	fe703ac0 <__bss_end__+0xfd0e0e70>
    36bc:	18000007 	stmdane	r0, {r0, r1, r2}
    36c0:	00000aed 	andeq	r0, r0, sp, ror #21
    36c4:	00574a01 	subseq	r4, r7, r1, lsl #20
    36c8:	278f0000 	strcs	r0, [pc, r0]
    36cc:	12190000 	andsne	r0, r9, #0
    36d0:	0100000a 	tsteq	r0, sl
    36d4:	0000574b 	andeq	r5, r0, fp, asr #14
    36d8:	55500000 	ldrbpl	r0, [r0, #-0]
    36dc:	25170000 	ldrcs	r0, [r7, #-0]
    36e0:	01000003 	tsteq	r0, r3
    36e4:	6116f462 	tstvs	r6, r2, ror #8
    36e8:	00002801 	andeq	r2, r0, r1, lsl #16
    36ec:	2d9c0100 	ldfcss	f0, [ip]
    36f0:	1a000007 	bne	3714 <_back_addr-0x160c8ec>
    36f4:	00000a4e 	andeq	r0, r0, lr, asr #20
    36f8:	005e6201 	subseq	r6, lr, r1, lsl #4
    36fc:	50010000 	andpl	r0, r1, r0
    3700:	02ca1700 	sbceq	r1, sl, #0, 14
    3704:	6e010000 	cdpvs	0, 0, cr0, cr1, cr0, {0}
    3708:	0161171c 	cmneq	r1, ip, lsl r7
    370c:	00000068 	andeq	r0, r0, r8, rrx
    3710:	07959c01 	ldreq	r9, [r5, r1, lsl #24]
    3714:	631b0000 	tstvs	fp, #0
    3718:	6e010068 	cdpvs	0, 0, cr0, cr1, cr8, {3}
    371c:	00000085 	andeq	r0, r0, r5, lsl #1
    3720:	000027aa 	andeq	r2, r0, sl, lsr #15
    3724:	3868631c 	stmdacc	r8!, {r2, r3, r4, r8, r9, sp, lr}^
    3728:	30720100 	rsbscc	r0, r2, r0, lsl #2
    372c:	e2000000 	and	r0, r0, #0
    3730:	1d000027 	stcne	0, cr0, [r0, #-156]	; 0xffffff64
    3734:	00000656 	andeq	r0, r0, r6, asr r6
    3738:	01611730 	cmneq	r1, r0, lsr r7
    373c:	000004d8 	ldrdeq	r0, [r0], -r8
    3740:	07787801 	ldrbeq	r7, [r8, -r1, lsl #16]!
    3744:	621e0000 	andsvs	r0, lr, #0
    3748:	00000006 	andeq	r0, r0, r6
    374c:	0006561f 	andeq	r5, r6, pc, lsl r6
    3750:	61174400 	tstvs	r7, r0, lsl #8
    3754:	00001401 	andeq	r1, r0, r1, lsl #8
    3758:	207b0100 	rsbscs	r0, fp, r0, lsl #2
    375c:	00000662 	andeq	r0, r0, r2, ror #12
    3760:	3724f206 	strcc	pc, [r4, -r6, lsl #4]!
    3764:	00000000 	andeq	r0, r0, r0
    3768:	09cd1700 	stmibeq	sp, {r8, r9, sl, ip}^
    376c:	3a010000 	bcc	43774 <_back_addr-0x15cc88c>
    3770:	01611784 	cmneq	r1, r4, lsl #15
    3774:	00000060 	andeq	r0, r0, r0, rrx
    3778:	08229c01 	stmdaeq	r2!, {r0, sl, fp, ip, pc}
    377c:	17210000 	strne	r0, [r1, -r0]!
    3780:	01000008 	tsteq	r0, r8
    3784:	0008223a 	andeq	r2, r8, sl, lsr r2
    3788:	00280100 	eoreq	r0, r8, r0, lsl #2
    378c:	0b092100 	bleq	24bb94 <_back_addr-0x13c446c>
    3790:	3a010000 	bcc	43798 <_back_addr-0x15cc868>
    3794:	0000004c 	andeq	r0, r0, ip, asr #32
    3798:	00002838 	andeq	r2, r0, r8, lsr r8
    379c:	0009e921 	andeq	lr, r9, r1, lsr #18
    37a0:	4c3a0100 	ldfmis	f0, [sl], #-0
    37a4:	6f000000 	svcvs	0x00000000
    37a8:	1c000028 	stcne	0, cr0, [r0], {40}	; 0x28
    37ac:	3b01006e 	blcc	4396c <_back_addr-0x15cc694>
    37b0:	0000005e 	andeq	r0, r0, lr, asr r0
    37b4:	000028a6 	andeq	r2, r0, r6, lsr #17
    37b8:	0004f022 	andeq	pc, r4, r2, lsr #32
    37bc:	08312300 	ldmdaeq	r1!, {r8, r9, sp}
    37c0:	43010000 	movwmi	r0, #4096	; 0x1000
    37c4:	0000005e 	andeq	r0, r0, lr, asr r0
    37c8:	000007fa 	strdeq	r0, [r0], -sl
    37cc:	bc250024 	stclt	0, cr0, [r5], #-144	; 0xffffff70
    37d0:	35016117 	strcc	r6, [r1, #-279]	; 0x117
    37d4:	0d00000d 	stceq	0, cr0, [r0, #-52]	; 0xffffffcc
    37d8:	26000008 	strcs	r0, [r0], -r8
    37dc:	31015001 	tstcc	r1, r1
    37e0:	17e02700 	strbne	r2, [r0, r0, lsl #14]!
    37e4:	072d0161 	streq	r0, [sp, -r1, ror #2]!
    37e8:	01260000 	teqeq	r6, r0
    37ec:	68030550 	stmdavs	r3, {r4, r6, r8, sl}
    37f0:	00016126 	andeq	r6, r1, r6, lsr #2
    37f4:	04050000 	streq	r0, [r5], #-0
    37f8:	00000828 	andeq	r0, r0, r8, lsr #16
    37fc:	00004c28 	andeq	r4, r0, r8, lsr #24
    3800:	0b781700 	bleq	1e09408 <__bss_end__+0x7e67b8>
    3804:	80010000 	andhi	r0, r1, r0
    3808:	016117e4 	cmneq	r1, r4, ror #15
    380c:	00000050 	andeq	r0, r0, r0, asr r0
    3810:	08899c01 	stmeq	r9, {r0, sl, fp, ip, pc}
    3814:	76290000 	strtvc	r0, [r9], -r0
    3818:	01006c61 	tsteq	r0, r1, ror #24
    381c:	00004c80 	andeq	r4, r0, r0, lsl #25
    3820:	1b500100 	blne	1403c28 <_back_addr-0x20c3d8>
    3824:	006e656c 	rsbeq	r6, lr, ip, ror #10
    3828:	004c8001 	subeq	r8, ip, r1
    382c:	290a0000 	stmdbcs	sl, {}	; <UNPREDICTABLE>
    3830:	631c0000 	tstvs	ip, #0
    3834:	83010068 	movwhi	r0, #4200	; 0x1068
    3838:	00000030 	andeq	r0, r0, r0, lsr r0
    383c:	00002928 	andeq	r2, r0, r8, lsr #18
    3840:	0006562a 	andeq	r5, r6, sl, lsr #12
    3844:	61181000 	tstvs	r8, r0
    3848:	00051001 	andeq	r1, r5, r1
    384c:	20890100 	addcs	r0, r9, r0, lsl #2
    3850:	00000662 	andeq	r0, r0, r2, ror #12
    3854:	3832f206 	ldmdacc	r2!, {r1, r2, r9, ip, sp, lr, pc}
    3858:	00000000 	andeq	r0, r0, r0
    385c:	06742b00 	ldrbteq	r2, [r4], -r0, lsl #22
    3860:	18340000 	ldmdane	r4!, {}	; <UNPREDICTABLE>
    3864:	00080161 	andeq	r0, r8, r1, ror #2
    3868:	9c010000 	stcls	0, cr0, [r1], {-0}
    386c:	000008bc 			; <UNDEFINED> instruction: 0x000008bc
    3870:	0006802c 	andeq	r8, r6, ip, lsr #32
    3874:	00294600 	eoreq	r4, r9, r0, lsl #12
    3878:	183c2700 	ldmdane	ip!, {r8, r9, sl, sp}
    387c:	082d0161 	stmdaeq	sp!, {r0, r5, r6, r8}
    3880:	01260000 	teqeq	r6, r0
    3884:	01f30350 	mvnseq	r0, r0, asr r3
    3888:	51012650 	tstpl	r1, r0, asr r6
    388c:	00003801 	andeq	r3, r0, r1, lsl #16
    3890:	00094816 	andeq	r4, r9, r6, lsl r8
    3894:	3c9a0100 	ldfccs	f0, [sl], {0}
    3898:	04016118 	streq	r6, [r1], #-280	; 0x118
    389c:	01000000 	mrseq	r0, (UNDEF: 0)
    38a0:	0991179c 	ldmibeq	r1, {r2, r3, r4, r7, r8, r9, sl, ip}
    38a4:	a0010000 	andge	r0, r1, r0
    38a8:	01611840 	cmneq	r1, r0, asr #16
    38ac:	00000024 	andeq	r0, r0, r4, lsr #32
    38b0:	090b9c01 	stmdbeq	fp, {r0, sl, fp, ip, pc}
    38b4:	63290000 	teqvs	r9, #0
    38b8:	a0010068 	andge	r0, r1, r8, rrx
    38bc:	00000090 	muleq	r0, r0, r0
    38c0:	561f5001 	ldrpl	r5, [pc], -r1
    38c4:	4c000006 	stcmi	0, cr0, [r0], {6}
    38c8:	18016118 	stmdane	r1, {r3, r4, r8, sp, lr}
    38cc:	01000000 	mrseq	r0, (UNDEF: 0)
    38d0:	066220a4 	strbteq	r2, [r2], -r4, lsr #1
    38d4:	f2060000 	vhadd.s8	d0, d6, d0
    38d8:	000038b6 			; <UNDEFINED> instruction: 0x000038b6
    38dc:	2d000000 	stccs	0, cr0, [r0, #-0]
    38e0:	00000a31 	andeq	r0, r0, r1, lsr sl
    38e4:	0057a801 	subseq	sl, r7, r1, lsl #16
    38e8:	18640000 	stmdane	r4!, {}^	; <UNPREDICTABLE>
    38ec:	000c0161 	andeq	r0, ip, r1, ror #2
    38f0:	9c010000 	stcls	0, cr0, [r1], {-0}
    38f4:	0000095e 	andeq	r0, r0, lr, asr r9
    38f8:	0100731b 	tsteq	r0, fp, lsl r3
    38fc:	00095ea8 	andeq	r5, r9, r8, lsr #29
    3900:	00296700 	eoreq	r6, r9, r0, lsl #14
    3904:	01bf2300 			; <UNDEFINED> instruction: 0x01bf2300
    3908:	aa010000 	bge	43910 <_back_addr-0x15cc6f0>
    390c:	0000005e 	andeq	r0, r0, lr, asr r0
    3910:	00000942 	andeq	r0, r0, r2, asr #18
    3914:	70270024 	eorvc	r0, r7, r4, lsr #32
    3918:	46016118 			; <UNDEFINED> instruction: 0x46016118
    391c:	2600000d 	strcs	r0, [r0], -sp
    3920:	f3035001 	vhadd.u8	d5, d3, d1
    3924:	01265001 	teqeq	r6, r1
    3928:	26300151 			; <UNDEFINED> instruction: 0x26300151
    392c:	40015201 	andmi	r5, r1, r1, lsl #4
    3930:	04050000 	streq	r0, [r5], #-0
    3934:	00000090 	muleq	r0, r0, r0
    3938:	0009bf2d 	andeq	fp, r9, sp, lsr #30
    393c:	c3ad0100 			; <UNDEFINED> instruction: 0xc3ad0100
    3940:	70000006 	andvc	r0, r0, r6
    3944:	54016118 	strpl	r6, [r1], #-280	; 0x118
    3948:	01000000 	mrseq	r0, (UNDEF: 0)
    394c:	0009bc9c 	muleq	r9, ip, ip
    3950:	0ae52100 	beq	ff94bd58 <__bss_end__+0xfe329108>
    3954:	ad010000 	stcge	0, cr0, [r1, #-0]
    3958:	00000057 	andeq	r0, r0, r7, asr r0
    395c:	00002988 	andeq	r2, r0, r8, lsl #19
    3960:	00096b2e 	andeq	r6, r9, lr, lsr #22
    3964:	57af0100 	strpl	r0, [pc, r0, lsl #2]!
    3968:	05000000 	streq	r0, [r0, #-0]
    396c:	622ad003 	eorvs	sp, sl, #3
    3970:	0a762e01 	beq	1d8f17c <__bss_end__+0x76c52c>
    3974:	b0010000 	andlt	r0, r1, r0
    3978:	00000057 	andeq	r0, r0, r7, asr r0
    397c:	2c4c0305 	mcrrcs	3, 0, r0, ip, cr5
    3980:	701c0162 	andsvc	r0, ip, r2, ror #2
    3984:	c3b10100 			; <UNDEFINED> instruction: 0xc3b10100
    3988:	bf000006 	svclt	0x00000006
    398c:	00000029 	andeq	r0, r0, r9, lsr #32
    3990:	000a632d 	andeq	r6, sl, sp, lsr #6
    3994:	5ec20100 	polpls	f0, f2, f0
    3998:	c4000000 	strgt	r0, [r0], #-0
    399c:	34016118 	strcc	r6, [r1], #-280	; 0x118
    39a0:	01000000 	mrseq	r0, (UNDEF: 0)
    39a4:	0009e39c 	muleq	r9, ip, r3
    39a8:	00631b00 	rsbeq	r1, r3, r0, lsl #22
    39ac:	0090c201 	addseq	ip, r0, r1, lsl #4
    39b0:	29d20000 	ldmibcs	r2, {}^	; <UNPREDICTABLE>
    39b4:	17000000 	strne	r0, [r0, -r0]
    39b8:	000009b7 			; <UNDEFINED> instruction: 0x000009b7
    39bc:	18f8ce01 	ldmne	r8!, {r0, r9, sl, fp, lr, pc}^
    39c0:	00b00161 	adcseq	r0, r0, r1, ror #2
    39c4:	9c010000 	stcls	0, cr0, [r1], {-0}
    39c8:	00000b1b 	andeq	r0, r0, fp, lsl fp
    39cc:	7274731b 	rsbsvc	r7, r4, #1811939328	; 0x6c000000
    39d0:	85ce0100 	strbhi	r0, [lr, #256]	; 0x100
    39d4:	0c000000 	stceq	0, cr0, [r0], {-0}
    39d8:	1b00002a 	blne	3a88 <_back_addr-0x160c578>
    39dc:	00667562 	rsbeq	r7, r6, r2, ror #10
    39e0:	0b1bce01 	bleq	6f71ec <_back_addr-0xf18e14>
    39e4:	2a460000 	bcs	11839ec <_back_addr-0x48c614>
    39e8:	e8210000 	stmda	r1!, {}	; <UNPREDICTABLE>
    39ec:	01000007 	tsteq	r0, r7
    39f0:	000057ce 	andeq	r5, r0, lr, asr #15
    39f4:	002aa300 	eoreq	sl, sl, r0, lsl #6
    39f8:	00691c00 	rsbeq	r1, r9, r0, lsl #24
    39fc:	0057d001 	subseq	sp, r7, r1
    3a00:	2ae80000 	bcs	ffa03a08 <__bss_end__+0xfe3e0db8>
    3a04:	701c0000 	andsvc	r0, ip, r0
    3a08:	01007274 	tsteq	r0, r4, ror r2
    3a0c:	00095ed1 	ldrdeq	r5, [r9], -r1
    3a10:	002a4600 	eoreq	r4, sl, r0, lsl #12
    3a14:	07ae2f00 	streq	r2, [lr, r0, lsl #30]!
    3a18:	0b390000 	bleq	e43a20 <_back_addr-0x7cc5e0>
    3a1c:	03050000 	movweq	r0, #20480	; 0x5000
    3a20:	01612660 	cmneq	r1, r0, ror #12
    3a24:	00067430 	andeq	r7, r6, r0, lsr r4
    3a28:	61193800 	tstvs	r9, r0, lsl #16
    3a2c:	00001001 	andeq	r1, r0, r1
    3a30:	82da0100 	sbcshi	r0, sl, #0, 2
    3a34:	2c00000a 	stccs	0, cr0, [r0], {10}
    3a38:	00000680 	andeq	r0, r0, r0, lsl #13
    3a3c:	00002b13 	andeq	r2, r0, r3, lsl fp
    3a40:	61194831 	tstvs	r9, r1, lsr r8
    3a44:	00082d01 	andeq	r2, r8, r1, lsl #26
    3a48:	50012600 	andpl	r2, r1, r0, lsl #12
    3a4c:	26017502 	strcs	r7, [r1], -r2, lsl #10
    3a50:	38015101 	stmdacc	r1, {r0, r8, ip, lr}
    3a54:	2c250000 	stccs	0, cr0, [r5], #-0
    3a58:	2d016119 	stfcss	f6, [r1, #-100]	; 0xffffff9c
    3a5c:	a6000007 	strge	r0, [r0], -r7
    3a60:	2600000a 	strcs	r0, [r0], -sl
    3a64:	03125001 	tsteq	r2, #1
    3a68:	01612660 	cmneq	r1, r0, ror #12
    3a6c:	f35001f3 	vbsl	q8, q8, <illegal reg q9.5>
    3a70:	29305001 	ldmdbcs	r0!, {r0, ip, lr}
    3a74:	16000128 	strne	r0, [r0], -r8, lsr #2
    3a78:	38250013 	stmdacc	r5!, {r0, r1, r4}
    3a7c:	2d016119 	stfcss	f6, [r1, #-100]	; 0xffffff9c
    3a80:	bd000007 	stclt	0, cr0, [r0, #-28]	; 0xffffffe4
    3a84:	2600000a 	strcs	r0, [r0], -sl
    3a88:	03055001 	movweq	r5, #20481	; 0x5001
    3a8c:	0161267c 	smceq	4716	; 0x126c
    3a90:	19542500 	ldmdbne	r4, {r8, sl, sp}^
    3a94:	072d0161 	streq	r0, [sp, -r1, ror #2]!
    3a98:	0ad40000 	beq	ff503aa0 <__bss_end__+0xfdee0e50>
    3a9c:	01260000 	teqeq	r6, r0
    3aa0:	84030550 	strhi	r0, [r3], #-1360	; 0x550
    3aa4:	00016126 	andeq	r6, r1, r6, lsr #2
    3aa8:	61196025 	tstvs	r9, r5, lsr #32
    3aac:	00082d01 	andeq	r2, r8, r1, lsl #26
    3ab0:	000ae700 	andeq	lr, sl, r0, lsl #14
    3ab4:	51012600 	tstpl	r1, r0, lsl #12
    3ab8:	32003201 	andcc	r3, r0, #268435456	; 0x10000000
    3abc:	01611980 	cmneq	r1, r0, lsl #19
    3ac0:	0000072d 	andeq	r0, r0, sp, lsr #14
    3ac4:	61199833 	tstvs	r9, r3, lsr r8
    3ac8:	00072d01 	andeq	r2, r7, r1, lsl #26
    3acc:	000b0700 	andeq	r0, fp, r0, lsl #14
    3ad0:	50012600 	andpl	r2, r1, r0, lsl #12
    3ad4:	25840305 	strcs	r0, [r4, #773]	; 0x305
    3ad8:	27000161 	strcs	r0, [r0, -r1, ror #2]
    3adc:	016119a8 	cmneq	r1, r8, lsr #19
    3ae0:	0000072d 	andeq	r0, r0, sp, lsr #14
    3ae4:	05500126 	ldrbeq	r0, [r0, #-294]	; 0x126
    3ae8:	61267403 	teqvs	r6, r3, lsl #8
    3aec:	05000001 	streq	r0, [r0, #-1]
    3af0:	000b2104 	andeq	r2, fp, r4, lsl #2
    3af4:	90353400 	eorsls	r3, r5, r0, lsl #8
    3af8:	32000000 	andcc	r0, r0, #0
    3afc:	3600000b 	strcc	r0, [r0], -fp
    3b00:	00000b32 	andeq	r0, r0, r2, lsr fp
    3b04:	04030007 	streq	r0, [r3], #-7
    3b08:	0001ec07 	andeq	lr, r1, r7, lsl #24
    3b0c:	0b220600 	bleq	885314 <_back_addr-0xd8acec>
    3b10:	a02d0000 	eorge	r0, sp, r0
    3b14:	01000002 	tsteq	r0, r2
    3b18:	0006c3f0 	strdeq	ip, [r6], -r0
    3b1c:	6119a800 	tstvs	r9, r0, lsl #16
    3b20:	00002401 	andeq	r2, r0, r1, lsl #8
    3b24:	b59c0100 	ldrlt	r0, [ip, #256]	; 0x100
    3b28:	2900000b 	stmdbcs	r0, {r0, r1, r3}
    3b2c:	f0010073 			; <UNDEFINED> instruction: 0xf0010073
    3b30:	000006c3 	andeq	r0, r0, r3, asr #13
    3b34:	631b5001 	tstvs	fp, #1
    3b38:	5ef00100 	cdppl	1, 15, cr0, cr0, cr0, {0}
    3b3c:	4c000000 	stcmi	0, cr0, [r0], {-0}
    3b40:	2100002b 	tstcs	r0, fp, lsr #32
    3b44:	00000a7c 	andeq	r0, r0, ip, ror sl
    3b48:	007af001 	rsbseq	pc, sl, r1
    3b4c:	2b6d0000 	blcs	1b43b54 <__bss_end__+0x520f04>
    3b50:	8c2a0000 	stchi	0, cr0, [sl], #-0
    3b54:	a8000006 	stmdage	r0, {r1, r2}
    3b58:	28016119 	stmdacs	r1, {r0, r3, r4, r8, sp, lr}
    3b5c:	01000005 	tsteq	r0, r5
    3b60:	06ae2cf2 			; <UNDEFINED> instruction: 0x06ae2cf2
    3b64:	2b8e0000 	blcs	fe383b6c <__bss_end__+0xfcd60f1c>
    3b68:	a3200000 	teqge	r0, #0
    3b6c:	01000006 	tsteq	r0, r6
    3b70:	06982051 			; <UNDEFINED> instruction: 0x06982051
    3b74:	50010000 	andpl	r0, r1, r0
    3b78:	00052822 	andeq	r2, r5, r2, lsr #16
    3b7c:	06b93700 	ldrteq	r3, [r9], r0, lsl #14
    3b80:	2baf0000 	blcs	febc3b88 <__bss_end__+0xfd5a0f38>
    3b84:	00000000 	andeq	r0, r0, r0
    3b88:	068c2b00 	streq	r2, [ip], r0, lsl #22
    3b8c:	19cc0000 	stmibne	ip, {}^	; <UNPREDICTABLE>
    3b90:	001c0161 	andseq	r0, ip, r1, ror #2
    3b94:	9c010000 	stcls	0, cr0, [r1], {-0}
    3b98:	00000beb 	andeq	r0, r0, fp, ror #23
    3b9c:	0006982c 	andeq	r9, r6, ip, lsr #16
    3ba0:	002bc300 	eoreq	ip, fp, r0, lsl #6
    3ba4:	06a32000 	strteq	r2, [r3], r0
    3ba8:	51010000 	mrspl	r0, (UNDEF: 1)
    3bac:	0006ae2c 	andeq	sl, r6, ip, lsr #28
    3bb0:	002be400 	eoreq	lr, fp, r0, lsl #8
    3bb4:	06b93700 	ldrteq	r3, [r9], r0, lsl #14
    3bb8:	2c050000 	stccs	0, cr0, [r5], {-0}
    3bbc:	17000000 	strne	r0, [r0, -r0]
    3bc0:	00000869 	andeq	r0, r0, r9, ror #16
    3bc4:	19e8fd01 	stmibne	r8!, {r0, r8, sl, fp, ip, sp, lr, pc}^
    3bc8:	009c0161 	addseq	r0, ip, r1, ror #2
    3bcc:	9c010000 	stcls	0, cr0, [r1], {-0}
    3bd0:	00000c34 	andeq	r0, r0, r4, lsr ip
    3bd4:	74736429 	ldrbtvc	r6, [r3], #-1065	; 0x429
    3bd8:	c3fd0100 	mvnsgt	r0, #0, 2
    3bdc:	01000006 	tsteq	r0, r6
    3be0:	72732950 	rsbsvc	r2, r3, #80, 18	; 0x140000
    3be4:	fd010063 	stc2	0, cr0, [r1, #-396]	; 0xfffffe74
    3be8:	000006c3 	andeq	r0, r0, r3, asr #13
    3bec:	0d1a5101 	ldfeqs	f5, [sl, #-4]
    3bf0:	01000007 	tsteq	r0, r7
    3bf4:	000057fd 	strdeq	r5, [r0], -sp
    3bf8:	38520100 	ldmdacc	r2, {r8}^
    3bfc:	ff010069 			; <UNDEFINED> instruction: 0xff010069
    3c00:	00000c34 	andeq	r0, r0, r4, lsr ip
    3c04:	007c9102 	rsbseq	r9, ip, r2, lsl #2
    3c08:	00005728 	andeq	r5, r0, r8, lsr #14
    3c0c:	0b873900 	bleq	fe1d2014 <__bss_end__+0xfcbaf3c4>
    3c10:	0c010000 	stceq	0, cr0, [r1], {-0}
    3c14:	00005e01 	andeq	r5, r0, r1, lsl #28
    3c18:	611a8400 	tstvs	sl, r0, lsl #8
    3c1c:	00005801 	andeq	r5, r0, r1, lsl #16
    3c20:	ae9c0100 	fmlgee	f0, f4, f0
    3c24:	3a00000c 	bcc	3c5c <_back_addr-0x160c3a4>
    3c28:	01003173 	tsteq	r0, r3, ror r1
    3c2c:	06c3010c 	strbeq	r0, [r3], ip, lsl #2
    3c30:	2c3d0000 	ldccs	0, cr0, [sp], #-0
    3c34:	733a0000 	teqvc	sl, #0
    3c38:	0c010032 	stceq	0, cr0, [r1], {50}	; 0x32
    3c3c:	0006c301 	andeq	ip, r6, r1, lsl #6
    3c40:	002c9000 	eoreq	r9, ip, r0
    3c44:	070d3b00 	streq	r3, [sp, -r0, lsl #22]
    3c48:	0c010000 	stceq	0, cr0, [r1], {-0}
    3c4c:	00004c01 	andeq	r4, r0, r1, lsl #24
    3c50:	002cbc00 	eoreq	fp, ip, r0, lsl #24
    3c54:	00693c00 	rsbeq	r3, r9, r0, lsl #24
    3c58:	4c010e01 	stcmi	14, cr0, [r1], {1}
    3c5c:	e8000000 	stmda	r0, {}	; <UNPREDICTABLE>
    3c60:	3c00002c 	stccc	0, cr0, [r0], {44}	; 0x2c
    3c64:	01003170 	tsteq	r0, r0, ror r1
    3c68:	095e010f 	ldmdbeq	lr, {r0, r1, r2, r3, r8}^
    3c6c:	2c3d0000 	ldccs	0, cr0, [sp], #-0
    3c70:	703c0000 	eorsvc	r0, ip, r0
    3c74:	0f010032 	svceq	0x00010032
    3c78:	00095e01 	andeq	r5, r9, r1, lsl #28
    3c7c:	002d4a00 	eoreq	r4, sp, r0, lsl #20
    3c80:	82390000 	eorshi	r0, r9, #0
    3c84:	0100000a 	tsteq	r0, sl
    3c88:	005e011c 	subseq	r0, lr, ip, lsl r1
    3c8c:	1adc0000 	bne	ff703c94 <__bss_end__+0xfe0e1044>
    3c90:	00440161 	subeq	r0, r4, r1, ror #2
    3c94:	9c010000 	stcls	0, cr0, [r1], {-0}
    3c98:	00000cf5 	strdeq	r0, [r0], -r5
    3c9c:	0031733a 	eorseq	r7, r1, sl, lsr r3
    3ca0:	85011c01 	strhi	r1, [r1, #-3073]	; 0xc01
    3ca4:	76000000 	strvc	r0, [r0], -r0
    3ca8:	3a00002d 	bcc	3d64 <_back_addr-0x160c29c>
    3cac:	01003273 	tsteq	r0, r3, ror r2
    3cb0:	0085011c 	addeq	r0, r5, ip, lsl r1
    3cb4:	2d970000 	ldccs	0, cr0, [r7]
    3cb8:	693c0000 	ldmdbvs	ip!, {}	; <UNPREDICTABLE>
    3cbc:	011e0100 	tsteq	lr, r0, lsl #2
    3cc0:	0000004c 	andeq	r0, r0, ip, asr #32
    3cc4:	00002db8 			; <UNDEFINED> instruction: 0x00002db8
    3cc8:	0ac93d00 	beq	ff2530d0 <__bss_end__+0xfdc30480>
    3ccc:	2a010000 	bcs	43cd4 <_back_addr-0x15cc32c>
    3cd0:	611b2001 	tstvs	fp, r1
    3cd4:	00002801 	andeq	r2, r0, r1, lsl #16
    3cd8:	3d9c0100 	ldfccs	f0, [ip]
    3cdc:	00000b02 	andeq	r0, r0, r2, lsl #22
    3ce0:	48014701 	stmdami	r1, {r0, r8, r9, sl, lr}
    3ce4:	0401611b 	streq	r6, [r1], #-283	; 0x11b
    3ce8:	01000000 	mrseq	r0, (UNDEF: 0)
    3cec:	0b3a2e9c 	bleq	e8f764 <_back_addr-0x78089c>
    3cf0:	15010000 	strne	r0, [r1, #-0]
    3cf4:	00000d2a 	andeq	r0, r0, sl, lsr #26
    3cf8:	2acc0305 	bcs	ff304914 <__bss_end__+0xfdce1cc4>
    3cfc:	04050162 	streq	r0, [r5], #-354	; 0x162
    3d00:	00000d30 	andeq	r0, r0, r0, lsr sp
    3d04:	00064a28 	andeq	r4, r6, r8, lsr #20
    3d08:	08312300 	ldmdaeq	r1!, {r8, r9, sp}
    3d0c:	43010000 	movwmi	r0, #4096	; 0x1000
    3d10:	0000005e 	andeq	r0, r0, lr, asr r0
    3d14:	00000d46 	andeq	r0, r0, r6, asr #26
    3d18:	bf3e0024 	svclt	0x003e0024
    3d1c:	01000001 	tsteq	r0, r1
    3d20:	00005eaa 	andeq	r5, r0, sl, lsr #29
    3d24:	00002400 	andeq	r2, r0, r0, lsl #8
    3d28:	000014ec 	andeq	r1, r0, ip, ror #9
    3d2c:	10d70004 	sbcsne	r0, r7, r4
    3d30:	01040000 	mrseq	r0, (UNDEF: 4)
    3d34:	00000060 	andeq	r0, r0, r0, rrx
    3d38:	000d4e01 	andeq	r4, sp, r1, lsl #28
    3d3c:	00033400 	andeq	r3, r3, r0, lsl #8
    3d40:	611b4c00 	tstvs	fp, r0, lsl #24
    3d44:	0008d001 	andeq	sp, r8, r1
    3d48:	000cd700 	andeq	sp, ip, r0, lsl #14
    3d4c:	07040200 	streq	r0, [r4, -r0, lsl #4]
    3d50:	0000003b 	andeq	r0, r0, fp, lsr r0
    3d54:	0f030403 	svceq	0x00030403
    3d58:	00000047 	andeq	r0, r0, r7, asr #32
    3d5c:	000e2404 	andeq	r2, lr, r4, lsl #8
    3d60:	fa040000 	blx	103d68 <_back_addr-0x150c298>
    3d64:	0100000d 	tsteq	r0, sp
    3d68:	000e0504 	andeq	r0, lr, r4, lsl #10
    3d6c:	05000200 	streq	r0, [r0, #-512]	; 0x200
    3d70:	00000baf 	andeq	r0, r0, pc, lsr #23
    3d74:	002c1303 	eoreq	r1, ip, r3, lsl #6
    3d78:	01020000 	mrseq	r0, (UNDEF: 2)
    3d7c:	00001908 	andeq	r1, r0, r8, lsl #18
    3d80:	05040600 	streq	r0, [r4, #-1536]	; 0x600
    3d84:	00746e69 	rsbseq	r6, r4, r9, ror #28
    3d88:	000dec07 	andeq	lr, sp, r7, lsl #24
    3d8c:	7f080400 	svcvc	0x00080400
    3d90:	0000007f 	andeq	r0, r0, pc, ror r0
    3d94:	000bed04 	andeq	lr, fp, r4, lsl #26
    3d98:	d3040000 	movwle	r0, #16384	; 0x4000
    3d9c:	0100000d 	tsteq	r0, sp
    3da0:	000e9604 	andeq	r9, lr, r4, lsl #12
    3da4:	02007f00 	andeq	r7, r0, #0, 30
    3da8:	01ec0704 	mvneq	r0, r4, lsl #14
    3dac:	04020000 	streq	r0, [r2], #-0
    3db0:	00003607 	andeq	r3, r0, r7, lsl #12
    3db4:	07020200 	streq	r0, [r2, -r0, lsl #4]
    3db8:	0000001e 	andeq	r0, r0, lr, lsl r0
    3dbc:	4d050402 	cfstrsmi	mvf0, [r5, #-8]
    3dc0:	02000000 	andeq	r0, r0, #0
    3dc4:	00480508 	subeq	r0, r8, r8, lsl #10
    3dc8:	01020000 	mrseq	r0, (UNDEF: 2)
    3dcc:	00001206 	andeq	r1, r0, r6, lsl #4
    3dd0:	0c5c0500 	cfldr64eq	mvdx0, [ip], {-0}
    3dd4:	0c040000 	stceq	0, cr0, [r4], {-0}
    3dd8:	000000b4 	strheq	r0, [r0], -r4
    3ddc:	10080102 	andne	r0, r8, r2, lsl #2
    3de0:	02000000 	andeq	r0, r0, #0
    3de4:	00560502 	subseq	r0, r6, r2, lsl #10
    3de8:	c7050000 	strgt	r0, [r5, -r0]
    3dec:	0400000b 	streq	r0, [r0], #-11
    3df0:	00008d0f 	andeq	r8, r0, pc, lsl #26
    3df4:	0c7a0500 	cfldr64eq	mvdx0, [sl], #-0
    3df8:	12040000 	andne	r0, r4, #0
    3dfc:	00000025 	andeq	r0, r0, r5, lsr #32
    3e00:	31070802 	tstcc	r7, r2, lsl #16
    3e04:	05000000 	streq	r0, [r0, #-0]
    3e08:	0000082c 	andeq	r0, r0, ip, lsr #16
    3e0c:	00255c05 	eoreq	r5, r5, r5, lsl #24
    3e10:	11050000 	mrsne	r0, (UNDEF: 5)
    3e14:	05000003 	streq	r0, [r0, #-3]
    3e18:	0000865d 	andeq	r8, r0, sp, asr r6
    3e1c:	0e760500 	cdpeq	5, 7, cr0, cr6, cr0, {0}
    3e20:	6b050000 	blvs	143e28 <_back_addr-0x14cc1d8>
    3e24:	000000a9 	andeq	r0, r0, r9, lsr #1
    3e28:	000bfd05 	andeq	pc, fp, r5, lsl #26
    3e2c:	c26c0500 	rsbgt	r0, ip, #0, 10
    3e30:	05000000 	streq	r0, [r0, #-0]
    3e34:	00000de3 	andeq	r0, r0, r3, ror #27
    3e38:	00cd6d05 	sbceq	r6, sp, r5, lsl #26
    3e3c:	32050000 	andcc	r0, r5, #0
    3e40:	01000009 	tsteq	r0, r9
    3e44:	0000b40b 	andeq	fp, r0, fp, lsl #8
    3e48:	088c0800 	stmeq	ip, {fp}
    3e4c:	44020000 	strmi	r0, [r2], #-0
    3e50:	00000025 	andeq	r0, r0, r5, lsr #32
    3e54:	00013d03 	andeq	r3, r1, r3, lsl #26
    3e58:	08170900 	ldmdaeq	r7, {r8, fp}
    3e5c:	44020000 	strmi	r0, [r2], #-0
    3e60:	00000025 	andeq	r0, r0, r5, lsr #32
    3e64:	07120a00 	ldreq	r0, [r2, -r0, lsl #20]
    3e68:	5f020000 	svcpl	0x00020000
    3e6c:	00016003 	andeq	r6, r1, r3
    3e70:	08170900 	ldmdaeq	r7, {r8, fp}
    3e74:	5f020000 	svcpl	0x00020000
    3e78:	00000025 	andeq	r0, r0, r5, lsr #32
    3e7c:	6c61760b 	stclvs	6, cr7, [r1], #-44	; 0xffffffd4
    3e80:	255f0200 	ldrbcs	r0, [pc, #-512]	; 3c88 <_back_addr-0x160c378>
    3e84:	00000000 	andeq	r0, r0, r0
    3e88:	000cde0c 	andeq	sp, ip, ip, lsl #28
    3e8c:	01fb0100 	mvnseq	r0, r0, lsl #2
    3e90:	00000059 	andeq	r0, r0, r9, asr r0
    3e94:	00019601 	andeq	r9, r1, r1, lsl #12
    3e98:	0be80d00 	bleq	ffa072a0 <__bss_end__+0xfe3e4650>
    3e9c:	fb010000 	blx	43ea6 <_back_addr-0x15cc15a>
    3ea0:	00005901 	andeq	r5, r0, r1, lsl #18
    3ea4:	08170e00 	ldmdaeq	r7, {r9, sl, fp}
    3ea8:	fd010000 	stc2	0, cr0, [r1, #-0]
    3eac:	00005901 	andeq	r5, r0, r1, lsl #18
    3eb0:	0e460e00 	cdpeq	14, 4, cr0, cr6, cr0, {0}
    3eb4:	fd010000 	stc2	0, cr0, [r1, #-0]
    3eb8:	00005901 	andeq	r5, r0, r1, lsl #18
    3ebc:	cd0c0000 	stcgt	0, cr0, [ip, #-0]
    3ec0:	0100000b 	tsteq	r0, fp
    3ec4:	00590160 	subseq	r0, r9, r0, ror #2
    3ec8:	24010000 	strcs	r0, [r1], #-0
    3ecc:	0d000002 	stceq	0, cr0, [r0, #-8]
    3ed0:	00000bdb 	ldrdeq	r0, [r0], -fp
    3ed4:	b4016001 	strlt	r6, [r1], #-1
    3ed8:	0f000000 	svceq	0x00000000
    3edc:	00000ec2 	andeq	r0, r0, r2, asr #29
    3ee0:	0059d801 	subseq	sp, r9, r1, lsl #16
    3ee4:	01c40000 	biceq	r0, r4, r0
    3ee8:	00100000 	andseq	r0, r0, r0
    3eec:	0001d711 	andeq	sp, r1, r1, lsl r7
    3ef0:	039b1200 	orrseq	r1, fp, #0, 4
    3ef4:	81010000 	mrshi	r0, (UNDEF: 1)
    3ef8:	00000059 	andeq	r0, r0, r9, asr r0
    3efc:	11000010 	tstne	r0, r0, lsl r0
    3f00:	000001ff 	strdeq	r0, [r0], -pc	; <UNPREDICTABLE>
    3f04:	00039b13 	andeq	r9, r3, r3, lsl fp
    3f08:	59810100 	stmibpl	r1, {r8}
    3f0c:	00000000 	andeq	r0, r0, r0
    3f10:	000001ef 	andeq	r0, r0, pc, ror #3
    3f14:	14001010 	strne	r1, [r0], #-16
    3f18:	00000cde 	ldrdeq	r0, [r0], -lr
    3f1c:	0059cc01 	subseq	ip, r9, r1, lsl #24
    3f20:	10000000 	andne	r0, r0, r0
    3f24:	15000010 	strne	r0, [r0, #-16]
    3f28:	00039b13 	andeq	r9, r3, r3, lsl fp
    3f2c:	59810100 	stmibpl	r1, {r8}
    3f30:	00000000 	andeq	r0, r0, r0
    3f34:	00000213 	andeq	r0, r0, r3, lsl r2
    3f38:	14001010 	strne	r1, [r0], #-16
    3f3c:	00000cde 	ldrdeq	r0, [r0], -lr
    3f40:	0059cc01 	subseq	ip, r9, r1, lsl #24
    3f44:	10000000 	andne	r0, r0, r0
    3f48:	00000010 	andeq	r0, r0, r0, lsl r0
    3f4c:	000e100c 	andeq	r1, lr, ip
    3f50:	017d0100 	cmneq	sp, r0, lsl #2
    3f54:	00000059 	andeq	r0, r0, r9, asr r0
    3f58:	0002b201 	andeq	fp, r2, r1, lsl #4
    3f5c:	0e1e0d00 	cdpeq	13, 1, cr0, cr14, cr0, {0}
    3f60:	7d010000 	stcvc	0, cr0, [r1, #-0]
    3f64:	0000b401 	andeq	fp, r0, r1, lsl #8
    3f68:	0ec20f00 	cdpeq	15, 12, cr0, cr2, cr0, {0}
    3f6c:	d8010000 	stmdale	r1, {}	; <UNPREDICTABLE>
    3f70:	00000059 	andeq	r0, r0, r9, asr r0
    3f74:	00000252 	andeq	r0, r0, r2, asr r2
    3f78:	65110010 	ldrvs	r0, [r1, #-16]
    3f7c:	12000002 	andne	r0, r0, #2
    3f80:	0000039b 	muleq	r0, fp, r3
    3f84:	00598101 	subseq	r8, r9, r1, lsl #2
    3f88:	00100000 	andseq	r0, r0, r0
    3f8c:	028d1100 	addeq	r1, sp, #0, 2
    3f90:	9b130000 	blls	4c3f98 <_back_addr-0x114c068>
    3f94:	01000003 	tsteq	r0, r3
    3f98:	00005981 	andeq	r5, r0, r1, lsl #19
    3f9c:	027d0000 	rsbseq	r0, sp, #0
    3fa0:	10100000 	andsne	r0, r0, r0
    3fa4:	0cde1400 	cfldrdeq	mvd1, [lr], {0}
    3fa8:	cc010000 	stcgt	0, cr0, [r1], {-0}
    3fac:	00000059 	andeq	r0, r0, r9, asr r0
    3fb0:	00101000 	andseq	r1, r0, r0
    3fb4:	9b131500 	blls	4c93bc <_back_addr-0x1146c44>
    3fb8:	01000003 	tsteq	r0, r3
    3fbc:	00005981 	andeq	r5, r0, r1, lsl #19
    3fc0:	02a10000 	adceq	r0, r1, #0
    3fc4:	10100000 	andsne	r0, r0, r0
    3fc8:	0cde1400 	cfldrdeq	mvd1, [lr], {0}
    3fcc:	cc010000 	stcgt	0, cr0, [r1], {-0}
    3fd0:	00000059 	andeq	r0, r0, r9, asr r0
    3fd4:	00101000 	andseq	r1, r0, r0
    3fd8:	06160000 	ldreq	r0, [r6], -r0
    3fdc:	0100000c 	tsteq	r0, ip
    3fe0:	00005971 	andeq	r5, r0, r1, ror r9
    3fe4:	611b4c00 	tstvs	fp, r0, lsl #24
    3fe8:	0001dc01 	andeq	sp, r1, r1, lsl #24
    3fec:	2d9c0100 	ldfcss	f0, [ip]
    3ff0:	17000004 	strne	r0, [r0, -r4]
    3ff4:	00000817 	andeq	r0, r0, r7, lsl r8
    3ff8:	00ea7101 	rsceq	r7, sl, r1, lsl #2
    3ffc:	2e010000 	cdpcs	0, 0, cr0, cr1, cr0, {0}
    4000:	a6170000 	ldrge	r0, [r7], -r0
    4004:	0100000c 	tsteq	r0, ip
    4008:	00042d71 	andeq	r2, r4, r1, ror sp
    400c:	002e5b00 	eoreq	r5, lr, r0, lsl #22
    4010:	0cb91700 	ldceq	7, cr1, [r9]
    4014:	71010000 	mrsvc	r0, (UNDEF: 1)
    4018:	000000df 	ldrdeq	r0, [r0], -pc	; <UNPREDICTABLE>
    401c:	00002e93 	muleq	r0, r3, lr
    4020:	000ca017 	andeq	sl, ip, r7, lsl r0
    4024:	df710100 	svcle	0x00710100
    4028:	b4000000 	strlt	r0, [r0], #-0
    402c:	1700002e 	strne	r0, [r0, -lr, lsr #32]
    4030:	00000a7c 	andeq	r0, r0, ip, ror sl
    4034:	00df7101 	sbcseq	r7, pc, r1, lsl #2
    4038:	2ed20000 	cdpcs	0, 13, cr0, cr2, cr0, {0}
    403c:	c2180000 	andsgt	r0, r8, #0
    4040:	0100000c 	tsteq	r0, ip
    4044:	0000df71 	andeq	sp, r0, r1, ror pc
    4048:	04910200 	ldreq	r0, [r1], #512	; 0x200
    404c:	000c2217 	andeq	r2, ip, r7, lsl r2
    4050:	df710100 	svcle	0x00710100
    4054:	07000000 	streq	r0, [r0, -r0]
    4058:	1900002f 	stmdbne	r0, {r0, r1, r2, r3, r5}
    405c:	00000eaf 	andeq	r0, r0, pc, lsr #29
    4060:	5e740144 	rpwplsm	f0, f4, f4
    4064:	1a000003 	bne	4078 <_back_addr-0x160bf88>
    4068:	01006975 	tsteq	r0, r5, ror r9
    406c:	00042f75 	andeq	r2, r4, r5, ror pc
    4070:	73751a00 	cmnvc	r5, #0, 20
    4074:	3f760100 	svccc	0x00760100
    4078:	1a000004 	bne	4090 <_back_addr-0x160bf70>
    407c:	01006375 	tsteq	r0, r5, ror r3
    4080:	00044f77 	andeq	r4, r4, r7, ror pc
    4084:	6c1b0000 	ldcvs	0, cr0, [fp], {-0}
    4088:	78010062 	stmdavc	r1, {r1, r5, r6}
    408c:	00000333 	andeq	r0, r0, r3, lsr r3
    4090:	7f949103 	svcvc	0x00949103
    4094:	0100691c 	tsteq	r0, ip, lsl r9
    4098:	00005979 	andeq	r5, r0, r9, ror r9
    409c:	002f8200 	eoreq	r8, pc, r0, lsl #4
    40a0:	05401d00 	strbeq	r1, [r0, #-3328]	; 0xd00
    40a4:	9b0f0000 	blls	3c40ac <_back_addr-0x124bf54>
    40a8:	01000003 	tsteq	r0, r3
    40ac:	00005981 	andeq	r5, r0, r1, lsl #19
    40b0:	00038f00 	andeq	r8, r3, r0, lsl #30
    40b4:	0f001000 	svceq	0x00001000
    40b8:	0000020b 	andeq	r0, r0, fp, lsl #4
    40bc:	0059a701 	subseq	sl, r9, r1, lsl #14
    40c0:	03a00000 	moveq	r0, #0
    40c4:	00100000 	andseq	r0, r0, r0
    40c8:	0005601e 	andeq	r6, r5, lr, lsl r0
    40cc:	0003d300 	andeq	sp, r3, r0, lsl #6
    40d0:	00781c00 	rsbseq	r1, r8, r0, lsl #24
    40d4:	010b8901 	tsteq	fp, r1, lsl #18
    40d8:	2fef0000 	svccs	0x00ef0000
    40dc:	dc1f0000 	ldcle	0, cr0, [pc], {-0}
    40e0:	9c01611b 	stflss	f6, [r1], {27}
    40e4:	20000014 	andcs	r0, r0, r4, lsl r0
    40e8:	01611c3c 	cmneq	r1, ip, lsr ip
    40ec:	0000149c 	muleq	r0, ip, r4
    40f0:	05500121 	ldrbeq	r0, [r0, #-289]	; 0x121
    40f4:	6126b003 	teqvs	r6, r3
    40f8:	22000001 	andcs	r0, r0, #1
    40fc:	01611b9c 			; <UNDEFINED> instruction: 0x01611b9c
    4100:	0000149c 	muleq	r0, ip, r4
    4104:	000003f1 	strdeq	r0, [r0], -r1
    4108:	05500121 	ldrbeq	r0, [r0, #-289]	; 0x121
    410c:	61269c03 	teqvs	r6, r3, lsl #24
    4110:	51012101 	tstpl	r1, r1, lsl #2
    4114:	06007d03 	streq	r7, [r0], -r3, lsl #26
    4118:	1cdc2200 	lfmne	f2, 2, [ip], {0}
    411c:	149c0161 	ldrne	r0, [ip], #353	; 0x161
    4120:	040f0000 	streq	r0, [pc], #-0	; 4128 <_back_addr-0x160bed8>
    4124:	01210000 	teqeq	r1, r0
    4128:	b4030550 	strlt	r0, [r3], #-1360	; 0x550
    412c:	21016126 	tstcs	r1, r6, lsr #2
    4130:	91035101 	tstls	r3, r1, lsl #2
    4134:	1f007f8c 	svcne	0x00007f8c
    4138:	01611ce0 	cmneq	r1, r0, ror #25
    413c:	000014ad 	andeq	r1, r0, sp, lsr #9
    4140:	611d1820 	tstvs	sp, r0, lsr #16
    4144:	00149c01 	andseq	r9, r4, r1, lsl #24
    4148:	50012100 	andpl	r2, r1, r0, lsl #2
    414c:	26c00305 	strbcs	r0, [r0], r5, lsl #6
    4150:	00000161 	andeq	r0, r0, r1, ror #2
    4154:	24042300 	strcs	r2, [r4], #-768	; 0x300
    4158:	0000010b 	andeq	r0, r0, fp, lsl #2
    415c:	0000043f 	andeq	r0, r0, pc, lsr r4
    4160:	00007f25 	andeq	r7, r0, r5, lsr #30
    4164:	24001000 	strcs	r1, [r0], #-0
    4168:	00000100 	andeq	r0, r0, r0, lsl #2
    416c:	0000044f 	andeq	r0, r0, pc, asr #8
    4170:	00007f25 	andeq	r7, r0, r5, lsr #30
    4174:	24002000 	strcs	r2, [r0], #-0
    4178:	000000f5 	strdeq	r0, [r0], -r5
    417c:	0000045f 	andeq	r0, r0, pc, asr r4
    4180:	00007f25 	andeq	r7, r0, r5, lsr #30
    4184:	26004000 	strcs	r4, [r0], -r0
    4188:	00000db4 			; <UNDEFINED> instruction: 0x00000db4
    418c:	5901cb01 	stmdbpl	r1, {r0, r8, r9, fp, lr, pc}
    4190:	28000000 	stmdacs	r0, {}	; <UNPREDICTABLE>
    4194:	b001611d 	andlt	r6, r1, sp, lsl r1
    4198:	01000000 	mrseq	r0, (UNDEF: 0)
    419c:	0005859c 	muleq	r5, ip, r5
    41a0:	656b2700 	strbvs	r2, [fp, #-1792]!	; 0x700
    41a4:	d5010079 	strle	r0, [r1, #-121]	; 0x79
    41a8:	00058501 	andeq	r8, r5, r1, lsl #10
    41ac:	65722800 	ldrbvs	r2, [r2, #-2048]!	; 0x800
    41b0:	d6010074 			; <UNDEFINED> instruction: 0xd6010074
    41b4:	00005901 	andeq	r5, r0, r1, lsl #18
    41b8:	00300d00 	eorseq	r0, r0, r0, lsl #26
    41bc:	081c2900 	ldmdaeq	ip, {r8, fp, sp}
    41c0:	d8010000 	stmdale	r1, {}	; <UNPREDICTABLE>
    41c4:	00005901 	andeq	r5, r0, r1, lsl #18
    41c8:	0004a700 	andeq	sl, r4, r0, lsl #14
    41cc:	0f001000 	svceq	0x00001000
    41d0:	0000039b 	muleq	r0, fp, r3
    41d4:	00598101 	subseq	r8, r9, r1, lsl #2
    41d8:	04b80000 	ldrteq	r0, [r8], #0
    41dc:	00100000 	andseq	r0, r0, r0
    41e0:	01006928 	tsteq	r0, r8, lsr #18
    41e4:	005901db 	ldrsbeq	r0, [r9], #-27	; 0xffffffe5
    41e8:	30410000 	subcc	r0, r1, r0
    41ec:	56290000 	strtpl	r0, [r9], -r0
    41f0:	01000002 	tsteq	r0, r2
    41f4:	005901e2 	subseq	r0, r9, r2, ror #3
    41f8:	04d80000 	ldrbeq	r0, [r8], #0
    41fc:	00100000 	andseq	r0, r0, r0
    4200:	611d5022 	tstvs	sp, r2, lsr #32
    4204:	0014be01 	andseq	fp, r4, r1, lsl #28
    4208:	00050200 	andeq	r0, r5, r0, lsl #4
    420c:	50012100 	andpl	r2, r1, r0, lsl #2
    4210:	2ae40305 	bcs	ff904e2c <__bss_end__+0xfe2e21dc>
    4214:	01210162 	teqeq	r1, r2, ror #2
    4218:	21400151 	cmpcs	r0, r1, asr r1
    421c:	03055201 	movweq	r5, #20993	; 0x5201
    4220:	01622ad4 	ldrdeq	r2, [r2, #-164]!	; 0xffffff5c
    4224:	01530121 	cmpeq	r3, r1, lsr #2
    4228:	64220030 	strtvs	r0, [r2], #-48	; 0x30
    422c:	9c01611d 	stflss	f6, [r1], {29}
    4230:	19000014 	stmdbne	r0, {r2, r4}
    4234:	21000005 	tstcs	r0, r5
    4238:	03055001 	movweq	r5, #20481	; 0x5001
    423c:	016126c8 	cmneq	r1, r8, asr #13
    4240:	1d782200 	lfmne	f2, 2, [r8, #-0]
    4244:	149c0161 	ldrne	r0, [ip], #353	; 0x161
    4248:	05300000 	ldreq	r0, [r0, #-0]!
    424c:	01210000 	teqeq	r1, r0
    4250:	d0030550 	andle	r0, r3, r0, asr r5
    4254:	00016126 	andeq	r6, r1, r6, lsr #2
    4258:	611d9822 	tstvs	sp, r2, lsr #16
    425c:	0014d001 	andseq	sp, r4, r1
    4260:	00055a00 	andeq	r5, r5, r0, lsl #20
    4264:	50012100 	andpl	r2, r1, r0, lsl #2
    4268:	2ad40305 	bcs	ff504e84 <__bss_end__+0xfdee2234>
    426c:	01210162 	teqeq	r1, r2, ror #2
    4270:	21400151 	cmpcs	r0, r1, asr r1
    4274:	03055201 	movweq	r5, #20993	; 0x5201
    4278:	01622af4 	strdeq	r2, [r2, #-164]!	; 0xffffff5c
    427c:	01530121 	cmpeq	r3, r1, lsr #2
    4280:	ac220030 	stcge	0, cr0, [r2], #-192	; 0xffffff40
    4284:	9c01611d 	stflss	f6, [r1], {29}
    4288:	71000014 	tstvc	r0, r4, lsl r0
    428c:	21000005 	tstcs	r0, r5
    4290:	03055001 	movweq	r5, #20481	; 0x5001
    4294:	016126c8 	cmneq	r1, r8, asr #13
    4298:	1dc02000 	stclne	0, cr2, [r0]
    429c:	149c0161 	ldrne	r0, [ip], #353	; 0x161
    42a0:	01210000 	teqeq	r1, r0
    42a4:	ec030550 	cfstr32	mvfx0, [r3], {80}	; 0x50
    42a8:	00016126 	andeq	r6, r1, r6, lsr #2
    42ac:	00252400 	eoreq	r2, r5, r0, lsl #8
    42b0:	05950000 	ldreq	r0, [r5]
    42b4:	7f250000 	svcvc	0x00250000
    42b8:	03000000 	movweq	r0, #0
    42bc:	0cab2600 	stceq	6, cr2, [fp]
    42c0:	ec010000 	stc	0, cr0, [r1], {-0}
    42c4:	00002501 	andeq	r2, r0, r1, lsl #10
    42c8:	611dd800 	tstvs	sp, r0, lsl #16
    42cc:	00003001 	andeq	r3, r0, r1
    42d0:	3d9c0100 	ldfccs	f0, [ip]
    42d4:	2a000006 	bcs	42f4 <_back_addr-0x160bd0c>
    42d8:	00000e46 	andeq	r0, r0, r6, asr #28
    42dc:	2501ec01 	strcs	lr, [r1, #-3073]	; 0xc01
    42e0:	bb000000 	bllt	42e8 <_back_addr-0x160bd18>
    42e4:	2b000030 	blcs	43ac <_back_addr-0x160bc54>
    42e8:	00000be2 	andeq	r0, r0, r2, ror #23
    42ec:	2501ee01 	strcs	lr, [r1, #-3585]	; 0xe01
    42f0:	dc000000 	stcle	0, cr0, [r0], {-0}
    42f4:	2b000030 	blcs	43bc <_back_addr-0x160bc44>
    42f8:	00000d48 	andeq	r0, r0, r8, asr #26
    42fc:	2501ee01 	strcs	lr, [r1, #-3585]	; 0xe01
    4300:	0b000000 	bleq	4308 <_back_addr-0x160bcf8>
    4304:	2b000031 	blcs	43d0 <_back_addr-0x160bc30>
    4308:	00000cf0 	strdeq	r0, [r0], -r0	; <UNPREDICTABLE>
    430c:	2501ef01 	strcs	lr, [r1, #-3841]	; 0xf01
    4310:	2d000000 	stccs	0, cr0, [r0, #-0]
    4314:	2b000031 	blcs	43e0 <_back_addr-0x160bc20>
    4318:	00000d42 	andeq	r0, r0, r2, asr #26
    431c:	2501ef01 	strcs	lr, [r1, #-3841]	; 0xf01
    4320:	91000000 	mrsls	r0, (UNDEF: 0)
    4324:	2b000031 	blcs	43f0 <_back_addr-0x160bc10>
    4328:	00000e64 	andeq	r0, r0, r4, ror #28
    432c:	2501ef01 	strcs	lr, [r1, #-3841]	; 0xf01
    4330:	d1000000 	mrsle	r0, (UNDEF: 0)
    4334:	2c000031 	stccs	0, cr0, [r0], {49}	; 0x31
    4338:	00000121 	andeq	r0, r0, r1, lsr #2
    433c:	01611df4 	strdeq	r1, [r1, #-212]!	; 0xffffff2c
    4340:	00000004 	andeq	r0, r0, r4
    4344:	2d01f701 	stccs	7, cr15, [r1, #-4]
    4348:	00000131 	andeq	r0, r0, r1, lsr r1
    434c:	000031e5 	andeq	r3, r0, r5, ror #3
    4350:	611df42e 	tstvs	sp, lr, lsr #8
    4354:	00000401 	andeq	r0, r0, r1, lsl #8
    4358:	01312d00 	teqeq	r1, r0, lsl #26
    435c:	31e50000 	mvncc	r0, r0
    4360:	00000000 	andeq	r0, r0, r0
    4364:	0c2a2600 	stceq	6, cr2, [sl], #-0
    4368:	51010000 	mrspl	r0, (UNDEF: 1)
    436c:	00005901 	andeq	r5, r0, r1, lsl #18
    4370:	611e0800 	tstvs	lr, r0, lsl #16
    4374:	00003c01 	andeq	r3, r0, r1, lsl #24
    4378:	b59c0100 	ldrlt	r0, [ip, #256]	; 0x100
    437c:	28000006 	stmdacs	r0, {r1, r2}
    4380:	00746572 	rsbseq	r6, r4, r2, ror r5
    4384:	25015301 	strcs	r5, [r1, #-769]	; 0x301
    4388:	1c000000 	stcne	0, cr0, [r0], {-0}
    438c:	0f000032 	svceq	0x00000032
    4390:	0000039b 	muleq	r0, fp, r3
    4394:	00598101 	subseq	r8, r9, r1, lsl #2
    4398:	06780000 	ldrbteq	r0, [r8], -r0
    439c:	00100000 	andseq	r0, r0, r0
    43a0:	611e1c22 	tstvs	lr, r2, lsr #24
    43a4:	00149c01 	andseq	r9, r4, r1, lsl #24
    43a8:	00069600 	andeq	r9, r6, r0, lsl #12
    43ac:	50012100 	andpl	r2, r1, r0, lsl #2
    43b0:	27080305 	strcs	r0, [r8, -r5, lsl #6]
    43b4:	01210161 	teqeq	r1, r1, ror #2
    43b8:	0a0a0351 	beq	285104 <_back_addr-0x138aefc>
    43bc:	2422000e 	strtcs	r0, [r2], #-14
    43c0:	9501611e 	strls	r6, [r1, #-286]	; 0x11e
    43c4:	ab000005 	blge	43e0 <_back_addr-0x160bc20>
    43c8:	21000006 	tstcs	r0, r6
    43cc:	0a035001 	beq	d83d8 <_back_addr-0x1537c28>
    43d0:	1f000e0a 	svcne	0x00000e0a
    43d4:	01611e3c 	cmneq	r1, ip, lsr lr
    43d8:	0000149c 	muleq	r0, ip, r4
    43dc:	01602f00 	cmneq	r0, r0, lsl #30
    43e0:	1e440000 	cdpne	0, 4, cr0, cr4, cr0, {0}
    43e4:	00040161 	andeq	r0, r4, r1, ror #2
    43e8:	9c010000 	stcls	0, cr0, [r1], {-0}
    43ec:	000006e4 	andeq	r0, r0, r4, ror #13
    43f0:	0001712d 	andeq	r7, r1, sp, lsr #2
    43f4:	00323b00 	eorseq	r3, r2, r0, lsl #22
    43f8:	017d3000 	cmneq	sp, r0
    43fc:	325c0000 	subscc	r0, ip, #0
    4400:	89300000 	ldmdbhi	r0!, {}	; <UNPREDICTABLE>
    4404:	8b000001 	blhi	4410 <_back_addr-0x160bbf0>
    4408:	00000032 	andeq	r0, r0, r2, lsr r0
    440c:	000ec231 	andeq	ip, lr, r1, lsr r2
    4410:	02160100 	andseq	r0, r6, #0, 2
    4414:	00000059 	andeq	r0, r0, r9, asr r0
    4418:	01611e48 	cmneq	r1, r8, asr #28
    441c:	00000040 	andeq	r0, r0, r0, asr #32
    4420:	07b59c01 	ldreq	r9, [r5, r1, lsl #24]!
    4424:	ed320000 	ldc	0, cr0, [r2, #-0]
    4428:	0100000a 	tsteq	r0, sl
    442c:	00250218 	eoreq	r0, r5, r8, lsl r2
    4430:	a0000000 	andge	r0, r0, r0
    4434:	9b0f0080 	blls	3c463c <_back_addr-0x124b9c4>
    4438:	01000003 	tsteq	r0, r3
    443c:	00005981 	andeq	r5, r0, r1, lsl #19
    4440:	00071f00 	andeq	r1, r7, r0, lsl #30
    4444:	33001000 	movwcc	r1, #0
    4448:	00000dca 	andeq	r0, r0, sl, asr #27
    444c:	000007c5 	andeq	r0, r0, r5, asr #15
    4450:	268c0305 	strcs	r0, [ip], r5, lsl #6
    4454:	21340161 	teqcs	r4, r1, ror #2
    4458:	48000001 	stmdami	r0, {r0}
    445c:	9801611e 	stmdals	r1, {r1, r2, r3, r4, r8, sp, lr}
    4460:	01000005 	tsteq	r0, r5
    4464:	075d021f 	smmlaeq	sp, pc, r2, r0	; <UNPREDICTABLE>
    4468:	31350000 	teqcc	r5, r0
    446c:	80000001 	andhi	r0, r0, r1
    4470:	79c085e8 	stmibvc	r0, {r3, r5, r6, r7, r8, sl, pc}^
    4474:	0005981d 	andeq	r9, r5, sp, lsl r8
    4478:	01313500 	teqeq	r1, r0, lsl #10
    447c:	e8800000 	stm	r0, {}	; <UNPREDICTABLE>
    4480:	0079c085 	rsbseq	ip, r9, r5, lsl #1
    4484:	013d3600 	teqeq	sp, r0, lsl #12
    4488:	1e5c0000 	cdpne	0, 5, cr0, cr12, cr0, {0}
    448c:	000c0161 	andeq	r0, ip, r1, ror #2
    4490:	21010000 	mrscs	r0, (UNDEF: 1)
    4494:	00078502 	andeq	r8, r7, r2, lsl #10
    4498:	01543700 	cmpeq	r4, r0, lsl #14
    449c:	a0000000 	andge	r0, r0, r0
    44a0:	49350080 	ldmdbmi	r5!, {r7}
    44a4:	80000001 	andhi	r0, r0, r1
    44a8:	79c085e8 	stmibvc	r0, {r3, r5, r6, r7, r8, sl, pc}^
    44ac:	1e6c2200 	cdpne	2, 6, cr2, cr12, cr0, {0}
    44b0:	14e20161 	strbtne	r0, [r2], #353	; 0x161
    44b4:	07980000 	ldreq	r0, [r8, r0]
    44b8:	01210000 	teqeq	r1, r0
    44bc:	00350150 	eorseq	r0, r5, r0, asr r1
    44c0:	611e8020 	tstvs	lr, r0, lsr #32
    44c4:	00149c01 	andseq	r9, r4, r1, lsl #24
    44c8:	50012100 	andpl	r2, r1, r0, lsl #2
    44cc:	27480305 	strbcs	r0, [r8, -r5, lsl #6]
    44d0:	01210161 	teqeq	r1, r1, ror #2
    44d4:	8c030551 	cfstr32hi	mvfx0, [r3], {81}	; 0x51
    44d8:	00016126 	andeq	r6, r1, r6, lsr #2
    44dc:	00522400 	subseq	r2, r2, r0, lsl #8
    44e0:	07c50000 	strbeq	r0, [r5, r0]
    44e4:	7f250000 	svcvc	0x00250000
    44e8:	0f000000 	svceq	0x00000000
    44ec:	07b53800 	ldreq	r3, [r5, r0, lsl #16]!
    44f0:	80160000 	andshi	r0, r6, r0
    44f4:	0100000c 	tsteq	r0, ip
    44f8:	000059b6 			; <UNDEFINED> instruction: 0x000059b6
    44fc:	611e8800 	tstvs	lr, r0, lsl #16
    4500:	0000ac01 	andeq	sl, r0, r1, lsl #24
    4504:	179c0100 	ldrne	r0, [ip, r0, lsl #2]
    4508:	17000009 	strne	r0, [r0, -r9]
    450c:	00000cd5 	ldrdeq	r0, [r0], -r5
    4510:	0025b601 	eoreq	fp, r5, r1, lsl #12
    4514:	32b20000 	adcscc	r0, r2, #0
    4518:	97170000 	ldrls	r0, [r7, -r0]
    451c:	0100000d 	tsteq	r0, sp
    4520:	000025b6 			; <UNDEFINED> instruction: 0x000025b6
    4524:	0032de00 	eorseq	sp, r2, r0, lsl #28
    4528:	0ba51700 	bleq	fe94a130 <__bss_end__+0xfd3274e0>
    452c:	b6010000 	strlt	r0, [r1], -r0
    4530:	00000917 	andeq	r0, r0, r7, lsl r9
    4534:	0000330a 	andeq	r3, r0, sl, lsl #6
    4538:	0100691c 	tsteq	r0, ip, lsl r9
    453c:	000025b8 			; <UNDEFINED> instruction: 0x000025b8
    4540:	00333600 	eorseq	r3, r3, r0, lsl #12
    4544:	006a1c00 	rsbeq	r1, sl, r0, lsl #24
    4548:	0025b801 	eoreq	fp, r5, r1, lsl #16
    454c:	336d0000 	cmncc	sp, #0
    4550:	0f390000 	svceq	0x00390000
    4554:	0100000c 	tsteq	r0, ip
    4558:	000025b9 			; <UNDEFINED> instruction: 0x000025b9
    455c:	00339700 	eorseq	r9, r3, r0, lsl #14
    4560:	0d243900 	stceq	9, cr3, [r4, #-0]
    4564:	b9010000 	stmdblt	r1, {}	; <UNPREDICTABLE>
    4568:	00000025 	andeq	r0, r0, r5, lsr #32
    456c:	000033c5 	andeq	r3, r0, r5, asr #7
    4570:	00039b0f 	andeq	r9, r3, pc, lsl #22
    4574:	59810100 	stmibpl	r1, {r8}
    4578:	59000000 	stmdbpl	r0, {}	; <UNPREDICTABLE>
    457c:	10000008 	andne	r0, r0, r8
    4580:	0ec20f00 	cdpeq	15, 12, cr0, cr2, cr0, {0}
    4584:	d8010000 	stmdale	r1, {}	; <UNPREDICTABLE>
    4588:	00000059 	andeq	r0, r0, r9, asr r0
    458c:	0000086a 	andeq	r0, r0, sl, ror #16
    4590:	f03a0010 			; <UNDEFINED> instruction: 0xf03a0010
    4594:	0801611e 	stmdaeq	r1, {r1, r2, r3, r4, r8, sp, lr}
    4598:	85000000 	strhi	r0, [r0, #-0]
    459c:	12000008 	andne	r0, r0, #8
    45a0:	00000cde 	ldrdeq	r0, [r0], -lr
    45a4:	0059cc01 	subseq	ip, r9, r1, lsl #24
    45a8:	00100000 	andseq	r0, r0, r0
    45ac:	1ea42200 	cdpne	2, 10, cr2, cr4, cr0, {0}
    45b0:	149c0161 	ldrne	r0, [ip], #353	; 0x161
    45b4:	089c0000 	ldmeq	ip, {}	; <UNPREDICTABLE>
    45b8:	01210000 	teqeq	r1, r0
    45bc:	54030550 	strpl	r0, [r3], #-1360	; 0x550
    45c0:	00016127 	andeq	r6, r1, r7, lsr #2
    45c4:	611eb822 	tstvs	lr, r2, lsr #16
    45c8:	00149c01 	andseq	r9, r4, r1, lsl #24
    45cc:	0008bf00 	andeq	fp, r8, r0, lsl #30
    45d0:	50012100 	andpl	r2, r1, r0, lsl #2
    45d4:	276c0305 	strbcs	r0, [ip, -r5, lsl #6]!
    45d8:	01210161 	teqeq	r1, r1, ror #2
    45dc:	00740251 	rsbseq	r0, r4, r1, asr r2
    45e0:	02520121 	subseq	r0, r2, #1073741832	; 0x40000008
    45e4:	22000077 	andcs	r0, r0, #119	; 0x77
    45e8:	01611ec0 	cmneq	r1, r0, asr #29
    45ec:	00000595 	muleq	r0, r5, r5
    45f0:	000008d4 	ldrdeq	r0, [r0], -r4
    45f4:	03500121 	cmpeq	r0, #1073741832	; 0x40000008
    45f8:	000fe00a 	andeq	lr, pc, sl
    45fc:	611efc1f 	tstvs	lr, pc, lsl ip
    4600:	00149c01 	andseq	r9, r4, r1, lsl #24
    4604:	1f1c2200 	svcne	0x001c2200
    4608:	149c0161 	ldrne	r0, [ip], #353	; 0x161
    460c:	08fa0000 	ldmeq	sl!, {}^	; <UNPREDICTABLE>
    4610:	01210000 	teqeq	r1, r0
    4614:	a4030550 	strge	r0, [r3], #-1360	; 0x550
    4618:	21016127 	tstcs	r1, r7, lsr #2
    461c:	75025101 	strvc	r5, [r2, #-257]	; 0x101
    4620:	241f0000 	ldrcs	r0, [pc], #-0	; 4628 <_back_addr-0x160b9d8>
    4624:	e401611f 	str	r6, [r1], #-287	; 0x11f
    4628:	3b000006 	blcc	4648 <_back_addr-0x160b9b8>
    462c:	01611f34 	cmneq	r1, r4, lsr pc
    4630:	0000149c 	muleq	r0, ip, r4
    4634:	05500121 	ldrbeq	r0, [r0, #-289]	; 0x121
    4638:	61278c03 	teqvs	r7, r3, lsl #24
    463c:	3c000001 	stccc	0, cr0, [r0], {1}
    4640:	00011604 	andeq	r1, r1, r4, lsl #12
    4644:	0c8e1600 	stceq	6, cr1, [lr], {0}
    4648:	de010000 	cdple	0, 0, cr0, cr1, cr0, {0}
    464c:	00000059 	andeq	r0, r0, r9, asr r0
    4650:	01611f34 	cmneq	r1, r4, lsr pc
    4654:	00000034 	andeq	r0, r0, r4, lsr r0
    4658:	097b9c01 	ldmdbeq	fp!, {r0, sl, fp, ip, pc}^
    465c:	9b0f0000 	blls	3c4664 <_back_addr-0x124b99c>
    4660:	01000003 	tsteq	r0, r3
    4664:	00005981 	andeq	r5, r0, r1, lsl #19
    4668:	00094700 	andeq	r4, r9, r0, lsl #14
    466c:	22001000 	andcs	r1, r0, #0
    4670:	01611f50 	cmneq	r1, r0, asr pc
    4674:	0000149c 	muleq	r0, ip, r4
    4678:	0000095e 	andeq	r0, r0, lr, asr r9
    467c:	05500121 	ldrbeq	r0, [r0, #-289]	; 0x121
    4680:	6127b803 	teqvs	r7, r3, lsl #16
    4684:	60200001 	eorvs	r0, r0, r1
    4688:	ca01611f 	bgt	5cb0c <_back_addr-0x15b34f4>
    468c:	21000007 	tstcs	r0, r7
    4690:	30015001 	andcc	r5, r1, r1
    4694:	03510121 	cmpeq	r1, #1073741832	; 0x40000008
    4698:	2101000a 	tstcs	r1, sl
    469c:	74025201 	strvc	r5, [r2], #-513	; 0x201
    46a0:	16000000 	strne	r0, [r0], -r0
    46a4:	00000cf8 	strdeq	r0, [r0], -r8
    46a8:	0059e701 	subseq	lr, r9, r1, lsl #14
    46ac:	1f680000 	svcne	0x00680000
    46b0:	00640161 	rsbeq	r0, r4, r1, ror #2
    46b4:	9c010000 	stcls	0, cr0, [r1], {-0}
    46b8:	00000a55 	andeq	r0, r0, r5, asr sl
    46bc:	000ccb17 	andeq	ip, ip, r7, lsl fp
    46c0:	25e70100 	strbcs	r0, [r7, #256]!	; 0x100
    46c4:	e4000000 	str	r0, [r0], #-0
    46c8:	17000033 	smladxne	r0, r3, r0, r0
    46cc:	00000c18 	andeq	r0, r0, r8, lsl ip
    46d0:	0025e701 	eoreq	lr, r5, r1, lsl #14
    46d4:	34500000 	ldrbcc	r0, [r0], #-0
    46d8:	a5170000 	ldrge	r0, [r7, #-0]
    46dc:	0100000b 	tsteq	r0, fp
    46e0:	000917e7 	andeq	r1, r9, r7, ror #15
    46e4:	00349d00 	eorseq	r9, r4, r0, lsl #26
    46e8:	1f9c3a00 	svcne	0x009c3a00
    46ec:	00180161 	andseq	r0, r8, r1, ror #2
    46f0:	09fd0000 	ldmibeq	sp!, {}^	; <UNPREDICTABLE>
    46f4:	9b0f0000 	blls	3c46fc <_back_addr-0x124b904>
    46f8:	01000003 	tsteq	r0, r3
    46fc:	00005981 	andeq	r5, r0, r1, lsl #19
    4700:	0009df00 	andeq	sp, r9, r0, lsl #30
    4704:	20001000 	andcs	r1, r0, r0
    4708:	01611fac 	cmneq	r1, ip, lsr #31
    470c:	0000149c 	muleq	r0, ip, r4
    4710:	05500121 	ldrbeq	r0, [r0, #-289]	; 0x121
    4714:	6127f003 	msrvs	CPSR_sxc, r3
    4718:	51012101 	tstpl	r1, r1, lsl #2
    471c:	5001f306 	andpl	pc, r1, r6, lsl #6
    4720:	00220074 	eoreq	r0, r2, r4, ror r0
    4724:	1fb43a00 	svcne	0x00b43a00
    4728:	00180161 	andseq	r0, r8, r1, ror #2
    472c:	0a360000 	beq	d84734 <_back_addr-0x88b8cc>
    4730:	9b0f0000 	blls	3c4738 <_back_addr-0x124b8c8>
    4734:	01000003 	tsteq	r0, r3
    4738:	00005981 	andeq	r5, r0, r1, lsl #19
    473c:	000a1b00 	andeq	r1, sl, r0, lsl #22
    4740:	20001000 	andcs	r1, r0, r0
    4744:	01611fc4 	cmneq	r1, r4, asr #31
    4748:	0000149c 	muleq	r0, ip, r4
    474c:	05500121 	ldrbeq	r0, [r0, #-289]	; 0x121
    4750:	6127c803 	teqvs	r7, r3, lsl #16
    4754:	51012101 	tstpl	r1, r1, lsl #2
    4758:	5001f303 	andpl	pc, r1, r3, lsl #6
    475c:	94200000 	strtls	r0, [r0], #-0
    4760:	ca01611f 	bgt	5cbe4 <_back_addr-0x15b341c>
    4764:	21000007 	tstcs	r0, r7
    4768:	f3035001 	vhadd.u8	d5, d3, d1
    476c:	01215001 	teqeq	r1, r1
    4770:	00740251 	rsbseq	r0, r4, r1, asr r2
    4774:	03520121 	cmpeq	r2, #1073741832	; 0x40000008
    4778:	005201f3 	ldrsheq	r0, [r2], #-19	; 0xffffffed
    477c:	0da22600 	stceq	6, cr2, [r2]
    4780:	9a010000 	bls	44788 <_back_addr-0x15cb878>
    4784:	00005901 	andeq	r5, r0, r1, lsl #18
    4788:	611fcc00 	tstvs	pc, r0, lsl #24
    478c:	00006c01 	andeq	r6, r0, r1, lsl #24
    4790:	e59c0100 	ldr	r0, [ip, #256]	; 0x100
    4794:	2a00000a 	bcs	47c4 <_back_addr-0x160b83c>
    4798:	00000bbe 			; <UNDEFINED> instruction: 0x00000bbe
    479c:	47019a01 	strmi	r9, [r1, -r1, lsl #20]
    47a0:	f0000000 			; <UNDEFINED> instruction: 0xf0000000
    47a4:	22000034 	andcs	r0, r0, #52	; 0x34
    47a8:	01611ff4 	strdeq	r1, [r1, #-244]!	; 0xffffff0c
    47ac:	000007ca 	andeq	r0, r0, sl, asr #15
    47b0:	00000aa2 	andeq	r0, r0, r2, lsr #21
    47b4:	03500121 	cmpeq	r0, #1073741832	; 0x40000008
    47b8:	210a000a 	tstcs	sl, sl
    47bc:	40015101 	andmi	r5, r1, r1, lsl #2
    47c0:	05520121 	ldrbeq	r0, [r2, #-289]	; 0x121
    47c4:	622c2403 	eorvs	r2, ip, #50331648	; 0x3000000
    47c8:	0c220001 	stceq	0, cr0, [r2], #-4
    47cc:	ca016120 	bgt	5cc54 <_back_addr-0x15b33ac>
    47d0:	c5000007 	strgt	r0, [r0, #-7]
    47d4:	2100000a 	tstcs	r0, sl
    47d8:	0a035001 	beq	d87e4 <_back_addr-0x153781c>
    47dc:	01210800 	teqeq	r1, r0, lsl #16
    47e0:	21400151 	cmpcs	r0, r1, asr r1
    47e4:	03055201 	movweq	r5, #20993	; 0x5201
    47e8:	01622c04 	cmneq	r2, r4, lsl #24
    47ec:	20242000 	eorcs	r2, r4, r0
    47f0:	07ca0161 	strbeq	r0, [sl, r1, ror #2]
    47f4:	01210000 	teqeq	r1, r0
    47f8:	000a0350 	andeq	r0, sl, r0, asr r3
    47fc:	51012109 	tstpl	r1, r9, lsl #2
    4800:	01214001 	teqeq	r1, r1
    4804:	14030552 	strne	r0, [r3], #-1362	; 0x552
    4808:	0001622c 	andeq	r6, r1, ip, lsr #4
    480c:	0e4d2600 	cdpeq	6, 4, cr2, cr13, cr0, {0}
    4810:	ac010000 	stcge	0, cr0, [r1], {-0}
    4814:	00005901 	andeq	r5, r0, r1, lsl #18
    4818:	61203800 	teqvs	r0, r0, lsl #16
    481c:	00002001 	andeq	r2, r0, r1
    4820:	1f9c0100 	svcne	0x009c0100
    4824:	2000000b 	andcs	r0, r0, fp
    4828:	0161204c 	cmneq	r1, ip, asr #32
    482c:	000007ca 	andeq	r0, r0, sl, asr #15
    4830:	03500121 	cmpeq	r0, #1073741832	; 0x40000008
    4834:	210d200a 	tstcs	sp, sl
    4838:	40015101 	andmi	r5, r1, r1, lsl #2
    483c:	05520121 	ldrbeq	r0, [r2, #-289]	; 0x121
    4840:	622c3403 	eorvs	r3, ip, #50331648	; 0x3000000
    4844:	26000001 	strcs	r0, [r0], -r1
    4848:	00000c61 	andeq	r0, r0, r1, ror #24
    484c:	59011101 	stmdbpl	r1, {r0, r8, ip}
    4850:	58000000 	stmdapl	r0, {}	; <UNPREDICTABLE>
    4854:	28016120 	stmdacs	r1, {r5, r8, sp, lr}
    4858:	01000000 	mrseq	r0, (UNDEF: 0)
    485c:	000ba99c 	muleq	fp, ip, r9
    4860:	039b0f00 	orrseq	r0, fp, #0, 30
    4864:	81010000 	mrshi	r0, (UNDEF: 1)
    4868:	00000059 	andeq	r0, r0, r9, asr r0
    486c:	00000b4a 	andeq	r0, r0, sl, asr #22
    4870:	de0f0010 	mcrle	0, 0, r0, cr15, cr0, {0}
    4874:	0100000c 	tsteq	r0, ip
    4878:	000059cc 	andeq	r5, r0, ip, asr #19
    487c:	000b5b00 	andeq	r5, fp, r0, lsl #22
    4880:	0f001000 	svceq	0x00001000
    4884:	00000ec2 	andeq	r0, r0, r2, asr #29
    4888:	0059d801 	subseq	sp, r9, r1, lsl #16
    488c:	0b6c0000 	bleq	1b04894 <__bss_end__+0x4e1c44>
    4890:	00100000 	andseq	r0, r0, r0
    4894:	61206c22 	teqvs	r0, r2, lsr #24
    4898:	00149c01 	andseq	r9, r4, r1, lsl #24
    489c:	000b8a00 	andeq	r8, fp, r0, lsl #20
    48a0:	50012100 	andpl	r2, r1, r0, lsl #2
    48a4:	28180305 	ldmdacs	r8, {r0, r2, r8, r9}
    48a8:	01210161 	teqeq	r1, r1, ror #2
    48ac:	a60a0351 			; <UNDEFINED> instruction: 0xa60a0351
    48b0:	7422000d 	strtvc	r0, [r2], #-13
    48b4:	95016120 	strls	r6, [r1, #-288]	; 0x120
    48b8:	9f000005 	svcls	0x00000005
    48bc:	2100000b 	tstcs	r0, fp
    48c0:	0a035001 	beq	d88cc <_back_addr-0x1537734>
    48c4:	1f000fe0 	svcne	0x00000fe0
    48c8:	01612078 	smceq	4616	; 0x1208
    48cc:	000006e4 	andeq	r0, r0, r4, ror #13
    48d0:	0d2c2600 	stceq	6, cr2, [ip, #-0]
    48d4:	1c010000 	stcne	0, cr0, [r1], {-0}
    48d8:	00005901 	andeq	r5, r0, r1, lsl #18
    48dc:	61208000 	teqvs	r0, r0
    48e0:	00002801 	andeq	r2, r0, r1, lsl #16
    48e4:	339c0100 	orrscc	r0, ip, #0, 2
    48e8:	0f00000c 	svceq	0x0000000c
    48ec:	0000039b 	muleq	r0, fp, r3
    48f0:	00598101 	subseq	r8, r9, r1, lsl #2
    48f4:	0bd40000 	bleq	ff5048fc <__bss_end__+0xfdee1cac>
    48f8:	00100000 	andseq	r0, r0, r0
    48fc:	000cde0f 	andeq	sp, ip, pc, lsl #28
    4900:	59cc0100 	stmibpl	ip, {r8}^
    4904:	e5000000 	str	r0, [r0, #-0]
    4908:	1000000b 	andne	r0, r0, fp
    490c:	0ec20f00 	cdpeq	15, 12, cr0, cr2, cr0, {0}
    4910:	d8010000 	stmdale	r1, {}	; <UNPREDICTABLE>
    4914:	00000059 	andeq	r0, r0, r9, asr r0
    4918:	00000bf6 	strdeq	r0, [r0], -r6
    491c:	94220010 	strtls	r0, [r2], #-16
    4920:	9c016120 	stflss	f6, [r1], {32}
    4924:	14000014 	strne	r0, [r0], #-20
    4928:	2100000c 	tstcs	r0, ip
    492c:	03055001 	movweq	r5, #20481	; 0x5001
    4930:	0161283c 	cmneq	r1, ip, lsr r8
    4934:	03510121 	cmpeq	r1, #1073741832	; 0x40000008
    4938:	000dbb0a 	andeq	fp, sp, sl, lsl #22
    493c:	61209c22 	teqvs	r0, r2, lsr #24
    4940:	00059501 	andeq	r9, r5, r1, lsl #10
    4944:	000c2900 	andeq	r2, ip, r0, lsl #18
    4948:	50012100 	andpl	r2, r1, r0, lsl #2
    494c:	0fe00a03 	svceq	0x00e00a03
    4950:	20a01f00 	adccs	r1, r0, r0, lsl #30
    4954:	06e40161 	strbteq	r0, [r4], r1, ror #2
    4958:	26000000 	strcs	r0, [r0], -r0
    495c:	00000d56 	andeq	r0, r0, r6, asr sp
    4960:	59012701 	stmdbpl	r1, {r0, r8, r9, sl, sp}
    4964:	a8000000 	stmdage	r0, {}	; <UNPREDICTABLE>
    4968:	28016120 	stmdacs	r1, {r5, r8, sp, lr}
    496c:	01000000 	mrseq	r0, (UNDEF: 0)
    4970:	000cbd9c 	muleq	ip, ip, sp
    4974:	039b0f00 	orrseq	r0, fp, #0, 30
    4978:	81010000 	mrshi	r0, (UNDEF: 1)
    497c:	00000059 	andeq	r0, r0, r9, asr r0
    4980:	00000c5e 	andeq	r0, r0, lr, asr ip
    4984:	de0f0010 	mcrle	0, 0, r0, cr15, cr0, {0}
    4988:	0100000c 	tsteq	r0, ip
    498c:	000059cc 	andeq	r5, r0, ip, asr #19
    4990:	000c6f00 	andeq	r6, ip, r0, lsl #30
    4994:	0f001000 	svceq	0x00001000
    4998:	00000ec2 	andeq	r0, r0, r2, asr #29
    499c:	0059d801 	subseq	sp, r9, r1, lsl #16
    49a0:	0c800000 	stceq	0, cr0, [r0], {0}
    49a4:	00100000 	andseq	r0, r0, r0
    49a8:	6120bc22 	teqvs	r0, r2, lsr #24
    49ac:	00149c01 	andseq	r9, r4, r1, lsl #24
    49b0:	000c9e00 	andeq	r9, ip, r0, lsl #28
    49b4:	50012100 	andpl	r2, r1, r0, lsl #2
    49b8:	28600305 	stmdacs	r0!, {r0, r2, r8, r9}^
    49bc:	01210161 	teqeq	r1, r1, ror #2
    49c0:	0e0a0351 	mcreq	3, 0, r0, cr10, cr1, {2}
    49c4:	c422000e 	strtgt	r0, [r2], #-14
    49c8:	95016120 	strls	r6, [r1, #-288]	; 0x120
    49cc:	b3000005 	movwlt	r0, #5
    49d0:	2100000c 	tstcs	r0, ip
    49d4:	0a035001 	beq	d89e0 <_back_addr-0x1537620>
    49d8:	1f000fe0 	svcne	0x00000fe0
    49dc:	016120c8 	cmneq	r1, r8, asr #1
    49e0:	000006e4 	andeq	r0, r0, r4, ror #13
    49e4:	0c432600 	mcrreq	6, 0, r2, r3, cr0
    49e8:	32010000 	andcc	r0, r1, #0
    49ec:	00005901 	andeq	r5, r0, r1, lsl #18
    49f0:	6120d000 	teqvs	r0, r0
    49f4:	00002801 	andeq	r2, r0, r1, lsl #16
    49f8:	479c0100 	ldrmi	r0, [ip, r0, lsl #2]
    49fc:	0f00000d 	svceq	0x0000000d
    4a00:	0000039b 	muleq	r0, fp, r3
    4a04:	00598101 	subseq	r8, r9, r1, lsl #2
    4a08:	0ce80000 	stcleq	0, cr0, [r8]
    4a0c:	00100000 	andseq	r0, r0, r0
    4a10:	000cde0f 	andeq	sp, ip, pc, lsl #28
    4a14:	59cc0100 	stmibpl	ip, {r8}^
    4a18:	f9000000 			; <UNDEFINED> instruction: 0xf9000000
    4a1c:	1000000c 	andne	r0, r0, ip
    4a20:	0ec20f00 	cdpeq	15, 12, cr0, cr2, cr0, {0}
    4a24:	d8010000 	stmdale	r1, {}	; <UNPREDICTABLE>
    4a28:	00000059 	andeq	r0, r0, r9, asr r0
    4a2c:	00000d0a 	andeq	r0, r0, sl, lsl #26
    4a30:	e4220010 	strt	r0, [r2], #-16
    4a34:	9c016120 	stflss	f6, [r1], {32}
    4a38:	28000014 	stmdacs	r0, {r2, r4}
    4a3c:	2100000d 	tstcs	r0, sp
    4a40:	03055001 	movweq	r5, #20481	; 0x5001
    4a44:	01612884 	cmneq	r1, r4, lsl #17
    4a48:	03510121 	cmpeq	r1, #1073741832	; 0x40000008
    4a4c:	000e0f0a 	andeq	r0, lr, sl, lsl #30
    4a50:	6120ec22 	teqvs	r0, r2, lsr #24
    4a54:	00059501 	andeq	r9, r5, r1, lsl #10
    4a58:	000d3d00 	andeq	r3, sp, r0, lsl #26
    4a5c:	50012100 	andpl	r2, r1, r0, lsl #2
    4a60:	0fe00a03 	svceq	0x00e00a03
    4a64:	20f01f00 	rscscs	r1, r0, r0, lsl #30
    4a68:	06e40161 	strbteq	r0, [r4], r1, ror #2
    4a6c:	26000000 	strcs	r0, [r0], -r0
    4a70:	00000e2f 	andeq	r0, r0, pc, lsr #28
    4a74:	59013d01 	stmdbpl	r1, {r0, r8, sl, fp, ip, sp}
    4a78:	f8000000 			; <UNDEFINED> instruction: 0xf8000000
    4a7c:	28016120 	stmdacs	r1, {r5, r8, sp, lr}
    4a80:	01000000 	mrseq	r0, (UNDEF: 0)
    4a84:	000dd19c 	muleq	sp, ip, r1
    4a88:	039b0f00 	orrseq	r0, fp, #0, 30
    4a8c:	81010000 	mrshi	r0, (UNDEF: 1)
    4a90:	00000059 	andeq	r0, r0, r9, asr r0
    4a94:	00000d72 	andeq	r0, r0, r2, ror sp
    4a98:	de0f0010 	mcrle	0, 0, r0, cr15, cr0, {0}
    4a9c:	0100000c 	tsteq	r0, ip
    4aa0:	000059cc 	andeq	r5, r0, ip, asr #19
    4aa4:	000d8300 	andeq	r8, sp, r0, lsl #6
    4aa8:	0f001000 	svceq	0x00001000
    4aac:	00000ec2 	andeq	r0, r0, r2, asr #29
    4ab0:	0059d801 	subseq	sp, r9, r1, lsl #16
    4ab4:	0d940000 	ldceq	0, cr0, [r4]
    4ab8:	00100000 	andseq	r0, r0, r0
    4abc:	61210c22 	teqvs	r1, r2, lsr #24
    4ac0:	00149c01 	andseq	r9, r4, r1, lsl #24
    4ac4:	000db200 	andeq	fp, sp, r0, lsl #4
    4ac8:	50012100 	andpl	r2, r1, r0, lsl #2
    4acc:	28ac0305 	stmiacs	ip!, {r0, r2, r8, r9}
    4ad0:	01210161 	teqeq	r1, r1, ror #2
    4ad4:	c20a0351 	andgt	r0, sl, #1140850689	; 0x44000001
    4ad8:	1422000d 	strtne	r0, [r2], #-13
    4adc:	95016121 	strls	r6, [r1, #-289]	; 0x121
    4ae0:	c7000005 	strgt	r0, [r0, -r5]
    4ae4:	2100000d 	tstcs	r0, sp
    4ae8:	0a035001 	beq	d8af4 <_back_addr-0x153750c>
    4aec:	1f000fe0 	svcne	0x00000fe0
    4af0:	01612118 	cmneq	r1, r8, lsl r1
    4af4:	000006e4 	andeq	r0, r0, r4, ror #13
    4af8:	0d6c2600 	stcleq	6, cr2, [ip, #-0]
    4afc:	47010000 	strmi	r0, [r1, -r0]
    4b00:	00005901 	andeq	r5, r0, r1, lsl #18
    4b04:	61212000 	teqvs	r1, r0
    4b08:	00002801 	andeq	r2, r0, r1, lsl #16
    4b0c:	5b9c0100 	blpl	fe704f14 <__bss_end__+0xfd0e22c4>
    4b10:	0f00000e 	svceq	0x0000000e
    4b14:	0000039b 	muleq	r0, fp, r3
    4b18:	00598101 	subseq	r8, r9, r1, lsl #2
    4b1c:	0dfc0000 	ldcleq	0, cr0, [ip]
    4b20:	00100000 	andseq	r0, r0, r0
    4b24:	000cde0f 	andeq	sp, ip, pc, lsl #28
    4b28:	59cc0100 	stmibpl	ip, {r8}^
    4b2c:	0d000000 	stceq	0, cr0, [r0, #-0]
    4b30:	1000000e 	andne	r0, r0, lr
    4b34:	0ec20f00 	cdpeq	15, 12, cr0, cr2, cr0, {0}
    4b38:	d8010000 	stmdale	r1, {}	; <UNPREDICTABLE>
    4b3c:	00000059 	andeq	r0, r0, r9, asr r0
    4b40:	00000e1e 	andeq	r0, r0, lr, lsl lr
    4b44:	34220010 	strtcc	r0, [r2], #-16
    4b48:	9c016121 	stflss	f6, [r1], {33}	; 0x21
    4b4c:	3c000014 	stccc	0, cr0, [r0], {20}
    4b50:	2100000e 	tstcs	r0, lr
    4b54:	03055001 	movweq	r5, #20481	; 0x5001
    4b58:	016128d0 	ldrdeq	r2, [r1, #-128]!	; 0xffffff80
    4b5c:	03510121 	cmpeq	r1, #1073741832	; 0x40000008
    4b60:	000e0a0a 	andeq	r0, lr, sl, lsl #20
    4b64:	61213c22 	teqvs	r1, r2, lsr #24
    4b68:	00059501 	andeq	r9, r5, r1, lsl #10
    4b6c:	000e5100 	andeq	r5, lr, r0, lsl #2
    4b70:	50012100 	andpl	r2, r1, r0, lsl #2
    4b74:	0fe00a03 	svceq	0x00e00a03
    4b78:	21401f00 	cmpcs	r0, r0, lsl #30
    4b7c:	06e40161 	strbteq	r0, [r4], r1, ror #2
    4b80:	2f000000 	svccs	0x00000000
    4b84:	00000196 	muleq	r0, r6, r1
    4b88:	01612148 	cmneq	r1, r8, asr #2
    4b8c:	0000007c 	andeq	r0, r0, ip, ror r0
    4b90:	0f349c01 	svceq	0x00349c01
    4b94:	a72d0000 	strge	r0, [sp, -r0]!
    4b98:	43000001 	movwmi	r0, #1
    4b9c:	3d000035 	stccc	0, cr0, [r0, #-212]	; 0xffffff2c
    4ba0:	000001b3 			; <UNDEFINED> instruction: 0x000001b3
    4ba4:	000e8400 	andeq	r8, lr, r0, lsl #8
    4ba8:	00101000 	andseq	r1, r0, r0
    4bac:	0005b01e 	andeq	fp, r5, lr, lsl r0
    4bb0:	000f0b00 	andeq	r0, pc, r0, lsl #22
    4bb4:	01a72d00 			; <UNDEFINED> instruction: 0x01a72d00
    4bb8:	357d0000 	ldrbcc	r0, [sp, #-0]!
    4bbc:	b01d0000 	andslt	r0, sp, r0
    4bc0:	3a000005 	bcc	4bdc <_back_addr-0x160b424>
    4bc4:	01612194 			; <UNDEFINED> instruction: 0x01612194
    4bc8:	00000014 	andeq	r0, r0, r4, lsl r0
    4bcc:	00000ec3 	andeq	r0, r0, r3, asr #29
    4bd0:	6121a420 	teqvs	r1, r0, lsr #8
    4bd4:	00149c01 	andseq	r9, r4, r1, lsl #24
    4bd8:	50012100 	andpl	r2, r1, r0, lsl #2
    4bdc:	293c0305 	ldmdbcs	ip!, {r0, r2, r8, r9}
    4be0:	01210161 	teqeq	r1, r1, ror #2
    4be4:	a10a0351 	tstge	sl, r1, asr r3
    4be8:	3a00000d 	bcc	4c24 <_back_addr-0x160b3dc>
    4bec:	016121a8 	cmneq	r1, r8, lsr #3
    4bf0:	00000010 	andeq	r0, r0, r0, lsl r0
    4bf4:	00000eeb 	andeq	r0, r0, fp, ror #29
    4bf8:	6121b820 	teqvs	r1, r0, lsr #16
    4bfc:	00149c01 	andseq	r9, r4, r1, lsl #24
    4c00:	50012100 	andpl	r2, r1, r0, lsl #2
    4c04:	29180305 	ldmdbcs	r8, {r0, r2, r8, r9}
    4c08:	01210161 	teqeq	r1, r1, ror #2
    4c0c:	a00a0351 	andge	r0, sl, r1, asr r3
    4c10:	2200000d 	andcs	r0, r0, #13
    4c14:	01612164 	cmneq	r1, r4, ror #2
    4c18:	00000595 	muleq	r0, r5, r5
    4c1c:	00000f00 	andeq	r0, r0, r0, lsl #30
    4c20:	03500121 	cmpeq	r0, #1073741832	; 0x40000008
    4c24:	000fe00a 	andeq	lr, pc, sl
    4c28:	6121781f 	teqvs	r1, pc, lsl r8
    4c2c:	0006e401 	andeq	lr, r6, r1, lsl #8
    4c30:	2e000000 	cdpcs	0, 0, cr0, cr0, cr0, {0}
    4c34:	01612180 	cmneq	r1, r0, lsl #3
    4c38:	00000014 	andeq	r0, r0, r4, lsl r0
    4c3c:	0001c93e 	andeq	ip, r1, lr, lsr r9
    4c40:	000f1f00 	andeq	r1, pc, r0, lsl #30
    4c44:	20001000 	andcs	r1, r0, r0
    4c48:	0161218c 	cmneq	r1, ip, lsl #3
    4c4c:	0000149c 	muleq	r0, ip, r4
    4c50:	05500121 	ldrbeq	r0, [r0, #-289]	; 0x121
    4c54:	61290003 	teqvs	r9, r3
    4c58:	00000001 	andeq	r0, r0, r1
    4c5c:	0002242f 	andeq	r2, r2, pc, lsr #8
    4c60:	6121c400 	teqvs	r1, r0, lsl #8
    4c64:	00007c01 	andeq	r7, r0, r1, lsl #24
    4c68:	0d9c0100 	ldfeqs	f0, [ip]
    4c6c:	2d000010 	stccs	0, cr0, [r0, #-64]	; 0xffffffc0
    4c70:	00000235 	andeq	r0, r0, r5, lsr r2
    4c74:	0000359b 	muleq	r0, fp, r5
    4c78:	0002413d 	andeq	r4, r2, sp, lsr r1
    4c7c:	0f5d0000 	svceq	0x005d0000
    4c80:	10100000 	andsne	r0, r0, r0
    4c84:	05c81e00 	strbeq	r1, [r8, #3584]	; 0xe00
    4c88:	0fe40000 	svceq	0x00e40000
    4c8c:	352d0000 	strcc	r0, [sp, #-0]!
    4c90:	d5000002 	strle	r0, [r0, #-2]
    4c94:	1d000035 	stcne	0, cr0, [r0, #-212]	; 0xffffff2c
    4c98:	000005c8 	andeq	r0, r0, r8, asr #11
    4c9c:	6122103a 	teqvs	r2, sl, lsr r0
    4ca0:	00001401 	andeq	r1, r0, r1, lsl #8
    4ca4:	000f9c00 	andeq	r9, pc, r0, lsl #24
    4ca8:	22202000 	eorcs	r2, r0, #0
    4cac:	149c0161 	ldrne	r0, [ip], #353	; 0x161
    4cb0:	01210000 	teqeq	r1, r0
    4cb4:	94030550 	strls	r0, [r3], #-1360	; 0x550
    4cb8:	21016129 	tstcs	r1, r9, lsr #2
    4cbc:	0a035101 	beq	d90c8 <_back_addr-0x1536f38>
    4cc0:	00000e0c 	andeq	r0, r0, ip, lsl #28
    4cc4:	6122243a 	teqvs	r2, sl, lsr r4
    4cc8:	00001001 	andeq	r1, r0, r1
    4ccc:	000fc400 	andeq	ip, pc, r0, lsl #8
    4cd0:	22342000 	eorscs	r2, r4, #0
    4cd4:	149c0161 	ldrne	r0, [ip], #353	; 0x161
    4cd8:	01210000 	teqeq	r1, r0
    4cdc:	74030550 	strvc	r0, [r3], #-1360	; 0x550
    4ce0:	21016129 	tstcs	r1, r9, lsr #2
    4ce4:	0a035101 	beq	d90f0 <_back_addr-0x1536f10>
    4ce8:	00000e0b 	andeq	r0, r0, fp, lsl #28
    4cec:	6121e022 	teqvs	r1, r2, lsr #32
    4cf0:	00059501 	andeq	r9, r5, r1, lsl #10
    4cf4:	000fd900 	andeq	sp, pc, r0, lsl #18
    4cf8:	50012100 	andpl	r2, r1, r0, lsl #2
    4cfc:	0fe00a03 	svceq	0x00e00a03
    4d00:	21f41f00 	mvnscs	r1, r0, lsl #30
    4d04:	06e40161 	strbteq	r0, [r4], r1, ror #2
    4d08:	00000000 	andeq	r0, r0, r0
    4d0c:	6121fc2e 	msrvs	CPSR_c, lr, lsr #24
    4d10:	00001401 	andeq	r1, r0, r1, lsl #8
    4d14:	02573e00 	subseq	r3, r7, #0, 28
    4d18:	0ff80000 	svceq	0x00f80000
    4d1c:	00100000 	andseq	r0, r0, r0
    4d20:	61220820 	teqvs	r2, r0, lsr #16
    4d24:	00149c01 	andseq	r9, r4, r1, lsl #24
    4d28:	50012100 	andpl	r2, r1, r0, lsl #2
    4d2c:	29600305 	stmdbcs	r0!, {r0, r2, r8, r9}^
    4d30:	00000161 	andeq	r0, r0, r1, ror #2
    4d34:	0d122600 	ldceq	6, cr2, [r2, #-0]
    4d38:	b2010000 	andlt	r0, r1, #0
    4d3c:	00005901 	andeq	r5, r0, r1, lsl #18
    4d40:	61224000 	teqvs	r2, r0
    4d44:	00009c01 	andeq	r9, r0, r1, lsl #24
    4d48:	4a9c0100 	bmi	fe705150 <__bss_end__+0xfd0e2500>
    4d4c:	22000011 	andcs	r0, r0, #17
    4d50:	0161225c 	cmneq	r1, ip, asr r2
    4d54:	000007ca 	andeq	r0, r0, sl, asr #15
    4d58:	00001047 	andeq	r1, r0, r7, asr #32
    4d5c:	01500121 	cmpeq	r0, r1, lsr #2
    4d60:	51012130 	tstpl	r1, r0, lsr r1
    4d64:	01000a03 	tsteq	r0, r3, lsl #20
    4d68:	02520121 	subseq	r0, r2, #1073741832	; 0x40000008
    4d6c:	22003074 	andcs	r3, r0, #116	; 0x74
    4d70:	0161226c 	cmneq	r1, ip, ror #4
    4d74:	000007ca 	andeq	r0, r0, sl, asr #15
    4d78:	00001068 	andeq	r1, r0, r8, rrx
    4d7c:	03500121 	cmpeq	r0, #1073741832	; 0x40000008
    4d80:	2108000a 	tstcs	r8, sl
    4d84:	40015101 	andmi	r5, r1, r1, lsl #2
    4d88:	03520121 	cmpeq	r2, #1073741832	; 0x40000008
    4d8c:	0002b074 	andeq	fp, r2, r4, ror r0
    4d90:	61227c22 	teqvs	r2, r2, lsr #24
    4d94:	0007ca01 	andeq	ip, r7, r1, lsl #20
    4d98:	00108900 	andseq	r8, r0, r0, lsl #18
    4d9c:	50012100 	andpl	r2, r1, r0, lsl #2
    4da0:	09000a03 	stmdbeq	r0, {r0, r1, r9, fp}
    4da4:	01510121 	cmpeq	r1, r1, lsr #2
    4da8:	52012140 	andpl	r2, r1, #64, 2
    4dac:	02c07403 	sbceq	r7, r0, #50331648	; 0x3000000
    4db0:	228c2200 	addcs	r2, ip, #0, 4
    4db4:	07ca0161 	strbeq	r0, [sl, r1, ror #2]
    4db8:	10aa0000 	adcne	r0, sl, r0
    4dbc:	01210000 	teqeq	r1, r0
    4dc0:	000a0350 	andeq	r0, sl, r0, asr r3
    4dc4:	5101210a 	tstpl	r1, sl, lsl #2
    4dc8:	01214001 	teqeq	r1, r1
    4dcc:	d0740352 	rsbsle	r0, r4, r2, asr r3
    4dd0:	9c220002 	stcls	0, cr0, [r2], #-8
    4dd4:	ca016122 	bgt	5d264 <_back_addr-0x15b2d9c>
    4dd8:	cb000007 	blgt	4dfc <_back_addr-0x160b204>
    4ddc:	21000010 	tstcs	r0, r0, lsl r0
    4de0:	0a035001 	beq	d8dec <_back_addr-0x1537214>
    4de4:	01210d20 	teqeq	r1, r0, lsr #26
    4de8:	21400151 	cmpcs	r0, r1, asr r1
    4dec:	74035201 	strvc	r5, [r3], #-513	; 0x201
    4df0:	1f0002e0 	svcne	0x000002e0
    4df4:	016122a0 	cmneq	r1, r0, lsr #5
    4df8:	00000b1f 	andeq	r0, r0, pc, lsl fp
    4dfc:	6122a41f 	teqvs	r2, pc, lsl r4
    4e00:	000ba901 	andeq	sl, fp, r1, lsl #18
    4e04:	22a81f00 	adccs	r1, r8, #0, 30
    4e08:	0c330161 	ldfeqs	f0, [r3], #-388	; 0xfffffe7c
    4e0c:	ac1f0000 	ldcge	0, cr0, [pc], {-0}
    4e10:	bd016122 	stflts	f6, [r1, #-136]	; 0xffffff78
    4e14:	1f00000c 	svcne	0x0000000c
    4e18:	016122b0 	strheq	r2, [r1, #-32]!	; 0xffffffe0
    4e1c:	00000d47 	andeq	r0, r0, r7, asr #26
    4e20:	6122b41f 	teqvs	r2, pc, lsl r4
    4e24:	000dd101 	andeq	sp, sp, r1, lsl #2
    4e28:	22bc2200 	adcscs	r2, ip, #0, 4
    4e2c:	01960161 	orrseq	r0, r6, r1, ror #2
    4e30:	11140000 	tstne	r4, r0
    4e34:	01210000 	teqeq	r1, r0
    4e38:	00310150 	eorseq	r0, r1, r0, asr r1
    4e3c:	6122c422 	teqvs	r2, r2, lsr #8
    4e40:	00019601 	andeq	r9, r1, r1, lsl #12
    4e44:	00112700 	andseq	r2, r1, r0, lsl #14
    4e48:	50012100 	andpl	r2, r1, r0, lsl #2
    4e4c:	22003201 	andcs	r3, r0, #268435456	; 0x10000000
    4e50:	016122cc 	cmneq	r1, ip, asr #5
    4e54:	00000224 	andeq	r0, r0, r4, lsr #4
    4e58:	0000113a 	andeq	r1, r0, sl, lsr r1
    4e5c:	01500121 	cmpeq	r0, r1, lsr #2
    4e60:	d4200031 	strtle	r0, [r0], #-49	; 0x31
    4e64:	24016122 	strcs	r6, [r1], #-290	; 0x122
    4e68:	21000002 	tstcs	r0, r2
    4e6c:	32015001 	andcc	r5, r1, #1
    4e70:	41260000 	teqmi	r6, r0
    4e74:	01000007 	tsteq	r0, r7
    4e78:	0025022c 	eoreq	r0, r5, ip, lsr #4
    4e7c:	22dc0000 	sbcscs	r0, ip, #0
    4e80:	00800161 	addeq	r0, r0, r1, ror #2
    4e84:	9c010000 	stcls	0, cr0, [r1], {-0}
    4e88:	000011e9 	andeq	r1, r0, r9, ror #3
    4e8c:	000e462a 	andeq	r4, lr, sl, lsr #12
    4e90:	022c0100 	eoreq	r0, ip, #0, 2
    4e94:	00000025 	andeq	r0, r0, r5, lsr #32
    4e98:	000035f3 	strdeq	r3, [r0], -r3	; <UNPREDICTABLE>
    4e9c:	7274703f 	rsbsvc	r7, r4, #63	; 0x3f
    4ea0:	022c0100 	eoreq	r0, ip, #0, 2
    4ea4:	000011e9 	andeq	r1, r0, r9, ror #3
    4ea8:	00003614 	andeq	r3, r0, r4, lsl r6
    4eac:	746e633f 	strbtvc	r6, [lr], #-831	; 0x33f
    4eb0:	022c0100 	eoreq	r0, ip, #0, 2
    4eb4:	00000025 	andeq	r0, r0, r5, lsr #32
    4eb8:	00003640 	andeq	r3, r0, r0, asr #12
    4ebc:	74657240 	strbtvc	r7, [r5], #-576	; 0x240
    4ec0:	022e0100 	eoreq	r0, lr, #0, 2
    4ec4:	00000025 	andeq	r0, r0, r5, lsr #32
    4ec8:	00692800 	rsbeq	r2, r9, r0, lsl #16
    4ecc:	25022f01 	strcs	r2, [r2, #-3841]	; 0xf01
    4ed0:	6c000000 	stcvs	0, cr0, [r0], {-0}
    4ed4:	2b000036 	blcs	4fb4 <_back_addr-0x160b04c>
    4ed8:	00000dbf 			; <UNDEFINED> instruction: 0x00000dbf
    4edc:	25023001 	strcs	r3, [r2, #-1]
    4ee0:	8c000000 	stchi	0, cr0, [r0], {-0}
    4ee4:	41000036 	tstmi	r0, r6, lsr r0
    4ee8:	00000121 	andeq	r0, r0, r1, lsr #2
    4eec:	016122ec 	cmneq	r1, ip, ror #5
    4ef0:	000005e0 	andeq	r0, r0, r0, ror #11
    4ef4:	2d023401 	cfstrscs	mvf3, [r2, #-4]
    4ef8:	00000131 	andeq	r0, r0, r1, lsr r1
    4efc:	00003706 	andeq	r3, r0, r6, lsl #14
    4f00:	0006001d 	andeq	r0, r6, sp, lsl r0
    4f04:	01312d00 	teqeq	r1, r0, lsl #26
    4f08:	374c0000 	strbcc	r0, [ip, -r0]
    4f0c:	00000000 	andeq	r0, r0, r0
    4f10:	25043c00 	strcs	r3, [r4, #-3072]	; 0xc00
    4f14:	26000000 	strcs	r0, [r0], -r0
    4f18:	00000e7e 	andeq	r0, r0, lr, ror lr
    4f1c:	59023901 	stmdbpl	r2, {r0, r8, fp, ip, sp}
    4f20:	5c000000 	stcpl	0, cr0, [r0], {-0}
    4f24:	54016123 	strpl	r6, [r1], #-291	; 0x123
    4f28:	01000000 	mrseq	r0, (UNDEF: 0)
    4f2c:	0012d29c 	mulseq	r2, ip, r2
    4f30:	0e462a00 	vmlaeq.f32	s5, s12, s0
    4f34:	39010000 	stmdbcc	r1, {}	; <UNPREDICTABLE>
    4f38:	00005902 	andeq	r5, r0, r2, lsl #18
    4f3c:	00377000 	eorseq	r7, r7, r0
    4f40:	74703f00 	ldrbtvc	r3, [r0], #-3840	; 0xf00
    4f44:	39010072 	stmdbcc	r1, {r1, r4, r5, r6}
    4f48:	0012d202 	andseq	sp, r2, r2, lsl #4
    4f4c:	00379100 	eorseq	r9, r7, r0, lsl #2
    4f50:	6e634200 	cdpvs	2, 6, cr4, cr3, cr0, {0}
    4f54:	39010074 	stmdbcc	r1, {r2, r4, r5, r6}
    4f58:	00002502 	andeq	r2, r0, r2, lsl #10
    4f5c:	43520100 	cmpmi	r2, #0, 2
    4f60:	00746572 	rsbseq	r6, r4, r2, ror r5
    4f64:	25023b01 	strcs	r3, [r2, #-2817]	; 0xb01
    4f68:	7f000000 	svcvc	0x00000000
    4f6c:	01006928 	tsteq	r0, r8, lsr #18
    4f70:	0025023c 	eoreq	r0, r5, ip, lsr r2
    4f74:	37bd0000 	ldrcc	r0, [sp, r0]!
    4f78:	e22b0000 	eor	r0, fp, #0
    4f7c:	0100000b 	tsteq	r0, fp
    4f80:	0025023d 	eoreq	r0, r5, sp, lsr r2
    4f84:	37ee0000 	strbcc	r0, [lr, r0]!
    4f88:	48440000 	stmdami	r4, {}^	; <UNPREDICTABLE>
    4f8c:	0100000d 	tsteq	r0, sp
    4f90:	0025023d 	eoreq	r0, r5, sp, lsr r2
    4f94:	2b000000 	blcs	4f9c <_back_addr-0x160b064>
    4f98:	00000cf0 	strdeq	r0, [r0], -r0	; <UNPREDICTABLE>
    4f9c:	25023e01 	strcs	r3, [r2, #-3585]	; 0xe01
    4fa0:	ee000000 	cdp	0, 0, cr0, cr0, cr0, {0}
    4fa4:	2b000037 	blcs	5088 <_back_addr-0x160af78>
    4fa8:	00000d42 	andeq	r0, r0, r2, asr #26
    4fac:	25023e01 	strcs	r3, [r2, #-3585]	; 0xe01
    4fb0:	ee000000 	cdp	0, 0, cr0, cr0, cr0, {0}
    4fb4:	44000037 	strmi	r0, [r0], #-55	; 0x37
    4fb8:	00000e64 	andeq	r0, r0, r4, ror #28
    4fbc:	25023e01 	strcs	r3, [r2, #-3585]	; 0xe01
    4fc0:	00000000 	andeq	r0, r0, r0
    4fc4:	000e6b2b 	andeq	r6, lr, fp, lsr #22
    4fc8:	023f0100 	eorseq	r0, pc, #0, 2
    4fcc:	00000025 	andeq	r0, r0, r5, lsr #32
    4fd0:	0000380e 	andeq	r3, r0, lr, lsl #16
    4fd4:	0001212c 	andeq	r2, r1, ip, lsr #2
    4fd8:	61238c00 	teqvs	r3, r0, lsl #24
    4fdc:	00000401 	andeq	r0, r0, r1, lsl #8
    4fe0:	02470100 	subeq	r0, r7, #0, 2
    4fe4:	00013145 	andeq	r3, r1, r5, asr #2
    4fe8:	238c2e00 	orrcs	r2, ip, #0, 28
    4fec:	00040161 	andeq	r0, r4, r1, ror #2
    4ff0:	31450000 	mrscc	r0, (UNDEF: 69)
    4ff4:	00000001 	andeq	r0, r0, r1
    4ff8:	043c0000 	ldrteq	r0, [ip], #-0
    4ffc:	000000b4 	strheq	r0, [r0], -r4
    5000:	000d0516 	andeq	r0, sp, r6, lsl r5
    5004:	59fc0100 	ldmibpl	ip!, {r8}^
    5008:	b0000000 	andlt	r0, r0, r0
    500c:	6c016123 	stfvss	f6, [r1], {35}	; 0x23
    5010:	01000000 	mrseq	r0, (UNDEF: 0)
    5014:	0013c69c 	mulseq	r3, ip, r6
    5018:	0ccb1700 	stcleq	7, cr1, [fp], {0}
    501c:	fc010000 	stc2	0, cr0, [r1], {-0}
    5020:	00000025 	andeq	r0, r0, r5, lsr #32
    5024:	0000385a 	andeq	r3, r0, sl, asr r8
    5028:	000c1817 	andeq	r1, ip, r7, lsl r8
    502c:	25fc0100 	ldrbcs	r0, [ip, #256]!	; 0x100
    5030:	c6000000 	strgt	r0, [r0], -r0
    5034:	17000038 	smladxne	r0, r8, r0, r0
    5038:	00000ba5 	andeq	r0, r0, r5, lsr #23
    503c:	0917fc01 	ldmdbeq	r7, {r0, sl, fp, ip, sp, lr, pc}
    5040:	39240000 	stmdbcc	r4!, {}	; <UNPREDICTABLE>
    5044:	7e290000 	cdpvc	0, 2, cr0, cr9, cr0, {0}
    5048:	0100000e 	tsteq	r0, lr
    504c:	0059010d 	subseq	r0, r9, sp, lsl #2
    5050:	13300000 	teqne	r0, #0
    5054:	00100000 	andseq	r0, r0, r0
    5058:	6123ec3a 	teqvs	r3, sl, lsr ip
    505c:	00001801 	andeq	r1, r0, r1, lsl #16
    5060:	00136d00 	andseq	r6, r3, r0, lsl #26
    5064:	039b0f00 	orrseq	r0, fp, #0, 30
    5068:	81010000 	mrshi	r0, (UNDEF: 1)
    506c:	00000059 	andeq	r0, r0, r9, asr r0
    5070:	0000134e 	andeq	r1, r0, lr, asr #6
    5074:	fc200010 	stc2	0, cr0, [r0], #-64	; 0xffffffc0
    5078:	9c016123 	stflss	f6, [r1], {35}	; 0x23
    507c:	21000014 	tstcs	r0, r4, lsl r0
    5080:	03055001 	movweq	r5, #20481	; 0x5001
    5084:	016127f0 	strdeq	r2, [r1, #-112]!	; 0xffffff90
    5088:	07510121 	ldrbeq	r0, [r1, -r1, lsr #2]
    508c:	f35001f3 	vbsl	q8, q8, <illegal reg q9.5>
    5090:	00225101 	eoreq	r5, r2, r1, lsl #2
    5094:	24043a00 	strcs	r3, [r4], #-2560	; 0xa00
    5098:	00180161 	andseq	r0, r8, r1, ror #2
    509c:	13a60000 			; <UNDEFINED> instruction: 0x13a60000
    50a0:	9b0f0000 	blls	3c50a8 <_back_addr-0x124af58>
    50a4:	01000003 	tsteq	r0, r3
    50a8:	00005981 	andeq	r5, r0, r1, lsl #19
    50ac:	00138b00 	andseq	r8, r3, r0, lsl #22
    50b0:	20001000 	andcs	r1, r0, r0
    50b4:	01612414 	cmneq	r1, r4, lsl r4
    50b8:	0000149c 	muleq	r0, ip, r4
    50bc:	05500121 	ldrbeq	r0, [r0, #-289]	; 0x121
    50c0:	6127c803 	teqvs	r7, r3, lsl #16
    50c4:	51012101 	tstpl	r1, r1, lsl #2
    50c8:	5001f303 	andpl	pc, r1, r3, lsl #6
    50cc:	e4200000 	strt	r0, [r0], #-0
    50d0:	ef016123 	svc	0x00016123
    50d4:	21000011 	tstcs	r0, r1, lsl r0
    50d8:	f3035001 	vhadd.u8	d5, d3, d1
    50dc:	01215001 	teqeq	r1, r1
    50e0:	01f30351 	mvnseq	r0, r1, asr r3
    50e4:	52012152 	andpl	r2, r1, #-2147483628	; 0x80000014
    50e8:	5101f303 	tstpl	r1, r3, lsl #6
    50ec:	25240000 	strcs	r0, [r4, #-0]!
    50f0:	d6000000 	strle	r0, [r0], -r0
    50f4:	25000013 	strcs	r0, [r0, #-19]
    50f8:	0000007f 	andeq	r0, r0, pc, ror r0
    50fc:	fe46003f 	mcr2	0, 2, r0, cr6, cr15, {1}
    5100:	01000002 	tsteq	r0, r2
    5104:	0013c63b 	andseq	ip, r3, fp, lsr r6
    5108:	04030500 	streq	r0, [r3], #-1280	; 0x500
    510c:	4601622b 	strmi	r6, [r1], -fp, lsr #4
    5110:	00000ea4 	andeq	r0, r0, r4, lsr #29
    5114:	05854f01 	streq	r4, [r5, #3841]	; 0xf01
    5118:	03050000 	movweq	r0, #20480	; 0x5000
    511c:	01622c24 	cmneq	r2, r4, lsr #24
    5120:	000e8b46 	andeq	r8, lr, r6, asr #22
    5124:	85540100 	ldrbhi	r0, [r4, #-256]	; 0x100
    5128:	05000005 	streq	r0, [r0, #-5]
    512c:	622c1403 	eorvs	r1, ip, #50331648	; 0x3000000
    5130:	0eb74601 	cdpeq	6, 11, cr4, cr7, cr1, {0}
    5134:	59010000 	stmdbpl	r1, {}	; <UNPREDICTABLE>
    5138:	00000585 	andeq	r0, r0, r5, lsl #11
    513c:	2c040305 	stccs	3, cr0, [r4], {5}
    5140:	b4240162 	strtlt	r0, [r4], #-354	; 0x162
    5144:	2a000000 	bcs	514c <_back_addr-0x160aeb4>
    5148:	25000014 	strcs	r0, [r0, #-20]
    514c:	0000007f 	andeq	r0, r0, pc, ror r0
    5150:	5b460010 	blpl	1185198 <_back_addr-0x48ae68>
    5154:	0100000e 	tsteq	r0, lr
    5158:	00141a5e 	andseq	r1, r4, lr, asr sl
    515c:	34030500 	strcc	r0, [r3], #-1280	; 0x500
    5160:	2401622c 	strcs	r6, [r1], #-556	; 0x22c
    5164:	000000b4 	strheq	r0, [r0], -r4
    5168:	00001446 	andeq	r1, r0, r6, asr #8
    516c:	dd480047 	stclle	0, cr0, [r8, #-284]	; 0xfffffee4
    5170:	06000001 	streq	r0, [r0], -r1
    5174:	00145112 	andseq	r5, r4, r2, lsl r1
    5178:	143b3800 	ldrtne	r3, [fp], #-2048	; 0x800
    517c:	b4240000 	strtlt	r0, [r4], #-0
    5180:	66000000 	strvs	r0, [r0], -r0
    5184:	25000014 	strcs	r0, [r0, #-20]
    5188:	0000007f 	andeq	r0, r0, pc, ror r0
    518c:	8249000f 	subhi	r0, r9, #15
    5190:	0100000d 	tsteq	r0, sp
    5194:	145601c8 	ldrbne	r0, [r6], #-456	; 0x1c8
    5198:	03050000 	movweq	r0, #20480	; 0x5000
    519c:	01622ae4 	cmneq	r2, r4, ror #21
    51a0:	000d8949 	andeq	r8, sp, r9, asr #18
    51a4:	01c90100 	biceq	r0, r9, r0, lsl #2
    51a8:	00001456 	andeq	r1, r0, r6, asr r4
    51ac:	2ad40305 	bcs	ff505dc8 <__bss_end__+0xfdee3178>
    51b0:	90490162 	subls	r0, r9, r2, ror #2
    51b4:	0100000d 	tsteq	r0, sp
    51b8:	145601ca 	ldrbne	r0, [r6], #-458	; 0x1ca
    51bc:	03050000 	movweq	r0, #20480	; 0x5000
    51c0:	01622af4 	strdeq	r2, [r2, #-164]!	; 0xffffff5c
    51c4:	00039b0f 	andeq	r9, r3, pc, lsl #22
    51c8:	59810100 	stmibpl	r1, {r8}
    51cc:	ad000000 	stcge	0, cr0, [r0, #-0]
    51d0:	10000014 	andne	r0, r0, r4, lsl r0
    51d4:	020b0f00 	andeq	r0, fp, #0, 30
    51d8:	a7010000 	strge	r0, [r1, -r0]
    51dc:	00000059 	andeq	r0, r0, r9, asr r0
    51e0:	000014be 			; <UNDEFINED> instruction: 0x000014be
    51e4:	1c290010 	stcne	0, cr0, [r9], #-64	; 0xffffffc0
    51e8:	01000008 	tsteq	r0, r8
    51ec:	005901d8 	ldrsbeq	r0, [r9], #-24	; 0xffffffe8
    51f0:	14d00000 	ldrbne	r0, [r0], #0
    51f4:	00100000 	andseq	r0, r0, r0
    51f8:	00025629 	andeq	r5, r2, r9, lsr #12
    51fc:	01e20100 	mvneq	r0, r0, lsl #2
    5200:	00000059 	andeq	r0, r0, r9, asr r0
    5204:	000014e2 	andeq	r1, r0, r2, ror #9
    5208:	e54a0010 	strb	r0, [sl, #-16]
    520c:	07000008 	streq	r0, [r0, -r8]
    5210:	00254b2f 	eoreq	r4, r5, pc, lsr #22
    5214:	00000000 	andeq	r0, r0, r0

Disassembly of section .debug_abbrev:

00000000 <.debug_abbrev>:
       0:	10001101 	andne	r1, r0, r1, lsl #2
       4:	12011106 	andne	r1, r1, #-2147483647	; 0x80000001
       8:	1b080301 	blne	200c14 <_back_addr-0x140f3ec>
       c:	13082508 	movwne	r2, #34056	; 0x8508
      10:	00000005 	andeq	r0, r0, r5
      14:	25011101 	strcs	r1, [r1, #-257]	; 0x101
      18:	030b130e 	movweq	r1, #45838	; 0xb30e
      1c:	110e1b0e 	tstne	lr, lr, lsl #22
      20:	10061201 	andne	r1, r6, r1, lsl #4
      24:	02000017 	andeq	r0, r0, #23
      28:	0b0b0024 	bleq	2c00c0 <_back_addr-0x134ff40>
      2c:	0e030b3e 	vmoveq.16	d3[0], r0
      30:	24030000 	strcs	r0, [r3], #-0
      34:	3e0b0b00 	vmlacc.f64	d0, d11, d0
      38:	0008030b 	andeq	r0, r8, fp, lsl #6
      3c:	012e0400 	teqeq	lr, r0, lsl #8
      40:	0e03193f 	mcreq	9, 0, r1, cr3, cr15, {1}
      44:	0b3b0b3a 	bleq	ec2d34 <_back_addr-0x74d2cc>
      48:	13491927 	movtne	r1, #39207	; 0x9927
      4c:	06120111 			; <UNDEFINED> instruction: 0x06120111
      50:	42971840 	addsmi	r1, r7, #64, 16	; 0x400000
      54:	00130119 	andseq	r0, r3, r9, lsl r1
      58:	00050500 	andeq	r0, r5, r0, lsl #10
      5c:	0b3a0803 	bleq	e82070 <_back_addr-0x78df90>
      60:	13490b3b 	movtne	r0, #39739	; 0x9b3b
      64:	00001702 	andeq	r1, r0, r2, lsl #14
      68:	03003406 	movweq	r3, #1030	; 0x406
      6c:	3b0b3a08 	blcc	2ce894 <_back_addr-0x134176c>
      70:	0213490b 	andseq	r4, r3, #180224	; 0x2c000
      74:	07000017 	smladeq	r0, r7, r0, r0
      78:	0b0b000f 	bleq	2c00bc <_back_addr-0x134ff44>
      7c:	00001349 	andeq	r1, r0, r9, asr #6
      80:	49002608 	stmdbmi	r0, {r3, r9, sl, sp}
      84:	00000013 	andeq	r0, r0, r3, lsl r0
      88:	25011101 	strcs	r1, [r1, #-257]	; 0x101
      8c:	030b130e 	movweq	r1, #45838	; 0xb30e
      90:	110e1b0e 	tstne	lr, lr, lsl #22
      94:	10061201 	andne	r1, r6, r1, lsl #4
      98:	02000017 	andeq	r0, r0, #23
      9c:	0b0b0024 	bleq	2c0134 <_back_addr-0x134fecc>
      a0:	0e030b3e 	vmoveq.16	d3[0], r0
      a4:	24030000 	strcs	r0, [r3], #-0
      a8:	3e0b0b00 	vmlacc.f64	d0, d11, d0
      ac:	0008030b 	andeq	r0, r8, fp, lsl #6
      b0:	012e0400 	teqeq	lr, r0, lsl #8
      b4:	0e03193f 	mcreq	9, 0, r1, cr3, cr15, {1}
      b8:	0b3b0b3a 	bleq	ec2da8 <_back_addr-0x74d258>
      bc:	13491927 	movtne	r1, #39207	; 0x9927
      c0:	06120111 			; <UNDEFINED> instruction: 0x06120111
      c4:	42971840 	addsmi	r1, r7, #64, 16	; 0x400000
      c8:	00130119 	andseq	r0, r3, r9, lsl r1
      cc:	00050500 	andeq	r0, r5, r0, lsl #10
      d0:	0b3a0803 	bleq	e820e4 <_back_addr-0x78df1c>
      d4:	13490b3b 	movtne	r0, #39739	; 0x9b3b
      d8:	00001702 	andeq	r1, r0, r2, lsl #14
      dc:	03000506 	movweq	r0, #1286	; 0x506
      e0:	3b0b3a08 	blcc	2ce908 <_back_addr-0x13416f8>
      e4:	0213490b 	andseq	r4, r3, #180224	; 0x2c000
      e8:	07000018 	smladeq	r0, r8, r0, r0
      ec:	08030034 	stmdaeq	r3, {r2, r4, r5}
      f0:	0b3b0b3a 	bleq	ec2de0 <_back_addr-0x74d220>
      f4:	17021349 	strne	r1, [r2, -r9, asr #6]
      f8:	0f080000 	svceq	0x00080000
      fc:	490b0b00 	stmdbmi	fp, {r8, r9, fp}
     100:	09000013 	stmdbeq	r0, {r0, r1, r4}
     104:	13490026 	movtne	r0, #36902	; 0x9026
     108:	01000000 	mrseq	r0, (UNDEF: 0)
     10c:	0e250111 	mcreq	1, 1, r0, cr5, cr1, {0}
     110:	0e030b13 	vmoveq.32	d3[0], r0
     114:	01110e1b 	tsteq	r1, fp, lsl lr
     118:	17100612 			; <UNDEFINED> instruction: 0x17100612
     11c:	24020000 	strcs	r0, [r2], #-0
     120:	3e0b0b00 	vmlacc.f64	d0, d11, d0
     124:	000e030b 	andeq	r0, lr, fp, lsl #6
     128:	00240300 	eoreq	r0, r4, r0, lsl #6
     12c:	0b3e0b0b 	bleq	f82d60 <_back_addr-0x68d2a0>
     130:	00000803 	andeq	r0, r0, r3, lsl #16
     134:	3f012e04 	svccc	0x00012e04
     138:	3a0e0319 	bcc	380da4 <_back_addr-0x128f25c>
     13c:	270b3b0b 	strcs	r3, [fp, -fp, lsl #22]
     140:	11134919 	tstne	r3, r9, lsl r9
     144:	40061201 	andmi	r1, r6, r1, lsl #4
     148:	19429718 	stmdbne	r2, {r3, r4, r8, r9, sl, ip, pc}^
     14c:	00001301 	andeq	r1, r0, r1, lsl #6
     150:	03000505 	movweq	r0, #1285	; 0x505
     154:	3b0b3a08 	blcc	2ce97c <_back_addr-0x1341684>
     158:	0213490b 	andseq	r4, r3, #180224	; 0x2c000
     15c:	06000017 			; <UNDEFINED> instruction: 0x06000017
     160:	0e030005 	cdpeq	0, 0, cr0, cr3, cr5, {0}
     164:	0b3b0b3a 	bleq	ec2e54 <_back_addr-0x74d1ac>
     168:	18021349 	stmdane	r2, {r0, r3, r6, r8, r9, ip}
     16c:	05070000 	streq	r0, [r7, #-0]
     170:	3a0e0300 	bcc	380d78 <_back_addr-0x128f288>
     174:	490b3b0b 	stmdbmi	fp, {r0, r1, r3, r8, r9, fp, ip, sp}
     178:	00170213 	andseq	r0, r7, r3, lsl r2
     17c:	00340800 	eorseq	r0, r4, r0, lsl #16
     180:	0b3a0803 	bleq	e82194 <_back_addr-0x78de6c>
     184:	13490b3b 	movtne	r0, #39739	; 0x9b3b
     188:	00001702 	andeq	r1, r0, r2, lsl #14
     18c:	03003409 	movweq	r3, #1033	; 0x409
     190:	3b0b3a0e 	blcc	2ce9d0 <_back_addr-0x1341630>
     194:	0213490b 	andseq	r4, r3, #180224	; 0x2c000
     198:	0a000017 	beq	1fc <_back_addr-0x160fe04>
     19c:	0b0b000f 	bleq	2c01e0 <_back_addr-0x134fe20>
     1a0:	00001349 	andeq	r1, r0, r9, asr #6
     1a4:	4900260b 	stmdbmi	r0, {r0, r1, r3, r9, sl, sp}
     1a8:	0c000013 	stceq	0, cr0, [r0], {19}
     1ac:	13490101 	movtne	r0, #37121	; 0x9101
     1b0:	00001301 	andeq	r1, r0, r1, lsl #6
     1b4:	0000210d 	andeq	r2, r0, sp, lsl #2
     1b8:	00340e00 	eorseq	r0, r4, r0, lsl #28
     1bc:	0b3a0e03 	bleq	e839d0 <_back_addr-0x78c630>
     1c0:	13490b3b 	movtne	r0, #39739	; 0x9b3b
     1c4:	193c193f 	ldmdbne	ip!, {r0, r1, r2, r3, r4, r5, r8, fp, ip}
     1c8:	01000000 	mrseq	r0, (UNDEF: 0)
     1cc:	0e250111 	mcreq	1, 1, r0, cr5, cr1, {0}
     1d0:	0e030b13 	vmoveq.32	d3[0], r0
     1d4:	17100e1b 			; <UNDEFINED> instruction: 0x17100e1b
     1d8:	01020000 	mrseq	r0, (UNDEF: 2)
     1dc:	01134901 	tsteq	r3, r1, lsl #18
     1e0:	03000013 	movweq	r0, #19
     1e4:	13490021 	movtne	r0, #36897	; 0x9021
     1e8:	00000b2f 	andeq	r0, r0, pc, lsr #22
     1ec:	0b002404 	bleq	9204 <_back_addr-0x1606dfc>
     1f0:	030b3e0b 	movweq	r3, #48651	; 0xbe0b
     1f4:	0500000e 	streq	r0, [r0, #-14]
     1f8:	0e030034 	mcreq	0, 0, r0, cr3, cr4, {1}
     1fc:	0b3b0b3a 	bleq	ec2eec <_back_addr-0x74d114>
     200:	193f1349 	ldmdbne	pc!, {r0, r3, r6, r8, r9, ip}	; <UNPREDICTABLE>
     204:	00001802 	andeq	r1, r0, r2, lsl #16
     208:	49002606 	stmdbmi	r0, {r1, r2, r9, sl, sp}
     20c:	00000013 	andeq	r0, r0, r3, lsl r0
     210:	25011101 	strcs	r1, [r1, #-257]	; 0x101
     214:	030b130e 	movweq	r1, #45838	; 0xb30e
     218:	110e1b0e 	tstne	lr, lr, lsl #22
     21c:	10061201 	andne	r1, r6, r1, lsl #4
     220:	02000017 	andeq	r0, r0, #23
     224:	0b0b0024 	bleq	2c02bc <_back_addr-0x134fd44>
     228:	0e030b3e 	vmoveq.16	d3[0], r0
     22c:	16030000 	strne	r0, [r3], -r0
     230:	3a0e0300 	bcc	380e38 <_back_addr-0x128f1c8>
     234:	490b3b0b 	stmdbmi	fp, {r0, r1, r3, r8, r9, fp, ip, sp}
     238:	04000013 	streq	r0, [r0], #-19
     23c:	0b0b0024 	bleq	2c02d4 <_back_addr-0x134fd2c>
     240:	08030b3e 	stmdaeq	r3, {r1, r2, r3, r4, r5, r8, r9, fp}
     244:	0f050000 	svceq	0x00050000
     248:	490b0b00 	stmdbmi	fp, {r8, r9, fp}
     24c:	06000013 			; <UNDEFINED> instruction: 0x06000013
     250:	13490026 	movtne	r0, #36902	; 0x9026
     254:	2e070000 	cdpcs	0, 0, cr0, cr7, cr0, {0}
     258:	3a0e0301 	bcc	380e64 <_back_addr-0x128f19c>
     25c:	270b3b0b 	strcs	r3, [fp, -fp, lsl #22]
     260:	20134919 	andscs	r4, r3, r9, lsl r9
     264:	0013010b 	andseq	r0, r3, fp, lsl #2
     268:	00050800 	andeq	r0, r5, r0, lsl #16
     26c:	0b3a0e03 	bleq	e83a80 <_back_addr-0x78c580>
     270:	13490b3b 	movtne	r0, #39739	; 0x9b3b
     274:	05090000 	streq	r0, [r9, #-0]
     278:	3a080300 	bcc	200e80 <_back_addr-0x140f180>
     27c:	490b3b0b 	stmdbmi	fp, {r0, r1, r3, r8, r9, fp, ip, sp}
     280:	0a000013 	beq	2d4 <_back_addr-0x160fd2c>
     284:	193f012e 	ldmdbne	pc!, {r1, r2, r3, r5, r8}	; <UNPREDICTABLE>
     288:	0b3a0e03 	bleq	e83a9c <_back_addr-0x78c564>
     28c:	13490b3b 	movtne	r0, #39739	; 0x9b3b
     290:	00000b20 	andeq	r0, r0, r0, lsr #22
     294:	0000180b 	andeq	r1, r0, fp, lsl #16
     298:	012e0c00 	teqeq	lr, r0, lsl #24
     29c:	0e03193f 	mcreq	9, 0, r1, cr3, cr15, {1}
     2a0:	0b3b0b3a 	bleq	ec2f90 <_back_addr-0x74d070>
     2a4:	13491927 	movtne	r1, #39207	; 0x9927
     2a8:	13010b20 	movwne	r0, #6944	; 0x1b20
     2ac:	340d0000 	strcc	r0, [sp], #-0
     2b0:	3a080300 	bcc	200eb8 <_back_addr-0x140f148>
     2b4:	490b3b0b 	stmdbmi	fp, {r0, r1, r3, r8, r9, fp, ip, sp}
     2b8:	0e000013 	mcreq	0, 0, r0, cr0, cr3, {0}
     2bc:	00000026 	andeq	r0, r0, r6, lsr #32
     2c0:	0300340f 	movweq	r3, #1039	; 0x40f
     2c4:	3b0b3a0e 	blcc	2ceb04 <_back_addr-0x13414fc>
     2c8:	0013490b 	andseq	r4, r3, fp, lsl #18
     2cc:	012e1000 	teqeq	lr, r0
     2d0:	0e03193f 	mcreq	9, 0, r1, cr3, cr15, {1}
     2d4:	0b3b0b3a 	bleq	ec2fc4 <_back_addr-0x74d03c>
     2d8:	0b201349 	bleq	805004 <_back_addr-0xe0affc>
     2dc:	00001301 	andeq	r1, r0, r1, lsl #6
     2e0:	3f002e11 	svccc	0x00002e11
     2e4:	3a0e0319 	bcc	380f50 <_back_addr-0x128f0b0>
     2e8:	490b3b0b 	stmdbmi	fp, {r0, r1, r3, r8, r9, fp, ip, sp}
     2ec:	12011113 	andne	r1, r1, #-1073741820	; 0xc0000004
     2f0:	97184006 	ldrls	r4, [r8, -r6]
     2f4:	00001942 	andeq	r1, r0, r2, asr #18
     2f8:	3f012e12 	svccc	0x00012e12
     2fc:	3a0e0319 	bcc	380f68 <_back_addr-0x128f098>
     300:	270b3b0b 	strcs	r3, [fp, -fp, lsl #22]
     304:	11134919 	tstne	r3, r9, lsl r9
     308:	40061201 	andmi	r1, r6, r1, lsl #4
     30c:	19429718 	stmdbne	r2, {r3, r4, r8, r9, sl, ip, pc}^
     310:	00001301 	andeq	r1, r0, r1, lsl #6
     314:	03000513 	movweq	r0, #1299	; 0x513
     318:	3b0b3a08 	blcc	2ceb40 <_back_addr-0x13414c0>
     31c:	0213490b 	andseq	r4, r3, #180224	; 0x2c000
     320:	14000018 	strne	r0, [r0], #-24
     324:	0e030005 	cdpeq	0, 0, cr0, cr3, cr5, {0}
     328:	0b3b0b3a 	bleq	ec3018 <_back_addr-0x74cfe8>
     32c:	18021349 	stmdane	r2, {r0, r3, r6, r8, r9, ip}
     330:	05150000 	ldreq	r0, [r5, #-0]
     334:	3a080300 	bcc	200f3c <_back_addr-0x140f0c4>
     338:	490b3b0b 	stmdbmi	fp, {r0, r1, r3, r8, r9, fp, ip, sp}
     33c:	00170213 	andseq	r0, r7, r3, lsl r2
     340:	00051600 	andeq	r1, r5, r0, lsl #12
     344:	0b3a0e03 	bleq	e83b58 <_back_addr-0x78c4a8>
     348:	13490b3b 	movtne	r0, #39739	; 0x9b3b
     34c:	00001702 	andeq	r1, r0, r2, lsl #14
     350:	03003417 	movweq	r3, #1047	; 0x417
     354:	3b0b3a0e 	blcc	2ceb94 <_back_addr-0x134146c>
     358:	0213490b 	andseq	r4, r3, #180224	; 0x2c000
     35c:	18000017 	stmdane	r0, {r0, r1, r2, r4}
     360:	0b0b000f 	bleq	2c03a4 <_back_addr-0x134fc5c>
     364:	2e190000 	cdpcs	0, 1, cr0, cr9, cr0, {0}
     368:	11133101 	tstne	r3, r1, lsl #2
     36c:	40061201 	andmi	r1, r6, r1, lsl #4
     370:	19429718 	stmdbne	r2, {r3, r4, r8, r9, sl, ip, pc}^
     374:	00001301 	andeq	r1, r0, r1, lsl #6
     378:	3100051a 	tstcc	r0, sl, lsl r5
     37c:	00170213 	andseq	r0, r7, r3, lsl r2
     380:	00341b00 	eorseq	r1, r4, r0, lsl #22
     384:	17021331 	smladxne	r2, r1, r3, r1
     388:	341c0000 	ldrcc	r0, [ip], #-0
     38c:	3a080300 	bcc	200f94 <_back_addr-0x140f06c>
     390:	490b3b0b 	stmdbmi	fp, {r0, r1, r3, r8, r9, fp, ip, sp}
     394:	00170213 	andseq	r0, r7, r3, lsl r2
     398:	00341d00 	eorseq	r1, r4, r0, lsl #26
     39c:	0b3a0e03 	bleq	e83bb0 <_back_addr-0x78c450>
     3a0:	13490b3b 	movtne	r0, #39739	; 0x9b3b
     3a4:	0000061c 	andeq	r0, r0, ip, lsl r6
     3a8:	0300341e 	movweq	r3, #1054	; 0x41e
     3ac:	3b0b3a0e 	blcc	2cebec <_back_addr-0x1341414>
     3b0:	0213490b 	andseq	r4, r3, #180224	; 0x2c000
     3b4:	1f000018 	svcne	0x00000018
     3b8:	08030034 	stmdaeq	r3, {r2, r4, r5}
     3bc:	0b3b0b3a 	bleq	ec30ac <_back_addr-0x74cf54>
     3c0:	18021349 	stmdane	r2, {r0, r3, r6, r8, r9, ip}
     3c4:	2e200000 	cdpcs	0, 2, cr0, cr0, cr0, {0}
     3c8:	03193f01 	tsteq	r9, #1, 30
     3cc:	3b0b3a0e 	blcc	2cec0c <_back_addr-0x13413f4>
     3d0:	3c13490b 	ldccc	9, cr4, [r3], {11}
     3d4:	00130119 	andseq	r0, r3, r9, lsl r1
     3d8:	011d2100 	tsteq	sp, r0, lsl #2
     3dc:	01111331 	tsteq	r1, r1, lsr r3
     3e0:	0b580612 	bleq	1601c30 <_back_addr-0xe3d0>
     3e4:	13010559 	movwne	r0, #5465	; 0x1559
     3e8:	05220000 	streq	r0, [r2, #-0]!
     3ec:	1c133100 	ldfnes	f3, [r3], {-0}
     3f0:	23000006 	movwcs	r0, #6
     3f4:	13310005 	teqne	r1, #5
     3f8:	00001802 	andeq	r1, r0, r2, lsl #16
     3fc:	11010b24 	tstne	r1, r4, lsr #22
     400:	00061201 	andeq	r1, r6, r1, lsl #4
     404:	82892500 	addhi	r2, r9, #0, 10
     408:	01110001 	tsteq	r1, r1
     40c:	00001331 	andeq	r1, r0, r1, lsr r3
     410:	01828926 	orreq	r8, r2, r6, lsr #18
     414:	31011101 	tstcc	r1, r1, lsl #2
     418:	00130113 	andseq	r0, r3, r3, lsl r1
     41c:	828a2700 	addhi	r2, sl, #0, 14
     420:	18020001 	stmdane	r2, {r0}
     424:	00184291 	mulseq	r8, r1, r2
     428:	82892800 	addhi	r2, r9, #0, 16
     42c:	01110101 	tsteq	r1, r1, lsl #2
     430:	00001331 	andeq	r1, r0, r1, lsr r3
     434:	49010129 	stmdbmi	r1, {r0, r3, r5, r8}
     438:	00130113 	andseq	r0, r3, r3, lsl r1
     43c:	00212a00 	eoreq	r2, r1, r0, lsl #20
     440:	0b2f1349 	bleq	bc516c <_back_addr-0xa4ae94>
     444:	212b0000 	teqcs	fp, r0
     448:	2f134900 	svccs	0x00134900
     44c:	2c000005 	stccs	0, cr0, [r0], {5}
     450:	193f012e 	ldmdbne	pc!, {r1, r2, r3, r5, r8}	; <UNPREDICTABLE>
     454:	0b3a0e03 	bleq	e83c68 <_back_addr-0x78c398>
     458:	1927053b 	stmdbne	r7!, {r0, r1, r3, r4, r5, r8, sl}
     45c:	01111349 	tsteq	r1, r9, asr #6
     460:	18400612 	stmdane	r0, {r1, r4, r9, sl}^
     464:	01194297 			; <UNDEFINED> instruction: 0x01194297
     468:	2d000013 	stccs	0, cr0, [r0, #-76]	; 0xffffffb4
     46c:	0e030005 	cdpeq	0, 0, cr0, cr3, cr5, {0}
     470:	053b0b3a 	ldreq	r0, [fp, #-2874]!	; 0xb3a
     474:	17021349 	strne	r1, [r2, -r9, asr #6]
     478:	892e0000 	stmdbhi	lr!, {}	; <UNPREDICTABLE>
     47c:	11010182 	smlabbne	r1, r2, r1, r0
     480:	19429501 	stmdbne	r2, {r0, r8, sl, ip, pc}^
     484:	00184293 	mulseq	r8, r3, r2
     488:	01152f00 	tsteq	r5, r0, lsl #30
     48c:	13491927 	movtne	r1, #39207	; 0x9927
     490:	00001301 	andeq	r1, r0, r1, lsl #6
     494:	49000530 	stmdbmi	r0, {r4, r5, r8, sl}
     498:	31000013 	tstcc	r0, r3, lsl r0
     49c:	0e03012e 	adfeqsp	f0, f3, #0.5
     4a0:	053b0b3a 	ldreq	r0, [fp, #-2874]!	; 0xb3a
     4a4:	0b201927 	bleq	806948 <_back_addr-0xe096b8>
     4a8:	00001301 	andeq	r1, r0, r1, lsl #6
     4ac:	03000532 	movweq	r0, #1330	; 0x532
     4b0:	3b0b3a0e 	blcc	2cecf0 <_back_addr-0x1341310>
     4b4:	00134905 	andseq	r4, r3, r5, lsl #18
     4b8:	00343300 	eorseq	r3, r4, r0, lsl #6
     4bc:	0b3a0803 	bleq	e824d0 <_back_addr-0x78db30>
     4c0:	1349053b 	movtne	r0, #38203	; 0x953b
     4c4:	34340000 	ldrtcc	r0, [r4], #-0
     4c8:	3a0e0300 	bcc	3810d0 <_back_addr-0x128ef30>
     4cc:	49053b0b 	stmdbmi	r5, {r0, r1, r3, r8, r9, fp, ip, sp}
     4d0:	35000013 	strcc	r0, [r0, #-19]
     4d4:	193f012e 	ldmdbne	pc!, {r1, r2, r3, r5, r8}	; <UNPREDICTABLE>
     4d8:	0b3a0e03 	bleq	e83cec <_back_addr-0x78c314>
     4dc:	1349053b 	movtne	r0, #38203	; 0x953b
     4e0:	00000b20 	andeq	r0, r0, r0, lsr #22
     4e4:	49003536 	stmdbmi	r0, {r1, r2, r4, r5, r8, sl, ip, sp}
     4e8:	37000013 	smladcc	r0, r3, r0, r0
     4ec:	08030034 	stmdaeq	r3, {r2, r4, r5}
     4f0:	053b0b3a 	ldreq	r0, [fp, #-2874]!	; 0xb3a
     4f4:	17021349 	strne	r1, [r2, -r9, asr #6]
     4f8:	34380000 	ldrtcc	r0, [r8], #-0
     4fc:	3a0e0300 	bcc	381104 <_back_addr-0x128eefc>
     500:	49053b0b 	stmdbmi	r5, {r0, r1, r3, r8, r9, fp, ip, sp}
     504:	3c193f13 	ldccc	15, cr3, [r9], {19}
     508:	39000019 	stmdbcc	r0, {r0, r3, r4}
     50c:	193f012e 	ldmdbne	pc!, {r1, r2, r3, r5, r8}	; <UNPREDICTABLE>
     510:	0b3a0e03 	bleq	e83d24 <_back_addr-0x78c2dc>
     514:	1349053b 	movtne	r0, #38203	; 0x953b
     518:	1301193c 	movwne	r1, #6460	; 0x193c
     51c:	0b3a0000 	bleq	e80524 <_back_addr-0x78fadc>
     520:	12011101 	andne	r1, r1, #1073741824	; 0x40000000
     524:	00130106 	andseq	r0, r3, r6, lsl #2
     528:	00343b00 	eorseq	r3, r4, r0, lsl #22
     52c:	00001331 	andeq	r1, r0, r1, lsr r3
     530:	3100343c 	tstcc	r0, ip, lsr r4
     534:	00180213 	andseq	r0, r8, r3, lsl r2
     538:	00213d00 	eoreq	r3, r1, r0, lsl #26
     53c:	343e0000 	ldrtcc	r0, [lr], #-0
     540:	3a0e0300 	bcc	381148 <_back_addr-0x128eeb8>
     544:	490b3b0b 	stmdbmi	fp, {r0, r1, r3, r8, r9, fp, ip, sp}
     548:	3c193f13 	ldccc	15, cr3, [r9], {19}
     54c:	3f000019 	svccc	0x00000019
     550:	193f012e 	ldmdbne	pc!, {r1, r2, r3, r5, r8}	; <UNPREDICTABLE>
     554:	0b3a0e03 	bleq	e83d68 <_back_addr-0x78c298>
     558:	19270b3b 	stmdbne	r7!, {r0, r1, r3, r4, r5, r8, r9, fp}
     55c:	193c1349 	ldmdbne	ip!, {r0, r3, r6, r8, r9, ip}
     560:	00001301 	andeq	r1, r0, r1, lsl #6
     564:	3f012e40 	svccc	0x00012e40
     568:	270e0319 	smladcs	lr, r9, r3, r0
     56c:	34134919 	ldrcc	r4, [r3], #-2329	; 0x919
     570:	01193c19 	tsteq	r9, r9, lsl ip
     574:	41000013 	tstmi	r0, r3, lsl r0
     578:	193f002e 	ldmdbne	pc!, {r1, r2, r3, r5}	; <UNPREDICTABLE>
     57c:	0b3a0e03 	bleq	e83d90 <_back_addr-0x78c270>
     580:	19270b3b 	stmdbne	r7!, {r0, r1, r3, r4, r5, r8, r9, fp}
     584:	0000193c 	andeq	r1, r0, ip, lsr r9
     588:	3f012e42 	svccc	0x00012e42
     58c:	3a0e0319 	bcc	3811f8 <_back_addr-0x128ee08>
     590:	49053b0b 	stmdbmi	r5, {r0, r1, r3, r8, r9, fp, ip, sp}
     594:	00193c13 	andseq	r3, r9, r3, lsl ip
     598:	11010000 	mrsne	r0, (UNDEF: 1)
     59c:	130e2501 	movwne	r2, #58625	; 0xe501
     5a0:	1b0e030b 	blne	3811d4 <_back_addr-0x128ee2c>
     5a4:	1201110e 	andne	r1, r1, #-2147483645	; 0x80000003
     5a8:	00171006 	andseq	r1, r7, r6
     5ac:	00240200 	eoreq	r0, r4, r0, lsl #4
     5b0:	0b3e0b0b 	bleq	f831e4 <_back_addr-0x68ce1c>
     5b4:	00000e03 	andeq	r0, r0, r3, lsl #28
     5b8:	0b002403 	bleq	95cc <_back_addr-0x1606a34>
     5bc:	030b3e0b 	movweq	r3, #48651	; 0xbe0b
     5c0:	04000008 	streq	r0, [r0], #-8
     5c4:	08030016 	stmdaeq	r3, {r1, r2, r4}
     5c8:	0b3b0b3a 	bleq	ec32b8 <_back_addr-0x74cd48>
     5cc:	00001349 	andeq	r1, r0, r9, asr #6
     5d0:	03010405 	movweq	r0, #5125	; 0x1405
     5d4:	3a0b0b0e 	bcc	2c3214 <_back_addr-0x134cdec>
     5d8:	01053b0b 	tsteq	r5, fp, lsl #22
     5dc:	06000013 			; <UNDEFINED> instruction: 0x06000013
     5e0:	0e030028 	cdpeq	0, 0, cr0, cr3, cr8, {1}
     5e4:	00000d1c 	andeq	r0, r0, ip, lsl sp
     5e8:	03012e07 	movweq	r2, #7687	; 0x1e07
     5ec:	3b0b3a0e 	blcc	2cee2c <_back_addr-0x13411d4>
     5f0:	2019270b 	andscs	r2, r9, fp, lsl #14
     5f4:	0013010b 	andseq	r0, r3, fp, lsl #2
     5f8:	00050800 	andeq	r0, r5, r0, lsl #16
     5fc:	0b3a0e03 	bleq	e83e10 <_back_addr-0x78c1f0>
     600:	13490b3b 	movtne	r0, #39739	; 0x9b3b
     604:	34090000 	strcc	r0, [r9], #-0
     608:	3a0e0300 	bcc	381210 <_back_addr-0x128edf0>
     60c:	490b3b0b 	stmdbmi	fp, {r0, r1, r3, r8, r9, fp, ip, sp}
     610:	0a000013 	beq	664 <_back_addr-0x160f99c>
     614:	0e03012e 	adfeqsp	f0, f3, #0.5
     618:	0b3b0b3a 	bleq	ec3308 <_back_addr-0x74ccf8>
     61c:	13491927 	movtne	r1, #39207	; 0x9927
     620:	13010b20 	movwne	r0, #6944	; 0x1b20
     624:	050b0000 	streq	r0, [fp, #-0]
     628:	3a080300 	bcc	201230 <_back_addr-0x140edd0>
     62c:	490b3b0b 	stmdbmi	fp, {r0, r1, r3, r8, r9, fp, ip, sp}
     630:	0c000013 	stceq	0, cr0, [r0], {19}
     634:	08030034 	stmdaeq	r3, {r2, r4, r5}
     638:	0b3b0b3a 	bleq	ec3328 <_back_addr-0x74ccd8>
     63c:	00001349 	andeq	r1, r0, r9, asr #6
     640:	3f002e0d 	svccc	0x00002e0d
     644:	3a0e0319 	bcc	3812b0 <_back_addr-0x128ed50>
     648:	270b3b0b 	strcs	r3, [fp, -fp, lsl #22]
     64c:	000b2019 	andeq	r2, fp, r9, lsl r0
     650:	002e0e00 	eoreq	r0, lr, r0, lsl #28
     654:	0b3a0e03 	bleq	e83e68 <_back_addr-0x78c198>
     658:	19270b3b 	stmdbne	r7!, {r0, r1, r3, r4, r5, r8, r9, fp}
     65c:	00000b20 	andeq	r0, r0, r0, lsr #22
     660:	03012e0f 	movweq	r2, #7695	; 0x1e0f
     664:	3b0b3a0e 	blcc	2ceea4 <_back_addr-0x134115c>
     668:	1119270b 	tstne	r9, fp, lsl #14
     66c:	40061201 	andmi	r1, r6, r1, lsl #4
     670:	19429718 	stmdbne	r2, {r3, r4, r8, r9, sl, ip, pc}^
     674:	00001301 	andeq	r1, r0, r1, lsl #6
     678:	03000510 	movweq	r0, #1296	; 0x510
     67c:	3b0b3a0e 	blcc	2ceebc <_back_addr-0x1341144>
     680:	0213490b 	andseq	r4, r3, #180224	; 0x2c000
     684:	11000018 	tstne	r0, r8, lsl r0
     688:	0e030034 	mcreq	0, 0, r0, cr3, cr4, {1}
     68c:	0b3b0b3a 	bleq	ec337c <_back_addr-0x74cc84>
     690:	17021349 	strne	r1, [r2, -r9, asr #6]
     694:	34120000 	ldrcc	r0, [r2], #-0
     698:	3a0e0300 	bcc	3812a0 <_back_addr-0x128ed60>
     69c:	490b3b0b 	stmdbmi	fp, {r0, r1, r3, r8, r9, fp, ip, sp}
     6a0:	00180213 	andseq	r0, r8, r3, lsl r2
     6a4:	011d1300 	tsteq	sp, r0, lsl #6
     6a8:	01111331 	tsteq	r1, r1, lsr r3
     6ac:	0b580612 	bleq	1601efc <_back_addr-0xe104>
     6b0:	13010b59 	movwne	r0, #7001	; 0x1b59
     6b4:	0b140000 	bleq	5006bc <_back_addr-0x110f944>
     6b8:	12011101 	andne	r1, r1, #1073741824	; 0x40000000
     6bc:	15000006 	strne	r0, [r0, #-6]
     6c0:	13310034 	teqne	r1, #52	; 0x34
     6c4:	00001802 	andeq	r1, r0, r2, lsl #16
     6c8:	31011d16 	tstcc	r1, r6, lsl sp
     6cc:	55015213 	strpl	r5, [r1, #-531]	; 0x213
     6d0:	590b5817 	stmdbpl	fp, {r0, r1, r2, r4, fp, ip, lr}
     6d4:	1700000b 	strne	r0, [r0, -fp]
     6d8:	13310005 	teqne	r1, #5
     6dc:	05180000 	ldreq	r0, [r8, #-0]
     6e0:	02133100 	andseq	r3, r3, #0, 2
     6e4:	19000017 	stmdbne	r0, {r0, r1, r2, r4}
     6e8:	1755010b 	ldrbne	r0, [r5, -fp, lsl #2]
     6ec:	341a0000 	ldrcc	r0, [sl], #-0
     6f0:	00133100 	andseq	r3, r3, r0, lsl #2
     6f4:	00341b00 	eorseq	r1, r4, r0, lsl #22
     6f8:	17021331 	smladxne	r2, r1, r3, r1
     6fc:	1d1c0000 	ldcne	0, cr0, [ip, #-0]
     700:	52133101 	andspl	r3, r3, #1073741824	; 0x40000000
     704:	58175501 	ldmdapl	r7, {r0, r8, sl, ip, lr}
     708:	010b590b 	tsteq	fp, fp, lsl #18
     70c:	1d000013 	stcne	0, cr0, [r0, #-76]	; 0xffffffb4
     710:	1331011d 	teqne	r1, #1073741831	; 0x40000007
     714:	06120111 			; <UNDEFINED> instruction: 0x06120111
     718:	0b590b58 	bleq	1643480 <__bss_end__+0x20830>
     71c:	2e1e0000 	cdpcs	0, 1, cr0, cr14, cr0, {0}
     720:	03193f00 	tsteq	r9, #0, 30
     724:	3b0b3a0e 	blcc	2cef64 <_back_addr-0x134109c>
     728:	11192705 	tstne	r9, r5, lsl #14
     72c:	40061201 	andmi	r1, r6, r1, lsl #4
     730:	19429718 	stmdbne	r2, {r3, r4, r8, r9, sl, ip, pc}^
     734:	2e1f0000 	cdpcs	0, 1, cr0, cr15, cr0, {0}
     738:	03193f01 	tsteq	r9, #1, 30
     73c:	3b0b3a0e 	blcc	2cef7c <_back_addr-0x1341084>
     740:	11192705 	tstne	r9, r5, lsl #14
     744:	40061201 	andmi	r1, r6, r1, lsl #4
     748:	19429718 	stmdbne	r2, {r3, r4, r8, r9, sl, ip, pc}^
     74c:	00001301 	andeq	r1, r0, r1, lsl #6
     750:	01828920 	orreq	r8, r2, r0, lsr #18
     754:	31011101 	tstcc	r1, r1, lsl #2
     758:	00130113 	andseq	r0, r3, r3, lsl r1
     75c:	828a2100 	addhi	r2, sl, #0, 2
     760:	18020001 	stmdane	r2, {r0}
     764:	00184291 	mulseq	r8, r1, r2
     768:	82892200 	addhi	r2, r9, #0, 4
     76c:	01110001 	tsteq	r1, r1
     770:	00194295 	mulseq	r9, r5, r2
     774:	012e2300 	teqeq	lr, r0, lsl #6
     778:	01111331 	tsteq	r1, r1, lsr r3
     77c:	18400612 	stmdane	r0, {r1, r4, r9, sl}^
     780:	01194297 			; <UNDEFINED> instruction: 0x01194297
     784:	24000013 	strcs	r0, [r0], #-19
     788:	1331011d 	teqne	r1, #1073741831	; 0x40000007
     78c:	06120111 			; <UNDEFINED> instruction: 0x06120111
     790:	05590b58 	ldrbeq	r0, [r9, #-2904]	; 0xb58
     794:	00001301 	andeq	r1, r0, r1, lsl #6
     798:	01828925 	orreq	r8, r2, r5, lsr #18
     79c:	00011100 	andeq	r1, r1, r0, lsl #2
     7a0:	001d2600 	andseq	r2, sp, r0, lsl #12
     7a4:	01111331 	tsteq	r1, r1, lsr r3
     7a8:	0b580612 	bleq	1601ff8 <_back_addr-0xe008>
     7ac:	00000559 	andeq	r0, r0, r9, asr r5
     7b0:	03000527 	movweq	r0, #1319	; 0x527
     7b4:	3b0b3a0e 	blcc	2ceff4 <_back_addr-0x134100c>
     7b8:	02134905 	andseq	r4, r3, #81920	; 0x14000
     7bc:	28000018 	stmdacs	r0, {r3, r4}
     7c0:	08030005 	stmdaeq	r3, {r0, r2}
     7c4:	053b0b3a 	ldreq	r0, [fp, #-2874]!	; 0xb3a
     7c8:	18021349 	stmdane	r2, {r0, r3, r6, r8, r9, ip}
     7cc:	05290000 	streq	r0, [r9, #-0]!
     7d0:	3a0e0300 	bcc	3813d8 <_back_addr-0x128ec28>
     7d4:	49053b0b 	stmdbmi	r5, {r0, r1, r3, r8, r9, fp, ip, sp}
     7d8:	00170213 	andseq	r0, r7, r3, lsl r2
     7dc:	00052a00 	andeq	r2, r5, r0, lsl #20
     7e0:	0b1c1331 	bleq	7054ac <_back_addr-0xf0ab54>
     7e4:	892b0000 	stmdbhi	fp!, {}	; <UNPREDICTABLE>
     7e8:	11010182 	smlabbne	r1, r2, r1, r0
     7ec:	19429501 	stmdbne	r2, {r0, r8, sl, ip, pc}^
     7f0:	00001331 	andeq	r1, r0, r1, lsr r3
     7f4:	0300342c 	movweq	r3, #1068	; 0x42c
     7f8:	3b0b3a0e 	blcc	2cf038 <_back_addr-0x1340fc8>
     7fc:	1c134905 	ldcne	9, cr4, [r3], {5}
     800:	2d000006 	stccs	0, cr0, [r0, #-24]	; 0xffffffe8
     804:	0e030034 	mcreq	0, 0, r0, cr3, cr4, {1}
     808:	053b0b3a 	ldreq	r0, [fp, #-2874]!	; 0xb3a
     80c:	193f1349 	ldmdbne	pc!, {r0, r3, r6, r8, r9, ip}	; <UNPREDICTABLE>
     810:	0000193c 	andeq	r1, r0, ip, lsr r9
     814:	01110100 	tsteq	r1, r0, lsl #2
     818:	0b130e25 	bleq	4c40b4 <_back_addr-0x114bf4c>
     81c:	0e1b0e03 	cdpeq	14, 1, cr0, cr11, cr3, {0}
     820:	06120111 			; <UNDEFINED> instruction: 0x06120111
     824:	00001710 	andeq	r1, r0, r0, lsl r7
     828:	0b002402 	bleq	9838 <_back_addr-0x16067c8>
     82c:	030b3e0b 	movweq	r3, #48651	; 0xbe0b
     830:	0300000e 	movweq	r0, #14
     834:	0b0b0024 	bleq	2c08cc <_back_addr-0x134f734>
     838:	08030b3e 	stmdaeq	r3, {r1, r2, r3, r4, r5, r8, r9, fp}
     83c:	16040000 	strne	r0, [r4], -r0
     840:	3a0e0300 	bcc	381448 <_back_addr-0x128ebb8>
     844:	490b3b0b 	stmdbmi	fp, {r0, r1, r3, r8, r9, fp, ip, sp}
     848:	05000013 	streq	r0, [r0, #-19]
     84c:	0b0b000f 	bleq	2c0890 <_back_addr-0x134f770>
     850:	0f060000 	svceq	0x00060000
     854:	490b0b00 	stmdbmi	fp, {r8, r9, fp}
     858:	07000013 	smladeq	r0, r3, r0, r0
     85c:	13490026 	movtne	r0, #36902	; 0x9026
     860:	01080000 	mrseq	r0, (UNDEF: 8)
     864:	01134901 	tsteq	r3, r1, lsl #18
     868:	09000013 	stmdbeq	r0, {r0, r1, r4}
     86c:	13490021 	movtne	r0, #36897	; 0x9021
     870:	00000b2f 	andeq	r0, r0, pc, lsr #22
     874:	0301040a 	movweq	r0, #5130	; 0x140a
     878:	3a0b0b0e 	bcc	2c34b8 <_back_addr-0x134cb48>
     87c:	01053b0b 	tsteq	r5, fp, lsl #22
     880:	0b000013 	bleq	8d4 <_back_addr-0x160f72c>
     884:	0e030028 	cdpeq	0, 0, cr0, cr3, cr8, {1}
     888:	00000d1c 	andeq	r0, r0, ip, lsl sp
     88c:	0301130c 	movweq	r1, #4876	; 0x130c
     890:	3a0b0b0e 	bcc	2c34d0 <_back_addr-0x134cb30>
     894:	010b3b0b 	tsteq	fp, fp, lsl #22
     898:	0d000013 	stceq	0, cr0, [r0, #-76]	; 0xffffffb4
     89c:	0e03000d 	cdpeq	0, 0, cr0, cr3, cr13, {0}
     8a0:	0b3b0b3a 	bleq	ec3590 <_back_addr-0x74ca70>
     8a4:	0b381349 	bleq	e055d0 <_back_addr-0x80aa30>
     8a8:	0d0e0000 	stceq	0, cr0, [lr, #-0]
     8ac:	3a080300 	bcc	2014b4 <_back_addr-0x140eb4c>
     8b0:	490b3b0b 	stmdbmi	fp, {r0, r1, r3, r8, r9, fp, ip, sp}
     8b4:	000b3813 	andeq	r3, fp, r3, lsl r8
     8b8:	012e0f00 	teqeq	lr, r0, lsl #30
     8bc:	0b3a0e03 	bleq	e840d0 <_back_addr-0x78bf30>
     8c0:	19270b3b 	stmdbne	r7!, {r0, r1, r3, r4, r5, r8, r9, fp}
     8c4:	0b201349 	bleq	8055f0 <_back_addr-0xe0aa10>
     8c8:	00001301 	andeq	r1, r0, r1, lsl #6
     8cc:	03000510 	movweq	r0, #1296	; 0x510
     8d0:	3b0b3a0e 	blcc	2cf110 <_back_addr-0x1340ef0>
     8d4:	0013490b 	andseq	r4, r3, fp, lsl #18
     8d8:	012e1100 	teqeq	lr, r0, lsl #2
     8dc:	0b3a0e03 	bleq	e840f0 <_back_addr-0x78bf10>
     8e0:	19270b3b 	stmdbne	r7!, {r0, r1, r3, r4, r5, r8, r9, fp}
     8e4:	13010b20 	movwne	r0, #6944	; 0x1b20
     8e8:	05120000 	ldreq	r0, [r2, #-0]
     8ec:	3a080300 	bcc	2014f4 <_back_addr-0x140eb0c>
     8f0:	490b3b0b 	stmdbmi	fp, {r0, r1, r3, r8, r9, fp, ip, sp}
     8f4:	13000013 	movwne	r0, #19
     8f8:	0e03012e 	adfeqsp	f0, f3, #0.5
     8fc:	053b0b3a 	ldreq	r0, [fp, #-2874]!	; 0xb3a
     900:	13491927 	movtne	r1, #39207	; 0x9927
     904:	13010b20 	movwne	r0, #6944	; 0x1b20
     908:	05140000 	ldreq	r0, [r4, #-0]
     90c:	3a0e0300 	bcc	381514 <_back_addr-0x128eaec>
     910:	49053b0b 	stmdbmi	r5, {r0, r1, r3, r8, r9, fp, ip, sp}
     914:	15000013 	strne	r0, [r0, #-19]
     918:	08030034 	stmdaeq	r3, {r2, r4, r5}
     91c:	053b0b3a 	ldreq	r0, [fp, #-2874]!	; 0xb3a
     920:	00001349 	andeq	r1, r0, r9, asr #6
     924:	03003416 	movweq	r3, #1046	; 0x416
     928:	3b0b3a0e 	blcc	2cf168 <_back_addr-0x1340e98>
     92c:	00134905 	andseq	r4, r3, r5, lsl #18
     930:	012e1700 	teqeq	lr, r0, lsl #14
     934:	0e03193f 	mcreq	9, 0, r1, cr3, cr15, {1}
     938:	053b0b3a 	ldreq	r0, [fp, #-2874]!	; 0xb3a
     93c:	193c1349 	ldmdbne	ip!, {r0, r3, r6, r8, r9, ip}
     940:	18180000 	ldmdane	r8, {}	; <UNPREDICTABLE>
     944:	19000000 	stmdbne	r0, {}	; <UNPREDICTABLE>
     948:	193f012e 	ldmdbne	pc!, {r1, r2, r3, r5, r8}	; <UNPREDICTABLE>
     94c:	0b3a0e03 	bleq	e84160 <_back_addr-0x78bea0>
     950:	19270b3b 	stmdbne	r7!, {r0, r1, r3, r4, r5, r8, r9, fp}
     954:	0b201349 	bleq	805680 <_back_addr-0xe0a980>
     958:	00001301 	andeq	r1, r0, r1, lsl #6
     95c:	0300341a 	movweq	r3, #1050	; 0x41a
     960:	3b0b3a0e 	blcc	2cf1a0 <_back_addr-0x1340e60>
     964:	0013490b 	andseq	r4, r3, fp, lsl #18
     968:	012e1b00 	teqeq	lr, r0, lsl #22
     96c:	0b3a0e03 	bleq	e84180 <_back_addr-0x78be80>
     970:	1927053b 	stmdbne	r7!, {r0, r1, r3, r4, r5, r8, sl}
     974:	01111349 	tsteq	r1, r9, asr #6
     978:	18400612 	stmdane	r0, {r1, r4, r9, sl}^
     97c:	01194297 			; <UNDEFINED> instruction: 0x01194297
     980:	1c000013 	stcne	0, cr0, [r0], {19}
     984:	0e030034 	mcreq	0, 0, r0, cr3, cr4, {1}
     988:	053b0b3a 	ldreq	r0, [fp, #-2874]!	; 0xb3a
     98c:	18021349 	stmdane	r2, {r0, r3, r6, r8, r9, ip}
     990:	891d0000 	ldmdbhi	sp, {}	; <UNPREDICTABLE>
     994:	11010182 	smlabbne	r1, r2, r1, r0
     998:	01133101 	tsteq	r3, r1, lsl #2
     99c:	1e000013 	mcrne	0, 0, r0, cr0, cr3, {0}
     9a0:	0001828a 	andeq	r8, r1, sl, lsl #5
     9a4:	42911802 	addsmi	r1, r1, #131072	; 0x20000
     9a8:	1f000018 	svcne	0x00000018
     9ac:	01018289 	smlabbeq	r1, r9, r2, r8
     9b0:	13310111 	teqne	r1, #1073741828	; 0x40000004
     9b4:	34200000 	strtcc	r0, [r0], #-0
     9b8:	3a080300 	bcc	2015c0 <_back_addr-0x140ea40>
     9bc:	49053b0b 	stmdbmi	r5, {r0, r1, r3, r8, r9, fp, ip, sp}
     9c0:	00170213 	andseq	r0, r7, r3, lsl r2
     9c4:	011d2100 	tsteq	sp, r0, lsl #2
     9c8:	01521331 	cmpeq	r2, r1, lsr r3
     9cc:	0b581755 	bleq	1606728 <_back_addr-0x98d8>
     9d0:	13010559 	movwne	r0, #5465	; 0x1559
     9d4:	05220000 	streq	r0, [r2, #-0]!
     9d8:	1c133100 	ldfnes	f3, [r3], {-0}
     9dc:	2300000b 	movwcs	r0, #11
     9e0:	13310005 	teqne	r1, #5
     9e4:	00000d1c 	andeq	r0, r0, ip, lsl sp
     9e8:	55010b24 	strpl	r0, [r1, #-2852]	; 0xb24
     9ec:	25000017 	strcs	r0, [r0, #-23]
     9f0:	1331011d 	teqne	r1, #1073741831	; 0x40000007
     9f4:	17550152 			; <UNDEFINED> instruction: 0x17550152
     9f8:	05590b58 	ldrbeq	r0, [r9, #-2904]	; 0xb58
     9fc:	2e260000 	cdpcs	0, 2, cr0, cr6, cr0, {0}
     a00:	11133101 	tstne	r3, r1, lsl #2
     a04:	40061201 	andmi	r1, r6, r1, lsl #4
     a08:	19429718 	stmdbne	r2, {r3, r4, r8, r9, sl, ip, pc}^
     a0c:	00001301 	andeq	r1, r0, r1, lsl #6
     a10:	31000527 	tstcc	r0, r7, lsr #10
     a14:	00170213 	andseq	r0, r7, r3, lsl r2
     a18:	00342800 	eorseq	r2, r4, r0, lsl #16
     a1c:	00001331 	andeq	r1, r0, r1, lsr r3
     a20:	31003429 	tstcc	r0, r9, lsr #8
     a24:	00170213 	andseq	r0, r7, r3, lsl r2
     a28:	012e2a00 	teqeq	lr, r0, lsl #20
     a2c:	0b201347 	bleq	805750 <_back_addr-0xe0a8b0>
     a30:	00001301 	andeq	r1, r0, r1, lsl #6
     a34:	31011d2b 	tstcc	r1, fp, lsr #26
     a38:	12011113 	andne	r1, r1, #-1073741820	; 0xc0000004
     a3c:	590b5806 	stmdbpl	fp, {r1, r2, fp, ip, lr}
     a40:	00130105 	andseq	r0, r3, r5, lsl #2
     a44:	010b2c00 	tsteq	fp, r0, lsl #24
     a48:	06120111 			; <UNDEFINED> instruction: 0x06120111
     a4c:	0b2d0000 	bleq	b40a54 <_back_addr-0xacf5ac>
     a50:	12011101 	andne	r1, r1, #1073741824	; 0x40000000
     a54:	00130106 	andseq	r0, r3, r6, lsl #2
     a58:	82892e00 	addhi	r2, r9, #0, 28
     a5c:	01110001 	tsteq	r1, r1
     a60:	00001331 	andeq	r1, r0, r1, lsr r3
     a64:	3f012e2f 	svccc	0x00012e2f
     a68:	3a0e0319 	bcc	3816d4 <_back_addr-0x128e92c>
     a6c:	270b3b0b 	strcs	r3, [fp, -fp, lsl #22]
     a70:	11134919 	tstne	r3, r9, lsl r9
     a74:	40061201 	andmi	r1, r6, r1, lsl #4
     a78:	19429718 	stmdbne	r2, {r3, r4, r8, r9, sl, ip, pc}^
     a7c:	00001301 	andeq	r1, r0, r1, lsl #6
     a80:	03000530 	movweq	r0, #1328	; 0x530
     a84:	3b0b3a0e 	blcc	2cf2c4 <_back_addr-0x1340d3c>
     a88:	0213490b 	andseq	r4, r3, #180224	; 0x2c000
     a8c:	31000017 	tstcc	r0, r7, lsl r0
     a90:	0e030034 	mcreq	0, 0, r0, cr3, cr4, {1}
     a94:	0b3b0b3a 	bleq	ec3784 <_back_addr-0x74c87c>
     a98:	18021349 	stmdane	r2, {r0, r3, r6, r8, r9, ip}
     a9c:	34320000 	ldrtcc	r0, [r2], #-0
     aa0:	3a080300 	bcc	2016a8 <_back_addr-0x140e958>
     aa4:	490b3b0b 	stmdbmi	fp, {r0, r1, r3, r8, r9, fp, ip, sp}
     aa8:	00170213 	andseq	r0, r7, r3, lsl r2
     aac:	011d3300 	tsteq	sp, r0, lsl #6
     ab0:	01521331 	cmpeq	r2, r1, lsr r3
     ab4:	0b581755 	bleq	1606810 <_back_addr-0x97f0>
     ab8:	13010b59 	movwne	r0, #7001	; 0x1b59
     abc:	05340000 	ldreq	r0, [r4, #-0]!
     ac0:	02133100 	andseq	r3, r3, #0, 2
     ac4:	35000018 	strcc	r0, [r0, #-24]
     ac8:	13310005 	teqne	r1, #5
     acc:	1d360000 	ldcne	0, cr0, [r6, #-0]
     ad0:	52133101 	andspl	r3, r3, #1073741824	; 0x40000000
     ad4:	58175501 	ldmdapl	r7, {r0, r8, sl, ip, lr}
     ad8:	000b590b 	andeq	r5, fp, fp, lsl #18
     adc:	00053700 	andeq	r3, r5, r0, lsl #14
     ae0:	0b3a0803 	bleq	e82af4 <_back_addr-0x78d50c>
     ae4:	13490b3b 	movtne	r0, #39739	; 0x9b3b
     ae8:	00001702 	andeq	r1, r0, r2, lsl #14
     aec:	03003438 	movweq	r3, #1080	; 0x438
     af0:	3b0b3a0e 	blcc	2cf330 <_back_addr-0x1340cd0>
     af4:	0213490b 	andseq	r4, r3, #180224	; 0x2c000
     af8:	39000017 	stmdbcc	r0, {r0, r1, r2, r4}
     afc:	00018289 	andeq	r8, r1, r9, lsl #5
     b00:	42950111 	addsmi	r0, r5, #1073741828	; 0x40000004
     b04:	00133119 	andseq	r3, r3, r9, lsl r1
     b08:	00343a00 	eorseq	r3, r4, r0, lsl #20
     b0c:	13490e03 	movtne	r0, #40451	; 0x9e03
     b10:	18021934 	stmdane	r2, {r2, r4, r5, r8, fp, ip}
     b14:	2e3b0000 	cdpcs	0, 3, cr0, cr11, cr0, {0}
     b18:	3a0e0301 	bcc	381724 <_back_addr-0x128e8dc>
     b1c:	27053b0b 	strcs	r3, [r5, -fp, lsl #22]
     b20:	010b2019 	tsteq	fp, r9, lsl r0
     b24:	3c000013 	stccc	0, cr0, [r0], {19}
     b28:	193f012e 	ldmdbne	pc!, {r1, r2, r3, r5, r8}	; <UNPREDICTABLE>
     b2c:	0b3a0e03 	bleq	e84340 <_back_addr-0x78bcc0>
     b30:	1927053b 	stmdbne	r7!, {r0, r1, r3, r4, r5, r8, sl}
     b34:	01111349 	tsteq	r1, r9, asr #6
     b38:	18400612 	stmdane	r0, {r1, r4, r9, sl}^
     b3c:	01194297 			; <UNDEFINED> instruction: 0x01194297
     b40:	3d000013 	stccc	0, cr0, [r0, #-76]	; 0xffffffb4
     b44:	0e030005 	cdpeq	0, 0, cr0, cr3, cr5, {0}
     b48:	053b0b3a 	ldreq	r0, [fp, #-2874]!	; 0xb3a
     b4c:	17021349 	strne	r1, [r2, -r9, asr #6]
     b50:	053e0000 	ldreq	r0, [lr, #-0]!
     b54:	3a080300 	bcc	20175c <_back_addr-0x140e8a4>
     b58:	49053b0b 	stmdbmi	r5, {r0, r1, r3, r8, r9, fp, ip, sp}
     b5c:	00170213 	andseq	r0, r7, r3, lsl r2
     b60:	00343f00 	eorseq	r3, r4, r0, lsl #30
     b64:	0b3a0e03 	bleq	e84378 <_back_addr-0x78bc88>
     b68:	1349053b 	movtne	r0, #38203	; 0x953b
     b6c:	00001702 	andeq	r1, r0, r2, lsl #14
     b70:	03003440 	movweq	r3, #1088	; 0x440
     b74:	3b0b3a0e 	blcc	2cf3b4 <_back_addr-0x1340c4c>
     b78:	1c134905 	ldcne	9, cr4, [r3], {5}
     b7c:	4100000a 	tstmi	r0, sl
     b80:	193f012e 	ldmdbne	pc!, {r1, r2, r3, r5, r8}	; <UNPREDICTABLE>
     b84:	0b3a0e03 	bleq	e84398 <_back_addr-0x78bc68>
     b88:	1349053b 	movtne	r0, #38203	; 0x953b
     b8c:	1301193c 	movwne	r1, #6460	; 0x193c
     b90:	2e420000 	cdpcs	0, 4, cr0, cr2, cr0, {0}
     b94:	03193f01 	tsteq	r9, #1, 30
     b98:	3b0b3a0e 	blcc	2cf3d8 <_back_addr-0x1340c28>
     b9c:	11192705 	tstne	r9, r5, lsl #14
     ba0:	40061201 	andmi	r1, r6, r1, lsl #4
     ba4:	19429718 	stmdbne	r2, {r3, r4, r8, r9, sl, ip, pc}^
     ba8:	00001301 	andeq	r1, r0, r1, lsl #6
     bac:	03003443 	movweq	r3, #1091	; 0x443
     bb0:	3b0b3a0e 	blcc	2cf3f0 <_back_addr-0x1340c10>
     bb4:	1c134905 	ldcne	9, cr4, [r3], {5}
     bb8:	44000006 	strmi	r0, [r0], #-6
     bbc:	0e030034 	mcreq	0, 0, r0, cr3, cr4, {1}
     bc0:	053b0b3a 	ldreq	r0, [fp, #-2874]!	; 0xb3a
     bc4:	193f1349 	ldmdbne	pc!, {r0, r3, r6, r8, r9, ip}	; <UNPREDICTABLE>
     bc8:	0000193c 	andeq	r1, r0, ip, lsr r9
     bcc:	03003445 	movweq	r3, #1093	; 0x445
     bd0:	3b0b3a0e 	blcc	2cf410 <_back_addr-0x1340bf0>
     bd4:	3f13490b 	svccc	0x0013490b
     bd8:	00180219 	andseq	r0, r8, r9, lsl r2
     bdc:	012e4600 	teqeq	lr, r0, lsl #12
     be0:	0e03193f 	mcreq	9, 0, r1, cr3, cr15, {1}
     be4:	0b3b0b3a 	bleq	ec38d4 <_back_addr-0x74c72c>
     be8:	13491927 	movtne	r1, #39207	; 0x9927
     bec:	1301193c 	movwne	r1, #6460	; 0x193c
     bf0:	05470000 	strbeq	r0, [r7, #-0]
     bf4:	00134900 	andseq	r4, r3, r0, lsl #18
     bf8:	012e4800 	teqeq	lr, r0, lsl #16
     bfc:	0e03193f 	mcreq	9, 0, r1, cr3, cr15, {1}
     c00:	053b0b3a 	ldreq	r0, [fp, #-2874]!	; 0xb3a
     c04:	193c1927 	ldmdbne	ip!, {r0, r1, r2, r5, r8, fp, ip}
     c08:	00001301 	andeq	r1, r0, r1, lsl #6
     c0c:	3f012e49 	svccc	0x00012e49
     c10:	3a0e0319 	bcc	38187c <_back_addr-0x128e784>
     c14:	27053b0b 	strcs	r3, [r5, -fp, lsl #22]
     c18:	3c134919 	ldccc	9, cr4, [r3], {25}
     c1c:	00130119 	andseq	r0, r3, r9, lsl r1
     c20:	11010000 	mrsne	r0, (UNDEF: 1)
     c24:	130e2501 	movwne	r2, #58625	; 0xe501
     c28:	1b0e030b 	blne	38185c <_back_addr-0x128e7a4>
     c2c:	1201110e 	andne	r1, r1, #-2147483645	; 0x80000003
     c30:	00171006 	andseq	r1, r7, r6
     c34:	00160200 	andseq	r0, r6, r0, lsl #4
     c38:	0b3a0e03 	bleq	e8444c <_back_addr-0x78bbb4>
     c3c:	13490b3b 	movtne	r0, #39739	; 0x9b3b
     c40:	24030000 	strcs	r0, [r3], #-0
     c44:	3e0b0b00 	vmlacc.f64	d0, d11, d0
     c48:	000e030b 	andeq	r0, lr, fp, lsl #6
     c4c:	00240400 	eoreq	r0, r4, r0, lsl #8
     c50:	0b3e0b0b 	bleq	f83884 <_back_addr-0x68c77c>
     c54:	00000803 	andeq	r0, r0, r3, lsl #16
     c58:	3f012e05 	svccc	0x00012e05
     c5c:	3a0e0319 	bcc	3818c8 <_back_addr-0x128e738>
     c60:	270b3b0b 	strcs	r3, [fp, -fp, lsl #22]
     c64:	20134919 	andscs	r4, r3, r9, lsl r9
     c68:	0013010b 	andseq	r0, r3, fp, lsl #2
     c6c:	00050600 	andeq	r0, r5, r0, lsl #12
     c70:	0b3a0e03 	bleq	e84484 <_back_addr-0x78bb7c>
     c74:	13490b3b 	movtne	r0, #39739	; 0x9b3b
     c78:	34070000 	strcc	r0, [r7], #-0
     c7c:	3a0e0300 	bcc	381884 <_back_addr-0x128e77c>
     c80:	490b3b0b 	stmdbmi	fp, {r0, r1, r3, r8, r9, fp, ip, sp}
     c84:	08000013 	stmdaeq	r0, {r0, r1, r4}
     c88:	1331012e 	teqne	r1, #-2147483637	; 0x8000000b
     c8c:	06120111 			; <UNDEFINED> instruction: 0x06120111
     c90:	42971840 	addsmi	r1, r7, #64, 16	; 0x400000
     c94:	00130119 	andseq	r0, r3, r9, lsl r1
     c98:	00050900 	andeq	r0, r5, r0, lsl #18
     c9c:	17021331 	smladxne	r2, r1, r3, r1
     ca0:	050a0000 	streq	r0, [sl, #-0]
     ca4:	02133100 	andseq	r3, r3, #0, 2
     ca8:	0b000018 	bleq	d10 <_back_addr-0x160f2f0>
     cac:	1755010b 	ldrbne	r0, [r5, -fp, lsl #2]
     cb0:	2e0c0000 	cdpcs	0, 0, cr0, cr12, cr0, {0}
     cb4:	03193f01 	tsteq	r9, #1, 30
     cb8:	3b0b3a0e 	blcc	2cf4f8 <_back_addr-0x1340b08>
     cbc:	4919270b 	ldmdbmi	r9, {r0, r1, r3, r8, r9, sl, sp}
     cc0:	12011113 	andne	r1, r1, #-1073741820	; 0xc0000004
     cc4:	97184006 	ldrls	r4, [r8, -r6]
     cc8:	13011942 	movwne	r1, #6466	; 0x1942
     ccc:	050d0000 	streq	r0, [sp, #-0]
     cd0:	3a0e0300 	bcc	3818d8 <_back_addr-0x128e728>
     cd4:	490b3b0b 	stmdbmi	fp, {r0, r1, r3, r8, r9, fp, ip, sp}
     cd8:	00170213 	andseq	r0, r7, r3, lsl r2
     cdc:	00340e00 	eorseq	r0, r4, r0, lsl #28
     ce0:	0b1c1331 	bleq	7059ac <_back_addr-0xf0a654>
     ce4:	0b0f0000 	bleq	3c0cec <_back_addr-0x124f314>
     ce8:	12011101 	andne	r1, r1, #1073741824	; 0x40000000
     cec:	10000006 	andne	r0, r0, r6
     cf0:	13310034 	teqne	r1, #52	; 0x34
     cf4:	2e110000 	cdpcs	0, 1, cr0, cr1, cr0, {0}
     cf8:	03193f01 	tsteq	r9, #1, 30
     cfc:	3b0b3a0e 	blcc	2cf53c <_back_addr-0x1340ac4>
     d00:	1119270b 	tstne	r9, fp, lsl #14
     d04:	40061201 	andmi	r1, r6, r1, lsl #4
     d08:	19429718 	stmdbne	r2, {r3, r4, r8, r9, sl, ip, pc}^
     d0c:	00001301 	andeq	r1, r0, r1, lsl #6
     d10:	03003412 	movweq	r3, #1042	; 0x412
     d14:	3b0b3a0e 	blcc	2cf554 <_back_addr-0x1340aac>
     d18:	0213490b 	andseq	r4, r3, #180224	; 0x2c000
     d1c:	13000017 	movwne	r0, #23
     d20:	1331011d 	teqne	r1, #1073741831	; 0x40000007
     d24:	17550152 			; <UNDEFINED> instruction: 0x17550152
     d28:	0b590b58 	bleq	1643a90 <__bss_end__+0x20e40>
     d2c:	00001301 	andeq	r1, r0, r1, lsl #6
     d30:	31000514 	tstcc	r0, r4, lsl r5
     d34:	000b1c13 	andeq	r1, fp, r3, lsl ip
     d38:	011d1500 	tsteq	sp, r0, lsl #10
     d3c:	01521331 	cmpeq	r2, r1, lsr r3
     d40:	0b581755 	bleq	1606a9c <_back_addr-0x9564>
     d44:	00000b59 	andeq	r0, r0, r9, asr fp
     d48:	3f012e16 	svccc	0x00012e16
     d4c:	3a0e0319 	bcc	3819b8 <_back_addr-0x128e648>
     d50:	270b3b0b 	strcs	r3, [fp, -fp, lsl #22]
     d54:	12011119 	andne	r1, r1, #1073741830	; 0x40000006
     d58:	97184006 	ldrls	r4, [r8, -r6]
     d5c:	00001942 	andeq	r1, r0, r2, asr #18
     d60:	01110100 	tsteq	r1, r0, lsl #2
     d64:	0b130e25 	bleq	4c4600 <_back_addr-0x114ba00>
     d68:	0e1b0e03 	cdpeq	14, 1, cr0, cr11, cr3, {0}
     d6c:	06120111 			; <UNDEFINED> instruction: 0x06120111
     d70:	00001710 	andeq	r1, r0, r0, lsl r7
     d74:	03001602 	movweq	r1, #1538	; 0x602
     d78:	3b0b3a0e 	blcc	2cf5b8 <_back_addr-0x1340a48>
     d7c:	0013490b 	andseq	r4, r3, fp, lsl #18
     d80:	00240300 	eoreq	r0, r4, r0, lsl #6
     d84:	0b3e0b0b 	bleq	f839b8 <_back_addr-0x68c648>
     d88:	00000e03 	andeq	r0, r0, r3, lsl #28
     d8c:	0b002404 	bleq	9da4 <_back_addr-0x160625c>
     d90:	030b3e0b 	movweq	r3, #48651	; 0xbe0b
     d94:	05000008 	streq	r0, [r0, #-8]
     d98:	0b0b000f 	bleq	2c0ddc <_back_addr-0x134f224>
     d9c:	00001349 	andeq	r1, r0, r9, asr #6
     da0:	49002606 	stmdbmi	r0, {r1, r2, r9, sl, sp}
     da4:	07000013 	smladeq	r0, r3, r0, r0
     da8:	0b0b0113 	bleq	2c11fc <_back_addr-0x134ee04>
     dac:	0b3b0b3a 	bleq	ec3a9c <_back_addr-0x74c564>
     db0:	00001301 	andeq	r1, r0, r1, lsl #6
     db4:	03000d08 	movweq	r0, #3336	; 0xd08
     db8:	3b0b3a08 	blcc	2cf5e0 <_back_addr-0x1340a20>
     dbc:	0b13490b 	bleq	4d31f0 <_back_addr-0x113ce10>
     dc0:	0c0b0d0b 	stceq	13, cr0, [fp], {11}
     dc4:	000b380b 	andeq	r3, fp, fp, lsl #16
     dc8:	000d0900 	andeq	r0, sp, r0, lsl #18
     dcc:	0b3a0e03 	bleq	e845e0 <_back_addr-0x78ba20>
     dd0:	13490b3b 	movtne	r0, #39739	; 0x9b3b
     dd4:	0b0d0b0b 	bleq	343a08 <_back_addr-0x12cc5f8>
     dd8:	0b380b0c 	bleq	e03a10 <_back_addr-0x80c5f0>
     ddc:	170a0000 	strne	r0, [sl, -r0]
     de0:	0b0e0301 	bleq	3819ec <_back_addr-0x128e614>
     de4:	3b0b3a0b 	blcc	2cf618 <_back_addr-0x13409e8>
     de8:	0013010b 	andseq	r0, r3, fp, lsl #2
     dec:	000d0b00 	andeq	r0, sp, r0, lsl #22
     df0:	0b3a0e03 	bleq	e84604 <_back_addr-0x78b9fc>
     df4:	13490b3b 	movtne	r0, #39739	; 0x9b3b
     df8:	0d0c0000 	stceq	0, cr0, [ip, #-0]
     dfc:	3a0e0300 	bcc	381a04 <_back_addr-0x128e5fc>
     e00:	49053b0b 	stmdbmi	r5, {r0, r1, r3, r8, r9, fp, ip, sp}
     e04:	0d000013 	stceq	0, cr0, [r0, #-76]	; 0xffffffb4
     e08:	0e030016 	mcreq	0, 0, r0, cr3, cr6, {0}
     e0c:	053b0b3a 	ldreq	r0, [fp, #-2874]!	; 0xb3a
     e10:	00001349 	andeq	r1, r0, r9, asr #6
     e14:	0301130e 	movweq	r1, #4878	; 0x130e
     e18:	3a0b0b0e 	bcc	2c3a58 <_back_addr-0x134c5a8>
     e1c:	01053b0b 	tsteq	r5, fp, lsl #22
     e20:	0f000013 	svceq	0x00000013
     e24:	0e03000d 	cdpeq	0, 0, cr0, cr3, cr13, {0}
     e28:	053b0b3a 	ldreq	r0, [fp, #-2874]!	; 0xb3a
     e2c:	0b381349 	bleq	e05b58 <_back_addr-0x80a4a8>
     e30:	2e100000 	cdpcs	0, 1, cr0, cr0, cr0, {0}
     e34:	3a0e0301 	bcc	381a40 <_back_addr-0x128e5c0>
     e38:	270b3b0b 	strcs	r3, [fp, -fp, lsl #22]
     e3c:	010b2019 	tsteq	fp, r9, lsl r0
     e40:	11000013 	tstne	r0, r3, lsl r0
     e44:	0e030005 	cdpeq	0, 0, cr0, cr3, cr5, {0}
     e48:	0b3b0b3a 	bleq	ec3b38 <_back_addr-0x74c4c8>
     e4c:	00001349 	andeq	r1, r0, r9, asr #6
     e50:	3f012e12 	svccc	0x00012e12
     e54:	3a0e0319 	bcc	381ac0 <_back_addr-0x128e540>
     e58:	270b3b0b 	strcs	r3, [fp, -fp, lsl #22]
     e5c:	010b2019 	tsteq	fp, r9, lsl r0
     e60:	13000013 	movwne	r0, #19
     e64:	08030005 	stmdaeq	r3, {r0, r2}
     e68:	0b3b0b3a 	bleq	ec3b58 <_back_addr-0x74c4a8>
     e6c:	00001349 	andeq	r1, r0, r9, asr #6
     e70:	03003414 	movweq	r3, #1044	; 0x414
     e74:	3b0b3a08 	blcc	2cf69c <_back_addr-0x1340964>
     e78:	0013490b 	andseq	r4, r3, fp, lsl #18
     e7c:	000f1500 	andeq	r1, pc, r0, lsl #10
     e80:	00000b0b 	andeq	r0, r0, fp, lsl #22
     e84:	3f002e16 	svccc	0x00002e16
     e88:	3a0e0319 	bcc	381af4 <_back_addr-0x128e50c>
     e8c:	270b3b0b 	strcs	r3, [fp, -fp, lsl #22]
     e90:	12011119 	andne	r1, r1, #1073741830	; 0x40000006
     e94:	97184006 	ldrls	r4, [r8, -r6]
     e98:	00001942 	andeq	r1, r0, r2, asr #18
     e9c:	3f012e17 	svccc	0x00012e17
     ea0:	3a0e0319 	bcc	381b0c <_back_addr-0x128e4f4>
     ea4:	270b3b0b 	strcs	r3, [fp, -fp, lsl #22]
     ea8:	12011119 	andne	r1, r1, #1073741830	; 0x40000006
     eac:	97184006 	ldrls	r4, [r8, -r6]
     eb0:	13011942 	movwne	r1, #6466	; 0x1942
     eb4:	34180000 	ldrcc	r0, [r8], #-0
     eb8:	3a0e0300 	bcc	381ac0 <_back_addr-0x128e540>
     ebc:	490b3b0b 	stmdbmi	fp, {r0, r1, r3, r8, r9, fp, ip, sp}
     ec0:	00170213 	andseq	r0, r7, r3, lsl r2
     ec4:	00341900 	eorseq	r1, r4, r0, lsl #18
     ec8:	0b3a0e03 	bleq	e846dc <_back_addr-0x78b924>
     ecc:	13490b3b 	movtne	r0, #39739	; 0x9b3b
     ed0:	0000061c 	andeq	r0, r0, ip, lsl r6
     ed4:	0300051a 	movweq	r0, #1306	; 0x51a
     ed8:	3b0b3a0e 	blcc	2cf718 <_back_addr-0x13408e8>
     edc:	0213490b 	andseq	r4, r3, #180224	; 0x2c000
     ee0:	1b000018 	blne	f48 <_back_addr-0x160f0b8>
     ee4:	08030005 	stmdaeq	r3, {r0, r2}
     ee8:	0b3b0b3a 	bleq	ec3bd8 <_back_addr-0x74c428>
     eec:	17021349 	strne	r1, [r2, -r9, asr #6]
     ef0:	341c0000 	ldrcc	r0, [ip], #-0
     ef4:	3a080300 	bcc	201afc <_back_addr-0x140e504>
     ef8:	490b3b0b 	stmdbmi	fp, {r0, r1, r3, r8, r9, fp, ip, sp}
     efc:	00170213 	andseq	r0, r7, r3, lsl r2
     f00:	011d1d00 	tsteq	sp, r0, lsl #26
     f04:	01521331 	cmpeq	r2, r1, lsr r3
     f08:	0b581755 	bleq	1606c64 <_back_addr-0x939c>
     f0c:	13010b59 	movwne	r0, #7001	; 0x1b59
     f10:	051e0000 	ldreq	r0, [lr, #-0]
     f14:	00133100 	andseq	r3, r3, r0, lsl #2
     f18:	011d1f00 	tsteq	sp, r0, lsl #30
     f1c:	01111331 	tsteq	r1, r1, lsr r3
     f20:	0b580612 	bleq	1602770 <_back_addr-0xd890>
     f24:	00000b59 	andeq	r0, r0, r9, asr fp
     f28:	31000520 	tstcc	r0, r0, lsr #10
     f2c:	00180213 	andseq	r0, r8, r3, lsl r2
     f30:	00052100 	andeq	r2, r5, r0, lsl #2
     f34:	0b3a0e03 	bleq	e84748 <_back_addr-0x78b8b8>
     f38:	13490b3b 	movtne	r0, #39739	; 0x9b3b
     f3c:	00001702 	andeq	r1, r0, r2, lsl #14
     f40:	55010b22 	strpl	r0, [r1, #-2850]	; 0xb22
     f44:	23000017 	movwcs	r0, #23
     f48:	193f012e 	ldmdbne	pc!, {r1, r2, r3, r5, r8}	; <UNPREDICTABLE>
     f4c:	0b3a0e03 	bleq	e84760 <_back_addr-0x78b8a0>
     f50:	13490b3b 	movtne	r0, #39739	; 0x9b3b
     f54:	1301193c 	movwne	r1, #6460	; 0x193c
     f58:	18240000 	stmdane	r4!, {}	; <UNPREDICTABLE>
     f5c:	25000000 	strcs	r0, [r0, #-0]
     f60:	01018289 	smlabbeq	r1, r9, r2, r8
     f64:	13310111 	teqne	r1, #1073741828	; 0x40000004
     f68:	00001301 	andeq	r1, r0, r1, lsl #6
     f6c:	01828a26 	orreq	r8, r2, r6, lsr #20
     f70:	91180200 	tstls	r8, r0, lsl #4
     f74:	00001842 	andeq	r1, r0, r2, asr #16
     f78:	01828927 	orreq	r8, r2, r7, lsr #18
     f7c:	95011101 	strls	r1, [r1, #-257]	; 0x101
     f80:	13311942 	teqne	r1, #1081344	; 0x108000
     f84:	35280000 	strcc	r0, [r8, #-0]!
     f88:	00134900 	andseq	r4, r3, r0, lsl #18
     f8c:	00052900 	andeq	r2, r5, r0, lsl #18
     f90:	0b3a0803 	bleq	e82fa4 <_back_addr-0x78d05c>
     f94:	13490b3b 	movtne	r0, #39739	; 0x9b3b
     f98:	00001802 	andeq	r1, r0, r2, lsl #16
     f9c:	31011d2a 	tstcc	r1, sl, lsr #26
     fa0:	55015213 	strpl	r5, [r1, #-531]	; 0x213
     fa4:	590b5817 	stmdbpl	fp, {r0, r1, r2, r4, fp, ip, lr}
     fa8:	2b00000b 	blcs	fdc <_back_addr-0x160f024>
     fac:	1331012e 	teqne	r1, #-2147483637	; 0x8000000b
     fb0:	06120111 			; <UNDEFINED> instruction: 0x06120111
     fb4:	42971840 	addsmi	r1, r7, #64, 16	; 0x400000
     fb8:	00130119 	andseq	r0, r3, r9, lsl r1
     fbc:	00052c00 	andeq	r2, r5, r0, lsl #24
     fc0:	17021331 	smladxne	r2, r1, r3, r1
     fc4:	2e2d0000 	cdpcs	0, 2, cr0, cr13, cr0, {0}
     fc8:	03193f01 	tsteq	r9, #1, 30
     fcc:	3b0b3a0e 	blcc	2cf80c <_back_addr-0x13407f4>
     fd0:	4919270b 	ldmdbmi	r9, {r0, r1, r3, r8, r9, sl, sp}
     fd4:	12011113 	andne	r1, r1, #-1073741820	; 0xc0000004
     fd8:	97184006 	ldrls	r4, [r8, -r6]
     fdc:	13011942 	movwne	r1, #6466	; 0x1942
     fe0:	342e0000 	strtcc	r0, [lr], #-0
     fe4:	3a0e0300 	bcc	381bec <_back_addr-0x128e414>
     fe8:	490b3b0b 	stmdbmi	fp, {r0, r1, r3, r8, r9, fp, ip, sp}
     fec:	00180213 	andseq	r0, r8, r3, lsl r2
     ff0:	00342f00 	eorseq	r2, r4, r0, lsl #30
     ff4:	13490e03 	movtne	r0, #40451	; 0x9e03
     ff8:	18021934 	stmdane	r2, {r2, r4, r5, r8, fp, ip}
     ffc:	1d300000 	ldcne	0, cr0, [r0, #-0]
    1000:	11133101 	tstne	r3, r1, lsl #2
    1004:	58061201 	stmdapl	r6, {r0, r9, ip}
    1008:	010b590b 	tsteq	fp, fp, lsl #18
    100c:	31000013 	tstcc	r0, r3, lsl r0
    1010:	01018289 	smlabbeq	r1, r9, r2, r8
    1014:	13310111 	teqne	r1, #1073741828	; 0x40000004
    1018:	89320000 	ldmdbhi	r2!, {}	; <UNPREDICTABLE>
    101c:	11000182 	smlabbne	r0, r2, r1, r0
    1020:	00133101 	andseq	r3, r3, r1, lsl #2
    1024:	82893300 	addhi	r3, r9, #0, 6
    1028:	01110101 	tsteq	r1, r1, lsl #2
    102c:	31194295 			; <UNDEFINED> instruction: 0x31194295
    1030:	00130113 	andseq	r0, r3, r3, lsl r1
    1034:	00263400 	eoreq	r3, r6, r0, lsl #8
    1038:	01350000 	teqeq	r5, r0
    103c:	01134901 	tsteq	r3, r1, lsl #18
    1040:	36000013 			; <UNDEFINED> instruction: 0x36000013
    1044:	13490021 	movtne	r0, #36897	; 0x9021
    1048:	00000b2f 	andeq	r0, r0, pc, lsr #22
    104c:	31003437 	tstcc	r0, r7, lsr r4
    1050:	00170213 	andseq	r0, r7, r3, lsl r2
    1054:	00343800 	eorseq	r3, r4, r0, lsl #16
    1058:	0b3a0803 	bleq	e8306c <_back_addr-0x78cf94>
    105c:	13490b3b 	movtne	r0, #39739	; 0x9b3b
    1060:	00001802 	andeq	r1, r0, r2, lsl #16
    1064:	3f012e39 	svccc	0x00012e39
    1068:	3a0e0319 	bcc	381cd4 <_back_addr-0x128e32c>
    106c:	27053b0b 	strcs	r3, [r5, -fp, lsl #22]
    1070:	11134919 	tstne	r3, r9, lsl r9
    1074:	40061201 	andmi	r1, r6, r1, lsl #4
    1078:	19429718 	stmdbne	r2, {r3, r4, r8, r9, sl, ip, pc}^
    107c:	00001301 	andeq	r1, r0, r1, lsl #6
    1080:	0300053a 	movweq	r0, #1338	; 0x53a
    1084:	3b0b3a08 	blcc	2cf8ac <_back_addr-0x1340754>
    1088:	02134905 	andseq	r4, r3, #81920	; 0x14000
    108c:	3b000017 	blcc	10f0 <_back_addr-0x160ef10>
    1090:	0e030005 	cdpeq	0, 0, cr0, cr3, cr5, {0}
    1094:	053b0b3a 	ldreq	r0, [fp, #-2874]!	; 0xb3a
    1098:	17021349 	strne	r1, [r2, -r9, asr #6]
    109c:	343c0000 	ldrtcc	r0, [ip], #-0
    10a0:	3a080300 	bcc	201ca8 <_back_addr-0x140e358>
    10a4:	49053b0b 	stmdbmi	r5, {r0, r1, r3, r8, r9, fp, ip, sp}
    10a8:	00170213 	andseq	r0, r7, r3, lsl r2
    10ac:	002e3d00 	eoreq	r3, lr, r0, lsl #26
    10b0:	0e03193f 	mcreq	9, 0, r1, cr3, cr15, {1}
    10b4:	053b0b3a 	ldreq	r0, [fp, #-2874]!	; 0xb3a
    10b8:	01111927 	tsteq	r1, r7, lsr #18
    10bc:	18400612 	stmdane	r0, {r1, r4, r9, sl}^
    10c0:	00194297 	mulseq	r9, r7, r2
    10c4:	012e3e00 	teqeq	lr, r0, lsl #28
    10c8:	0e03193f 	mcreq	9, 0, r1, cr3, cr15, {1}
    10cc:	0b3b0b3a 	bleq	ec3dbc <_back_addr-0x74c244>
    10d0:	193c1349 	ldmdbne	ip!, {r0, r3, r6, r8, r9, ip}
    10d4:	01000000 	mrseq	r0, (UNDEF: 0)
    10d8:	0e250111 	mcreq	1, 1, r0, cr5, cr1, {0}
    10dc:	0e030b13 	vmoveq.32	d3[0], r0
    10e0:	01110e1b 	tsteq	r1, fp, lsl lr
    10e4:	17100612 			; <UNDEFINED> instruction: 0x17100612
    10e8:	24020000 	strcs	r0, [r2], #-0
    10ec:	3e0b0b00 	vmlacc.f64	d0, d11, d0
    10f0:	000e030b 	andeq	r0, lr, fp, lsl #6
    10f4:	01040300 	mrseq	r0, LR_abt
    10f8:	0b3a0b0b 	bleq	e83d2c <_back_addr-0x78c2d4>
    10fc:	13010b3b 	movwne	r0, #6971	; 0x1b3b
    1100:	28040000 	stmdacs	r4, {}	; <UNPREDICTABLE>
    1104:	1c0e0300 	stcne	3, cr0, [lr], {-0}
    1108:	0500000d 	streq	r0, [r0, #-13]
    110c:	0e030016 	mcreq	0, 0, r0, cr3, cr6, {0}
    1110:	0b3b0b3a 	bleq	ec3e00 <_back_addr-0x74c200>
    1114:	00001349 	andeq	r1, r0, r9, asr #6
    1118:	0b002406 	bleq	a138 <_back_addr-0x1605ec8>
    111c:	030b3e0b 	movweq	r3, #48651	; 0xbe0b
    1120:	07000008 	streq	r0, [r0, -r8]
    1124:	0e030104 	adfeqs	f0, f3, f4
    1128:	0b3a0b0b 	bleq	e83d5c <_back_addr-0x78c2a4>
    112c:	13010b3b 	movwne	r0, #6971	; 0x1b3b
    1130:	2e080000 	cdpcs	0, 0, cr0, cr8, cr0, {0}
    1134:	3a0e0301 	bcc	381d40 <_back_addr-0x128e2c0>
    1138:	270b3b0b 	strcs	r3, [fp, -fp, lsl #22]
    113c:	20134919 	andscs	r4, r3, r9, lsl r9
    1140:	0013010b 	andseq	r0, r3, fp, lsl #2
    1144:	00050900 	andeq	r0, r5, r0, lsl #18
    1148:	0b3a0e03 	bleq	e8495c <_back_addr-0x78b6a4>
    114c:	13490b3b 	movtne	r0, #39739	; 0x9b3b
    1150:	2e0a0000 	cdpcs	0, 0, cr0, cr10, cr0, {0}
    1154:	3a0e0301 	bcc	381d60 <_back_addr-0x128e2a0>
    1158:	270b3b0b 	strcs	r3, [fp, -fp, lsl #22]
    115c:	010b2019 	tsteq	fp, r9, lsl r0
    1160:	0b000013 	bleq	11b4 <_back_addr-0x160ee4c>
    1164:	08030005 	stmdaeq	r3, {r0, r2}
    1168:	0b3b0b3a 	bleq	ec3e58 <_back_addr-0x74c1a8>
    116c:	00001349 	andeq	r1, r0, r9, asr #6
    1170:	3f012e0c 	svccc	0x00012e0c
    1174:	3a0e0319 	bcc	381de0 <_back_addr-0x128e220>
    1178:	27053b0b 	strcs	r3, [r5, -fp, lsl #22]
    117c:	20134919 	andscs	r4, r3, r9, lsl r9
    1180:	0013010b 	andseq	r0, r3, fp, lsl #2
    1184:	00050d00 	andeq	r0, r5, r0, lsl #26
    1188:	0b3a0e03 	bleq	e8499c <_back_addr-0x78b664>
    118c:	1349053b 	movtne	r0, #38203	; 0x953b
    1190:	340e0000 	strcc	r0, [lr], #-0
    1194:	3a0e0300 	bcc	381d9c <_back_addr-0x128e264>
    1198:	49053b0b 	stmdbmi	r5, {r0, r1, r3, r8, r9, fp, ip, sp}
    119c:	0f000013 	svceq	0x00000013
    11a0:	193f012e 	ldmdbne	pc!, {r1, r2, r3, r5, r8}	; <UNPREDICTABLE>
    11a4:	0b3a0e03 	bleq	e849b8 <_back_addr-0x78b648>
    11a8:	13490b3b 	movtne	r0, #39739	; 0x9b3b
    11ac:	1301193c 	movwne	r1, #6460	; 0x193c
    11b0:	18100000 	ldmdane	r0, {}	; <UNPREDICTABLE>
    11b4:	11000000 	mrsne	r0, (UNDEF: 0)
    11b8:	1301010b 	movwne	r0, #4363	; 0x110b
    11bc:	2e120000 	cdpcs	0, 1, cr0, cr2, cr0, {0}
    11c0:	03193f01 	tsteq	r9, #1, 30
    11c4:	3b0b3a0e 	blcc	2cfa04 <_back_addr-0x13405fc>
    11c8:	3c13490b 	ldccc	9, cr4, [r3], {11}
    11cc:	13000019 	movwne	r0, #25
    11d0:	193f012e 	ldmdbne	pc!, {r1, r2, r3, r5, r8}	; <UNPREDICTABLE>
    11d4:	0b3a0e03 	bleq	e849e8 <_back_addr-0x78b618>
    11d8:	13490b3b 	movtne	r0, #39739	; 0x9b3b
    11dc:	13010b20 	movwne	r0, #6944	; 0x1b20
    11e0:	2e140000 	cdpcs	0, 1, cr0, cr4, cr0, {0}
    11e4:	03193f01 	tsteq	r9, #1, 30
    11e8:	3b0b3a0e 	blcc	2cfa28 <_back_addr-0x13405d8>
    11ec:	2013490b 	andscs	r4, r3, fp, lsl #18
    11f0:	1500000b 	strne	r0, [r0, #-11]
    11f4:	0000010b 	andeq	r0, r0, fp, lsl #2
    11f8:	3f012e16 	svccc	0x00012e16
    11fc:	3a0e0319 	bcc	381e68 <_back_addr-0x128e198>
    1200:	270b3b0b 	strcs	r3, [fp, -fp, lsl #22]
    1204:	11134919 	tstne	r3, r9, lsl r9
    1208:	40061201 	andmi	r1, r6, r1, lsl #4
    120c:	19429718 	stmdbne	r2, {r3, r4, r8, r9, sl, ip, pc}^
    1210:	00001301 	andeq	r1, r0, r1, lsl #6
    1214:	03000517 	movweq	r0, #1303	; 0x517
    1218:	3b0b3a0e 	blcc	2cfa58 <_back_addr-0x13405a8>
    121c:	0213490b 	andseq	r4, r3, #180224	; 0x2c000
    1220:	18000017 	stmdane	r0, {r0, r1, r2, r4}
    1224:	0e030005 	cdpeq	0, 0, cr0, cr3, cr5, {0}
    1228:	0b3b0b3a 	bleq	ec3f18 <_back_addr-0x74c0e8>
    122c:	18021349 	stmdane	r2, {r0, r3, r6, r8, r9, ip}
    1230:	17190000 	ldrne	r0, [r9, -r0]
    1234:	0b0e0301 	bleq	381e40 <_back_addr-0x128e1c0>
    1238:	3b0b3a0b 	blcc	2cfa6c <_back_addr-0x1340594>
    123c:	0013010b 	andseq	r0, r3, fp, lsl #2
    1240:	000d1a00 	andeq	r1, sp, r0, lsl #20
    1244:	0b3a0803 	bleq	e83258 <_back_addr-0x78cda8>
    1248:	13490b3b 	movtne	r0, #39739	; 0x9b3b
    124c:	341b0000 	ldrcc	r0, [fp], #-0
    1250:	3a080300 	bcc	201e58 <_back_addr-0x140e1a8>
    1254:	490b3b0b 	stmdbmi	fp, {r0, r1, r3, r8, r9, fp, ip, sp}
    1258:	00180213 	andseq	r0, r8, r3, lsl r2
    125c:	00341c00 	eorseq	r1, r4, r0, lsl #24
    1260:	0b3a0803 	bleq	e83274 <_back_addr-0x78cd8c>
    1264:	13490b3b 	movtne	r0, #39739	; 0x9b3b
    1268:	00001702 	andeq	r1, r0, r2, lsl #14
    126c:	55010b1d 	strpl	r0, [r1, #-2845]	; 0xb1d
    1270:	1e000017 	mcrne	0, 0, r0, cr0, cr7, {0}
    1274:	1755010b 	ldrbne	r0, [r5, -fp, lsl #2]
    1278:	00001301 	andeq	r1, r0, r1, lsl #6
    127c:	0182891f 	orreq	r8, r2, pc, lsl r9
    1280:	31011100 	mrscc	r1, (UNDEF: 17)
    1284:	20000013 	andcs	r0, r0, r3, lsl r0
    1288:	01018289 	smlabbeq	r1, r9, r2, r8
    128c:	13310111 	teqne	r1, #1073741828	; 0x40000004
    1290:	8a210000 	bhi	841298 <_back_addr-0xdced68>
    1294:	02000182 	andeq	r0, r0, #-2147483616	; 0x80000020
    1298:	18429118 	stmdane	r2, {r3, r4, r8, ip, pc}^
    129c:	89220000 	stmdbhi	r2!, {}	; <UNPREDICTABLE>
    12a0:	11010182 	smlabbne	r1, r2, r1, r0
    12a4:	01133101 	tsteq	r3, r1, lsl #2
    12a8:	23000013 	movwcs	r0, #19
    12ac:	0b0b000f 	bleq	2c12f0 <_back_addr-0x134ed10>
    12b0:	01240000 	teqeq	r4, r0
    12b4:	01134901 	tsteq	r3, r1, lsl #18
    12b8:	25000013 	strcs	r0, [r0, #-19]
    12bc:	13490021 	movtne	r0, #36897	; 0x9021
    12c0:	00000b2f 	andeq	r0, r0, pc, lsr #22
    12c4:	3f012e26 	svccc	0x00012e26
    12c8:	3a0e0319 	bcc	381f34 <_back_addr-0x128e0cc>
    12cc:	27053b0b 	strcs	r3, [r5, -fp, lsl #22]
    12d0:	11134919 	tstne	r3, r9, lsl r9
    12d4:	40061201 	andmi	r1, r6, r1, lsl #4
    12d8:	19429718 	stmdbne	r2, {r3, r4, r8, r9, sl, ip, pc}^
    12dc:	00001301 	andeq	r1, r0, r1, lsl #6
    12e0:	03003427 	movweq	r3, #1063	; 0x427
    12e4:	3b0b3a08 	blcc	2cfb0c <_back_addr-0x13404f4>
    12e8:	00134905 	andseq	r4, r3, r5, lsl #18
    12ec:	00342800 	eorseq	r2, r4, r0, lsl #16
    12f0:	0b3a0803 	bleq	e83304 <_back_addr-0x78ccfc>
    12f4:	1349053b 	movtne	r0, #38203	; 0x953b
    12f8:	00001702 	andeq	r1, r0, r2, lsl #14
    12fc:	3f012e29 	svccc	0x00012e29
    1300:	3a0e0319 	bcc	381f6c <_back_addr-0x128e094>
    1304:	49053b0b 	stmdbmi	r5, {r0, r1, r3, r8, r9, fp, ip, sp}
    1308:	01193c13 	tsteq	r9, r3, lsl ip
    130c:	2a000013 	bcs	1360 <_back_addr-0x160eca0>
    1310:	0e030005 	cdpeq	0, 0, cr0, cr3, cr5, {0}
    1314:	053b0b3a 	ldreq	r0, [fp, #-2874]!	; 0xb3a
    1318:	17021349 	strne	r1, [r2, -r9, asr #6]
    131c:	342b0000 	strtcc	r0, [fp], #-0
    1320:	3a0e0300 	bcc	381f28 <_back_addr-0x128e0d8>
    1324:	49053b0b 	stmdbmi	r5, {r0, r1, r3, r8, r9, fp, ip, sp}
    1328:	00170213 	andseq	r0, r7, r3, lsl r2
    132c:	011d2c00 	tsteq	sp, r0, lsl #24
    1330:	01111331 	tsteq	r1, r1, lsr r3
    1334:	0b580612 	bleq	1602b84 <_back_addr-0xd47c>
    1338:	00000559 	andeq	r0, r0, r9, asr r5
    133c:	3100052d 	tstcc	r0, sp, lsr #10
    1340:	00170213 	andseq	r0, r7, r3, lsl r2
    1344:	010b2e00 	tsteq	fp, r0, lsl #28
    1348:	06120111 			; <UNDEFINED> instruction: 0x06120111
    134c:	2e2f0000 	cdpcs	0, 2, cr0, cr15, cr0, {0}
    1350:	11133101 	tstne	r3, r1, lsl #2
    1354:	40061201 	andmi	r1, r6, r1, lsl #4
    1358:	19429718 	stmdbne	r2, {r3, r4, r8, r9, sl, ip, pc}^
    135c:	00001301 	andeq	r1, r0, r1, lsl #6
    1360:	31003430 	tstcc	r0, r0, lsr r4
    1364:	00170213 	andseq	r0, r7, r3, lsl r2
    1368:	012e3100 	teqeq	lr, r0, lsl #2
    136c:	0e03193f 	mcreq	9, 0, r1, cr3, cr15, {1}
    1370:	053b0b3a 	ldreq	r0, [fp, #-2874]!	; 0xb3a
    1374:	01111349 	tsteq	r1, r9, asr #6
    1378:	18400612 	stmdane	r0, {r1, r4, r9, sl}^
    137c:	01194297 			; <UNDEFINED> instruction: 0x01194297
    1380:	32000013 	andcc	r0, r0, #19
    1384:	0e030034 	mcreq	0, 0, r0, cr3, cr4, {1}
    1388:	053b0b3a 	ldreq	r0, [fp, #-2874]!	; 0xb3a
    138c:	061c1349 	ldreq	r1, [ip], -r9, asr #6
    1390:	34330000 	ldrtcc	r0, [r3], #-0
    1394:	490e0300 	stmdbmi	lr, {r8, r9}
    1398:	02193413 	andseq	r3, r9, #318767104	; 0x13000000
    139c:	34000018 	strcc	r0, [r0], #-24
    13a0:	1331011d 	teqne	r1, #1073741831	; 0x40000007
    13a4:	17550152 			; <UNDEFINED> instruction: 0x17550152
    13a8:	05590b58 	ldrbeq	r0, [r9, #-2904]	; 0xb58
    13ac:	00001301 	andeq	r1, r0, r1, lsl #6
    13b0:	31000535 	tstcc	r0, r5, lsr r5
    13b4:	000d1c13 	andeq	r1, sp, r3, lsl ip
    13b8:	011d3600 	tsteq	sp, r0, lsl #12
    13bc:	01111331 	tsteq	r1, r1, lsr r3
    13c0:	0b580612 	bleq	1602c10 <_back_addr-0xd3f0>
    13c4:	13010559 	movwne	r0, #5465	; 0x1559
    13c8:	05370000 	ldreq	r0, [r7, #-0]!
    13cc:	1c133100 	ldfnes	f3, [r3], {-0}
    13d0:	38000006 	stmdacc	r0, {r1, r2}
    13d4:	13490026 	movtne	r0, #36902	; 0x9026
    13d8:	34390000 	ldrtcc	r0, [r9], #-0
    13dc:	3a0e0300 	bcc	381fe4 <_back_addr-0x128e01c>
    13e0:	490b3b0b 	stmdbmi	fp, {r0, r1, r3, r8, r9, fp, ip, sp}
    13e4:	00170213 	andseq	r0, r7, r3, lsl r2
    13e8:	010b3a00 	tsteq	fp, r0, lsl #20
    13ec:	06120111 			; <UNDEFINED> instruction: 0x06120111
    13f0:	00001301 	andeq	r1, r0, r1, lsl #6
    13f4:	0182893b 	orreq	r8, r2, fp, lsr r9
    13f8:	95011101 	strls	r1, [r1, #-257]	; 0x101
    13fc:	13311942 	teqne	r1, #1081344	; 0x108000
    1400:	0f3c0000 	svceq	0x003c0000
    1404:	490b0b00 	stmdbmi	fp, {r8, r9, fp}
    1408:	3d000013 	stccc	0, cr0, [r0, #-76]	; 0xffffffb4
    140c:	1347012e 	movtne	r0, #28974	; 0x712e
    1410:	13010b20 	movwne	r0, #6944	; 0x1b20
    1414:	2e3e0000 	cdpcs	0, 3, cr0, cr14, cr0, {0}
    1418:	3c134701 	ldccc	7, cr4, [r3], {1}
    141c:	00130119 	andseq	r0, r3, r9, lsl r1
    1420:	00053f00 	andeq	r3, r5, r0, lsl #30
    1424:	0b3a0803 	bleq	e83438 <_back_addr-0x78cbc8>
    1428:	1349053b 	movtne	r0, #38203	; 0x953b
    142c:	00001702 	andeq	r1, r0, r2, lsl #14
    1430:	03003440 	movweq	r3, #1088	; 0x440
    1434:	3b0b3a08 	blcc	2cfc5c <_back_addr-0x13403a4>
    1438:	1c134905 	ldcne	9, cr4, [r3], {5}
    143c:	4100000b 	tstmi	r0, fp
    1440:	1331011d 	teqne	r1, #1073741831	; 0x40000007
    1444:	17550152 			; <UNDEFINED> instruction: 0x17550152
    1448:	05590b58 	ldrbeq	r0, [r9, #-2904]	; 0xb58
    144c:	05420000 	strbeq	r0, [r2, #-0]
    1450:	3a080300 	bcc	202058 <_back_addr-0x140dfa8>
    1454:	49053b0b 	stmdbmi	r5, {r0, r1, r3, r8, r9, fp, ip, sp}
    1458:	00180213 	andseq	r0, r8, r3, lsl r2
    145c:	00344300 	eorseq	r4, r4, r0, lsl #6
    1460:	0b3a0803 	bleq	e83474 <_back_addr-0x78cb8c>
    1464:	1349053b 	movtne	r0, #38203	; 0x953b
    1468:	00000d1c 	andeq	r0, r0, ip, lsl sp
    146c:	03003444 	movweq	r3, #1092	; 0x444
    1470:	3b0b3a0e 	blcc	2cfcb0 <_back_addr-0x1340350>
    1474:	1c134905 	ldcne	9, cr4, [r3], {5}
    1478:	4500000b 	strmi	r0, [r0, #-11]
    147c:	13310005 	teqne	r1, #5
    1480:	34460000 	strbcc	r0, [r6], #-0
    1484:	3a0e0300 	bcc	38208c <_back_addr-0x128df74>
    1488:	490b3b0b 	stmdbmi	fp, {r0, r1, r3, r8, r9, fp, ip, sp}
    148c:	00180213 	andseq	r0, r8, r3, lsl r2
    1490:	00214700 	eoreq	r4, r1, r0, lsl #14
    1494:	34480000 	strbcc	r0, [r8], #-0
    1498:	3a0e0300 	bcc	3820a0 <_back_addr-0x128df60>
    149c:	490b3b0b 	stmdbmi	fp, {r0, r1, r3, r8, r9, fp, ip, sp}
    14a0:	3c193f13 	ldccc	15, cr3, [r9], {19}
    14a4:	49000019 	stmdbmi	r0, {r0, r3, r4}
    14a8:	0e030034 	mcreq	0, 0, r0, cr3, cr4, {1}
    14ac:	053b0b3a 	ldreq	r0, [fp, #-2874]!	; 0xb3a
    14b0:	193f1349 	ldmdbne	pc!, {r0, r3, r6, r8, r9, ip}	; <UNPREDICTABLE>
    14b4:	00001802 	andeq	r1, r0, r2, lsl #16
    14b8:	3f012e4a 	svccc	0x00012e4a
    14bc:	3a0e0319 	bcc	382128 <_back_addr-0x128ded8>
    14c0:	270b3b0b 	strcs	r3, [fp, -fp, lsl #22]
    14c4:	00193c19 	andseq	r3, r9, r9, lsl ip
    14c8:	00054b00 	andeq	r4, r5, r0, lsl #22
    14cc:	00001349 	andeq	r1, r0, r9, asr #6
	...

Disassembly of section .debug_line:

00000000 <.debug_line>:
       0:	0000004c 	andeq	r0, r0, ip, asr #32
       4:	001e0002 	andseq	r0, lr, r2
       8:	01020000 	mrseq	r0, (UNDEF: 2)
       c:	000d0efb 	strdeq	r0, [sp], -fp
      10:	01010101 	tsteq	r1, r1, lsl #2
      14:	01000000 	mrseq	r0, (UNDEF: 0)
      18:	00010000 	andeq	r0, r1, r0
      1c:	72617473 	rsbvc	r7, r1, #1929379840	; 0x73000000
      20:	00532e74 	subseq	r2, r3, r4, ror lr
      24:	00000000 	andeq	r0, r0, r0
      28:	0c020500 	cfstr32eq	mvfx0, [r2], {-0}
      2c:	03016100 	movweq	r6, #4352	; 0x1100
      30:	2f2f010d 	svccs	0x002f010d
      34:	2f2f302f 	svccs	0x002f302f
      38:	2f2f302f 	svccs	0x002f302f
      3c:	2f2f2f30 	svccs	0x002f2f30
      40:	2f312f2f 	svccs	0x00312f2f
      44:	302f2f2f 	eorcc	r2, pc, pc, lsr #30
      48:	022f2f2f 	eoreq	r2, pc, #47, 30	; 0xbc
      4c:	01010002 	tsteq	r1, r2
      50:	00000036 	andeq	r0, r0, r6, lsr r0
      54:	001f0002 	andseq	r0, pc, r2
      58:	01020000 	mrseq	r0, (UNDEF: 2)
      5c:	000d0efb 	strdeq	r0, [sp], -fp
      60:	01010101 	tsteq	r1, r1, lsl #2
      64:	01000000 	mrseq	r0, (UNDEF: 0)
      68:	00010000 	andeq	r0, r1, r0
      6c:	6c727473 	cfldrdvs	mvd7, [r2], #-460	; 0xfffffe34
      70:	632e6e65 	teqvs	lr, #1616	; 0x650
      74:	00000000 	andeq	r0, r0, r0
      78:	02050000 	andeq	r0, r5, #0
      7c:	01610074 	smceq	4100	; 0x1004
      80:	15013c03 	strne	r3, [r1, #-3075]	; 0xc03
      84:	000402f8 	strdeq	r0, [r4], -r8
      88:	00550101 	subseq	r0, r5, r1, lsl #2
      8c:	00020000 	andeq	r0, r2, r0
      90:	0000001f 	andeq	r0, r0, pc, lsl r0
      94:	0efb0102 	cdpeq	1, 15, cr0, cr11, cr2, {0}
      98:	0101000d 	tsteq	r1, sp
      9c:	00000101 	andeq	r0, r0, r1, lsl #2
      a0:	00000100 	andeq	r0, r0, r0, lsl #2
      a4:	74730001 	ldrbtvc	r0, [r3], #-1
      a8:	72747372 	rsbsvc	r7, r4, #-939524095	; 0xc8000001
      ac:	0000632e 	andeq	r6, r0, lr, lsr #6
      b0:	00000000 	andeq	r0, r0, r0
      b4:	009c0205 	addseq	r0, ip, r5, lsl #4
      b8:	c0030161 	andgt	r0, r3, r1, ror #2
      bc:	62160100 	andsvs	r0, r6, #0, 2
      c0:	04020035 	streq	r0, [r2], #-53	; 0x35
      c4:	82066901 	andhi	r6, r6, #16384	; 0x4000
      c8:	02006806 	andeq	r6, r0, #393216	; 0x60000
      cc:	684e0104 	stmdavs	lr, {r2, r8}^
      d0:	7003a3f0 	strdvc	sl, [r3], -r0
      d4:	2e150382 	cdpcs	3, 1, cr0, cr5, cr2, {4}
      d8:	032e6b03 	teqeq	lr, #3072	; 0xc00
      dc:	02022e15 	andeq	r2, r2, #336	; 0x150
      e0:	c4010100 	strgt	r0, [r1], #-256	; 0x100
      e4:	02000000 	andeq	r0, r0, #0
      e8:	00006f00 	andeq	r6, r0, r0, lsl #30
      ec:	fb010200 	blx	408f6 <_back_addr-0x15cf70a>
      f0:	01000d0e 	tsteq	r0, lr, lsl #26
      f4:	00010101 	andeq	r0, r1, r1, lsl #2
      f8:	00010000 	andeq	r0, r1, r0
      fc:	622f0100 	eorvs	r0, pc, #0, 2
     100:	756b6361 	strbvc	r6, [fp, #-865]!	; 0x361
     104:	64772f70 	ldrbtvs	r2, [r7], #-3952	; 0xf70
     108:	6f6f622f 	svcvs	0x006f622f
     10c:	646f6374 	strbtvs	r6, [pc], #-884	; 114 <_back_addr-0x160feec>
     110:	62752f65 	rsbsvs	r2, r5, #404	; 0x194
     114:	2f746f6f 	svccs	0x00746f6f
     118:	6d617865 	stclvs	8, cr7, [r1, #-404]!	; 0xfffffe6c
     11c:	73656c70 	cmnvc	r5, #112, 24	; 0x7000
     120:	7566652f 	strbvc	r6, [r6, #-1327]!	; 0x52f
     124:	765f6573 			; <UNDEFINED> instruction: 0x765f6573
     128:	66697265 	strbtvs	r7, [r9], -r5, ror #4
     12c:	6e692f79 	mcrvs	15, 3, r2, cr9, cr9, {3}
     130:	64756c63 	ldrbtvs	r6, [r5], #-3171	; 0xc63
     134:	76642f65 	strbtvc	r2, [r4], -r5, ror #30
     138:	6f6f6272 	svcvs	0x006f6272
     13c:	6e695f74 	mcrvs	15, 3, r5, cr9, cr4, {3}
     140:	73000063 	movwvc	r0, #99	; 0x63
     144:	6f747274 	svcvs	0x00747274
     148:	632e6c75 	teqvs	lr, #29952	; 0x7500
     14c:	00000000 	andeq	r0, r0, r0
     150:	70797463 	rsbsvc	r7, r9, r3, ror #8
     154:	00682e65 	rsbeq	r2, r8, r5, ror #28
     158:	00000001 	andeq	r0, r0, r1
     15c:	3c020500 	cfstr32cc	mvfx0, [r2], {-0}
     160:	03016101 	movweq	r6, #4353	; 0x1101
     164:	660100c4 	strvs	r0, [r1], -r4, asr #1
     168:	01040200 	mrseq	r0, R12_usr
     16c:	00660b03 	rsbeq	r0, r6, r3, lsl #22
     170:	4b010402 	blmi	41180 <_back_addr-0x15cee80>
     174:	4c2f4f83 	stcmi	15, cr4, [pc], #-524	; ffffff70 <__bss_end__+0xfe9dd320>
     178:	01040200 	mrseq	r0, R12_usr
     17c:	88064a06 	stmdahi	r6, {r1, r2, r9, fp, lr}
     180:	2d67659f 	cfstr64cs	mvdx6, [r7, #-636]!	; 0xfffffd84
     184:	040200db 	streq	r0, [r2], #-219	; 0xdb
     188:	660b0301 	strvs	r0, [fp], -r1, lsl #6
     18c:	70032cdd 	ldrdvc	r2, [r3], -sp
     190:	2d4b2f2e 	stclcs	15, cr2, [fp, #-184]	; 0xffffff48
     194:	4c854b30 	vstmiami	r5, {d4-d27}
     198:	522f4b4c 	eorpl	r4, pc, #76, 22	; 0x13000
     19c:	57039f68 	strpl	r9, [r3, -r8, ror #30]
     1a0:	2d848982 	stccs	9, cr8, [r4, #520]	; 0x208
     1a4:	08022d30 	stmdaeq	r2, {r4, r5, r8, sl, fp, sp}
     1a8:	24010100 	strcs	r0, [r1], #-256	; 0x100
     1ac:	02000000 	andeq	r0, r0, #0
     1b0:	00001e00 	andeq	r1, r0, r0, lsl #28
     1b4:	fb010200 	blx	409be <_back_addr-0x15cf642>
     1b8:	01000d0e 	tsteq	r0, lr, lsl #26
     1bc:	00010101 	andeq	r0, r1, r1, lsl #2
     1c0:	00010000 	andeq	r0, r1, r0
     1c4:	63000100 	movwvs	r0, #256	; 0x100
     1c8:	65707974 	ldrbvs	r7, [r0, #-2420]!	; 0x974
     1cc:	0000632e 	andeq	r6, r0, lr, lsr #6
     1d0:	ca000000 	bgt	1d8 <_back_addr-0x160fe28>
     1d4:	02000001 	andeq	r0, r0, #1
     1d8:	0000e200 	andeq	lr, r0, r0, lsl #4
     1dc:	fb010200 	blx	409e6 <_back_addr-0x15cf61a>
     1e0:	01000d0e 	tsteq	r0, lr, lsl #26
     1e4:	00010101 	andeq	r0, r1, r1, lsl #2
     1e8:	00010000 	andeq	r0, r1, r0
     1ec:	682f0100 	stmdavs	pc!, {r8}	; <UNPREDICTABLE>
     1f0:	2f656d6f 	svccs	0x00656d6f
     1f4:	69756f6c 	ldmdbvs	r5!, {r2, r3, r5, r6, r8, r9, sl, fp, sp, lr}^
     1f8:	61682f73 	smcvs	33523	; 0x82f3
     1fc:	6b2f6b6e 	blvs	bdafbc <_back_addr-0xa35044>
     200:	6e696c79 	mcrvs	12, 3, r6, cr9, cr9, {3}
     204:	6f6f622f 	svcvs	0x006f622f
     208:	646f6374 	strbtvs	r6, [pc], #-884	; 210 <_back_addr-0x160fdf0>
     20c:	62752f65 	rsbsvs	r2, r5, #404	; 0x194
     210:	2f746f6f 	svccs	0x00746f6f
     214:	6d617865 	stclvs	8, cr7, [r1, #-404]!	; 0xfffffe6c
     218:	73656c70 	cmnvc	r5, #112, 24	; 0x7000
     21c:	7566652f 	strbvc	r6, [r6, #-1327]!	; 0x52f
     220:	765f6573 			; <UNDEFINED> instruction: 0x765f6573
     224:	66697265 	strbtvs	r7, [r9], -r5, ror #4
     228:	6e692f79 	mcrvs	15, 3, r2, cr9, cr9, {3}
     22c:	64756c63 	ldrbtvs	r6, [r5], #-3171	; 0xc63
     230:	682f0065 	stmdavs	pc!, {r0, r2, r5, r6}	; <UNPREDICTABLE>
     234:	2f656d6f 	svccs	0x00656d6f
     238:	69756f6c 	ldmdbvs	r5!, {r2, r3, r5, r6, r8, r9, sl, fp, sp, lr}^
     23c:	61682f73 	smcvs	33523	; 0x82f3
     240:	6b2f6b6e 	blvs	bdb000 <_back_addr-0xa35000>
     244:	6e696c79 	mcrvs	12, 3, r6, cr9, cr9, {3}
     248:	6f6f622f 	svcvs	0x006f622f
     24c:	646f6374 	strbtvs	r6, [pc], #-884	; 254 <_back_addr-0x160fdac>
     250:	62752f65 	rsbsvs	r2, r5, #404	; 0x194
     254:	2f746f6f 	svccs	0x00746f6f
     258:	6d617865 	stclvs	8, cr7, [r1, #-404]!	; 0xfffffe6c
     25c:	73656c70 	cmnvc	r5, #112, 24	; 0x7000
     260:	7566652f 	strbvc	r6, [r6, #-1327]!	; 0x52f
     264:	765f6573 			; <UNDEFINED> instruction: 0x765f6573
     268:	66697265 	strbtvs	r7, [r9], -r5, ror #4
     26c:	6e692f79 	mcrvs	15, 3, r2, cr9, cr9, {3}
     270:	64756c63 	ldrbtvs	r6, [r5], #-3171	; 0xc63
     274:	76642f65 	strbtvc	r2, [r4], -r5, ror #30
     278:	6f6f6272 	svcvs	0x006f6272
     27c:	6e695f74 	mcrvs	15, 3, r5, cr9, cr4, {3}
     280:	76000063 	strvc	r0, [r0], -r3, rrx
     284:	66697265 	strbtvs	r7, [r9], -r5, ror #4
     288:	69616d79 	stmdbvs	r1!, {r0, r3, r4, r5, r6, r8, sl, fp, sp, lr}^
     28c:	00632e6e 	rsbeq	r2, r3, lr, ror #28
     290:	73000000 	movwvc	r0, #0
     294:	65647379 	strbvs	r7, [r4, #-889]!	; 0x379
     298:	682e7366 	stmdavs	lr!, {r1, r2, r5, r6, r8, r9, ip, sp, lr}
     29c:	00000100 	andeq	r0, r0, r0, lsl #2
     2a0:	70797463 	rsbsvc	r7, r9, r3, ror #8
     2a4:	00682e65 	rsbeq	r2, r8, r5, ror #28
     2a8:	6d000002 	stcvs	0, cr0, [r0, #-8]
     2ac:	682e7063 	stmdavs	lr!, {r0, r1, r5, r6, ip, sp, lr}
     2b0:	00000000 	andeq	r0, r0, r0
     2b4:	6c697475 	cfstrdvs	mvd7, [r9], #-468	; 0xfffffe2c
     2b8:	0200682e 	andeq	r6, r0, #3014656	; 0x2e0000
     2bc:	00000000 	andeq	r0, r0, r0
     2c0:	02d00205 	sbcseq	r0, r0, #1342177280	; 0x50000000
     2c4:	fb030161 	blx	c0852 <_back_addr-0x154f7ae>
     2c8:	4d140100 	ldfmis	f0, [r4, #-0]
     2cc:	83166830 	tsthi	r6, #48, 16	; 0x300000
     2d0:	09034e49 	stmdbeq	r3, {r0, r3, r6, r9, sl, fp, lr}
     2d4:	d14b162e 	cmple	fp, lr, lsr #12
     2d8:	0402004f 	streq	r0, [r2], #-79	; 0x4f
     2dc:	2a868102 	bcs	fe1a06ec <__bss_end__+0xfcb7da9c>
     2e0:	31323232 	teqcc	r2, r2, lsr r2
     2e4:	352e7903 	strcc	r7, [lr, #-2307]!	; 0x903
     2e8:	034a2b03 	movteq	r2, #43779	; 0xab03
     2ec:	2f312e52 	svccs	0x00312e52
     2f0:	03663603 	cmneq	r6, #3145728	; 0x300000
     2f4:	13032e4a 	movwne	r2, #15946	; 0x3e4a
     2f8:	4a0c032e 	bmi	300fb8 <_back_addr-0x130f048>
     2fc:	032e7403 	teqeq	lr, #50331648	; 0x3000000
     300:	6a032e16 	bvs	cbb60 <_back_addr-0x15444a0>
     304:	9e0c032e 	cdpls	3, 0, cr0, cr12, cr14, {1}
     308:	03820c03 	orreq	r0, r2, #768	; 0x300
     30c:	1b032e74 	blne	cbce4 <_back_addr-0x154431c>
     310:	7403622e 	strvc	r6, [r3], #-558	; 0x22e
     314:	0336302e 	teqeq	r6, #46	; 0x2e
     318:	312c2e79 	teqcc	ip, r9, ror lr
     31c:	312c312c 	teqcc	ip, ip, lsr #2
     320:	312c312c 	teqcc	ip, ip, lsr #2
     324:	322c312c 	eorcc	r3, ip, #44, 2
     328:	302c332b 	eorcc	r3, ip, fp, lsr #6
     32c:	7103332a 	tstvc	r3, sl, lsr #6
     330:	2e0f032e 	cdpcs	3, 0, cr0, cr15, cr14, {1}
     334:	68842f30 	stmvs	r4, {r4, r5, r8, r9, sl, fp, sp}
     338:	6d660e03 	stclvs	14, cr0, [r6, #-12]!
     33c:	83306767 	teqhi	r0, #27000832	; 0x19c0000
     340:	03bb6a67 			; <UNDEFINED> instruction: 0x03bb6a67
     344:	67667ebe 			; <UNDEFINED> instruction: 0x67667ebe
     348:	b94b6767 	stmdblt	fp, {r0, r1, r2, r5, r6, r8, r9, sl, sp, lr}^
     34c:	6b67672f 	blvs	19da010 <__bss_end__+0x3b73c0>
     350:	502f2d4b 	eorpl	r2, pc, fp, asr #26
     354:	7a03344b 	bvc	cd488 <_back_addr-0x1542b78>
     358:	2e0d032e 	cdpcs	3, 0, cr0, cr13, cr14, {1}
     35c:	a8039f67 	stmdage	r3, {r0, r1, r2, r5, r6, r8, r9, sl, fp, ip, pc}
     360:	e0036601 	and	r6, r3, r1, lsl #12
     364:	a3032e7e 	movwge	r2, #15998	; 0x3e7e
     368:	8703ba01 	strhi	fp, [r3, -r1, lsl #20]
     36c:	1f082e7f 	svcne	0x00082e7f
     370:	0185034b 	orreq	r0, r5, fp, asr #6
     374:	03356882 	teqeq	r5, #8519680	; 0x820000
     378:	03684a70 	cmneq	r8, #112, 20	; 0x70000
     37c:	014f2e0e 	cmpeq	pc, lr, lsl #28
     380:	6623034b 	strtvs	r0, [r3], -fp, asr #6
     384:	2a324632 	bcs	c91c54 <_back_addr-0x97e3ac>
     388:	4b2f2f4e 	blmi	bcc0c8 <_back_addr-0xa43f38>
     38c:	0369504c 	cmneq	r9, #76	; 0x4c
     390:	58036679 	stmdapl	r3, {r0, r3, r4, r5, r6, r9, sl, sp, lr}
     394:	67a14b66 	strvs	r4, [r1, r6, ror #22]!
     398:	6629034b 	strtvs	r0, [r9], -fp, asr #6
     39c:	01000602 	tsteq	r0, r2, lsl #12
     3a0:	0001d501 	andeq	sp, r1, r1, lsl #10
     3a4:	e4000200 	str	r0, [r0], #-512	; 0x200
     3a8:	02000000 	andeq	r0, r0, #0
     3ac:	0d0efb01 	vstreq	d15, [lr, #-4]
     3b0:	01010100 	mrseq	r0, (UNDEF: 17)
     3b4:	00000001 	andeq	r0, r0, r1
     3b8:	01000001 	tsteq	r0, r1
     3bc:	6d6f682f 	stclvs	8, cr6, [pc, #-188]!	; 308 <_back_addr-0x160fcf8>
     3c0:	6f6c2f65 	svcvs	0x006c2f65
     3c4:	2f736975 	svccs	0x00736975
     3c8:	6b6e6168 	blvs	1b98970 <__bss_end__+0x575d20>
     3cc:	6c796b2f 	ldclvs	11, cr6, [r9], #-188	; 0xffffff44
     3d0:	622f6e69 	eorvs	r6, pc, #1680	; 0x690
     3d4:	63746f6f 	cmnvs	r4, #444	; 0x1bc
     3d8:	2f65646f 	svccs	0x0065646f
     3dc:	6f6f6275 	svcvs	0x006f6275
     3e0:	78652f74 	stmdavc	r5!, {r2, r4, r5, r6, r8, r9, sl, fp, sp}^
     3e4:	6c706d61 	ldclvs	13, cr6, [r0], #-388	; 0xfffffe7c
     3e8:	652f7365 	strvs	r7, [pc, #-869]!	; 8b <_back_addr-0x160ff75>
     3ec:	65737566 	ldrbvs	r7, [r3, #-1382]!	; 0x566
     3f0:	7265765f 	rsbvc	r7, r5, #99614720	; 0x5f00000
     3f4:	2f796669 	svccs	0x00796669
     3f8:	2e2f2e2e 	cdpcs	14, 2, cr2, cr15, cr14, {1}
     3fc:	6e692f2e 	cdpvs	15, 6, cr2, cr9, cr14, {1}
     400:	64756c63 	ldrbtvs	r6, [r5], #-3171	; 0xc63
     404:	73612f65 	cmnvc	r1, #404	; 0x194
     408:	682f006d 	stmdavs	pc!, {r0, r2, r3, r5, r6}	; <UNPREDICTABLE>
     40c:	2f656d6f 	svccs	0x00656d6f
     410:	69756f6c 	ldmdbvs	r5!, {r2, r3, r5, r6, r8, r9, sl, fp, sp, lr}^
     414:	61682f73 	smcvs	33523	; 0x82f3
     418:	6b2f6b6e 	blvs	bdb1d8 <_back_addr-0xa34e28>
     41c:	6e696c79 	mcrvs	12, 3, r6, cr9, cr9, {3}
     420:	6f6f622f 	svcvs	0x006f622f
     424:	646f6374 	strbtvs	r6, [pc], #-884	; 42c <_back_addr-0x160fbd4>
     428:	62752f65 	rsbsvs	r2, r5, #404	; 0x194
     42c:	2f746f6f 	svccs	0x00746f6f
     430:	6d617865 	stclvs	8, cr7, [r1, #-404]!	; 0xfffffe6c
     434:	73656c70 	cmnvc	r5, #112, 24	; 0x7000
     438:	7566652f 	strbvc	r6, [r6, #-1327]!	; 0x52f
     43c:	765f6573 			; <UNDEFINED> instruction: 0x765f6573
     440:	66697265 	strbtvs	r7, [r9], -r5, ror #4
     444:	2e2e2f79 	mcrcs	15, 1, r2, cr14, cr9, {3}
     448:	2f2e2e2f 	svccs	0x002e2e2f
     44c:	6c636e69 	stclvs	14, cr6, [r3], #-420	; 0xfffffe5c
     450:	00656475 	rsbeq	r6, r5, r5, ror r4
     454:	63616300 	cmnvs	r1, #0, 6
     458:	765f6568 	ldrbvc	r6, [pc], -r8, ror #10
     45c:	00632e37 	rsbeq	r2, r3, r7, lsr lr
     460:	75000000 	strvc	r0, [r0, #-0]
     464:	736c6974 	cmnvc	ip, #116, 18	; 0x1d0000
     468:	0100682e 	tsteq	r0, lr, lsr #16
     46c:	79740000 	ldmdbvc	r4!, {}^	; <UNPREDICTABLE>
     470:	2e736570 	mrccs	5, 3, r6, cr3, cr0, {3}
     474:	00010068 	andeq	r0, r1, r8, rrx
     478:	6d6f6300 	stclvs	3, cr6, [pc, #-0]	; 480 <_back_addr-0x160fb80>
     47c:	2e6e6f6d 	cdpcs	15, 6, cr6, cr14, cr13, {3}
     480:	00020068 	andeq	r0, r2, r8, rrx
     484:	74656e00 	strbtvc	r6, [r5], #-3584	; 0xe00
     488:	0200682e 	andeq	r6, r0, #3014656	; 0x2e0000
     48c:	00000000 	andeq	r0, r0, r0
     490:	07000205 	streq	r0, [r0, -r5, lsl #4]
     494:	96030161 	strls	r0, [r3], -r1, ror #2
     498:	a5030101 	strge	r0, [r3, #-257]	; 0x101
     49c:	dc032e7f 	stcle	14, cr2, [r3], {127}	; 0x7f
     4a0:	00322e00 	eorseq	r2, r2, r0, lsl #28
     4a4:	50020402 	andpl	r0, r2, r2, lsl #8
     4a8:	02040200 	andeq	r0, r4, #0, 4
     4ac:	672e7a03 	strvs	r7, [lr, -r3, lsl #20]!
     4b0:	8a032d4c 	bhi	cb9e8 <_back_addr-0x1544618>
     4b4:	36314a7f 			; <UNDEFINED> instruction: 0x36314a7f
     4b8:	2e00cf03 	cdpcs	15, 0, cr12, cr0, cr3, {0}
     4bc:	042c3329 	strteq	r3, [ip], #-809	; 0x329
     4c0:	7f9e0302 	svcvc	0x009e0302
     4c4:	0301042e 	movweq	r0, #5166	; 0x142e
     4c8:	042e00e6 	strteq	r0, [lr], #-230	; 0xe6
     4cc:	7f990302 	svcvc	0x00990302
     4d0:	2d2f312e 	stfcss	f3, [pc, #-184]!	; 420 <_back_addr-0x160fbe0>
     4d4:	01042f33 	tsteq	r4, r3, lsr pc
     4d8:	2e00e703 	cdpcs	7, 0, cr14, cr0, cr3, {0}
     4dc:	03312f2d 	teqeq	r1, #45, 30	; 0xb4
     4e0:	342f6654 	strtcc	r6, [pc], #-1620	; 4e8 <_back_addr-0x160fb18>
     4e4:	492e7903 	stmdbmi	lr!, {r0, r1, r8, fp, ip, sp, lr}
     4e8:	034a0d03 	movteq	r0, #44291	; 0xad03
     4ec:	7a032e32 	bvc	cbdbc <_back_addr-0x1544244>
     4f0:	a7036e2e 	strge	r6, [r3, -lr, lsr #28]
     4f4:	2f672e7f 	svccs	0x00672e7f
     4f8:	85032a31 	strhi	r2, [r3, #-2609]	; 0xa31
     4fc:	4d176602 	ldcmi	6, cr6, [r7, #-8]
     500:	0c033131 	stfeqs	f3, [r3], {49}	; 0x31
     504:	0334344a 	teqeq	r4, #1241513984	; 0x4a000000
     508:	012e7f90 			; <UNDEFINED> instruction: 0x012e7f90
     50c:	032d4d2f 	teqeq	sp, #3008	; 0xbc0
     510:	032e00f3 	teqeq	lr, #243	; 0xf3
     514:	012e7eff 	strdeq	r7, [lr, -pc]!
     518:	032d4d2f 	teqeq	sp, #3008	; 0xbc0
     51c:	032f2e27 	teqeq	pc, #624	; 0x270
     520:	034c2e56 	movteq	r2, #52822	; 0xce56
     524:	304c2e71 	subcc	r2, ip, r1, ror lr
     528:	8b033030 	blhi	cc5f0 <_back_addr-0x1543a10>
     52c:	9c034a01 	stcls	10, cr4, [r3], {1}
     530:	94032e7f 	strls	r2, [r3], #-3711	; 0xe7f
     534:	a503017e 	strge	r0, [r3, #-382]	; 0x17e
     538:	2c332e01 	ldccs	14, cr2, [r3], #-4
     53c:	2e4f0330 	mcrcs	3, 2, r0, cr15, cr0, {1}
     540:	032c4c4b 	teqeq	ip, #19200	; 0x4b00
     544:	3903663c 	stmdbcc	r3, {r2, r3, r4, r5, r9, sl, sp, lr}
     548:	2e0f032e 	cdpcs	3, 0, cr0, cr15, cr14, {1}
     54c:	00d70313 	sbcseq	r0, r7, r3, lsl r3
     550:	7f89034a 	svcvc	0x0089034a
     554:	a103012e 	tstge	r3, lr, lsr #2
     558:	a5032e7e 	strge	r2, [r3, #-3710]	; 0xe7e
     55c:	2c332e01 	ldccs	14, cr2, [r3], #-4
     560:	2e5e0330 	mrccs	3, 2, r0, cr14, cr0, {1}
     564:	3532466a 	ldrcc	r4, [r2, #-1642]!	; 0x66a
     568:	31322a32 	teqcc	r2, r2, lsr sl
     56c:	1c032c4c 	stcne	12, cr2, [r3], {76}	; 0x4c
     570:	2e2e0366 	cdpcs	3, 2, cr0, cr14, cr6, {3}
     574:	0002022d 	andeq	r0, r2, sp, lsr #4
     578:	04b20101 	ldrteq	r0, [r2], #257	; 0x101
     57c:	00020000 	andeq	r0, r2, r0
     580:	00000166 	andeq	r0, r0, r6, ror #2
     584:	0efb0102 	cdpeq	1, 15, cr0, cr11, cr2, {0}
     588:	0101000d 	tsteq	r1, sp
     58c:	00000101 	andeq	r0, r0, r1, lsl #2
     590:	00000100 	andeq	r0, r0, r0, lsl #2
     594:	636e6901 	cmnvs	lr, #16384	; 0x4000
     598:	6564756c 	strbvs	r7, [r4, #-1388]!	; 0x56c
     59c:	7276642f 	rsbsvc	r6, r6, #788529152	; 0x2f000000
     5a0:	746f6f62 	strbtvc	r6, [pc], #-3938	; 5a8 <_back_addr-0x160fa58>
     5a4:	636e695f 	cmnvs	lr, #1556480	; 0x17c000
     5a8:	6f682f00 	svcvs	0x00682f00
     5ac:	6c2f656d 	cfstr32vs	mvfx6, [pc], #-436	; 400 <_back_addr-0x160fc00>
     5b0:	7369756f 	cmnvc	r9, #465567744	; 0x1bc00000
     5b4:	6e61682f 	cdpvs	8, 6, cr6, cr1, cr15, {1}
     5b8:	796b2f6b 	stmdbvc	fp!, {r0, r1, r3, r5, r6, r8, r9, sl, fp, sp}^
     5bc:	2f6e696c 	svccs	0x006e696c
     5c0:	746f6f62 	strbtvc	r6, [pc], #-3938	; 5c8 <_back_addr-0x160fa38>
     5c4:	65646f63 	strbvs	r6, [r4, #-3939]!	; 0xf63
     5c8:	6f62752f 	svcvs	0x0062752f
     5cc:	652f746f 	strvs	r7, [pc, #-1135]!	; 165 <_back_addr-0x160fe9b>
     5d0:	706d6178 	rsbvc	r6, sp, r8, ror r1
     5d4:	2f73656c 	svccs	0x0073656c
     5d8:	73756665 	cmnvc	r5, #105906176	; 0x6500000
     5dc:	65765f65 	ldrbvs	r5, [r6, #-3941]!	; 0xf65
     5e0:	79666972 	stmdbvc	r6!, {r1, r4, r5, r6, r8, fp, sp, lr}^
     5e4:	2f2e2e2f 	svccs	0x002e2e2f
     5e8:	692f2e2e 	stmdbvs	pc!, {r1, r2, r3, r5, r9, sl, fp, sp}	; <UNPREDICTABLE>
     5ec:	756c636e 	strbvc	r6, [ip, #-878]!	; 0x36e
     5f0:	612f6564 	teqvs	pc, r4, ror #10
     5f4:	2f006d73 	svccs	0x00006d73
     5f8:	656d6f68 	strbvs	r6, [sp, #-3944]!	; 0xf68
     5fc:	756f6c2f 	strbvc	r6, [pc, #-3119]!	; fffff9d5 <__bss_end__+0xfe9dcd85>
     600:	682f7369 	stmdavs	pc!, {r0, r3, r5, r6, r8, r9, ip, sp, lr}	; <UNPREDICTABLE>
     604:	2f6b6e61 	svccs	0x006b6e61
     608:	696c796b 	stmdbvs	ip!, {r0, r1, r3, r5, r6, r8, fp, ip, sp, lr}^
     60c:	6f622f6e 	svcvs	0x00622f6e
     610:	6f63746f 	svcvs	0x0063746f
     614:	752f6564 	strvc	r6, [pc, #-1380]!	; b8 <_back_addr-0x160ff48>
     618:	746f6f62 	strbtvc	r6, [pc], #-3938	; 620 <_back_addr-0x160f9e0>
     61c:	6178652f 	cmnvs	r8, pc, lsr #10
     620:	656c706d 	strbvs	r7, [ip, #-109]!	; 0x6d
     624:	66652f73 	uqsub16vs	r2, r5, r3
     628:	5f657375 	svcpl	0x00657375
     62c:	69726576 	ldmdbvs	r2!, {r1, r2, r4, r5, r6, r8, sl, sp, lr}^
     630:	2e2f7966 	cdpcs	9, 2, cr7, cr15, cr6, {3}
     634:	2e2e2f2e 	cdpcs	15, 2, cr2, cr14, cr14, {1}
     638:	636e692f 	cmnvs	lr, #770048	; 0xbc000
     63c:	6564756c 	strbvs	r7, [r4, #-1388]!	; 0x56c
     640:	6e696c2f 	cdpvs	12, 6, cr6, cr9, cr15, {1}
     644:	2f007875 	svccs	0x00007875
     648:	656d6f68 	strbvs	r6, [sp, #-3944]!	; 0xf68
     64c:	756f6c2f 	strbvc	r6, [pc, #-3119]!	; fffffa25 <__bss_end__+0xfe9dcdd5>
     650:	682f7369 	stmdavs	pc!, {r0, r3, r5, r6, r8, r9, ip, sp, lr}	; <UNPREDICTABLE>
     654:	2f6b6e61 	svccs	0x006b6e61
     658:	696c796b 	stmdbvs	ip!, {r0, r1, r3, r5, r6, r8, fp, ip, sp, lr}^
     65c:	6f622f6e 	svcvs	0x00622f6e
     660:	6f63746f 	svcvs	0x0063746f
     664:	752f6564 	strvc	r6, [pc, #-1380]!	; 108 <_back_addr-0x160fef8>
     668:	746f6f62 	strbtvc	r6, [pc], #-3938	; 670 <_back_addr-0x160f990>
     66c:	6178652f 	cmnvs	r8, pc, lsr #10
     670:	656c706d 	strbvs	r7, [ip, #-109]!	; 0x6d
     674:	66652f73 	uqsub16vs	r2, r5, r3
     678:	5f657375 	svcpl	0x00657375
     67c:	69726576 	ldmdbvs	r2!, {r1, r2, r4, r5, r6, r8, sl, sp, lr}^
     680:	2e2f7966 	cdpcs	9, 2, cr7, cr15, cr6, {3}
     684:	2e2e2f2e 	cdpcs	15, 2, cr2, cr14, cr14, {1}
     688:	636e692f 	cmnvs	lr, #770048	; 0xbc000
     68c:	6564756c 	strbvs	r7, [r4, #-1388]!	; 0x56c
     690:	636d0000 	cmnvs	sp, #0
     694:	00632e70 	rsbeq	r2, r3, r0, ror lr
     698:	69000000 	stmdbvs	r0, {}	; <UNPREDICTABLE>
     69c:	00682e6f 	rsbeq	r2, r8, pc, ror #28
     6a0:	70000001 	andvc	r0, r0, r1
     6a4:	7869736f 	stmdavc	r9!, {r0, r1, r2, r3, r5, r6, r8, r9, ip, sp, lr}^
     6a8:	7079745f 	rsbsvc	r7, r9, pc, asr r4
     6ac:	682e7365 	stmdavs	lr!, {r0, r2, r5, r6, r8, r9, ip, sp, lr}
     6b0:	00000200 	andeq	r0, r0, r0, lsl #4
     6b4:	65707974 	ldrbvs	r7, [r0, #-2420]!	; 0x974
     6b8:	00682e73 	rsbeq	r2, r8, r3, ror lr
     6bc:	6d000003 	stcvs	0, cr0, [r0, #-12]
     6c0:	682e7063 	stmdavs	lr!, {r0, r1, r5, r6, ip, sp, lr}
     6c4:	00000000 	andeq	r0, r0, r0
     6c8:	6d6d6f63 	stclvs	15, cr6, [sp, #-396]!	; 0xfffffe74
     6cc:	682e6e6f 	stmdavs	lr!, {r0, r1, r2, r3, r5, r6, r9, sl, fp, sp, lr}
     6d0:	00000400 	andeq	r0, r0, r0, lsl #8
     6d4:	2e74656e 	cdpcs	5, 7, cr6, cr4, cr14, {3}
     6d8:	00040068 	andeq	r0, r4, r8, rrx
     6dc:	72747300 	rsbsvc	r7, r4, #0, 6
     6e0:	2e676e69 	cdpcs	14, 6, cr6, cr7, cr9, {3}
     6e4:	00030068 	andeq	r0, r3, r8, rrx
     6e8:	05000000 	streq	r0, [r0, #-0]
     6ec:	61091802 	tstvs	r9, r2, lsl #16
     6f0:	05a60301 	streq	r0, [r6, #769]!	; 0x301
     6f4:	2e0b0301 	cdpcs	3, 0, cr0, cr11, cr1, {0}
     6f8:	64305a08 	ldrtvs	r5, [r0], #-2568	; 0xa08
     6fc:	03834e30 	orreq	r4, r3, #48, 28	; 0x300
     700:	73032e0d 	movwvc	r2, #15885	; 0x3e0d
     704:	4a0d032e 	bmi	3413c4 <_back_addr-0x12cec3c>
     708:	042e0f03 	strteq	r0, [lr], #-3843	; 0xf03
     70c:	7b8f0302 	blvc	fe3c131c <__bss_end__+0xfcd9e6cc>
     710:	66650301 	strbtvs	r0, [r5], -r1, lsl #6
     714:	032e1b03 	teqeq	lr, #3072	; 0xc00
     718:	01044a65 	tsteq	r4, r5, ror #20
     71c:	2e059103 	mvfcss	f1, f3
     720:	02040200 	andeq	r0, r4, #0, 4
     724:	032f5249 	teqeq	pc, #-1879048188	; 0x90000004
     728:	192e7ea5 	stmdbne	lr!, {r0, r2, r5, r7, r9, sl, fp, ip, sp, lr}
     72c:	044a7903 	strbeq	r7, [sl], #-2307	; 0x903
     730:	7cdd0302 	ldclvc	3, cr0, [sp], {2}
     734:	0301042e 	movweq	r0, #5166	; 0x142e
     738:	046603b8 	strbteq	r0, [r6], #-952	; 0x3b8
     73c:	7cc80302 	stclvc	3, cr0, [r8], {2}
     740:	0301042e 	movweq	r0, #5166	; 0x142e
     744:	046603ba 	strbteq	r0, [r6], #-954	; 0x3ba
     748:	7cc60302 	stclvc	3, cr0, [r6], {2}
     74c:	0301042e 	movweq	r0, #5166	; 0x142e
     750:	042e03bc 	strteq	r0, [lr], #-956	; 0x3bc
     754:	7cc40302 	stclvc	3, cr0, [r4], {2}
     758:	0301042e 	movweq	r0, #5166	; 0x142e
     75c:	039e03bc 	orrseq	r0, lr, #188, 6	; 0xf0000002
     760:	2f2e00cf 	svccs	0x002e00cf
     764:	f4030204 	vst1.8	{d0-d3}, [r3], r4
     768:	01042e7b 	tsteq	r4, fp, ror lr
     76c:	4a049003 	bmi	124780 <_back_addr-0x14eb880>
     770:	d5030204 	strle	r0, [r3, #-516]	; 0x204
     774:	01042e7b 	tsteq	r4, fp, ror lr
     778:	2e04ad03 	cdpcs	13, 0, cr10, cr4, cr3, {0}
     77c:	4a0e03a0 	bmi	381604 <_back_addr-0x128e9fc>
     780:	0302044b 	movweq	r0, #9291	; 0x244b
     784:	042e7bc2 	strteq	r7, [lr], #-3010	; 0xbc2
     788:	04ad0301 	strteq	r0, [sp], #769	; 0x301
     78c:	03020466 	movweq	r0, #9318	; 0x2466
     790:	044a7bd3 	strbeq	r7, [sl], #-3027	; 0xbd3
     794:	04cb0301 	strbeq	r0, [fp], #769	; 0x301
     798:	042d2f66 	strteq	r2, [sp], #-3942	; 0xf66
     79c:	7bd00302 	blvc	ff4013ac <__bss_end__+0xfddde75c>
     7a0:	d665032e 	strbtle	r0, [r5], -lr, lsr #6
     7a4:	d0030104 	andle	r0, r3, r4, lsl #2
     7a8:	02042e04 	andeq	r2, r4, #4, 28	; 0x40
     7ac:	827bcb03 	rsbshi	ip, fp, #3072	; 0xc00
     7b0:	a0030104 	andge	r0, r3, r4, lsl #2
     7b4:	02046604 	andeq	r6, r4, #4, 12	; 0x400000
     7b8:	2e7be003 	cdpcs	0, 7, cr14, cr11, cr3, {0}
     7bc:	ab030104 	blge	c0bd4 <_back_addr-0x154f42c>
     7c0:	b7034a03 	strlt	r4, [r3, -r3, lsl #20]
     7c4:	4d1a4a7c 	vldrmi	s8, [sl, #-496]	; 0xfffffe10
     7c8:	73030204 	movwvc	r0, #12804	; 0x3204
     7cc:	0301044a 	movweq	r0, #5194	; 0x144a
     7d0:	04664a0d 	strbteq	r4, [r6], #-2573	; 0xa0d
     7d4:	04020002 	streq	r0, [r2], #-2
     7d8:	4a730303 	bmi	1cc13ec <__bss_end__+0x69e79c>
     7dc:	0301044d 	movweq	r0, #5197	; 0x144d
     7e0:	2d2f660d 	stccs	6, cr6, [pc, #-52]!	; 7b4 <_back_addr-0x160f84c>
     7e4:	70030204 	andvc	r0, r3, r4, lsl #4
     7e8:	1803852e 	stmdane	r3, {r1, r2, r3, r5, r8, sl, pc}
     7ec:	6203692e 	andvs	r6, r3, #753664	; 0xb8000
     7f0:	1803692e 	stmdane	r3, {r1, r2, r3, r5, r8, fp, sp, lr}
     7f4:	6203852e 	andvs	r8, r3, #192937984	; 0xb800000
     7f8:	1803694a 	stmdane	r3, {r1, r3, r6, r8, fp, sp, lr}
     7fc:	6203852e 	andvs	r8, r3, #192937984	; 0xb800000
     800:	1803694a 	stmdane	r3, {r1, r3, r6, r8, fp, sp, lr}
     804:	0447852e 	strbeq	r8, [r7], #-1326	; 0x52e
     808:	02042901 	andeq	r2, r4, #16384	; 0x4000
     80c:	042b3133 	strteq	r3, [fp], #-307	; 0x133
     810:	02042a01 	andeq	r2, r4, #4096	; 0x1000
     814:	042b3132 	strteq	r3, [fp], #-306	; 0x132
     818:	02042b01 	andeq	r2, r4, #1024	; 0x400
     81c:	042b3131 	strteq	r3, [fp], #-305	; 0x131
     820:	02042c01 	andeq	r2, r4, #256	; 0x100
     824:	2f010430 	svccs	0x00010430
     828:	04300204 	ldrteq	r0, [r0], #-516	; 0x204
     82c:	02042c01 	andeq	r2, r4, #256	; 0x100
     830:	319e6603 	orrscc	r6, lr, r3, lsl #12
     834:	4a1b032b 	bmi	6c14e8 <_back_addr-0xf4eb18>
     838:	01042b69 	tsteq	r4, r9, ror #22
     83c:	6702042d 	strvs	r0, [r2, -sp, lsr #8]
     840:	2ba12b69 	blcs	fe84b5ec <__bss_end__+0xfd22899c>
     844:	2ba12ba1 	blcs	fe84b6d0 <__bss_end__+0xfd228a80>
     848:	694a6503 	stmdbvs	sl, {r0, r1, r8, sl, sp, lr}^
     84c:	4a1b032b 	bmi	6c1500 <_back_addr-0xf4eb00>
     850:	65032b69 	strvs	r2, [r3, #-2921]	; 0xb69
     854:	032b694a 	teqeq	fp, #1212416	; 0x128000
     858:	2b694a1b 	blcs	1a530cc <__bss_end__+0x43047c>
     85c:	694a6503 	stmdbvs	sl, {r0, r1, r8, sl, sp, lr}^
     860:	4a1b032b 	bmi	6c1514 <_back_addr-0xf4eaec>
     864:	65032b69 	strvs	r2, [r3, #-2921]	; 0xb69
     868:	042b694a 	strteq	r6, [fp], #-2378	; 0x94a
     86c:	4a1d0301 	bmi	741478 <_back_addr-0xeceb88>
     870:	4d2f852e 	cfstr32mi	mvfx8, [pc, #-184]!	; 7c0 <_back_addr-0x160f840>
     874:	4b4b4b51 	blmi	12d35c0 <_back_addr-0x33ca40>
     878:	2c314c4b 	ldccs	12, cr4, [r1], #-300	; 0xfffffed4
     87c:	032d302f 	teqeq	sp, #47	; 0x2f
     880:	03692e71 	cmneq	r9, #1808	; 0x710
     884:	034e667a 	movteq	r6, #59002	; 0xe67a
     888:	2e312e0f 	cdpcs	14, 3, cr2, cr1, cr15, {0}
     88c:	514d2f85 	smlalbbpl	r2, sp, r5, pc	; <UNPREDICTABLE>
     890:	4b4b4b4b 	blmi	12d35c4 <_back_addr-0x33ca3c>
     894:	2f2c314c 	svccs	0x002c314c
     898:	71032d30 	tstvc	r3, r0, lsr sp
     89c:	7a03692e 	bvc	dad5c <_back_addr-0x15352a4>
     8a0:	0f034e66 	svceq	0x00034e66
     8a4:	852e312e 	strhi	r3, [lr, #-302]!	; 0x12e
     8a8:	4b524d2f 	blmi	1493d6c <_back_addr-0x17c294>
     8ac:	4c4b4b4b 	mcrrmi	11, 4, r4, fp, cr11
     8b0:	302f2c31 	eorcc	r2, pc, r1, lsr ip	; <UNPREDICTABLE>
     8b4:	2e71032d 	cdpcs	3, 7, cr0, cr1, cr13, {1}
     8b8:	82790369 	rsbshi	r0, r9, #-1543503871	; 0xa4000001
     8bc:	2e0f034f 	cdpcs	3, 0, cr0, cr15, cr15, {2}
     8c0:	2f862e32 	svccs	0x00862e32
     8c4:	4a09034f 	bmi	241608 <_back_addr-0x13ce9f8>
     8c8:	4b4b4b4b 	blmi	12d35fc <_back_addr-0x33ca04>
     8cc:	2f2c3150 	svccs	0x002c3150
     8d0:	09032f2f 	stmdbeq	r3, {r0, r1, r2, r3, r5, r8, r9, sl, fp, sp}
     8d4:	2e790366 	cdpcs	3, 7, cr0, cr9, cr6, {3}
     8d8:	4f9e6803 	svcmi	0x009e6803
     8dc:	03f32f45 	mvnseq	r2, #276	; 0x114
     8e0:	03f34a79 	mvnseq	r4, #495616	; 0x79000
     8e4:	692e4a26 	stmdbvs	lr!, {r1, r2, r5, r9, fp, lr}
     8e8:	4a09032f 	bmi	2415ac <_back_addr-0x13cea54>
     8ec:	6b2a6b2a 	blvs	a9b59c <_back_addr-0xb74a64>
     8f0:	6232632a 	eorsvs	r6, r2, #-1476395008	; 0xa8000000
     8f4:	2d2e0903 	stccs	9, cr0, [lr, #-12]!
     8f8:	69174e2f 	ldmdbvs	r7, {r0, r1, r2, r3, r5, r9, sl, fp, lr}
     8fc:	6e4a7803 	cdpvs	8, 4, cr7, cr10, cr3, {0}
     900:	4b4f2f69 	blmi	13cc6ac <_back_addr-0x243954>
     904:	2c653049 	stclcs	0, cr3, [r5], #-292	; 0xfffffedc
     908:	2a2c4c32 	bcs	b139d8 <_back_addr-0xafc628>
     90c:	032e0903 	teqeq	lr, #49152	; 0xc000
     910:	b4032e09 	strlt	r2, [r3], #-3593	; 0xe09
     914:	cf034a03 	svcgt	0x00034a03
     918:	b103ba7c 	tstlt	r3, ip, ror sl
     91c:	cf034a03 	svcgt	0x00034a03
     920:	b2034a7c 	andlt	r4, r3, #124, 20	; 0x7c000
     924:	21082e03 	tstcs	r8, r3, lsl #28
     928:	7cc203f3 	stclvc	3, cr0, [r2], {243}	; 0xf3
     92c:	2f2d2008 	svccs	0x002d2008
     930:	2f312b4d 	svccs	0x00312b4d
     934:	0d03312b 	stfeqs	f3, [r3, #-172]	; 0xffffff54
     938:	2e5a0366 	cdpcs	3, 5, cr0, cr10, cr6, {3}
     93c:	32662603 	rsbcc	r2, r6, #3145728	; 0x300000
     940:	2fa46315 	svccs	0x00a46315
     944:	034c2c4f 	movteq	r2, #52303	; 0xcc4f
     948:	4b4b2e09 	blmi	12cc174 <_back_addr-0x343e8c>
     94c:	334d4b4b 	movtcc	r4, #56139	; 0xdb4b
     950:	2d322f2a 	ldccs	15, cr2, [r2, #-168]!	; 0xffffff58
     954:	4b2e6d03 	blmi	b9bd68 <_back_addr-0xa74298>
     958:	30653049 	rsbcc	r3, r5, r9, asr #32
     95c:	82100367 	andshi	r0, r0, #-1677721599	; 0x9c000001
     960:	0a038285 	beq	e137c <_back_addr-0x152ec84>
     964:	02042f2e 	andeq	r2, r4, #46, 30	; 0xb8
     968:	2e7e8c03 	cdpcs	12, 7, cr8, cr14, cr3, {0}
     96c:	85030104 	strhi	r0, [r3, #-260]	; 0x104
     970:	02044a02 	andeq	r4, r4, #8192	; 0x2000
     974:	2e7dfb03 	vaddcs.f64	d31, d13, d3
     978:	85030104 	strhi	r0, [r3, #-260]	; 0x104
     97c:	a1318202 	teqge	r1, r2, lsl #4
     980:	2f498486 	svccs	0x00498486
     984:	a22f4b49 	eorge	r4, pc, #74752	; 0x12400
     988:	ea030204 	b	c11a0 <_back_addr-0x154ee60>
     98c:	0104827d 	tsteq	r4, sp, ror r2
     990:	4a029603 	bmi	a61a4 <_back_addr-0x1569e5c>
     994:	ea030204 	b	c11ac <_back_addr-0x154ee54>
     998:	6503667d 	strvs	r6, [r3, #-1661]	; 0x67d
     99c:	0301042e 	movweq	r0, #5166	; 0x142e
     9a0:	042e02ba 	strteq	r0, [lr], #-698	; 0x2ba
     9a4:	7de10302 	stclvc	3, cr0, [r1, #8]!
     9a8:	2e65032e 	cdpcs	3, 6, cr0, cr5, cr14, {1}
     9ac:	bb030104 	bllt	c0dc4 <_back_addr-0x154f23c>
     9b0:	4e852e02 	cdpmi	14, 8, cr2, cr5, cr2, {0}
     9b4:	be030204 	cdplt	2, 0, cr0, cr3, cr4, {0}
     9b8:	01044a7d 	tsteq	r4, sp, ror sl
     9bc:	2e02bb03 	vmlacs.f64	d11, d2, d3
     9c0:	4b4a0a03 	blmi	12831d4 <_back_addr-0x38ce2c>
     9c4:	4b67672d 	blmi	19da680 <__bss_end__+0x3b7a30>
     9c8:	75032f67 	strvc	r2, [r3, #-3943]	; 0xf67
     9cc:	0a03674a 	beq	da6fc <_back_addr-0x1535904>
     9d0:	4a57032e 	bmi	15c1690 <_back_addr-0x4e970>
     9d4:	15ba2b03 	ldrne	r2, [sl, #2819]!	; 0xb03
     9d8:	2e230367 	cdpcs	3, 2, cr0, cr3, cr7, {3}
     9dc:	a52e5903 	strge	r5, [lr, #-2307]!	; 0x903
     9e0:	4c2c502f 	stcmi	0, cr5, [ip], #-188	; 0xffffff44
     9e4:	4b2e0b03 	blmi	b835f8 <_back_addr-0xa8ca08>
     9e8:	4b4b4b4b 	blmi	12d371c <_back_addr-0x33c8e4>
     9ec:	314d4b4b 	cmpcc	sp, fp, asr #22
     9f0:	2d302f2c 	ldccs	15, cr2, [r0, #-176]!	; 0xffffff50
     9f4:	032e6303 	teqeq	lr, #201326592	; 0xc000000
     9f8:	68032e1e 	stmdavs	r3, {r1, r2, r3, r4, r9, sl, fp, sp}
     9fc:	30494b2e 	subcc	r4, r9, lr, lsr #22
     a00:	4d653165 	stfmie	f3, [r5, #-404]!	; 0xfffffe6c
     a04:	2f673047 	svccs	0x00673047
     a08:	8202ba03 	andhi	fp, r2, #12288	; 0x3000
     a0c:	03040200 	movweq	r0, #16896	; 0x4200
     a10:	0402006c 	streq	r0, [r2], #-108	; 0x6c
     a14:	02002d03 	andeq	r2, r0, #3, 26	; 0xc0
     a18:	002d0304 	eoreq	r0, sp, r4, lsl #6
     a1c:	30030402 	andcc	r0, r3, r2, lsl #8
     a20:	03040200 	movweq	r0, #16896	; 0x4200
     a24:	0402002f 	streq	r0, [r2], #-47	; 0x2f
     a28:	02332b03 	eorseq	r2, r3, #3072	; 0xc00
     a2c:	01010002 	tsteq	r1, r2
     a30:	00000115 	andeq	r0, r0, r5, lsl r1
     a34:	006f0002 	rsbeq	r0, pc, r2
     a38:	01020000 	mrseq	r0, (UNDEF: 2)
     a3c:	000d0efb 	strdeq	r0, [sp], -fp
     a40:	01010101 	tsteq	r1, r1, lsl #2
     a44:	01000000 	mrseq	r0, (UNDEF: 0)
     a48:	2f010000 	svccs	0x00010000
     a4c:	656d6f68 	strbvs	r6, [sp, #-3944]!	; 0xf68
     a50:	756f6c2f 	strbvc	r6, [pc, #-3119]!	; fffffe29 <__bss_end__+0xfe9dd1d9>
     a54:	682f7369 	stmdavs	pc!, {r0, r3, r5, r6, r8, r9, ip, sp, lr}	; <UNPREDICTABLE>
     a58:	2f6b6e61 	svccs	0x006b6e61
     a5c:	696c796b 	stmdbvs	ip!, {r0, r1, r3, r5, r6, r8, fp, ip, sp, lr}^
     a60:	6f622f6e 	svcvs	0x00622f6e
     a64:	6f63746f 	svcvs	0x0063746f
     a68:	752f6564 	strvc	r6, [pc, #-1380]!	; 50c <_back_addr-0x160faf4>
     a6c:	746f6f62 	strbtvc	r6, [pc], #-3938	; a74 <_back_addr-0x160f58c>
     a70:	6178652f 	cmnvs	r8, pc, lsr #10
     a74:	656c706d 	strbvs	r7, [ip, #-109]!	; 0x6d
     a78:	66652f73 	uqsub16vs	r2, r5, r3
     a7c:	5f657375 	svcpl	0x00657375
     a80:	69726576 	ldmdbvs	r2!, {r1, r2, r4, r5, r6, r8, sl, sp, lr}^
     a84:	692f7966 	stmdbvs	pc!, {r1, r2, r5, r6, r8, fp, ip, sp, lr}	; <UNPREDICTABLE>
     a88:	756c636e 	strbvc	r6, [ip, #-878]!	; 0x36e
     a8c:	00006564 	andeq	r6, r0, r4, ror #10
     a90:	656d6974 	strbvs	r6, [sp, #-2420]!	; 0x974
     a94:	00632e72 	rsbeq	r2, r3, r2, ror lr
     a98:	73000000 	movwvc	r0, #0
     a9c:	65647379 	strbvs	r7, [r4, #-889]!	; 0x379
     aa0:	682e7366 	stmdavs	lr!, {r1, r2, r5, r6, r8, r9, ip, sp, lr}
     aa4:	00000100 	andeq	r0, r0, r0, lsl #2
     aa8:	02050000 	andeq	r0, r5, #0
     aac:	0161151c 	cmneq	r1, ip, lsl r5
     ab0:	14011303 	strne	r1, [r1], #-771	; 0x303
     ab4:	0d034d4b 	stceq	13, cr4, [r3, #-300]	; 0xfffffed4
     ab8:	4a730366 	bmi	1cc1858 <__bss_end__+0x69ec08>
     abc:	032e0d03 	teqeq	lr, #3, 26	; 0xc0
     ac0:	13032e6d 	movwne	r2, #15981	; 0x3e6d
     ac4:	2e73032e 	cdpcs	3, 7, cr0, cr3, cr14, {1}
     ac8:	2e0c0331 	mcrcs	3, 0, r0, cr12, cr1, {1}
     acc:	032e7403 	teqeq	lr, #50331648	; 0x3000000
     ad0:	77032e0c 	strvc	r2, [r3, -ip, lsl #28]
     ad4:	5030352e 	eorspl	r3, r0, lr, lsr #10
     ad8:	03873214 	orreq	r3, r7, #20, 4	; 0x40000001
     adc:	4d322e77 	ldcmi	14, cr2, [r2, #-476]!	; 0xfffffe24
     ae0:	03163131 	tsteq	r6, #1073741836	; 0x4000000c
     ae4:	79036610 	stmdbvc	r3, {r4, r9, sl, sp, lr}
     ae8:	9e77032e 	cdpls	3, 7, cr0, cr7, cr14, {1}
     aec:	1a661d03 	bne	1987f00 <__bss_end__+0x3652b0>
     af0:	9e7fb303 	cdpls	3, 7, cr11, cr15, cr3, {0}
     af4:	4a00c503 	bmi	31f08 <_back_addr-0x15de0f8>
     af8:	7fb60336 	svcvc	0x00b60336
     afc:	2e0a032e 	cdpcs	3, 0, cr0, cr10, cr14, {1}
     b00:	2e220330 	mcrcs	3, 1, r0, cr2, cr0, {1}
     b04:	032e1c03 	teqeq	lr, #768	; 0x300
     b08:	312e7fb3 			; <UNDEFINED> instruction: 0x312e7fb3
     b0c:	00303531 	eorseq	r3, r0, r1, lsr r5
     b10:	03010402 	movweq	r0, #5122	; 0x1402
     b14:	21032e22 	tstcs	r3, r2, lsr #28
     b18:	03183066 	tsteq	r8, #102	; 0x66
     b1c:	03827fa6 	orreq	r7, r2, #664	; 0x298
     b20:	344a00d4 	strbcc	r0, [sl], #-212	; 0xd4
     b24:	2e7fa903 	cdpcs	9, 7, cr10, cr15, cr3, {0}
     b28:	302e0a03 	eorcc	r0, lr, r3, lsl #20
     b2c:	032e2203 	teqeq	lr, #805306368	; 0x30000000
     b30:	a6032e29 	strge	r2, [r3], -r9, lsr #28
     b34:	31312e7f 	teqcc	r1, pc, ror lr
     b38:	02003035 	andeq	r3, r0, #53	; 0x35
     b3c:	22030104 	andcs	r0, r3, #4, 2
     b40:	662e032e 	strtvs	r0, [lr], -lr, lsr #6
     b44:	01000202 	tsteq	r0, r2, lsl #4
     b48:	00018a01 	andeq	r8, r1, r1, lsl #20
     b4c:	78000200 	stmdavc	r0, {r9}
     b50:	02000000 	andeq	r0, r0, #0
     b54:	0d0efb01 	vstreq	d15, [lr, #-4]
     b58:	01010100 	mrseq	r0, (UNDEF: 17)
     b5c:	00000001 	andeq	r0, r0, r1
     b60:	01000001 	tsteq	r0, r1
     b64:	6d6f682f 	stclvs	8, cr6, [pc, #-188]!	; ab0 <_back_addr-0x160f550>
     b68:	6f6c2f65 	svcvs	0x006c2f65
     b6c:	2f736975 	svccs	0x00736975
     b70:	6b6e6168 	blvs	1b99118 <__bss_end__+0x5764c8>
     b74:	6c796b2f 	ldclvs	11, cr6, [r9], #-188	; 0xffffff44
     b78:	622f6e69 	eorvs	r6, pc, #1680	; 0x690
     b7c:	63746f6f 	cmnvs	r4, #444	; 0x1bc
     b80:	2f65646f 	svccs	0x0065646f
     b84:	6f6f6275 	svcvs	0x006f6275
     b88:	78652f74 	stmdavc	r5!, {r2, r4, r5, r6, r8, r9, sl, fp, sp}^
     b8c:	6c706d61 	ldclvs	13, cr6, [r0], #-388	; 0xfffffe7c
     b90:	652f7365 	strvs	r7, [pc, #-869]!	; 833 <_back_addr-0x160f7cd>
     b94:	65737566 	ldrbvs	r7, [r3, #-1382]!	; 0x566
     b98:	7265765f 	rsbvc	r7, r5, #99614720	; 0x5f00000
     b9c:	2f796669 	svccs	0x00796669
     ba0:	6c636e69 	stclvs	14, cr6, [r3], #-420	; 0xfffffe5c
     ba4:	00656475 	rsbeq	r6, r5, r5, ror r4
     ba8:	69747500 	ldmdbvs	r4!, {r8, sl, ip, sp, lr}^
     bac:	00632e6c 	rsbeq	r2, r3, ip, ror #28
     bb0:	73000000 	movwvc	r0, #0
     bb4:	65647379 	strbvs	r7, [r4, #-889]!	; 0x379
     bb8:	682e7366 	stmdavs	lr!, {r1, r2, r5, r6, r8, r9, ip, sp, lr}
     bbc:	00000100 	andeq	r0, r0, r0, lsl #2
     bc0:	74726175 	ldrbtvc	r6, [r2], #-373	; 0x175
     bc4:	0100682e 	tsteq	r0, lr, lsr #16
     bc8:	00000000 	andeq	r0, r0, r0
     bcc:	16840205 	strne	r0, [r4], r5, lsl #4
     bd0:	33030161 	movwcc	r0, #12641	; 0x3161
     bd4:	674b1301 	strbvs	r1, [fp, -r1, lsl #6]
     bd8:	174a1203 	strbne	r1, [sl, -r3, lsl #4]
     bdc:	0c033345 	stceq	3, cr3, [r3], {69}	; 0x45
     be0:	2e79032e 	cdpcs	3, 7, cr0, cr9, cr14, {1}
     be4:	2e760333 	mrccs	3, 3, r0, cr6, cr3, {1}
     be8:	032e0d03 	teqeq	lr, #3, 26	; 0xc0
     bec:	0e032e73 	mcreq	14, 0, r2, cr3, cr3, {3}
     bf0:	2e73032e 	cdpcs	3, 7, cr0, cr3, cr14, {1}
     bf4:	2f30336a 	svccs	0x0030336a
     bf8:	13502f2f 	cmpne	r0, #47, 30	; 0xbc
     bfc:	3c080b03 	stccc	11, cr0, [r8], {3}
     c00:	9e770317 	mrcls	3, 3, r0, cr7, cr7, {0}
     c04:	034a0b03 	movteq	r0, #43779	; 0xab03
     c08:	03846673 	orreq	r6, r4, #120586240	; 0x7300000
     c0c:	75032e09 	strvc	r2, [r3, #-3593]	; 0xe09
     c10:	4f038482 	svcmi	0x00038482
     c14:	84801466 	strhi	r1, [r0], #1126	; 0x466
     c18:	79034f4c 	stmdbvc	r3, {r2, r3, r6, r8, r9, sl, fp, lr}
     c1c:	294fa24a 	stmdbcs	pc, {r1, r3, r6, r9, sp, pc}^	; <UNPREDICTABLE>
     c20:	4a00c103 	bmi	31034 <_back_addr-0x15defcc>
     c24:	03674c4e 	cmneq	r7, #19968	; 0x4e00
     c28:	21038261 	tstcs	r3, r1, ror #4
     c2c:	2e610382 	cdpcs	3, 6, cr0, cr1, cr2, {4}
     c30:	4c2e1f03 	stcmi	15, cr1, [lr], #-12
     c34:	0a031431 	beq	c5d00 <_back_addr-0x154a300>
     c38:	4803344a 	stmdami	r3, {r1, r3, r6, sl, ip, sp}
     c3c:	3e038466 	cdpcc	4, 0, cr8, cr3, cr6, {3}
     c40:	176a134a 	strbne	r1, [sl, -sl, asr #6]!
     c44:	4c873345 	stcmi	3, cr3, [r7], {69}	; 0x45
     c48:	4d312b2f 	fldmdbxmi	r1!, {d2-d24}	;@ Deprecated
     c4c:	302c302d 	eorcc	r3, ip, sp, lsr #32
     c50:	032e7603 	teqeq	lr, #3145728	; 0x300000
     c54:	13312e0b 	teqne	r1, #11, 28	; 0xb0
     c58:	359b6868 	ldrcc	r6, [fp, #2152]	; 0x868
     c5c:	32461631 	subcc	r1, r6, #51380224	; 0x3100000
     c60:	b803d76b 	stmdalt	r3, {r0, r1, r3, r5, r6, r8, r9, sl, ip, lr, pc}
     c64:	ca03667f 	bgt	da668 <_back_addr-0x1535998>
     c68:	68698200 	stmdavs	r9!, {r9, pc}^
     c6c:	3446484d 	strbcc	r4, [r6], #-2125	; 0x84d
     c70:	522e7a03 	eorpl	r7, lr, #12288	; 0x3000
     c74:	6f032d4b 	svcvs	0x00032d4b
     c78:	4a12032e 	bmi	481938 <_back_addr-0x118e6c8>
     c7c:	032e6e03 	teqeq	lr, #3, 28	; 0x30
     c80:	031a2e1d 	tsteq	sl, #464	; 0x1d0
     c84:	67352e79 			; <UNDEFINED> instruction: 0x67352e79
     c88:	1431452d 	ldrtne	r4, [r1], #-1325	; 0x52d
     c8c:	03040200 	movweq	r0, #16896	; 0x4200
     c90:	04020067 	streq	r0, [r2], #-103	; 0x67
     c94:	6a6b2d03 	bvs	1acc0a8 <__bss_end__+0x4a9458>
     c98:	0402004b 	streq	r0, [r2], #-75	; 0x4b
     c9c:	02008303 	andeq	r8, r0, #201326592	; 0xc000000
     ca0:	c1810304 	orrgt	r0, r1, r4, lsl #6
     ca4:	04020047 	streq	r0, [r2], #-71	; 0x47
     ca8:	02009f03 	andeq	r9, r0, #3, 30
     cac:	bd9d0304 	ldclt	3, cr0, [sp, #16]
     cb0:	7a03184d 	bvc	c6dec <_back_addr-0x1549214>
     cb4:	0200364a 	andeq	r3, r0, #77594624	; 0x4a00000
     cb8:	56080204 	strpl	r0, [r8], -r4, lsl #4
     cbc:	4e4d4750 	mcrmi	7, 2, r4, cr13, cr0, {2}
     cc0:	6dd46815 	ldclvs	8, cr6, [r4, #84]	; 0x54
     cc4:	1352292f 	cmpne	r2, #770048	; 0xbc000
     cc8:	2d2f2a4e 	vstmdbcs	pc!, {s4-s81}
     ccc:	0330312f 	teqeq	r0, #-1073741813	; 0xc000000b
     cd0:	02024a16 	andeq	r4, r2, #90112	; 0x16000
     cd4:	38010100 	stmdacc	r1, {r8}
     cd8:	02000003 	andeq	r0, r0, #3
     cdc:	00011e00 	andeq	r1, r1, r0, lsl #28
     ce0:	fb010200 	blx	414ea <_back_addr-0x15ceb16>
     ce4:	01000d0e 	tsteq	r0, lr, lsl #26
     ce8:	00010101 	andeq	r0, r1, r1, lsl #2
     cec:	00010000 	andeq	r0, r1, r0
     cf0:	6e690100 	powvse	f0, f1, f0
     cf4:	64756c63 	ldrbtvs	r6, [r5], #-3171	; 0xc63
     cf8:	76642f65 	strbtvc	r2, [r4], -r5, ror #30
     cfc:	6f6f6272 	svcvs	0x006f6272
     d00:	6e695f74 	mcrvs	15, 3, r5, cr9, cr4, {3}
     d04:	682f0063 	stmdavs	pc!, {r0, r1, r5, r6}	; <UNPREDICTABLE>
     d08:	2f656d6f 	svccs	0x00656d6f
     d0c:	69756f6c 	ldmdbvs	r5!, {r2, r3, r5, r6, r8, r9, sl, fp, sp, lr}^
     d10:	61682f73 	smcvs	33523	; 0x82f3
     d14:	6b2f6b6e 	blvs	bdbad4 <_back_addr-0xa3452c>
     d18:	6e696c79 	mcrvs	12, 3, r6, cr9, cr9, {3}
     d1c:	6f6f622f 	svcvs	0x006f622f
     d20:	646f6374 	strbtvs	r6, [pc], #-884	; d28 <_back_addr-0x160f2d8>
     d24:	62752f65 	rsbsvs	r2, r5, #404	; 0x194
     d28:	2f746f6f 	svccs	0x00746f6f
     d2c:	6d617865 	stclvs	8, cr7, [r1, #-404]!	; 0xfffffe6c
     d30:	73656c70 	cmnvc	r5, #112, 24	; 0x7000
     d34:	7566652f 	strbvc	r6, [r6, #-1327]!	; 0x52f
     d38:	765f6573 			; <UNDEFINED> instruction: 0x765f6573
     d3c:	66697265 	strbtvs	r7, [r9], -r5, ror #4
     d40:	2e2e2f79 	mcrcs	15, 1, r2, cr14, cr9, {3}
     d44:	2f2e2e2f 	svccs	0x002e2e2f
     d48:	6c636e69 	stclvs	14, cr6, [r3], #-420	; 0xfffffe5c
     d4c:	2f656475 	svccs	0x00656475
     d50:	006d7361 	rsbeq	r7, sp, r1, ror #6
     d54:	6d6f682f 	stclvs	8, cr6, [pc, #-188]!	; ca0 <_back_addr-0x160f360>
     d58:	6f6c2f65 	svcvs	0x006c2f65
     d5c:	2f736975 	svccs	0x00736975
     d60:	6b6e6168 	blvs	1b99308 <__bss_end__+0x5766b8>
     d64:	6c796b2f 	ldclvs	11, cr6, [r9], #-188	; 0xffffff44
     d68:	622f6e69 	eorvs	r6, pc, #1680	; 0x690
     d6c:	63746f6f 	cmnvs	r4, #444	; 0x1bc
     d70:	2f65646f 	svccs	0x0065646f
     d74:	6f6f6275 	svcvs	0x006f6275
     d78:	78652f74 	stmdavc	r5!, {r2, r4, r5, r6, r8, r9, sl, fp, sp}^
     d7c:	6c706d61 	ldclvs	13, cr6, [r0], #-388	; 0xfffffe7c
     d80:	652f7365 	strvs	r7, [pc, #-869]!	; a23 <_back_addr-0x160f5dd>
     d84:	65737566 	ldrbvs	r7, [r3, #-1382]!	; 0x566
     d88:	7265765f 	rsbvc	r7, r5, #99614720	; 0x5f00000
     d8c:	2f796669 	svccs	0x00796669
     d90:	6c636e69 	stclvs	14, cr6, [r3], #-420	; 0xfffffe5c
     d94:	2f656475 	svccs	0x00656475
     d98:	62727664 	rsbsvs	r7, r2, #100, 12	; 0x6400000
     d9c:	5f746f6f 	svcpl	0x00746f6f
     da0:	00636e69 	rsbeq	r6, r3, r9, ror #28
     da4:	75666500 	strbvc	r6, [r6, #-1280]!	; 0x500
     da8:	632e6573 	teqvs	lr, #482344960	; 0x1cc00000
     dac:	00000000 	andeq	r0, r0, r0
     db0:	682e6f69 	stmdavs	lr!, {r0, r3, r5, r6, r8, r9, sl, fp, sp, lr}
     db4:	00000100 	andeq	r0, r0, r0, lsl #2
     db8:	5f70746f 	svcpl	0x0070746f
     dbc:	2e676572 	mcrcs	5, 3, r6, cr7, cr2, {3}
     dc0:	00000068 	andeq	r0, r0, r8, rrx
     dc4:	70797400 	rsbsvc	r7, r9, r0, lsl #8
     dc8:	682e7365 	stmdavs	lr!, {r0, r2, r5, r6, r8, r9, ip, sp, lr}
     dcc:	00000200 	andeq	r0, r0, r0, lsl #4
     dd0:	65707974 	ldrbvs	r7, [r0, #-2420]!	; 0x974
     dd4:	00682e73 	rsbeq	r2, r8, r3, ror lr
     dd8:	63000000 	movwvs	r0, #0
     ddc:	65707974 	ldrbvs	r7, [r0, #-2420]!	; 0x974
     de0:	0300682e 	movweq	r6, #2094	; 0x82e
     de4:	69740000 	ldmdbvs	r4!, {}^	; <UNPREDICTABLE>
     de8:	2e72656d 	cdpcs	5, 7, cr6, cr2, cr13, {3}
     dec:	00010068 	andeq	r0, r1, r8, rrx
     df0:	6d6f6300 	stclvs	3, cr6, [pc, #-0]	; df8 <_back_addr-0x160f208>
     df4:	646e616d 	strbtvs	r6, [lr], #-365	; 0x16d
     df8:	0000682e 	andeq	r6, r0, lr, lsr #16
     dfc:	00000000 	andeq	r0, r0, r0
     e00:	1b4c0205 	blne	130161c <_back_addr-0x30e9e4>
     e04:	f1030161 			; <UNDEFINED> instruction: 0xf1030161
     e08:	03660100 	cmneq	r6, #0, 2
     e0c:	4b4b6609 	blmi	12da638 <_back_addr-0x3359c8>
     e10:	12034c2f 	andne	r4, r3, #12032	; 0x2f00
     e14:	2e6e032e 	cdpcs	3, 6, cr0, cr14, cr14, {1}
     e18:	1103dd2f 	tstne	r3, pc, lsr #26
     e1c:	4a6f034a 	bmi	1bc1b4c <__bss_end__+0x59eefc>
     e20:	03f20a03 	mvnseq	r0, #12288	; 0x3000
     e24:	0d032e76 	stceq	14, cr2, [r3, #-472]	; 0xfffffe28
     e28:	2e73032e 	cdpcs	3, 7, cr0, cr3, cr14, {1}
     e2c:	30492f30 	subcc	r2, r9, r0, lsr pc
     e30:	4c2c304b 	stcmi	0, cr3, [ip], #-300	; 0xfffffed4
     e34:	31652f4c 	cmncc	r5, ip, asr #30
     e38:	034a7403 	movteq	r7, #41987	; 0xa403
     e3c:	74032e0c 	strvc	r2, [r3], #-3596	; 0xe0c
     e40:	2e0d032e 	cdpcs	3, 0, cr0, cr13, cr14, {1}
     e44:	032e7303 	teqeq	lr, #201326592	; 0xc000000
     e48:	3e086611 	mcrcc	6, 0, r6, cr8, cr1, {0}
     e4c:	01040200 	mrseq	r0, R12_usr
     e50:	04020065 	streq	r0, [r2], #-101	; 0x65
     e54:	814b4902 	cmphi	fp, r2, lsl #18
     e58:	304e2c30 	subcc	r2, lr, r0, lsr ip
     e5c:	892f682c 	stmdbhi	pc!, {r2, r3, r5, fp, sp, lr}	; <UNPREDICTABLE>
     e60:	2d2c312b 	stfcss	f3, [ip, #-172]!	; 0xffffff54
     e64:	2e59034d 	cdpcs	3, 5, cr0, cr9, cr13, {2}
     e68:	2f4a2b03 	svccs	0x004a2b03
     e6c:	884a7603 	stmdahi	sl, {r0, r1, r9, sl, ip, sp, lr}^
     e70:	02a00332 	adceq	r0, r0, #-939524096	; 0xc8000000
     e74:	2e0c034a 	cdpcs	3, 0, cr0, cr12, cr10, {2}
     e78:	02002108 	andeq	r2, r0, #8, 2
     e7c:	00a30304 	adceq	r0, r3, r4, lsl #6
     e80:	9c030402 	cfstrsls	mvf0, [r3], {2}
     e84:	0200bb50 	andeq	fp, r0, #80, 22	; 0x14000
     e88:	00a10304 	adceq	r0, r1, r4, lsl #6
     e8c:	9c030402 	cfstrsls	mvf0, [r3], {2}
     e90:	2f168550 	svccs	0x00168550
     e94:	4b302f30 	blmi	c0cb5c <_back_addr-0xa034a4>
     e98:	d3030204 	movwle	r0, #12804	; 0x3204
     e9c:	01042e7c 	tsteq	r4, ip, ror lr
     ea0:	2e03ad03 	cdpcs	13, 0, cr10, cr3, cr3, {0}
     ea4:	7ed9034b 	cdpvc	3, 13, cr0, cr9, cr11, {2}
     ea8:	4b84314a 	blmi	fe10d3d8 <__bss_end__+0xfcaea788>
     eac:	302c302f 	eorcc	r3, ip, pc, lsr #32
     eb0:	019e034d 	orrseq	r0, lr, sp, asr #6
     eb4:	0118034a 	tsteq	r8, sl, asr #6
     eb8:	03020431 	movweq	r0, #9265	; 0x2431
     ebc:	04017cb4 	streq	r7, [r1], #-3252	; 0xcb4
     ec0:	03cc0301 	biceq	r0, ip, #67108864	; 0x4000000
     ec4:	0302044a 	movweq	r0, #9290	; 0x244a
     ec8:	042e7cb4 	strteq	r7, [lr], #-3252	; 0xcb4
     ecc:	03d80301 	bicseq	r0, r8, #67108864	; 0x4000000
     ed0:	0302042e 	movweq	r0, #9262	; 0x242e
     ed4:	042e7cc3 	strteq	r7, [lr], #-3267	; 0xcc3
     ed8:	03bd0301 			; <UNDEFINED> instruction: 0x03bd0301
     edc:	03a23166 			; <UNDEFINED> instruction: 0x03a23166
     ee0:	2e4a7d8d 	cdpcs	13, 4, cr7, cr10, cr13, {4}
     ee4:	2f33454f 	svccs	0x0033454f
     ee8:	03a54ca1 			; <UNDEFINED> instruction: 0x03a54ca1
     eec:	6e032e0b 	cdpvs	14, 0, cr2, cr3, cr11, {0}
     ef0:	032f354a 	teqeq	pc, #310378496	; 0x12800000
     ef4:	0c032e78 	stceq	14, cr2, [r3], {120}	; 0x78
     ef8:	6e03502e 	cdpvs	0, 0, cr5, cr3, cr14, {1}
     efc:	034b4d2e 	movteq	r4, #48430	; 0xbd2e
     f00:	4c309e12 	ldcmi	14, cr9, [r0], #-72	; 0xffffffb8
     f04:	bc30332c 	ldclt	3, cr3, [r0], #-176	; 0xffffff50
     f08:	89304d84 	ldmdbhi	r0!, {r2, r7, r8, sl, fp, lr}
     f0c:	032f2fa5 	teqeq	pc, #660	; 0x294
     f10:	03852e79 	orreq	r2, r5, #1936	; 0x790
     f14:	03854a76 	orreq	r4, r5, #483328	; 0x76000
     f18:	134a01ac 	movtne	r0, #41388	; 0xa1ac
     f1c:	09032f2d 	stmdbeq	r3, {r0, r2, r3, r5, r8, r9, sl, fp, sp}
     f20:	75038782 	strvc	r8, [r3, #-1922]	; 0x782
     f24:	820b034a 	andhi	r0, fp, #671088641	; 0x28000001
     f28:	8a4a7803 	bhi	129ef3c <_back_addr-0x3710c4>
     f2c:	03842fa1 	orreq	r2, r4, #644	; 0x284
     f30:	30667ee2 	rsbcc	r7, r6, r2, ror #29
     f34:	4d304c84 	ldcmi	12, cr4, [r0, #-528]!	; 0xfffffdf0
     f38:	304c8430 	subcc	r8, ip, r0, lsr r4
     f3c:	4c84304d 	stcmi	0, cr3, [r4], {77}	; 0x4d
     f40:	84304d30 	ldrthi	r4, [r0], #-3376	; 0xd30
     f44:	304d304c 	subcc	r3, sp, ip, asr #32
     f48:	4c304c84 	ldcmi	12, cr4, [r0], #-528	; 0xfffffdf0
     f4c:	304c8430 	subcc	r8, ip, r0, lsr r4
     f50:	134a1103 	movtne	r1, #41219	; 0xa103
     f54:	342f2e49 	strtcc	r2, [pc], #-3657	; f5c <_back_addr-0x160f0a4>
     f58:	4c51514d 	ldfmie	f5, [r1], {77}	; 0x4d
     f5c:	672e6903 	strvs	r6, [lr, -r3, lsl #18]!
     f60:	034a1003 	movteq	r1, #40963	; 0xa003
     f64:	03869e79 	orreq	r9, r6, #1936	; 0x790
     f68:	4913660c 	ldmdbmi	r3, {r2, r3, r9, sl, sp, lr}
     f6c:	4d342f2e 	ldcmi	15, cr2, [r4, #-184]!	; 0xffffff48
     f70:	034c5151 	movteq	r5, #49489	; 0xc151
     f74:	03672e69 	cmneq	r7, #1680	; 0x690
     f78:	79034a10 	stmdbvc	r3, {r4, r9, fp, lr}
     f7c:	2403869e 	strcs	r8, [r3], #-1694	; 0x69e
     f80:	83bb2f66 			; <UNDEFINED> instruction: 0x83bb2f66
     f84:	2f848383 	svccs	0x00848383
     f88:	2f2f2f2f 	svccs	0x002f2f2f
     f8c:	4b4b4b2f 	blmi	12d3c50 <_back_addr-0x33c3b0>
     f90:	00e7034d 	rsceq	r0, r7, sp, asr #6
     f94:	302c174a 	eorcc	r1, ip, sl, asr #14
     f98:	94030204 	strls	r0, [r3], #-516	; 0x204
     f9c:	01044a7c 	tsteq	r4, ip, ror sl
     fa0:	4a03e703 	bmi	fabb4 <_back_addr-0x151544c>
     fa4:	9c030204 	sfmls	f0, 4, [r3], {4}
     fa8:	0104827c 	tsteq	r4, ip, ror r2
     fac:	4a03eb03 	bmi	fbbc0 <_back_addr-0x1514440>
     fb0:	0002042c 	andeq	r0, r2, ip, lsr #8
     fb4:	03030402 	movweq	r0, #13314	; 0x3402
     fb8:	a0667c94 	mlsge	r6, r4, ip, r7
     fbc:	01042b31 	tsteq	r4, r1, lsr fp
     fc0:	2e03ec03 	cdpcs	12, 0, cr14, cr3, cr3, {0}
     fc4:	1a854f48 	bne	fe154cec <__bss_end__+0xfcb3209c>
     fc8:	78032f2d 	stmdavc	r3, {r0, r2, r3, r5, r8, r9, sl, fp, sp}
     fcc:	0402002e 	streq	r0, [r2], #-46	; 0x2e
     fd0:	4a0a0303 	bmi	281be4 <_back_addr-0x138e41c>
     fd4:	03040200 	movweq	r0, #16896	; 0x4200
     fd8:	0402002f 	streq	r0, [r2], #-47	; 0x2f
     fdc:	02004b03 	andeq	r4, r0, #3072	; 0xc00
     fe0:	042f0304 	strteq	r0, [pc], #-772	; fe8 <_back_addr-0x160f018>
     fe4:	04020002 	streq	r0, [r2], #-2
     fe8:	7c840303 	stcvc	3, cr0, [r4], {3}
     fec:	00010466 	andeq	r0, r1, r6, ror #8
     ff0:	03030402 	movweq	r0, #13314	; 0x3402
     ff4:	002e03fc 	strdeq	r0, [lr], -ip	; <UNPREDICTABLE>
     ff8:	45030402 	strmi	r0, [r3, #-1026]	; 0x402
     ffc:	7db30352 	ldcvc	3, cr0, [r3, #328]!	; 0x148
    1000:	89a53082 	stmibhi	r5!, {r1, r7, ip, sp}
    1004:	79032f67 	stmdbvc	r3, {r0, r1, r2, r5, r6, r8, r9, sl, fp, sp}
    1008:	7603852e 	strvc	r8, [r3], -lr, lsr #10
    100c:	0402854a 	streq	r8, [r2], #-1354	; 0x54a
    1010:	Address 0x00001010 is out of bounds.


Disassembly of section .debug_frame:

00000000 <.debug_frame>:
   0:	0000000c 	andeq	r0, r0, ip
   4:	ffffffff 			; <UNDEFINED> instruction: 0xffffffff
   8:	7c020001 	stcvc	0, cr0, [r2], {1}
   c:	000d0c0e 	andeq	r0, sp, lr, lsl #24
  10:	0000000c 	andeq	r0, r0, ip
  14:	00000000 	andeq	r0, r0, r0
  18:	01610074 	smceq	4100	; 0x1004
  1c:	00000028 	andeq	r0, r0, r8, lsr #32
  20:	0000000c 	andeq	r0, r0, ip
  24:	ffffffff 			; <UNDEFINED> instruction: 0xffffffff
  28:	7c020001 	stcvc	0, cr0, [r2], {1}
  2c:	000d0c0e 	andeq	r0, sp, lr, lsl #24
  30:	0000001c 	andeq	r0, r0, ip, lsl r0
  34:	00000020 	andeq	r0, r0, r0, lsr #32
  38:	0161009c 			; <UNDEFINED> instruction: 0x0161009c
  3c:	000000a0 	andeq	r0, r0, r0, lsr #1
  40:	840c0e48 	strhi	r0, [ip], #-3656	; 0xe48
  44:	8e028503 	cfsh32hi	mvfx8, mvfx2, #3
  48:	0e440201 	cdpeq	2, 4, cr0, cr4, cr1, {0}
  4c:	cec5c400 	cdpgt	4, 12, cr12, cr5, cr0, {0}
  50:	0000000c 	andeq	r0, r0, ip
  54:	ffffffff 			; <UNDEFINED> instruction: 0xffffffff
  58:	7c020001 	stcvc	0, cr0, [r2], {1}
  5c:	000d0c0e 	andeq	r0, sp, lr, lsl #24
  60:	00000020 	andeq	r0, r0, r0, lsr #32
  64:	00000050 	andeq	r0, r0, r0, asr r0
  68:	0161013c 	cmneq	r1, ip, lsr r1
  6c:	00000194 	muleq	r0, r4, r1
  70:	84200e42 	strthi	r0, [r0], #-3650	; 0xe42
  74:	86078508 	strhi	r8, [r7], -r8, lsl #10
  78:	88058706 	stmdahi	r5, {r1, r2, r8, r9, sl, pc}
  7c:	8a038904 	bhi	e2494 <_back_addr-0x152db6c>
  80:	00018e02 	andeq	r8, r1, r2, lsl #28
  84:	0000000c 	andeq	r0, r0, ip
  88:	ffffffff 			; <UNDEFINED> instruction: 0xffffffff
  8c:	7c020001 	stcvc	0, cr0, [r2], {1}
  90:	000d0c0e 	andeq	r0, sp, lr, lsl #24
  94:	0000000c 	andeq	r0, r0, ip
  98:	00000084 	andeq	r0, r0, r4, lsl #1
  9c:	016102d0 	ldrdeq	r0, [r1, #-32]!	; 0xffffffe0
  a0:	00000008 	andeq	r0, r0, r8
  a4:	00000020 	andeq	r0, r0, r0, lsr #32
  a8:	00000084 	andeq	r0, r0, r4, lsl #1
  ac:	016102d8 	ldrdeq	r0, [r1, #-40]!	; 0xffffffd8
  b0:	00000010 	andeq	r0, r0, r0, lsl r0
  b4:	80100e42 	andshi	r0, r0, r2, asr #28
  b8:	82038104 	andhi	r8, r3, #4, 2
  bc:	44018302 	strmi	r8, [r1], #-770	; 0x302
  c0:	c0c1c2c3 	sbcgt	ip, r1, r3, asr #5
  c4:	0000000e 	andeq	r0, r0, lr
  c8:	0000000c 	andeq	r0, r0, ip
  cc:	00000084 	andeq	r0, r0, r4, lsl #1
  d0:	016102e8 	smultteq	r1, r8, r2
  d4:	00000024 	andeq	r0, r0, r4, lsr #32
  d8:	00000018 	andeq	r0, r0, r8, lsl r0
  dc:	00000084 	andeq	r0, r0, r4, lsl #1
  e0:	0161030c 	cmneq	r1, ip, lsl #6
  e4:	00000058 	andeq	r0, r0, r8, asr r0
  e8:	8e040e54 	mcrhi	14, 0, r0, cr4, cr4, {2}
  ec:	000e5401 	andeq	r5, lr, r1, lsl #8
  f0:	000000ce 	andeq	r0, r0, lr, asr #1
  f4:	00000028 	andeq	r0, r0, r8, lsr #32
  f8:	00000084 	andeq	r0, r0, r4, lsl #1
  fc:	01610364 	cmneq	r1, r4, ror #6
 100:	000002e0 	andeq	r0, r0, r0, ror #5
 104:	84140e42 	ldrhi	r0, [r4], #-3650	; 0xe42
 108:	86048505 	strhi	r8, [r4], -r5, lsl #10
 10c:	8e028703 	cdphi	7, 0, cr8, cr2, cr3, {0}
 110:	b80e4601 	stmdalt	lr, {r0, r9, sl, lr}
 114:	015a0304 	cmpeq	sl, r4, lsl #6
 118:	42140e0a 	andsmi	r0, r4, #10, 28	; 0xa0
 11c:	140e4a0b 	strne	r4, [lr], #-2571	; 0xa0b
 120:	0000000c 	andeq	r0, r0, ip
 124:	00000084 	andeq	r0, r0, r4, lsl #1
 128:	01610644 	cmneq	r1, r4, asr #12
 12c:	00000014 	andeq	r0, r0, r4, lsl r0
 130:	00000024 	andeq	r0, r0, r4, lsr #32
 134:	00000084 	andeq	r0, r0, r4, lsl #1
 138:	01610658 	cmneq	r1, r8, asr r6
 13c:	000000a8 	andeq	r0, r0, r8, lsr #1
 140:	84100e42 	ldrhi	r0, [r0], #-3650	; 0xe42
 144:	86038504 	strhi	r8, [r3], -r4, lsl #10
 148:	46018e02 	strmi	r8, [r1], -r2, lsl #28
 14c:	0a60180e 	beq	180618c <__bss_end__+0x1e353c>
 150:	0b42100e 	bleq	1084190 <_back_addr-0x58be70>
 154:	00100e68 	andseq	r0, r0, r8, ror #28
 158:	0000000c 	andeq	r0, r0, ip
 15c:	ffffffff 			; <UNDEFINED> instruction: 0xffffffff
 160:	7c020001 	stcvc	0, cr0, [r2], {1}
 164:	000d0c0e 	andeq	r0, sp, lr, lsl #24
 168:	00000020 	andeq	r0, r0, r0, lsr #32
 16c:	00000158 	andeq	r0, r0, r8, asr r1
 170:	01610700 	cmneq	r1, r0, lsl #14
 174:	000000e4 	andeq	r0, r0, r4, ror #1
 178:	841c0e42 	ldrhi	r0, [ip], #-3650	; 0xe42
 17c:	86068507 	strhi	r8, [r6], -r7, lsl #10
 180:	88048705 	stmdahi	r4, {r0, r2, r8, r9, sl, pc}
 184:	8e028903 	cdphi	9, 0, cr8, cr2, cr3, {0}
 188:	00000001 	andeq	r0, r0, r1
 18c:	0000000c 	andeq	r0, r0, ip
 190:	00000158 	andeq	r0, r0, r8, asr r1
 194:	016107e4 	smultteq	r1, r4, r7
 198:	00000018 	andeq	r0, r0, r8, lsl r0
 19c:	0000000c 	andeq	r0, r0, ip
 1a0:	00000158 	andeq	r0, r0, r8, asr r1
 1a4:	016107fc 	strdeq	r0, [r1, #-124]!	; 0xffffff84
 1a8:	00000004 	andeq	r0, r0, r4
 1ac:	0000000c 	andeq	r0, r0, ip
 1b0:	00000158 	andeq	r0, r0, r8, asr r1
 1b4:	01610800 	cmneq	r1, r0, lsl #16
 1b8:	00000004 	andeq	r0, r0, r4
 1bc:	0000000c 	andeq	r0, r0, ip
 1c0:	00000158 	andeq	r0, r0, r8, asr r1
 1c4:	01610804 	cmneq	r1, r4, lsl #16
 1c8:	00000004 	andeq	r0, r0, r4
 1cc:	00000018 	andeq	r0, r0, r8, lsl r0
 1d0:	00000158 	andeq	r0, r0, r8, asr r1
 1d4:	01610808 	cmneq	r1, r8, lsl #16
 1d8:	00000014 	andeq	r0, r0, r4, lsl r0
 1dc:	84080e42 	strhi	r0, [r8], #-3650	; 0xe42
 1e0:	46018e02 	strmi	r8, [r1], -r2, lsl #28
 1e4:	000ec4ce 	andeq	ip, lr, lr, asr #9
 1e8:	0000000c 	andeq	r0, r0, ip
 1ec:	00000158 	andeq	r0, r0, r8, asr r1
 1f0:	0161081c 	cmneq	r1, ip, lsl r8
 1f4:	00000004 	andeq	r0, r0, r4
 1f8:	00000018 	andeq	r0, r0, r8, lsl r0
 1fc:	00000158 	andeq	r0, r0, r8, asr r1
 200:	01610820 	cmneq	r1, r0, lsr #16
 204:	00000014 	andeq	r0, r0, r4, lsl r0
 208:	84080e42 	strhi	r0, [r8], #-3650	; 0xe42
 20c:	46018e02 	strmi	r8, [r1], -r2, lsl #28
 210:	000ec4ce 	andeq	ip, lr, lr, asr #9
 214:	00000014 	andeq	r0, r0, r4, lsl r0
 218:	00000158 	andeq	r0, r0, r8, asr r1
 21c:	01610834 	cmneq	r1, r4, lsr r8
 220:	00000030 	andeq	r0, r0, r0, lsr r0
 224:	84080e42 	strhi	r0, [r8], #-3650	; 0xe42
 228:	00018e02 	andeq	r8, r1, r2, lsl #28
 22c:	0000000c 	andeq	r0, r0, ip
 230:	00000158 	andeq	r0, r0, r8, asr r1
 234:	01610864 	cmneq	r1, r4, ror #16
 238:	00000004 	andeq	r0, r0, r4
 23c:	0000000c 	andeq	r0, r0, ip
 240:	00000158 	andeq	r0, r0, r8, asr r1
 244:	01610868 	cmneq	r1, r8, ror #16
 248:	0000003c 	andeq	r0, r0, ip, lsr r0
 24c:	0000000c 	andeq	r0, r0, ip
 250:	00000158 	andeq	r0, r0, r8, asr r1
 254:	016108a4 	smultbeq	r1, r4, r8
 258:	00000008 	andeq	r0, r0, r8
 25c:	0000000c 	andeq	r0, r0, ip
 260:	00000158 	andeq	r0, r0, r8, asr r1
 264:	016108ac 	smultbeq	r1, ip, r8
 268:	00000004 	andeq	r0, r0, r4
 26c:	00000018 	andeq	r0, r0, r8, lsl r0
 270:	00000158 	andeq	r0, r0, r8, asr r1
 274:	016108b0 	strheq	r0, [r1, #-128]!	; 0xffffff80
 278:	00000068 	andeq	r0, r0, r8, rrx
 27c:	8e040e42 	cdphi	14, 0, cr0, cr4, cr2, {2}
 280:	0ece7001 	cdpeq	0, 12, cr7, cr14, cr1, {0}
 284:	00000000 	andeq	r0, r0, r0
 288:	0000000c 	andeq	r0, r0, ip
 28c:	ffffffff 			; <UNDEFINED> instruction: 0xffffffff
 290:	7c020001 	stcvc	0, cr0, [r2], {1}
 294:	000d0c0e 	andeq	r0, sp, lr, lsl #24
 298:	00000018 	andeq	r0, r0, r8, lsl r0
 29c:	00000288 	andeq	r0, r0, r8, lsl #5
 2a0:	01610918 	cmneq	r1, r8, lsl r9
 2a4:	00000070 	andeq	r0, r0, r0, ror r0
 2a8:	84100e42 	ldrhi	r0, [r0], #-3650	; 0xe42
 2ac:	86038504 	strhi	r8, [r3], -r4, lsl #10
 2b0:	00018e02 	andeq	r8, r1, r2, lsl #28
 2b4:	0000000c 	andeq	r0, r0, ip
 2b8:	00000288 	andeq	r0, r0, r8, lsl #5
 2bc:	01610988 	smulbbeq	r1, r8, r9
 2c0:	00000034 	andeq	r0, r0, r4, lsr r0
 2c4:	00000020 	andeq	r0, r0, r0, lsr #32
 2c8:	00000288 	andeq	r0, r0, r8, lsl #5
 2cc:	016109bc 	strheq	r0, [r1, #-156]!	; 0xffffff64
 2d0:	00000108 	andeq	r0, r0, r8, lsl #2
 2d4:	84100e46 	ldrhi	r0, [r0], #-3654	; 0xe46
 2d8:	86038504 	strhi	r8, [r3], -r4, lsl #10
 2dc:	02018e02 	andeq	r8, r1, #2, 28
 2e0:	c4000e7a 	strgt	r0, [r0], #-3706	; 0xe7a
 2e4:	00cec6c5 	sbceq	ip, lr, r5, asr #13
 2e8:	0000000c 	andeq	r0, r0, ip
 2ec:	00000288 	andeq	r0, r0, r8, lsl #5
 2f0:	01610ac4 	smulbteq	r1, r4, sl
 2f4:	00000008 	andeq	r0, r0, r8
 2f8:	00000028 	andeq	r0, r0, r8, lsr #32
 2fc:	00000288 	andeq	r0, r0, r8, lsl #5
 300:	01610acc 	smulbteq	r1, ip, sl
 304:	00000270 	andeq	r0, r0, r0, ror r2
 308:	840c0e42 	strhi	r0, [ip], #-3650	; 0xe42
 30c:	8e028503 	cfsh32hi	mvfx8, mvfx2, #3
 310:	200e4801 	andcs	r4, lr, r1, lsl #16
 314:	0e0a8a02 	vmlaeq.f32	s16, s20, s4
 318:	5c0b420c 	sfmpl	f4, 4, [fp], {12}
 31c:	420c0e0a 	andmi	r0, ip, #10, 28	; 0xa0
 320:	0000000b 	andeq	r0, r0, fp
 324:	00000028 	andeq	r0, r0, r8, lsr #32
 328:	00000288 	andeq	r0, r0, r8, lsl #5
 32c:	01610d3c 	cmneq	r1, ip, lsr sp
 330:	00000090 	muleq	r0, r0, r0
 334:	84180e42 	ldrhi	r0, [r8], #-3650	; 0xe42
 338:	86058506 	strhi	r8, [r5], -r6, lsl #10
 33c:	88038704 	stmdahi	r3, {r2, r8, r9, sl, pc}
 340:	70018e02 	andvc	r8, r1, r2, lsl #28
 344:	c7c8ce0a 	strbgt	ip, [r8, sl, lsl #28]
 348:	0ec4c5c6 	cdpeq	5, 12, cr12, cr4, cr6, {6}
 34c:	000b4200 	andeq	r4, fp, r0, lsl #4
 350:	00000028 	andeq	r0, r0, r8, lsr #32
 354:	00000288 	andeq	r0, r0, r8, lsl #5
 358:	01610dcc 	smulbteq	r1, ip, sp
 35c:	00000090 	muleq	r0, r0, r0
 360:	84180e42 	ldrhi	r0, [r8], #-3650	; 0xe42
 364:	86058506 	strhi	r8, [r5], -r6, lsl #10
 368:	88038704 	stmdahi	r3, {r2, r8, r9, sl, pc}
 36c:	70018e02 	andvc	r8, r1, r2, lsl #28
 370:	c7c8ce0a 	strbgt	ip, [r8, sl, lsl #28]
 374:	0ec4c5c6 	cdpeq	5, 12, cr12, cr4, cr6, {6}
 378:	000b4200 	andeq	r4, fp, r0, lsl #4
 37c:	00000028 	andeq	r0, r0, r8, lsr #32
 380:	00000288 	andeq	r0, r0, r8, lsl #5
 384:	01610e5c 	cmneq	r1, ip, asr lr
 388:	00000094 	muleq	r0, r4, r0
 38c:	84180e42 	ldrhi	r0, [r8], #-3650	; 0xe42
 390:	86058506 	strhi	r8, [r5], -r6, lsl #10
 394:	88038704 	stmdahi	r3, {r2, r8, r9, sl, pc}
 398:	70018e02 	andvc	r8, r1, r2, lsl #28
 39c:	c7c8ce0a 	strbgt	ip, [r8, sl, lsl #28]
 3a0:	0ec4c5c6 	cdpeq	5, 12, cr12, cr4, cr6, {6}
 3a4:	000b4200 	andeq	r4, fp, r0, lsl #4
 3a8:	0000001c 	andeq	r0, r0, ip, lsl r0
 3ac:	00000288 	andeq	r0, r0, r8, lsl #5
 3b0:	01610ef0 	strdeq	r0, [r1, #-224]!	; 0xffffff20
 3b4:	000000ec 	andeq	r0, r0, ip, ror #1
 3b8:	84180e42 	ldrhi	r0, [r8], #-3650	; 0xe42
 3bc:	86058506 	strhi	r8, [r5], -r6, lsl #10
 3c0:	88038704 	stmdahi	r3, {r2, r8, r9, sl, pc}
 3c4:	00018e02 	andeq	r8, r1, r2, lsl #28
 3c8:	00000024 	andeq	r0, r0, r4, lsr #32
 3cc:	00000288 	andeq	r0, r0, r8, lsl #5
 3d0:	01610fdc 	ldrdeq	r0, [r1, #-252]!	; 0xffffff04
 3d4:	00000070 	andeq	r0, r0, r0, ror r0
 3d8:	84100e42 	ldrhi	r0, [r0], #-3650	; 0xe42
 3dc:	86038504 	strhi	r8, [r3], -r4, lsl #10
 3e0:	70018e02 	andvc	r8, r1, r2, lsl #28
 3e4:	c5c6ce0a 	strbgt	ip, [r6, #3594]	; 0xe0a
 3e8:	42000ec4 	andmi	r0, r0, #196, 28	; 0xc40
 3ec:	0000000b 	andeq	r0, r0, fp
 3f0:	00000028 	andeq	r0, r0, r8, lsr #32
 3f4:	00000288 	andeq	r0, r0, r8, lsl #5
 3f8:	0161104c 	cmneq	r1, ip, asr #32
 3fc:	00000158 	andeq	r0, r0, r8, asr r1
 400:	84180e4c 	ldrhi	r0, [r8], #-3660	; 0xe4c
 404:	86058506 	strhi	r8, [r5], -r6, lsl #10
 408:	88038704 	stmdahi	r3, {r2, r8, r9, sl, pc}
 40c:	02018e02 	andeq	r8, r1, #2, 28
 410:	c4000e9c 	strgt	r0, [r0], #-3740	; 0xe9c
 414:	c8c7c6c5 	stmiagt	r7, {r0, r2, r6, r7, r9, sl, lr, pc}^
 418:	000000ce 	andeq	r0, r0, lr, asr #1
 41c:	00000040 	andeq	r0, r0, r0, asr #32
 420:	00000288 	andeq	r0, r0, r8, lsl #5
 424:	016111a4 	cmneq	r1, r4, lsr #3
 428:	000000cc 	andeq	r0, r0, ip, asr #1
 42c:	84180e48 	ldrhi	r0, [r8], #-3656	; 0xe48
 430:	86058506 	strhi	r8, [r5], -r6, lsl #10
 434:	88038704 	stmdahi	r3, {r2, r8, r9, sl, pc}
 438:	74018e02 	strvc	r8, [r1], #-3586	; 0xe02
 43c:	c7c8ce0a 	strbgt	ip, [r8, sl, lsl #28]
 440:	0ec4c5c6 	cdpeq	5, 12, cr12, cr4, cr6, {6}
 444:	600b4200 	andvs	r4, fp, r0, lsl #4
 448:	c5c4000e 	strbgt	r0, [r4, #14]
 44c:	cec8c7c6 	cdpgt	7, 12, cr12, cr8, cr6, {6}
 450:	84180e44 	ldrhi	r0, [r8], #-3652	; 0xe44
 454:	86058506 	strhi	r8, [r5], -r6, lsl #10
 458:	88038704 	stmdahi	r3, {r2, r8, r9, sl, pc}
 45c:	00018e02 	andeq	r8, r1, r2, lsl #28
 460:	00000028 	andeq	r0, r0, r8, lsr #32
 464:	00000288 	andeq	r0, r0, r8, lsl #5
 468:	01611270 	smceq	4384	; 0x1120
 46c:	0000017c 	andeq	r0, r0, ip, ror r1
 470:	84100e42 	ldrhi	r0, [r0], #-3650	; 0xe42
 474:	86038504 	strhi	r8, [r3], -r4, lsl #10
 478:	46018e02 	strmi	r8, [r1], -r2, lsl #28
 47c:	0202900e 	andeq	r9, r2, #14
 480:	100e0a9c 	mulne	lr, ip, sl
 484:	0a4a0b42 	beq	1283194 <_back_addr-0x38ce6c>
 488:	0b42100e 	bleq	10844c8 <_back_addr-0x58bb38>
 48c:	00000028 	andeq	r0, r0, r8, lsr #32
 490:	00000288 	andeq	r0, r0, r8, lsl #5
 494:	016113ec 	cmneq	r1, ip, ror #7
 498:	00000108 	andeq	r0, r0, r8, lsl #2
 49c:	84180e4c 	ldrhi	r0, [r8], #-3660	; 0xe4c
 4a0:	86058506 	strhi	r8, [r5], -r6, lsl #10
 4a4:	88038704 	stmdahi	r3, {r2, r8, r9, sl, pc}
 4a8:	02018e02 	andeq	r8, r1, #2, 28
 4ac:	c8ce0a40 	stmiagt	lr, {r6, r9, fp}^
 4b0:	c4c5c6c7 	strbgt	ip, [r5], #1735	; 0x6c7
 4b4:	0b42000e 	bleq	10804f4 <_back_addr-0x58fb0c>
 4b8:	0000000c 	andeq	r0, r0, ip
 4bc:	00000288 	andeq	r0, r0, r8, lsl #5
 4c0:	016114f4 	strdeq	r1, [r1, #-68]!	; 0xffffffbc
 4c4:	00000028 	andeq	r0, r0, r8, lsr #32
 4c8:	0000000c 	andeq	r0, r0, ip
 4cc:	ffffffff 			; <UNDEFINED> instruction: 0xffffffff
 4d0:	7c020001 	stcvc	0, cr0, [r2], {1}
 4d4:	000d0c0e 	andeq	r0, sp, lr, lsl #24
 4d8:	00000014 	andeq	r0, r0, r4, lsl r0
 4dc:	000004c8 	andeq	r0, r0, r8, asr #9
 4e0:	0161151c 	cmneq	r1, ip, lsl r5
 4e4:	00000058 	andeq	r0, r0, r8, asr r0
 4e8:	84080e58 	strhi	r0, [r8], #-3672	; 0xe58
 4ec:	00018e02 	andeq	r8, r1, r2, lsl #28
 4f0:	0000000c 	andeq	r0, r0, ip
 4f4:	000004c8 	andeq	r0, r0, r8, asr #9
 4f8:	01611574 	smceq	4436	; 0x1154
 4fc:	0000002c 	andeq	r0, r0, ip, lsr #32
 500:	0000000c 	andeq	r0, r0, ip
 504:	000004c8 	andeq	r0, r0, r8, asr #9
 508:	016115a0 	cmneq	r1, r0, lsr #11
 50c:	00000030 	andeq	r0, r0, r0, lsr r0
 510:	00000014 	andeq	r0, r0, r4, lsl r0
 514:	000004c8 	andeq	r0, r0, r8, asr #9
 518:	016115d0 	ldrdeq	r1, [r1, #-80]!	; 0xffffffb0
 51c:	0000005c 	andeq	r0, r0, ip, asr r0
 520:	8e040e50 	mcrhi	14, 0, r0, cr4, cr0, {2}
 524:	00000001 	andeq	r0, r0, r1
 528:	00000014 	andeq	r0, r0, r4, lsl r0
 52c:	000004c8 	andeq	r0, r0, r8, asr #9
 530:	0161162c 	cmneq	r1, ip, lsr #12
 534:	00000058 	andeq	r0, r0, r8, asr r0
 538:	8e040e4e 	cdphi	14, 0, cr0, cr4, cr14, {2}
 53c:	00000001 	andeq	r0, r0, r1
 540:	0000000c 	andeq	r0, r0, ip
 544:	ffffffff 			; <UNDEFINED> instruction: 0xffffffff
 548:	7c020001 	stcvc	0, cr0, [r2], {1}
 54c:	000d0c0e 	andeq	r0, sp, lr, lsl #24
 550:	0000000c 	andeq	r0, r0, ip
 554:	00000540 	andeq	r0, r0, r0, asr #10
 558:	01611684 	cmneq	r1, r4, lsl #13
 55c:	0000001c 	andeq	r0, r0, ip, lsl r0
 560:	00000014 	andeq	r0, r0, r4, lsl r0
 564:	00000540 	andeq	r0, r0, r0, asr #10
 568:	016116a0 	cmneq	r1, r0, lsr #13
 56c:	00000054 	andeq	r0, r0, r4, asr r0
 570:	84080e46 	strhi	r0, [r8], #-3654	; 0xe46
 574:	00018e02 	andeq	r8, r1, r2, lsl #28
 578:	0000000c 	andeq	r0, r0, ip
 57c:	00000540 	andeq	r0, r0, r0, asr #10
 580:	016116f4 	strdeq	r1, [r1, #-100]!	; 0xffffff9c
 584:	00000028 	andeq	r0, r0, r8, lsr #32
 588:	0000000c 	andeq	r0, r0, ip
 58c:	00000540 	andeq	r0, r0, r0, asr #10
 590:	0161171c 	cmneq	r1, ip, lsl r7
 594:	00000068 	andeq	r0, r0, r8, rrx
 598:	00000024 	andeq	r0, r0, r4, lsr #32
 59c:	00000540 	andeq	r0, r0, r0, asr #10
 5a0:	01611784 	cmneq	r1, r4, lsl #15
 5a4:	00000060 	andeq	r0, r0, r0, rrx
 5a8:	84180e4a 	ldrhi	r0, [r8], #-3658	; 0xe4a
 5ac:	86058506 	strhi	r8, [r5], -r6, lsl #10
 5b0:	88038704 	stmdahi	r3, {r2, r8, r9, sl, pc}
 5b4:	62018e02 	andvs	r8, r1, #2, 28
 5b8:	c6c7c8ce 	strbgt	ip, [r7], lr, asr #17
 5bc:	000ec4c5 	andeq	ip, lr, r5, asr #9
 5c0:	0000000c 	andeq	r0, r0, ip
 5c4:	00000540 	andeq	r0, r0, r0, asr #10
 5c8:	016117e4 	cmneq	r1, r4, ror #15
 5cc:	00000050 	andeq	r0, r0, r0, asr r0
 5d0:	0000000c 	andeq	r0, r0, ip
 5d4:	00000540 	andeq	r0, r0, r0, asr #10
 5d8:	01611834 	cmneq	r1, r4, lsr r8
 5dc:	00000008 	andeq	r0, r0, r8
 5e0:	0000000c 	andeq	r0, r0, ip
 5e4:	00000540 	andeq	r0, r0, r0, asr #10
 5e8:	0161183c 	cmneq	r1, ip, lsr r8
 5ec:	00000004 	andeq	r0, r0, r4
 5f0:	0000000c 	andeq	r0, r0, ip
 5f4:	00000540 	andeq	r0, r0, r0, asr #10
 5f8:	01611840 	cmneq	r1, r0, asr #16
 5fc:	00000024 	andeq	r0, r0, r4, lsr #32
 600:	0000000c 	andeq	r0, r0, ip
 604:	00000540 	andeq	r0, r0, r0, asr #10
 608:	01611864 	cmneq	r1, r4, ror #16
 60c:	0000000c 	andeq	r0, r0, ip
 610:	00000014 	andeq	r0, r0, r4, lsl r0
 614:	00000540 	andeq	r0, r0, r0, asr #10
 618:	01611870 	smceq	4480	; 0x1180
 61c:	00000054 	andeq	r0, r0, r4, asr r0
 620:	84080e46 	strhi	r0, [r8], #-3654	; 0xe46
 624:	00018e02 	andeq	r8, r1, r2, lsl #28
 628:	0000000c 	andeq	r0, r0, ip
 62c:	00000540 	andeq	r0, r0, r0, asr #10
 630:	016118c4 	cmneq	r1, r4, asr #17
 634:	00000034 	andeq	r0, r0, r4, lsr r0
 638:	0000002c 	andeq	r0, r0, ip, lsr #32
 63c:	00000540 	andeq	r0, r0, r0, asr #10
 640:	016118f8 	strdeq	r1, [r1, #-136]!	; 0xffffff78
 644:	000000b0 	strheq	r0, [r0], -r0	; <UNPREDICTABLE>
 648:	84100e46 	ldrhi	r0, [r0], #-3654	; 0xe46
 64c:	86038504 	strhi	r8, [r3], -r4, lsl #10
 650:	02018e02 	andeq	r8, r1, #2, 28
 654:	c6ce0a48 	strbgt	r0, [lr], r8, asr #20
 658:	000ec4c5 	andeq	ip, lr, r5, asr #9
 65c:	ce460b42 	vmlsgt.f64	d16, d6, d2
 660:	0ec4c5c6 	cdpeq	5, 12, cr12, cr4, cr6, {6}
 664:	00000000 	andeq	r0, r0, r0
 668:	0000000c 	andeq	r0, r0, ip
 66c:	00000540 	andeq	r0, r0, r0, asr #10
 670:	016119a8 	cmneq	r1, r8, lsr #19
 674:	00000024 	andeq	r0, r0, r4, lsr #32
 678:	0000000c 	andeq	r0, r0, ip
 67c:	00000540 	andeq	r0, r0, r0, asr #10
 680:	016119cc 	cmneq	r1, ip, asr #19
 684:	0000001c 	andeq	r0, r0, ip, lsl r0
 688:	00000018 	andeq	r0, r0, r8, lsl r0
 68c:	00000540 	andeq	r0, r0, r0, asr #10
 690:	016119e8 	cmneq	r1, r8, ror #19
 694:	0000009c 	muleq	r0, ip, r0
 698:	64080e44 	strvs	r0, [r8], #-3652	; 0xe44
 69c:	42000e0a 	andmi	r0, r0, #10, 28	; 0xa0
 6a0:	000e620b 	andeq	r6, lr, fp, lsl #4
 6a4:	00000018 	andeq	r0, r0, r8, lsl r0
 6a8:	00000540 	andeq	r0, r0, r0, asr #10
 6ac:	01611a84 	cmneq	r1, r4, lsl #21
 6b0:	00000058 	andeq	r0, r0, r8, asr r0
 6b4:	8e040e46 	cdphi	14, 0, cr0, cr4, cr6, {2}
 6b8:	000e6201 	andeq	r6, lr, r1, lsl #4
 6bc:	000000ce 	andeq	r0, r0, lr, asr #1
 6c0:	0000000c 	andeq	r0, r0, ip
 6c4:	00000540 	andeq	r0, r0, r0, asr #10
 6c8:	01611adc 	ldrdeq	r1, [r1, #-172]!	; 0xffffff54
 6cc:	00000044 	andeq	r0, r0, r4, asr #32
 6d0:	0000000c 	andeq	r0, r0, ip
 6d4:	00000540 	andeq	r0, r0, r0, asr #10
 6d8:	01611b20 	cmneq	r1, r0, lsr #22
 6dc:	00000028 	andeq	r0, r0, r8, lsr #32
 6e0:	0000000c 	andeq	r0, r0, ip
 6e4:	00000540 	andeq	r0, r0, r0, asr #10
 6e8:	01611b48 	cmneq	r1, r8, asr #22
 6ec:	00000004 	andeq	r0, r0, r4
 6f0:	0000000c 	andeq	r0, r0, ip
 6f4:	ffffffff 			; <UNDEFINED> instruction: 0xffffffff
 6f8:	7c020001 	stcvc	0, cr0, [r2], {1}
 6fc:	000d0c0e 	andeq	r0, sp, lr, lsl #24
 700:	00000030 	andeq	r0, r0, r0, lsr r0
 704:	000006f0 	strdeq	r0, [r0], -r0	; <UNPREDICTABLE>
 708:	01611b4c 	cmneq	r1, ip, asr #22
 70c:	000001dc 	ldrdeq	r0, [r0], -ip
 710:	84240e42 	strthi	r0, [r4], #-3650	; 0xe42
 714:	86088509 	strhi	r8, [r8], -r9, lsl #10
 718:	88068707 	stmdahi	r6, {r0, r1, r2, r8, r9, sl, pc}
 71c:	8a048905 	bhi	122b38 <_back_addr-0x14ed4c8>
 720:	8e028b03 	vmlahi.f64	d8, d2, d3
 724:	780e4401 	stmdavc	lr, {r0, sl, lr}
 728:	0e0ad802 	cdpeq	8, 0, cr13, cr10, cr2, {0}
 72c:	4c0b4224 	sfmmi	f4, 4, [fp], {36}	; 0x24
 730:	0000240e 	andeq	r2, r0, lr, lsl #8
 734:	0000001c 	andeq	r0, r0, ip, lsl r0
 738:	000006f0 	strdeq	r0, [r0], -r0	; <UNPREDICTABLE>
 73c:	01611d28 	cmneq	r1, r8, lsr #26
 740:	000000b0 	strheq	r0, [r0], -r0	; <UNPREDICTABLE>
 744:	84180e42 	ldrhi	r0, [r8], #-3650	; 0xe42
 748:	86058506 	strhi	r8, [r5], -r6, lsl #10
 74c:	88038704 	stmdahi	r3, {r2, r8, r9, sl, pc}
 750:	00018e02 	andeq	r8, r1, r2, lsl #28
 754:	0000000c 	andeq	r0, r0, ip
 758:	000006f0 	strdeq	r0, [r0], -r0	; <UNPREDICTABLE>
 75c:	01611dd8 	ldrdeq	r1, [r1, #-216]!	; 0xffffff28
 760:	00000030 	andeq	r0, r0, r0, lsr r0
 764:	00000014 	andeq	r0, r0, r4, lsl r0
 768:	000006f0 	strdeq	r0, [r0], -r0	; <UNPREDICTABLE>
 76c:	01611e08 	cmneq	r1, r8, lsl #28
 770:	0000003c 	andeq	r0, r0, ip, lsr r0
 774:	84080e42 	strhi	r0, [r8], #-3650	; 0xe42
 778:	00018e02 	andeq	r8, r1, r2, lsl #28
 77c:	0000000c 	andeq	r0, r0, ip
 780:	000006f0 	strdeq	r0, [r0], -r0	; <UNPREDICTABLE>
 784:	01611e44 	cmneq	r1, r4, asr #28
 788:	00000004 	andeq	r0, r0, r4
 78c:	00000014 	andeq	r0, r0, r4, lsl r0
 790:	000006f0 	strdeq	r0, [r0], -r0	; <UNPREDICTABLE>
 794:	01611e48 	cmneq	r1, r8, asr #28
 798:	00000040 	andeq	r0, r0, r0, asr #32
 79c:	84080e46 	strhi	r0, [r8], #-3654	; 0xe46
 7a0:	00018e02 	andeq	r8, r1, r2, lsl #28
 7a4:	00000028 	andeq	r0, r0, r8, lsr #32
 7a8:	000006f0 	strdeq	r0, [r0], -r0	; <UNPREDICTABLE>
 7ac:	01611e88 	cmneq	r1, r8, lsl #29
 7b0:	000000ac 	andeq	r0, r0, ip, lsr #1
 7b4:	84180e42 	ldrhi	r0, [r8], #-3650	; 0xe42
 7b8:	86058506 	strhi	r8, [r5], -r6, lsl #10
 7bc:	88038704 	stmdahi	r3, {r2, r8, r9, sl, pc}
 7c0:	02018e02 	andeq	r8, r1, #2, 28
 7c4:	c7c8ce52 			; <UNDEFINED> instruction: 0xc7c8ce52
 7c8:	0ec4c5c6 	cdpeq	5, 12, cr12, cr4, cr6, {6}
 7cc:	00000000 	andeq	r0, r0, r0
 7d0:	00000014 	andeq	r0, r0, r4, lsl r0
 7d4:	000006f0 	strdeq	r0, [r0], -r0	; <UNPREDICTABLE>
 7d8:	01611f34 	cmneq	r1, r4, lsr pc
 7dc:	00000034 	andeq	r0, r0, r4, lsr r0
 7e0:	84080e42 	strhi	r0, [r8], #-3650	; 0xe42
 7e4:	00018e02 	andeq	r8, r1, r2, lsl #28
 7e8:	00000014 	andeq	r0, r0, r4, lsl r0
 7ec:	000006f0 	strdeq	r0, [r0], -r0	; <UNPREDICTABLE>
 7f0:	01611f68 	cmneq	r1, r8, ror #30
 7f4:	00000064 	andeq	r0, r0, r4, rrx
 7f8:	84080e42 	strhi	r0, [r8], #-3650	; 0xe42
 7fc:	00018e02 	andeq	r8, r1, r2, lsl #28
 800:	00000014 	andeq	r0, r0, r4, lsl r0
 804:	000006f0 	strdeq	r0, [r0], -r0	; <UNPREDICTABLE>
 808:	01611fcc 	cmneq	r1, ip, asr #31
 80c:	0000006c 	andeq	r0, r0, ip, rrx
 810:	84080e44 	strhi	r0, [r8], #-3652	; 0xe44
 814:	00018e02 	andeq	r8, r1, r2, lsl #28
 818:	00000014 	andeq	r0, r0, r4, lsl r0
 81c:	000006f0 	strdeq	r0, [r0], -r0	; <UNPREDICTABLE>
 820:	01612038 	cmneq	r1, r8, lsr r0
 824:	00000020 	andeq	r0, r0, r0, lsr #32
 828:	84080e42 	strhi	r0, [r8], #-3650	; 0xe42
 82c:	00018e02 	andeq	r8, r1, r2, lsl #28
 830:	00000014 	andeq	r0, r0, r4, lsl r0
 834:	000006f0 	strdeq	r0, [r0], -r0	; <UNPREDICTABLE>
 838:	01612058 	qdsubeq	r2, r8, r1
 83c:	00000028 	andeq	r0, r0, r8, lsr #32
 840:	84080e42 	strhi	r0, [r8], #-3650	; 0xe42
 844:	00018e02 	andeq	r8, r1, r2, lsl #28
 848:	00000014 	andeq	r0, r0, r4, lsl r0
 84c:	000006f0 	strdeq	r0, [r0], -r0	; <UNPREDICTABLE>
 850:	01612080 	cmneq	r1, r0, lsl #1
 854:	00000028 	andeq	r0, r0, r8, lsr #32
 858:	84080e42 	strhi	r0, [r8], #-3650	; 0xe42
 85c:	00018e02 	andeq	r8, r1, r2, lsl #28
 860:	00000014 	andeq	r0, r0, r4, lsl r0
 864:	000006f0 	strdeq	r0, [r0], -r0	; <UNPREDICTABLE>
 868:	016120a8 	cmneq	r1, r8, lsr #1
 86c:	00000028 	andeq	r0, r0, r8, lsr #32
 870:	84080e42 	strhi	r0, [r8], #-3650	; 0xe42
 874:	00018e02 	andeq	r8, r1, r2, lsl #28
 878:	00000014 	andeq	r0, r0, r4, lsl r0
 87c:	000006f0 	strdeq	r0, [r0], -r0	; <UNPREDICTABLE>
 880:	016120d0 	ldrdeq	r2, [r1, #-0]!
 884:	00000028 	andeq	r0, r0, r8, lsr #32
 888:	84080e42 	strhi	r0, [r8], #-3650	; 0xe42
 88c:	00018e02 	andeq	r8, r1, r2, lsl #28
 890:	00000014 	andeq	r0, r0, r4, lsl r0
 894:	000006f0 	strdeq	r0, [r0], -r0	; <UNPREDICTABLE>
 898:	016120f8 	strdeq	r2, [r1, #-8]!
 89c:	00000028 	andeq	r0, r0, r8, lsr #32
 8a0:	84080e42 	strhi	r0, [r8], #-3650	; 0xe42
 8a4:	00018e02 	andeq	r8, r1, r2, lsl #28
 8a8:	00000014 	andeq	r0, r0, r4, lsl r0
 8ac:	000006f0 	strdeq	r0, [r0], -r0	; <UNPREDICTABLE>
 8b0:	01612120 	cmneq	r1, r0, lsr #2
 8b4:	00000028 	andeq	r0, r0, r8, lsr #32
 8b8:	84080e42 	strhi	r0, [r8], #-3650	; 0xe42
 8bc:	00018e02 	andeq	r8, r1, r2, lsl #28
 8c0:	00000014 	andeq	r0, r0, r4, lsl r0
 8c4:	000006f0 	strdeq	r0, [r0], -r0	; <UNPREDICTABLE>
 8c8:	01612148 	cmneq	r1, r8, asr #2
 8cc:	0000007c 	andeq	r0, r0, ip, ror r0
 8d0:	84080e46 	strhi	r0, [r8], #-3654	; 0xe46
 8d4:	00018e02 	andeq	r8, r1, r2, lsl #28
 8d8:	00000014 	andeq	r0, r0, r4, lsl r0
 8dc:	000006f0 	strdeq	r0, [r0], -r0	; <UNPREDICTABLE>
 8e0:	016121c4 	cmneq	r1, r4, asr #3
 8e4:	0000007c 	andeq	r0, r0, ip, ror r0
 8e8:	84080e46 	strhi	r0, [r8], #-3654	; 0xe46
 8ec:	00018e02 	andeq	r8, r1, r2, lsl #28
 8f0:	00000014 	andeq	r0, r0, r4, lsl r0
 8f4:	000006f0 	strdeq	r0, [r0], -r0	; <UNPREDICTABLE>
 8f8:	01612240 	cmneq	r1, r0, asr #4
 8fc:	0000009c 	muleq	r0, ip, r0
 900:	84080e42 	strhi	r0, [r8], #-3650	; 0xe42
 904:	00018e02 	andeq	r8, r1, r2, lsl #28
 908:	00000018 	andeq	r0, r0, r8, lsl r0
 90c:	000006f0 	strdeq	r0, [r0], -r0	; <UNPREDICTABLE>
 910:	016122dc 	ldrdeq	r2, [r1, #-44]!	; 0xffffffd4
 914:	00000080 	andeq	r0, r0, r0, lsl #1
 918:	8e040e4e 	cdphi	14, 0, cr0, cr4, cr14, {2}
 91c:	000e6e01 	andeq	r6, lr, r1, lsl #28
 920:	000000ce 	andeq	r0, r0, lr, asr #1
 924:	00000018 	andeq	r0, r0, r8, lsl r0
 928:	000006f0 	strdeq	r0, [r0], -r0	; <UNPREDICTABLE>
 92c:	0161235c 	cmneq	r1, ip, asr r3
 930:	00000054 	andeq	r0, r0, r4, asr r0
 934:	8e040e48 	cdphi	14, 0, cr0, cr4, cr8, {2}
 938:	000e5e01 	andeq	r5, lr, r1, lsl #28
 93c:	000000ce 	andeq	r0, r0, lr, asr #1
 940:	00000014 	andeq	r0, r0, r4, lsl r0
 944:	000006f0 	strdeq	r0, [r0], -r0	; <UNPREDICTABLE>
 948:	016123b0 	strheq	r2, [r1, #-48]!	; 0xffffffd0
 94c:	0000006c 	andeq	r0, r0, ip, rrx
 950:	84080e42 	strhi	r0, [r8], #-3650	; 0xe42
 954:	00018e02 	andeq	r8, r1, r2, lsl #28

Disassembly of section .debug_str:

00000000 <.debug_str>:
   0:	6c727473 	cfldrdvs	mvd7, [r2], #-460	; 0xfffffe34
   4:	632e6e65 	teqvs	lr, #1616	; 0x650
   8:	72747300 	rsbsvc	r7, r4, #0, 6
   c:	006e656c 	rsbeq	r6, lr, ip, ror #10
  10:	69736e75 	ldmdbvs	r3!, {r0, r2, r4, r5, r6, r9, sl, fp, sp, lr}^
  14:	64656e67 	strbtvs	r6, [r5], #-3687	; 0xe67
  18:	61686320 	cmnvs	r8, r0, lsr #6
  1c:	68730072 	ldmdavs	r3!, {r1, r4, r5, r6}^
  20:	2074726f 	rsbscs	r7, r4, pc, ror #4
  24:	69736e75 	ldmdbvs	r3!, {r0, r2, r4, r5, r6, r9, sl, fp, sp, lr}^
  28:	64656e67 	strbtvs	r6, [r5], #-3687	; 0xe67
  2c:	746e6920 	strbtvc	r6, [lr], #-2336	; 0x920
  30:	6e6f6c00 	cdpvs	12, 6, cr6, cr15, cr0, {0}
  34:	6f6c2067 	svcvs	0x006c2067
  38:	7520676e 	strvc	r6, [r0, #-1902]!	; 0x76e
  3c:	6769736e 	strbvs	r7, [r9, -lr, ror #6]!
  40:	2064656e 	rsbcs	r6, r4, lr, ror #10
  44:	00746e69 	rsbseq	r6, r4, r9, ror #28
  48:	676e6f6c 	strbvs	r6, [lr, -ip, ror #30]!
  4c:	6e6f6c20 	cdpvs	12, 6, cr6, cr15, cr0, {1}
  50:	6e692067 	cdpvs	0, 6, cr2, cr9, cr7, {3}
  54:	68730074 	ldmdavs	r3!, {r2, r4, r5, r6}^
  58:	2074726f 	rsbscs	r7, r4, pc, ror #4
  5c:	00746e69 	rsbseq	r6, r4, r9, ror #28
  60:	20554e47 	subscs	r4, r5, r7, asr #28
  64:	2e342043 	cdpcs	0, 3, cr2, cr4, cr3, {2}
  68:	20332e39 	eorscs	r2, r3, r9, lsr lr
  6c:	35313032 	ldrcc	r3, [r1, #-50]!	; 0x32
  70:	33313430 	teqcc	r1, #48, 8	; 0x30000000
  74:	72702820 	rsbsvc	r2, r0, #32, 16	; 0x200000
  78:	6c657265 	sfmvs	f7, 2, [r5], #-404	; 0xfffffe6c
  7c:	65736165 	ldrbvs	r6, [r3, #-357]!	; 0x165
  80:	6d2d2029 	stcvs	0, cr2, [sp, #-164]!	; 0xffffff5c
  84:	7474696c 	ldrbtvc	r6, [r4], #-2412	; 0x96c
  88:	652d656c 	strvs	r6, [sp, #-1388]!	; 0x56c
  8c:	6169646e 	cmnvs	r9, lr, ror #8
  90:	6d2d206e 	stcvs	0, cr2, [sp, #-440]!	; 0xfffffe48
  94:	3d757066 	ldclcc	0, cr7, [r5, #-408]!	; 0xfffffe68
  98:	6e6f656e 	cdpvs	5, 6, cr6, cr15, cr14, {3}
  9c:	666d2d20 	strbtvs	r2, [sp], -r0, lsr #26
  a0:	74616f6c 	strbtvc	r6, [r1], #-3948	; 0xf6c
  a4:	6962612d 	stmdbvs	r2!, {r0, r2, r3, r5, r8, sp, lr}^
  a8:	666f733d 			; <UNDEFINED> instruction: 0x666f733d
  ac:	20706674 	rsbscs	r6, r0, r4, ror r6
  b0:	75746d2d 	ldrbvc	r6, [r4, #-3373]!	; 0xd2d
  b4:	633d656e 	teqvs	sp, #461373440	; 0x1b800000
  b8:	6574726f 	ldrbvs	r7, [r4, #-623]!	; 0x26f
  bc:	35612d78 	strbcc	r2, [r1, #-3448]!	; 0xd78
  c0:	6d2d2033 	stcvs	0, cr2, [sp, #-204]!	; 0xffffff34
  c4:	616f6c66 	cmnvs	pc, r6, ror #24
  c8:	62612d74 	rsbvs	r2, r1, #116, 26	; 0x1d00
  cc:	6f733d69 	svcvs	0x00733d69
  d0:	2d207466 	cfstrscs	mvf7, [r0, #-408]!	; 0xfffffe68
  d4:	7568746d 	strbvc	r7, [r8, #-1133]!	; 0x46d
  d8:	692d626d 	pushvs	{r0, r2, r3, r5, r6, r9, sp, lr}
  dc:	7265746e 	rsbvc	r7, r5, #1845493760	; 0x6e000000
  e0:	6b726f77 	blvs	1c9bec4 <__bss_end__+0x679274>
  e4:	616d2d20 	cmnvs	sp, r0, lsr #26
  e8:	2d206d72 	stccs	13, cr6, [r0, #-456]!	; 0xfffffe38
  ec:	6962616d 	stmdbvs	r2!, {r0, r2, r3, r5, r6, r8, sp, lr}^
  f0:	7061613d 	rsbvc	r6, r1, sp, lsr r1
  f4:	6c2d7363 	stcvs	3, cr7, [sp], #-396	; 0xfffffe74
  f8:	78756e69 	ldmdavc	r5!, {r0, r3, r5, r6, r9, sl, fp, sp, lr}^
  fc:	616d2d20 	cmnvs	sp, r0, lsr #26
 100:	3d686372 	stclcc	3, cr6, [r8, #-456]!	; 0xfffffe38
 104:	766d7261 	strbtvc	r7, [sp], -r1, ror #4
 108:	20612d38 	rsbcs	r2, r1, r8, lsr sp
 10c:	6c746d2d 	ldclvs	13, cr6, [r4], #-180	; 0xffffff4c
 110:	69642d73 	stmdbvs	r4!, {r0, r1, r4, r5, r6, r8, sl, fp, sp}^
 114:	63656c61 	cmnvs	r5, #24832	; 0x6100
 118:	6e673d74 	mcrvs	13, 3, r3, cr7, cr4, {3}
 11c:	672d2075 			; <UNDEFINED> instruction: 0x672d2075
 120:	324f2d20 	subcc	r2, pc, #32, 26	; 0x800
 124:	75662d20 	strbvc	r2, [r6, #-3360]!	; 0xd20
 128:	742d6573 	strtvc	r6, [sp], #-1395	; 0x573
 12c:	2d20736c 	stccs	3, cr7, [r0, #-432]!	; 0xfffffe50
 130:	2d6f6e66 	stclcs	14, cr6, [pc, #-408]!	; ffffffa0 <__bss_end__+0xfe9dd350>
 134:	6d6d6f63 	stclvs	15, cr6, [sp, #-396]!	; 0xfffffe74
 138:	2d206e6f 	stccs	14, cr6, [r0, #-444]!	; 0xfffffe44
 13c:	72657a66 	rsbvc	r7, r5, #417792	; 0x66000
 140:	6e692d6f 	cdpvs	13, 6, cr2, cr9, cr15, {3}
 144:	61697469 	cmnvs	r9, r9, ror #8
 148:	657a696c 	ldrbvs	r6, [sl, #-2412]!	; 0x96c
 14c:	6e692d64 	cdpvs	13, 6, cr2, cr9, cr4, {3}
 150:	7373622d 	cmnvc	r3, #-805306366	; 0xd0000002
 154:	6e662d20 	cdpvs	13, 6, cr2, cr6, cr0, {1}
 158:	75622d6f 	strbvc	r2, [r2, #-3439]!	; 0xd6f
 15c:	69746c69 	ldmdbvs	r4!, {r0, r3, r5, r6, sl, fp, sp, lr}^
 160:	662d206e 	strtvs	r2, [sp], -lr, rrx
 164:	65657266 	strbvs	r7, [r5, #-614]!	; 0x266
 168:	6e617473 	mcrvs	4, 3, r7, cr1, cr3, {3}
 16c:	676e6964 	strbvs	r6, [lr, -r4, ror #18]!
 170:	61622f00 	cmnvs	r2, r0, lsl #30
 174:	70756b63 	rsbsvc	r6, r5, r3, ror #22
 178:	2f64772f 	svccs	0x0064772f
 17c:	746f6f62 	strbtvc	r6, [pc], #-3938	; 184 <_back_addr-0x160fe7c>
 180:	65646f63 	strbvs	r6, [r4, #-3939]!	; 0xf63
 184:	6f62752f 	svcvs	0x0062752f
 188:	652f746f 	strvs	r7, [pc, #-1135]!	; fffffd21 <__bss_end__+0xfe9dd0d1>
 18c:	706d6178 	rsbvc	r6, sp, r8, ror r1
 190:	2f73656c 	svccs	0x0073656c
 194:	73756665 	cmnvc	r5, #105906176	; 0x6500000
 198:	65765f65 	ldrbvs	r5, [r6, #-3941]!	; 0xf65
 19c:	79666972 	stmdbvc	r6!, {r1, r4, r5, r6, r8, fp, sp, lr}^
 1a0:	72747300 	rsbsvc	r7, r4, #0, 6
 1a4:	2e727473 	mrccs	4, 3, r7, cr2, cr3, {3}
 1a8:	74730063 	ldrbtvc	r0, [r3], #-99	; 0x63
 1ac:	72747372 	rsbsvc	r7, r4, #-939524095	; 0xc8000001
 1b0:	646e6500 	strbtvs	r6, [lr], #-1280	; 0x500
 1b4:	00727470 	rsbseq	r7, r2, r0, ror r4
 1b8:	6c747563 	cfldr64vs	mvdx7, [r4], #-396	; 0xfffffe74
 1bc:	73006d69 	movwvc	r6, #3433	; 0xd69
 1c0:	6f747274 	svcvs	0x00747274
 1c4:	73006c75 	movwvc	r6, #3189	; 0xc75
 1c8:	6f747274 	svcvs	0x00747274
 1cc:	632e6c75 	teqvs	lr, #29952	; 0x7500
 1d0:	73616200 	cmnvc	r1, #0, 4
 1d4:	75630065 	strbvc	r0, [r3, #-101]!	; 0x65
 1d8:	66666f74 	uqsub16vs	r6, r6, r4
 1dc:	74635f00 	strbtvc	r5, [r3], #-3840	; 0xf00
 1e0:	00657079 	rsbeq	r7, r5, r9, ror r0
 1e4:	70797463 	rsbsvc	r7, r9, r3, ror #8
 1e8:	00632e65 	rsbeq	r2, r3, r5, ror #28
 1ec:	657a6973 	ldrbvs	r6, [sl, #-2419]!	; 0x973
 1f0:	65707974 	ldrbvs	r7, [r0, #-2420]!	; 0x974
 1f4:	74656700 	strbtvc	r6, [r5], #-1792	; 0x700
 1f8:	5377654e 	cmnpl	r7, #327155712	; 0x13800000
 1fc:	35326168 	ldrcc	r6, [r2, #-360]!	; 0x168
 200:	67695336 			; <UNDEFINED> instruction: 0x67695336
 204:	7574616e 	ldrbvc	r6, [r4, #-366]!	; 0x16e
 208:	63006572 	movwvs	r6, #1394	; 0x572
 20c:	636c7274 	cmnvs	ip, #116, 4	; 0x40000007
 210:	73656400 	cmnvc	r5, #0, 8
 214:	77660074 			; <UNDEFINED> instruction: 0x77660074
 218:	6464615f 	strbtvs	r6, [r4], #-351	; 0x15f
 21c:	65670072 	strbvs	r0, [r7, #-114]!	; 0x72
 220:	67724f74 			; <UNDEFINED> instruction: 0x67724f74
 224:	32616853 	rsbcc	r6, r1, #5439488	; 0x530000
 228:	69533635 	ldmdbvs	r3, {r0, r2, r4, r5, r9, sl, ip, sp}^
 22c:	74616e67 	strbtvc	r6, [r1], #-3687	; 0xe67
 230:	00657275 	rsbeq	r7, r5, r5, ror r2
 234:	32414853 	subcc	r4, r1, #5439488	; 0x530000
 238:	685f3635 	ldmdavs	pc, {r0, r2, r4, r5, r9, sl, ip, sp}^	; <UNPREDICTABLE>
 23c:	00687361 	rsbeq	r7, r8, r1, ror #6
 240:	675f6f64 	ldrbvs	r6, [pc, -r4, ror #30]
 244:	78655f6f 	stmdavc	r5!, {r0, r1, r2, r3, r5, r6, r8, r9, sl, fp, ip, lr}^
 248:	76006365 	strvc	r6, [r0], -r5, ror #6
 24c:	66697265 	strbtvs	r7, [r9], -r5, ror #4
 250:	69616d79 	stmdbvs	r1!, {r0, r3, r4, r5, r6, r8, sl, fp, sp, lr}^
 254:	4541006e 	strbmi	r0, [r1, #-110]	; 0x6e
 258:	43455f53 	movtmi	r5, #24403	; 0x5f53
 25c:	65645f42 	strbvs	r5, [r4, #-3906]!	; 0xf42
 260:	70797263 	rsbsvc	r7, r9, r3, ror #4
 264:	49550074 	ldmdbmi	r5, {r2, r4, r5, r6}^
 268:	3233544e 	eorscc	r5, r3, #1308622848	; 0x4e000000
 26c:	6d656d00 	stclvs	13, cr6, [r5, #-0]
 270:	00797063 	rsbseq	r7, r9, r3, rrx
 274:	73756c66 	cmnvc	r5, #26112	; 0x6600
 278:	61635f68 	cmnvs	r3, r8, ror #30
 27c:	00656863 	rsbeq	r6, r5, r3, ror #16
 280:	69726576 	ldmdbvs	r2!, {r1, r2, r4, r5, r6, r8, sl, sp, lr}^
 284:	616d7966 	cmnvs	sp, r6, ror #18
 288:	632e6e69 	teqvs	lr, #1680	; 0x690
 28c:	6d656d00 	stclvs	13, cr6, [r5, #-0]
 290:	00706d63 	rsbseq	r6, r0, r3, ror #26
 294:	70617773 	rsbvc	r7, r1, r3, ror r7
 298:	646e655f 	strbtvs	r6, [lr], #-1375	; 0x55f
 29c:	006e6169 	rsbeq	r6, lr, r9, ror #2
 2a0:	736d656d 	cmnvc	sp, #457179136	; 0x1b400000
 2a4:	6d007465 	cfstrsvs	mvf7, [r0, #-404]	; 0xfffffe6c
 2a8:	645f7063 	ldrbvs	r7, [pc], #-99	; 2b0 <_back_addr-0x160fd50>
 2ac:	74706373 	ldrbtvc	r6, [r0], #-883	; 0x373
 2b0:	6464615f 	strbtvs	r6, [r4], #-351	; 0x15f
 2b4:	66650072 			; <UNDEFINED> instruction: 0x66650072
 2b8:	5f657375 	svcpl	0x00657375
 2bc:	676f7270 			; <UNDEFINED> instruction: 0x676f7270
 2c0:	6d6d6172 	stfvse	f6, [sp, #-456]!	; 0xfffffe38
 2c4:	675f7265 	ldrbvs	r7, [pc, -r5, ror #4]
 2c8:	7270006f 	rsbsvc	r0, r0, #111	; 0x6f
 2cc:	73746e69 	cmnvc	r4, #1680	; 0x690
 2d0:	63727300 	cmnvs	r2, #0, 6
 2d4:	72610038 	rsbvc	r0, r1, #56	; 0x38
 2d8:	41007667 	tstmi	r0, r7, ror #12
 2dc:	435f5345 	cmpmi	pc, #335544321	; 0x14000001
 2e0:	645f4342 	ldrbvs	r4, [pc], #-834	; 2e8 <_back_addr-0x160fd18>
 2e4:	79726365 	ldmdbvc	r2!, {r0, r2, r5, r6, r8, r9, sp, lr}^
 2e8:	65007470 	strvs	r7, [r0, #-1136]	; 0x470
 2ec:	7972746e 	ldmdbvc	r2!, {r1, r2, r3, r5, r6, sl, ip, sp, lr}^
 2f0:	73656100 	cmnvc	r5, #0, 2
 2f4:	79656b5f 	stmdbvc	r5!, {r0, r1, r2, r3, r4, r6, r8, r9, fp, sp, lr}^
 2f8:	74736400 	ldrbtvc	r6, [r3], #-1024	; 0x400
 2fc:	73720038 	cmnvc	r2, #56	; 0x38
 300:	75705f61 	ldrbvc	r5, [r0, #-3937]!	; 0xf61
 304:	656b5f62 	strbvs	r5, [fp, #-3938]!	; 0xf62
 308:	6f640079 	svcvs	0x00640079
 30c:	4153525f 	cmpmi	r3, pc, asr r2
 310:	6f6c7500 	svcvs	0x006c7500
 314:	6100676e 	tstvs	r0, lr, ror #14
 318:	00636772 	rsbeq	r6, r3, r2, ror r7
 31c:	5f74756f 	svcpl	0x0074756f
 320:	72646461 	rsbvc	r6, r4, #1627389952	; 0x61000000
 324:	74657300 	strbtvc	r7, [r5], #-768	; 0x300
 328:	636f665f 	cmnvs	pc, #99614720	; 0x5f00000
 32c:	755f7375 	ldrbvc	r7, [pc, #-885]	; ffffffbf <__bss_end__+0xfe9dd36f>
 330:	00747261 	rsbseq	r7, r4, r1, ror #4
 334:	6d6f682f 	stclvs	8, cr6, [pc, #-188]!	; 280 <_back_addr-0x160fd80>
 338:	6f6c2f65 	svcvs	0x006c2f65
 33c:	2f736975 	svccs	0x00736975
 340:	6b6e6168 	blvs	1b988e8 <__bss_end__+0x575c98>
 344:	6c796b2f 	ldclvs	11, cr6, [r9], #-188	; 0xffffff44
 348:	622f6e69 	eorvs	r6, pc, #1680	; 0x690
 34c:	63746f6f 	cmnvs	r4, #444	; 0x1bc
 350:	2f65646f 	svccs	0x0065646f
 354:	6f6f6275 	svcvs	0x006f6275
 358:	78652f74 	stmdavc	r5!, {r2, r4, r5, r6, r8, r9, sl, fp, sp}^
 35c:	6c706d61 	ldclvs	13, cr6, [r0], #-388	; 0xfffffe7c
 360:	652f7365 	strvs	r7, [pc, #-869]!	; 3 <_back_addr-0x160fffd>
 364:	65737566 	ldrbvs	r7, [r3, #-1382]!	; 0x566
 368:	7265765f 	rsbvc	r7, r5, #99614720	; 0x5f00000
 36c:	00796669 	rsbseq	r6, r9, r9, ror #12
 370:	5f736561 	svcpl	0x00736561
 374:	5f79656b 	svcpl	0x0079656b
 378:	00646e65 	rsbeq	r6, r4, r5, ror #28
 37c:	765f6f64 	ldrbvc	r6, [pc], -r4, ror #30
 380:	66697265 	strbtvs	r7, [r9], -r5, ror #4
 384:	65610079 	strbvs	r0, [r1, #-121]!	; 0x79
 388:	656b5f73 	strbvs	r5, [fp, #-3955]!	; 0xf73
 38c:	69735f79 	ldmdbvs	r3!, {r0, r3, r4, r5, r6, r8, r9, sl, fp, ip, lr}^
 390:	7300657a 	movwvc	r6, #1402	; 0x57a
 394:	6e5f6769 	cdpvs	7, 5, cr6, cr15, cr9, {3}
 398:	70007765 	andvc	r7, r0, r5, ror #14
 39c:	746e6972 	strbtvc	r6, [lr], #-2418	; 0x972
 3a0:	63720066 	cmnvs	r2, #102	; 0x66
 3a4:	0065646f 	rsbeq	r6, r5, pc, ror #8
 3a8:	74696e69 	strbtvc	r6, [r9], #-3689	; 0xe69
 3ac:	7261755f 	rsbvc	r7, r1, #398458880	; 0x17c00000
 3b0:	72700074 	rsbsvc	r0, r0, #116	; 0x74
 3b4:	5f746e69 	svcpl	0x00746e69
 3b8:	00786568 	rsbseq	r6, r8, r8, ror #10
 3bc:	5f617372 	svcpl	0x00617372
 3c0:	5f627570 	svcpl	0x00627570
 3c4:	5f79656b 	svcpl	0x0079656b
 3c8:	00646e65 	rsbeq	r6, r4, r5, ror #28
 3cc:	636e7973 	cmnvs	lr, #1884160	; 0x1cc000
 3d0:	61657200 	cmnvs	r5, r0, lsl #4
 3d4:	656c5f6c 	strbvs	r5, [ip, #-3948]!	; 0xf6c
 3d8:	7372006e 	cmnvc	r2, #110	; 0x6e
 3dc:	75705f61 	ldrbvc	r5, [r0, #-3937]!	; 0xf61
 3e0:	656b5f62 	strbvs	r5, [fp, #-3938]!	; 0xf62
 3e4:	69735f79 	ldmdbvs	r3!, {r0, r3, r4, r5, r6, r8, r9, sl, fp, ip, lr}^
 3e8:	7300657a 	movwvc	r6, #1402	; 0x57a
 3ec:	6f5f6769 	svcvs	0x005f6769
 3f0:	73006772 	movwvc	r6, #1906	; 0x772
 3f4:	635f7465 	cmpvs	pc, #1694498816	; 0x65000000
 3f8:	6c657373 	stclvs	3, cr7, [r5], #-460	; 0xfffffe34
 3fc:	6e690072 	mcrvs	0, 3, r0, cr9, cr2, {3}
 400:	696c6176 	stmdbvs	ip!, {r1, r2, r4, r5, r6, r8, sp, lr}^
 404:	65746164 	ldrbvs	r6, [r4, #-356]!	; 0x164
 408:	6163695f 	cmnvs	r3, pc, asr r9
 40c:	5f656863 	svcpl	0x00656863
 410:	006c6c61 	rsbeq	r6, ip, r1, ror #24
 414:	5f746567 	svcpl	0x00746567
 418:	64696c63 	strbtvs	r6, [r9], #-3171	; 0xc63
 41c:	6c660072 	stclvs	0, cr0, [r6], #-456	; 0xfffffe38
 420:	5f687375 	svcpl	0x00687375
 424:	63616364 	cmnvs	r1, #100, 6	; 0x90000001
 428:	725f6568 	subsvc	r6, pc, #104, 10	; 0x1a000000
 42c:	65676e61 	strbvs	r6, [r7, #-3681]!	; 0xe61
 430:	5f377600 	svcpl	0x00377600
 434:	61766e69 	cmnvs	r6, r9, ror #28
 438:	63645f6c 	cmnvs	r4, #108, 30	; 0x1b0
 43c:	65686361 	strbvs	r6, [r8, #-865]!	; 0x361
 440:	76656c5f 			; <UNDEFINED> instruction: 0x76656c5f
 444:	735f6c65 	cmpvc	pc, #25856	; 0x6500
 448:	61777465 	cmnvs	r7, r5, ror #8
 44c:	454e0079 	strbmi	r0, [lr, #-121]	; 0x79
 450:	4f4f4c54 	svcmi	0x004f4c54
 454:	55535f50 	ldrbpl	r5, [r3, #-3920]	; 0xf50
 458:	53454343 	movtpl	r4, #21315	; 0x5343
 45c:	65740053 	ldrbvs	r0, [r4, #-83]!	; 0x53
 460:	6e00706d 	cdpvs	0, 0, cr7, cr0, cr13, {3}
 464:	735f7465 	cmpvc	pc, #1694498816	; 0x65000000
 468:	65746174 	ldrbvs	r6, [r4, #-372]!	; 0x174
 46c:	766e6900 	strbtvc	r6, [lr], -r0, lsl #18
 470:	64696c61 	strbtvs	r6, [r9], #-3169	; 0xc61
 474:	5f657461 	svcpl	0x00657461
 478:	63616364 	cmnvs	r1, #100, 6	; 0x90000001
 47c:	725f6568 	subsvc	r6, pc, #104, 10	; 0x1a000000
 480:	65676e61 	strbvs	r6, [r7, #-3681]!	; 0xe61
 484:	765f5f00 	ldrbvc	r5, [pc], -r0, lsl #30
 488:	756f5f37 	strbvc	r5, [pc, #-3895]!	; fffff559 <__bss_end__+0xfe9dc909>
 48c:	5f726574 	svcpl	0x00726574
 490:	68636163 	stmdavs	r3!, {r0, r1, r5, r6, r8, sp, lr}^
 494:	6c665f65 	stclvs	15, cr5, [r6], #-404	; 0xfffffe6c
 498:	5f687375 	svcpl	0x00687375
 49c:	676e6172 			; <UNDEFINED> instruction: 0x676e6172
 4a0:	37760065 	ldrbcc	r0, [r6, -r5, rrx]!
 4a4:	69616d5f 	stmdbvs	r1!, {r0, r1, r2, r3, r4, r6, r8, sl, fp, sp, lr}^
 4a8:	645f746e 	ldrbvs	r7, [pc], #-1134	; 4b0 <_back_addr-0x160fb50>
 4ac:	68636163 	stmdavs	r3!, {r0, r1, r5, r6, r8, sp, lr}^
 4b0:	6c615f65 	stclvs	15, cr5, [r1], #-404	; 0xfffffe6c
 4b4:	3776006c 	ldrbcc	r0, [r6, -ip, rrx]!
 4b8:	69616d5f 	stmdbvs	r1!, {r0, r1, r2, r3, r4, r6, r8, sl, fp, sp, lr}^
 4bc:	645f746e 	ldrbvs	r7, [pc], #-1134	; 4c4 <_back_addr-0x160fb3c>
 4c0:	68636163 	stmdavs	r3!, {r0, r1, r5, r6, r8, sp, lr}^
 4c4:	656c5f65 	strbvs	r5, [ip, #-3941]!	; 0xf65
 4c8:	5f6c6576 	svcpl	0x006c6576
 4cc:	77746573 			; <UNDEFINED> instruction: 0x77746573
 4d0:	61007961 	tstvs	r0, r1, ror #18
 4d4:	636f6c6c 	cmnvs	pc, #108, 24	; 0x6c00
 4d8:	7274705f 	rsbsvc	r7, r4, #95	; 0x5f
 4dc:	54454e00 	strbpl	r4, [r5], #-3584	; 0xe00
 4e0:	504f4f4c 	subpl	r4, pc, ip, asr #30
 4e4:	5345525f 	movtpl	r5, #21087	; 0x525f
 4e8:	54524154 	ldrbpl	r4, [r2], #-340	; 0x154
 4ec:	5f377600 	svcpl	0x00377600
 4f0:	61766e69 	cmnvs	r6, r9, ror #28
 4f4:	6c745f6c 	ldclvs	15, cr5, [r4], #-432	; 0xfffffe50
 4f8:	5f5f0062 	svcpl	0x005f0062
 4fc:	6f5f3776 	svcvs	0x005f3776
 500:	72657475 	rsbvc	r7, r5, #1962934272	; 0x75000000
 504:	6361635f 	cmnvs	r1, #2080374785	; 0x7c000001
 508:	695f6568 	ldmdbvs	pc, {r3, r5, r6, r8, sl, sp, lr}^	; <UNPREDICTABLE>
 50c:	6c61766e 	stclvs	6, cr7, [r1], #-440	; 0xfffffe48
 510:	6c6c615f 	stfvse	f6, [ip], #-380	; 0xfffffe84
 514:	676f6c00 	strbvs	r6, [pc, -r0, lsl #24]!
 518:	6e5f325f 	mrcvs	2, 2, r3, cr15, cr15, {2}
 51c:	756f725f 	strbvc	r7, [pc, #-607]!	; 2c5 <_back_addr-0x160fd3b>
 520:	755f646e 	ldrbvc	r6, [pc, #-1134]	; ba <_back_addr-0x160ff46>
 524:	61630070 	smcvs	12288	; 0x3000
 528:	5f656863 	svcpl	0x00656863
 52c:	632e3776 	teqvs	lr, #30932992	; 0x1d80000
 530:	54454e00 	strbpl	r4, [r5], #-3584	; 0xe00
 534:	504f4f4c 	subpl	r4, pc, ip, asr #30
 538:	4941465f 	stmdbmi	r1, {r0, r1, r2, r3, r4, r6, r9, sl, lr}^
 53c:	3776004c 	ldrbcc	r0, [r6, -ip, asr #32]!
 540:	6163645f 	cmnvs	r3, pc, asr r4
 544:	5f656863 	svcpl	0x00656863
 548:	61656c63 	cmnvs	r5, r3, ror #24
 54c:	6e695f6e 	cdpvs	15, 6, cr5, cr9, cr14, {3}
 550:	5f6c6176 	svcpl	0x006c6176
 554:	676e6172 			; <UNDEFINED> instruction: 0x676e6172
 558:	6f6c0065 	svcvs	0x006c0065
 55c:	6e5f3267 	cdpvs	2, 5, cr3, cr15, cr7, {3}
 560:	775f6d75 			; <UNDEFINED> instruction: 0x775f6d75
 564:	00737961 	rsbseq	r7, r3, r1, ror #18
 568:	5f796177 	svcpl	0x00796177
 56c:	66696873 			; <UNDEFINED> instruction: 0x66696873
 570:	5f5f0074 	svcpl	0x005f0074
 574:	6f5f3776 	svcvs	0x005f3776
 578:	72657475 	rsbvc	r7, r5, #1962934272	; 0x75000000
 57c:	6361635f 	cmnvs	r1, #2080374785	; 0x7c000001
 580:	665f6568 	ldrbvs	r6, [pc], -r8, ror #10
 584:	6873756c 	ldmdavs	r3!, {r2, r3, r5, r6, r8, sl, ip, sp, lr}^
 588:	6c6c615f 	stfvse	f6, [ip], #-380	; 0xfffffe84
 58c:	676f6c00 	strbvs	r6, [pc, -r0, lsl #24]!
 590:	4e006e32 	mcrmi	14, 0, r6, cr0, cr2, {1}
 594:	4f4c5445 	svcmi	0x004c5445
 598:	435f504f 	cmpmi	pc, #79	; 0x4f
 59c:	49544e4f 	ldmdbmi	r4, {r0, r1, r2, r3, r6, r9, sl, fp, lr}^
 5a0:	0045554e 	subeq	r5, r5, lr, asr #10
 5a4:	5f6d756e 	svcpl	0x006d756e
 5a8:	73746573 	cmnvc	r4, #482344960	; 0x1cc00000
 5ac:	76656c00 	strbtvc	r6, [r5], -r0, lsl #24
 5b0:	735f6c65 	cmpvc	pc, #25856	; 0x6500
 5b4:	74726174 	ldrbtvc	r6, [r2], #-372	; 0x174
 5b8:	7469625f 	strbtvc	r6, [r9], #-607	; 0x25f
 5bc:	676f6c00 	strbvs	r6, [pc, -r0, lsl #24]!
 5c0:	696c5f32 	stmdbvs	ip!, {r1, r4, r5, r8, r9, sl, fp, ip, lr}^
 5c4:	6c5f656e 	cfldr64vs	mvdx6, [pc], {110}	; 0x6e
 5c8:	73006e65 	movwvc	r6, #3685	; 0xe65
 5cc:	74726174 	ldrbtvc	r6, [r2], #-372	; 0x174
 5d0:	65706f00 	ldrbvs	r6, [r0, #-3840]!	; 0xf00
 5d4:	69746172 	ldmdbvs	r4!, {r1, r4, r5, r6, r8, sp, lr}^
 5d8:	76006e6f 	strvc	r6, [r0], -pc, ror #28
 5dc:	6c635f37 	stclvs	15, cr5, [r3], #-220	; 0xffffff24
 5e0:	5f6e6165 	svcpl	0x006e6165
 5e4:	61766e69 	cmnvs	r6, r9, ror #28
 5e8:	63645f6c 	cmnvs	r4, #108, 30	; 0x1b0
 5ec:	65686361 	strbvs	r6, [r8, #-865]!	; 0x361
 5f0:	76656c5f 			; <UNDEFINED> instruction: 0x76656c5f
 5f4:	735f6c65 	cmpvc	pc, #25856	; 0x6500
 5f8:	61777465 	cmnvs	r7, r5, ror #8
 5fc:	74730079 	ldrbtvc	r0, [r3], #-121	; 0x79
 600:	7600706f 	strvc	r7, [r0], -pc, rrx
 604:	63645f37 	cmnvs	r4, #55, 30	; 0xdc
 608:	65686361 	strbvs	r6, [r8, #-865]!	; 0x361
 60c:	766e695f 			; <UNDEFINED> instruction: 0x766e695f
 610:	725f6c61 	subsvc	r6, pc, #24832	; 0x6100
 614:	65676e61 	strbvs	r6, [r7, #-3681]!	; 0xe61
 618:	74656700 	strbtvc	r6, [r5], #-1792	; 0x700
 61c:	7363635f 	cmnvc	r3, #2080374785	; 0x7c000001
 620:	00726469 	rsbseq	r6, r2, r9, ror #8
 624:	37765f5f 			; <UNDEFINED> instruction: 0x37765f5f
 628:	74756f5f 	ldrbtvc	r6, [r5], #-3935	; 0xf5f
 62c:	635f7265 	cmpvs	pc, #1342177286	; 0x50000006
 630:	65686361 	strbvs	r6, [r8, #-865]!	; 0x361
 634:	766e695f 			; <UNDEFINED> instruction: 0x766e695f
 638:	725f6c61 	subsvc	r6, pc, #24832	; 0x6100
 63c:	65676e61 	strbvs	r6, [r7, #-3681]!	; 0xe61
 640:	6d726100 	ldfvse	f6, [r2, #-0]
 644:	696e695f 	stmdbvs	lr!, {r0, r1, r2, r3, r4, r6, r8, fp, sp, lr}^
 648:	65625f74 	strbvs	r5, [r2, #-3956]!	; 0xf74
 64c:	65726f66 	ldrbvs	r6, [r2, #-3942]!	; 0xf66
 650:	756d6d5f 	strbvc	r6, [sp, #-3423]!	; 0xd5f
 654:	6e617200 	cdpvs	2, 6, cr7, cr1, cr0, {0}
 658:	6f5f6567 	svcvs	0x005f6567
 65c:	5f5f0070 	svcpl	0x005f0070
 660:	6f5f3776 	svcvs	0x005f3776
 664:	72657475 	rsbvc	r7, r5, #1962934272	; 0x75000000
 668:	6361635f 	cmnvs	r1, #2080374785	; 0x7c000001
 66c:	655f6568 	ldrbvs	r6, [pc, #-1384]	; 10c <_back_addr-0x160fef4>
 670:	6c62616e 	stfvse	f6, [r2], #-440	; 0xfffffe48
 674:	5f5f0065 	svcpl	0x005f0065
 678:	6f5f3776 	svcvs	0x005f3776
 67c:	72657475 	rsbvc	r7, r5, #1962934272	; 0x75000000
 680:	6361635f 	cmnvs	r1, #2080374785	; 0x7c000001
 684:	645f6568 	ldrbvs	r6, [pc], #-1384	; 68c <_back_addr-0x160f974>
 688:	62617369 	rsbvs	r7, r1, #-1543503871	; 0xa4000001
 68c:	6c00656c 	cfstr32vs	mvfx6, [r0], {108}	; 0x6c
 690:	6c657665 	stclvs	6, cr7, [r5], #-404	; 0xfffffe6c
 694:	5f377600 	svcpl	0x00377600
 698:	63616364 	cmnvs	r1, #100, 6	; 0x90000001
 69c:	6d5f6568 	cfldr64vs	mvdx6, [pc, #-416]	; 504 <_back_addr-0x160fafc>
 6a0:	746e6961 	strbtvc	r6, [lr], #-2401	; 0x961
 6a4:	6e61725f 	mcrvs	2, 3, r7, cr1, cr15, {2}
 6a8:	63006567 	movwvs	r6, #1383	; 0x567
 6ac:	65686361 	strbvs	r6, [r8, #-865]!	; 0x361
 6b0:	7079745f 	rsbsvc	r7, r9, pc, asr r4
 6b4:	656e0065 	strbvs	r0, [lr, #-101]!	; 0x65
 6b8:	6f6c5f74 	svcvs	0x006c5f74
 6bc:	735f706f 	cmpvc	pc, #111	; 0x6f
 6c0:	65746174 	ldrbvs	r6, [r4, #-372]!	; 0x174
 6c4:	756c6600 	strbvc	r6, [ip, #-1536]!	; 0x600
 6c8:	645f6873 	ldrbvs	r6, [pc], #-2163	; 6d0 <_back_addr-0x160f930>
 6cc:	68636163 	stmdavs	r3!, {r0, r1, r5, r6, r8, sp, lr}^
 6d0:	6c615f65 	stclvs	15, cr5, [r1], #-404	; 0xfffffe6c
 6d4:	6e69006c 	cdpvs	0, 6, cr0, cr9, cr12, {3}
 6d8:	696c6176 	stmdbvs	ip!, {r1, r2, r4, r5, r6, r8, sp, lr}^
 6dc:	65746164 	ldrbvs	r6, [r4, #-356]!	; 0x164
 6e0:	6163645f 	cmnvs	r3, pc, asr r4
 6e4:	5f656863 	svcpl	0x00656863
 6e8:	006c6c61 	rsbeq	r6, ip, r1, ror #24
 6ec:	6f6c6c61 	svcvs	0x006c6c61
 6f0:	636d5f63 	cmnvs	sp, #396	; 0x18c
 6f4:	65645f70 	strbvs	r5, [r4, #-3952]!	; 0xf70
 6f8:	69726373 	ldmdbvs	r2!, {r0, r1, r4, r5, r6, r8, r9, sp, lr}^
 6fc:	726f7470 	rsbvc	r7, pc, #112, 8	; 0x70000000
 700:	70636d00 	rsbvc	r6, r3, r0, lsl #26
 704:	6200632e 	andvs	r6, r0, #-1207959552	; 0xb8000000
 708:	6b636f6c 	blvs	18dc4c0 <__bss_end__+0x2b9870>
 70c:	7a69735f 	bvc	1a5d490 <__bss_end__+0x43a840>
 710:	74720065 	ldrbtvc	r0, [r2], #-101	; 0x65
 714:	756f5f64 	strbvc	r5, [pc, #-3940]!	; fffff7b8 <__bss_end__+0xfe9dcb68>
 718:	72006c74 	andvc	r6, r0, #116, 24	; 0x7400
 71c:	72657665 	rsbvc	r7, r5, #105906176	; 0x6500000
 720:	735f6573 	cmpvc	pc, #482344960	; 0x1cc00000
 724:	616e6769 	cmnvs	lr, r9, ror #14
 728:	65727574 	ldrbvs	r7, [r2, #-1396]!	; 0x574
 72c:	706e6900 	rsbvc	r6, lr, r0, lsl #18
 730:	6d007475 	cfstrsvs	mvf7, [r0, #-468]	; 0xfffffe2c
 734:	0065646f 	rsbeq	r6, r5, pc, ror #8
 738:	5f747364 	svcpl	0x00747364
 73c:	72646461 	rsbvc	r6, r4, #1627389952	; 0x61000000
 740:	50544f00 	subspl	r4, r4, r0, lsl #30
 744:	7465475f 	strbtvc	r4, [r5], #-1887	; 0x75f
 748:	726f575f 	rsbvc	r5, pc, #24903680	; 0x17c0000
 74c:	45410064 	strbmi	r0, [r1, #-100]	; 0x64
 750:	61685f53 	cmnvs	r8, r3, asr pc
 754:	6f5f6873 	svcvs	0x005f6873
 758:	6100656e 	tstvs	r0, lr, ror #10
 75c:	5f6f676c 	svcpl	0x006f676c
 760:	74006469 	strvc	r6, [r0], #-1129	; 0x469
 764:	70636d5f 	rsbvc	r6, r3, pc, asr sp
 768:	7365645f 	cmnvc	r5, #1593835520	; 0x5f000000
 76c:	70697263 	rsbvc	r7, r9, r3, ror #4
 770:	00726f74 	rsbseq	r6, r2, r4, ror pc
 774:	5f696e69 	svcpl	0x00696e69
 778:	0079656b 	rsbseq	r6, r9, fp, ror #10
 77c:	6e676973 	mcrvs	9, 3, r6, cr7, cr3, {3}
 780:	72757461 	rsbsvc	r7, r5, #1627389952	; 0x61000000
 784:	64615f65 	strbtvs	r5, [r1], #-3941	; 0xf65
 788:	70007264 	andvc	r7, r0, r4, ror #4
 78c:	6e676953 	mcrvs	9, 3, r6, cr7, cr3, {2}
 790:	72757461 	rsbsvc	r7, r5, #1627389952	; 0x61000000
 794:	684b0065 	stmdavs	fp, {r0, r2, r5, r6}^
 798:	79656b5f 	stmdbvc	r5!, {r0, r1, r2, r3, r4, r6, r8, r9, fp, sp, lr}^
 79c:	6665645f 			; <UNDEFINED> instruction: 0x6665645f
 7a0:	746c7561 	strbtvc	r7, [ip], #-1377	; 0x561
 7a4:	63727300 	cmnvs	r2, #0, 6
 7a8:	6464615f 	strbtvs	r6, [r4], #-351	; 0x15f
 7ac:	5f5f0072 	svcpl	0x005f0072
 7b0:	434e5546 	movtmi	r5, #58694	; 0xe546
 7b4:	4e4f4954 	mcrmi	9, 2, r4, cr15, cr4, {2}
 7b8:	62005f5f 	andvs	r5, r0, #380	; 0x17c
 7bc:	756b6361 	strbvc	r6, [fp, #-865]!	; 0x361
 7c0:	61765f70 	cmnvs	r6, r0, ror pc
 7c4:	6f64006c 	svcvs	0x0064006c
 7c8:	70636d5f 	rsbvc	r6, r3, pc, asr sp
 7cc:	74657300 	strbtvc	r7, [r5], #-768	; 0x300
 7d0:	6d656d5f 	stclvs	13, cr6, [r5, #-380]!	; 0xfffffe84
 7d4:	0079726f 	rsbseq	r7, r9, pc, ror #4
 7d8:	5f534541 	svcpl	0x00534541
 7dc:	5f434243 	svcpl	0x00434243
 7e0:	72636e65 	rsbvc	r6, r3, #1616	; 0x650
 7e4:	00747079 	rsbseq	r7, r4, r9, ror r0
 7e8:	676e656c 	strbvs	r6, [lr, -ip, ror #10]!
 7ec:	75006874 	strvc	r6, [r0, #-2164]	; 0x874
 7f0:	74616470 	strbtvc	r6, [r1], #-1136	; 0x470
 7f4:	6e695f65 	cdpvs	15, 6, cr5, cr9, cr5, {3}
 7f8:	61697469 	cmnvs	r9, r9, ror #8
 7fc:	65765f6c 	ldrbvs	r5, [r6, #-3948]!	; 0xf6c
 800:	726f7463 	rsbvc	r7, pc, #1660944384	; 0x63000000
 804:	53454100 	movtpl	r4, #20736	; 0x5100
 808:	7361685f 	cmnvc	r1, #6225920	; 0x5f0000
 80c:	63740068 	cmnvs	r4, #104	; 0x68
 810:	7200746e 	andvc	r7, r0, #1845493760	; 0x6e000000
 814:	615f6173 	cmpvs	pc, r3, ror r1	; <UNPREDICTABLE>
 818:	00726464 	rsbseq	r6, r2, r4, ror #8
 81c:	5f534541 	svcpl	0x00534541
 820:	5f424345 	svcpl	0x00424345
 824:	72636e65 	rsbvc	r6, r3, #1616	; 0x650
 828:	00747079 	rsbseq	r7, r4, r9, ror r0
 82c:	746e6975 	strbtvc	r6, [lr], #-2421	; 0x975
 830:	65646d00 	strbvs	r6, [r4, #-3328]!	; 0xd00
 834:	0079616c 	rsbseq	r6, r9, ip, ror #2
 838:	6c627570 	cfstr64vs	mvdx7, [r2], #-448	; 0xfffffe40
 83c:	78456369 	stmdavc	r5, {r0, r3, r5, r6, r8, r9, sp, lr}^
 840:	656e6f70 	strbvs	r6, [lr, #-3952]!	; 0xf70
 844:	7200746e 	andvc	r7, r0, #1845493760	; 0x6e000000
 848:	72657665 	rsbvc	r7, r5, #105906176	; 0x6500000
 84c:	725f6573 	subsvc	r6, pc, #482344960	; 0x1cc00000
 850:	735f6173 	cmpvc	pc, #-1073741796	; 0xc000001c
 854:	616e6769 	cmnvs	lr, r9, ror #14
 858:	65727574 	ldrbvs	r7, [r2, #-1396]!	; 0x574
 85c:	74756f00 	ldrbtvc	r6, [r5], #-3840	; 0xf00
 860:	5f747570 	svcpl	0x00747570
 864:	72646461 	rsbvc	r6, r4, #1627389952	; 0x61000000
 868:	706f6300 	rsbvc	r6, pc, r0, lsl #6
 86c:	656d5f79 	strbvs	r5, [sp, #-3961]!	; 0xf79
 870:	79726f6d 	ldmdbvc	r2!, {r0, r2, r3, r5, r6, r8, r9, sl, fp, sp, lr}^
 874:	63736400 	cmnvs	r3, #0, 8
 878:	53007470 	movwpl	r7, #1136	; 0x470
 87c:	5f314148 	svcpl	0x00314148
 880:	68736168 	ldmdavs	r3!, {r3, r5, r6, r8, sp, lr}^
 884:	74756f00 	ldrbtvc	r6, [r5], #-3840	; 0xf00
 888:	00747570 	rsbseq	r7, r4, r0, ror r5
 88c:	5f647472 	svcpl	0x00647472
 890:	006c6e69 	rsbeq	r6, ip, r9, ror #28
 894:	656b5f5f 	strbvs	r5, [fp, #-3935]!	; 0xf5f
 898:	6c656e72 	stclvs	14, cr6, [r5], #-456	; 0xfffffe38
 89c:	7a69735f 	bvc	1a5d620 <__bss_end__+0x43a9d0>
 8a0:	00745f65 	rsbseq	r5, r4, r5, ror #30
 8a4:	5f637273 	svcpl	0x00637273
 8a8:	00727470 	rsbseq	r7, r2, r0, ror r4
 8ac:	64616f6c 	strbtvs	r6, [r1], #-3948	; 0xf6c
 8b0:	70746f5f 	rsbsvc	r6, r4, pc, asr pc
 8b4:	6f6f6200 	svcvs	0x006f6200
 8b8:	7953006c 	ldmdbvc	r3, {r2, r3, r5, r6}^
 8bc:	6d657473 	cfstrdvs	mvd7, [r5, #-460]!	; 0xfffffe34
 8c0:	656d6954 	strbvs	r6, [sp, #-2388]!	; 0x954
 8c4:	0074756f 	rsbseq	r7, r4, pc, ror #10
 8c8:	656d6974 	strbvs	r6, [sp, #-2420]!	; 0x974
 8cc:	00632e72 	rsbeq	r2, r3, r2, ror lr
 8d0:	61736944 	cmnvs	r3, r4, asr #18
 8d4:	54656c62 	strbtpl	r6, [r5], #-3170	; 0xc62
 8d8:	72656d69 	rsbvc	r6, r5, #6720	; 0x1a40
 8dc:	6d697400 	cfstrdvs	mvd7, [r9, #-0]
 8e0:	44497265 	strbmi	r7, [r9], #-613	; 0x265
 8e4:	65647500 	strbvs	r7, [r4, #-1280]!	; 0x500
 8e8:	0079616c 	rsbseq	r6, r9, ip, ror #2
 8ec:	694d7764 	stmdbvs	sp, {r2, r5, r6, r8, r9, sl, ip, sp, lr}^
 8f0:	6553696e 	ldrbvs	r6, [r3, #-2414]	; 0x96e
 8f4:	646e6f63 	strbtvs	r6, [lr], #-3939	; 0xf63
 8f8:	4d776400 	cfldrdmi	mvd6, [r7, #-0]
 8fc:	6f726369 	svcvs	0x00726369
 900:	6f636553 	svcvs	0x00636553
 904:	6400646e 	strvs	r6, [r0], #-1134	; 0x46e
 908:	79616c65 	stmdbvc	r1!, {r0, r2, r5, r6, sl, fp, sp, lr}^
 90c:	656d6954 	strbvs	r6, [sp, #-2388]!	; 0x954
 910:	6d696c00 	stclvs	12, cr6, [r9, #-0]
 914:	62007469 	andvs	r7, r0, #1761607680	; 0x69000000
 918:	74536f49 	ldrbvc	r6, [r3], #-3913	; 0xf49
 91c:	73757461 	cmnvc	r5, #1627389952	; 0x61000000
 920:	49776400 	ldmdbmi	r7!, {sl, sp, lr}^
 924:	0074696e 	rsbseq	r6, r4, lr, ror #18
 928:	74696e49 	strbtvc	r6, [r9], #-3657	; 0xe49
 92c:	656d6954 	strbvs	r6, [sp, #-2388]!	; 0x954
 930:	49550072 	ldmdbmi	r5, {r1, r4, r5, r6}^
 934:	0038544e 	eorseq	r5, r8, lr, asr #8
 938:	6c656946 	stclvs	9, cr6, [r5], #-280	; 0xfffffee8
 93c:	00317364 	eorseq	r7, r1, r4, ror #6
 940:	6c656946 	stclvs	9, cr6, [r5], #-280	; 0xfffffee8
 944:	00327364 	eorseq	r7, r2, r4, ror #6
 948:	5f737973 	svcpl	0x00737973
 94c:	63616364 	cmnvs	r1, #100, 6	; 0x90000001
 950:	665f6568 	ldrbvs	r6, [pc], -r8, ror #10
 954:	6873756c 	ldmdavs	r3!, {r2, r3, r5, r6, r8, sl, ip, sp, lr}^
 958:	6c6c615f 	stfvse	f6, [ip], #-380	; 0xfffffe84
 95c:	73655200 	cmnvc	r5, #0, 4
 960:	65767265 	ldrbvs	r7, [r6, #-613]!	; 0x265
 964:	4d440064 	stclmi	0, cr0, [r4, #-400]	; 0xfffffe70
 968:	61004d41 	tstvs	r0, r1, asr #26
 96c:	636f6c6c 	cmnvs	pc, #108, 24	; 0x6c00
 970:	7275635f 	rsbsvc	r6, r5, #2080374785	; 0x7c000001
 974:	746e6572 	strbtvc	r6, [lr], #-1394	; 0x572
 978:	72615500 	rsbvc	r5, r1, #0, 10
 97c:	72654974 	rsbvc	r4, r5, #116, 18	; 0x1d0000
 980:	006d6c44 	rsbeq	r6, sp, r4, asr #24
 984:	45425445 	strbmi	r5, [r2, #-1093]	; 0x445
 988:	74750049 	ldrbtvc	r0, [r5], #-73	; 0x49
 98c:	632e6c69 	teqvs	lr, #26880	; 0x6900
 990:	74757000 	ldrbtvc	r7, [r5], #-0
 994:	6168635f 	cmnvs	r8, pc, asr r3
 998:	4c440072 	mcrrmi	0, 7, r0, r4, cr2
 99c:	55004241 	strpl	r4, [r0, #-577]	; 0x241
 9a0:	49747261 	ldmdbmi	r4!, {r0, r5, r6, r9, ip, sp, lr}^
 9a4:	63467269 	movtvs	r7, #25193	; 0x6269
 9a8:	555f0072 	ldrbpl	r0, [pc, #-114]	; 93e <_back_addr-0x160f6c2>
 9ac:	52545241 	subspl	r5, r4, #268435460	; 0x10000004
 9b0:	4c5f4745 	mrrcmi	7, 4, r4, pc, cr5	; <UNPREDICTABLE>
 9b4:	68005253 	stmdavs	r0, {r0, r1, r4, r6, r9, ip, lr}
 9b8:	75647865 	strbvc	r7, [r4, #-2149]!	; 0x865
 9bc:	7300706d 	movwvc	r7, #109	; 0x6d
 9c0:	6c706d69 	ldclvs	13, cr6, [r0], #-420	; 0xfffffe5c
 9c4:	616d5f65 	cmnvs	sp, r5, ror #30
 9c8:	636f6c6c 	cmnvs	pc, #108, 24	; 0x6c00
 9cc:	69617700 	stmdbvs	r1!, {r8, r9, sl, ip, sp, lr}^
 9d0:	6f645f74 	svcvs	0x00645f74
 9d4:	5f00656e 	svcpl	0x0000656e
 9d8:	54524155 	ldrbpl	r4, [r2], #-341	; 0x155
 9dc:	5f474552 	svcpl	0x00474552
 9e0:	0052434c 	subseq	r4, r2, ip, asr #6
 9e4:	49534c45 	ldmdbmi	r3, {r0, r2, r6, sl, fp, lr}^
 9e8:	6c617600 	stclvs	6, cr7, [r1], #-0
 9ec:	52006575 	andpl	r6, r0, #490733568	; 0x1d400000
 9f0:	72657365 	rsbvc	r7, r5, #-1811939327	; 0x94000001
 9f4:	30646576 	rsbcc	r6, r4, r6, ror r5
 9f8:	73655200 	cmnvc	r5, #0, 4
 9fc:	65767265 	ldrbvs	r7, [r6, #-613]!	; 0x265
 a00:	46003164 	strmi	r3, [r0], -r4, ror #2
 a04:	314f4649 	cmpcc	pc, r9, asr #12
 a08:	61550036 	cmpvs	r5, r6, lsr r0
 a0c:	734d7472 	movtvc	r7, #54386	; 0xd472
 a10:	72750072 	rsbsvc	r0, r5, #114	; 0x72
 a14:	5078754d 	rsbspl	r7, r8, sp, asr #10
 a18:	765f6461 	ldrbvc	r6, [pc], -r1, ror #8
 a1c:	54006c61 	strpl	r6, [r0], #-3169	; 0xc61
 a20:	00455248 	subeq	r5, r5, r8, asr #4
 a24:	74726155 	ldrbtvc	r6, [r2], #-341	; 0x155
 a28:	00726353 	rsbseq	r6, r2, r3, asr r3
 a2c:	53544344 	cmppl	r4, #68, 6	; 0x10000001
 a30:	78656800 	stmdavc	r5!, {fp, sp, lr}^
 a34:	32727473 	rsbscc	r7, r2, #1929379840	; 0x73000000
 a38:	00746e69 	rsbseq	r6, r4, r9, ror #28
 a3c:	544d4554 	strbpl	r4, [sp], #-1364	; 0x554
 a40:	72615500 	rsbvc	r5, r1, #0, 10
 a44:	72734c74 	rsbsvc	r4, r3, #116, 24	; 0x7400
 a48:	52545200 	subspl	r5, r4, #0, 4
 a4c:	75630047 	strbvc	r0, [r3, #-71]!	; 0x47
 a50:	6e657272 	mcrvs	2, 3, r7, cr5, cr2, {3}
 a54:	72615574 	rsbvc	r5, r1, #116, 10	; 0x1d000000
 a58:	726f5074 	rsbvc	r5, pc, #116	; 0x74
 a5c:	50490074 	subpl	r0, r9, r4, ror r0
 a60:	6900444e 	stmdbvs	r0, {r1, r2, r3, r6, sl, lr}
 a64:	65685f73 	strbvs	r5, [r8, #-3955]!	; 0xf73
 a68:	69645f78 	stmdbvs	r4!, {r3, r4, r5, r6, r8, r9, sl, fp, ip, lr}^
 a6c:	00746967 	rsbseq	r6, r4, r7, ror #18
 a70:	756c6156 	strbvc	r6, [ip, #-342]!	; 0x156
 a74:	6c610065 	stclvs	0, cr0, [r1], #-404	; 0xfffffe6c
 a78:	5f636f6c 	svcpl	0x00636f6c
 a7c:	6e756f63 	cdpvs	15, 7, cr6, cr5, cr3, {3}
 a80:	6f630074 	svcvs	0x00630074
 a84:	7261706d 	rsbvc	r7, r1, #109	; 0x6d
 a88:	74735f65 	ldrbtvc	r5, [r3], #-3941	; 0xf65
 a8c:	555f0072 	ldrbpl	r0, [pc, #-114]	; a22 <_back_addr-0x160f5de>
 a90:	52545241 	subspl	r5, r4, #268435460	; 0x10000004
 a94:	4c004745 	stcmi	7, cr4, [r0], {69}	; 0x45
 a98:	00504f4f 	subseq	r4, r0, pc, asr #30
 a9c:	53524654 	cmppl	r2, #84, 12	; 0x5400000
 aa0:	61550054 	cmpvs	r5, r4, asr r0
 aa4:	62527472 	subsvs	r7, r2, #1912602624	; 0x72000000
 aa8:	65685472 	strbvs	r5, [r8, #-1138]!	; 0x472
 aac:	006c6c44 	rsbeq	r6, ip, r4, asr #24
 ab0:	61705f70 	cmnvs	r0, r0, ror pc
 ab4:	006d6172 	rsbeq	r6, sp, r2, ror r1
 ab8:	5241555f 	subpl	r5, r1, #398458880	; 0x17c00000
 abc:	47455254 	smlsldmi	r5, r5, r4, r2	; <UNPREDICTABLE>
 ac0:	5249495f 	subpl	r4, r9, #1556480	; 0x17c000
 ac4:	5243465f 	subpl	r4, r3, #99614720	; 0x5f00000
 ac8:	74617700 	strbtvc	r7, [r1], #-1792	; 0x700
 acc:	6f646863 	svcvs	0x00646863
 ad0:	65725f67 	ldrbvs	r5, [r2, #-3943]!	; 0xf67
 ad4:	00746573 	rsbseq	r6, r4, r3, ror r5
 ad8:	5241555f 	subpl	r5, r1, #398458880	; 0x17c00000
 adc:	47455254 	smlsldmi	r5, r5, r4, r2	; <UNPREDICTABLE>
 ae0:	52534d5f 	subspl	r4, r3, #6080	; 0x17c0
 ae4:	625f6e00 	subsvs	r6, pc, #0, 28
 ae8:	73657479 	cmnvc	r5, #2030043136	; 0x79000000
 aec:	67657200 	strbvs	r7, [r5, -r0, lsl #4]!
 af0:	6c61765f 	stclvs	6, cr7, [r1], #-380	; 0xfffffe84
 af4:	72657300 	rsbvc	r7, r5, #0, 6
 af8:	5f6c6169 	svcpl	0x006c6169
 afc:	74697277 	strbtvc	r7, [r9], #-631	; 0x277
 b00:	5f5f0065 	svcpl	0x005f0065
 b04:	30766964 	rsbscc	r6, r6, r4, ror #18
 b08:	73616d00 	cmnvc	r1, #0, 26
 b0c:	6155006b 	cmpvs	r5, fp, rrx
 b10:	634d7472 	movtvs	r7, #54386	; 0xd472
 b14:	555f0072 	ldrbpl	r0, [pc, #-114]	; aaa <_back_addr-0x160f556>
 b18:	52545241 	subspl	r5, r4, #268435460	; 0x10000004
 b1c:	495f4745 	ldmdbmi	pc, {r0, r2, r6, r8, r9, sl, lr}^	; <UNPREDICTABLE>
 b20:	445f5245 	ldrbmi	r5, [pc], #-581	; b28 <_back_addr-0x160f4d8>
 b24:	45004d4c 	strmi	r4, [r0, #-3404]	; 0xd4c
 b28:	49535344 	ldmdbmi	r3, {r2, r6, r8, r9, ip, lr}^
 b2c:	41555f00 	cmpmi	r5, r0, lsl #30
 b30:	45525452 	ldrbmi	r5, [r2, #-1106]	; 0x452
 b34:	434d5f47 	movtmi	r5, #57159	; 0xdf47
 b38:	61550052 	cmpvs	r5, r2, asr r0
 b3c:	65527472 	ldrbvs	r7, [r2, #-1138]	; 0x472
 b40:	555f0067 	ldrbpl	r0, [pc, #-103]	; ae1 <_back_addr-0x160f51f>
 b44:	52545241 	subspl	r5, r4, #268435460	; 0x10000004
 b48:	525f4745 	subspl	r4, pc, #18087936	; 0x1140000
 b4c:	545f5242 	ldrbpl	r5, [pc], #-578	; b54 <_back_addr-0x160f4ac>
 b50:	445f5248 	ldrbmi	r5, [pc], #-584	; b58 <_back_addr-0x160f4a8>
 b54:	55004c4c 	strpl	r4, [r0, #-3148]	; 0xc4c
 b58:	4c747261 	lfmmi	f7, 2, [r4], #-388	; 0xfffffe7c
 b5c:	45007263 	strmi	r7, [r0, #-611]	; 0x263
 b60:	4f464946 	svcmi	0x00464946
 b64:	52465200 	subpl	r5, r6, #0, 4
 b68:	5f005453 	svcpl	0x00005453
 b6c:	54524155 	ldrbpl	r4, [r2], #-341	; 0x155
 b70:	5f474552 	svcpl	0x00474552
 b74:	00524353 	subseq	r4, r2, r3, asr r3
 b78:	6e697270 	mcrvs	2, 3, r7, cr9, cr0, {3}
 b7c:	61765f74 	cmnvs	r6, r4, ror pc
 b80:	5245006c 	subpl	r0, r5, #108	; 0x6c
 b84:	63004942 	movwvs	r4, #2370	; 0x942
 b88:	61706d6f 	cmnvs	r0, pc, ror #26
 b8c:	6d5f6572 	cfldr64vs	mvdx6, [pc, #-456]	; 9cc <_back_addr-0x160f634>
 b90:	726f6d65 	rsbvc	r6, pc, #6464	; 0x1940
 b94:	69460079 	stmdbvs	r6, {r0, r3, r4, r5, r6}^
 b98:	73646c65 	cmnvc	r4, #25856	; 0x6500
 b9c:	65694600 	strbvs	r4, [r9, #-1536]!	; 0x600
 ba0:	3073646c 	rsbscc	r6, r3, ip, ror #8
 ba4:	63727300 	cmnvs	r2, #0, 6
 ba8:	7272615f 	rsbsvc	r6, r2, #-1073741801	; 0xc0000017
 bac:	6f007961 	svcvs	0x00007961
 bb0:	615f7074 	cmpvs	pc, r4, ror r0	; <UNPREDICTABLE>
 bb4:	655f7365 	ldrbvs	r7, [pc, #-869]	; 857 <_back_addr-0x160f7a9>
 bb8:	5f6d756e 	svcpl	0x006d756e
 bbc:	65610074 	strbvs	r0, [r1, #-116]!	; 0x74
 bc0:	6e655f73 	mcrvs	15, 3, r5, cr5, cr3, {3}
 bc4:	5f006d75 	svcpl	0x00006d75
 bc8:	3631755f 			; <UNDEFINED> instruction: 0x3631755f
 bcc:	5f6f6400 	svcpl	0x006f6400
 bd0:	6e727562 	cdpvs	5, 7, cr7, cr2, cr2, {3}
 bd4:	7566655f 	strbvc	r6, [r6, #-1375]!	; 0x55f
 bd8:	6b5f6573 	blvs	17da1ac <__bss_end__+0x1b755c>
 bdc:	65737965 	ldrbvs	r7, [r3, #-2405]!	; 0x965
 be0:	6964006c 	stmdbvs	r4!, {r2, r3, r5, r6}^
 be4:	006e5f76 	rsbeq	r5, lr, r6, ror pc
 be8:	73746962 	cmnvc	r4, #1605632	; 0x188000
 bec:	444d4300 	strbmi	r4, [sp], #-768	; 0x300
 bf0:	5445525f 	strbpl	r5, [r5], #-607	; 0x25f
 bf4:	4355535f 	cmpmi	r5, #2080374785	; 0x7c000001
 bf8:	53534543 	cmppl	r3, #281018368	; 0x10c00000
 bfc:	6e697500 	cdpvs	5, 6, cr7, cr9, cr0, {0}
 c00:	5f363174 	svcpl	0x00363174
 c04:	5f650074 	svcpl	0x00650074
 c08:	66667562 	strbtvs	r7, [r6], -r2, ror #10
 c0c:	72007265 	andvc	r7, r0, #1342177286	; 0x50000006
 c10:	5f6c6165 	svcpl	0x006c6165
 c14:	00746962 	rsbseq	r6, r4, r2, ror #18
 c18:	61746f74 	cmnvs	r4, r4, ror pc
 c1c:	7479626c 	ldrbtvc	r6, [r9], #-620	; 0x26c
 c20:	696c0065 	stmdbvs	ip!, {r0, r2, r5, r6}^
 c24:	656c656e 	strbvs	r6, [ip, #-1390]!	; 0x56e
 c28:	6f64006e 	svcvs	0x0064006e
 c2c:	7275625f 	rsbsvc	r6, r5, #-268435451	; 0xf0000005
 c30:	66655f6e 	strbtvs	r5, [r5], -lr, ror #30
 c34:	5f657375 	svcpl	0x00657375
 c38:	6d746567 	cfldr64vs	mvdx6, [r4, #-412]!	; 0xfffffe64
 c3c:	73657470 	cmnvc	r5, #112, 8	; 0x70000000
 c40:	64003274 	strvs	r3, [r0], #-628	; 0x274
 c44:	75625f6f 	strbvc	r5, [r2, #-3951]!	; 0xf6f
 c48:	655f6e72 	ldrbvs	r6, [pc, #-3698]	; fffffdde <__bss_end__+0xfe9dd18e>
 c4c:	65737566 	ldrbvs	r7, [r3, #-1382]!	; 0x566
 c50:	7369645f 	cmnvc	r9, #1593835520	; 0x5f000000
 c54:	63656e6f 	cmnvs	r5, #1776	; 0x6f0
 c58:	0065726f 	rsbeq	r7, r5, pc, ror #4
 c5c:	38755f5f 	ldmdacc	r5!, {r0, r1, r2, r3, r4, r6, r8, r9, sl, fp, ip, lr}^
 c60:	5f6f6400 	svcpl	0x006f6400
 c64:	6e727562 	cdpvs	5, 7, cr7, cr2, cr2, {3}
 c68:	7566655f 	strbvc	r6, [r6, #-1375]!	; 0x55f
 c6c:	735f6573 	cmpvc	pc, #482344960	; 0x1cc00000
 c70:	72756365 	rsbsvc	r6, r5, #-1811939327	; 0x94000001
 c74:	6f6f6265 	svcvs	0x006f6265
 c78:	5f5f0074 	svcpl	0x005f0074
 c7c:	00323375 	eorseq	r3, r2, r5, ror r3
 c80:	72617473 	rsbvc	r7, r1, #1929379840	; 0x73000000
 c84:	72705f74 	rsbsvc	r5, r0, #116, 30	; 0x1d0
 c88:	6172676f 	cmnvs	r2, pc, ror #14
 c8c:	6f64006d 	svcvs	0x0064006d
 c90:	7275625f 	rsbsvc	r6, r5, #-268435451	; 0xf0000005
 c94:	66655f6e 	strbtvs	r5, [r5], -lr, ror #30
 c98:	5f657375 	svcpl	0x00657375
 c9c:	00617372 	rsbeq	r7, r1, r2, ror r3
 ca0:	74646977 	strbtvc	r6, [r4], #-2423	; 0x977
 ca4:	61640068 	cmnvs	r4, r8, rrx
 ca8:	4f006174 	svcmi	0x00006174
 cac:	4a5f5054 	bmi	17d4e04 <__bss_end__+0x1b21b4>
 cb0:	45474455 	strbmi	r4, [r7, #-1109]	; 0x455
 cb4:	5449425f 	strbpl	r4, [r9], #-607	; 0x25f
 cb8:	746f6e00 	strbtvc	r6, [pc], #-3584	; cc0 <_back_addr-0x160f340>
 cbc:	6573755f 	ldrbvs	r7, [r3, #-1375]!	; 0x55f
 cc0:	6f6e0031 	svcvs	0x006e0031
 cc4:	73755f74 	cmnvc	r5, #116, 30	; 0x1d0
 cc8:	73003265 	movwvc	r3, #613	; 0x265
 ccc:	74726174 	ldrbtvc	r6, [r2], #-372	; 0x174
 cd0:	65747962 	ldrbvs	r7, [r4, #-2402]!	; 0x962
 cd4:	61747300 	cmnvs	r4, r0, lsl #6
 cd8:	69627472 	stmdbvs	r2!, {r1, r4, r5, r6, sl, ip, sp, lr}^
 cdc:	544f0074 	strbpl	r0, [pc], #-116	; ce4 <_back_addr-0x160f31c>
 ce0:	72505f50 	subsvc	r5, r0, #80, 30	; 0x140
 ce4:	6172676f 	cmnvs	r2, pc, ror #14
 ce8:	74535f6d 	ldrbvc	r5, [r3], #-3949	; 0xf6d
 cec:	00747261 	rsbseq	r7, r4, r1, ror #4
 cf0:	67696c61 	strbvs	r6, [r9, -r1, ror #24]!
 cf4:	006e5f6e 	rsbeq	r5, lr, lr, ror #30
 cf8:	6e727562 	cdpvs	5, 7, cr7, cr2, cr2, {3}
 cfc:	5f64695f 	svcpl	0x0064695f
 d00:	74736574 	ldrbtvc	r6, [r3], #-1396	; 0x574
 d04:	61657200 	cmnvs	r5, r0, lsl #4
 d08:	64695f64 	strbtvs	r5, [r9], #-3940	; 0xf64
 d0c:	7365745f 	cmnvc	r5, #1593835520	; 0x5f000000
 d10:	6f640074 	svcvs	0x00640074
 d14:	7275625f 	rsbsvc	r6, r5, #-268435451	; 0xf0000005
 d18:	66655f6e 	strbtvs	r5, [r5], -lr, ror #30
 d1c:	5f657375 	svcpl	0x00657375
 d20:	006c6c61 	rsbeq	r6, ip, r1, ror #24
 d24:	5f6d6572 	svcpl	0x006d6572
 d28:	006c6176 	rsbeq	r6, ip, r6, ror r1
 d2c:	625f6f64 	subsvs	r6, pc, #100, 30	; 0x190
 d30:	5f6e7275 	svcpl	0x006e7275
 d34:	73756665 	cmnvc	r5, #105906176	; 0x6500000
 d38:	6f625f65 	svcvs	0x00625f65
 d3c:	6e65746f 	cdpvs	4, 6, cr7, cr5, cr15, {3}
 d40:	6c610063 	stclvs	0, cr0, [r1], #-396	; 0xfffffe74
 d44:	5f6e6769 	svcpl	0x006e6769
 d48:	5f6d6572 	svcpl	0x006d6572
 d4c:	6665006e 	strbtvs	r0, [r5], -lr, rrx
 d50:	2e657375 	mcrcs	3, 3, r7, cr5, cr5, {3}
 d54:	6f640063 	svcvs	0x00640063
 d58:	7275625f 	rsbsvc	r6, r5, #-268435451	; 0xf0000005
 d5c:	66655f6e 	strbtvs	r5, [r5], -lr, ror #30
 d60:	5f657375 	svcpl	0x00657375
 d64:	64616f6c 	strbtvs	r6, [r1], #-3948	; 0xf6c
 d68:	00736f73 	rsbseq	r6, r3, r3, ror pc
 d6c:	625f6f64 	subsvs	r6, pc, #100, 30	; 0x190
 d70:	5f6e7275 	svcpl	0x006e7275
 d74:	73756665 	cmnvc	r5, #105906176	; 0x6500000
 d78:	706d5f65 	rsbvc	r5, sp, r5, ror #30
 d7c:	74736574 	ldrbtvc	r6, [r3], #-1396	; 0x574
 d80:	72610032 	rsbvc	r0, r1, #50	; 0x32
 d84:	41796172 	cmnmi	r9, r2, ror r1
 d88:	72726100 	rsbsvc	r6, r2, #0, 2
 d8c:	00427961 	subeq	r7, r2, r1, ror #18
 d90:	61727261 	cmnvs	r2, r1, ror #4
 d94:	74004379 	strvc	r4, [r0], #-889	; 0x379
 d98:	6c61746f 	cfstrdvs	mvd7, [r1], #-444	; 0xfffffe44
 d9c:	65747962 	ldrbvs	r7, [r4, #-2402]!	; 0x962
 da0:	6f640073 	svcvs	0x00640073
 da4:	7275625f 	rsbsvc	r6, r5, #-268435451	; 0xf0000005
 da8:	66655f6e 	strbtvs	r5, [r5], -lr, ror #30
 dac:	5f657375 	svcpl	0x00657375
 db0:	00736561 	rsbseq	r6, r3, r1, ror #10
 db4:	64616572 	strbtvs	r6, [r1], #-1394	; 0x572
 db8:	7566655f 	strbvc	r6, [r6, #-1375]!	; 0x55f
 dbc:	73006573 	movwvc	r6, #1395	; 0x573
 dc0:	74726174 	ldrbtvc	r6, [r2], #-372	; 0x174
 dc4:	6464615f 	strbtvs	r6, [r4], #-351	; 0x15f
 dc8:	5f5f0072 	svcpl	0x005f0072
 dcc:	636e7566 	cmnvs	lr, #427819008	; 0x19800000
 dd0:	43005f5f 	movwmi	r5, #3935	; 0xf5f
 dd4:	525f444d 	subspl	r4, pc, #1291845632	; 0x4d000000
 dd8:	465f5445 	ldrbmi	r5, [pc], -r5, asr #8
 ddc:	554c4941 	strbpl	r4, [ip, #-2369]	; 0x941
 de0:	75004552 	strvc	r4, [r0, #-1362]	; 0x552
 de4:	33746e69 	cmncc	r4, #1680	; 0x690
 de8:	00745f32 	rsbseq	r5, r4, r2, lsr pc
 dec:	6d6d6f63 	stclvs	15, cr6, [sp, #-396]!	; 0xfffffe74
 df0:	5f646e61 	svcpl	0x00646e61
 df4:	5f746572 	svcpl	0x00746572
 df8:	544f0074 	strbpl	r0, [pc], #-116	; e00 <_back_addr-0x160f200>
 dfc:	45415f50 	strbmi	r5, [r1, #-3920]	; 0xf50
 e00:	484b5f53 	stmdami	fp, {r0, r1, r4, r6, r8, r9, sl, fp, ip, lr}^
 e04:	50544f00 	subspl	r4, r4, r0, lsl #30
 e08:	5345415f 	movtpl	r4, #20831	; 0x515f
 e0c:	004e4b5f 	subeq	r4, lr, pc, asr fp
 e10:	625f6f64 	subsvs	r6, pc, #100, 30	; 0x190
 e14:	5f6e7275 	svcpl	0x006e7275
 e18:	73756665 	cmnvc	r5, #105906176	; 0x6500000
 e1c:	77685f65 	strbvc	r5, [r8, -r5, ror #30]!
 e20:	006b6863 	rsbeq	r6, fp, r3, ror #16
 e24:	5f50544f 	svcpl	0x0050544f
 e28:	5f534541 	svcpl	0x00534541
 e2c:	6400534b 	strvs	r5, [r0], #-843	; 0x34b
 e30:	75625f6f 	strbvc	r5, [r2, #-3951]!	; 0xf6f
 e34:	655f6e72 	ldrbvs	r6, [pc, #-3698]	; ffffffca <__bss_end__+0xfe9dd37a>
 e38:	65737566 	ldrbvs	r7, [r3, #-1382]!	; 0x566
 e3c:	6273755f 	rsbsvs	r7, r3, #398458880	; 0x17c00000
 e40:	61727332 	cmnvs	r2, r2, lsr r3
 e44:	666f006d 	strbtvs	r0, [pc], -sp, rrx
 e48:	74657366 	strbtvc	r7, [r5], #-870	; 0x366
 e4c:	5f6f6400 	svcpl	0x006f6400
 e50:	6e727562 	cdpvs	5, 7, cr7, cr2, cr2, {3}
 e54:	7566655f 	strbvc	r6, [r6, #-1375]!	; 0x55f
 e58:	645f6573 	ldrbvs	r6, [pc], #-1395	; e60 <_back_addr-0x160f1a0>
 e5c:	63697665 	cmnvs	r9, #105906176	; 0x6500000
 e60:	00444965 	subeq	r4, r4, r5, ror #18
 e64:	6c616572 	cfstr64vs	mvdx6, [r1], #-456	; 0xfffffe38
 e68:	72006e5f 	andvc	r6, r0, #1520	; 0x5f0
 e6c:	5f6c6165 	svcpl	0x006c6165
 e70:	6573666f 	ldrbvs	r6, [r3, #-1647]!	; 0x66f
 e74:	69750074 	ldmdbvs	r5!, {r2, r4, r5, r6}^
 e78:	5f38746e 	svcpl	0x0038746e
 e7c:	544f0074 	strbpl	r0, [pc], #-116	; e84 <_back_addr-0x160f17c>
 e80:	65475f50 	strbvs	r5, [r7, #-3920]	; 0xf50
 e84:	79425f74 	stmdbvc	r2, {r2, r4, r5, r6, r8, r9, sl, fp, ip, lr}^
 e88:	61006574 	tstvs	r0, r4, ror r5
 e8c:	6b5f7365 	blvs	17ddc28 <__bss_end__+0x1bafd8>
 e90:	6b5f7965 	blvs	17df42c <__bss_end__+0x1bc7dc>
 e94:	4d430068 	stclmi	0, cr0, [r3, #-416]	; 0xfffffe60
 e98:	45525f44 	ldrbmi	r5, [r2, #-3908]	; 0xf44
 e9c:	53555f54 	cmppl	r5, #84, 30	; 0x150
 ea0:	00454741 	subeq	r4, r5, r1, asr #14
 ea4:	5f736561 	svcpl	0x00736561
 ea8:	5f79656b 	svcpl	0x0079656b
 eac:	6c006e6b 	stcvs	14, cr6, [r0], {107}	; 0x6b
 eb0:	62656e69 	rsbvs	r6, r5, #1680	; 0x690
 eb4:	61006675 	tstvs	r0, r5, ror r6
 eb8:	6b5f7365 	blvs	17ddc54 <__bss_end__+0x1bb004>
 ebc:	6b5f7965 	blvs	17df458 <__bss_end__+0x1bc808>
 ec0:	544f0073 	strbpl	r0, [pc], #-115	; ec8 <_back_addr-0x160f138>
 ec4:	72505f50 	subsvc	r5, r0, #80, 30	; 0x140
 ec8:	6172676f 	cmnvs	r2, pc, ror #14
 ecc:	6e455f6d 	cdpvs	15, 4, cr5, cr5, cr13, {3}
 ed0:	Address 0x00000ed0 is out of bounds.


Disassembly of section .debug_loc:

00000000 <.debug_loc>:
       0:	00000000 	andeq	r0, r0, r0
       4:	00000008 	andeq	r0, r0, r8
       8:	08500001 	ldmdaeq	r0, {r0}^
       c:	18000000 	stmdane	r0, {}	; <UNPREDICTABLE>
      10:	01000000 	mrseq	r0, (UNDEF: 0)
      14:	00185300 	andseq	r5, r8, r0, lsl #6
      18:	00200000 	eoreq	r0, r0, r0
      1c:	00030000 	andeq	r0, r3, r0
      20:	009f7f73 	addseq	r7, pc, r3, ror pc	; <UNPREDICTABLE>
	...
      2c:	10000000 	andne	r0, r0, r0
      30:	02000000 	andeq	r0, r0, #0
      34:	109f3000 	addsne	r3, pc, r0
      38:	14000000 	strne	r0, [r0], #-0
      3c:	07000000 	streq	r0, [r0, -r0]
      40:	20007000 	andcs	r7, r0, r0
      44:	9f220073 	svcls	0x00220073
      48:	00000014 	andeq	r0, r0, r4, lsl r0
      4c:	00000020 	andeq	r0, r0, r0, lsr #32
      50:	00510001 	subseq	r0, r1, r1
	...
      5c:	30000000 	andcc	r0, r0, r0
      60:	01000000 	mrseq	r0, (UNDEF: 0)
      64:	00305000 	eorseq	r5, r0, r0
      68:	00380000 	eorseq	r0, r8, r0
      6c:	00030000 	andeq	r0, r3, r0
      70:	389f7f70 	ldmcc	pc, {r4, r5, r6, r8, r9, sl, fp, ip, sp, lr}	; <UNPREDICTABLE>
      74:	90000000 	andls	r0, r0, r0
      78:	01000000 	mrseq	r0, (UNDEF: 0)
      7c:	00985000 	addseq	r5, r8, r0
      80:	009c0000 	addseq	r0, ip, r0
      84:	00010000 	andeq	r0, r1, r0
      88:	00009c50 	andeq	r9, r0, r0, asr ip
      8c:	0000a000 	andeq	sl, r0, r0
      90:	f3000400 	vshl.u8	d0, d0, d0
      94:	009f5001 	addseq	r5, pc, r1
      98:	00000000 	andeq	r0, r0, r0
      9c:	60000000 	andvs	r0, r0, r0
      a0:	6c000000 	stcvs	0, cr0, [r0], {-0}
      a4:	01000000 	mrseq	r0, (UNDEF: 0)
      a8:	006c5e00 	rsbeq	r5, ip, r0, lsl #28
      ac:	00740000 	rsbseq	r0, r4, r0
      b0:	00030000 	andeq	r0, r3, r0
      b4:	749f7f73 	ldrvc	r7, [pc], #3955	; bc <_back_addr-0x160ff44>
      b8:	78000000 	stmdavc	r0, {}	; <UNPREDICTABLE>
      bc:	01000000 	mrseq	r0, (UNDEF: 0)
      c0:	00785300 	rsbseq	r5, r8, r0, lsl #6
      c4:	00900000 	addseq	r0, r0, r0
      c8:	00010000 	andeq	r0, r1, r0
      cc:	0000005e 	andeq	r0, r0, lr, asr r0
      d0:	00000000 	andeq	r0, r0, r0
      d4:	00004000 	andeq	r4, r0, r0
      d8:	00006000 	andeq	r6, r0, r0
      dc:	50000100 	andpl	r0, r0, r0, lsl #2
      e0:	0000006c 	andeq	r0, r0, ip, rrx
      e4:	00000070 	andeq	r0, r0, r0, ror r0
      e8:	705c0001 	subsvc	r0, ip, r1
      ec:	74000000 	strvc	r0, [r0], #-0
      f0:	03000000 	movweq	r0, #0
      f4:	9f7f7c00 	svcls	0x007f7c00
	...
     104:	00000014 	andeq	r0, r0, r4, lsl r0
     108:	14500001 	ldrbne	r0, [r0], #-1
     10c:	50000000 	andpl	r0, r0, r0
     110:	01000001 	tsteq	r0, r1
     114:	01505800 	cmpeq	r0, r0, lsl #16
     118:	01580000 	cmpeq	r8, r0
     11c:	00040000 	andeq	r0, r4, r0
     120:	9f5001f3 	svcls	0x005001f3
     124:	00000158 	andeq	r0, r0, r8, asr r1
     128:	00000194 	muleq	r0, r4, r1
     12c:	00580001 	subseq	r0, r8, r1
	...
     138:	68000000 	stmdavs	r0, {}	; <UNPREDICTABLE>
     13c:	01000000 	mrseq	r0, (UNDEF: 0)
     140:	00685200 	rsbeq	r5, r8, r0, lsl #4
     144:	007c0000 	rsbseq	r0, ip, r0
     148:	00040000 	andeq	r0, r4, r0
     14c:	9f5201f3 	svcls	0x005201f3
     150:	0000007c 	andeq	r0, r0, ip, ror r0
     154:	00000084 	andeq	r0, r0, r4, lsl #1
     158:	84520001 	ldrbhi	r0, [r2], #-1
     15c:	a8000000 	stmdage	r0, {}	; <UNPREDICTABLE>
     160:	04000000 	streq	r0, [r0], #-0
     164:	5201f300 	andpl	pc, r1, #0, 6
     168:	0000a89f 	muleq	r0, pc, r8	; <UNPREDICTABLE>
     16c:	00017c00 	andeq	r7, r1, r0, lsl #24
     170:	52000100 	andpl	r0, r0, #0, 2
     174:	0000017c 	andeq	r0, r0, ip, ror r1
     178:	00000188 	andeq	r0, r0, r8, lsl #3
     17c:	01f30004 	mvnseq	r0, r4
     180:	01889f52 	orreq	r9, r8, r2, asr pc
     184:	01940000 	orrseq	r0, r4, r0
     188:	00020000 	andeq	r0, r2, r0
     18c:	00009f40 	andeq	r9, r0, r0, asr #30
     190:	00000000 	andeq	r0, r0, r0
     194:	00100000 	andseq	r0, r0, r0
     198:	00400000 	subeq	r0, r0, r0
     19c:	00010000 	andeq	r0, r1, r0
     1a0:	00004050 	andeq	r4, r0, r0, asr r0
     1a4:	00015800 	andeq	r5, r1, r0, lsl #16
     1a8:	53000100 	movwpl	r0, #256	; 0x100
     1ac:	00000158 	andeq	r0, r0, r8, asr r1
     1b0:	0000015c 	andeq	r0, r0, ip, asr r1
     1b4:	5c500001 	mrrcpl	0, 0, r0, r0, cr1	; <UNPREDICTABLE>
     1b8:	94000001 	strls	r0, [r0], #-1
     1bc:	01000001 	tsteq	r0, r1
     1c0:	00005300 	andeq	r5, r0, r0, lsl #6
     1c4:	00000000 	andeq	r0, r0, r0
     1c8:	00a80000 	adceq	r0, r8, r0
     1cc:	00b40000 	adcseq	r0, r4, r0
     1d0:	00020000 	andeq	r0, r2, r0
     1d4:	00b49f30 	adcseq	r9, r4, r0, lsr pc
     1d8:	00d00000 	sbcseq	r0, r0, r0
     1dc:	00010000 	andeq	r0, r1, r0
     1e0:	0000d056 	andeq	sp, r0, r6, asr r0
     1e4:	0000d400 	andeq	sp, r0, r0, lsl #8
     1e8:	7a000600 	bvc	19f0 <_back_addr-0x160e610>
     1ec:	1e007600 	cfmadd32ne	mvax0, mvfx7, mvfx0, mvfx0
     1f0:	0000d49f 	muleq	r0, pc, r4	; <UNPREDICTABLE>
     1f4:	00012400 	andeq	r2, r1, r0, lsl #8
     1f8:	56000100 	strpl	r0, [r0], -r0, lsl #2
     1fc:	00000128 	andeq	r0, r0, r8, lsr #2
     200:	00000140 	andeq	r0, r0, r0, asr #2
     204:	44560001 	ldrbmi	r0, [r6], #-1
     208:	58000001 	stmdapl	r0, {r0}
     20c:	01000001 	tsteq	r0, r1
     210:	00005000 	andeq	r5, r0, r0
     214:	00000000 	andeq	r0, r0, r0
     218:	00a80000 	adceq	r0, r8, r0
     21c:	013c0000 	teqeq	ip, r0
     220:	00010000 	andeq	r0, r1, r0
     224:	00000050 	andeq	r0, r0, r0, asr r0
     228:	00000000 	andeq	r0, r0, r0
     22c:	00001400 	andeq	r1, r0, r0, lsl #8
     230:	00001800 	andeq	r1, r0, r0, lsl #16
     234:	5e000100 	adfpls	f0, f0, f0
     238:	00000020 	andeq	r0, r0, r0, lsr #32
     23c:	0000007c 	andeq	r0, r0, ip, ror r0
     240:	7c5e0001 	mrrcvc	0, 0, r0, lr, cr1
     244:	94000000 	strls	r0, [r0], #-0
     248:	03000000 	movweq	r0, #0
     24c:	9f300800 	svcls	0x00300800
     250:	000000b4 	strheq	r0, [r0], -r4
     254:	000000e8 	andeq	r0, r0, r8, ror #1
     258:	045e0001 	ldrbeq	r0, [lr], #-1
     25c:	28000001 	stmdacs	r0, {r0}
     260:	01000001 	tsteq	r0, r1
     264:	01585e00 	cmpeq	r8, r0, lsl #28
     268:	01940000 	orrseq	r0, r4, r0
     26c:	00010000 	andeq	r0, r1, r0
     270:	0000005e 	andeq	r0, r0, lr, asr r0
     274:	00000000 	andeq	r0, r0, r0
     278:	00003800 	andeq	r3, r0, r0, lsl #16
     27c:	00004400 	andeq	r4, r0, r0, lsl #8
     280:	30000200 	andcc	r0, r0, r0, lsl #4
     284:	0001589f 	muleq	r1, pc, r8	; <UNPREDICTABLE>
     288:	00016800 	andeq	r6, r1, r0, lsl #16
     28c:	31000200 	mrscc	r0, R8_usr
     290:	0000009f 	muleq	r0, pc, r0	; <UNPREDICTABLE>
     294:	00000000 	andeq	r0, r0, r0
     298:	0000a800 	andeq	sl, r0, r0, lsl #16
     29c:	0000b400 	andeq	fp, r0, r0, lsl #8
     2a0:	30000200 	andcc	r0, r0, r0, lsl #4
     2a4:	0000b49f 	muleq	r0, pc, r4	; <UNPREDICTABLE>
     2a8:	0000d000 	andeq	sp, r0, r0
     2ac:	55000100 	strpl	r0, [r0, #-256]	; 0x100
     2b0:	000000d0 	ldrdeq	r0, [r0], -r0	; <UNPREDICTABLE>
     2b4:	000000d8 	ldrdeq	r0, [r0], -r8
     2b8:	9f310002 	svcls	0x00310002
     2bc:	000000d8 	ldrdeq	r0, [r0], -r8
     2c0:	00000120 	andeq	r0, r0, r0, lsr #2
     2c4:	28550001 	ldmdacs	r5, {r0}^
     2c8:	58000001 	stmdapl	r0, {r0}
     2cc:	01000001 	tsteq	r0, r1
     2d0:	00005500 	andeq	r5, r0, r0, lsl #10
     2d4:	00000000 	andeq	r0, r0, r0
     2d8:	00a80000 	adceq	r0, r8, r0
     2dc:	01580000 	cmpeq	r8, r0
     2e0:	00010000 	andeq	r0, r1, r0
     2e4:	00000059 	andeq	r0, r0, r9, asr r0
     2e8:	00000000 	andeq	r0, r0, r0
     2ec:	00001800 	andeq	r1, r0, r0, lsl #16
     2f0:	00002800 	andeq	r2, r0, r0, lsl #16
     2f4:	51000100 	mrspl	r0, (UNDEF: 16)
     2f8:	00000028 	andeq	r0, r0, r8, lsr #32
     2fc:	0000003c 	andeq	r0, r0, ip, lsr r0
     300:	01f30004 	mvnseq	r0, r4
     304:	00009f51 	andeq	r9, r0, r1, asr pc
     308:	00000000 	andeq	r0, r0, r0
     30c:	00180000 	andseq	r0, r8, r0
     310:	001c0000 	andseq	r0, ip, r0
     314:	00010000 	andeq	r0, r1, r0
     318:	00001c52 	andeq	r1, r0, r2, asr ip
     31c:	00002400 	andeq	r2, r0, r0, lsl #8
     320:	72000300 	andvc	r0, r0, #0, 6
     324:	00249f7f 	eoreq	r9, r4, pc, ror pc
     328:	00280000 	eoreq	r0, r8, r0
     32c:	00060000 	andeq	r0, r6, r0
     330:	315201f3 	ldrshcc	r0, [r2, #-19]	; 0xffffffed
     334:	00289f1c 	eoreq	r9, r8, ip, lsl pc
     338:	002c0000 	eoreq	r0, ip, r0
     33c:	000b0000 	andeq	r0, fp, r0
     340:	f3200071 	vqadd.u32	q0, q0, <illegal reg q8.5>
     344:	71225201 	teqvc	r2, r1, lsl #4
     348:	2c9f2200 	lfmcs	f2, 4, [pc], {0}
     34c:	3c000000 	stccc	0, cr0, [r0], {-0}
     350:	0b000000 	bleq	358 <_back_addr-0x160fca8>
     354:	20007100 	andcs	r7, r0, r0, lsl #2
     358:	f3220071 	vqadd.u32	q0, q1, <illegal reg q8.5>
     35c:	9f225201 	svcls	0x00225201
	...
     368:	0000001c 	andeq	r0, r0, ip, lsl r0
     36c:	00000028 	andeq	r0, r0, r8, lsr #32
     370:	00500001 	subseq	r0, r0, r1
     374:	00000000 	andeq	r0, r0, r0
     378:	1c000000 	stcne	0, cr0, [r0], {-0}
     37c:	2c000000 	stccs	0, cr0, [r0], {-0}
     380:	01000000 	mrseq	r0, (UNDEF: 0)
     384:	002c5100 	eoreq	r5, ip, r0, lsl #2
     388:	00300000 	eorseq	r0, r0, r0
     38c:	00030000 	andeq	r0, r3, r0
     390:	309f7f71 	addscc	r7, pc, r1, ror pc	; <UNPREDICTABLE>
     394:	3c000000 	stccc	0, cr0, [r0], {-0}
     398:	01000000 	mrseq	r0, (UNDEF: 0)
     39c:	00005100 	andeq	r5, r0, r0, lsl #2
     3a0:	00000000 	andeq	r0, r0, r0
     3a4:	003c0000 	eorseq	r0, ip, r0
     3a8:	00500000 	subseq	r0, r0, r0
     3ac:	00010000 	andeq	r0, r1, r0
     3b0:	00005050 	andeq	r5, r0, r0, asr r0
     3b4:	00006000 	andeq	r6, r0, r0
     3b8:	5c000100 	stfpls	f0, [r0], {-0}
     3bc:	00000060 	andeq	r0, r0, r0, rrx
     3c0:	00000068 	andeq	r0, r0, r8, rrx
     3c4:	7f7c0003 	svcvc	0x007c0003
     3c8:	0000689f 	muleq	r0, pc, r8	; <UNPREDICTABLE>
     3cc:	00008c00 	andeq	r8, r0, r0, lsl #24
     3d0:	f3000400 	vshl.u8	d0, d0, d0
     3d4:	8c9f5001 	ldchi	0, cr5, [pc], {1}
     3d8:	90000000 	andls	r0, r0, r0
     3dc:	01000000 	mrseq	r0, (UNDEF: 0)
     3e0:	00905000 	addseq	r5, r0, r0
     3e4:	00940000 	addseq	r0, r4, r0
     3e8:	00040000 	andeq	r0, r4, r0
     3ec:	9f5001f3 	svcls	0x005001f3
	...
     3f8:	0000003c 	andeq	r0, r0, ip, lsr r0
     3fc:	00000068 	andeq	r0, r0, r8, rrx
     400:	68510001 	ldmdavs	r1, {r0}^
     404:	8c000000 	stchi	0, cr0, [r0], {-0}
     408:	04000000 	streq	r0, [r0], #-0
     40c:	5101f300 	mrspl	pc, SP_irq	; <UNPREDICTABLE>
     410:	00008c9f 	muleq	r0, pc, ip	; <UNPREDICTABLE>
     414:	00009400 	andeq	r9, r0, r0, lsl #8
     418:	51000100 	mrspl	r0, (UNDEF: 16)
	...
     424:	0000003c 	andeq	r0, r0, ip, lsr r0
     428:	0000005c 	andeq	r0, r0, ip, asr r0
     42c:	5c520001 	mrrcpl	0, 0, r0, r2, cr1
     430:	68000000 	stmdavs	r0, {}	; <UNPREDICTABLE>
     434:	04000000 	streq	r0, [r0], #-0
     438:	5201f300 	andpl	pc, r1, #0, 6
     43c:	0000689f 	muleq	r0, pc, r8	; <UNPREDICTABLE>
     440:	00006c00 	andeq	r6, r0, r0, lsl #24
     444:	f3000b00 	vqrdmulh.s<illegal width 8>	d0, d0, d0
     448:	007c5001 	rsbseq	r5, ip, r1
     44c:	5201f31c 	andpl	pc, r1, #28, 6	; 0x70000000
     450:	006c9f22 	rsbeq	r9, ip, r2, lsr #30
     454:	00780000 	rsbseq	r0, r8, r0
     458:	000d0000 	andeq	r0, sp, r0
     45c:	f35001f3 	vbsl	q8, q8, <illegal reg q9.5>
     460:	7c225201 	sfmvc	f5, 4, [r2], #-4
     464:	01231c00 	teqeq	r3, r0, lsl #24
     468:	0000789f 	muleq	r0, pc, r8	; <UNPREDICTABLE>
     46c:	00008400 	andeq	r8, r0, r0, lsl #8
     470:	f3000b00 	vqrdmulh.s<illegal width 8>	d0, d0, d0
     474:	007c5001 	rsbseq	r5, ip, r1
     478:	5201f31c 	andpl	pc, r1, #28, 6	; 0x70000000
     47c:	00849f22 	addeq	r9, r4, r2, lsr #30
     480:	008c0000 	addeq	r0, ip, r0
     484:	000d0000 	andeq	r0, sp, r0
     488:	f35001f3 	vbsl	q8, q8, <illegal reg q9.5>
     48c:	7c225201 	sfmvc	f5, 4, [r2], #-4
     490:	01231c00 	teqeq	r3, r0, lsl #24
     494:	00008c9f 	muleq	r0, pc, ip	; <UNPREDICTABLE>
     498:	00009400 	andeq	r9, r0, r0, lsl #8
     49c:	52000100 	andpl	r0, r0, #0, 2
	...
     4a8:	00000040 	andeq	r0, r0, r0, asr #32
     4ac:	00000050 	andeq	r0, r0, r0, asr r0
     4b0:	50500001 	subspl	r0, r0, r1
     4b4:	60000000 	andvs	r0, r0, r0
     4b8:	01000000 	mrseq	r0, (UNDEF: 0)
     4bc:	00605c00 	rsbeq	r5, r0, r0, lsl #24
     4c0:	00680000 	rsbeq	r0, r8, r0
     4c4:	00030000 	andeq	r0, r3, r0
     4c8:	689f7f7c 	ldmvs	pc, {r2, r3, r4, r5, r6, r8, r9, sl, fp, ip, sp, lr}	; <UNPREDICTABLE>
     4cc:	6c000000 	stcvs	0, cr0, [r0], {-0}
     4d0:	01000000 	mrseq	r0, (UNDEF: 0)
     4d4:	006c5c00 	rsbeq	r5, ip, r0, lsl #24
     4d8:	00780000 	rsbseq	r0, r8, r0
     4dc:	00030000 	andeq	r0, r3, r0
     4e0:	789f7f7c 	ldmvc	pc, {r2, r3, r4, r5, r6, r8, r9, sl, fp, ip, sp, lr}	; <UNPREDICTABLE>
     4e4:	84000000 	strhi	r0, [r0], #-0
     4e8:	01000000 	mrseq	r0, (UNDEF: 0)
     4ec:	00845c00 	addeq	r5, r4, r0, lsl #24
     4f0:	008c0000 	addeq	r0, ip, r0
     4f4:	00030000 	andeq	r0, r3, r0
     4f8:	8c9f7f7c 	ldchi	15, cr7, [pc], {124}	; 0x7c
     4fc:	90000000 	andls	r0, r0, r0
     500:	01000000 	mrseq	r0, (UNDEF: 0)
     504:	00905000 	addseq	r5, r0, r0
     508:	00940000 	addseq	r0, r4, r0
     50c:	00040000 	andeq	r0, r4, r0
     510:	9f5001f3 	svcls	0x005001f3
	...
     51c:	00000040 	andeq	r0, r0, r0, asr #32
     520:	00000068 	andeq	r0, r0, r8, rrx
     524:	68510001 	ldmdavs	r1, {r0}^
     528:	6c000000 	stcvs	0, cr0, [r0], {-0}
     52c:	0b000000 	bleq	534 <_back_addr-0x160facc>
     530:	5101f300 	mrspl	pc, SP_irq	; <UNPREDICTABLE>
     534:	1c5001f3 	ldfnee	f0, [r0], {243}	; 0xf3
     538:	9f22007c 	svcls	0x0022007c
     53c:	0000006c 	andeq	r0, r0, ip, rrx
     540:	00000078 	andeq	r0, r0, r8, ror r0
     544:	01f3000c 	mvnseq	r0, ip
     548:	007c2050 	rsbseq	r2, ip, r0, asr r0
     54c:	5101f322 	tstpl	r1, r2, lsr #6
     550:	00789f22 	rsbseq	r9, r8, r2, lsr #30
     554:	00840000 	addeq	r0, r4, r0
     558:	000b0000 	andeq	r0, fp, r0
     55c:	f35101f3 	vbsl	q8, <illegal reg q8.5>, <illegal reg q9.5>
     560:	7c1c5001 	ldcvc	0, cr5, [ip], {1}
     564:	849f2200 	ldrhi	r2, [pc], #512	; 56c <_back_addr-0x160fa94>
     568:	8c000000 	stchi	0, cr0, [r0], {-0}
     56c:	0c000000 	stceq	0, cr0, [r0], {-0}
     570:	5001f300 	andpl	pc, r1, r0, lsl #6
     574:	22007c20 	andcs	r7, r0, #32, 24	; 0x2000
     578:	225101f3 	subscs	r0, r1, #-1073741764	; 0xc000003c
     57c:	00008c9f 	muleq	r0, pc, ip	; <UNPREDICTABLE>
     580:	00009400 	andeq	r9, r0, r0, lsl #8
     584:	51000100 	mrspl	r0, (UNDEF: 16)
	...
     590:	00000040 	andeq	r0, r0, r0, asr #32
     594:	00000050 	andeq	r0, r0, r0, asr r0
     598:	9f300002 	svcls	0x00300002
     59c:	00000050 	andeq	r0, r0, r0, asr r0
     5a0:	00000054 	andeq	r0, r0, r4, asr r0
     5a4:	00730006 	rsbseq	r0, r3, r6
     5a8:	9f1c0070 	svcls	0x001c0070
     5ac:	00000054 	andeq	r0, r0, r4, asr r0
     5b0:	00000068 	andeq	r0, r0, r8, rrx
     5b4:	68500001 	ldmdavs	r0, {r0}^
     5b8:	70000000 	andvc	r0, r0, r0
     5bc:	02000000 	andeq	r0, r0, #0
     5c0:	709f3000 	addsvc	r3, pc, r0
     5c4:	74000000 	strvc	r0, [r0], #-0
     5c8:	06000000 	streq	r0, [r0], -r0
     5cc:	7e007300 	cdpvc	3, 0, cr7, cr0, cr0, {0}
     5d0:	749f1c00 	ldrvc	r1, [pc], #3072	; 5d8 <_back_addr-0x160fa28>
     5d4:	78000000 	stmdavc	r0, {}	; <UNPREDICTABLE>
     5d8:	01000000 	mrseq	r0, (UNDEF: 0)
     5dc:	00785300 	rsbseq	r5, r8, r0, lsl #6
     5e0:	00840000 	addeq	r0, r4, r0
     5e4:	00020000 	andeq	r0, r2, r0
     5e8:	00849f30 	addeq	r9, r4, r0, lsr pc
     5ec:	00880000 	addeq	r0, r8, r0
     5f0:	00010000 	andeq	r0, r1, r0
     5f4:	00008853 	andeq	r8, r0, r3, asr r8
     5f8:	00008c00 	andeq	r8, r0, r0, lsl #24
     5fc:	50000100 	andpl	r0, r0, r0, lsl #2
     600:	0000008c 	andeq	r0, r0, ip, lsl #1
     604:	00000090 	muleq	r0, r0, r0
     608:	9f300002 	svcls	0x00300002
     60c:	00000090 	muleq	r0, r0, r0
     610:	00000094 	muleq	r0, r4, r0
     614:	00500001 	subseq	r0, r0, r1
     618:	00000000 	andeq	r0, r0, r0
     61c:	94000000 	strls	r0, [r0], #-0
     620:	ac000000 	stcge	0, cr0, [r0], {-0}
     624:	01000000 	mrseq	r0, (UNDEF: 0)
     628:	00ac5000 	adceq	r5, ip, r0
     62c:	03740000 	cmneq	r4, #0
     630:	00040000 	andeq	r0, r4, r0
     634:	9f5001f3 	svcls	0x005001f3
	...
     640:	00000094 	muleq	r0, r4, r0
     644:	00000354 	andeq	r0, r0, r4, asr r3
     648:	ff090003 			; <UNDEFINED> instruction: 0xff090003
     64c:	0003549f 	muleq	r3, pc, r4	; <UNPREDICTABLE>
     650:	00035c00 	andeq	r5, r3, r0, lsl #24
     654:	50000100 	andpl	r0, r0, r0, lsl #2
     658:	0000035c 	andeq	r0, r0, ip, asr r3
     65c:	00000368 	andeq	r0, r0, r8, ror #6
     660:	ff090003 			; <UNDEFINED> instruction: 0xff090003
     664:	0003689f 	muleq	r3, pc, r8	; <UNPREDICTABLE>
     668:	00037400 	andeq	r7, r3, r0, lsl #8
     66c:	31000200 	mrscc	r0, R8_usr
     670:	0000009f 	muleq	r0, pc, r0	; <UNPREDICTABLE>
     674:	00000000 	andeq	r0, r0, r0
     678:	0000b400 	andeq	fp, r0, r0, lsl #8
     67c:	0001a400 	andeq	sl, r1, r0, lsl #8
     680:	56000100 	strpl	r0, [r0], -r0, lsl #2
     684:	000001a4 	andeq	r0, r0, r4, lsr #3
     688:	000001a8 	andeq	r0, r0, r8, lsr #3
     68c:	a8500001 	ldmdage	r0, {r0}^
     690:	74000001 	strvc	r0, [r0], #-1
     694:	01000003 	tsteq	r0, r3
     698:	00005400 	andeq	r5, r0, r0, lsl #8
     69c:	00000000 	andeq	r0, r0, r0
     6a0:	02240000 	eoreq	r0, r4, #0
     6a4:	03580000 	cmpeq	r8, #0
     6a8:	00010000 	andeq	r0, r1, r0
     6ac:	0003585d 	andeq	r5, r3, sp, asr r8
     6b0:	00035c00 	andeq	r5, r3, r0, lsl #24
     6b4:	91000400 	tstls	r0, r0, lsl #8
     6b8:	5c9f7bc0 	vldmiapl	pc, {d7-<overflow reg d38>}
     6bc:	70000003 	andvc	r0, r0, r3
     6c0:	01000003 	tsteq	r0, r3
     6c4:	03705d00 	cmneq	r0, #0, 26
     6c8:	03740000 	cmneq	r4, #0
     6cc:	00040000 	andeq	r0, r4, r0
     6d0:	9f7bc091 	svcls	0x007bc091
	...
     6dc:	00000224 	andeq	r0, r0, r4, lsr #4
     6e0:	000002d0 	ldrdeq	r0, [r0], -r0	; <UNPREDICTABLE>
     6e4:	e0910004 	adds	r0, r1, r4
     6e8:	02d09f7b 	sbcseq	r9, r0, #492	; 0x1ec
     6ec:	02db0000 	sbcseq	r0, fp, #0
     6f0:	00010000 	andeq	r0, r1, r0
     6f4:	0002db52 	andeq	sp, r2, r2, asr fp
     6f8:	0002e400 	andeq	lr, r2, r0, lsl #8
     6fc:	91000400 	tstls	r0, r0, lsl #8
     700:	e49f7be0 	ldr	r7, [pc], #3040	; 708 <_back_addr-0x160f8f8>
     704:	e7000002 	str	r0, [r0, -r2]
     708:	01000002 	tsteq	r0, r2
     70c:	02e75000 	rsceq	r5, r7, #0
     710:	03240000 	teqeq	r4, #0
     714:	00040000 	andeq	r0, r4, r0
     718:	9f7be091 	svcls	0x007be091
     71c:	00000324 	andeq	r0, r0, r4, lsr #6
     720:	0000032c 	andeq	r0, r0, ip, lsr #6
     724:	2c520001 	mrrccs	0, 0, r0, r2, cr1
     728:	74000003 	strvc	r0, [r0], #-3
     72c:	04000003 	streq	r0, [r0], #-3
     730:	7be09100 	blvc	ff824b38 <__bss_end__+0xfe201ee8>
     734:	0000009f 	muleq	r0, pc, r0	; <UNPREDICTABLE>
     738:	00000000 	andeq	r0, r0, r0
     73c:	00022400 	andeq	r2, r2, r0, lsl #8
     740:	0002a000 	andeq	sl, r2, r0
     744:	30000200 	andcc	r0, r0, r0, lsl #4
     748:	0002a09f 	muleq	r2, pc, r0	; <UNPREDICTABLE>
     74c:	0002b000 	andeq	fp, r2, r0
     750:	55000100 	strpl	r0, [r0, #-256]	; 0x100
     754:	000002b0 			; <UNDEFINED> instruction: 0x000002b0
     758:	000002bb 			; <UNDEFINED> instruction: 0x000002bb
     75c:	bc500001 	mrrclt	0, 0, r0, r0, cr1	; <UNPREDICTABLE>
     760:	74000002 	strvc	r0, [r0], #-2
     764:	01000003 	tsteq	r0, r3
     768:	00005500 	andeq	r5, r0, r0, lsl #10
     76c:	00000000 	andeq	r0, r0, r0
     770:	02ec0000 	rsceq	r0, ip, #0
     774:	02f40000 	rscseq	r0, r4, #0
     778:	00040000 	andeq	r0, r4, r0
     77c:	9f7de091 	svcls	0x007de091
     780:	000002f4 	strdeq	r0, [r0], -r4
     784:	00000303 	andeq	r0, r0, r3, lsl #6
     788:	03520001 	cmpeq	r2, #1
     78c:	20000003 	andcs	r0, r0, r3
     790:	04000003 	streq	r0, [r0], #-3
     794:	7de09100 	stfvcp	f1, [r0]
     798:	0003209f 	muleq	r3, pc, r0	; <UNPREDICTABLE>
     79c:	00032c00 	andeq	r2, r3, r0, lsl #24
     7a0:	53000100 	movwpl	r0, #256	; 0x100
     7a4:	0000032c 	andeq	r0, r0, ip, lsr #6
     7a8:	00000374 	andeq	r0, r0, r4, ror r3
     7ac:	e0910004 	adds	r0, r1, r4
     7b0:	00009f7d 	andeq	r9, r0, sp, ror pc
     7b4:	00000000 	andeq	r0, r0, r0
     7b8:	03080000 	movweq	r0, #32768	; 0x8000
     7bc:	032c0000 	teqeq	ip, #0
     7c0:	00040000 	andeq	r0, r4, r0
     7c4:	9f01000a 	svcls	0x0001000a
     7c8:	0000032c 	andeq	r0, r0, ip, lsr #6
     7cc:	00000344 	andeq	r0, r0, r4, asr #6
     7d0:	7c910008 	ldcvc	0, cr0, [r1], {8}
     7d4:	4d1c0073 	ldcmi	0, cr0, [ip, #-460]	; 0xfffffe34
     7d8:	035c9f1c 	cmpeq	ip, #28, 30	; 0x70
     7dc:	03670000 	cmneq	r7, #0
     7e0:	00080000 	andeq	r0, r8, r0
     7e4:	00737c91 			; <UNDEFINED> instruction: 0x00737c91
     7e8:	9f1c4d1c 	svcls	0x001c4d1c
	...
     7f4:	00000308 	andeq	r0, r0, r8, lsl #6
     7f8:	00000324 	andeq	r0, r0, r4, lsr #6
     7fc:	e0910004 	adds	r0, r1, r4
     800:	03249f7b 	teqeq	r4, #492	; 0x1ec
     804:	032c0000 	teqeq	ip, #0
     808:	00010000 	andeq	r0, r1, r0
     80c:	00032c52 	andeq	r2, r3, r2, asr ip
     810:	00037400 	andeq	r7, r3, r0, lsl #8
     814:	91000400 	tstls	r0, r0, lsl #8
     818:	009f7be0 	addseq	r7, pc, r0, ror #23
     81c:	00000000 	andeq	r0, r0, r0
     820:	08000000 	stmdaeq	r0, {}	; <UNPREDICTABLE>
     824:	20000003 	andcs	r0, r0, r3
     828:	04000003 	streq	r0, [r0], #-3
     82c:	7de09100 	stfvcp	f1, [r0]
     830:	0003209f 	muleq	r3, pc, r0	; <UNPREDICTABLE>
     834:	00032c00 	andeq	r2, r3, r0, lsl #24
     838:	53000100 	movwpl	r0, #256	; 0x100
     83c:	0000032c 	andeq	r0, r0, ip, lsr #6
     840:	00000374 	andeq	r0, r0, r4, ror r3
     844:	e0910004 	adds	r0, r1, r4
     848:	00009f7d 	andeq	r9, r0, sp, ror pc
     84c:	00000000 	andeq	r0, r0, r0
     850:	03080000 	movweq	r0, #32768	; 0x8000
     854:	03200000 	teqeq	r0, #0
     858:	00040000 	andeq	r0, r4, r0
     85c:	9f7de091 	svcls	0x007de091
     860:	00000320 	andeq	r0, r0, r0, lsr #6
     864:	0000032c 	andeq	r0, r0, ip, lsr #6
     868:	2c530001 	mrrccs	0, 0, r0, r3, cr1
     86c:	44000003 	strmi	r0, [r0], #-3
     870:	03000003 	movweq	r0, #3
     874:	9f017300 	svcls	0x00017300
     878:	0000035c 	andeq	r0, r0, ip, asr r3
     87c:	00000367 	andeq	r0, r0, r7, ror #6
     880:	01730003 	cmneq	r3, r3
     884:	0000009f 	muleq	r0, pc, r0	; <UNPREDICTABLE>
     888:	00000000 	andeq	r0, r0, r0
     88c:	00030800 	andeq	r0, r3, r0, lsl #16
     890:	00032400 	andeq	r2, r3, r0, lsl #8
     894:	91000400 	tstls	r0, r0, lsl #8
     898:	249f7be0 	ldrcs	r7, [pc], #3040	; 8a0 <_back_addr-0x160f760>
     89c:	2c000003 	stccs	0, cr0, [r0], {3}
     8a0:	01000003 	tsteq	r0, r3
     8a4:	032c5200 	teqeq	ip, #0, 4
     8a8:	03440000 	movteq	r0, #16384	; 0x4000
     8ac:	00040000 	andeq	r0, r4, r0
     8b0:	9f7e8173 	svcls	0x007e8173
     8b4:	0000035c 	andeq	r0, r0, ip, asr r3
     8b8:	00000367 	andeq	r0, r0, r7, ror #6
     8bc:	81730004 	cmnhi	r3, r4
     8c0:	00009f7e 	andeq	r9, r0, lr, ror pc
     8c4:	00000000 	andeq	r0, r0, r0
     8c8:	03080000 	movweq	r0, #32768	; 0x8000
     8cc:	030c0000 	movweq	r0, #49152	; 0xc000
     8d0:	00120000 	andseq	r0, r2, r0
     8d4:	947de091 	ldrbtls	lr, [sp], #-145	; 0x91
     8d8:	1aff0801 	bne	fffc28e4 <__bss_end__+0xfe99fc94>
     8dc:	947be091 	ldrbtls	lr, [fp], #-145	; 0x91
     8e0:	1aff0801 	bne	fffc28ec <__bss_end__+0xfe99fc9c>
     8e4:	030c9f1c 	movweq	r9, #53020	; 0xcf1c
     8e8:	03100000 	tsteq	r0, #0
     8ec:	000c0000 	andeq	r0, ip, r0
     8f0:	e0910072 	adds	r0, r1, r2, ror r0
     8f4:	0801947b 	stmdaeq	r1, {r0, r1, r3, r4, r5, r6, sl, ip, pc}
     8f8:	9f1c1aff 	svcls	0x001c1aff
     8fc:	00000310 	andeq	r0, r0, r0, lsl r3
     900:	00000320 	andeq	r0, r0, r0, lsr #6
     904:	00720006 	rsbseq	r0, r2, r6
     908:	9f1c0073 	svcls	0x001c0073
     90c:	00000320 	andeq	r0, r0, r0, lsr #6
     910:	00000324 	andeq	r0, r0, r4, lsr #6
     914:	0072000c 	rsbseq	r0, r2, ip
     918:	947be091 	ldrbtls	lr, [fp], #-145	; 0x91
     91c:	1aff0801 	bne	fffc2928 <__bss_end__+0xfe99fcd8>
     920:	03249f1c 	teqeq	r4, #28, 30	; 0x70
     924:	032c0000 	teqeq	ip, #0
     928:	00100000 	andseq	r0, r0, r0
     92c:	01940073 	orrseq	r0, r4, r3, ror r0
     930:	721aff08 	andsvc	pc, sl, #8, 30
     934:	08019400 	stmdaeq	r1, {sl, ip, pc}
     938:	9f1c1aff 	svcls	0x001c1aff
     93c:	0000032c 	andeq	r0, r0, ip, lsr #6
     940:	00000334 	andeq	r0, r0, r4, lsr r3
     944:	9f300002 	svcls	0x00300002
     948:	00000334 	andeq	r0, r0, r4, lsr r3
     94c:	00000338 	andeq	r0, r0, r8, lsr r3
     950:	00730010 	rsbseq	r0, r3, r0, lsl r0
     954:	ff080194 			; <UNDEFINED> instruction: 0xff080194
     958:	9400721a 	strls	r7, [r0], #-538	; 0x21a
     95c:	1aff0801 	bne	fffc2968 <__bss_end__+0xfe99fd18>
     960:	03389f1c 	teqeq	r8, #28, 30	; 0x70
     964:	03440000 	movteq	r0, #16384	; 0x4000
     968:	00020000 	andeq	r0, r2, r0
     96c:	00009f30 	andeq	r9, r0, r0, lsr pc
     970:	00000000 	andeq	r0, r0, r0
     974:	03740000 	cmneq	r4, #0
     978:	03840000 	orreq	r0, r4, #0
     97c:	00010000 	andeq	r0, r1, r0
     980:	00038450 	andeq	r8, r3, r0, asr r4
     984:	00038700 	andeq	r8, r3, r0, lsl #14
     988:	53000100 	movwpl	r0, #256	; 0x100
     98c:	00000387 	andeq	r0, r0, r7, lsl #7
     990:	00000388 	andeq	r0, r0, r8, lsl #7
     994:	01f30004 	mvnseq	r0, r4
     998:	00009f50 	andeq	r9, r0, r0, asr pc
     99c:	00000000 	andeq	r0, r0, r0
     9a0:	03740000 	cmneq	r4, #0
     9a4:	03800000 	orreq	r0, r0, #0
     9a8:	00010000 	andeq	r0, r1, r0
     9ac:	00038051 	andeq	r8, r3, r1, asr r0
     9b0:	00038700 	andeq	r8, r3, r0, lsl #14
     9b4:	5c000100 	stfpls	f0, [r0], {-0}
     9b8:	00000387 	andeq	r0, r0, r7, lsl #7
     9bc:	00000388 	andeq	r0, r0, r8, lsl #7
     9c0:	01f30004 	mvnseq	r0, r4
     9c4:	00009f51 	andeq	r9, r0, r1, asr pc
     9c8:	00000000 	andeq	r0, r0, r0
     9cc:	03740000 	cmneq	r4, #0
     9d0:	03870000 	orreq	r0, r7, #0
     9d4:	00010000 	andeq	r0, r1, r0
     9d8:	00038752 	andeq	r8, r3, r2, asr r7
     9dc:	00038800 	andeq	r8, r3, r0, lsl #16
     9e0:	f3000400 	vshl.u8	d0, d0, d0
     9e4:	009f5201 	addseq	r5, pc, r1, lsl #4
     9e8:	00000000 	andeq	r0, r0, r0
     9ec:	88000000 	stmdahi	r0, {}	; <UNPREDICTABLE>
     9f0:	ab000003 	blge	a04 <_back_addr-0x160f5fc>
     9f4:	01000003 	tsteq	r0, r3
     9f8:	03ab5000 			; <UNDEFINED> instruction: 0x03ab5000
     9fc:	04300000 	ldrteq	r0, [r0], #-0
     a00:	00010000 	andeq	r0, r1, r0
     a04:	00000056 	andeq	r0, r0, r6, asr r0
     a08:	00000000 	andeq	r0, r0, r0
     a0c:	00038800 	andeq	r8, r3, r0, lsl #16
     a10:	0003ab00 	andeq	sl, r3, r0, lsl #22
     a14:	51000100 	mrspl	r0, (UNDEF: 16)
     a18:	000003ab 	andeq	r0, r0, fp, lsr #7
     a1c:	00000430 	andeq	r0, r0, r0, lsr r4
     a20:	00550001 	subseq	r0, r5, r1
     a24:	00000000 	andeq	r0, r0, r0
     a28:	88000000 	stmdahi	r0, {}	; <UNPREDICTABLE>
     a2c:	bc000003 	stclt	0, cr0, [r0], {3}
     a30:	03000003 	movweq	r0, #3
     a34:	9fff0900 	svcls	0x00ff0900
     a38:	000003bc 			; <UNDEFINED> instruction: 0x000003bc
     a3c:	000003c8 	andeq	r0, r0, r8, asr #7
     a40:	dc500001 	mrrcle	0, 0, r0, r0, cr1	; <UNPREDICTABLE>
     a44:	e0000003 	and	r0, r0, r3
     a48:	01000003 	tsteq	r0, r3
     a4c:	00005000 	andeq	r5, r0, r0
     a50:	00000000 	andeq	r0, r0, r0
     a54:	04040000 	streq	r0, [r4], #-0
     a58:	04080000 	streq	r0, [r8], #-0
     a5c:	00010000 	andeq	r0, r1, r0
     a60:	00040850 	andeq	r0, r4, r0, asr r8
     a64:	00043000 	andeq	r3, r4, r0
     a68:	54000100 	strpl	r0, [r0], #-256	; 0x100
	...
     a74:	00000008 	andeq	r0, r0, r8
     a78:	00000014 	andeq	r0, r0, r4, lsl r0
     a7c:	9f300002 	svcls	0x00300002
     a80:	00000014 	andeq	r0, r0, r4, lsl r0
     a84:	000000e4 	andeq	r0, r0, r4, ror #1
     a88:	00550001 	subseq	r0, r5, r1
     a8c:	00000000 	andeq	r0, r0, r0
     a90:	14000000 	strne	r0, [r0], #-0
     a94:	18000000 	stmdane	r0, {}	; <UNPREDICTABLE>
     a98:	08000000 	stmdaeq	r0, {}	; <UNPREDICTABLE>
     a9c:	7e007700 	cdpvc	7, 0, cr7, cr0, cr0, {0}
     aa0:	1a372500 	bne	dc9ea8 <_back_addr-0x846158>
     aa4:	0000189f 	muleq	r0, pc, r8	; <UNPREDICTABLE>
     aa8:	00002400 	andeq	r2, r0, r0, lsl #8
     aac:	77000800 	strvc	r0, [r0, -r0, lsl #16]
     ab0:	257d7e00 	ldrbcs	r7, [sp, #-3584]!	; 0xe00
     ab4:	249f1a37 	ldrcs	r1, [pc], #2615	; abc <_back_addr-0x160f544>
     ab8:	2c000000 	stccs	0, cr0, [r0], {-0}
     abc:	08000000 	stmdaeq	r0, {}	; <UNPREDICTABLE>
     ac0:	7e007700 	cdpvc	7, 0, cr7, cr0, cr0, {0}
     ac4:	1a372500 	bne	dc9ecc <_back_addr-0x846134>
     ac8:	00002c9f 	muleq	r0, pc, ip	; <UNPREDICTABLE>
     acc:	00003000 	andeq	r3, r0, r0
     ad0:	53000100 	movwpl	r0, #256	; 0x100
     ad4:	00000030 	andeq	r0, r0, r0, lsr r0
     ad8:	00000058 	andeq	r0, r0, r8, asr r0
     adc:	02730003 	rsbseq	r0, r3, #3
     ae0:	0000589f 	muleq	r0, pc, r8	; <UNPREDICTABLE>
     ae4:	0000b000 	andeq	fp, r0, r0
     ae8:	77000800 	strvc	r0, [r0, -r0, lsl #16]
     aec:	25007e00 	strcs	r7, [r0, #-3584]	; 0xe00
     af0:	b09f1a37 	addslt	r1, pc, r7, lsr sl	; <UNPREDICTABLE>
     af4:	bc000000 	stclt	0, cr0, [r0], {-0}
     af8:	08000000 	stmdaeq	r0, {}	; <UNPREDICTABLE>
     afc:	7e007700 	cdpvc	7, 0, cr7, cr0, cr0, {0}
     b00:	1a37257d 	bne	dca0fc <_back_addr-0x845f04>
     b04:	0000c09f 	muleq	r0, pc, r0	; <UNPREDICTABLE>
     b08:	0000e400 	andeq	lr, r0, r0, lsl #8
     b0c:	77000800 	strvc	r0, [r0, -r0, lsl #16]
     b10:	25007e00 	strcs	r7, [r0, #-3584]	; 0xe00
     b14:	009f1a37 	addseq	r1, pc, r7, lsr sl	; <UNPREDICTABLE>
	...
     b20:	14000000 	strne	r0, [r0], #-0
     b24:	02000000 	andeq	r0, r0, #0
     b28:	149f3000 	ldrne	r3, [pc], #0	; b30 <_back_addr-0x160f4d0>
     b2c:	e4000000 	str	r0, [r0], #-0
     b30:	01000000 	mrseq	r0, (UNDEF: 0)
     b34:	00005e00 	andeq	r5, r0, r0, lsl #28
     b38:	00000000 	andeq	r0, r0, r0
     b3c:	00380000 	eorseq	r0, r8, r0
     b40:	00b40000 	adcseq	r0, r4, r0
     b44:	00010000 	andeq	r0, r1, r0
     b48:	0000b455 	andeq	fp, r0, r5, asr r4
     b4c:	0000bc00 	andeq	fp, r0, r0, lsl #24
     b50:	75000300 	strvc	r0, [r0, #-768]	; 0x300
     b54:	00c09f7f 	sbceq	r9, r0, pc, ror pc
     b58:	00e40000 	rsceq	r0, r4, r0
     b5c:	00010000 	andeq	r0, r1, r0
     b60:	00000055 	andeq	r0, r0, r5, asr r0
     b64:	00000000 	andeq	r0, r0, r0
     b68:	00005c00 	andeq	r5, r0, r0, lsl #24
     b6c:	0000bc00 	andeq	fp, r0, r0, lsl #24
     b70:	74000300 	strvc	r0, [r0], #-768	; 0x300
     b74:	00c09f01 	sbceq	r9, r0, r1, lsl #30
     b78:	00e40000 	rsceq	r0, r4, r0
     b7c:	00030000 	andeq	r0, r3, r0
     b80:	009f0174 	addseq	r0, pc, r4, ror r1	; <UNPREDICTABLE>
     b84:	00000000 	andeq	r0, r0, r0
     b88:	54000000 	strpl	r0, [r0], #-0
     b8c:	5c000000 	stcpl	0, cr0, [r0], {-0}
     b90:	0b000000 	bleq	b98 <_back_addr-0x160f468>
     b94:	0a007400 	beq	1db9c <_back_addr-0x15f2464>
     b98:	331a1ff8 	tstcc	sl, #248, 30	; 0x3e0
     b9c:	9f012325 	svcls	0x00012325
	...
     ba8:	00000044 	andeq	r0, r0, r4, asr #32
     bac:	00000054 	andeq	r0, r0, r4, asr r0
     bb0:	00740007 	rsbseq	r0, r4, r7
     bb4:	02231a37 	eoreq	r1, r3, #225280	; 0x37000
     bb8:	0000549f 	muleq	r0, pc, r4	; <UNPREDICTABLE>
     bbc:	0000bc00 	andeq	fp, r0, r0, lsl #24
     bc0:	52000100 	andpl	r0, r0, #0, 2
     bc4:	000000c0 	andeq	r0, r0, r0, asr #1
     bc8:	000000e4 	andeq	r0, r0, r4, ror #1
     bcc:	00520001 	subseq	r0, r2, r1
     bd0:	00000000 	andeq	r0, r0, r0
     bd4:	74000000 	strvc	r0, [r0], #-0
     bd8:	88000000 	stmdahi	r0, {}	; <UNPREDICTABLE>
     bdc:	01000000 	mrseq	r0, (UNDEF: 0)
     be0:	00005100 	andeq	r5, r0, r0, lsl #2
     be4:	00000000 	andeq	r0, r0, r0
     be8:	007c0000 	rsbseq	r0, ip, r0
     bec:	00bc0000 	adcseq	r0, ip, r0
     bf0:	00010000 	andeq	r0, r1, r0
     bf4:	0000c058 	andeq	ip, r0, r8, asr r0
     bf8:	0000e400 	andeq	lr, r0, r0, lsl #8
     bfc:	58000100 	stmdapl	r0, {r8}
	...
     c08:	00000038 	andeq	r0, r0, r8, lsr r0
     c0c:	000000bc 	strheq	r0, [r0], -ip
     c10:	9f300002 	svcls	0x00300002
     c14:	000000c0 	andeq	r0, r0, r0, asr #1
     c18:	000000e4 	andeq	r0, r0, r4, ror #1
     c1c:	9f300002 	svcls	0x00300002
	...
     c28:	0000003c 	andeq	r0, r0, ip, lsr r0
     c2c:	000000bc 	strheq	r0, [r0], -ip
     c30:	c0560001 	subsgt	r0, r6, r1
     c34:	e4000000 	str	r0, [r0], #-0
     c38:	01000000 	mrseq	r0, (UNDEF: 0)
     c3c:	00005600 	andeq	r5, r0, r0, lsl #12
     c40:	00000000 	andeq	r0, r0, r0
     c44:	00440000 	subeq	r0, r4, r0
     c48:	005c0000 	subseq	r0, ip, r0
     c4c:	00010000 	andeq	r0, r1, r0
     c50:	00000054 	andeq	r0, r0, r4, asr r0
     c54:	00000000 	andeq	r0, r0, r0
     c58:	00005c00 	andeq	r5, r0, r0, lsl #24
     c5c:	00006000 	andeq	r6, r0, r0
     c60:	09000300 	stmdbeq	r0, {r8, r9}
     c64:	00609fff 	strdeq	r9, [r0], #-255	; 0xffffff01	; <UNPREDICTABLE>
     c68:	00740000 	rsbseq	r0, r4, r0
     c6c:	00010000 	andeq	r0, r1, r0
     c70:	00000051 	andeq	r0, r0, r1, asr r0
     c74:	00000000 	andeq	r0, r0, r0
     c78:	00006000 	andeq	r6, r0, r0
     c7c:	00006400 	andeq	r6, r0, r0, lsl #8
     c80:	53000100 	movwpl	r0, #256	; 0x100
	...
     c8c:	00000088 	andeq	r0, r0, r8, lsl #1
     c90:	000000a4 	andeq	r0, r0, r4, lsr #1
     c94:	a4590001 	ldrbge	r0, [r9], #-1
     c98:	a8000000 	stmdage	r0, {}	; <UNPREDICTABLE>
     c9c:	03000000 	movweq	r0, #0
     ca0:	9f017900 	svcls	0x00017900
	...
     cac:	00000090 	muleq	r0, r0, r0
     cb0:	0000009c 	muleq	r0, ip, r0
     cb4:	9c530001 	mrrcls	0, 0, r0, r3, cr1
     cb8:	a8000000 	stmdage	r0, {}	; <UNPREDICTABLE>
     cbc:	03000000 	movweq	r0, #0
     cc0:	9f017300 	svcls	0x00017300
	...
     ccc:	00000090 	muleq	r0, r0, r0
     cd0:	00000094 	muleq	r0, r4, r0
     cd4:	00730009 	rsbseq	r0, r3, r9
     cd8:	7c240072 	stcvc	0, cr0, [r4], #-456	; 0xfffffe38
     cdc:	949f2100 	ldrls	r2, [pc], #256	; ce4 <_back_addr-0x160f31c>
     ce0:	a8000000 	stmdage	r0, {}	; <UNPREDICTABLE>
     ce4:	01000000 	mrseq	r0, (UNDEF: 0)
     ce8:	00005100 	andeq	r5, r0, r0, lsl #2
     cec:	00000000 	andeq	r0, r0, r0
     cf0:	00c00000 	sbceq	r0, r0, r0
     cf4:	00c40000 	sbceq	r0, r4, r0
     cf8:	00010000 	andeq	r0, r1, r0
     cfc:	0000c459 	andeq	ip, r0, r9, asr r4
     d00:	0000c800 	andeq	ip, r0, r0, lsl #16
     d04:	79000300 	stmdbvc	r0, {r8, r9}
     d08:	00c89f01 	sbceq	r9, r8, r1, lsl #30
     d0c:	00e40000 	rsceq	r0, r4, r0
     d10:	00010000 	andeq	r0, r1, r0
     d14:	00000059 	andeq	r0, r0, r9, asr r0
     d18:	00000000 	andeq	r0, r0, r0
     d1c:	0000c000 	andeq	ip, r0, r0
     d20:	0000c800 	andeq	ip, r0, r0, lsl #16
     d24:	73000300 	movwvc	r0, #768	; 0x300
     d28:	00d09f01 	sbcseq	r9, r0, r1, lsl #30
     d2c:	00dc0000 	sbcseq	r0, ip, r0
     d30:	00010000 	andeq	r0, r1, r0
     d34:	0000dc53 	andeq	sp, r0, r3, asr ip
     d38:	0000e400 	andeq	lr, r0, r0, lsl #8
     d3c:	73000300 	movwvc	r0, #768	; 0x300
     d40:	00009f01 	andeq	r9, r0, r1, lsl #30
     d44:	00000000 	andeq	r0, r0, r0
     d48:	00c00000 	sbceq	r0, r0, r0
     d4c:	00c80000 	sbceq	r0, r8, r0
     d50:	00010000 	andeq	r0, r1, r0
     d54:	0000d051 	andeq	sp, r0, r1, asr r0
     d58:	0000d400 	andeq	sp, r0, r0, lsl #8
     d5c:	73000900 	movwvc	r0, #2304	; 0x900
     d60:	24007200 	strcs	r7, [r0], #-512	; 0x200
     d64:	9f21007c 	svcls	0x0021007c
     d68:	000000d4 	ldrdeq	r0, [r0], -r4
     d6c:	000000e4 	andeq	r0, r0, r4, ror #1
     d70:	00510001 	subseq	r0, r1, r1
     d74:	00000000 	andeq	r0, r0, r0
     d78:	68000000 	stmdavs	r0, {}	; <UNPREDICTABLE>
     d7c:	a3000001 	movwge	r0, #1
     d80:	01000001 	tsteq	r0, r1
     d84:	01a35000 			; <UNDEFINED> instruction: 0x01a35000
     d88:	01a40000 			; <UNDEFINED> instruction: 0x01a40000
     d8c:	00040000 	andeq	r0, r4, r0
     d90:	9f5001f3 	svcls	0x005001f3
	...
     d9c:	00000168 	andeq	r0, r0, r8, ror #2
     da0:	000001a3 	andeq	r0, r0, r3, lsr #3
     da4:	a3510001 	cmpge	r1, #1
     da8:	a4000001 	strge	r0, [r0], #-1
     dac:	04000001 	streq	r0, [r0], #-1
     db0:	5101f300 	mrspl	pc, SP_irq	; <UNPREDICTABLE>
     db4:	0000009f 	muleq	r0, pc, r0	; <UNPREDICTABLE>
     db8:	00000000 	andeq	r0, r0, r0
     dbc:	00016c00 	andeq	r6, r1, r0, lsl #24
     dc0:	00017000 	andeq	r7, r1, r0
     dc4:	72000700 	andvc	r0, r0, #0, 14
     dc8:	231a3700 	tstcs	sl, #0, 14
     dcc:	01789f04 	cmneq	r8, r4, lsl #30
     dd0:	01a30000 			; <UNDEFINED> instruction: 0x01a30000
     dd4:	00010000 	andeq	r0, r1, r0
     dd8:	00000052 	andeq	r0, r0, r2, asr r0
     ddc:	00000000 	andeq	r0, r0, r0
     de0:	00016c00 	andeq	r6, r1, r0, lsl #24
     de4:	00017000 	andeq	r7, r1, r0
     de8:	52000100 	andpl	r0, r0, #0, 2
	...
     df4:	0000017c 	andeq	r0, r0, ip, ror r1
     df8:	000001a3 	andeq	r0, r0, r3, lsr #3
     dfc:	00520001 	subseq	r0, r2, r1
     e00:	00000000 	andeq	r0, r0, r0
     e04:	7c000000 	stcvc	0, cr0, [r0], {-0}
     e08:	a3000001 	movwge	r0, #1
     e0c:	01000001 	tsteq	r0, r1
     e10:	01a35100 			; <UNDEFINED> instruction: 0x01a35100
     e14:	01a40000 			; <UNDEFINED> instruction: 0x01a40000
     e18:	00040000 	andeq	r0, r4, r0
     e1c:	9f5101f3 	svcls	0x005101f3
	...
     e28:	0000017c 	andeq	r0, r0, ip, ror r1
     e2c:	00000184 	andeq	r0, r0, r4, lsl #3
     e30:	84500001 	ldrbhi	r0, [r0], #-1
     e34:	8c000001 	stchi	0, cr0, [r0], {1}
     e38:	01000001 	tsteq	r0, r1
     e3c:	018c5300 	orreq	r5, ip, r0, lsl #6
     e40:	01a30000 			; <UNDEFINED> instruction: 0x01a30000
     e44:	00070000 	andeq	r0, r7, r0
     e48:	701f0072 	andsvc	r0, pc, r2, ror r0	; <UNPREDICTABLE>
     e4c:	009f1a00 	addseq	r1, pc, r0, lsl #20
     e50:	00000000 	andeq	r0, r0, r0
     e54:	84000000 	strhi	r0, [r0], #-0
     e58:	a3000001 	movwge	r0, #1
     e5c:	01000001 	tsteq	r0, r1
     e60:	00005300 	andeq	r5, r0, r0, lsl #6
     e64:	00000000 	andeq	r0, r0, r0
     e68:	01a40000 			; <UNDEFINED> instruction: 0x01a40000
     e6c:	01ab0000 			; <UNDEFINED> instruction: 0x01ab0000
     e70:	00010000 	andeq	r0, r1, r0
     e74:	0001ab50 	andeq	sl, r1, r0, asr fp
     e78:	0001ac00 	andeq	sl, r1, r0, lsl #24
     e7c:	f3000400 	vshl.u8	d0, d0, d0
     e80:	009f5001 	addseq	r5, pc, r1
     e84:	00000000 	andeq	r0, r0, r0
     e88:	a4000000 	strge	r0, [r0], #-0
     e8c:	a8000001 	stmdage	r0, {r0}
     e90:	01000001 	tsteq	r0, r1
     e94:	01a85100 			; <UNDEFINED> instruction: 0x01a85100
     e98:	01ac0000 			; <UNDEFINED> instruction: 0x01ac0000
     e9c:	00040000 	andeq	r0, r4, r0
     ea0:	9f5101f3 	svcls	0x005101f3
	...
     eac:	000001b0 			; <UNDEFINED> instruction: 0x000001b0
     eb0:	00000217 	andeq	r0, r0, r7, lsl r2
     eb4:	17500001 	ldrbne	r0, [r0, -r1]
     eb8:	18000002 	stmdane	r0, {r1}
     ebc:	04000002 	streq	r0, [r0], #-2
     ec0:	5001f300 	andpl	pc, r1, r0, lsl #6
     ec4:	0000009f 	muleq	r0, pc, r0	; <UNPREDICTABLE>
     ec8:	00000000 	andeq	r0, r0, r0
     ecc:	0001b000 	andeq	fp, r1, r0
     ed0:	00021700 	andeq	r1, r2, r0, lsl #14
     ed4:	51000100 	mrspl	r0, (UNDEF: 16)
     ed8:	00000217 	andeq	r0, r0, r7, lsl r2
     edc:	00000218 	andeq	r0, r0, r8, lsl r2
     ee0:	01f30004 	mvnseq	r0, r4
     ee4:	00009f51 	andeq	r9, r0, r1, asr pc
     ee8:	00000000 	andeq	r0, r0, r0
     eec:	01b80000 			; <UNDEFINED> instruction: 0x01b80000
     ef0:	01bc0000 			; <UNDEFINED> instruction: 0x01bc0000
     ef4:	00070000 	andeq	r0, r7, r0
     ef8:	1a37007c 	bne	dc10f0 <_back_addr-0x84ef10>
     efc:	c49f0423 	ldrgt	r0, [pc], #1059	; f04 <_back_addr-0x160f0fc>
     f00:	17000001 	strne	r0, [r0, -r1]
     f04:	01000002 	tsteq	r0, r2
     f08:	00005c00 	andeq	r5, r0, r0, lsl #24
     f0c:	00000000 	andeq	r0, r0, r0
     f10:	01b80000 			; <UNDEFINED> instruction: 0x01b80000
     f14:	01bc0000 			; <UNDEFINED> instruction: 0x01bc0000
     f18:	00010000 	andeq	r0, r1, r0
     f1c:	0000005c 	andeq	r0, r0, ip, asr r0
     f20:	00000000 	andeq	r0, r0, r0
     f24:	0001c800 	andeq	ip, r1, r0, lsl #16
     f28:	00021700 	andeq	r1, r2, r0, lsl #14
     f2c:	5c000100 	stfpls	f0, [r0], {-0}
	...
     f38:	000001c8 	andeq	r0, r0, r8, asr #3
     f3c:	000001f4 	strdeq	r0, [r0], -r4
     f40:	f4510001 			; <UNDEFINED> instruction: 0xf4510001
     f44:	17000001 	strne	r0, [r0, -r1]
     f48:	01000002 	tsteq	r0, r2
     f4c:	00005200 	andeq	r5, r0, r0, lsl #4
     f50:	00000000 	andeq	r0, r0, r0
     f54:	01c80000 	biceq	r0, r8, r0
     f58:	01e40000 	mvneq	r0, r0
     f5c:	00010000 	andeq	r0, r1, r0
     f60:	0001e450 	andeq	lr, r1, r0, asr r4
     f64:	0001fc00 	andeq	pc, r1, r0, lsl #24
     f68:	53000100 	movwpl	r0, #256	; 0x100
	...
     f74:	000001f4 	strdeq	r0, [r0], -r4
     f78:	00000217 	andeq	r0, r0, r7, lsl r2
     f7c:	00530001 	subseq	r0, r3, r1
     f80:	00000000 	andeq	r0, r0, r0
     f84:	88000000 	stmdahi	r0, {}	; <UNPREDICTABLE>
     f88:	98000000 	stmdals	r0, {}	; <UNPREDICTABLE>
     f8c:	09000000 	stmdbeq	r0, {}	; <UNPREDICTABLE>
     f90:	00010c00 	andeq	r0, r1, r0, lsl #24
     f94:	00730001 	rsbseq	r0, r3, r1
     f98:	00989f1c 	addseq	r9, r8, ip, lsl pc
     f9c:	00a40000 	adceq	r0, r4, r0
     fa0:	00070000 	andeq	r0, r7, r0
     fa4:	73243c40 	teqvc	r4, #64, 24	; 0x4000
     fa8:	009f1c00 	addseq	r1, pc, r0, lsl #24
     fac:	00000000 	andeq	r0, r0, r0
     fb0:	a4000000 	strge	r0, [r0], #-0
     fb4:	ef000000 	svc	0x00000000
     fb8:	01000000 	mrseq	r0, (UNDEF: 0)
     fbc:	00ef5000 	rsceq	r5, pc, r0
     fc0:	01a40000 			; <UNDEFINED> instruction: 0x01a40000
     fc4:	00040000 	andeq	r0, r4, r0
     fc8:	9f5001f3 	svcls	0x005001f3
     fcc:	000001a4 	andeq	r0, r0, r4, lsr #3
     fd0:	000001a8 	andeq	r0, r0, r8, lsr #3
     fd4:	a8500001 	ldmdage	r0, {r0}^
     fd8:	ac000001 	stcge	0, cr0, [r0], {1}
     fdc:	01000001 	tsteq	r0, r1
     fe0:	00005300 	andeq	r5, r0, r0, lsl #6
     fe4:	00000000 	andeq	r0, r0, r0
     fe8:	01040000 	mrseq	r0, (UNDEF: 4)
     fec:	01a40000 			; <UNDEFINED> instruction: 0x01a40000
     ff0:	00020000 	andeq	r0, r2, r0
     ff4:	00009f30 	andeq	r9, r0, r0, lsr pc
     ff8:	00000000 	andeq	r0, r0, r0
     ffc:	00ac0000 	adceq	r0, ip, r0
    1000:	01a40000 			; <UNDEFINED> instruction: 0x01a40000
    1004:	00020000 	andeq	r0, r2, r0
    1008:	00009f31 	andeq	r9, r0, r1, lsr pc
    100c:	00000000 	andeq	r0, r0, r0
    1010:	00ac0000 	adceq	r0, ip, r0
    1014:	01a40000 			; <UNDEFINED> instruction: 0x01a40000
    1018:	00060000 	andeq	r0, r6, r0
    101c:	5934049e 	ldmdbpl	r4!, {r1, r2, r3, r4, r7, sl}
    1020:	00009801 	andeq	r9, r0, r1, lsl #16
    1024:	00000000 	andeq	r0, r0, r0
    1028:	00d40000 	sbcseq	r0, r4, r0
    102c:	01a40000 			; <UNDEFINED> instruction: 0x01a40000
    1030:	00020000 	andeq	r0, r2, r0
    1034:	00009f32 	andeq	r9, r0, r2, lsr pc
    1038:	00000000 	andeq	r0, r0, r0
    103c:	00d40000 	sbcseq	r0, r4, r0
    1040:	01a40000 			; <UNDEFINED> instruction: 0x01a40000
    1044:	00060000 	andeq	r0, r6, r0
    1048:	5900049e 	stmdbpl	r0, {r1, r2, r3, r4, r7, sl}
    104c:	00009801 	andeq	r9, r0, r1, lsl #16
    1050:	00000000 	andeq	r0, r0, r0
    1054:	00cc0000 	sbceq	r0, ip, r0
    1058:	01a40000 			; <UNDEFINED> instruction: 0x01a40000
    105c:	00030000 	andeq	r0, r3, r0
    1060:	009ffe08 	addseq	pc, pc, r8, lsl #28
    1064:	00000000 	andeq	r0, r0, r0
    1068:	cc000000 	stcgt	0, cr0, [r0], {-0}
    106c:	a4000000 	strge	r0, [r0], #-0
    1070:	06000001 	streq	r0, [r0], -r1
    1074:	08049e00 	stmdaeq	r4, {r9, sl, fp, ip, pc}
    1078:	00980159 	addseq	r0, r8, r9, asr r1
    107c:	00000000 	andeq	r0, r0, r0
    1080:	dc000000 	stcle	0, cr0, [r0], {-0}
    1084:	ef000000 	svc	0x00000000
    1088:	01000000 	mrseq	r0, (UNDEF: 0)
    108c:	00ef5000 	rsceq	r5, pc, r0
    1090:	01a40000 			; <UNDEFINED> instruction: 0x01a40000
    1094:	00040000 	andeq	r0, r4, r0
    1098:	9f5001f3 	svcls	0x005001f3
	...
    10a4:	000000dc 	ldrdeq	r0, [r0], -ip
    10a8:	000001a4 	andeq	r0, r0, r4, lsr #3
    10ac:	049e0006 	ldreq	r0, [lr], #6
    10b0:	9801590c 	stmdals	r1, {r2, r3, r8, fp, ip, lr}
	...
    10bc:	000000dc 	ldrdeq	r0, [r0], -ip
    10c0:	000000ef 	andeq	r0, r0, pc, ror #1
    10c4:	ef5c0001 	svc	0x005c0001
    10c8:	a4000000 	strge	r0, [r0], #-0
    10cc:	06000001 	streq	r0, [r0], -r1
    10d0:	5001f300 	andpl	pc, r1, r0, lsl #6
    10d4:	009f7023 	addseq	r7, pc, r3, lsr #32
    10d8:	00000000 	andeq	r0, r0, r0
    10dc:	dc000000 	stcle	0, cr0, [r0], {-0}
    10e0:	a4000000 	strge	r0, [r0], #-0
    10e4:	06000001 	streq	r0, [r0], -r1
    10e8:	10049e00 	andne	r9, r4, r0, lsl #28
    10ec:	00980159 	addseq	r0, r8, r9, asr r1
    10f0:	00000000 	andeq	r0, r0, r0
    10f4:	e4000000 	str	r0, [r0], #-0
    10f8:	ef000000 	svc	0x00000000
    10fc:	01000000 	mrseq	r0, (UNDEF: 0)
    1100:	00ef5000 	rsceq	r5, pc, r0
    1104:	01a40000 			; <UNDEFINED> instruction: 0x01a40000
    1108:	00040000 	andeq	r0, r4, r0
    110c:	9f5001f3 	svcls	0x005001f3
	...
    1118:	000000e4 	andeq	r0, r0, r4, ror #1
    111c:	000001a4 	andeq	r0, r0, r4, lsr #3
    1120:	049e0006 	ldreq	r0, [lr], #6
    1124:	98015914 	stmdals	r1, {r2, r4, r8, fp, ip, lr}
	...
    1130:	000000e4 	andeq	r0, r0, r4, ror #1
    1134:	000000ef 	andeq	r0, r0, pc, ror #1
    1138:	ef520001 	svc	0x00520001
    113c:	a4000000 	strge	r0, [r0], #-0
    1140:	06000001 	streq	r0, [r0], -r1
    1144:	5001f300 	andpl	pc, r1, r0, lsl #6
    1148:	009f3823 	addseq	r3, pc, r3, lsr #16
    114c:	00000000 	andeq	r0, r0, r0
    1150:	e4000000 	str	r0, [r0], #-0
    1154:	a4000000 	strge	r0, [r0], #-0
    1158:	06000001 	streq	r0, [r0], -r1
    115c:	18049e00 	stmdane	r4, {r9, sl, fp, ip, pc}
    1160:	00980159 	addseq	r0, r8, r9, asr r1
    1164:	00000000 	andeq	r0, r0, r0
    1168:	f8000000 			; <UNDEFINED> instruction: 0xf8000000
    116c:	a4000000 	strge	r0, [r0], #-0
    1170:	02000001 	andeq	r0, r0, #1
    1174:	009f3300 	addseq	r3, pc, r0, lsl #6
    1178:	00000000 	andeq	r0, r0, r0
    117c:	f8000000 			; <UNDEFINED> instruction: 0xf8000000
    1180:	a4000000 	strge	r0, [r0], #-0
    1184:	06000001 	streq	r0, [r0], -r1
    1188:	00049e00 	andeq	r9, r4, r0, lsl #28
    118c:	00980159 	addseq	r0, r8, r9, asr r1
    1190:	00000000 	andeq	r0, r0, r0
    1194:	04000000 	streq	r0, [r0], #-0
    1198:	a4000001 	strge	r0, [r0], #-1
    119c:	04000001 	streq	r0, [r0], #-1
    11a0:	5001f300 	andpl	pc, r1, r0, lsl #6
    11a4:	0000009f 	muleq	r0, pc, r0	; <UNPREDICTABLE>
    11a8:	00000000 	andeq	r0, r0, r0
    11ac:	00015c00 	andeq	r5, r1, r0, lsl #24
    11b0:	00017800 	andeq	r7, r1, r0, lsl #16
    11b4:	50000100 	andpl	r0, r0, r0, lsl #2
	...
    11c0:	00000104 	andeq	r0, r0, r4, lsl #2
    11c4:	0000011c 	andeq	r0, r0, ip, lsl r1
    11c8:	9f300002 	svcls	0x00300002
    11cc:	0000011c 	andeq	r0, r0, ip, lsl r1
    11d0:	00000120 	andeq	r0, r0, r0, lsr #2
    11d4:	43400007 	movtmi	r0, #7
    11d8:	1c007424 	cfstrsne	mvf7, [r0], {36}	; 0x24
    11dc:	0001209f 	muleq	r1, pc, r0	; <UNPREDICTABLE>
    11e0:	00012400 	andeq	r2, r1, r0, lsl #8
    11e4:	0c000900 	stceq	9, cr0, [r0], {-0}
    11e8:	007fffff 	ldrshteq	pc, [pc], #-255	; <UNPREDICTABLE>
    11ec:	9f1c0074 	svcls	0x001c0074
    11f0:	00000124 	andeq	r0, r0, r4, lsr #2
    11f4:	00000144 	andeq	r0, r0, r4, asr #2
    11f8:	43400007 	movtmi	r0, #7
    11fc:	1c007424 	cfstrsne	mvf7, [r0], {36}	; 0x24
    1200:	00018c9f 	muleq	r1, pc, ip	; <UNPREDICTABLE>
    1204:	0001a400 	andeq	sl, r1, r0, lsl #8
    1208:	0c000900 	stceq	9, cr0, [r0], {-0}
    120c:	007fffff 	ldrshteq	pc, [pc], #-255	; <UNPREDICTABLE>
    1210:	9f1c0074 	svcls	0x001c0074
	...
    121c:	00000104 	andeq	r0, r0, r4, lsl #2
    1220:	000001a4 	andeq	r0, r0, r4, lsr #3
    1224:	049e0006 	ldreq	r0, [lr], #6
    1228:	98015904 	stmdals	r1, {r2, r8, fp, ip, lr}
	...
    1234:	00000144 	andeq	r0, r0, r4, asr #2
    1238:	0000018c 	andeq	r0, r0, ip, lsl #3
    123c:	049e0006 	ldreq	r0, [lr], #6
    1240:	98015904 	stmdals	r1, {r2, r8, fp, ip, lr}
	...
    124c:	0000015c 	andeq	r0, r0, ip, asr r1
    1250:	00000178 	andeq	r0, r0, r8, ror r1
    1254:	9f320002 	svcls	0x00320002
	...
    1260:	0000015c 	andeq	r0, r0, ip, asr r1
    1264:	00000178 	andeq	r0, r0, r8, ror r1
    1268:	049e0006 	ldreq	r0, [lr], #6
    126c:	98015900 	stmdals	r1, {r8, fp, ip, lr}
	...
    1278:	00000170 	andeq	r0, r0, r0, ror r1
    127c:	00000178 	andeq	r0, r0, r8, ror r1
    1280:	9f360002 	svcls	0x00360002
	...
    128c:	00000170 	andeq	r0, r0, r0, ror r1
    1290:	00000178 	andeq	r0, r0, r8, ror r1
    1294:	049e0006 	ldreq	r0, [lr], #6
    1298:	98015904 	stmdals	r1, {r2, r8, fp, ip, lr}
	...
    12a4:	00000178 	andeq	r0, r0, r8, ror r1
    12a8:	0000018c 	andeq	r0, r0, ip, lsl #3
    12ac:	049e0006 	ldreq	r0, [lr], #6
    12b0:	98015904 	stmdals	r1, {r2, r8, fp, ip, lr}
	...
    12bc:	0000018c 	andeq	r0, r0, ip, lsl #3
    12c0:	000001a4 	andeq	r0, r0, r4, lsr #3
    12c4:	9f320002 	svcls	0x00320002
	...
    12d0:	0000018c 	andeq	r0, r0, ip, lsl #3
    12d4:	000001a4 	andeq	r0, r0, r4, lsr #3
    12d8:	049e0006 	ldreq	r0, [lr], #6
    12dc:	98015900 	stmdals	r1, {r8, fp, ip, lr}
	...
    12e8:	00000198 	muleq	r0, r8, r1
    12ec:	000001a4 	andeq	r0, r0, r4, lsr #3
    12f0:	9f360002 	svcls	0x00360002
	...
    12fc:	00000198 	muleq	r0, r8, r1
    1300:	000001a4 	andeq	r0, r0, r4, lsr #3
    1304:	049e0006 	ldreq	r0, [lr], #6
    1308:	98015904 	stmdals	r1, {r2, r8, fp, ip, lr}
	...
    1314:	000001ac 	andeq	r0, r0, ip, lsr #3
    1318:	000001b0 			; <UNDEFINED> instruction: 0x000001b0
    131c:	b0500001 	subslt	r0, r0, r1
    1320:	b4000001 	strlt	r0, [r0], #-1
    1324:	04000001 	streq	r0, [r0], #-1
    1328:	5001f300 	andpl	pc, r1, r0, lsl #6
    132c:	0000009f 	muleq	r0, pc, r0	; <UNPREDICTABLE>
    1330:	00000000 	andeq	r0, r0, r0
    1334:	0001ac00 	andeq	sl, r1, r0, lsl #24
    1338:	0001b000 	andeq	fp, r1, r0
    133c:	70001d00 	andvc	r1, r0, r0, lsl #26
    1340:	70244800 	eorvc	r4, r4, r0, lsl #16
    1344:	21254800 	teqcs	r5, r0, lsl #16
    1348:	ff080070 			; <UNDEFINED> instruction: 0xff080070
    134c:	381a2440 	ldmdacc	sl, {r6, sl, sp}
    1350:	00702125 	rsbseq	r2, r0, r5, lsr #2
    1354:	1aff000a 	bne	fffc1384 <__bss_end__+0xfe99e734>
    1358:	9f212438 	svcls	0x00212438
    135c:	000001b0 			; <UNDEFINED> instruction: 0x000001b0
    1360:	000001b4 			; <UNDEFINED> instruction: 0x000001b4
    1364:	01f30021 	mvnseq	r0, r1, lsr #32
    1368:	f3244850 	vceq.i32	q2, q2, q0
    136c:	25485001 	strbcs	r5, [r8, #-1]
    1370:	5001f321 	andpl	pc, r1, r1, lsr #6
    1374:	2440ff08 	strbcs	pc, [r0], #-3848	; 0xf08	; <UNPREDICTABLE>
    1378:	2125381a 	teqcs	r5, sl, lsl r8
    137c:	0a5001f3 	beq	1401b50 <_back_addr-0x20e4b0>
    1380:	381aff00 	ldmdacc	sl, {r8, r9, sl, fp, ip, sp, lr, pc}
    1384:	009f2124 	addseq	r2, pc, r4, lsr #2
    1388:	00000000 	andeq	r0, r0, r0
    138c:	b4000000 	strlt	r0, [r0], #-0
    1390:	d4000001 	strle	r0, [r0], #-1
    1394:	01000002 	tsteq	r0, r2
    1398:	02d45000 	sbcseq	r5, r4, #0
    139c:	02e00000 	rsceq	r0, r0, #0
    13a0:	00070000 	andeq	r0, r7, r0
    13a4:	ffffe874 			; <UNDEFINED> instruction: 0xffffe874
    13a8:	e09f03bf 			; <UNDEFINED> instruction: 0xe09f03bf
    13ac:	14000002 	strne	r0, [r0], #-2
    13b0:	01000003 	tsteq	r0, r3
    13b4:	03145000 	tsteq	r4, #0
    13b8:	031c0000 	tsteq	ip, #0
    13bc:	00070000 	andeq	r0, r7, r0
    13c0:	ffffe874 			; <UNDEFINED> instruction: 0xffffe874
    13c4:	1c9f03bf 	ldcne	3, cr0, [pc], {191}	; 0xbf
    13c8:	24000003 	strcs	r0, [r0], #-3
    13cc:	01000004 	tsteq	r0, r4
    13d0:	00005000 	andeq	r5, r0, r0
    13d4:	00000000 	andeq	r0, r0, r0
    13d8:	01b40000 			; <UNDEFINED> instruction: 0x01b40000
    13dc:	01d40000 	bicseq	r0, r4, r0
    13e0:	00020000 	andeq	r0, r2, r0
    13e4:	00009f30 	andeq	r9, r0, r0, lsr pc
    13e8:	00000000 	andeq	r0, r0, r0
    13ec:	01d40000 	bicseq	r0, r4, r0
    13f0:	01e80000 	mvneq	r0, r0
    13f4:	00070000 	andeq	r0, r7, r0
    13f8:	80808073 	addhi	r8, r0, r3, ror r0
    13fc:	e89f7a80 	ldm	pc, {r7, r9, fp, ip, sp, lr}	; <UNPREDICTABLE>
    1400:	fc000001 	stc2	0, cr0, [r0], {1}
    1404:	07000001 	streq	r0, [r0, -r1]
    1408:	fffc7300 			; <UNDEFINED> instruction: 0xfffc7300
    140c:	9f79ffff 	svcls	0x0079ffff
    1410:	000002e0 	andeq	r0, r0, r0, ror #5
    1414:	000002fc 	strdeq	r0, [r0], -ip
    1418:	80730007 	rsbshi	r0, r3, r7
    141c:	7a808080 	bvc	fe021624 <__bss_end__+0xfc9fe9d4>
    1420:	0000009f 	muleq	r0, pc, r0	; <UNPREDICTABLE>
    1424:	00000000 	andeq	r0, r0, r0
    1428:	0002e000 	andeq	lr, r2, r0
    142c:	0002fc00 	andeq	pc, r2, r0, lsl #24
    1430:	73000700 	movwvc	r0, #1792	; 0x700
    1434:	80808080 	addhi	r8, r0, r0, lsl #1
    1438:	00009f7a 	andeq	r9, r0, sl, ror pc
    143c:	00000000 	andeq	r0, r0, r0
    1440:	01f80000 	mvnseq	r0, r0
    1444:	02d40000 	sbcseq	r0, r4, #0
    1448:	00030000 	andeq	r0, r3, r0
    144c:	d49f1c70 	ldrle	r1, [pc], #3184	; 1454 <_back_addr-0x160ebac>
    1450:	e0000002 	and	r0, r0, r2
    1454:	07000002 	streq	r0, [r0, -r2]
    1458:	80847400 	addhi	r7, r4, r0, lsl #8
    145c:	9f03c080 	svcls	0x0003c080
    1460:	000002fc 	strdeq	r0, [r0], -ip
    1464:	00000314 	andeq	r0, r0, r4, lsl r3
    1468:	1c700003 	ldclne	0, cr0, [r0], #-12
    146c:	0003149f 	muleq	r3, pc, r4	; <UNPREDICTABLE>
    1470:	00031c00 	andeq	r1, r3, r0, lsl #24
    1474:	74000700 	strvc	r0, [r0], #-1792	; 0x700
    1478:	c0808084 	addgt	r8, r0, r4, lsl #1
    147c:	031c9f03 	tsteq	ip, #3, 30
    1480:	03640000 	cmneq	r4, #0
    1484:	00070000 	andeq	r0, r7, r0
    1488:	80808c7c 	addhi	r8, r0, ip, ror ip
    148c:	649f03c0 	ldrvs	r0, [pc], #960	; 1494 <_back_addr-0x160eb6c>
    1490:	24000003 	strcs	r0, [r0], #-3
    1494:	03000004 	movweq	r0, #4
    1498:	9f1c7000 	svcls	0x001c7000
	...
    14a4:	00000214 	andeq	r0, r0, r4, lsl r2
    14a8:	000002d4 	ldrdeq	r0, [r0], -r4
    14ac:	d4500001 	ldrble	r0, [r0], #-1
    14b0:	e0000002 	and	r0, r0, r2
    14b4:	07000002 	streq	r0, [r0, -r2]
    14b8:	ffe87400 			; <UNDEFINED> instruction: 0xffe87400
    14bc:	9f03bfff 	svcls	0x0003bfff
    14c0:	000002fc 	strdeq	r0, [r0], -ip
    14c4:	00000314 	andeq	r0, r0, r4, lsl r3
    14c8:	14500001 	ldrbne	r0, [r0], #-1
    14cc:	1c000003 	stcne	0, cr0, [r0], {3}
    14d0:	07000003 	streq	r0, [r0, -r3]
    14d4:	ffe87400 			; <UNDEFINED> instruction: 0xffe87400
    14d8:	9f03bfff 	svcls	0x0003bfff
    14dc:	0000031c 	andeq	r0, r0, ip, lsl r3
    14e0:	0000040c 	andeq	r0, r0, ip, lsl #8
    14e4:	00500001 	subseq	r0, r0, r1
    14e8:	00000000 	andeq	r0, r0, r0
    14ec:	f4000000 	vst4.8	{d0-d3}, [r0], r0
    14f0:	0c000003 	stceq	0, cr0, [r0], {3}
    14f4:	01000004 	tsteq	r0, r4
    14f8:	00005000 	andeq	r5, r0, r0
    14fc:	00000000 	andeq	r0, r0, r0
    1500:	021c0000 	andseq	r0, ip, #0
    1504:	02d40000 	sbcseq	r0, r4, #0
    1508:	00030000 	andeq	r0, r3, r0
    150c:	d49f1870 	ldrle	r1, [pc], #2160	; 1514 <_back_addr-0x160eaec>
    1510:	e0000002 	and	r0, r0, r2
    1514:	07000002 	streq	r0, [r0, -r2]
    1518:	80807400 	addhi	r7, r0, r0, lsl #8
    151c:	9f03c080 	svcls	0x0003c080
    1520:	000002fc 	strdeq	r0, [r0], -ip
    1524:	00000314 	andeq	r0, r0, r4, lsl r3
    1528:	18700003 	ldmdane	r0!, {r0, r1}^
    152c:	0003149f 	muleq	r3, pc, r4	; <UNPREDICTABLE>
    1530:	00031c00 	andeq	r1, r3, r0, lsl #24
    1534:	74000700 	strvc	r0, [r0], #-1792	; 0x700
    1538:	c0808080 	addgt	r8, r0, r0, lsl #1
    153c:	031c9f03 	tsteq	ip, #3, 30
    1540:	03f40000 	mvnseq	r0, #0
    1544:	00030000 	andeq	r0, r3, r0
    1548:	009f1870 	addseq	r1, pc, r0, ror r8	; <UNPREDICTABLE>
    154c:	00000000 	andeq	r0, r0, r0
    1550:	dc000000 	stcle	0, cr0, [r0], {-0}
    1554:	f4000003 	vst4.8	{d0-d3}, [r0], r3
    1558:	03000003 	movweq	r0, #3
    155c:	9f187000 	svcls	0x00187000
	...
    1568:	00000234 	andeq	r0, r0, r4, lsr r2
    156c:	000002d4 	ldrdeq	r0, [r0], -r4
    1570:	04700003 	ldrbteq	r0, [r0], #-3
    1574:	0002d49f 	muleq	r2, pc, r4	; <UNPREDICTABLE>
    1578:	0002e000 	andeq	lr, r2, r0
    157c:	74000700 	strvc	r0, [r0], #-1792	; 0x700
    1580:	bfffffec 	svclt	0x00ffffec
    1584:	02fc9f03 	rscseq	r9, ip, #3, 30
    1588:	03140000 	tsteq	r4, #0
    158c:	00030000 	andeq	r0, r3, r0
    1590:	149f0470 	ldrne	r0, [pc], #1136	; 1598 <_back_addr-0x160ea68>
    1594:	1c000003 	stcne	0, cr0, [r0], {3}
    1598:	07000003 	streq	r0, [r0, -r3]
    159c:	ffec7400 			; <UNDEFINED> instruction: 0xffec7400
    15a0:	9f03bfff 	svcls	0x0003bfff
    15a4:	0000031c 	andeq	r0, r0, ip, lsl r3
    15a8:	000003dc 	ldrdeq	r0, [r0], -ip
    15ac:	04700003 	ldrbteq	r0, [r0], #-3
    15b0:	0000009f 	muleq	r0, pc, r0	; <UNPREDICTABLE>
    15b4:	00000000 	andeq	r0, r0, r0
    15b8:	0003c400 	andeq	ip, r3, r0, lsl #8
    15bc:	0003dc00 	andeq	sp, r3, r0, lsl #24
    15c0:	70000300 	andvc	r0, r0, r0, lsl #6
    15c4:	00009f04 	andeq	r9, r0, r4, lsl #30
    15c8:	00000000 	andeq	r0, r0, r0
    15cc:	02440000 	subeq	r0, r4, #0
    15d0:	02d40000 	sbcseq	r0, r4, #0
    15d4:	00030000 	andeq	r0, r3, r0
    15d8:	d49f1470 	ldrle	r1, [pc], #1136	; 15e0 <_back_addr-0x160ea20>
    15dc:	e0000002 	and	r0, r0, r2
    15e0:	07000002 	streq	r0, [r0, -r2]
    15e4:	fffc7400 			; <UNDEFINED> instruction: 0xfffc7400
    15e8:	9f03bfff 	svcls	0x0003bfff
    15ec:	000002fc 	strdeq	r0, [r0], -ip
    15f0:	00000314 	andeq	r0, r0, r4, lsl r3
    15f4:	14700003 	ldrbtne	r0, [r0], #-3
    15f8:	0003149f 	muleq	r3, pc, r4	; <UNPREDICTABLE>
    15fc:	00031c00 	andeq	r1, r3, r0, lsl #24
    1600:	74000700 	strvc	r0, [r0], #-1792	; 0x700
    1604:	bffffffc 	svclt	0x00fffffc
    1608:	031c9f03 	tsteq	ip, #3, 30
    160c:	03c40000 	biceq	r0, r4, #0
    1610:	00030000 	andeq	r0, r3, r0
    1614:	009f1470 	addseq	r1, pc, r0, ror r4	; <UNPREDICTABLE>
    1618:	00000000 	andeq	r0, r0, r0
    161c:	ac000000 	stcge	0, cr0, [r0], {-0}
    1620:	c4000003 	strgt	r0, [r0], #-3
    1624:	03000003 	movweq	r0, #3
    1628:	9f147000 	svcls	0x00147000
	...
    1634:	0000025c 	andeq	r0, r0, ip, asr r2
    1638:	000002d4 	ldrdeq	r0, [r0], -r4
    163c:	08700003 	ldmdaeq	r0!, {r0, r1}^
    1640:	0002d49f 	muleq	r2, pc, r4	; <UNPREDICTABLE>
    1644:	0002e000 	andeq	lr, r2, r0
    1648:	74000700 	strvc	r0, [r0], #-1792	; 0x700
    164c:	bffffff0 	svclt	0x00fffff0
    1650:	02fc9f03 	rscseq	r9, ip, #3, 30
    1654:	03140000 	tsteq	r4, #0
    1658:	00030000 	andeq	r0, r3, r0
    165c:	149f0870 	ldrne	r0, [pc], #2160	; 1664 <_back_addr-0x160e99c>
    1660:	1c000003 	stcne	0, cr0, [r0], {3}
    1664:	07000003 	streq	r0, [r0, -r3]
    1668:	fff07400 			; <UNDEFINED> instruction: 0xfff07400
    166c:	9f03bfff 	svcls	0x0003bfff
    1670:	0000031c 	andeq	r0, r0, ip, lsl r3
    1674:	000003ac 	andeq	r0, r0, ip, lsr #7
    1678:	08700003 	ldmdaeq	r0!, {r0, r1}^
    167c:	0000009f 	muleq	r0, pc, r0	; <UNPREDICTABLE>
    1680:	00000000 	andeq	r0, r0, r0
    1684:	00039400 	andeq	r9, r3, r0, lsl #8
    1688:	0003ac00 	andeq	sl, r3, r0, lsl #24
    168c:	70000300 	andvc	r0, r0, r0, lsl #6
    1690:	00009f08 	andeq	r9, r0, r8, lsl #30
    1694:	00000000 	andeq	r0, r0, r0
    1698:	026c0000 	rsbeq	r0, ip, #0
    169c:	02d40000 	sbcseq	r0, r4, #0
    16a0:	00030000 	andeq	r0, r3, r0
    16a4:	d49f1070 	ldrle	r1, [pc], #112	; 16ac <_back_addr-0x160e954>
    16a8:	e0000002 	and	r0, r0, r2
    16ac:	07000002 	streq	r0, [r0, -r2]
    16b0:	fff87400 			; <UNDEFINED> instruction: 0xfff87400
    16b4:	9f03bfff 	svcls	0x0003bfff
    16b8:	000002fc 	strdeq	r0, [r0], -ip
    16bc:	00000314 	andeq	r0, r0, r4, lsl r3
    16c0:	10700003 	rsbsne	r0, r0, r3
    16c4:	0003149f 	muleq	r3, pc, r4	; <UNPREDICTABLE>
    16c8:	00031c00 	andeq	r1, r3, r0, lsl #24
    16cc:	74000700 	strvc	r0, [r0], #-1792	; 0x700
    16d0:	bffffff8 	svclt	0x00fffff8
    16d4:	031c9f03 	tsteq	ip, #3, 30
    16d8:	03940000 	orrseq	r0, r4, #0
    16dc:	00030000 	andeq	r0, r3, r0
    16e0:	009f1070 	addseq	r1, pc, r0, ror r0	; <UNPREDICTABLE>
    16e4:	00000000 	andeq	r0, r0, r0
    16e8:	7c000000 	stcvc	0, cr0, [r0], {-0}
    16ec:	94000003 	strls	r0, [r0], #-3
    16f0:	03000003 	movweq	r0, #3
    16f4:	9f107000 	svcls	0x00107000
	...
    1700:	00000284 	andeq	r0, r0, r4, lsl #5
    1704:	000002d4 	ldrdeq	r0, [r0], -r4
    1708:	0c700003 	ldcleq	0, cr0, [r0], #-12
    170c:	0002d49f 	muleq	r2, pc, r4	; <UNPREDICTABLE>
    1710:	0002e000 	andeq	lr, r2, r0
    1714:	74000700 	strvc	r0, [r0], #-1792	; 0x700
    1718:	bffffff4 	svclt	0x00fffff4
    171c:	02fc9f03 	rscseq	r9, ip, #3, 30
    1720:	03140000 	tsteq	r4, #0
    1724:	00030000 	andeq	r0, r3, r0
    1728:	149f0c70 	ldrne	r0, [pc], #3184	; 1730 <_back_addr-0x160e8d0>
    172c:	1c000003 	stcne	0, cr0, [r0], {3}
    1730:	07000003 	streq	r0, [r0, -r3]
    1734:	fff47400 			; <UNDEFINED> instruction: 0xfff47400
    1738:	9f03bfff 	svcls	0x0003bfff
    173c:	0000031c 	andeq	r0, r0, ip, lsl r3
    1740:	0000037c 	andeq	r0, r0, ip, ror r3
    1744:	0c700003 	ldcleq	0, cr0, [r0], #-12
    1748:	0000009f 	muleq	r0, pc, r0	; <UNPREDICTABLE>
    174c:	00000000 	andeq	r0, r0, r0
    1750:	00036400 	andeq	r6, r3, r0, lsl #8
    1754:	00037c00 	andeq	r7, r3, r0, lsl #24
    1758:	70000300 	andvc	r0, r0, r0, lsl #6
    175c:	00009f0c 	andeq	r9, r0, ip, lsl #30
    1760:	00000000 	andeq	r0, r0, r0
    1764:	029c0000 	addseq	r0, ip, #0
    1768:	02ac0000 	adceq	r0, ip, #0
    176c:	00010000 	andeq	r0, r1, r0
    1770:	00034c53 	andeq	r4, r3, r3, asr ip
    1774:	00036400 	andeq	r6, r3, r0, lsl #8
    1778:	53000100 	movwpl	r0, #256	; 0x100
	...
    1784:	0000029c 	muleq	r0, ip, r2
    1788:	000002d4 	ldrdeq	r0, [r0], -r4
    178c:	10700003 	rsbsne	r0, r0, r3
    1790:	0002d49f 	muleq	r2, pc, r4	; <UNPREDICTABLE>
    1794:	0002e000 	andeq	lr, r2, r0
    1798:	74000700 	strvc	r0, [r0], #-1792	; 0x700
    179c:	bffffff8 	svclt	0x00fffff8
    17a0:	02fc9f03 	rscseq	r9, ip, #3, 30
    17a4:	03140000 	tsteq	r4, #0
    17a8:	00030000 	andeq	r0, r3, r0
    17ac:	149f1070 	ldrne	r1, [pc], #112	; 17b4 <_back_addr-0x160e84c>
    17b0:	1c000003 	stcne	0, cr0, [r0], {3}
    17b4:	07000003 	streq	r0, [r0, -r3]
    17b8:	fff87400 			; <UNDEFINED> instruction: 0xfff87400
    17bc:	9f03bfff 	svcls	0x0003bfff
    17c0:	0000031c 	andeq	r0, r0, ip, lsl r3
    17c4:	00000364 	andeq	r0, r0, r4, ror #6
    17c8:	10700003 	rsbsne	r0, r0, r3
    17cc:	0000009f 	muleq	r0, pc, r0	; <UNPREDICTABLE>
    17d0:	00000000 	andeq	r0, r0, r0
    17d4:	00034c00 	andeq	r4, r3, r0, lsl #24
    17d8:	00036400 	andeq	r6, r3, r0, lsl #8
    17dc:	53000100 	movwpl	r0, #256	; 0x100
	...
    17e8:	0000034c 	andeq	r0, r0, ip, asr #6
    17ec:	00000364 	andeq	r0, r0, r4, ror #6
    17f0:	10700003 	rsbsne	r0, r0, r3
    17f4:	0000009f 	muleq	r0, pc, r0	; <UNPREDICTABLE>
    17f8:	00000000 	andeq	r0, r0, r0
    17fc:	0002ac00 	andeq	sl, r2, r0, lsl #24
    1800:	0002bc00 	andeq	fp, r2, r0, lsl #24
    1804:	53000100 	movwpl	r0, #256	; 0x100
    1808:	00000334 	andeq	r0, r0, r4, lsr r3
    180c:	0000034c 	andeq	r0, r0, ip, asr #6
    1810:	00530001 	subseq	r0, r3, r1
    1814:	00000000 	andeq	r0, r0, r0
    1818:	ac000000 	stcge	0, cr0, [r0], {-0}
    181c:	d4000002 	strle	r0, [r0], #-2
    1820:	03000002 	movweq	r0, #2
    1824:	9f147000 	svcls	0x00147000
    1828:	000002d4 	ldrdeq	r0, [r0], -r4
    182c:	000002e0 	andeq	r0, r0, r0, ror #5
    1830:	fc740007 	ldc2l	0, cr0, [r4], #-28	; 0xffffffe4
    1834:	03bfffff 			; <UNDEFINED> instruction: 0x03bfffff
    1838:	0002fc9f 	muleq	r2, pc, ip	; <UNPREDICTABLE>
    183c:	00031400 	andeq	r1, r3, r0, lsl #8
    1840:	70000300 	andvc	r0, r0, r0, lsl #6
    1844:	03149f14 	tsteq	r4, #20, 30	; 0x50
    1848:	031c0000 	tsteq	ip, #0
    184c:	00070000 	andeq	r0, r7, r0
    1850:	fffffc74 			; <UNDEFINED> instruction: 0xfffffc74
    1854:	1c9f03bf 	ldcne	3, cr0, [pc], {191}	; 0xbf
    1858:	4c000003 	stcmi	0, cr0, [r0], {3}
    185c:	03000003 	movweq	r0, #3
    1860:	9f147000 	svcls	0x00147000
	...
    186c:	00000334 	andeq	r0, r0, r4, lsr r3
    1870:	0000034c 	andeq	r0, r0, ip, asr #6
    1874:	00530001 	subseq	r0, r3, r1
    1878:	00000000 	andeq	r0, r0, r0
    187c:	34000000 	strcc	r0, [r0], #-0
    1880:	4c000003 	stcmi	0, cr0, [r0], {3}
    1884:	03000003 	movweq	r0, #3
    1888:	9f147000 	svcls	0x00147000
	...
    1894:	000002bc 			; <UNDEFINED> instruction: 0x000002bc
    1898:	000002cc 	andeq	r0, r0, ip, asr #5
    189c:	1c530001 	mrrcne	0, 0, r0, r3, cr1
    18a0:	34000003 	strcc	r0, [r0], #-3
    18a4:	01000003 	tsteq	r0, r3
    18a8:	00005300 	andeq	r5, r0, r0, lsl #6
    18ac:	00000000 	andeq	r0, r0, r0
    18b0:	02bc0000 	adcseq	r0, ip, #0
    18b4:	02d40000 	sbcseq	r0, r4, #0
    18b8:	00030000 	andeq	r0, r3, r0
    18bc:	d49f1870 	ldrle	r1, [pc], #2160	; 18c4 <_back_addr-0x160e73c>
    18c0:	e0000002 	and	r0, r0, r2
    18c4:	07000002 	streq	r0, [r0, -r2]
    18c8:	80807400 	addhi	r7, r0, r0, lsl #8
    18cc:	9f03c080 	svcls	0x0003c080
    18d0:	000002fc 	strdeq	r0, [r0], -ip
    18d4:	00000314 	andeq	r0, r0, r4, lsl r3
    18d8:	18700003 	ldmdane	r0!, {r0, r1}^
    18dc:	0003149f 	muleq	r3, pc, r4	; <UNPREDICTABLE>
    18e0:	00031c00 	andeq	r1, r3, r0, lsl #24
    18e4:	74000700 	strvc	r0, [r0], #-1792	; 0x700
    18e8:	c0808080 	addgt	r8, r0, r0, lsl #1
    18ec:	031c9f03 	tsteq	ip, #3, 30
    18f0:	03340000 	teqeq	r4, #0
    18f4:	00030000 	andeq	r0, r3, r0
    18f8:	009f1870 	addseq	r1, pc, r0, ror r8	; <UNPREDICTABLE>
    18fc:	00000000 	andeq	r0, r0, r0
    1900:	1c000000 	stcne	0, cr0, [r0], {-0}
    1904:	34000003 	strcc	r0, [r0], #-3
    1908:	01000003 	tsteq	r0, r3
    190c:	00005300 	andeq	r5, r0, r0, lsl #6
    1910:	00000000 	andeq	r0, r0, r0
    1914:	031c0000 	tsteq	ip, #0
    1918:	03340000 	teqeq	r4, #0
    191c:	00030000 	andeq	r0, r3, r0
    1920:	009f1870 	addseq	r1, pc, r0, ror r8	; <UNPREDICTABLE>
    1924:	00000000 	andeq	r0, r0, r0
    1928:	cc000000 	stcgt	0, cr0, [r0], {-0}
    192c:	e0000002 	and	r0, r0, r2
    1930:	01000002 	tsteq	r0, r2
    1934:	02fc5300 	rscseq	r5, ip, #0, 6
    1938:	031c0000 	tsteq	ip, #0
    193c:	00010000 	andeq	r0, r1, r0
    1940:	00000053 	andeq	r0, r0, r3, asr r0
    1944:	00000000 	andeq	r0, r0, r0
    1948:	0002cc00 	andeq	ip, r2, r0, lsl #24
    194c:	0002d400 	andeq	sp, r2, r0, lsl #8
    1950:	70000300 	andvc	r0, r0, r0, lsl #6
    1954:	02d49f1c 	sbcseq	r9, r4, #28, 30	; 0x70
    1958:	02e00000 	rsceq	r0, r0, #0
    195c:	00070000 	andeq	r0, r7, r0
    1960:	80808474 	addhi	r8, r0, r4, ror r4
    1964:	fc9f03c0 	ldc2	3, cr0, [pc], {192}	; 0xc0
    1968:	14000002 	strne	r0, [r0], #-2
    196c:	03000003 	movweq	r0, #3
    1970:	9f1c7000 	svcls	0x001c7000
    1974:	00000314 	andeq	r0, r0, r4, lsl r3
    1978:	0000031c 	andeq	r0, r0, ip, lsl r3
    197c:	84740007 	ldrbthi	r0, [r4], #-7
    1980:	03c08080 	biceq	r8, r0, #128	; 0x80
    1984:	0000009f 	muleq	r0, pc, r0	; <UNPREDICTABLE>
    1988:	00000000 	andeq	r0, r0, r0
    198c:	0002fc00 	andeq	pc, r2, r0, lsl #24
    1990:	00031c00 	andeq	r1, r3, r0, lsl #24
    1994:	53000100 	movwpl	r0, #256	; 0x100
	...
    19a0:	000002fc 	strdeq	r0, [r0], -ip
    19a4:	00000314 	andeq	r0, r0, r4, lsl r3
    19a8:	1c700003 	ldclne	0, cr0, [r0], #-12
    19ac:	0003149f 	muleq	r3, pc, r4	; <UNPREDICTABLE>
    19b0:	00031c00 	andeq	r1, r3, r0, lsl #24
    19b4:	74000700 	strvc	r0, [r0], #-1792	; 0x700
    19b8:	c0808084 	addgt	r8, r0, r4, lsl #1
    19bc:	00009f03 	andeq	r9, r0, r3, lsl #30
    19c0:	00000000 	andeq	r0, r0, r0
    19c4:	04240000 	strteq	r0, [r4], #-0
    19c8:	043b0000 	ldrteq	r0, [fp], #-0
    19cc:	00010000 	andeq	r0, r1, r0
    19d0:	00043b50 	andeq	r3, r4, r0, asr fp
    19d4:	00048800 	andeq	r8, r4, r0, lsl #16
    19d8:	58000100 	stmdapl	r0, {r8}
    19dc:	00000488 	andeq	r0, r0, r8, lsl #9
    19e0:	0000048b 	andeq	r0, r0, fp, lsl #9
    19e4:	2c700002 	ldclcs	0, cr0, [r0], #-8
    19e8:	0000048b 	andeq	r0, r0, fp, lsl #9
    19ec:	0000048c 	andeq	r0, r0, ip, lsl #9
    19f0:	01f30004 	mvnseq	r0, r4
    19f4:	048c9f50 	streq	r9, [ip], #3920	; 0xf50
    19f8:	04b40000 	ldrteq	r0, [r4], #0
    19fc:	00010000 	andeq	r0, r1, r0
    1a00:	00000058 	andeq	r0, r0, r8, asr r0
    1a04:	00000000 	andeq	r0, r0, r0
    1a08:	00042400 	andeq	r2, r4, r0, lsl #8
    1a0c:	00043b00 	andeq	r3, r4, r0, lsl #22
    1a10:	51000100 	mrspl	r0, (UNDEF: 16)
    1a14:	0000043b 	andeq	r0, r0, fp, lsr r4
    1a18:	00000488 	andeq	r0, r0, r8, lsl #9
    1a1c:	88560001 	ldmdahi	r6, {r0}^
    1a20:	8b000004 	blhi	1a38 <_back_addr-0x160e5c8>
    1a24:	02000004 	andeq	r0, r0, #4
    1a28:	8b347000 	blhi	d1da30 <_back_addr-0x8f25d0>
    1a2c:	8c000004 	stchi	0, cr0, [r0], {4}
    1a30:	04000004 	streq	r0, [r0], #-4
    1a34:	5101f300 	mrspl	pc, SP_irq	; <UNPREDICTABLE>
    1a38:	00048c9f 	muleq	r4, pc, ip	; <UNPREDICTABLE>
    1a3c:	0004b400 	andeq	fp, r4, r0, lsl #8
    1a40:	56000100 	strpl	r0, [r0], -r0, lsl #2
	...
    1a4c:	00000424 	andeq	r0, r0, r4, lsr #8
    1a50:	0000043b 	andeq	r0, r0, fp, lsr r4
    1a54:	3b520001 	blcc	1481a60 <_back_addr-0x18e5a0>
    1a58:	88000004 	stmdahi	r0, {r2}
    1a5c:	01000004 	tsteq	r0, r4
    1a60:	04885700 	streq	r5, [r8], #1792	; 0x700
    1a64:	048b0000 	streq	r0, [fp], #0
    1a68:	00020000 	andeq	r0, r2, r0
    1a6c:	048b3070 	streq	r3, [fp], #112	; 0x70
    1a70:	048c0000 	streq	r0, [ip], #0
    1a74:	00040000 	andeq	r0, r4, r0
    1a78:	9f5201f3 	svcls	0x005201f3
    1a7c:	0000048c 	andeq	r0, r0, ip, lsl #9
    1a80:	000004b4 			; <UNDEFINED> instruction: 0x000004b4
    1a84:	00570001 	subseq	r0, r7, r1
    1a88:	00000000 	andeq	r0, r0, r0
    1a8c:	24000000 	strcs	r0, [r0], #-0
    1a90:	3b000004 	blcc	1aa8 <_back_addr-0x160e558>
    1a94:	01000004 	tsteq	r0, r4
    1a98:	043b5300 	ldrteq	r5, [fp], #-768	; 0x300
    1a9c:	04880000 	streq	r0, [r8], #0
    1aa0:	00010000 	andeq	r0, r1, r0
    1aa4:	00048855 	andeq	r8, r4, r5, asr r8
    1aa8:	00048c00 	andeq	r8, r4, r0, lsl #24
    1aac:	f3000400 	vshl.u8	d0, d0, d0
    1ab0:	8c9f5301 	ldchi	3, cr5, [pc], {1}
    1ab4:	b4000004 	strlt	r0, [r0], #-4
    1ab8:	01000004 	tsteq	r0, r4
    1abc:	00005500 	andeq	r5, r0, r0, lsl #10
    1ac0:	00000000 	andeq	r0, r0, r0
    1ac4:	043c0000 	ldrteq	r0, [ip], #-0
    1ac8:	04740000 	ldrbteq	r0, [r4], #-0
    1acc:	00010000 	andeq	r0, r1, r0
    1ad0:	00047450 	andeq	r7, r4, r0, asr r4
    1ad4:	00048800 	andeq	r8, r4, r0, lsl #16
    1ad8:	54000100 	strpl	r0, [r0], #-256	; 0x100
    1adc:	00000488 	andeq	r0, r0, r8, lsl #9
    1ae0:	0000048b 	andeq	r0, r0, fp, lsl #9
    1ae4:	8c500001 	mrrchi	0, 0, r0, r0, cr1	; <UNPREDICTABLE>
    1ae8:	8f000004 	svchi	0x00000004
    1aec:	01000004 	tsteq	r0, r4
    1af0:	048f5000 	streq	r5, [pc], #0	; 1af8 <_back_addr-0x160e508>
    1af4:	04a40000 	strteq	r0, [r4], #0
    1af8:	00010000 	andeq	r0, r1, r0
    1afc:	0004a454 	andeq	sl, r4, r4, asr r4
    1b00:	0004a800 	andeq	sl, r4, r0, lsl #16
    1b04:	50000100 	andpl	r0, r0, r0, lsl #2
    1b08:	000004a8 	andeq	r0, r0, r8, lsr #9
    1b0c:	000004b4 			; <UNDEFINED> instruction: 0x000004b4
    1b10:	00540001 	subseq	r0, r4, r1
    1b14:	00000000 	andeq	r0, r0, r0
    1b18:	b4000000 	strlt	r0, [r0], #-0
    1b1c:	cb000004 	blgt	1b34 <_back_addr-0x160e4cc>
    1b20:	01000004 	tsteq	r0, r4
    1b24:	04cb5000 	strbeq	r5, [fp], #0
    1b28:	05180000 	ldreq	r0, [r8, #-0]
    1b2c:	00010000 	andeq	r0, r1, r0
    1b30:	00051858 	andeq	r1, r5, r8, asr r8
    1b34:	00051b00 	andeq	r1, r5, r0, lsl #22
    1b38:	70000200 	andvc	r0, r0, r0, lsl #4
    1b3c:	00051b2c 	andeq	r1, r5, ip, lsr #22
    1b40:	00051c00 	andeq	r1, r5, r0, lsl #24
    1b44:	f3000400 	vshl.u8	d0, d0, d0
    1b48:	1c9f5001 	ldcne	0, cr5, [pc], {1}
    1b4c:	44000005 	strmi	r0, [r0], #-5
    1b50:	01000005 	tsteq	r0, r5
    1b54:	00005800 	andeq	r5, r0, r0, lsl #16
    1b58:	00000000 	andeq	r0, r0, r0
    1b5c:	04b40000 	ldrteq	r0, [r4], #0
    1b60:	04cb0000 	strbeq	r0, [fp], #0
    1b64:	00010000 	andeq	r0, r1, r0
    1b68:	0004cb51 	andeq	ip, r4, r1, asr fp
    1b6c:	00051800 	andeq	r1, r5, r0, lsl #16
    1b70:	56000100 	strpl	r0, [r0], -r0, lsl #2
    1b74:	00000518 	andeq	r0, r0, r8, lsl r5
    1b78:	0000051b 	andeq	r0, r0, fp, lsl r5
    1b7c:	34700002 	ldrbtcc	r0, [r0], #-2
    1b80:	0000051b 	andeq	r0, r0, fp, lsl r5
    1b84:	0000051c 	andeq	r0, r0, ip, lsl r5
    1b88:	01f30004 	mvnseq	r0, r4
    1b8c:	051c9f51 	ldreq	r9, [ip, #-3921]	; 0xf51
    1b90:	05440000 	strbeq	r0, [r4, #-0]
    1b94:	00010000 	andeq	r0, r1, r0
    1b98:	00000056 	andeq	r0, r0, r6, asr r0
    1b9c:	00000000 	andeq	r0, r0, r0
    1ba0:	0004b400 	andeq	fp, r4, r0, lsl #8
    1ba4:	0004cb00 	andeq	ip, r4, r0, lsl #22
    1ba8:	52000100 	andpl	r0, r0, #0, 2
    1bac:	000004cb 	andeq	r0, r0, fp, asr #9
    1bb0:	00000518 	andeq	r0, r0, r8, lsl r5
    1bb4:	18570001 	ldmdane	r7, {r0}^
    1bb8:	1b000005 	blne	1bd4 <_back_addr-0x160e42c>
    1bbc:	02000005 	andeq	r0, r0, #5
    1bc0:	1b307000 	blne	c1dbc8 <_back_addr-0x9f2438>
    1bc4:	1c000005 	stcne	0, cr0, [r0], {5}
    1bc8:	04000005 	streq	r0, [r0], #-5
    1bcc:	5201f300 	andpl	pc, r1, #0, 6
    1bd0:	00051c9f 	muleq	r5, pc, ip	; <UNPREDICTABLE>
    1bd4:	00054400 	andeq	r4, r5, r0, lsl #8
    1bd8:	57000100 	strpl	r0, [r0, -r0, lsl #2]
	...
    1be4:	000004b4 			; <UNDEFINED> instruction: 0x000004b4
    1be8:	000004cb 	andeq	r0, r0, fp, asr #9
    1bec:	cb530001 	blgt	14c1bf8 <_back_addr-0x14e408>
    1bf0:	18000004 	stmdane	r0, {r2}
    1bf4:	01000005 	tsteq	r0, r5
    1bf8:	05185500 	ldreq	r5, [r8, #-1280]	; 0x500
    1bfc:	051c0000 	ldreq	r0, [ip, #-0]
    1c00:	00040000 	andeq	r0, r4, r0
    1c04:	9f5301f3 	svcls	0x005301f3
    1c08:	0000051c 	andeq	r0, r0, ip, lsl r5
    1c0c:	00000544 	andeq	r0, r0, r4, asr #10
    1c10:	00550001 	subseq	r0, r5, r1
    1c14:	00000000 	andeq	r0, r0, r0
    1c18:	cc000000 	stcgt	0, cr0, [r0], {-0}
    1c1c:	04000004 	streq	r0, [r0], #-4
    1c20:	01000005 	tsteq	r0, r5
    1c24:	05045000 	streq	r5, [r4, #-0]
    1c28:	05180000 	ldreq	r0, [r8, #-0]
    1c2c:	00010000 	andeq	r0, r1, r0
    1c30:	00051854 	andeq	r1, r5, r4, asr r8
    1c34:	00051b00 	andeq	r1, r5, r0, lsl #22
    1c38:	50000100 	andpl	r0, r0, r0, lsl #2
    1c3c:	0000051c 	andeq	r0, r0, ip, lsl r5
    1c40:	0000051f 	andeq	r0, r0, pc, lsl r5
    1c44:	1f500001 	svcne	0x00500001
    1c48:	34000005 	strcc	r0, [r0], #-5
    1c4c:	01000005 	tsteq	r0, r5
    1c50:	05345400 	ldreq	r5, [r4, #-1024]!	; 0x400
    1c54:	05380000 	ldreq	r0, [r8, #-0]!
    1c58:	00010000 	andeq	r0, r1, r0
    1c5c:	00053850 	andeq	r3, r5, r0, asr r8
    1c60:	00054400 	andeq	r4, r5, r0, lsl #8
    1c64:	54000100 	strpl	r0, [r0], #-256	; 0x100
	...
    1c70:	00000544 	andeq	r0, r0, r4, asr #10
    1c74:	0000055b 	andeq	r0, r0, fp, asr r5
    1c78:	5b500001 	blpl	1401c84 <_back_addr-0x20e37c>
    1c7c:	a8000005 	stmdage	r0, {r0, r2}
    1c80:	01000005 	tsteq	r0, r5
    1c84:	05a85800 	streq	r5, [r8, #2048]!	; 0x800
    1c88:	05ab0000 	streq	r0, [fp, #0]!
    1c8c:	00020000 	andeq	r0, r2, r0
    1c90:	05ab2c70 	streq	r2, [fp, #3184]!	; 0xc70
    1c94:	05ac0000 	streq	r0, [ip, #0]!
    1c98:	00040000 	andeq	r0, r4, r0
    1c9c:	9f5001f3 	svcls	0x005001f3
    1ca0:	000005ac 	andeq	r0, r0, ip, lsr #11
    1ca4:	000005d8 	ldrdeq	r0, [r0], -r8
    1ca8:	00580001 	subseq	r0, r8, r1
    1cac:	00000000 	andeq	r0, r0, r0
    1cb0:	44000000 	strmi	r0, [r0], #-0
    1cb4:	5b000005 	blpl	1cd0 <_back_addr-0x160e330>
    1cb8:	01000005 	tsteq	r0, r5
    1cbc:	055b5100 	ldrbeq	r5, [fp, #-256]	; 0x100
    1cc0:	05a80000 	streq	r0, [r8, #0]!
    1cc4:	00010000 	andeq	r0, r1, r0
    1cc8:	0005a856 	andeq	sl, r5, r6, asr r8
    1ccc:	0005ab00 	andeq	sl, r5, r0, lsl #22
    1cd0:	70000200 	andvc	r0, r0, r0, lsl #4
    1cd4:	0005ab34 	andeq	sl, r5, r4, lsr fp
    1cd8:	0005ac00 	andeq	sl, r5, r0, lsl #24
    1cdc:	f3000400 	vshl.u8	d0, d0, d0
    1ce0:	ac9f5101 	ldfges	f5, [pc], {1}
    1ce4:	d8000005 	stmdale	r0, {r0, r2}
    1ce8:	01000005 	tsteq	r0, r5
    1cec:	00005600 	andeq	r5, r0, r0, lsl #12
    1cf0:	00000000 	andeq	r0, r0, r0
    1cf4:	05440000 	strbeq	r0, [r4, #-0]
    1cf8:	055b0000 	ldrbeq	r0, [fp, #-0]
    1cfc:	00010000 	andeq	r0, r1, r0
    1d00:	00055b52 	andeq	r5, r5, r2, asr fp
    1d04:	0005a800 	andeq	sl, r5, r0, lsl #16
    1d08:	57000100 	strpl	r0, [r0, -r0, lsl #2]
    1d0c:	000005a8 	andeq	r0, r0, r8, lsr #11
    1d10:	000005ab 	andeq	r0, r0, fp, lsr #11
    1d14:	30700002 	rsbscc	r0, r0, r2
    1d18:	000005ab 	andeq	r0, r0, fp, lsr #11
    1d1c:	000005ac 	andeq	r0, r0, ip, lsr #11
    1d20:	01f30004 	mvnseq	r0, r4
    1d24:	05ac9f52 	streq	r9, [ip, #3922]!	; 0xf52
    1d28:	05d80000 	ldrbeq	r0, [r8]
    1d2c:	00010000 	andeq	r0, r1, r0
    1d30:	00000057 	andeq	r0, r0, r7, asr r0
    1d34:	00000000 	andeq	r0, r0, r0
    1d38:	00054400 	andeq	r4, r5, r0, lsl #8
    1d3c:	00055b00 	andeq	r5, r5, r0, lsl #22
    1d40:	53000100 	movwpl	r0, #256	; 0x100
    1d44:	0000055b 	andeq	r0, r0, fp, asr r5
    1d48:	000005a8 	andeq	r0, r0, r8, lsr #11
    1d4c:	a8550001 	ldmdage	r5, {r0}^
    1d50:	ac000005 	stcge	0, cr0, [r0], {5}
    1d54:	04000005 	streq	r0, [r0], #-5
    1d58:	5301f300 	movwpl	pc, #4864	; 0x1300	; <UNPREDICTABLE>
    1d5c:	0005ac9f 	muleq	r5, pc, ip	; <UNPREDICTABLE>
    1d60:	0005d800 	andeq	sp, r5, r0, lsl #16
    1d64:	55000100 	strpl	r0, [r0, #-256]	; 0x100
	...
    1d70:	0000055c 	andeq	r0, r0, ip, asr r5
    1d74:	00000594 	muleq	r0, r4, r5
    1d78:	94500001 	ldrbls	r0, [r0], #-1
    1d7c:	a8000005 	stmdage	r0, {r0, r2}
    1d80:	01000005 	tsteq	r0, r5
    1d84:	05a85400 	streq	r5, [r8, #1024]!	; 0x400
    1d88:	05ab0000 	streq	r0, [fp, #0]!
    1d8c:	00010000 	andeq	r0, r1, r0
    1d90:	0005ac50 	andeq	sl, r5, r0, asr ip
    1d94:	0005af00 	andeq	sl, r5, r0, lsl #30
    1d98:	50000100 	andpl	r0, r0, r0, lsl #2
    1d9c:	000005af 	andeq	r0, r0, pc, lsr #11
    1da0:	000005c8 	andeq	r0, r0, r8, asr #11
    1da4:	c8540001 	ldmdagt	r4, {r0}^
    1da8:	cc000005 	stcgt	0, cr0, [r0], {5}
    1dac:	01000005 	tsteq	r0, r5
    1db0:	05cc5000 	strbeq	r5, [ip]
    1db4:	05d80000 	ldrbeq	r0, [r8]
    1db8:	00010000 	andeq	r0, r1, r0
    1dbc:	00000054 	andeq	r0, r0, r4, asr r0
    1dc0:	00000000 	andeq	r0, r0, r0
    1dc4:	0005d800 	andeq	sp, r5, r0, lsl #16
    1dc8:	0005ef00 	andeq	lr, r5, r0, lsl #30
    1dcc:	50000100 	andpl	r0, r0, r0, lsl #2
    1dd0:	000005ef 	andeq	r0, r0, pc, ror #11
    1dd4:	000006c4 	andeq	r0, r0, r4, asr #13
    1dd8:	00580001 	subseq	r0, r8, r1
    1ddc:	00000000 	andeq	r0, r0, r0
    1de0:	d8000000 	stmdale	r0, {}	; <UNPREDICTABLE>
    1de4:	ef000005 	svc	0x00000005
    1de8:	01000005 	tsteq	r0, r5
    1dec:	05ef5100 	strbeq	r5, [pc, #256]!	; 1ef4 <_back_addr-0x160e10c>
    1df0:	06c40000 	strbeq	r0, [r4], r0
    1df4:	00010000 	andeq	r0, r1, r0
    1df8:	00000057 	andeq	r0, r0, r7, asr r0
    1dfc:	00000000 	andeq	r0, r0, r0
    1e00:	0005d800 	andeq	sp, r5, r0, lsl #16
    1e04:	0005ef00 	andeq	lr, r5, r0, lsl #30
    1e08:	52000100 	andpl	r0, r0, #0, 2
    1e0c:	000005ef 	andeq	r0, r0, pc, ror #11
    1e10:	000006c4 	andeq	r0, r0, r4, asr #13
    1e14:	00560001 	subseq	r0, r6, r1
    1e18:	00000000 	andeq	r0, r0, r0
    1e1c:	d8000000 	stmdale	r0, {}	; <UNPREDICTABLE>
    1e20:	ef000005 	svc	0x00000005
    1e24:	01000005 	tsteq	r0, r5
    1e28:	05ef5300 	strbeq	r5, [pc, #768]!	; 2130 <_back_addr-0x160ded0>
    1e2c:	06c40000 	strbeq	r0, [r4], r0
    1e30:	00010000 	andeq	r0, r1, r0
    1e34:	00000055 	andeq	r0, r0, r5, asr r0
    1e38:	00000000 	andeq	r0, r0, r0
    1e3c:	0005d800 	andeq	sp, r5, r0, lsl #16
    1e40:	00063c00 	andeq	r3, r6, r0, lsl #24
    1e44:	30000200 	andcc	r0, r0, r0, lsl #4
    1e48:	00063c9f 	muleq	r6, pc, ip	; <UNPREDICTABLE>
    1e4c:	00066000 	andeq	r6, r6, r0
    1e50:	50000100 	andpl	r0, r0, r0, lsl #2
    1e54:	00000660 	andeq	r0, r0, r0, ror #12
    1e58:	000006c4 	andeq	r0, r0, r4, asr #13
    1e5c:	9f300002 	svcls	0x00300002
	...
    1e68:	000005f0 	strdeq	r0, [r0], -r0	; <UNPREDICTABLE>
    1e6c:	00000628 	andeq	r0, r0, r8, lsr #12
    1e70:	28500001 	ldmdacs	r0, {r0}^
    1e74:	40000006 	andmi	r0, r0, r6
    1e78:	01000006 	tsteq	r0, r6
    1e7c:	06605400 	strbteq	r5, [r0], -r0, lsl #8
    1e80:	06630000 	strbteq	r0, [r3], -r0
    1e84:	00010000 	andeq	r0, r1, r0
    1e88:	00066350 	andeq	r6, r6, r0, asr r3
    1e8c:	00069c00 	andeq	r9, r6, r0, lsl #24
    1e90:	54000100 	strpl	r0, [r0], #-256	; 0x100
    1e94:	0000069c 	muleq	r0, ip, r6
    1e98:	000006b4 			; <UNDEFINED> instruction: 0x000006b4
    1e9c:	b4500001 	ldrblt	r0, [r0], #-1
    1ea0:	c4000006 	strgt	r0, [r0], #-6
    1ea4:	01000006 	tsteq	r0, r6
    1ea8:	00005400 	andeq	r5, r0, r0, lsl #8
    1eac:	00000000 	andeq	r0, r0, r0
    1eb0:	06c40000 	strbeq	r0, [r4], r0
    1eb4:	06d70000 	ldrbeq	r0, [r7], r0
    1eb8:	00010000 	andeq	r0, r1, r0
    1ebc:	0006d750 	andeq	sp, r6, r0, asr r7
    1ec0:	00072800 	andeq	r2, r7, r0, lsl #16
    1ec4:	56000100 	strpl	r0, [r0], -r0, lsl #2
    1ec8:	00000728 	andeq	r0, r0, r8, lsr #14
    1ecc:	0000072b 	andeq	r0, r0, fp, lsr #14
    1ed0:	2c700002 	ldclcs	0, cr0, [r0], #-8
    1ed4:	0000072b 	andeq	r0, r0, fp, lsr #14
    1ed8:	0000072c 	andeq	r0, r0, ip, lsr #14
    1edc:	01f30004 	mvnseq	r0, r4
    1ee0:	072c9f50 			; <UNDEFINED> instruction: 0x072c9f50
    1ee4:	07340000 	ldreq	r0, [r4, -r0]!
    1ee8:	00010000 	andeq	r0, r1, r0
    1eec:	00000056 	andeq	r0, r0, r6, asr r0
    1ef0:	00000000 	andeq	r0, r0, r0
    1ef4:	0006c400 	andeq	ip, r6, r0, lsl #8
    1ef8:	0006d700 	andeq	sp, r6, r0, lsl #14
    1efc:	51000100 	mrspl	r0, (UNDEF: 16)
    1f00:	000006d7 	ldrdeq	r0, [r0], -r7
    1f04:	00000728 	andeq	r0, r0, r8, lsr #14
    1f08:	28540001 	ldmdacs	r4, {r0}^
    1f0c:	2b000007 	blcs	1f30 <_back_addr-0x160e0d0>
    1f10:	02000007 	andeq	r0, r0, #7
    1f14:	2b347000 	blcs	d1df1c <_back_addr-0x8f20e4>
    1f18:	2c000007 	stccs	0, cr0, [r0], {7}
    1f1c:	04000007 	streq	r0, [r0], #-7
    1f20:	5101f300 	mrspl	pc, SP_irq	; <UNPREDICTABLE>
    1f24:	00072c9f 	muleq	r7, pc, ip	; <UNPREDICTABLE>
    1f28:	00073400 	andeq	r3, r7, r0, lsl #8
    1f2c:	54000100 	strpl	r0, [r0], #-256	; 0x100
	...
    1f38:	000006c4 	andeq	r0, r0, r4, asr #13
    1f3c:	000006d7 	ldrdeq	r0, [r0], -r7
    1f40:	d7520001 	ldrble	r0, [r2, -r1]
    1f44:	28000006 	stmdacs	r0, {r1, r2}
    1f48:	01000007 	tsteq	r0, r7
    1f4c:	07285500 	streq	r5, [r8, -r0, lsl #10]!
    1f50:	072b0000 	streq	r0, [fp, -r0]!
    1f54:	00020000 	andeq	r0, r2, r0
    1f58:	072b3070 			; <UNDEFINED> instruction: 0x072b3070
    1f5c:	072c0000 	streq	r0, [ip, -r0]!
    1f60:	00040000 	andeq	r0, r4, r0
    1f64:	9f5201f3 	svcls	0x005201f3
    1f68:	0000072c 	andeq	r0, r0, ip, lsr #14
    1f6c:	00000734 	andeq	r0, r0, r4, lsr r7
    1f70:	00550001 	subseq	r0, r5, r1
    1f74:	00000000 	andeq	r0, r0, r0
    1f78:	d8000000 	stmdale	r0, {}	; <UNPREDICTABLE>
    1f7c:	2b000006 	blcs	1f9c <_back_addr-0x160e064>
    1f80:	01000007 	tsteq	r0, r7
    1f84:	072c5000 	streq	r5, [ip, -r0]!
    1f88:	07300000 	ldreq	r0, [r0, -r0]!
    1f8c:	00010000 	andeq	r0, r1, r0
    1f90:	00073050 	andeq	r3, r7, r0, asr r0
    1f94:	00073400 	andeq	r3, r7, r0, lsl #8
    1f98:	53000100 	movwpl	r0, #256	; 0x100
	...
    1fa4:	00000734 	andeq	r0, r0, r4, lsr r7
    1fa8:	00000763 	andeq	r0, r0, r3, ror #14
    1fac:	63500001 	cmpvs	r0, #1
    1fb0:	ac000007 	stcge	0, cr0, [r0], {7}
    1fb4:	01000007 	tsteq	r0, r7
    1fb8:	07ac5800 	streq	r5, [ip, r0, lsl #16]!
    1fbc:	08840000 	stmeq	r4, {}	; <UNPREDICTABLE>
    1fc0:	00040000 	andeq	r0, r4, r0
    1fc4:	9f5001f3 	svcls	0x005001f3
    1fc8:	00000884 	andeq	r0, r0, r4, lsl #17
    1fcc:	00000888 	andeq	r0, r0, r8, lsl #17
    1fd0:	88500001 	ldmdahi	r0, {r0}^
    1fd4:	8c000008 	stchi	0, cr0, [r0], {8}
    1fd8:	04000008 	streq	r0, [r0], #-8
    1fdc:	5001f300 	andpl	pc, r1, r0, lsl #6
    1fe0:	0000009f 	muleq	r0, pc, r0	; <UNPREDICTABLE>
    1fe4:	00000000 	andeq	r0, r0, r0
    1fe8:	00073400 	andeq	r3, r7, r0, lsl #8
    1fec:	00076300 	andeq	r6, r7, r0, lsl #6
    1ff0:	51000100 	mrspl	r0, (UNDEF: 16)
    1ff4:	00000763 	andeq	r0, r0, r3, ror #14
    1ff8:	00000884 	andeq	r0, r0, r4, lsl #17
    1ffc:	84560001 	ldrbhi	r0, [r6], #-1
    2000:	8c000008 	stchi	0, cr0, [r0], {8}
    2004:	01000008 	tsteq	r0, r8
    2008:	00005100 	andeq	r5, r0, r0, lsl #2
    200c:	00000000 	andeq	r0, r0, r0
    2010:	07340000 	ldreq	r0, [r4, -r0]!
    2014:	07630000 	strbeq	r0, [r3, -r0]!
    2018:	00010000 	andeq	r0, r1, r0
    201c:	00076352 	andeq	r6, r7, r2, asr r3
    2020:	00087c00 	andeq	r7, r8, r0, lsl #24
    2024:	54000100 	strpl	r0, [r0], #-256	; 0x100
    2028:	0000087c 	andeq	r0, r0, ip, ror r8
    202c:	00000884 	andeq	r0, r0, r4, lsl #17
    2030:	01f30004 	mvnseq	r0, r4
    2034:	08849f52 	stmeq	r4, {r1, r4, r6, r8, r9, sl, fp, ip, pc}
    2038:	088c0000 	stmeq	ip, {}	; <UNPREDICTABLE>
    203c:	00010000 	andeq	r0, r1, r0
    2040:	00000052 	andeq	r0, r0, r2, asr r0
    2044:	00000000 	andeq	r0, r0, r0
    2048:	00073400 	andeq	r3, r7, r0, lsl #8
    204c:	00076300 	andeq	r6, r7, r0, lsl #6
    2050:	53000100 	movwpl	r0, #256	; 0x100
    2054:	00000763 	andeq	r0, r0, r3, ror #14
    2058:	00000884 	andeq	r0, r0, r4, lsl #17
    205c:	84570001 	ldrbhi	r0, [r7], #-1
    2060:	8c000008 	stchi	0, cr0, [r0], {8}
    2064:	01000008 	tsteq	r0, r8
    2068:	00005300 	andeq	r5, r0, r0, lsl #6
    206c:	00000000 	andeq	r0, r0, r0
    2070:	07640000 	strbeq	r0, [r4, -r0]!
    2074:	07ac0000 	streq	r0, [ip, r0]!
    2078:	00010000 	andeq	r0, r1, r0
    207c:	0007ac50 	andeq	sl, r7, r0, asr ip
    2080:	00087c00 	andeq	r7, r8, r0, lsl #24
    2084:	55000100 	strpl	r0, [r0, #-256]	; 0x100
	...
    2090:	000007a4 	andeq	r0, r0, r4, lsr #15
    2094:	0000087c 	andeq	r0, r0, ip, ror r8
    2098:	00580001 	subseq	r0, r8, r1
    209c:	00000000 	andeq	r0, r0, r0
    20a0:	a4000000 	strge	r0, [r0], #-0
    20a4:	ac000007 	stcge	0, cr0, [r0], {7}
    20a8:	02000007 	andeq	r0, r0, #7
    20ac:	489f3000 	ldmmi	pc, {ip, sp}	; <UNPREDICTABLE>
    20b0:	6c000008 	stcvs	0, cr0, [r0], {8}
    20b4:	02000008 	andeq	r0, r0, #8
    20b8:	009f3000 	addseq	r3, pc, r0
    20bc:	00000000 	andeq	r0, r0, r0
    20c0:	ac000000 	stcge	0, cr0, [r0], {-0}
    20c4:	48000007 	stmdami	r0, {r0, r1, r2}
    20c8:	01000008 	tsteq	r0, r8
    20cc:	086c5400 	stmdaeq	ip!, {sl, ip, lr}^
    20d0:	087c0000 	ldmdaeq	ip!, {}^	; <UNPREDICTABLE>
    20d4:	00010000 	andeq	r0, r1, r0
    20d8:	00000054 	andeq	r0, r0, r4, asr r0
    20dc:	00000000 	andeq	r0, r0, r0
    20e0:	0007ac00 	andeq	sl, r7, r0, lsl #24
    20e4:	00084800 	andeq	r4, r8, r0, lsl #16
    20e8:	55000100 	strpl	r0, [r0, #-256]	; 0x100
    20ec:	0000086c 	andeq	r0, r0, ip, ror #16
    20f0:	0000087c 	andeq	r0, r0, ip, ror r8
    20f4:	00550001 	subseq	r0, r5, r1
    20f8:	00000000 	andeq	r0, r0, r0
    20fc:	8c000000 	stchi	0, cr0, [r0], {-0}
    2100:	af000008 	svcge	0x00000008
    2104:	01000008 	tsteq	r0, r8
    2108:	08af5000 	stmiaeq	pc!, {ip, lr}	; <UNPREDICTABLE>
    210c:	09040000 	stmdbeq	r4, {}	; <UNPREDICTABLE>
    2110:	00010000 	andeq	r0, r1, r0
    2114:	00090456 	andeq	r0, r9, r6, asr r4
    2118:	00090700 	andeq	r0, r9, r0, lsl #14
    211c:	70000200 	andvc	r0, r0, r0, lsl #4
    2120:	0009072c 	andeq	r0, r9, ip, lsr #14
    2124:	00090800 	andeq	r0, r9, r0, lsl #16
    2128:	f3000400 	vshl.u8	d0, d0, d0
    212c:	089f5001 	ldmeq	pc, {r0, ip, lr}	; <UNPREDICTABLE>
    2130:	48000009 	stmdami	r0, {r0, r3}
    2134:	01000009 	tsteq	r0, r9
    2138:	09485600 	stmdbeq	r8, {r9, sl, ip, lr}^
    213c:	094c0000 	stmdbeq	ip, {}^	; <UNPREDICTABLE>
    2140:	00010000 	andeq	r0, r1, r0
    2144:	00094c50 	andeq	r4, r9, r0, asr ip
    2148:	00095000 	andeq	r5, r9, r0
    214c:	f3000400 	vshl.u8	d0, d0, d0
    2150:	509f5001 	addspl	r5, pc, r1
    2154:	58000009 	stmdapl	r0, {r0, r3}
    2158:	01000009 	tsteq	r0, r9
    215c:	00005600 	andeq	r5, r0, r0, lsl #12
    2160:	00000000 	andeq	r0, r0, r0
    2164:	088c0000 	stmeq	ip, {}	; <UNPREDICTABLE>
    2168:	08af0000 	stmiaeq	pc!, {}	; <UNPREDICTABLE>
    216c:	00010000 	andeq	r0, r1, r0
    2170:	0008af51 	andeq	sl, r8, r1, asr pc
    2174:	00090400 	andeq	r0, r9, r0, lsl #8
    2178:	55000100 	strpl	r0, [r0, #-256]	; 0x100
    217c:	00000904 	andeq	r0, r0, r4, lsl #18
    2180:	00000907 	andeq	r0, r0, r7, lsl #18
    2184:	34700002 	ldrbtcc	r0, [r0], #-2
    2188:	00000907 	andeq	r0, r0, r7, lsl #18
    218c:	00000908 	andeq	r0, r0, r8, lsl #18
    2190:	01f30004 	mvnseq	r0, r4
    2194:	09089f51 	stmdbeq	r8, {r0, r4, r6, r8, r9, sl, fp, ip, pc}
    2198:	09480000 	stmdbeq	r8, {}^	; <UNPREDICTABLE>
    219c:	00010000 	andeq	r0, r1, r0
    21a0:	00094855 	andeq	r4, r9, r5, asr r8
    21a4:	00095000 	andeq	r5, r9, r0
    21a8:	51000100 	mrspl	r0, (UNDEF: 16)
    21ac:	00000950 	andeq	r0, r0, r0, asr r9
    21b0:	00000958 	andeq	r0, r0, r8, asr r9
    21b4:	00550001 	subseq	r0, r5, r1
    21b8:	00000000 	andeq	r0, r0, r0
    21bc:	8c000000 	stchi	0, cr0, [r0], {-0}
    21c0:	af000008 	svcge	0x00000008
    21c4:	01000008 	tsteq	r0, r8
    21c8:	08af5200 	stmiaeq	pc!, {r9, ip, lr}	; <UNPREDICTABLE>
    21cc:	09040000 	stmdbeq	r4, {}	; <UNPREDICTABLE>
    21d0:	00010000 	andeq	r0, r1, r0
    21d4:	00090457 	andeq	r0, r9, r7, asr r4
    21d8:	00090700 	andeq	r0, r9, r0, lsl #14
    21dc:	70000200 	andvc	r0, r0, r0, lsl #4
    21e0:	00090730 	andeq	r0, r9, r0, lsr r7
    21e4:	00090800 	andeq	r0, r9, r0, lsl #16
    21e8:	f3000400 	vshl.u8	d0, d0, d0
    21ec:	089f5201 	ldmeq	pc, {r0, r9, ip, lr}	; <UNPREDICTABLE>
    21f0:	48000009 	stmdami	r0, {r0, r3}
    21f4:	01000009 	tsteq	r0, r9
    21f8:	09485700 	stmdbeq	r8, {r8, r9, sl, ip, lr}^
    21fc:	09500000 	ldmdbeq	r0, {}^	; <UNPREDICTABLE>
    2200:	00010000 	andeq	r0, r1, r0
    2204:	00095052 	andeq	r5, r9, r2, asr r0
    2208:	00095800 	andeq	r5, r9, r0, lsl #16
    220c:	57000100 	strpl	r0, [r0, -r0, lsl #2]
	...
    2218:	0000088c 	andeq	r0, r0, ip, lsl #17
    221c:	000008af 	andeq	r0, r0, pc, lsr #17
    2220:	af530001 	svcge	0x00530001
    2224:	04000008 	streq	r0, [r0], #-8
    2228:	01000009 	tsteq	r0, r9
    222c:	09045400 	stmdbeq	r4, {sl, ip, lr}
    2230:	09080000 	stmdbeq	r8, {}	; <UNPREDICTABLE>
    2234:	00040000 	andeq	r0, r4, r0
    2238:	9f5301f3 	svcls	0x005301f3
    223c:	00000908 	andeq	r0, r0, r8, lsl #18
    2240:	00000948 	andeq	r0, r0, r8, asr #18
    2244:	48540001 	ldmdami	r4, {r0}^
    2248:	50000009 	andpl	r0, r0, r9
    224c:	01000009 	tsteq	r0, r9
    2250:	09505300 	ldmdbeq	r0, {r8, r9, ip, lr}^
    2254:	09580000 	ldmdbeq	r8, {}^	; <UNPREDICTABLE>
    2258:	00010000 	andeq	r0, r1, r0
    225c:	00000054 	andeq	r0, r0, r4, asr r0
    2260:	00000000 	andeq	r0, r0, r0
    2264:	0008b000 	andeq	fp, r8, r0
    2268:	0008f800 	andeq	pc, r8, r0, lsl #16
    226c:	50000100 	andpl	r0, r0, r0, lsl #2
    2270:	000008f8 	strdeq	r0, [r0], -r8
    2274:	00000907 	andeq	r0, r0, r7, lsl #18
    2278:	085c0001 	ldmdaeq	ip, {r0}^
    227c:	48000009 	stmdami	r0, {r0, r3}
    2280:	01000009 	tsteq	r0, r9
    2284:	09505000 	ldmdbeq	r0, {ip, lr}^
    2288:	09540000 	ldmdbeq	r4, {}^	; <UNPREDICTABLE>
    228c:	00010000 	andeq	r0, r1, r0
    2290:	00095450 	andeq	r5, r9, r0, asr r4
    2294:	00095800 	andeq	r5, r9, r0, lsl #16
    2298:	5c000100 	stfpls	f0, [r0], {-0}
	...
    22a4:	00000958 	andeq	r0, r0, r8, asr r9
    22a8:	00000973 	andeq	r0, r0, r3, ror r9
    22ac:	73500001 	cmpvc	r0, #1
    22b0:	3c000009 	stccc	0, cr0, [r0], {9}
    22b4:	0100000a 	tsteq	r0, sl
    22b8:	0a3c5400 	beq	f172c0 <_back_addr-0x6f8d40>
    22bc:	0abc0000 	beq	fef022c4 <__bss_end__+0xfd8df674>
    22c0:	00040000 	andeq	r0, r4, r0
    22c4:	9f5001f3 	svcls	0x005001f3
    22c8:	00000abc 			; <UNDEFINED> instruction: 0x00000abc
    22cc:	00000ad4 	ldrdeq	r0, [r0], -r4
    22d0:	00540001 	subseq	r0, r4, r1
    22d4:	00000000 	andeq	r0, r0, r0
    22d8:	58000000 	stmdapl	r0, {}	; <UNPREDICTABLE>
    22dc:	73000009 	movwvc	r0, #9
    22e0:	01000009 	tsteq	r0, r9
    22e4:	09735100 	ldmdbeq	r3!, {r8, ip, lr}^
    22e8:	0a100000 	beq	4022f0 <_back_addr-0x120dd10>
    22ec:	00010000 	andeq	r0, r1, r0
    22f0:	000a1055 	andeq	r1, sl, r5, asr r0
    22f4:	000abc00 	andeq	fp, sl, r0, lsl #24
    22f8:	f3000400 	vshl.u8	d0, d0, d0
    22fc:	bc9f5101 	ldflts	f5, [pc], {1}
    2300:	d400000a 	strle	r0, [r0], #-10
    2304:	0100000a 	tsteq	r0, sl
    2308:	00005500 	andeq	r5, r0, r0, lsl #10
    230c:	00000000 	andeq	r0, r0, r0
    2310:	09580000 	ldmdbeq	r8, {}^	; <UNPREDICTABLE>
    2314:	09730000 	ldmdbeq	r3!, {}^	; <UNPREDICTABLE>
    2318:	00010000 	andeq	r0, r1, r0
    231c:	00097352 	andeq	r7, r9, r2, asr r3
    2320:	000ad400 	andeq	sp, sl, r0, lsl #8
    2324:	56000100 	strpl	r0, [r0], -r0, lsl #2
	...
    2330:	00000958 	andeq	r0, r0, r8, asr r9
    2334:	00000a44 	andeq	r0, r0, r4, asr #20
    2338:	9f300002 	svcls	0x00300002
    233c:	00000a44 	andeq	r0, r0, r4, asr #20
    2340:	00000a48 	andeq	r0, r0, r8, asr #20
    2344:	ea0a0007 	b	282368 <_back_addr-0x138dc98>
    2348:	1c007403 	cfstrsne	mvf7, [r0], {3}
    234c:	000a489f 	muleq	sl, pc, r8	; <UNPREDICTABLE>
    2350:	000a4c00 	andeq	r4, sl, r0, lsl #24
    2354:	0a000700 	beq	3f5c <_back_addr-0x160c0a4>
    2358:	007403e9 	rsbseq	r0, r4, r9, ror #7
    235c:	0a4c9f1c 	beq	1329fd4 <_back_addr-0x2e602c>
    2360:	0a600000 	beq	1802368 <__bss_end__+0x1df718>
    2364:	00070000 	andeq	r0, r7, r0
    2368:	7403ea0a 	strvc	lr, [r3], #-2570	; 0xa0a
    236c:	a49f1c00 	ldrge	r1, [pc], #3072	; 2374 <_back_addr-0x160dc8c>
    2370:	bc00000a 	stclt	0, cr0, [r0], {10}
    2374:	0700000a 	streq	r0, [r0, -sl]
    2378:	03e90a00 	mvneq	r0, #0, 20
    237c:	9f1c0074 	svcls	0x001c0074
    2380:	00000abc 			; <UNDEFINED> instruction: 0x00000abc
    2384:	00000ad4 	ldrdeq	r0, [r0], -r4
    2388:	9f300002 	svcls	0x00300002
	...
    2394:	00000a20 	andeq	r0, r0, r0, lsr #20
    2398:	00000a24 	andeq	r0, r0, r4, lsr #20
    239c:	80740025 	rsbshi	r0, r4, r5, lsr #32
    23a0:	24480604 	strbcs	r0, [r8], #-1540	; 0x604
    23a4:	06048074 			; <UNDEFINED> instruction: 0x06048074
    23a8:	74212548 	strtvc	r2, [r1], #-1352	; 0x548
    23ac:	08060480 	stmdaeq	r6, {r7, sl}
    23b0:	1a2440ff 	bne	9127b4 <_back_addr-0xcfd84c>
    23b4:	74212538 	strtvc	r2, [r1], #-1336	; 0x538
    23b8:	0a060480 	beq	1835c0 <_back_addr-0x148ca40>
    23bc:	381aff00 	ldmdacc	sl, {r8, r9, sl, fp, ip, sp, lr, pc}
    23c0:	009f2124 	addseq	r2, pc, r4, lsr #2
    23c4:	00000000 	andeq	r0, r0, r0
    23c8:	20000000 	andcs	r0, r0, r0
    23cc:	bc00000a 	stclt	0, cr0, [r0], {10}
    23d0:	0600000a 	streq	r0, [r0], -sl
    23d4:	84049e00 	strhi	r9, [r4], #-3584	; 0xe00
    23d8:	009804cf 	addseq	r0, r8, pc, asr #9
    23dc:	00000000 	andeq	r0, r0, r0
    23e0:	24000000 	strcs	r0, [r0], #-0
    23e4:	bc00000a 	stclt	0, cr0, [r0], {10}
    23e8:	0600000a 	streq	r0, [r0], -sl
    23ec:	88049e00 	stmdahi	r4, {r9, sl, fp, ip, pc}
    23f0:	009804cf 	addseq	r0, r8, pc, asr #9
    23f4:	00000000 	andeq	r0, r0, r0
    23f8:	2c000000 	stccs	0, cr0, [r0], {-0}
    23fc:	3400000a 	strcc	r0, [r0], #-10
    2400:	0100000a 	tsteq	r0, sl
    2404:	0a345300 	beq	d1700c <_back_addr-0x8f8ff4>
    2408:	0a440000 	beq	1102410 <_back_addr-0x50dbf0>
    240c:	00030000 	andeq	r0, r3, r0
    2410:	001f8875 	andseq	r8, pc, r5, ror r8	; <UNPREDICTABLE>
    2414:	00000000 	andeq	r0, r0, r0
    2418:	2c000000 	stccs	0, cr0, [r0], {-0}
    241c:	bc00000a 	stclt	0, cr0, [r0], {10}
    2420:	0600000a 	streq	r0, [r0], -sl
    2424:	88049e00 	stmdahi	r4, {r9, sl, fp, ip, pc}
    2428:	009804cf 	addseq	r0, r8, pc, asr #9
    242c:	00000000 	andeq	r0, r0, r0
    2430:	30000000 	andcc	r0, r0, r0
    2434:	bc00000a 	stclt	0, cr0, [r0], {10}
    2438:	0600000a 	streq	r0, [r0], -sl
    243c:	0c049e00 	stceq	14, cr9, [r4], {-0}
    2440:	009804cf 	addseq	r0, r8, pc, asr #9
    2444:	00000000 	andeq	r0, r0, r0
    2448:	d4000000 	strle	r0, [r0], #-0
    244c:	e400000a 	str	r0, [r0], #-10
    2450:	0100000a 	tsteq	r0, sl
    2454:	0ae45000 	beq	ff91645c <__bss_end__+0xfe2f380c>
    2458:	0ae80000 	beq	ffa02460 <__bss_end__+0xfe3df810>
    245c:	00040000 	andeq	r0, r4, r0
    2460:	9f5001f3 	svcls	0x005001f3
    2464:	00000ae8 	andeq	r0, r0, r8, ror #21
    2468:	00000aff 	strdeq	r0, [r0], -pc	; <UNPREDICTABLE>
    246c:	ff500001 			; <UNDEFINED> instruction: 0xff500001
    2470:	6c00000a 	stcvs	0, cr0, [r0], {10}
    2474:	0100000b 	tsteq	r0, fp
    2478:	0b6c5600 	bleq	1b17c80 <__bss_end__+0x4f5030>
    247c:	0b6f0000 	bleq	1bc2484 <__bss_end__+0x59f834>
    2480:	00020000 	andeq	r0, r2, r0
    2484:	0b6f2c70 	bleq	1bcd64c <__bss_end__+0x5aa9fc>
    2488:	0b700000 	bleq	1c02490 <__bss_end__+0x5df840>
    248c:	00040000 	andeq	r0, r4, r0
    2490:	9f5001f3 	svcls	0x005001f3
    2494:	00000b70 	andeq	r0, r0, r0, ror fp
    2498:	00000bdc 	ldrdeq	r0, [r0], -ip
    249c:	00560001 	subseq	r0, r6, r1
    24a0:	00000000 	andeq	r0, r0, r0
    24a4:	d4000000 	strle	r0, [r0], #-0
    24a8:	ff00000a 			; <UNDEFINED> instruction: 0xff00000a
    24ac:	0100000a 	tsteq	r0, sl
    24b0:	0aff5100 	beq	fffd68b8 <__bss_end__+0xfe9b3c68>
    24b4:	0b6c0000 	bleq	1b024bc <__bss_end__+0x4df86c>
    24b8:	00010000 	andeq	r0, r1, r0
    24bc:	000b6c55 	andeq	r6, fp, r5, asr ip
    24c0:	000b6f00 	andeq	r6, fp, r0, lsl #30
    24c4:	70000200 	andvc	r0, r0, r0, lsl #4
    24c8:	000b6f34 	andeq	r6, fp, r4, lsr pc
    24cc:	000b7000 	andeq	r7, fp, r0
    24d0:	f3000400 	vshl.u8	d0, d0, d0
    24d4:	709f5101 	addsvc	r5, pc, r1, lsl #2
    24d8:	dc00000b 	stcle	0, cr0, [r0], {11}
    24dc:	0100000b 	tsteq	r0, fp
    24e0:	00005500 	andeq	r5, r0, r0, lsl #10
    24e4:	00000000 	andeq	r0, r0, r0
    24e8:	0ad40000 	beq	ff5024f0 <__bss_end__+0xfdedf8a0>
    24ec:	0aff0000 	beq	fffc24f4 <__bss_end__+0xfe99f8a4>
    24f0:	00010000 	andeq	r0, r1, r0
    24f4:	000aff52 	andeq	pc, sl, r2, asr pc	; <UNPREDICTABLE>
    24f8:	000b6c00 	andeq	r6, fp, r0, lsl #24
    24fc:	57000100 	strpl	r0, [r0, -r0, lsl #2]
    2500:	00000b6c 	andeq	r0, r0, ip, ror #22
    2504:	00000b6f 	andeq	r0, r0, pc, ror #22
    2508:	30700002 	rsbscc	r0, r0, r2
    250c:	00000b6f 	andeq	r0, r0, pc, ror #22
    2510:	00000b70 	andeq	r0, r0, r0, ror fp
    2514:	01f30004 	mvnseq	r0, r4
    2518:	0b709f52 	bleq	1c2a268 <__bss_end__+0x607618>
    251c:	0bdc0000 	bleq	ff702524 <__bss_end__+0xfe0df8d4>
    2520:	00010000 	andeq	r0, r1, r0
    2524:	00000057 	andeq	r0, r0, r7, asr r0
    2528:	00000000 	andeq	r0, r0, r0
    252c:	000ad400 	andeq	sp, sl, r0, lsl #8
    2530:	000aff00 	andeq	pc, sl, r0, lsl #30
    2534:	53000100 	movwpl	r0, #256	; 0x100
    2538:	00000aff 	strdeq	r0, [r0], -pc	; <UNPREDICTABLE>
    253c:	00000b6c 	andeq	r0, r0, ip, ror #22
    2540:	6c540001 	mrrcvs	0, 0, r0, r4, cr1
    2544:	7000000b 	andvc	r0, r0, fp
    2548:	0400000b 	streq	r0, [r0], #-11
    254c:	5301f300 	movwpl	pc, #4864	; 0x1300	; <UNPREDICTABLE>
    2550:	000b709f 	muleq	fp, pc, r0	; <UNPREDICTABLE>
    2554:	000bdc00 	andeq	sp, fp, r0, lsl #24
    2558:	54000100 	strpl	r0, [r0], #-256	; 0x100
	...
    2564:	00000b00 	andeq	r0, r0, r0, lsl #22
    2568:	00000b60 	andeq	r0, r0, r0, ror #22
    256c:	60500001 	subsvs	r0, r0, r1
    2570:	6f00000b 	svcvs	0x0000000b
    2574:	0100000b 	tsteq	r0, fp
    2578:	0b705c00 	bleq	1c19580 <__bss_end__+0x5f6930>
    257c:	0b740000 	bleq	1d02584 <__bss_end__+0x6df934>
    2580:	00010000 	andeq	r0, r1, r0
    2584:	000b7450 	andeq	r7, fp, r0, asr r4
    2588:	000b7800 	andeq	r7, fp, r0, lsl #16
    258c:	5c000100 	stfpls	f0, [r0], {-0}
    2590:	00000b78 	andeq	r0, r0, r8, ror fp
    2594:	00000bdc 	ldrdeq	r0, [r0], -ip
    2598:	00500001 	subseq	r0, r0, r1
    259c:	00000000 	andeq	r0, r0, r0
    25a0:	dc000000 	stcle	0, cr0, [r0], {-0}
    25a4:	e800000b 	stmda	r0, {r0, r1, r3}
    25a8:	0100000b 	tsteq	r0, fp
    25ac:	0be85000 	bleq	ffa165b4 <__bss_end__+0xfe3f3964>
    25b0:	0c040000 	stceq	0, cr0, [r4], {-0}
    25b4:	00040000 	andeq	r0, r4, r0
    25b8:	9f7f807c 	svcls	0x007f807c
	...
    25c4:	00000bdc 	ldrdeq	r0, [r0], -ip
    25c8:	00000be8 	andeq	r0, r0, r8, ror #23
    25cc:	9f300002 	svcls	0x00300002
    25d0:	00000be8 	andeq	r0, r0, r8, ror #23
    25d4:	00000bf0 	strdeq	r0, [r0], -r0	; <UNPREDICTABLE>
    25d8:	00720009 	rsbseq	r0, r2, r9
    25dc:	231c007c 	tstcs	ip, #124	; 0x7c
    25e0:	f09f0181 			; <UNDEFINED> instruction: 0xf09f0181
    25e4:	fc00000b 	stc2	0, cr0, [r0], {11}
    25e8:	0900000b 	stmdbeq	r0, {r0, r1, r3}
    25ec:	7c007200 	sfmvc	f7, 4, [r0], {-0}
    25f0:	80231c00 	eorhi	r1, r3, r0, lsl #24
    25f4:	0bfc9f01 	bleq	fff2a200 <__bss_end__+0xfe9075b0>
    25f8:	0c040000 	stceq	0, cr0, [r4], {-0}
    25fc:	00090000 	andeq	r0, r9, r0
    2600:	007c0072 	rsbseq	r0, ip, r2, ror r0
    2604:	0181231c 	orreq	r2, r1, ip, lsl r3
    2608:	0000009f 	muleq	r0, pc, r0	; <UNPREDICTABLE>
	...
    2614:	00000c00 	andeq	r0, r0, r0, lsl #24
    2618:	50000100 	andpl	r0, r0, r0, lsl #2
    261c:	0000000c 	andeq	r0, r0, ip
    2620:	00000010 	andeq	r0, r0, r0, lsl r0
    2624:	01f30004 	mvnseq	r0, r4
    2628:	00109f50 	andseq	r9, r0, r0, asr pc
    262c:	002c0000 	eoreq	r0, ip, r0
    2630:	00010000 	andeq	r0, r1, r0
    2634:	00002c50 	andeq	r2, r0, r0, asr ip
    2638:	00004800 	andeq	r4, r0, r0, lsl #16
    263c:	70000300 	andvc	r0, r0, r0, lsl #6
    2640:	00489f7f 	subeq	r9, r8, pc, ror pc
    2644:	00580000 	subseq	r0, r8, r0
    2648:	00040000 	andeq	r0, r4, r0
    264c:	9f5001f3 	svcls	0x005001f3
	...
    2658:	00000010 	andeq	r0, r0, r0, lsl r0
    265c:	0000002c 	andeq	r0, r0, ip, lsr #32
    2660:	2c500001 	mrrccs	0, 0, r0, r0, cr1	; <UNPREDICTABLE>
    2664:	48000000 	stmdami	r0, {}	; <UNPREDICTABLE>
    2668:	03000000 	movweq	r0, #0
    266c:	9f7f7000 	svcls	0x007f7000
    2670:	00000048 	andeq	r0, r0, r8, asr #32
    2674:	00000058 	andeq	r0, r0, r8, asr r0
    2678:	01f30004 	mvnseq	r0, r4
    267c:	00009f50 	andeq	r9, r0, r0, asr pc
    2680:	00000000 	andeq	r0, r0, r0
    2684:	00580000 	subseq	r0, r8, r0
    2688:	00700000 	rsbseq	r0, r0, r0
    268c:	00010000 	andeq	r0, r1, r0
    2690:	00007050 	andeq	r7, r0, r0, asr r0
    2694:	00008400 	andeq	r8, r0, r0, lsl #8
    2698:	f3000400 	vshl.u8	d0, d0, d0
    269c:	009f5001 	addseq	r5, pc, r1
    26a0:	00000000 	andeq	r0, r0, r0
    26a4:	84000000 	strhi	r0, [r0], #-0
    26a8:	90000000 	andls	r0, r0, r0
    26ac:	01000000 	mrseq	r0, (UNDEF: 0)
    26b0:	00905000 	addseq	r5, r0, r0
    26b4:	00940000 	addseq	r0, r4, r0
    26b8:	00040000 	andeq	r0, r4, r0
    26bc:	9f5001f3 	svcls	0x005001f3
    26c0:	00000094 	muleq	r0, r4, r0
    26c4:	000000a0 	andeq	r0, r0, r0, lsr #1
    26c8:	a0500001 	subsge	r0, r0, r1
    26cc:	b4000000 	strlt	r0, [r0], #-0
    26d0:	04000000 	streq	r0, [r0], #-0
    26d4:	5001f300 	andpl	pc, r1, r0, lsl #6
    26d8:	0000009f 	muleq	r0, pc, r0	; <UNPREDICTABLE>
    26dc:	00000000 	andeq	r0, r0, r0
    26e0:	00009400 	andeq	r9, r0, r0, lsl #8
    26e4:	0000a000 	andeq	sl, r0, r0
    26e8:	50000100 	andpl	r0, r0, r0, lsl #2
    26ec:	000000a0 	andeq	r0, r0, r0, lsr #1
    26f0:	000000ac 	andeq	r0, r0, ip, lsr #1
    26f4:	7f700003 	svcvc	0x00700003
    26f8:	0000ac9f 	muleq	r0, pc, ip	; <UNPREDICTABLE>
    26fc:	0000b400 	andeq	fp, r0, r0, lsl #8
    2700:	f3000400 	vshl.u8	d0, d0, d0
    2704:	009f5001 	addseq	r5, pc, r1
    2708:	00000000 	andeq	r0, r0, r0
    270c:	b4000000 	strlt	r0, [r0], #-0
    2710:	c8000000 	stmdagt	r0, {}	; <UNPREDICTABLE>
    2714:	01000000 	mrseq	r0, (UNDEF: 0)
    2718:	00c85000 	sbceq	r5, r8, r0
    271c:	01100000 	tsteq	r0, r0
    2720:	00040000 	andeq	r0, r4, r0
    2724:	9f5001f3 	svcls	0x005001f3
	...
    2730:	000000b4 	strheq	r0, [r0], -r4
    2734:	000000ec 	andeq	r0, r0, ip, ror #1
    2738:	9f300002 	svcls	0x00300002
    273c:	000000ec 	andeq	r0, r0, ip, ror #1
    2740:	00000110 	andeq	r0, r0, r0, lsl r1
    2744:	00510001 	subseq	r0, r1, r1
    2748:	00000000 	andeq	r0, r0, r0
    274c:	10000000 	andne	r0, r0, r0
    2750:	20000001 	andcs	r0, r0, r1
    2754:	01000001 	tsteq	r0, r1
    2758:	01205000 	teqeq	r0, r0
    275c:	01680000 	cmneq	r8, r0
    2760:	00040000 	andeq	r0, r4, r0
    2764:	9f5001f3 	svcls	0x005001f3
	...
    2770:	00000110 	andeq	r0, r0, r0, lsl r1
    2774:	00000144 	andeq	r0, r0, r4, asr #2
    2778:	9f300002 	svcls	0x00300002
    277c:	00000144 	andeq	r0, r0, r4, asr #2
    2780:	00000168 	andeq	r0, r0, r8, ror #2
    2784:	00510001 	subseq	r0, r1, r1
    2788:	00000000 	andeq	r0, r0, r0
    278c:	2c000000 	stccs	0, cr0, [r0], {-0}
    2790:	3c000000 	stccc	0, cr0, [r0], {-0}
    2794:	09000000 	stmdbeq	r0, {}	; <UNPREDICTABLE>
    2798:	11007200 	mrsne	r7, R8_usr
    279c:	78809fff 	stmvc	r0, {r0, r1, r2, r3, r4, r5, r6, r7, r8, r9, sl, fp, ip, pc}
    27a0:	00009f1a 	andeq	r9, r0, sl, lsl pc
    27a4:	00000000 	andeq	r0, r0, r0
    27a8:	00980000 	addseq	r0, r8, r0
    27ac:	00b40000 	adcseq	r0, r4, r0
    27b0:	00010000 	andeq	r0, r1, r0
    27b4:	0000b450 	andeq	fp, r0, r0, asr r4
    27b8:	0000d800 	andeq	sp, r0, r0, lsl #16
    27bc:	70000300 	andvc	r0, r0, r0, lsl #6
    27c0:	00d89f01 	sbcseq	r9, r8, r1, lsl #30
    27c4:	00e40000 	rsceq	r0, r4, r0
    27c8:	00010000 	andeq	r0, r1, r0
    27cc:	0000e450 	andeq	lr, r0, r0, asr r4
    27d0:	00010000 	andeq	r0, r1, r0
    27d4:	70000300 	andvc	r0, r0, r0, lsl #6
    27d8:	00009f01 	andeq	r9, r0, r1, lsl #30
    27dc:	00000000 	andeq	r0, r0, r0
    27e0:	00b40000 	adcseq	r0, r4, r0
    27e4:	00c00000 	sbceq	r0, r0, r0
    27e8:	00010000 	andeq	r0, r1, r0
    27ec:	0000f853 	andeq	pc, r0, r3, asr r8	; <UNPREDICTABLE>
    27f0:	0000fc00 	andeq	pc, r0, r0, lsl #24
    27f4:	3a000200 	bcc	2ffc <_back_addr-0x160d004>
    27f8:	0000009f 	muleq	r0, pc, r0	; <UNPREDICTABLE>
    27fc:	00000000 	andeq	r0, r0, r0
    2800:	00010000 	andeq	r0, r1, r0
    2804:	00012800 	andeq	r2, r1, r0, lsl #16
    2808:	50000100 	andpl	r0, r0, r0, lsl #2
    280c:	00000128 	andeq	r0, r0, r8, lsr #2
    2810:	00000158 	andeq	r0, r0, r8, asr r1
    2814:	58550001 	ldmdapl	r5, {r0}^
    2818:	5c000001 	stcpl	0, cr0, [r0], {1}
    281c:	04000001 	streq	r0, [r0], #-1
    2820:	5001f300 	andpl	pc, r1, r0, lsl #6
    2824:	00015c9f 	muleq	r1, pc, ip	; <UNPREDICTABLE>
    2828:	00016000 	andeq	r6, r1, r0
    282c:	50000100 	andpl	r0, r0, r0, lsl #2
	...
    2838:	00000100 	andeq	r0, r0, r0, lsl #2
    283c:	00000128 	andeq	r0, r0, r8, lsr #2
    2840:	28510001 	ldmdacs	r1, {r0}^
    2844:	58000001 	stmdapl	r0, {r0}
    2848:	01000001 	tsteq	r0, r1
    284c:	01585600 	cmpeq	r8, r0, lsl #12
    2850:	015c0000 	cmpeq	ip, r0
    2854:	00040000 	andeq	r0, r4, r0
    2858:	9f5101f3 	svcls	0x005101f3
    285c:	0000015c 	andeq	r0, r0, ip, asr r1
    2860:	00000160 	andeq	r0, r0, r0, ror #2
    2864:	00510001 	subseq	r0, r1, r1
	...
    2870:	28000001 	stmdacs	r0, {r0}
    2874:	01000001 	tsteq	r0, r1
    2878:	01285200 	teqeq	r8, r0, lsl #4
    287c:	01580000 	cmpeq	r8, r0
    2880:	00010000 	andeq	r0, r1, r0
    2884:	00015857 	andeq	r5, r1, r7, asr r8
    2888:	00015c00 	andeq	r5, r1, r0, lsl #24
    288c:	f3000400 	vshl.u8	d0, d0, d0
    2890:	5c9f5201 	lfmpl	f5, 4, [pc], {1}
    2894:	60000001 	andvs	r0, r0, r1
    2898:	01000001 	tsteq	r0, r1
    289c:	00005200 	andeq	r5, r0, r0, lsl #4
    28a0:	00000000 	andeq	r0, r0, r0
    28a4:	01000000 	mrseq	r0, (UNDEF: 0)
    28a8:	01280000 	teqeq	r8, r0
    28ac:	00020000 	andeq	r0, r2, r0
    28b0:	01289f30 	teqeq	r8, r0, lsr pc
    28b4:	012c0000 	teqeq	ip, r0
    28b8:	00070000 	andeq	r0, r7, r0
    28bc:	740bba0a 	strvc	fp, [fp], #-2570	; 0xa0a
    28c0:	2c9f1c00 	ldccs	12, cr1, [pc], {0}
    28c4:	30000001 	andcc	r0, r0, r1
    28c8:	07000001 	streq	r0, [r0, -r1]
    28cc:	0bb90a00 	bleq	fee450d4 <__bss_end__+0xfd822484>
    28d0:	9f1c0074 	svcls	0x001c0074
    28d4:	00000130 	andeq	r0, r0, r0, lsr r1
    28d8:	0000014c 	andeq	r0, r0, ip, asr #2
    28dc:	ba0a0007 	blt	282900 <_back_addr-0x138d700>
    28e0:	1c00740b 	cfstrsne	mvf7, [r0], {11}
    28e4:	00014c9f 	muleq	r1, pc, ip	; <UNPREDICTABLE>
    28e8:	00015800 	andeq	r5, r1, r0, lsl #16
    28ec:	0a000700 	beq	44f4 <_back_addr-0x160bb0c>
    28f0:	00740bb9 	ldrhteq	r0, [r4], #-185	; 0xffffff47
    28f4:	015c9f1c 	cmpeq	ip, ip, lsl pc
    28f8:	01600000 	cmneq	r0, r0
    28fc:	00020000 	andeq	r0, r2, r0
    2900:	00009f30 	andeq	r9, r0, r0, lsr pc
    2904:	00000000 	andeq	r0, r0, r0
    2908:	01600000 	cmneq	r0, r0
    290c:	016c0000 	cmneq	ip, r0
    2910:	00010000 	andeq	r0, r1, r0
    2914:	00016c51 	andeq	r6, r1, r1, asr ip
    2918:	0001b000 	andeq	fp, r1, r0
    291c:	51000100 	mrspl	r0, (UNDEF: 16)
	...
    2928:	0000017c 	andeq	r0, r0, ip, ror r1
    292c:	0000018c 	andeq	r0, r0, ip, lsl #3
    2930:	8c530001 	mrrchi	0, 0, r0, r3, cr1
    2934:	b0000001 	andlt	r0, r0, r1
    2938:	01000001 	tsteq	r0, r1
    293c:	00005c00 	andeq	r5, r0, r0, lsl #24
    2940:	00000000 	andeq	r0, r0, r0
    2944:	01b00000 	movseq	r0, r0
    2948:	01b70000 			; <UNDEFINED> instruction: 0x01b70000
    294c:	00010000 	andeq	r0, r1, r0
    2950:	0001b750 	andeq	fp, r1, r0, asr r7
    2954:	0001b800 	andeq	fp, r1, r0, lsl #16
    2958:	f3000400 	vshl.u8	d0, d0, d0
    295c:	009f5001 	addseq	r5, pc, r1
    2960:	00000000 	andeq	r0, r0, r0
    2964:	e0000000 	and	r0, r0, r0
    2968:	eb000001 	bl	2974 <_back_addr-0x160d68c>
    296c:	01000001 	tsteq	r0, r1
    2970:	01eb5000 	mvneq	r5, r0
    2974:	01ec0000 	mvneq	r0, r0
    2978:	00040000 	andeq	r0, r4, r0
    297c:	9f5001f3 	svcls	0x005001f3
	...
    2988:	000001ec 	andeq	r0, r0, ip, ror #3
    298c:	00000220 	andeq	r0, r0, r0, lsr #4
    2990:	20500001 	subscs	r0, r0, r1
    2994:	30000002 	andcc	r0, r0, r2
    2998:	01000002 	tsteq	r0, r2
    299c:	02385000 	eorseq	r5, r8, #0
    29a0:	023c0000 	eorseq	r0, ip, #0
    29a4:	00010000 	andeq	r0, r1, r0
    29a8:	00023c50 	andeq	r3, r2, r0, asr ip
    29ac:	00024000 	andeq	r4, r2, r0
    29b0:	f3000400 	vshl.u8	d0, d0, d0
    29b4:	009f5001 	addseq	r5, pc, r1
    29b8:	00000000 	andeq	r0, r0, r0
    29bc:	1c000000 	stcne	0, cr0, [r0], {-0}
    29c0:	38000002 	stmdacc	r0, {r1}
    29c4:	01000002 	tsteq	r0, r2
    29c8:	00005100 	andeq	r5, r0, r0, lsl #2
    29cc:	00000000 	andeq	r0, r0, r0
    29d0:	02400000 	subeq	r0, r0, #0
    29d4:	025c0000 	subseq	r0, ip, #0
    29d8:	00010000 	andeq	r0, r1, r0
    29dc:	00025c50 	andeq	r5, r2, r0, asr ip
    29e0:	00026c00 	andeq	r6, r2, r0, lsl #24
    29e4:	f3000400 	vshl.u8	d0, d0, d0
    29e8:	6c9f5001 	ldcvs	0, cr5, [pc], {1}
    29ec:	70000002 	andvc	r0, r0, r2
    29f0:	01000002 	tsteq	r0, r2
    29f4:	02705000 	rsbseq	r5, r0, #0
    29f8:	02740000 	rsbseq	r0, r4, #0
    29fc:	00040000 	andeq	r0, r4, r0
    2a00:	9f5001f3 	svcls	0x005001f3
	...
    2a0c:	00000274 	andeq	r0, r0, r4, ror r2
    2a10:	0000029c 	muleq	r0, ip, r2
    2a14:	9c500001 	mrrcls	0, 0, r0, r0, cr1	; <UNPREDICTABLE>
    2a18:	14000002 	strne	r0, [r0], #-2
    2a1c:	04000003 	streq	r0, [r0], #-3
    2a20:	5001f300 	andpl	pc, r1, r0, lsl #6
    2a24:	0003149f 	muleq	r3, pc, r4	; <UNPREDICTABLE>
    2a28:	00031800 	andeq	r1, r3, r0, lsl #16
    2a2c:	50000100 	andpl	r0, r0, r0, lsl #2
    2a30:	00000318 	andeq	r0, r0, r8, lsl r3
    2a34:	00000324 	andeq	r0, r0, r4, lsr #6
    2a38:	01f30004 	mvnseq	r0, r4
    2a3c:	00009f50 	andeq	r9, r0, r0, asr pc
    2a40:	00000000 	andeq	r0, r0, r0
    2a44:	02740000 	rsbseq	r0, r4, #0
    2a48:	02a70000 	adceq	r0, r7, #0
    2a4c:	00010000 	andeq	r0, r1, r0
    2a50:	0002a751 	andeq	sl, r2, r1, asr r7
    2a54:	0002c000 	andeq	ip, r2, r0
    2a58:	55000100 	strpl	r0, [r0, #-256]	; 0x100
    2a5c:	000002c0 	andeq	r0, r0, r0, asr #5
    2a60:	000002c3 	andeq	r0, r0, r3, asr #5
    2a64:	c3500001 	cmpgt	r0, #1
    2a68:	d0000002 	andle	r0, r0, r2
    2a6c:	03000002 	movweq	r0, #2
    2a70:	9f017500 	svcls	0x00017500
    2a74:	000002d0 	ldrdeq	r0, [r0], -r0	; <UNPREDICTABLE>
    2a78:	00000314 	andeq	r0, r0, r4, lsl r3
    2a7c:	01f30004 	mvnseq	r0, r4
    2a80:	03149f51 	tsteq	r4, #324	; 0x144
    2a84:	03230000 	teqeq	r3, #0
    2a88:	00010000 	andeq	r0, r1, r0
    2a8c:	00032351 	andeq	r2, r3, r1, asr r3
    2a90:	00032400 	andeq	r2, r3, r0, lsl #8
    2a94:	f3000400 	vshl.u8	d0, d0, d0
    2a98:	009f5101 	addseq	r5, pc, r1, lsl #2
    2a9c:	00000000 	andeq	r0, r0, r0
    2aa0:	74000000 	strvc	r0, [r0], #-0
    2aa4:	a7000002 	strge	r0, [r0, -r2]
    2aa8:	01000002 	tsteq	r0, r2
    2aac:	02a75200 	adceq	r5, r7, #0, 4
    2ab0:	03100000 	tsteq	r0, #0
    2ab4:	00010000 	andeq	r0, r1, r0
    2ab8:	00031056 	andeq	r1, r3, r6, asr r0
    2abc:	00031400 	andeq	r1, r3, r0, lsl #8
    2ac0:	f3000400 	vshl.u8	d0, d0, d0
    2ac4:	149f5201 	ldrne	r5, [pc], #513	; 2acc <_back_addr-0x160d534>
    2ac8:	23000003 	movwcs	r0, #3
    2acc:	01000003 	tsteq	r0, r3
    2ad0:	03235200 	teqeq	r3, #0, 4
    2ad4:	03240000 	teqeq	r4, #0
    2ad8:	00040000 	andeq	r0, r4, r0
    2adc:	9f5201f3 	svcls	0x005201f3
	...
    2ae8:	000002d0 	ldrdeq	r0, [r0], -r0	; <UNPREDICTABLE>
    2aec:	000002f8 	strdeq	r0, [r0], -r8
    2af0:	f8540001 			; <UNDEFINED> instruction: 0xf8540001
    2af4:	fc000002 	stc2	0, cr0, [r0], {2}
    2af8:	03000002 	movweq	r0, #2
    2afc:	9f7f7400 	svcls	0x007f7400
    2b00:	000002fc 	strdeq	r0, [r0], -ip
    2b04:	00000310 	andeq	r0, r0, r0, lsl r3
    2b08:	00540001 	subseq	r0, r4, r1
    2b0c:	00000000 	andeq	r0, r0, r0
    2b10:	b4000000 	strlt	r0, [r0], #-0
    2b14:	c0000002 	andgt	r0, r0, r2
    2b18:	01000002 	tsteq	r0, r2
    2b1c:	02c05500 	sbceq	r5, r0, #0, 10
    2b20:	02c30000 	sbceq	r0, r3, #0
    2b24:	00010000 	andeq	r0, r1, r0
    2b28:	0002c350 	andeq	ip, r2, r0, asr r3
    2b2c:	0002d000 	andeq	sp, r2, r0
    2b30:	75000300 	strvc	r0, [r0, #-768]	; 0x300
    2b34:	02d09f01 	sbcseq	r9, r0, #1, 30
    2b38:	03140000 	tsteq	r4, #0
    2b3c:	00040000 	andeq	r0, r4, r0
    2b40:	9f5101f3 	svcls	0x005101f3
	...
    2b4c:	00000324 	andeq	r0, r0, r4, lsr #6
    2b50:	0000032c 	andeq	r0, r0, ip, lsr #6
    2b54:	2c510001 	mrrccs	0, 0, r0, r1, cr1
    2b58:	48000003 	stmdami	r0, {r0, r1}
    2b5c:	04000003 	streq	r0, [r0], #-3
    2b60:	5101f300 	mrspl	pc, SP_irq	; <UNPREDICTABLE>
    2b64:	0000009f 	muleq	r0, pc, r0	; <UNPREDICTABLE>
    2b68:	00000000 	andeq	r0, r0, r0
    2b6c:	00032400 	andeq	r2, r3, r0, lsl #8
    2b70:	00033400 	andeq	r3, r3, r0, lsl #8
    2b74:	52000100 	andpl	r0, r0, #0, 2
    2b78:	00000334 	andeq	r0, r0, r4, lsr r3
    2b7c:	00000348 	andeq	r0, r0, r8, asr #6
    2b80:	01f30004 	mvnseq	r0, r4
    2b84:	00009f52 	andeq	r9, r0, r2, asr pc
    2b88:	00000000 	andeq	r0, r0, r0
    2b8c:	032c0000 	teqeq	ip, #0
    2b90:	03340000 	teqeq	r4, #0
    2b94:	00010000 	andeq	r0, r1, r0
    2b98:	00033452 	andeq	r3, r3, r2, asr r4
    2b9c:	00034800 	andeq	r4, r3, r0, lsl #16
    2ba0:	f3000400 	vshl.u8	d0, d0, d0
    2ba4:	009f5201 	addseq	r5, pc, r1, lsl #4
    2ba8:	00000000 	andeq	r0, r0, r0
    2bac:	2c000000 	stccs	0, cr0, [r0], {-0}
    2bb0:	38000003 	stmdacc	r0, {r0, r1}
    2bb4:	02000003 	andeq	r0, r0, #3
    2bb8:	009f3000 	addseq	r3, pc, r0
    2bbc:	00000000 	andeq	r0, r0, r0
    2bc0:	48000000 	stmdami	r0, {}	; <UNPREDICTABLE>
    2bc4:	54000003 	strpl	r0, [r0], #-3
    2bc8:	01000003 	tsteq	r0, r3
    2bcc:	03545000 	cmpeq	r4, #0
    2bd0:	03640000 	cmneq	r4, #0
    2bd4:	00040000 	andeq	r0, r4, r0
    2bd8:	9f5001f3 	svcls	0x005001f3
	...
    2be4:	00000348 	andeq	r0, r0, r8, asr #6
    2be8:	00000354 	andeq	r0, r0, r4, asr r3
    2bec:	54520001 	ldrbpl	r0, [r2], #-1
    2bf0:	64000003 	strvs	r0, [r0], #-3
    2bf4:	04000003 	streq	r0, [r0], #-3
    2bf8:	5201f300 	andpl	pc, r1, #0, 6
    2bfc:	0000009f 	muleq	r0, pc, r0	; <UNPREDICTABLE>
    2c00:	00000000 	andeq	r0, r0, r0
    2c04:	00034800 	andeq	r4, r3, r0, lsl #16
    2c08:	00035400 	andeq	r5, r3, r0, lsl #8
    2c0c:	30000200 	andcc	r0, r0, r0, lsl #4
    2c10:	0003549f 	muleq	r3, pc, r4	; <UNPREDICTABLE>
    2c14:	00035800 	andeq	r5, r3, r0, lsl #16
    2c18:	70000700 	andvc	r0, r0, r0, lsl #14
    2c1c:	5001f300 	andpl	pc, r1, r0, lsl #6
    2c20:	03589f1c 	cmpeq	r8, #28, 30	; 0x70
    2c24:	03640000 	cmneq	r4, #0
    2c28:	00090000 	andeq	r0, r9, r0
    2c2c:	01f30070 	mvnseq	r0, r0, ror r0
    2c30:	01231c50 	teqeq	r3, r0, asr ip
    2c34:	0000009f 	muleq	r0, pc, r0	; <UNPREDICTABLE>
    2c38:	00000000 	andeq	r0, r0, r0
    2c3c:	00040000 	andeq	r0, r4, r0
    2c40:	00044400 	andeq	r4, r4, r0, lsl #8
    2c44:	50000100 	andpl	r0, r0, r0, lsl #2
    2c48:	00000444 	andeq	r0, r0, r4, asr #8
    2c4c:	00000448 	andeq	r0, r0, r8, asr #8
    2c50:	01f30004 	mvnseq	r0, r4
    2c54:	04489f50 	strbeq	r9, [r8], #-3920	; 0xf50
    2c58:	044c0000 	strbeq	r0, [ip], #-0
    2c5c:	00010000 	andeq	r0, r1, r0
    2c60:	00044c50 	andeq	r4, r4, r0, asr ip
    2c64:	00045000 	andeq	r5, r4, r0
    2c68:	f3000400 	vshl.u8	d0, d0, d0
    2c6c:	509f5001 	addspl	r5, pc, r1
    2c70:	54000004 	strpl	r0, [r0], #-4
    2c74:	01000004 	tsteq	r0, r4
    2c78:	04545000 	ldrbeq	r5, [r4], #-0
    2c7c:	04580000 	ldrbeq	r0, [r8], #-0
    2c80:	00040000 	andeq	r0, r4, r0
    2c84:	9f5001f3 	svcls	0x005001f3
	...
    2c90:	00000400 	andeq	r0, r0, r0, lsl #8
    2c94:	00000428 	andeq	r0, r0, r8, lsr #8
    2c98:	28510001 	ldmdacs	r1, {r0}^
    2c9c:	50000004 	andpl	r0, r0, r4
    2ca0:	04000004 	streq	r0, [r0], #-4
    2ca4:	5101f300 	mrspl	pc, SP_irq	; <UNPREDICTABLE>
    2ca8:	0004509f 	muleq	r4, pc, r0	; <UNPREDICTABLE>
    2cac:	00045800 	andeq	r5, r4, r0, lsl #16
    2cb0:	51000100 	mrspl	r0, (UNDEF: 16)
	...
    2cbc:	00000400 	andeq	r0, r0, r0, lsl #8
    2cc0:	0000041c 	andeq	r0, r0, ip, lsl r4
    2cc4:	1c520001 	mrrcne	0, 0, r0, r2, cr1
    2cc8:	50000004 	andpl	r0, r0, r4
    2ccc:	04000004 	streq	r0, [r0], #-4
    2cd0:	5201f300 	andpl	pc, r1, #0, 6
    2cd4:	0004509f 	muleq	r4, pc, r0	; <UNPREDICTABLE>
    2cd8:	00045800 	andeq	r5, r4, r0, lsl #16
    2cdc:	52000100 	andpl	r0, r0, #0, 2
	...
    2ce8:	00000404 	andeq	r0, r0, r4, lsl #8
    2cec:	00000428 	andeq	r0, r0, r8, lsr #8
    2cf0:	9f300002 	svcls	0x00300002
    2cf4:	00000428 	andeq	r0, r0, r8, lsr #8
    2cf8:	0000042c 	andeq	r0, r0, ip, lsr #8
    2cfc:	00730006 	rsbseq	r0, r3, r6
    2d00:	9f1c0070 	svcls	0x001c0070
    2d04:	0000042c 	andeq	r0, r0, ip, lsr #8
    2d08:	00000438 	andeq	r0, r0, r8, lsr r4
    2d0c:	00700007 	rsbseq	r0, r0, r7
    2d10:	22007320 	andcs	r7, r0, #32, 6	; 0x80000000
    2d14:	0004389f 	muleq	r4, pc, r8	; <UNPREDICTABLE>
    2d18:	00044400 	andeq	r4, r4, r0, lsl #8
    2d1c:	73000600 	movwvc	r0, #1536	; 0x600
    2d20:	1c007000 	stcne	0, cr7, [r0], {-0}
    2d24:	0004449f 	muleq	r4, pc, r4	; <UNPREDICTABLE>
    2d28:	00044800 	andeq	r4, r4, r0, lsl #16
    2d2c:	73000700 	movwvc	r0, #1792	; 0x700
    2d30:	5001f300 	andpl	pc, r1, r0, lsl #6
    2d34:	04509f1c 	ldrbeq	r9, [r0], #-3868	; 0xf1c
    2d38:	04580000 	ldrbeq	r0, [r8], #-0
    2d3c:	00020000 	andeq	r0, r2, r0
    2d40:	00009f30 	andeq	r9, r0, r0, lsr pc
    2d44:	00000000 	andeq	r0, r0, r0
    2d48:	04040000 	streq	r0, [r4], #-0
    2d4c:	04280000 	strteq	r0, [r8], #-0
    2d50:	00010000 	andeq	r0, r1, r0
    2d54:	00042851 	andeq	r2, r4, r1, asr r8
    2d58:	00045000 	andeq	r5, r4, r0
    2d5c:	f3000400 	vshl.u8	d0, d0, d0
    2d60:	509f5101 	addspl	r5, pc, r1, lsl #2
    2d64:	58000004 	stmdapl	r0, {r2}
    2d68:	01000004 	tsteq	r0, r4
    2d6c:	00005100 	andeq	r5, r0, r0, lsl #2
    2d70:	00000000 	andeq	r0, r0, r0
    2d74:	04580000 	ldrbeq	r0, [r8], #-0
    2d78:	04740000 	ldrbteq	r0, [r4], #-0
    2d7c:	00010000 	andeq	r0, r1, r0
    2d80:	00047450 	andeq	r7, r4, r0, asr r4
    2d84:	00049c00 	andeq	r9, r4, r0, lsl #24
    2d88:	f3000400 	vshl.u8	d0, d0, d0
    2d8c:	009f5001 	addseq	r5, pc, r1
    2d90:	00000000 	andeq	r0, r0, r0
    2d94:	58000000 	stmdapl	r0, {}	; <UNPREDICTABLE>
    2d98:	74000004 	strvc	r0, [r0], #-4
    2d9c:	01000004 	tsteq	r0, r4
    2da0:	04745100 	ldrbteq	r5, [r4], #-256	; 0x100
    2da4:	049c0000 	ldreq	r0, [ip], #0
    2da8:	00040000 	andeq	r0, r4, r0
    2dac:	9f5101f3 	svcls	0x005101f3
	...
    2db8:	00000458 	andeq	r0, r0, r8, asr r4
    2dbc:	00000474 	andeq	r0, r0, r4, ror r4
    2dc0:	9f300002 	svcls	0x00300002
    2dc4:	00000474 	andeq	r0, r0, r4, ror r4
    2dc8:	00000480 	andeq	r0, r0, r0, lsl #9
    2dcc:	00700007 	rsbseq	r0, r0, r7
    2dd0:	1c5001f3 	ldfnee	f0, [r0], {243}	; 0xf3
    2dd4:	0004809f 	muleq	r4, pc, r0	; <UNPREDICTABLE>
    2dd8:	00048400 	andeq	r8, r4, r0, lsl #8
    2ddc:	70000900 	andvc	r0, r0, r0, lsl #18
    2de0:	5001f300 	andpl	pc, r1, r0, lsl #6
    2de4:	9f01231c 	svcls	0x0001231c
    2de8:	00000484 	andeq	r0, r0, r4, lsl #9
    2dec:	0000048c 	andeq	r0, r0, ip, lsl #9
    2df0:	00700007 	rsbseq	r0, r0, r7
    2df4:	1c5001f3 	ldfnee	f0, [r0], {243}	; 0xf3
    2df8:	0000009f 	muleq	r0, pc, r0	; <UNPREDICTABLE>
	...
    2e04:	00003400 	andeq	r3, r0, r0, lsl #8
    2e08:	50000100 	andpl	r0, r0, r0, lsl #2
    2e0c:	00000034 	andeq	r0, r0, r4, lsr r0
    2e10:	000001a8 	andeq	r0, r0, r8, lsr #3
    2e14:	007d0002 	rsbseq	r0, sp, r2
    2e18:	000001a8 	andeq	r0, r0, r8, lsr #3
    2e1c:	000001b4 			; <UNDEFINED> instruction: 0x000001b4
    2e20:	b4530001 	ldrblt	r0, [r3], #-1
    2e24:	bc000001 	stclt	0, cr0, [r0], {1}
    2e28:	02000001 	andeq	r0, r0, #1
    2e2c:	bc007d00 	stclt	13, cr7, [r0], {-0}
    2e30:	c0000001 	andgt	r0, r0, r1
    2e34:	03000001 	movweq	r0, #1
    2e38:	7f809100 	svcvc	0x00809100
    2e3c:	000001c0 	andeq	r0, r0, r0, asr #3
    2e40:	000001d0 	ldrdeq	r0, [r0], -r0	; <UNPREDICTABLE>
    2e44:	007d0002 	rsbseq	r0, sp, r2
    2e48:	000001d0 	ldrdeq	r0, [r0], -r0	; <UNPREDICTABLE>
    2e4c:	000001dc 	ldrdeq	r0, [r0], -ip
    2e50:	00530001 	subseq	r0, r3, r1
	...
    2e5c:	34000000 	strcc	r0, [r0], #-0
    2e60:	01000000 	mrseq	r0, (UNDEF: 0)
    2e64:	00345100 	eorseq	r5, r4, r0, lsl #2
    2e68:	00880000 	addeq	r0, r8, r0
    2e6c:	00030000 	andeq	r0, r3, r0
    2e70:	887f8491 	ldmdahi	pc!, {r0, r4, r7, sl, pc}^	; <UNPREDICTABLE>
    2e74:	68000000 	stmdavs	r0, {}	; <UNPREDICTABLE>
    2e78:	01000001 	tsteq	r0, r1
    2e7c:	01ac5600 			; <UNDEFINED> instruction: 0x01ac5600
    2e80:	01c00000 	biceq	r0, r0, r0
    2e84:	00030000 	andeq	r0, r3, r0
    2e88:	007f8491 			; <UNDEFINED> instruction: 0x007f8491
	...
    2e94:	1c000000 	stcne	0, cr0, [r0], {-0}
    2e98:	01000000 	mrseq	r0, (UNDEF: 0)
    2e9c:	001c5200 	andseq	r5, ip, r0, lsl #4
    2ea0:	01dc0000 	bicseq	r0, ip, r0
    2ea4:	00040000 	andeq	r0, r4, r0
    2ea8:	9f5201f3 	svcls	0x005201f3
	...
    2eb8:	00000040 	andeq	r0, r0, r0, asr #32
    2ebc:	40530001 	subsmi	r0, r3, r1
    2ec0:	dc000000 	stcle	0, cr0, [r0], {-0}
    2ec4:	01000001 	tsteq	r0, r1
    2ec8:	00005b00 	andeq	r5, r0, r0, lsl #22
	...
    2ed4:	00340000 	eorseq	r0, r4, r0
    2ed8:	00020000 	andeq	r0, r2, r0
    2edc:	00340091 	mlaseq	r4, r1, r0, r0
    2ee0:	00880000 	addeq	r0, r8, r0
    2ee4:	00010000 	andeq	r0, r1, r0
    2ee8:	0001a85a 	andeq	sl, r1, sl, asr r8
    2eec:	0001c000 	andeq	ip, r1, r0
    2ef0:	5a000100 	bpl	32f8 <_back_addr-0x160cd08>
    2ef4:	000001d0 	ldrdeq	r0, [r0], -r0	; <UNPREDICTABLE>
    2ef8:	000001dc 	ldrdeq	r0, [r0], -ip
    2efc:	005a0001 	subseq	r0, sl, r1
	...
    2f08:	28000000 	stmdacs	r0, {}	; <UNPREDICTABLE>
    2f0c:	02000000 	andeq	r0, r0, #0
    2f10:	28089100 	stmdacs	r8, {r8, ip, pc}
    2f14:	30000000 	andcc	r0, r0, r0
    2f18:	01000000 	mrseq	r0, (UNDEF: 0)
    2f1c:	00305700 	eorseq	r5, r0, r0, lsl #14
    2f20:	00340000 	eorseq	r0, r4, r0
    2f24:	00470000 	subeq	r0, r7, r0
    2f28:	00914008 	addseq	r4, r1, r8
    2f2c:	40007206 	andmi	r7, r0, r6, lsl #4
    2f30:	0c22244b 	cfstrseq	mvf2, [r2], #-300	; 0xfffffed4
    2f34:	80000040 	andhi	r0, r0, r0, asr #32
    2f38:	0001282b 	andeq	r2, r1, fp, lsr #16
    2f3c:	25f71316 	ldrbcs	r1, [r7, #790]!	; 0x316
    2f40:	25f70073 	ldrbcs	r0, [r7, #115]!	; 0x73
    2f44:	0800f71b 	stmdaeq	r0, {r0, r1, r3, r4, r8, r9, sl, ip, sp, lr, pc}
    2f48:	06009140 	streq	r9, [r0], -r0, asr #2
    2f4c:	4b400072 	blmi	100311c <_back_addr-0x60cee4>
    2f50:	400c2224 	andmi	r2, ip, r4, lsr #4
    2f54:	2b800000 	blcs	fe002f5c <__bss_end__+0xfc9e030c>
    2f58:	16000128 	strne	r0, [r0], -r8, lsr #2
    2f5c:	40007213 	andmi	r7, r0, r3, lsl r2
    2f60:	0c22244b 	cfstrseq	mvf2, [r2], #-300	; 0xfffffed4
    2f64:	80000040 	andhi	r0, r0, r0, asr #32
    2f68:	0001282b 	andeq	r2, r1, fp, lsr #16
    2f6c:	349f1316 	ldrcc	r1, [pc], #790	; 2f74 <_back_addr-0x160d08c>
    2f70:	dc000000 	stcle	0, cr0, [r0], {-0}
    2f74:	01000001 	tsteq	r0, r1
    2f78:	00005700 	andeq	r5, r0, r0, lsl #14
    2f7c:	00000000 	andeq	r0, r0, r0
    2f80:	00580000 	subseq	r0, r8, r0
    2f84:	00880000 	addeq	r0, r8, r0
    2f88:	00020000 	andeq	r0, r2, r0
    2f8c:	00889f30 	addeq	r9, r8, r0, lsr pc
    2f90:	008c0000 	addeq	r0, ip, r0
    2f94:	00010000 	andeq	r0, r1, r0
    2f98:	00008c55 	andeq	r8, r0, r5, asr ip
    2f9c:	00009800 	andeq	r9, r0, r0, lsl #16
    2fa0:	75000300 	strvc	r0, [r0, #-768]	; 0x300
    2fa4:	00989f7f 	addseq	r9, r8, pc, ror pc
    2fa8:	00ec0000 	rsceq	r0, ip, r0
    2fac:	00010000 	andeq	r0, r1, r0
    2fb0:	0000ec55 	andeq	lr, r0, r5, asr ip
    2fb4:	0000f800 	andeq	pc, r0, r0, lsl #16
    2fb8:	75000300 	strvc	r0, [r0, #-768]	; 0x300
    2fbc:	00f89f7f 	rscseq	r9, r8, pc, ror pc
    2fc0:	01180000 	tsteq	r8, r0
    2fc4:	00010000 	andeq	r0, r1, r0
    2fc8:	00011855 	andeq	r1, r1, r5, asr r8
    2fcc:	00013800 	andeq	r3, r1, r0, lsl #16
    2fd0:	30000200 	andcc	r0, r0, r0, lsl #4
    2fd4:	0001389f 	muleq	r1, pc, r8	; <UNPREDICTABLE>
    2fd8:	00016800 	andeq	r6, r1, r0, lsl #16
    2fdc:	72000800 	andvc	r0, r0, #0, 16
    2fe0:	1c7c9100 	ldfnep	f1, [ip], #-0
    2fe4:	009f7123 	addseq	r7, pc, r3, lsr #2
    2fe8:	00000000 	andeq	r0, r0, r0
    2fec:	88000000 	stmdahi	r0, {}	; <UNPREDICTABLE>
    2ff0:	8f000000 	svchi	0x00000000
    2ff4:	01000000 	mrseq	r0, (UNDEF: 0)
    2ff8:	00cc5200 	sbceq	r5, ip, r0, lsl #4
    2ffc:	00ef0000 	rsceq	r0, pc, r0
    3000:	00010000 	andeq	r0, r1, r0
    3004:	00000052 	andeq	r0, r0, r2, asr r0
    3008:	00000000 	andeq	r0, r0, r0
    300c:	00020400 	andeq	r0, r2, r0, lsl #8
    3010:	00020c00 	andeq	r0, r2, r0, lsl #24
    3014:	50000100 	andpl	r0, r0, r0, lsl #2
    3018:	0000020c 	andeq	r0, r0, ip, lsl #4
    301c:	00000217 	andeq	r0, r0, r7, lsl r2
    3020:	4c510001 	mrrcmi	0, 0, r0, r1, cr1
    3024:	54000002 	strpl	r0, [r0], #-2
    3028:	01000002 	tsteq	r0, r2
    302c:	02545000 	subseq	r5, r4, #0
    3030:	025f0000 	subseq	r0, pc, #0
    3034:	00010000 	andeq	r0, r1, r0
    3038:	00000051 	andeq	r0, r0, r1, asr r0
    303c:	00000000 	andeq	r0, r0, r0
    3040:	00021800 	andeq	r1, r2, r0, lsl #16
    3044:	00021c00 	andeq	r1, r2, r0, lsl #24
    3048:	74000900 	strvc	r0, [r0], #-2304	; 0x900
    304c:	2ae30300 	bcs	ff8c3c54 <__bss_end__+0xfe2a1004>
    3050:	9f1c0162 	svcls	0x001c0162
    3054:	0000021c 	andeq	r0, r0, ip, lsl r2
    3058:	0000022c 	andeq	r0, r0, ip, lsr #4
    305c:	00740009 	rsbseq	r0, r4, r9
    3060:	622ae403 	eorvs	lr, sl, #50331648	; 0x3000000
    3064:	2c9f1c01 	ldccs	12, cr1, [pc], {1}
    3068:	48000002 	stmdami	r0, {r1}
    306c:	09000002 	stmdbeq	r0, {r1}
    3070:	03007400 	movweq	r7, #1024	; 0x400
    3074:	01622ae3 	cmneq	r2, r3, ror #21
    3078:	02609f1c 	rsbeq	r9, r0, #28, 30	; 0x70
    307c:	02640000 	rsbeq	r0, r4, #0
    3080:	00090000 	andeq	r0, r9, r0
    3084:	d3030075 	movwle	r0, #12405	; 0x3075
    3088:	1c01622a 	sfmne	f6, 4, [r1], {42}	; 0x2a
    308c:	0002649f 	muleq	r2, pc, r4	; <UNPREDICTABLE>
    3090:	00027400 	andeq	r7, r2, r0, lsl #8
    3094:	75000900 	strvc	r0, [r0, #-2304]	; 0x900
    3098:	2ad40300 	bcs	ff503ca0 <__bss_end__+0xfdee1050>
    309c:	9f1c0162 	svcls	0x001c0162
    30a0:	00000274 	andeq	r0, r0, r4, ror r2
    30a4:	0000028c 	andeq	r0, r0, ip, lsl #5
    30a8:	00750009 	rsbseq	r0, r5, r9
    30ac:	622ad303 	eorvs	sp, sl, #201326592	; 0xc000000
    30b0:	009f1c01 	addseq	r1, pc, r1, lsl #24
    30b4:	00000000 	andeq	r0, r0, r0
    30b8:	8c000000 	stchi	0, cr0, [r0], {-0}
    30bc:	94000002 	strls	r0, [r0], #-2
    30c0:	01000002 	tsteq	r0, r2
    30c4:	02945000 	addseq	r5, r4, #0
    30c8:	02bc0000 	adcseq	r0, ip, #0
    30cc:	00040000 	andeq	r0, r4, r0
    30d0:	9f5001f3 	svcls	0x005001f3
	...
    30dc:	0000028c 	andeq	r0, r0, ip, lsl #5
    30e0:	00000294 	muleq	r0, r4, r2
    30e4:	9f300002 	svcls	0x00300002
    30e8:	00000294 	muleq	r0, r4, r2
    30ec:	0000029c 	muleq	r0, ip, r2
    30f0:	9c500001 	mrrcls	0, 0, r0, r0, cr1	; <UNPREDICTABLE>
    30f4:	bc000002 	stclt	0, cr0, [r0], {2}
    30f8:	06000002 	streq	r0, [r0], -r2
    30fc:	5001f300 	andpl	pc, r1, r0, lsl #6
    3100:	009f2533 	addseq	r2, pc, r3, lsr r5	; <UNPREDICTABLE>
    3104:	00000000 	andeq	r0, r0, r0
    3108:	8c000000 	stchi	0, cr0, [r0], {-0}
    310c:	90000002 	andls	r0, r0, r2
    3110:	05000002 	streq	r0, [r0, #-2]
    3114:	37007000 	strcc	r7, [r0, -r0]
    3118:	02909f1a 	addseq	r9, r0, #26, 30	; 0x68
    311c:	02bc0000 	adcseq	r0, ip, #0
    3120:	00010000 	andeq	r0, r1, r0
    3124:	00000052 	andeq	r0, r0, r2, asr r0
    3128:	00000000 	andeq	r0, r0, r0
    312c:	00028c00 	andeq	r8, r2, r0, lsl #24
    3130:	00029400 	andeq	r9, r2, r0, lsl #8
    3134:	30000200 	andcc	r0, r0, r0, lsl #4
    3138:	0002949f 	muleq	r2, pc, r4	; <UNPREDICTABLE>
    313c:	00029800 	andeq	r9, r2, r0, lsl #16
    3140:	70000600 	andvc	r0, r0, r0, lsl #12
    3144:	1afc0900 	bne	fff0554c <__bss_end__+0xfe8e28fc>
    3148:	0002989f 	muleq	r2, pc, r8	; <UNPREDICTABLE>
    314c:	0002a000 	andeq	sl, r2, r0
    3150:	53000100 	movwpl	r0, #256	; 0x100
    3154:	000002a0 	andeq	r0, r0, r0, lsr #5
    3158:	000002a4 	andeq	r0, r0, r4, lsr #5
    315c:	80730007 	rsbshi	r0, r3, r7
    3160:	06c08080 	strbeq	r8, [r0], r0, lsl #1
    3164:	0002a49f 	muleq	r2, pc, r4	; <UNPREDICTABLE>
    3168:	0002ac00 	andeq	sl, r2, r0, lsl #24
    316c:	73000700 	movwvc	r0, #1792	; 0x700
    3170:	bffaa080 	svclt	0x00faa080
    3174:	02ac9f06 	adceq	r9, ip, #6, 30
    3178:	02bc0000 	adcseq	r0, ip, #0
    317c:	00090000 	andeq	r0, r9, r0
    3180:	335001f3 	cmpcc	r0, #-1073741764	; 0xc000003c
    3184:	1afc0925 	bne	fff05620 <__bss_end__+0xfe8e29d0>
    3188:	0000009f 	muleq	r0, pc, r0	; <UNPREDICTABLE>
    318c:	00000000 	andeq	r0, r0, r0
    3190:	00028c00 	andeq	r8, r2, r0, lsl #24
    3194:	00029400 	andeq	r9, r2, r0, lsl #8
    3198:	30000200 	andcc	r0, r0, r0, lsl #4
    319c:	0002949f 	muleq	r2, pc, r4	; <UNPREDICTABLE>
    31a0:	00029c00 	andeq	r9, r2, r0, lsl #24
    31a4:	70000500 	andvc	r0, r0, r0, lsl #10
    31a8:	9f1a3300 	svcls	0x001a3300
    31ac:	0000029c 	muleq	r0, ip, r2
    31b0:	000002a8 	andeq	r0, r0, r8, lsr #5
    31b4:	a8500001 	ldmdage	r0, {r0}^
    31b8:	bc000002 	stclt	0, cr0, [r0], {2}
    31bc:	08000002 	stmdaeq	r0, {r1}
    31c0:	5001f300 	andpl	pc, r1, r0, lsl #6
    31c4:	1a332533 	bne	ccc698 <_back_addr-0x943968>
    31c8:	0000009f 	muleq	r0, pc, r0	; <UNPREDICTABLE>
    31cc:	00000000 	andeq	r0, r0, r0
    31d0:	00028c00 	andeq	r8, r2, r0, lsl #24
    31d4:	0002ac00 	andeq	sl, r2, r0, lsl #24
    31d8:	30000200 	andcc	r0, r0, r0, lsl #4
    31dc:	0000009f 	muleq	r0, pc, r0	; <UNPREDICTABLE>
    31e0:	00000000 	andeq	r0, r0, r0
    31e4:	00029400 	andeq	r9, r2, r0, lsl #8
    31e8:	00029c00 	andeq	r9, r2, r0, lsl #24
    31ec:	70000c00 	andvc	r0, r0, r0, lsl #24
    31f0:	1afc0900 	bne	fff055f8 <__bss_end__+0xfe8e29a8>
    31f4:	fe90000c 	cdp2	0, 9, cr0, cr0, cr12, {0}
    31f8:	9c9f1c67 	ldcls	12, cr1, [pc], {103}	; 0x67
    31fc:	bc000002 	stclt	0, cr0, [r0], {2}
    3200:	0f000002 	svceq	0x00000002
    3204:	5001f300 	andpl	pc, r1, r0, lsl #6
    3208:	fc092533 	stc2	5, cr2, [r9], {51}	; 0x33
    320c:	90000c1a 	andls	r0, r0, sl, lsl ip
    3210:	9f1c67fe 	svcls	0x001c67fe
	...
    321c:	000002bc 			; <UNDEFINED> instruction: 0x000002bc
    3220:	000002d8 	ldrdeq	r0, [r0], -r8
    3224:	9f300002 	svcls	0x00300002
    3228:	000002d8 	ldrdeq	r0, [r0], -r8
    322c:	000002e0 	andeq	r0, r0, r0, ror #5
    3230:	00500001 	subseq	r0, r0, r1
    3234:	00000000 	andeq	r0, r0, r0
    3238:	f8000000 			; <UNDEFINED> instruction: 0xf8000000
    323c:	f8000002 			; <UNDEFINED> instruction: 0xf8000002
    3240:	01000002 	tsteq	r0, r2
    3244:	02f85000 	rscseq	r5, r8, #0
    3248:	02fc0000 	rscseq	r0, ip, #0
    324c:	00040000 	andeq	r0, r4, r0
    3250:	9f5001f3 	svcls	0x005001f3
	...
    325c:	000002f8 	strdeq	r0, [r0], -r8
    3260:	000002f8 	strdeq	r0, [r0], -r8
    3264:	00700009 	rsbseq	r0, r0, r9
    3268:	ff0a2633 			; <UNDEFINED> instruction: 0xff0a2633
    326c:	f89f1a03 			; <UNDEFINED> instruction: 0xf89f1a03
    3270:	fc000002 	stc2	0, cr0, [r0], {2}
    3274:	0a000002 	beq	3284 <_back_addr-0x160cd7c>
    3278:	5001f300 	andpl	pc, r1, r0, lsl #6
    327c:	ff0a2633 			; <UNDEFINED> instruction: 0xff0a2633
    3280:	009f1a03 	addseq	r1, pc, r3, lsl #20
    3284:	00000000 	andeq	r0, r0, r0
    3288:	f8000000 			; <UNDEFINED> instruction: 0xf8000000
    328c:	f8000002 			; <UNDEFINED> instruction: 0xf8000002
    3290:	05000002 	streq	r0, [r0, #-2]
    3294:	37007000 	strcc	r7, [r0, -r0]
    3298:	02f89f1a 	rscseq	r9, r8, #26, 30	; 0x68
    329c:	02fc0000 	rscseq	r0, ip, #0
    32a0:	00060000 	andeq	r0, r6, r0
    32a4:	375001f3 	smmlsrcc	r0, r3, r1, r0
    32a8:	00009f1a 	andeq	r9, r0, sl, lsl pc
    32ac:	00000000 	andeq	r0, r0, r0
    32b0:	033c0000 	teqeq	ip, #0
    32b4:	034c0000 	movteq	r0, #49152	; 0xc000
    32b8:	00010000 	andeq	r0, r1, r0
    32bc:	00034c50 	andeq	r4, r3, r0, asr ip
    32c0:	00038000 	andeq	r8, r3, r0
    32c4:	54000100 	strpl	r0, [r0], #-256	; 0x100
    32c8:	00000380 	andeq	r0, r0, r0, lsl #7
    32cc:	000003e8 	andeq	r0, r0, r8, ror #7
    32d0:	01f30004 	mvnseq	r0, r4
    32d4:	00009f50 	andeq	r9, r0, r0, asr pc
    32d8:	00000000 	andeq	r0, r0, r0
    32dc:	033c0000 	teqeq	ip, #0
    32e0:	03570000 	cmpeq	r7, #0
    32e4:	00010000 	andeq	r0, r1, r0
    32e8:	00035751 	andeq	r5, r3, r1, asr r7
    32ec:	00037800 	andeq	r7, r3, r0, lsl #16
    32f0:	57000100 	strpl	r0, [r0, -r0, lsl #2]
    32f4:	00000378 	andeq	r0, r0, r8, ror r3
    32f8:	000003e8 	andeq	r0, r0, r8, ror #7
    32fc:	01f30004 	mvnseq	r0, r4
    3300:	00009f51 	andeq	r9, r0, r1, asr pc
    3304:	00000000 	andeq	r0, r0, r0
    3308:	033c0000 	teqeq	ip, #0
    330c:	03570000 	cmpeq	r7, #0
    3310:	00010000 	andeq	r0, r1, r0
    3314:	00035752 	andeq	r5, r3, r2, asr r7
    3318:	0003e400 	andeq	lr, r3, r0, lsl #8
    331c:	58000100 	stmdapl	r0, {r8}
    3320:	000003e4 	andeq	r0, r0, r4, ror #7
    3324:	000003e8 	andeq	r0, r0, r8, ror #7
    3328:	01f30004 	mvnseq	r0, r4
    332c:	00009f52 	andeq	r9, r0, r2, asr pc
    3330:	00000000 	andeq	r0, r0, r0
    3334:	03740000 	cmneq	r4, #0
    3338:	03880000 	orreq	r0, r8, #0
    333c:	00020000 	andeq	r0, r2, r0
    3340:	03889f30 	orreq	r9, r8, #48, 30	; 0xc0
    3344:	03980000 	orrseq	r0, r8, #0
    3348:	00010000 	andeq	r0, r1, r0
    334c:	00039854 	andeq	r9, r3, r4, asr r8
    3350:	0003b000 	andeq	fp, r3, r0
    3354:	74000300 	strvc	r0, [r0], #-768	; 0x300
    3358:	03b09f7f 	movseq	r9, #508	; 0x1fc
    335c:	03d40000 	bicseq	r0, r4, #0
    3360:	00010000 	andeq	r0, r1, r0
    3364:	00000054 	andeq	r0, r0, r4, asr r0
    3368:	00000000 	andeq	r0, r0, r0
    336c:	00037400 	andeq	r7, r3, r0, lsl #8
    3370:	00038800 	andeq	r8, r3, r0, lsl #16
    3374:	30000200 	andcc	r0, r0, r0, lsl #4
    3378:	0003889f 	muleq	r3, pc, r8	; <UNPREDICTABLE>
    337c:	0003a400 	andeq	sl, r3, r0, lsl #8
    3380:	55000100 	strpl	r0, [r0, #-256]	; 0x100
    3384:	000003b0 			; <UNDEFINED> instruction: 0x000003b0
    3388:	000003d4 	ldrdeq	r0, [r0], -r4
    338c:	00550001 	subseq	r0, r5, r1
    3390:	00000000 	andeq	r0, r0, r0
    3394:	3c000000 	stccc	0, cr0, [r0], {-0}
    3398:	88000003 	stmdahi	r0, {r0, r1}
    339c:	02000003 	andeq	r0, r0, #3
    33a0:	889f3000 	ldmhi	pc, {ip, sp}	; <UNPREDICTABLE>
    33a4:	a4000003 	strge	r0, [r0], #-3
    33a8:	10000003 	andne	r0, r0, r3
    33ac:	75007800 	strvc	r7, [r0, #-2048]	; 0x800
    33b0:	01942200 	orrseq	r2, r4, r0, lsl #4
    33b4:	761aff08 	ldrvc	pc, [sl], -r8, lsl #30
    33b8:	1a312600 	bne	c4cbc0 <_back_addr-0x9c3440>
    33bc:	0000009f 	muleq	r0, pc, r0	; <UNPREDICTABLE>
    33c0:	00000000 	andeq	r0, r0, r0
    33c4:	00033c00 	andeq	r3, r3, r0, lsl #24
    33c8:	00038800 	andeq	r8, r3, r0, lsl #16
    33cc:	30000200 	andcc	r0, r0, r0, lsl #4
    33d0:	0003889f 	muleq	r3, pc, r8	; <UNPREDICTABLE>
    33d4:	0003b800 	andeq	fp, r3, r0, lsl #16
    33d8:	56000100 	strpl	r0, [r0], -r0, lsl #2
	...
    33e4:	0000041c 	andeq	r0, r0, ip, lsl r4
    33e8:	00000447 	andeq	r0, r0, r7, asr #8
    33ec:	47500001 	ldrbmi	r0, [r0, -r1]
    33f0:	50000004 	andpl	r0, r0, r4
    33f4:	04000004 	streq	r0, [r0], #-4
    33f8:	5001f300 	andpl	pc, r1, r0, lsl #6
    33fc:	0004509f 	muleq	r4, pc, r0	; <UNPREDICTABLE>
    3400:	00045800 	andeq	r5, r4, r0, lsl #16
    3404:	50000100 	andpl	r0, r0, r0, lsl #2
    3408:	00000458 	andeq	r0, r0, r8, asr r4
    340c:	0000045f 	andeq	r0, r0, pc, asr r4
    3410:	807e0004 	rsbshi	r0, lr, r4
    3414:	045f9f20 	ldrbeq	r9, [pc], #-3872	; 341c <_back_addr-0x160cbe4>
    3418:	04680000 	strbteq	r0, [r8], #-0
    341c:	00040000 	andeq	r0, r4, r0
    3420:	9f5001f3 	svcls	0x005001f3
    3424:	00000468 	andeq	r0, r0, r8, ror #8
    3428:	00000470 	andeq	r0, r0, r0, ror r4
    342c:	70500001 	subsvc	r0, r0, r1
    3430:	77000004 	strvc	r0, [r0, -r4]
    3434:	01000004 	tsteq	r0, r4
    3438:	04775100 	ldrbteq	r5, [r7], #-256	; 0x100
    343c:	04800000 	streq	r0, [r0], #0
    3440:	00040000 	andeq	r0, r4, r0
    3444:	9f5001f3 	svcls	0x005001f3
	...
    3450:	0000041c 	andeq	r0, r0, ip, lsl r4
    3454:	00000447 	andeq	r0, r0, r7, asr #8
    3458:	47510001 	ldrbmi	r0, [r1, -r1]
    345c:	50000004 	andpl	r0, r0, r4
    3460:	01000004 	tsteq	r0, r4
    3464:	04505400 	ldrbeq	r5, [r0], #-1024	; 0x400
    3468:	04540000 	ldrbeq	r0, [r4], #-0
    346c:	00010000 	andeq	r0, r1, r0
    3470:	00045451 	andeq	r5, r4, r1, asr r4
    3474:	00046800 	andeq	r6, r4, r0, lsl #16
    3478:	54000100 	strpl	r0, [r0], #-256	; 0x100
    347c:	00000468 	andeq	r0, r0, r8, ror #8
    3480:	0000046c 	andeq	r0, r0, ip, ror #8
    3484:	6c510001 	mrrcvs	0, 0, r0, r1, cr1
    3488:	80000004 	andhi	r0, r0, r4
    348c:	04000004 	streq	r0, [r0], #-4
    3490:	5101f300 	mrspl	pc, SP_irq	; <UNPREDICTABLE>
    3494:	0000009f 	muleq	r0, pc, r0	; <UNPREDICTABLE>
    3498:	00000000 	andeq	r0, r0, r0
    349c:	00041c00 	andeq	r1, r4, r0, lsl #24
    34a0:	00044700 	andeq	r4, r4, r0, lsl #14
    34a4:	52000100 	andpl	r0, r0, #0, 2
    34a8:	00000447 	andeq	r0, r0, r7, asr #8
    34ac:	00000450 	andeq	r0, r0, r0, asr r4
    34b0:	01f30004 	mvnseq	r0, r4
    34b4:	04509f52 	ldrbeq	r9, [r0], #-3922	; 0xf52
    34b8:	045f0000 	ldrbeq	r0, [pc], #-0	; 34c0 <_back_addr-0x160cb40>
    34bc:	00010000 	andeq	r0, r1, r0
    34c0:	00045f52 	andeq	r5, r4, r2, asr pc
    34c4:	00046800 	andeq	r6, r4, r0, lsl #16
    34c8:	f3000400 	vshl.u8	d0, d0, d0
    34cc:	689f5201 	ldmvs	pc, {r0, r9, ip, lr}	; <UNPREDICTABLE>
    34d0:	77000004 	strvc	r0, [r0, -r4]
    34d4:	01000004 	tsteq	r0, r4
    34d8:	04775200 	ldrbteq	r5, [r7], #-512	; 0x200
    34dc:	04800000 	streq	r0, [r0], #0
    34e0:	00040000 	andeq	r0, r4, r0
    34e4:	9f5201f3 	svcls	0x005201f3
	...
    34f0:	00000480 	andeq	r0, r0, r0, lsl #9
    34f4:	000004a4 	andeq	r0, r0, r4, lsr #9
    34f8:	a4500001 	ldrbge	r0, [r0], #-1
    34fc:	b0000004 	andlt	r0, r0, r4
    3500:	04000004 	streq	r0, [r0], #-4
    3504:	5001f300 	andpl	pc, r1, r0, lsl #6
    3508:	0004b09f 	muleq	r4, pc, r0	; <UNPREDICTABLE>
    350c:	0004bc00 	andeq	fp, r4, r0, lsl #24
    3510:	50000100 	andpl	r0, r0, r0, lsl #2
    3514:	000004bc 			; <UNDEFINED> instruction: 0x000004bc
    3518:	000004c8 	andeq	r0, r0, r8, asr #9
    351c:	01f30004 	mvnseq	r0, r4
    3520:	04c89f50 	strbeq	r9, [r8], #3920	; 0xf50
    3524:	04d40000 	ldrbeq	r0, [r4], #0
    3528:	00010000 	andeq	r0, r1, r0
    352c:	0004d450 	andeq	sp, r4, r0, asr r4
    3530:	0004ec00 	andeq	lr, r4, r0, lsl #24
    3534:	f3000400 	vshl.u8	d0, d0, d0
    3538:	009f5001 	addseq	r5, pc, r1
    353c:	00000000 	andeq	r0, r0, r0
    3540:	fc000000 	stc2	0, cr0, [r0], {-0}
    3544:	14000005 	strne	r0, [r0], #-5
    3548:	01000006 	tsteq	r0, r6
    354c:	06145000 	ldreq	r5, [r4], -r0
    3550:	06340000 	ldrteq	r0, [r4], -r0
    3554:	00040000 	andeq	r0, r4, r0
    3558:	9f5001f3 	svcls	0x005001f3
    355c:	00000634 	andeq	r0, r0, r4, lsr r6
    3560:	00000638 	andeq	r0, r0, r8, lsr r6
    3564:	38500001 	ldmdacc	r0, {r0}^
    3568:	78000006 	stmdavc	r0, {r1, r2}
    356c:	04000006 	streq	r0, [r0], #-6
    3570:	5001f300 	andpl	pc, r1, r0, lsl #6
    3574:	0000009f 	muleq	r0, pc, r0	; <UNPREDICTABLE>
    3578:	00000000 	andeq	r0, r0, r0
    357c:	00061000 	andeq	r1, r6, r0
    3580:	00063400 	andeq	r3, r6, r0, lsl #8
    3584:	54000100 	strpl	r0, [r0], #-256	; 0x100
    3588:	00000648 	andeq	r0, r0, r8, asr #12
    358c:	00000678 	andeq	r0, r0, r8, ror r6
    3590:	00540001 	subseq	r0, r4, r1
    3594:	00000000 	andeq	r0, r0, r0
    3598:	78000000 	stmdavc	r0, {}	; <UNPREDICTABLE>
    359c:	90000006 	andls	r0, r0, r6
    35a0:	01000006 	tsteq	r0, r6
    35a4:	06905000 	ldreq	r5, [r0], r0
    35a8:	06b00000 	ldrteq	r0, [r0], r0
    35ac:	00040000 	andeq	r0, r4, r0
    35b0:	9f5001f3 	svcls	0x005001f3
    35b4:	000006b0 			; <UNDEFINED> instruction: 0x000006b0
    35b8:	000006b4 			; <UNDEFINED> instruction: 0x000006b4
    35bc:	b4500001 	ldrblt	r0, [r0], #-1
    35c0:	f4000006 	vst4.8	{d0-d3}, [r0], r6
    35c4:	04000006 	streq	r0, [r0], #-6
    35c8:	5001f300 	andpl	pc, r1, r0, lsl #6
    35cc:	0000009f 	muleq	r0, pc, r0	; <UNPREDICTABLE>
    35d0:	00000000 	andeq	r0, r0, r0
    35d4:	00068c00 	andeq	r8, r6, r0, lsl #24
    35d8:	0006b000 	andeq	fp, r6, r0
    35dc:	54000100 	strpl	r0, [r0], #-256	; 0x100
    35e0:	000006c4 	andeq	r0, r0, r4, asr #13
    35e4:	000006f4 	strdeq	r0, [r0], -r4
    35e8:	00540001 	subseq	r0, r4, r1
    35ec:	00000000 	andeq	r0, r0, r0
    35f0:	90000000 	andls	r0, r0, r0
    35f4:	98000007 	stmdals	r0, {r0, r1, r2}
    35f8:	01000007 	tsteq	r0, r7
    35fc:	07985000 	ldreq	r5, [r8, r0]
    3600:	08100000 	ldmdaeq	r0, {}	; <UNPREDICTABLE>
    3604:	00040000 	andeq	r0, r4, r0
    3608:	9f5001f3 	svcls	0x005001f3
	...
    3614:	00000790 	muleq	r0, r0, r7
    3618:	000007b8 			; <UNDEFINED> instruction: 0x000007b8
    361c:	b8510001 	ldmdalt	r1, {r0}^
    3620:	08000007 	stmdaeq	r0, {r0, r1, r2}
    3624:	04000008 	streq	r0, [r0], #-8
    3628:	5101f300 	mrspl	pc, SP_irq	; <UNPREDICTABLE>
    362c:	0008089f 	muleq	r8, pc, r8	; <UNPREDICTABLE>
    3630:	00081000 	andeq	r1, r8, r0
    3634:	51000100 	mrspl	r0, (UNDEF: 16)
	...
    3640:	00000790 	muleq	r0, r0, r7
    3644:	000007b0 			; <UNDEFINED> instruction: 0x000007b0
    3648:	b0520001 	subslt	r0, r2, r1
    364c:	08000007 	stmdaeq	r0, {r0, r1, r2}
    3650:	04000008 	streq	r0, [r0], #-8
    3654:	5201f300 	andpl	pc, r1, #0, 6
    3658:	0008089f 	muleq	r8, pc, r8	; <UNPREDICTABLE>
    365c:	00081000 	andeq	r1, r8, r0
    3660:	52000100 	andpl	r0, r0, #0, 2
	...
    366c:	00000790 	muleq	r0, r0, r7
    3670:	000007b8 			; <UNDEFINED> instruction: 0x000007b8
    3674:	9f300002 	svcls	0x00300002
    3678:	00000808 	andeq	r0, r0, r8, lsl #16
    367c:	00000810 	andeq	r0, r0, r0, lsl r8
    3680:	9f300002 	svcls	0x00300002
	...
    368c:	00000798 	muleq	r0, r8, r7
    3690:	000007a0 	andeq	r0, r0, r0, lsr #15
    3694:	80700007 	rsbshi	r0, r0, r7
    3698:	79c085e0 	stmibvc	r0, {r5, r6, r7, r8, sl, pc}^
    369c:	0007a09f 	muleq	r7, pc, r0	; <UNPREDICTABLE>
    36a0:	0007b400 	andeq	fp, r7, r0, lsl #8
    36a4:	70000700 	andvc	r0, r0, r0, lsl #14
    36a8:	8085e080 	addhi	lr, r5, r0, lsl #1
    36ac:	07b49f7a 			; <UNDEFINED> instruction: 0x07b49f7a
    36b0:	07b80000 	ldreq	r0, [r8, r0]!
    36b4:	00070000 	andeq	r0, r7, r0
    36b8:	80808070 	addhi	r8, r0, r0, ror r0
    36bc:	b89f7a80 	ldmlt	pc, {r7, r9, fp, ip, sp, lr}	; <UNPREDICTABLE>
    36c0:	08000007 	stmdaeq	r0, {r0, r1, r2}
    36c4:	0d000008 	stceq	0, cr0, [r0, #-32]	; 0xffffffe0
    36c8:	5001f300 	andpl	pc, r1, r0, lsl #6
    36cc:	0c1afc09 	ldceq	12, cr15, [sl], {9}
    36d0:	67fe9000 	ldrbvs	r9, [lr, r0]!
    36d4:	08089f1c 	stmdaeq	r8, {r2, r3, r4, r8, r9, sl, fp, ip, pc}
    36d8:	080c0000 	stmdaeq	ip, {}	; <UNPREDICTABLE>
    36dc:	00070000 	andeq	r0, r7, r0
    36e0:	85e08070 	strbhi	r8, [r0, #112]!	; 0x70
    36e4:	0c9f79c0 	ldceq	9, cr7, [pc], {192}	; 0xc0
    36e8:	10000008 	andne	r0, r0, r8
    36ec:	0d000008 	stceq	0, cr0, [r0, #-32]	; 0xffffffe0
    36f0:	5001f300 	andpl	pc, r1, r0, lsl #6
    36f4:	0c1afc09 	ldceq	12, cr15, [sl], {9}
    36f8:	67fe9000 	ldrbvs	r9, [lr, r0]!
    36fc:	00009f1c 	andeq	r9, r0, ip, lsl pc
    3700:	00000000 	andeq	r0, r0, r0
    3704:	07b80000 	ldreq	r0, [r8, r0]!
    3708:	07c00000 	strbeq	r0, [r0, r0]
    370c:	00070000 	andeq	r0, r7, r0
    3710:	80808070 	addhi	r8, r0, r0, ror r0
    3714:	c09f7a80 	addsgt	r7, pc, r0, lsl #21
    3718:	cc000007 	stcgt	0, cr0, [r0], {7}
    371c:	07000007 	streq	r0, [r0, -r7]
    3720:	fffc7000 			; <UNDEFINED> instruction: 0xfffc7000
    3724:	9f79ffff 	svcls	0x0079ffff
    3728:	000007cc 	andeq	r0, r0, ip, asr #15
    372c:	000007e0 	andeq	r0, r0, r0, ror #15
    3730:	80700007 	rsbshi	r0, r0, r7
    3734:	7a808080 	bvc	fe02393c <__bss_end__+0xfca00cec>
    3738:	0007e09f 	muleq	r7, pc, r0	; <UNPREDICTABLE>
    373c:	00080000 	andeq	r0, r8, r0
    3740:	5e000100 	adfpls	f0, f0, f0
	...
    374c:	000007d8 	ldrdeq	r0, [r0], -r8
    3750:	000007e0 	andeq	r0, r0, r0, ror #15
    3754:	80700007 	rsbshi	r0, r0, r7
    3758:	7a808080 	bvc	fe023960 <__bss_end__+0xfca00d10>
    375c:	0007e09f 	muleq	r7, pc, r0	; <UNPREDICTABLE>
    3760:	00080000 	andeq	r0, r8, r0
    3764:	5e000100 	adfpls	f0, f0, f0
	...
    3770:	00000810 	andeq	r0, r0, r0, lsl r8
    3774:	00000818 	andeq	r0, r0, r8, lsl r8
    3778:	18500001 	ldmdane	r0, {r0}^
    377c:	64000008 	strvs	r0, [r0], #-8
    3780:	04000008 	streq	r0, [r0], #-8
    3784:	5001f300 	andpl	pc, r1, r0, lsl #6
    3788:	0000009f 	muleq	r0, pc, r0	; <UNPREDICTABLE>
    378c:	00000000 	andeq	r0, r0, r0
    3790:	00081000 	andeq	r1, r8, r0
    3794:	00082400 	andeq	r2, r8, r0, lsl #8
    3798:	51000100 	mrspl	r0, (UNDEF: 16)
    379c:	00000824 	andeq	r0, r0, r4, lsr #16
    37a0:	0000085c 	andeq	r0, r0, ip, asr r8
    37a4:	01f30004 	mvnseq	r0, r4
    37a8:	085c9f51 	ldmdaeq	ip, {r0, r4, r6, r8, r9, sl, fp, ip, pc}^
    37ac:	08640000 	stmdaeq	r4!, {}^	; <UNPREDICTABLE>
    37b0:	00010000 	andeq	r0, r1, r0
    37b4:	00000051 	andeq	r0, r0, r1, asr r0
    37b8:	00000000 	andeq	r0, r0, r0
    37bc:	00081000 	andeq	r1, r8, r0
    37c0:	00082400 	andeq	r2, r8, r0, lsl #8
    37c4:	30000200 	andcc	r0, r0, r0, lsl #4
    37c8:	0008249f 	muleq	r8, pc, r4	; <UNPREDICTABLE>
    37cc:	00085c00 	andeq	r5, r8, r0, lsl #24
    37d0:	71000700 	tstvc	r0, r0, lsl #14
    37d4:	5101f300 	mrspl	pc, SP_irq	; <UNPREDICTABLE>
    37d8:	085c9f1c 	ldmdaeq	ip, {r2, r3, r4, r8, r9, sl, fp, ip, pc}^
    37dc:	08640000 	stmdaeq	r4!, {}^	; <UNPREDICTABLE>
    37e0:	00020000 	andeq	r0, r2, r0
    37e4:	00009f30 	andeq	r9, r0, r0, lsr pc
    37e8:	00000000 	andeq	r0, r0, r0
    37ec:	08100000 	ldmdaeq	r0, {}	; <UNPREDICTABLE>
    37f0:	08240000 	stmdaeq	r4!, {}	; <UNPREDICTABLE>
    37f4:	00020000 	andeq	r0, r2, r0
    37f8:	085c9f30 	ldmdaeq	ip, {r4, r5, r8, r9, sl, fp, ip, pc}^
    37fc:	08640000 	stmdaeq	r4!, {}^	; <UNPREDICTABLE>
    3800:	00020000 	andeq	r0, r2, r0
    3804:	00009f30 	andeq	r9, r0, r0, lsr pc
    3808:	00000000 	andeq	r0, r0, r0
    380c:	08100000 	ldmdaeq	r0, {}	; <UNPREDICTABLE>
    3810:	08180000 	ldmdaeq	r8, {}	; <UNPREDICTABLE>
    3814:	00020000 	andeq	r0, r2, r0
    3818:	08189f30 	ldmdaeq	r8, {r4, r5, r8, r9, sl, fp, ip, pc}
    381c:	08240000 	stmdaeq	r4!, {}	; <UNPREDICTABLE>
    3820:	00010000 	andeq	r0, r1, r0
    3824:	00082450 	andeq	r2, r8, r0, asr r4
    3828:	00085c00 	andeq	r5, r8, r0, lsl #24
    382c:	f3000700 	vabd.u8	d0, d0, d0
    3830:	fc095001 	stc2	0, cr5, [r9], {1}
    3834:	085c9f1a 	ldmdaeq	ip, {r1, r3, r4, r8, r9, sl, fp, ip, pc}^
    3838:	08600000 	stmdaeq	r0!, {}^	; <UNPREDICTABLE>
    383c:	00010000 	andeq	r0, r1, r0
    3840:	00086050 	andeq	r6, r8, r0, asr r0
    3844:	00086400 	andeq	r6, r8, r0, lsl #8
    3848:	f3000700 	vabd.u8	d0, d0, d0
    384c:	fc095001 	stc2	0, cr5, [r9], {1}
    3850:	00009f1a 	andeq	r9, r0, sl, lsl pc
    3854:	00000000 	andeq	r0, r0, r0
    3858:	08640000 	stmdaeq	r4!, {}^	; <UNPREDICTABLE>
    385c:	08970000 	ldmeq	r7, {}	; <UNPREDICTABLE>
    3860:	00010000 	andeq	r0, r1, r0
    3864:	00089750 	andeq	r9, r8, r0, asr r7
    3868:	0008a000 	andeq	sl, r8, r0
    386c:	f3000400 	vshl.u8	d0, d0, d0
    3870:	a09f5001 	addsge	r5, pc, r1
    3874:	a8000008 	stmdage	r0, {r3}
    3878:	01000008 	tsteq	r0, r8
    387c:	08a85000 	stmiaeq	r8!, {ip, lr}
    3880:	08af0000 	stmiaeq	pc!, {}	; <UNPREDICTABLE>
    3884:	00040000 	andeq	r0, r4, r0
    3888:	9f20807e 	svcls	0x0020807e
    388c:	000008af 	andeq	r0, r0, pc, lsr #17
    3890:	000008b8 			; <UNDEFINED> instruction: 0x000008b8
    3894:	01f30004 	mvnseq	r0, r4
    3898:	08b89f50 	ldmeq	r8!, {r4, r6, r8, r9, sl, fp, ip, pc}
    389c:	08c00000 	stmiaeq	r0, {}^	; <UNPREDICTABLE>
    38a0:	00010000 	andeq	r0, r1, r0
    38a4:	0008c050 	andeq	ip, r8, r0, asr r0
    38a8:	0008c700 	andeq	ip, r8, r0, lsl #14
    38ac:	51000100 	mrspl	r0, (UNDEF: 16)
    38b0:	000008c7 	andeq	r0, r0, r7, asr #17
    38b4:	000008d0 	ldrdeq	r0, [r0], -r0	; <UNPREDICTABLE>
    38b8:	01f30004 	mvnseq	r0, r4
    38bc:	00009f50 	andeq	r9, r0, r0, asr pc
    38c0:	00000000 	andeq	r0, r0, r0
    38c4:	08640000 	stmdaeq	r4!, {}^	; <UNPREDICTABLE>
    38c8:	08940000 	ldmeq	r4, {}	; <UNPREDICTABLE>
    38cc:	00010000 	andeq	r0, r1, r0
    38d0:	00089451 	andeq	r9, r8, r1, asr r4
    38d4:	00089700 	andeq	r9, r8, r0, lsl #14
    38d8:	52000100 	andpl	r0, r0, #0, 2
    38dc:	00000897 	muleq	r0, r7, r8
    38e0:	000008a0 	andeq	r0, r0, r0, lsr #17
    38e4:	01f30004 	mvnseq	r0, r4
    38e8:	08a09f51 	stmiaeq	r0!, {r0, r4, r6, r8, r9, sl, fp, ip, pc}
    38ec:	08a40000 	stmiaeq	r4!, {}	; <UNPREDICTABLE>
    38f0:	00010000 	andeq	r0, r1, r0
    38f4:	0008a451 	andeq	sl, r8, r1, asr r4
    38f8:	0008b800 	andeq	fp, r8, r0, lsl #16
    38fc:	f3000400 	vshl.u8	d0, d0, d0
    3900:	b89f5101 	ldmlt	pc, {r0, r8, ip, lr}	; <UNPREDICTABLE>
    3904:	bc000008 	stclt	0, cr0, [r0], {8}
    3908:	01000008 	tsteq	r0, r8
    390c:	08bc5100 	ldmeq	ip!, {r8, ip, lr}
    3910:	08d00000 	ldmeq	r0, {}^	; <UNPREDICTABLE>
    3914:	00040000 	andeq	r0, r4, r0
    3918:	9f5101f3 	svcls	0x005101f3
	...
    3924:	00000864 	andeq	r0, r0, r4, ror #16
    3928:	00000884 	andeq	r0, r0, r4, lsl #17
    392c:	84520001 	ldrbhi	r0, [r2], #-1
    3930:	97000008 	strls	r0, [r0, -r8]
    3934:	01000008 	tsteq	r0, r8
    3938:	08975c00 	ldmeq	r7, {sl, fp, ip, lr}
    393c:	08a00000 	stmiaeq	r0!, {}	; <UNPREDICTABLE>
    3940:	00040000 	andeq	r0, r4, r0
    3944:	9f5201f3 	svcls	0x005201f3
    3948:	000008a0 	andeq	r0, r0, r0, lsr #17
    394c:	000008af 	andeq	r0, r0, pc, lsr #17
    3950:	af5c0001 	svcge	0x005c0001
    3954:	b8000008 	stmdalt	r0, {r3}
    3958:	04000008 	streq	r0, [r0], #-8
    395c:	5201f300 	andpl	pc, r1, #0, 6
    3960:	0008b89f 	muleq	r8, pc, r8	; <UNPREDICTABLE>
    3964:	0008c700 	andeq	ip, r8, r0, lsl #14
    3968:	52000100 	andpl	r0, r0, #0, 2
    396c:	000008c7 	andeq	r0, r0, r7, asr #17
    3970:	000008d0 	ldrdeq	r0, [r0], -r0	; <UNPREDICTABLE>
    3974:	01f30004 	mvnseq	r0, r4
    3978:	00009f52 	andeq	r9, r0, r2, asr pc
    397c:	00000000 	andeq	r0, r0, r0
	...

Disassembly of section .debug_ranges:

00000000 <.debug_ranges>:
   0:	00000038 	andeq	r0, r0, r8, lsr r0
   4:	000000ac 	andeq	r0, r0, ip, lsr #1
   8:	000000c0 	andeq	r0, r0, r0, asr #1
   c:	000000e4 	andeq	r0, r0, r4, ror #1
	...
  18:	00000054 	andeq	r0, r0, r4, asr r0
  1c:	00000058 	andeq	r0, r0, r8, asr r0
  20:	0000005c 	andeq	r0, r0, ip, asr r0
  24:	00000074 	andeq	r0, r0, r4, ror r0
	...
  30:	00000070 	andeq	r0, r0, r0, ror r0
  34:	0000007c 	andeq	r0, r0, ip, ror r0
  38:	00000080 	andeq	r0, r0, r0, lsl #1
  3c:	00000088 	andeq	r0, r0, r8, lsl #1
	...
  48:	0000007c 	andeq	r0, r0, ip, ror r0
  4c:	00000080 	andeq	r0, r0, r0, lsl #1
  50:	00000088 	andeq	r0, r0, r8, lsl #1
  54:	0000008c 	andeq	r0, r0, ip, lsl #1
	...
  60:	000000b0 	strheq	r0, [r0], -r0	; <UNPREDICTABLE>
  64:	000000b8 	strheq	r0, [r0], -r8
  68:	000000c0 	andeq	r0, r0, r0, asr #1
  6c:	000000c4 	andeq	r0, r0, r4, asr #1
  70:	000000c8 	andeq	r0, r0, r8, asr #1
  74:	000000cc 	andeq	r0, r0, ip, asr #1
	...
  80:	000000b8 	strheq	r0, [r0], -r8
  84:	000000bc 	strheq	r0, [r0], -ip
  88:	000000d8 	ldrdeq	r0, [r0], -r8
  8c:	000000dc 	ldrdeq	r0, [r0], -ip
	...
  98:	000000c4 	andeq	r0, r0, r4, asr #1
  9c:	000000c8 	andeq	r0, r0, r8, asr #1
  a0:	000000d0 	ldrdeq	r0, [r0], -r0	; <UNPREDICTABLE>
  a4:	000000d4 	ldrdeq	r0, [r0], -r4
	...
  b0:	00000104 	andeq	r0, r0, r4, lsl #2
  b4:	00000108 	andeq	r0, r0, r8, lsl #2
  b8:	00000130 	andeq	r0, r0, r0, lsr r1
  bc:	0000013c 	andeq	r0, r0, ip, lsr r1
	...
  c8:	0000015c 	andeq	r0, r0, ip, asr r1
  cc:	00000168 	andeq	r0, r0, r8, ror #2
  d0:	0000016c 	andeq	r0, r0, ip, ror #2
  d4:	00000170 	andeq	r0, r0, r0, ror r1
	...
  e0:	00000168 	andeq	r0, r0, r8, ror #2
  e4:	0000016c 	andeq	r0, r0, ip, ror #2
  e8:	00000170 	andeq	r0, r0, r0, ror r1
  ec:	00000178 	andeq	r0, r0, r8, ror r1
	...
  f8:	0000018c 	andeq	r0, r0, ip, lsl #3
  fc:	00000190 	muleq	r0, r0, r1
 100:	00000194 	muleq	r0, r4, r1
 104:	00000198 	muleq	r0, r8, r1
	...
 110:	00000190 	muleq	r0, r0, r1
 114:	00000194 	muleq	r0, r4, r1
 118:	0000019c 	muleq	r0, ip, r1
 11c:	000001a4 	andeq	r0, r0, r4, lsr #3
	...
 128:	000001bc 			; <UNDEFINED> instruction: 0x000001bc
 12c:	000001c4 	andeq	r0, r0, r4, asr #3
 130:	000001d8 	ldrdeq	r0, [r0], -r8
 134:	000001ec 	andeq	r0, r0, ip, ror #3
 138:	000002ec 	andeq	r0, r0, ip, ror #5
 13c:	000002fc 	strdeq	r0, [r0], -ip
	...
 148:	000001e0 	andeq	r0, r0, r0, ror #3
 14c:	000001ec 	andeq	r0, r0, ip, ror #3
 150:	000002ec 	andeq	r0, r0, ip, ror #5
 154:	000002fc 	strdeq	r0, [r0], -ip
	...
 160:	000001f8 	strdeq	r0, [r0], -r8
 164:	0000020c 	andeq	r0, r0, ip, lsl #4
 168:	0000040c 	andeq	r0, r0, ip, lsl #8
 16c:	00000424 	andeq	r0, r0, r4, lsr #8
	...
 178:	00000208 	andeq	r0, r0, r8, lsl #4
 17c:	0000020c 	andeq	r0, r0, ip, lsl #4
 180:	0000040c 	andeq	r0, r0, ip, lsl #8
 184:	00000424 	andeq	r0, r0, r4, lsr #8
	...
 190:	0000020c 	andeq	r0, r0, ip, lsl #4
 194:	0000021c 	andeq	r0, r0, ip, lsl r2
 198:	000003f4 	strdeq	r0, [r0], -r4
 19c:	0000040c 	andeq	r0, r0, ip, lsl #8
	...
 1a8:	00000218 	andeq	r0, r0, r8, lsl r2
 1ac:	0000021c 	andeq	r0, r0, ip, lsl r2
 1b0:	000003f4 	strdeq	r0, [r0], -r4
 1b4:	0000040c 	andeq	r0, r0, ip, lsl #8
	...
 1c0:	0000021c 	andeq	r0, r0, ip, lsl r2
 1c4:	0000022c 	andeq	r0, r0, ip, lsr #4
 1c8:	000003dc 	ldrdeq	r0, [r0], -ip
 1cc:	000003f4 	strdeq	r0, [r0], -r4
	...
 1d8:	00000228 	andeq	r0, r0, r8, lsr #4
 1dc:	0000022c 	andeq	r0, r0, ip, lsr #4
 1e0:	000003dc 	ldrdeq	r0, [r0], -ip
 1e4:	000003f4 	strdeq	r0, [r0], -r4
	...
 1f0:	0000022c 	andeq	r0, r0, ip, lsr #4
 1f4:	00000244 	andeq	r0, r0, r4, asr #4
 1f8:	000003c4 	andeq	r0, r0, r4, asr #7
 1fc:	000003dc 	ldrdeq	r0, [r0], -ip
	...
 208:	0000023c 	andeq	r0, r0, ip, lsr r2
 20c:	00000244 	andeq	r0, r0, r4, asr #4
 210:	000003c4 	andeq	r0, r0, r4, asr #7
 214:	000003dc 	ldrdeq	r0, [r0], -ip
	...
 220:	00000244 	andeq	r0, r0, r4, asr #4
 224:	00000254 	andeq	r0, r0, r4, asr r2
 228:	000003ac 	andeq	r0, r0, ip, lsr #7
 22c:	000003c4 	andeq	r0, r0, r4, asr #7
	...
 238:	00000250 	andeq	r0, r0, r0, asr r2
 23c:	00000254 	andeq	r0, r0, r4, asr r2
 240:	000003ac 	andeq	r0, r0, ip, lsr #7
 244:	000003c4 	andeq	r0, r0, r4, asr #7
	...
 250:	00000254 	andeq	r0, r0, r4, asr r2
 254:	0000026c 	andeq	r0, r0, ip, ror #4
 258:	00000394 	muleq	r0, r4, r3
 25c:	000003ac 	andeq	r0, r0, ip, lsr #7
	...
 268:	00000264 	andeq	r0, r0, r4, ror #4
 26c:	0000026c 	andeq	r0, r0, ip, ror #4
 270:	00000394 	muleq	r0, r4, r3
 274:	000003ac 	andeq	r0, r0, ip, lsr #7
	...
 280:	0000026c 	andeq	r0, r0, ip, ror #4
 284:	0000027c 	andeq	r0, r0, ip, ror r2
 288:	0000037c 	andeq	r0, r0, ip, ror r3
 28c:	00000394 	muleq	r0, r4, r3
	...
 298:	00000278 	andeq	r0, r0, r8, ror r2
 29c:	0000027c 	andeq	r0, r0, ip, ror r2
 2a0:	0000037c 	andeq	r0, r0, ip, ror r3
 2a4:	00000394 	muleq	r0, r4, r3
	...
 2b0:	0000027c 	andeq	r0, r0, ip, ror r2
 2b4:	00000294 	muleq	r0, r4, r2
 2b8:	00000364 	andeq	r0, r0, r4, ror #6
 2bc:	0000037c 	andeq	r0, r0, ip, ror r3
	...
 2c8:	0000028c 	andeq	r0, r0, ip, lsl #5
 2cc:	00000294 	muleq	r0, r4, r2
 2d0:	00000364 	andeq	r0, r0, r4, ror #6
 2d4:	0000037c 	andeq	r0, r0, ip, ror r3
	...
 2e0:	00000294 	muleq	r0, r4, r2
 2e4:	00000298 	muleq	r0, r8, r2
 2e8:	0000029c 	muleq	r0, ip, r2
 2ec:	000002a4 	andeq	r0, r0, r4, lsr #5
 2f0:	0000034c 	andeq	r0, r0, ip, asr #6
 2f4:	00000364 	andeq	r0, r0, r4, ror #6
	...
 300:	000002a0 	andeq	r0, r0, r0, lsr #5
 304:	000002a4 	andeq	r0, r0, r4, lsr #5
 308:	0000034c 	andeq	r0, r0, ip, asr #6
 30c:	00000364 	andeq	r0, r0, r4, ror #6
	...
 318:	000002a4 	andeq	r0, r0, r4, lsr #5
 31c:	000002a8 	andeq	r0, r0, r8, lsr #5
 320:	000002ac 	andeq	r0, r0, ip, lsr #5
 324:	000002b4 			; <UNDEFINED> instruction: 0x000002b4
 328:	00000334 	andeq	r0, r0, r4, lsr r3
 32c:	0000034c 	andeq	r0, r0, ip, asr #6
	...
 338:	000002b0 			; <UNDEFINED> instruction: 0x000002b0
 33c:	000002b4 			; <UNDEFINED> instruction: 0x000002b4
 340:	00000334 	andeq	r0, r0, r4, lsr r3
 344:	0000034c 	andeq	r0, r0, ip, asr #6
	...
 350:	000002b4 			; <UNDEFINED> instruction: 0x000002b4
 354:	000002b8 			; <UNDEFINED> instruction: 0x000002b8
 358:	000002bc 			; <UNDEFINED> instruction: 0x000002bc
 35c:	000002c4 	andeq	r0, r0, r4, asr #5
 360:	0000031c 	andeq	r0, r0, ip, lsl r3
 364:	00000334 	andeq	r0, r0, r4, lsr r3
	...
 370:	000002c0 	andeq	r0, r0, r0, asr #5
 374:	000002c4 	andeq	r0, r0, r4, asr #5
 378:	0000031c 	andeq	r0, r0, ip, lsl r3
 37c:	00000334 	andeq	r0, r0, r4, lsr r3
	...
 388:	000002c4 	andeq	r0, r0, r4, asr #5
 38c:	000002c8 	andeq	r0, r0, r8, asr #5
 390:	000002cc 	andeq	r0, r0, ip, asr #5
 394:	000002d0 	ldrdeq	r0, [r0], -r0	; <UNPREDICTABLE>
 398:	000002d4 	ldrdeq	r0, [r0], -r4
 39c:	000002d8 	ldrdeq	r0, [r0], -r8
 3a0:	000002fc 	strdeq	r0, [r0], -ip
 3a4:	00000310 	andeq	r0, r0, r0, lsl r3
	...
 3b0:	000002d4 	ldrdeq	r0, [r0], -r4
 3b4:	000002d8 	ldrdeq	r0, [r0], -r8
 3b8:	000002fc 	strdeq	r0, [r0], -ip
 3bc:	00000310 	andeq	r0, r0, r0, lsl r3
	...
 3c8:	000007b4 			; <UNDEFINED> instruction: 0x000007b4
 3cc:	000007cc 	andeq	r0, r0, ip, asr #15
 3d0:	000007d4 	ldrdeq	r0, [r0], -r4
 3d4:	000007dc 	ldrdeq	r0, [r0], -ip
 3d8:	000007e0 	andeq	r0, r0, r0, ror #15
 3dc:	00000848 	andeq	r0, r0, r8, asr #16
	...
 3e8:	00000974 	andeq	r0, r0, r4, ror r9
 3ec:	0000097c 	andeq	r0, r0, ip, ror r9
 3f0:	00000980 	andeq	r0, r0, r0, lsl #19
 3f4:	00000984 	andeq	r0, r0, r4, lsl #19
 3f8:	00000988 	andeq	r0, r0, r8, lsl #19
 3fc:	0000098c 	andeq	r0, r0, ip, lsl #19
	...
 408:	00000984 	andeq	r0, r0, r4, lsl #19
 40c:	00000988 	andeq	r0, r0, r8, lsl #19
 410:	0000098c 	andeq	r0, r0, ip, lsl #19
 414:	00000990 	muleq	r0, r0, r9
	...
 420:	00000a0c 	andeq	r0, r0, ip, lsl #20
 424:	00000a14 	andeq	r0, r0, r4, lsl sl
 428:	00000a20 	andeq	r0, r0, r0, lsr #20
 42c:	00000a24 	andeq	r0, r0, r4, lsr #20
	...
 438:	00000a30 	andeq	r0, r0, r0, lsr sl
 43c:	00000a34 	andeq	r0, r0, r4, lsr sl
 440:	00000a54 	andeq	r0, r0, r4, asr sl
 444:	00000a58 	andeq	r0, r0, r8, asr sl
	...
 450:	00000010 	andeq	r0, r0, r0, lsl r0
 454:	0000002c 	andeq	r0, r0, ip, lsr #32
 458:	00000030 	andeq	r0, r0, r0, lsr r0
 45c:	00000058 	andeq	r0, r0, r8, asr r0
	...
 468:	000000c8 	andeq	r0, r0, r8, asr #1
 46c:	000000d0 	ldrdeq	r0, [r0], -r0	; <UNPREDICTABLE>
 470:	000000d8 	ldrdeq	r0, [r0], -r8
 474:	000000e4 	andeq	r0, r0, r4, ror #1
 478:	000000ec 	andeq	r0, r0, ip, ror #1
 47c:	00000100 	andeq	r0, r0, r0, lsl #2
	...
 488:	000000e4 	andeq	r0, r0, r4, ror #1
 48c:	000000e8 	andeq	r0, r0, r8, ror #1
 490:	00000100 	andeq	r0, r0, r0, lsl #2
 494:	0000010c 	andeq	r0, r0, ip, lsl #2
	...
 4a0:	00000120 	andeq	r0, r0, r0, lsr #2
 4a4:	00000128 	andeq	r0, r0, r8, lsr #2
 4a8:	00000130 	andeq	r0, r0, r0, lsr r1
 4ac:	0000013c 	andeq	r0, r0, ip, lsr r1
 4b0:	00000144 	andeq	r0, r0, r4, asr #2
 4b4:	00000158 	andeq	r0, r0, r8, asr r1
	...
 4c0:	0000013c 	andeq	r0, r0, ip, lsr r1
 4c4:	00000140 	andeq	r0, r0, r0, asr #2
 4c8:	00000158 	andeq	r0, r0, r8, asr r1
 4cc:	00000164 	andeq	r0, r0, r4, ror #2
	...
 4d8:	000000ac 	andeq	r0, r0, ip, lsr #1
 4dc:	000000b4 	strheq	r0, [r0], -r4
 4e0:	000000e4 	andeq	r0, r0, r4, ror #1
 4e4:	00000100 	andeq	r0, r0, r0, lsl #2
	...
 4f0:	00000128 	andeq	r0, r0, r8, lsr #2
 4f4:	00000138 	andeq	r0, r0, r8, lsr r1
 4f8:	0000014c 	andeq	r0, r0, ip, asr #2
 4fc:	00000154 	andeq	r0, r0, r4, asr r1
 500:	00000158 	andeq	r0, r0, r8, asr r1
 504:	00000160 	andeq	r0, r0, r0, ror #2
	...
 510:	0000018c 	andeq	r0, r0, ip, lsl #3
 514:	0000019c 	muleq	r0, ip, r1
 518:	000001a0 	andeq	r0, r0, r0, lsr #3
 51c:	000001a4 	andeq	r0, r0, r4, lsr #3
	...
 528:	00000324 	andeq	r0, r0, r4, lsr #6
 52c:	00000328 	andeq	r0, r0, r8, lsr #6
 530:	0000032c 	andeq	r0, r0, ip, lsr #6
 534:	00000344 	andeq	r0, r0, r4, asr #6
	...
 540:	00000038 	andeq	r0, r0, r8, lsr r0
 544:	0000003c 	andeq	r0, r0, ip, lsr r0
 548:	00000040 	andeq	r0, r0, r0, asr #32
 54c:	000001ac 	andeq	r0, r0, ip, lsr #3
 550:	000001c0 	andeq	r0, r0, r0, asr #3
 554:	000001d4 	ldrdeq	r0, [r0], -r4
	...
 560:	00000038 	andeq	r0, r0, r8, lsr r0
 564:	0000003c 	andeq	r0, r0, ip, lsr r0
 568:	0000008c 	andeq	r0, r0, ip, lsl #1
 56c:	00000090 	muleq	r0, r0, r0
 570:	00000094 	muleq	r0, r4, r0
 574:	00000098 	muleq	r0, r8, r0
 578:	0000009c 	muleq	r0, ip, r0
 57c:	000000e8 	andeq	r0, r0, r8, ror #1
 580:	000000ec 	andeq	r0, r0, ip, ror #1
 584:	000000f0 	strdeq	r0, [r0], -r0	; <UNPREDICTABLE>
 588:	000000f4 	strdeq	r0, [r0], -r4
 58c:	000000f8 	strdeq	r0, [r0], -r8
	...
 598:	000002fc 	strdeq	r0, [r0], -ip
 59c:	00000304 	andeq	r0, r0, r4, lsl #6
 5a0:	00000308 	andeq	r0, r0, r8, lsl #6
 5a4:	0000030c 	andeq	r0, r0, ip, lsl #6
	...
 5b0:	00000610 	andeq	r0, r0, r0, lsl r6
 5b4:	00000630 	andeq	r0, r0, r0, lsr r6
 5b8:	00000648 	andeq	r0, r0, r8, asr #12
 5bc:	00000678 	andeq	r0, r0, r8, ror r6
	...
 5c8:	0000068c 	andeq	r0, r0, ip, lsl #13
 5cc:	000006ac 	andeq	r0, r0, ip, lsr #13
 5d0:	000006c4 	andeq	r0, r0, r4, asr #13
 5d4:	000006f4 	strdeq	r0, [r0], -r4
	...
 5e0:	000007a0 	andeq	r0, r0, r0, lsr #15
 5e4:	000007a8 	andeq	r0, r0, r8, lsr #15
 5e8:	000007b8 			; <UNDEFINED> instruction: 0x000007b8
 5ec:	000007c0 	andeq	r0, r0, r0, asr #15
 5f0:	000007d0 	ldrdeq	r0, [r0], -r0	; <UNPREDICTABLE>
 5f4:	000007f0 	strdeq	r0, [r0], -r0	; <UNPREDICTABLE>
	...
 600:	000007b8 			; <UNDEFINED> instruction: 0x000007b8
 604:	000007c0 	andeq	r0, r0, r0, asr #15
 608:	000007e4 	andeq	r0, r0, r4, ror #15
 60c:	000007f0 	strdeq	r0, [r0], -r0	; <UNPREDICTABLE>
	...
