
/home/fae/nas/svn/1295/trunk-6.0.0_r1/bootcode/uboot/examples/efuse_verify/out/efuse_verify:     file format elf32-littlearm


Disassembly of section .text:

01610000 <_back_addr>:
 1610000:	01a00000 	moveq	r0, r0

01610004 <_stack_start>:
 1610004:	02000000 	andeq	r0, r0, #0

01610008 <_stack_start1>:
 1610008:	02500000 	subseq	r0, r0, #0

0161000c <start>:
.globl _stack_start1
_stack_start1:
        .word 0x02500000

start:
     mrc     p15, 0, r1, c0, c0, 5     @ Read Multiprocessor Affinity Register
 161000c:	ee101fb0 	mrc	15, 0, r1, cr0, cr0, {5}
     ands    r1, r1, #0x03             @ Mask off, leaving the CPU ID field
 1610010:	e2111003 	ands	r1, r1, #3
     cmp     r1,#0x00                  @ core0 : 0x00 , others 0x01 , 0x02 ...
 1610014:	e3510000 	cmp	r1, #0
     bne     run_secondary
 1610018:	1a00000c 	bne	1610050 <run_secondary>

     ldr     r8, _back_addr
 161001c:	e51f8024 	ldr	r8, [pc, #-36]	; 1610000 <_back_addr>
     str     lr, [r8]
 1610020:	e588e000 	str	lr, [r8]
     add     r8, r8,#4
 1610024:	e2888004 	add	r8, r8, #4
     str     sp, [r8]
 1610028:	e588d000 	str	sp, [r8]

     ldr     sp, _stack_start
 161002c:	e51fd030 	ldr	sp, [pc, #-48]	; 1610004 <_stack_start>
     bic     sp, sp, #7
 1610030:	e3cdd007 	bic	sp, sp, #7
     bl	     verifymain
 1610034:	eb000184 	bl	161064c <verifymain>

     ldr     r8, _back_addr
 1610038:	e51f8040 	ldr	r8, [pc, #-64]	; 1610000 <_back_addr>
     add     r9, r8,#4
 161003c:	e2889004 	add	r9, r8, #4
     ldr     sp, [r9]
 1610040:	e599d000 	ldr	sp, [r9]
     ldr     r1, [r8]
 1610044:	e5981000 	ldr	r1, [r8]
     mov     r0, #0
 1610048:	e3a00000 	mov	r0, #0
     bx      r1
 161004c:	e12fff11 	bx	r1

01610050 <run_secondary>:

run_secondary:
     ldr   sp, _stack_start1
 1610050:	e51fd050 	ldr	sp, [pc, #-80]	; 1610008 <_stack_start1>
     MSR   CPSR_c, #0xD3 ; #MODE_SVC:OR:DIS_IRQ:OR:DIS_FIRQ
 1610054:	e321f0d3 	msr	CPSR_c, #211	; 0xd3
     MOV   r0, r0
 1610058:	e1a00000 	nop			; (mov r0, r0)
     MOV   r0, r0
 161005c:	e1a00000 	nop			; (mov r0, r0)
     MOV   r0, r0
 1610060:	e1a00000 	nop			; (mov r0, r0)
9:
     b     9b
 1610064:	eafffffe 	b	1610064 <run_secondary+0x14>
     MOV   r0, r0
 1610068:	e1a00000 	nop			; (mov r0, r0)
     MOV   r0, r0
 161006c:	e1a00000 	nop			; (mov r0, r0)
     MOV   r0, r0
 1610070:	e1a00000 	nop			; (mov r0, r0)

01610074 <strlen>:

int strlen(const char *s)
{
	int	l = 0;

	while (*s++) 
 1610074:	e5d01000 	ldrb	r1, [r0]
 1610078:	e2803001 	add	r3, r0, #1
 161007c:	e3510000 	cmp	r1, #0
 1610080:	0a000003 	beq	1610094 <strlen+0x20>
 1610084:	e0601003 	rsb	r1, r0, r3
 1610088:	e4d32001 	ldrb	r2, [r3], #1
 161008c:	e3520000 	cmp	r2, #0
 1610090:	1afffffb 	bne	1610084 <strlen+0x10>
	{
		
	 l++;
	} 
	return l;
}
 1610094:	e1a00001 	mov	r0, r1
 1610098:	e12fff1e 	bx	lr

0161009c <strstr>:
	const char 	*s2)
{
    const char *s ;
    const char *t ;

    if (!s1 || !s2)
 161009c:	e3510000 	cmp	r1, #0
 16100a0:	13500000 	cmpne	r0, #0
 16100a4:	0a000022 	beq	1610134 <strstr+0x98>
#include "dvrboot_inc/string.h"

char *strstr(
	const char 	*s1, 
	const char 	*s2)
{
 16100a8:	e92d4030 	push	{r4, r5, lr}
    const char *t ;

    if (!s1 || !s2)
	return (0);

    if (!*s2)
 16100ac:	e5d15000 	ldrb	r5, [r1]
 16100b0:	e3550000 	cmp	r5, #0
 16100b4:	08bd8030 	popeq	{r4, r5, pc}
	return ((char*)s1);

    for (; *s1; s1++) 
 16100b8:	e5d03000 	ldrb	r3, [r0]
 16100bc:	e3530000 	cmp	r3, #0
 16100c0:	1a000003 	bne	16100d4 <strstr+0x38>
 16100c4:	ea000018 	b	161012c <strstr+0x90>
 16100c8:	e5f03001 	ldrb	r3, [r0, #1]!
 16100cc:	e3530000 	cmp	r3, #0
 16100d0:	0a000015 	beq	161012c <strstr+0x90>
    {
	if (*s1 == *s2) 
 16100d4:	e1550003 	cmp	r5, r3
 16100d8:	1afffffa 	bne	16100c8 <strstr+0x2c>
        {
	    t = s1;
	    s = s2;
	    for (; *t; s++, t++) 
 16100dc:	e5d03000 	ldrb	r3, [r0]
 16100e0:	e3530000 	cmp	r3, #0
 16100e4:	0afffff7 	beq	16100c8 <strstr+0x2c>
            {
		if (*t != *s)
 16100e8:	e1550003 	cmp	r5, r3
 16100ec:	1afffff5 	bne	16100c8 <strstr+0x2c>
 16100f0:	e2813001 	add	r3, r1, #1
 16100f4:	e1a0c000 	mov	ip, r0
 16100f8:	ea000002 	b	1610108 <strstr+0x6c>
 16100fc:	e5de4000 	ldrb	r4, [lr]
 1610100:	e1540002 	cmp	r4, r2
 1610104:	1a000004 	bne	161011c <strstr+0x80>
    {
	if (*s1 == *s2) 
        {
	    t = s1;
	    s = s2;
	    for (; *t; s++, t++) 
 1610108:	e5fc2001 	ldrb	r2, [ip, #1]!
 161010c:	e1a0e003 	mov	lr, r3
 1610110:	e2833001 	add	r3, r3, #1
 1610114:	e3520000 	cmp	r2, #0
 1610118:	1afffff7 	bne	16100fc <strstr+0x60>
            {
		if (*t != *s)
		    break;
	    }
	    if (!*s)
 161011c:	e5de3000 	ldrb	r3, [lr]
 1610120:	e3530000 	cmp	r3, #0
 1610124:	1affffe7 	bne	16100c8 <strstr+0x2c>
 1610128:	e8bd8030 	pop	{r4, r5, pc}
{
    const char *s ;
    const char *t ;

    if (!s1 || !s2)
	return (0);
 161012c:	e1a00003 	mov	r0, r3
	    if (!*s)
		return ((char*)s1);
	}
    }
    return (0);
}
 1610130:	e8bd8030 	pop	{r4, r5, pc}
{
    const char *s ;
    const char *t ;

    if (!s1 || !s2)
	return (0);
 1610134:	e3a00000 	mov	r0, #0
	    if (!*s)
		return ((char*)s1);
	}
    }
    return (0);
}
 1610138:	e12fff1e 	bx	lr

0161013c <strtoul>:
unsigned long
strtoul(
	const 	char 	*str,
		char 	**endptr,
		int 	base)
{
 161013c:	e92d47f0 	push	{r4, r5, r6, r7, r8, r9, sl, lr}
 1610140:	e30273b4 	movw	r7, #9140	; 0x23b4
 1610144:	e3407161 	movt	r7, #353	; 0x161
 1610148:	e1a08000 	mov	r8, r0
 161014c:	ea000000 	b	1610154 <strtoul+0x18>
 1610150:	e1a00003 	mov	r0, r3
	/*
	 * See strtol for comments as to the logic used.
	 */
	s = str;
	do {
		c = (unsigned char) *s++;
 1610154:	e1a03000 	mov	r3, r0
 1610158:	e4d3e001 	ldrb	lr, [r3], #1
	} while (isspace(c));
 161015c:	e7d7c00e 	ldrb	ip, [r7, lr]
 1610160:	e20cc020 	and	ip, ip, #32
 1610164:	e21cc0ff 	ands	ip, ip, #255	; 0xff
 1610168:	1afffff8 	bne	1610150 <strtoul+0x14>
	if (c == '-') {
 161016c:	e35e002d 	cmp	lr, #45	; 0x2d
 1610170:	0a000047 	beq	1610294 <strtoul+0x158>
		neg = 1;
		c = *s++;
	} else {
		neg = 0;
		if (c == '+')
 1610174:	e35e002b 	cmp	lr, #43	; 0x2b
			c = *s++;
 1610178:	02803002 	addeq	r3, r0, #2
 161017c:	05d0e001 	ldrbeq	lr, [r0, #1]
	}
	if ((base == 0 || base == 16) &&
 1610180:	e3d20010 	bics	r0, r2, #16
 1610184:	1a000011 	bne	16101d0 <strtoul+0x94>
 1610188:	e16f0f12 	clz	r0, r2
 161018c:	e35e0030 	cmp	lr, #48	; 0x30
 1610190:	e1a002a0 	lsr	r0, r0, #5
 1610194:	0a000042 	beq	16102a4 <strtoul+0x168>
	    c == '0' && (*s == 'x' || *s == 'X')) {
		c = s[1];
		s += 2;
		base = 16;
	}
	if (base == 0)
 1610198:	e3500000 	cmp	r0, #0
 161019c:	0a00000b 	beq	16101d0 <strtoul+0x94>
 16101a0:	e3a0200a 	mov	r2, #10
 16101a4:	e3090999 	movw	r0, #39321	; 0x9999
 16101a8:	e3410999 	movt	r0, #6553	; 0x1999
		base = c == '0' ? 8 : 10;
 16101ac:	e1a0a002 	mov	sl, r2
 16101b0:	e3a09005 	mov	r9, #5
 16101b4:	ea00000a 	b	16101e4 <strtoul+0xa8>
	    c == '0' && (*s == 'x' || *s == 'X')) {
		c = s[1];
		s += 2;
		base = 16;
	}
	if (base == 0)
 16101b8:	e3500000 	cmp	r0, #0
 16101bc:	13a02008 	movne	r2, #8
 16101c0:	13a09007 	movne	r9, #7
		base = c == '0' ? 8 : 10;
 16101c4:	11a0a002 	movne	sl, r2
	    c == '0' && (*s == 'x' || *s == 'X')) {
		c = s[1];
		s += 2;
		base = 16;
	}
	if (base == 0)
 16101c8:	13e0020e 	mvnne	r0, #-536870912	; 0xe0000000
 16101cc:	1a000004 	bne	16101e4 <strtoul+0xa8>
 16101d0:	e3e00000 	mvn	r0, #0
 16101d4:	e1a0a002 	mov	sl, r2
 16101d8:	e730f210 	udiv	r0, r0, r2
 16101dc:	e0090092 	mul	r9, r2, r0
 16101e0:	e1e09009 	mvn	r9, r9
		base = c == '0' ? 8 : 10;

	cutoff = MAXUINT(sizeof(UINT32)) / (unsigned long)base;
	cutlim = MAXUINT(sizeof(UINT32)) % (unsigned long)base;
	for (acc = 0, any = 0;; c = (unsigned char) *s++) {
 16101e4:	e3a05000 	mov	r5, #0
 16101e8:	e1a06005 	mov	r6, r5
 16101ec:	ea000009 	b	1610218 <strtoul+0xdc>
			break;
		if (c >= base)
			break;
		if (any < 0)
			continue;
		if ((acc > cutoff) || (acc == cutoff && c > cutlim)) {
 16101f0:	e15e0009 	cmp	lr, r9
 16101f4:	d3a04000 	movle	r4, #0
 16101f8:	c3a04001 	movgt	r4, #1
 16101fc:	e1560000 	cmp	r6, r0
 1610200:	13a04000 	movne	r4, #0
 1610204:	e3540000 	cmp	r4, #0
 1610208:	1a000012 	bne	1610258 <strtoul+0x11c>
			acc = MAXUINT(sizeof(UINT32));
			//errno = ERANGE;
		} else {
			any = 1;
			acc *= (unsigned long)base;
			acc += c;
 161020c:	e026e69a 	mla	r6, sl, r6, lr
		if ((acc > cutoff) || (acc == cutoff && c > cutlim)) {
			any = -1;
			acc = MAXUINT(sizeof(UINT32));
			//errno = ERANGE;
		} else {
			any = 1;
 1610210:	e3a05001 	mov	r5, #1
	if (base == 0)
		base = c == '0' ? 8 : 10;

	cutoff = MAXUINT(sizeof(UINT32)) / (unsigned long)base;
	cutlim = MAXUINT(sizeof(UINT32)) % (unsigned long)base;
	for (acc = 0, any = 0;; c = (unsigned char) *s++) {
 1610214:	e4d3e001 	ldrb	lr, [r3], #1
		if (isdigit(c))
 1610218:	e7d7400e 	ldrb	r4, [r7, lr]
 161021c:	e3140004 	tst	r4, #4
			c -= '0';
 1610220:	124ee030 	subne	lr, lr, #48	; 0x30
		base = c == '0' ? 8 : 10;

	cutoff = MAXUINT(sizeof(UINT32)) / (unsigned long)base;
	cutlim = MAXUINT(sizeof(UINT32)) % (unsigned long)base;
	for (acc = 0, any = 0;; c = (unsigned char) *s++) {
		if (isdigit(c))
 1610224:	1a000005 	bne	1610240 <strtoul+0x104>
			c -= '0';
		else if (isalpha(c))
 1610228:	e3140003 	tst	r4, #3
 161022c:	0a00000c 	beq	1610264 <strtoul+0x128>
			c -= isupper(c) ? 'A' - 10 : 'a' - 10;
 1610230:	e3140001 	tst	r4, #1
 1610234:	13a04037 	movne	r4, #55	; 0x37
 1610238:	03a04057 	moveq	r4, #87	; 0x57
 161023c:	e064e00e 	rsb	lr, r4, lr
		else
			break;
		if (c >= base)
 1610240:	e152000e 	cmp	r2, lr
 1610244:	da000006 	ble	1610264 <strtoul+0x128>
			break;
		if (any < 0)
 1610248:	e3750001 	cmn	r5, #1
 161024c:	0afffff0 	beq	1610214 <strtoul+0xd8>
			continue;
		if ((acc > cutoff) || (acc == cutoff && c > cutlim)) {
 1610250:	e1560000 	cmp	r6, r0
 1610254:	9affffe5 	bls	16101f0 <strtoul+0xb4>
			any = -1;
 1610258:	e3e05000 	mvn	r5, #0
			acc = MAXUINT(sizeof(UINT32));
 161025c:	e1a06005 	mov	r6, r5
 1610260:	eaffffeb 	b	1610214 <strtoul+0xd8>
			any = 1;
			acc *= (unsigned long)base;
			acc += c;
		}
	}
	if (neg && any > 0)
 1610264:	e3550000 	cmp	r5, #0
 1610268:	d3a0c000 	movle	ip, #0
 161026c:	c20cc001 	andgt	ip, ip, #1
		acc = -acc;
	if (endptr != 0)
 1610270:	e3510000 	cmp	r1, #0
 1610274:	e26c0000 	rsb	r0, ip, #0
 1610278:	e0266000 	eor	r6, r6, r0
 161027c:	e086000c 	add	r0, r6, ip
 1610280:	08bd87f0 	popeq	{r4, r5, r6, r7, r8, r9, sl, pc}
		*endptr = (char *) (any ? s - 1 : (char *) str);
 1610284:	e3550000 	cmp	r5, #0
 1610288:	12438001 	subne	r8, r3, #1
 161028c:	e5818000 	str	r8, [r1]
 1610290:	e8bd87f0 	pop	{r4, r5, r6, r7, r8, r9, sl, pc}
	do {
		c = (unsigned char) *s++;
	} while (isspace(c));
	if (c == '-') {
		neg = 1;
		c = *s++;
 1610294:	e2803002 	add	r3, r0, #2
 1610298:	e5d0e001 	ldrb	lr, [r0, #1]
 161029c:	e3a0c001 	mov	ip, #1
 16102a0:	eaffffb6 	b	1610180 <strtoul+0x44>
		neg = 0;
		if (c == '+')
			c = *s++;
	}
	if ((base == 0 || base == 16) &&
	    c == '0' && (*s == 'x' || *s == 'X')) {
 16102a4:	e5d34000 	ldrb	r4, [r3]
 16102a8:	e20440df 	and	r4, r4, #223	; 0xdf
 16102ac:	e3540058 	cmp	r4, #88	; 0x58
 16102b0:	1affffc0 	bne	16101b8 <strtoul+0x7c>
		c = s[1];
		s += 2;
 16102b4:	e3a02010 	mov	r2, #16
		if (c == '+')
			c = *s++;
	}
	if ((base == 0 || base == 16) &&
	    c == '0' && (*s == 'x' || *s == 'X')) {
		c = s[1];
 16102b8:	e5d3e001 	ldrb	lr, [r3, #1]
		s += 2;
		base = 16;
 16102bc:	e1a0a002 	mov	sl, r2
			c = *s++;
	}
	if ((base == 0 || base == 16) &&
	    c == '0' && (*s == 'x' || *s == 'X')) {
		c = s[1];
		s += 2;
 16102c0:	e2833002 	add	r3, r3, #2
 16102c4:	e3a0900f 	mov	r9, #15
 16102c8:	e3e0020f 	mvn	r0, #-268435456	; 0xf0000000
 16102cc:	eaffffc4 	b	16101e4 <strtoul+0xa8>

016102d0 <ctrlc>:
 16102d0:	e3a00000 	mov	r0, #0
 16102d4:	e12fff1e 	bx	lr

016102d8 <printf>:
 16102d8:	e92d000f 	push	{r0, r1, r2, r3}
 16102dc:	e3a00001 	mov	r0, #1
 16102e0:	e28dd010 	add	sp, sp, #16
 16102e4:	e12fff1e 	bx	lr

016102e8 <memcpy>:
 16102e8:	e3520000 	cmp	r2, #0
 16102ec:	012fff1e 	bxeq	lr
 16102f0:	e0812002 	add	r2, r1, r2
 16102f4:	e2403001 	sub	r3, r0, #1
 16102f8:	e4d1c001 	ldrb	ip, [r1], #1
 16102fc:	e5e3c001 	strb	ip, [r3, #1]!
 1610300:	e1510002 	cmp	r1, r2
 1610304:	1afffffb 	bne	16102f8 <memcpy+0x10>
 1610308:	e12fff1e 	bx	lr

0161030c <memcmp>:
 161030c:	e3520000 	cmp	r2, #0
 1610310:	0a000011 	beq	161035c <memcmp+0x50>
 1610314:	e5d03000 	ldrb	r3, [r0]
 1610318:	e1a0c000 	mov	ip, r0
 161031c:	e5d10000 	ldrb	r0, [r1]
 1610320:	e0530000 	subs	r0, r3, r0
 1610324:	112fff1e 	bxne	lr
 1610328:	e08c2002 	add	r2, ip, r2
 161032c:	e28cc001 	add	ip, ip, #1
 1610330:	e52de004 	push	{lr}		; (str lr, [sp, #-4]!)
 1610334:	ea000003 	b	1610348 <memcmp+0x3c>
 1610338:	e4dc3001 	ldrb	r3, [ip], #1
 161033c:	e5f1e001 	ldrb	lr, [r1, #1]!
 1610340:	e053300e 	subs	r3, r3, lr
 1610344:	1a000002 	bne	1610354 <memcmp+0x48>
 1610348:	e15c0002 	cmp	ip, r2
 161034c:	1afffff9 	bne	1610338 <memcmp+0x2c>
 1610350:	e49df004 	pop	{pc}		; (ldr pc, [sp], #4)
 1610354:	e1a00003 	mov	r0, r3
 1610358:	e49df004 	pop	{pc}		; (ldr pc, [sp], #4)
 161035c:	e1a00002 	mov	r0, r2
 1610360:	e12fff1e 	bx	lr

01610364 <do_verify>:
 1610364:	e92d40f0 	push	{r4, r5, r6, r7, lr}
 1610368:	e30f3fff 	movw	r3, #65535	; 0xffff
 161036c:	e340316f 	movt	r3, #367	; 0x16f
 1610370:	e24ddf89 	sub	sp, sp, #548	; 0x224
 1610374:	e3a02c01 	mov	r2, #256	; 0x100
 1610378:	e3a01000 	mov	r1, #0
 161037c:	e28d0020 	add	r0, sp, #32
 1610380:	e513400f 	ldr	r4, [r3, #-15]
 1610384:	eb00056d 	bl	1611940 <memset>
 1610388:	e3a02c01 	mov	r2, #256	; 0x100
 161038c:	e3a01000 	mov	r1, #0
 1610390:	e28d0e12 	add	r0, sp, #288	; 0x120
 1610394:	e3a06000 	mov	r6, #0
 1610398:	eb000568 	bl	1611940 <memset>
 161039c:	e30234b4 	movw	r3, #9396	; 0x24b4
 16103a0:	e3403161 	movt	r3, #353	; 0x161
 16103a4:	e1a05003 	mov	r5, r3
 16103a8:	e1a0e00d 	mov	lr, sp
 16103ac:	e28dc010 	add	ip, sp, #16
 16103b0:	e3e0704f 	mvn	r7, #79	; 0x4f
 16103b4:	e5930000 	ldr	r0, [r3]
 16103b8:	e5931004 	ldr	r1, [r3, #4]
 16103bc:	e5932008 	ldr	r2, [r3, #8]
 16103c0:	e593300c 	ldr	r3, [r3, #12]
 16103c4:	e8ae000f 	stmia	lr!, {r0, r1, r2, r3}
 16103c8:	e5b50010 	ldr	r0, [r5, #16]!
 16103cc:	e3a0e011 	mov	lr, #17
 16103d0:	e5951004 	ldr	r1, [r5, #4]
 16103d4:	e5952008 	ldr	r2, [r5, #8]
 16103d8:	e595300c 	ldr	r3, [r5, #12]
 16103dc:	e3a0502d 	mov	r5, #45	; 0x2d
 16103e0:	e8ac000f 	stmia	ip!, {r0, r1, r2, r3}
 16103e4:	e1a01006 	mov	r1, r6
 16103e8:	e3a02c01 	mov	r2, #256	; 0x100
 16103ec:	e28d0020 	add	r0, sp, #32
 16103f0:	e5cde011 	strb	lr, [sp, #17]
 16103f4:	e3a0c012 	mov	ip, #18
 16103f8:	e5cde01b 	strb	lr, [sp, #27]
 16103fc:	e3a0301a 	mov	r3, #26
 1610400:	e5cd5012 	strb	r5, [sp, #18]
 1610404:	e3e0e03b 	mvn	lr, #59	; 0x3b
 1610408:	e5cdc013 	strb	ip, [sp, #19]
 161040c:	e5cd3014 	strb	r3, [sp, #20]
 1610410:	e3a0c023 	mov	ip, #35	; 0x23
 1610414:	e3e0307c 	mvn	r3, #124	; 0x7c
 1610418:	e5cde015 	strb	lr, [sp, #21]
 161041c:	e5cdc016 	strb	ip, [sp, #22]
 1610420:	e3a0e033 	mov	lr, #51	; 0x33
 1610424:	e3e0c05d 	mvn	ip, #93	; 0x5d
 1610428:	e5cd3017 	strb	r3, [sp, #23]
 161042c:	e5cde018 	strb	lr, [sp, #24]
 1610430:	e3a0300f 	mov	r3, #15
 1610434:	e3a0e00b 	mov	lr, #11
 1610438:	e5cdc019 	strb	ip, [sp, #25]
 161043c:	e5cde01c 	strb	lr, [sp, #28]
 1610440:	e3a0c064 	mov	ip, #100	; 0x64
 1610444:	e5cd301a 	strb	r3, [sp, #26]
 1610448:	e3a0307b 	mov	r3, #123	; 0x7b
 161044c:	e5cdc01e 	strb	ip, [sp, #30]
 1610450:	e5cd301f 	strb	r3, [sp, #31]
 1610454:	e5cd601d 	strb	r6, [sp, #29]
 1610458:	e5cd7010 	strb	r7, [sp, #16]
 161045c:	eb000537 	bl	1611940 <memset>
 1610460:	e3a02c01 	mov	r2, #256	; 0x100
 1610464:	e1a01006 	mov	r1, r6
 1610468:	e28d0e12 	add	r0, sp, #288	; 0x120
 161046c:	eb000533 	bl	1611940 <memset>
 1610470:	e30204d4 	movw	r0, #9428	; 0x24d4
 1610474:	e3400161 	movt	r0, #353	; 0x161
 1610478:	eb00048d 	bl	16116b4 <prints>
 161047c:	e3a01004 	mov	r1, #4
 1610480:	e1a00004 	mov	r0, r4
 1610484:	eb0000ec 	bl	161083c <flush_cache>
 1610488:	e30204f4 	movw	r0, #9460	; 0x24f4
 161048c:	e3400161 	movt	r0, #353	; 0x161
 1610490:	eb000487 	bl	16116b4 <prints>
 1610494:	e3020514 	movw	r0, #9492	; 0x2514
 1610498:	e3400161 	movt	r0, #353	; 0x161
 161049c:	eb000484 	bl	16116b4 <prints>
 16104a0:	eb00045d 	bl	161161c <sync>
 16104a4:	e3a01010 	mov	r1, #16
 16104a8:	e3020a28 	movw	r0, #10792	; 0x2a28
 16104ac:	e3400162 	movt	r0, #354	; 0x162
 16104b0:	eb0000e1 	bl	161083c <flush_cache>
 16104b4:	e3a01010 	mov	r1, #16
 16104b8:	e1a0000d 	mov	r0, sp
 16104bc:	eb0000de 	bl	161083c <flush_cache>
 16104c0:	e3a01010 	mov	r1, #16
 16104c4:	e28d0010 	add	r0, sp, #16
 16104c8:	eb0000db 	bl	161083c <flush_cache>
 16104cc:	e28d3010 	add	r3, sp, #16
 16104d0:	e1a0200d 	mov	r2, sp
 16104d4:	e3a01010 	mov	r1, #16
 16104d8:	e3020a28 	movw	r0, #10792	; 0x2a28
 16104dc:	e3400162 	movt	r0, #354	; 0x162
 16104e0:	eb000243 	bl	1610df4 <AES_ECB_decrypt>
 16104e4:	e3a01010 	mov	r1, #16
 16104e8:	e1a0000d 	mov	r0, sp
 16104ec:	eb0000d2 	bl	161083c <flush_cache>
 16104f0:	e59d0000 	ldr	r0, [sp]
 16104f4:	eb000158 	bl	1610a5c <swap_endian>
 16104f8:	e58d0000 	str	r0, [sp]
 16104fc:	e59d0004 	ldr	r0, [sp, #4]
 1610500:	eb000155 	bl	1610a5c <swap_endian>
 1610504:	e58d0004 	str	r0, [sp, #4]
 1610508:	e59d0008 	ldr	r0, [sp, #8]
 161050c:	eb000152 	bl	1610a5c <swap_endian>
 1610510:	e58d0008 	str	r0, [sp, #8]
 1610514:	e59d000c 	ldr	r0, [sp, #12]
 1610518:	eb00014f 	bl	1610a5c <swap_endian>
 161051c:	e314000f 	tst	r4, #15
 1610520:	13c4100f 	bicne	r1, r4, #15
 1610524:	01a01004 	moveq	r1, r4
 1610528:	12811001 	addne	r1, r1, #1
 161052c:	e3a02615 	mov	r2, #22020096	; 0x1500000
 1610530:	e1a0300d 	mov	r3, sp
 1610534:	e58d000c 	str	r0, [sp, #12]
 1610538:	e3a00617 	mov	r0, #24117248	; 0x1700000
 161053c:	eb0001e4 	bl	1610cd4 <AES_CBC_decrypt>
 1610540:	e3a01010 	mov	r1, #16
 1610544:	e3a00615 	mov	r0, #22020096	; 0x1500000
 1610548:	eb0000bb 	bl	161083c <flush_cache>
 161054c:	e3a01010 	mov	r1, #16
 1610550:	e1a00004 	mov	r0, r4
 1610554:	eb0000b8 	bl	161083c <flush_cache>
 1610558:	e244324f 	sub	r3, r4, #-268435452	; 0xf0000004
 161055c:	e24336eb 	sub	r3, r3, #246415360	; 0xeb00000
 1610560:	e3a01004 	mov	r1, #4
 1610564:	e5935000 	ldr	r5, [r3]
 1610568:	e1a00005 	mov	r0, r5
 161056c:	eb0000b2 	bl	161083c <flush_cache>
 1610570:	e1a00005 	mov	r0, r5
 1610574:	eb000138 	bl	1610a5c <swap_endian>
 1610578:	e3a01004 	mov	r1, #4
 161057c:	e1a051a0 	lsr	r5, r0, #3
 1610580:	eb0000ad 	bl	161083c <flush_cache>
 1610584:	e3a01004 	mov	r1, #4
 1610588:	e1a00005 	mov	r0, r5
 161058c:	eb0000aa 	bl	161083c <flush_cache>
 1610590:	e3a03000 	mov	r3, #0
 1610594:	e28d2020 	add	r2, sp, #32
 1610598:	e1a01005 	mov	r1, r5
 161059c:	e3a00615 	mov	r0, #22020096	; 0x1500000
 16105a0:	eb000377 	bl	1611384 <SHA256_hash>
 16105a4:	e3a01010 	mov	r1, #16
 16105a8:	e28d0020 	add	r0, sp, #32
 16105ac:	eb0000a2 	bl	161083c <flush_cache>
 16105b0:	eb000419 	bl	161161c <sync>
 16105b4:	e28d2e12 	add	r2, sp, #288	; 0x120
 16105b8:	e2840617 	add	r0, r4, #24117248	; 0x1700000
 16105bc:	e3021924 	movw	r1, #10532	; 0x2924
 16105c0:	e3401162 	movt	r1, #354	; 0x162
 16105c4:	eb00030f 	bl	1611208 <do_RSA>
 16105c8:	eb000413 	bl	161161c <sync>
 16105cc:	e5dd2120 	ldrb	r2, [sp, #288]	; 0x120
 16105d0:	e5dd3020 	ldrb	r3, [sp, #32]
 16105d4:	e1520003 	cmp	r2, r3
 16105d8:	1a00000a 	bne	1610608 <do_verify+0x2a4>
 16105dc:	e28dcf87 	add	ip, sp, #540	; 0x21c
 16105e0:	e28d3e12 	add	r3, sp, #288	; 0x120
 16105e4:	e28d2020 	add	r2, sp, #32
 16105e8:	e28cc003 	add	ip, ip, #3
 16105ec:	ea000001 	b	16105f8 <do_verify+0x294>
 16105f0:	e153000c 	cmp	r3, ip
 16105f4:	0a000009 	beq	1610620 <do_verify+0x2bc>
 16105f8:	e5f30001 	ldrb	r0, [r3, #1]!
 16105fc:	e5f21001 	ldrb	r1, [r2, #1]!
 1610600:	e1500001 	cmp	r0, r1
 1610604:	0afffff9 	beq	16105f0 <do_verify+0x28c>
 1610608:	e302052c 	movw	r0, #9516	; 0x252c
 161060c:	e3400161 	movt	r0, #353	; 0x161
 1610610:	eb000427 	bl	16116b4 <prints>
 1610614:	e3e00000 	mvn	r0, #0
 1610618:	e28ddf89 	add	sp, sp, #548	; 0x224
 161061c:	e8bd80f0 	pop	{r4, r5, r6, r7, pc}
 1610620:	e3020520 	movw	r0, #9504	; 0x2520
 1610624:	e3400161 	movt	r0, #353	; 0x161
 1610628:	eb000421 	bl	16116b4 <prints>
 161062c:	e3a00001 	mov	r0, #1
 1610630:	e28ddf89 	add	sp, sp, #548	; 0x224
 1610634:	e8bd80f0 	pop	{r4, r5, r6, r7, pc}

01610638 <do_go_exec>:
 1610638:	e1a0c001 	mov	ip, r1
 161063c:	e1a03000 	mov	r3, r0
 1610640:	e1a01002 	mov	r1, r2
 1610644:	e1a0000c 	mov	r0, ip
 1610648:	e12fff13 	bx	r3

0161064c <verifymain>:
 161064c:	e3023bb8 	movw	r3, #11192	; 0x2bb8
 1610650:	e3403162 	movt	r3, #354	; 0x162
 1610654:	e92d4070 	push	{r4, r5, r6, lr}
 1610658:	e3a04000 	mov	r4, #0
 161065c:	e1a05001 	mov	r5, r1
 1610660:	e5834000 	str	r4, [r3]
 1610664:	eb0003f3 	bl	1611638 <init_uart>
 1610668:	e1a00004 	mov	r0, r4
 161066c:	eb000406 	bl	161168c <set_focus_uart>
 1610670:	e1a00005 	mov	r0, r5
 1610674:	ebffff3a 	bl	1610364 <do_verify>
 1610678:	e3500001 	cmp	r0, #1
 161067c:	0302053c 	movweq	r0, #9532	; 0x253c
 1610680:	13020560 	movwne	r0, #9568	; 0x2560
 1610684:	03400161 	movteq	r0, #353	; 0x161
 1610688:	13400161 	movtne	r0, #353	; 0x161
 161068c:	eb000408 	bl	16116b4 <prints>
 1610690:	e3a00000 	mov	r0, #0
 1610694:	e8bd8070 	pop	{r4, r5, r6, pc}

01610698 <v7_maint_dcache_all>:
 1610698:	e92d43f0 	push	{r4, r5, r6, r7, r8, r9, lr}
 161069c:	ee307f30 	mrc	15, 1, r7, cr0, cr0, {1}
 16106a0:	e3a0e000 	mov	lr, #0
 16106a4:	e1a0500e 	mov	r5, lr
 16106a8:	ea000003 	b	16106bc <v7_maint_dcache_all+0x24>
 16106ac:	e28ee003 	add	lr, lr, #3
 16106b0:	e2855001 	add	r5, r5, #1
 16106b4:	e35e0015 	cmp	lr, #21
 16106b8:	0a000025 	beq	1610754 <v7_maint_dcache_all+0xbc>
 16106bc:	e1a03e37 	lsr	r3, r7, lr
 16106c0:	e2033007 	and	r3, r3, #7
 16106c4:	e2433002 	sub	r3, r3, #2
 16106c8:	e3530002 	cmp	r3, #2
 16106cc:	8afffff6 	bhi	16106ac <v7_maint_dcache_all+0x14>
 16106d0:	e1a06085 	lsl	r6, r5, #1
 16106d4:	ee406f10 	mcr	15, 2, r6, cr0, cr0, {0}
 16106d8:	ee304f10 	mrc	15, 1, r4, cr0, cr0, {0}
 16106dc:	e7e991d4 	ubfx	r9, r4, #3, #10
 16106e0:	e2042007 	and	r2, r4, #7
 16106e4:	e289c001 	add	ip, r9, #1
 16106e8:	e2822004 	add	r2, r2, #4
 16106ec:	e1a0300c 	mov	r3, ip
 16106f0:	e7ee46d4 	ubfx	r4, r4, #13, #15
 16106f4:	e3e01000 	mvn	r1, #0
 16106f8:	e1b030a3 	lsrs	r3, r3, #1
 16106fc:	e2811001 	add	r1, r1, #1
 1610700:	1afffffc 	bne	16106f8 <v7_maint_dcache_all+0x60>
 1610704:	e11c0009 	tst	ip, r9
 1610708:	12811001 	addne	r1, r1, #1
 161070c:	e3500001 	cmp	r0, #1
 1610710:	e2618020 	rsb	r8, r1, #32
 1610714:	0a000011 	beq	1610760 <v7_maint_dcache_all+0xc8>
 1610718:	e3500002 	cmp	r0, #2
 161071c:	1affffe2 	bne	16106ac <v7_maint_dcache_all+0x14>
 1610720:	e186c819 	orr	ip, r6, r9, lsl r8
 1610724:	e1a03004 	mov	r3, r4
 1610728:	e18c1213 	orr	r1, ip, r3, lsl r2
 161072c:	ee071f5e 	mcr	15, 0, r1, cr7, cr14, {2}
 1610730:	e2533001 	subs	r3, r3, #1
 1610734:	2afffffb 	bcs	1610728 <v7_maint_dcache_all+0x90>
 1610738:	e2599001 	subs	r9, r9, #1
 161073c:	2afffff7 	bcs	1610720 <v7_maint_dcache_all+0x88>
 1610740:	f57ff04f 	dsb	sy
 1610744:	e28ee003 	add	lr, lr, #3
 1610748:	e2855001 	add	r5, r5, #1
 161074c:	e35e0015 	cmp	lr, #21
 1610750:	1affffd9 	bne	16106bc <v7_maint_dcache_all+0x24>
 1610754:	e8bd83f0 	pop	{r4, r5, r6, r7, r8, r9, pc}
 1610758:	e2599001 	subs	r9, r9, #1
 161075c:	3afffff7 	bcc	1610740 <v7_maint_dcache_all+0xa8>
 1610760:	e186c819 	orr	ip, r6, r9, lsl r8
 1610764:	e1a03004 	mov	r3, r4
 1610768:	e18c1213 	orr	r1, ip, r3, lsl r2
 161076c:	ee071f56 	mcr	15, 0, r1, cr7, cr6, {2}
 1610770:	e2533001 	subs	r3, r3, #1
 1610774:	2afffffb 	bcs	1610768 <v7_maint_dcache_all+0xd0>
 1610778:	eafffff6 	b	1610758 <v7_maint_dcache_all+0xc0>

0161077c <invalidate_icache_all>:
 161077c:	e3a03000 	mov	r3, #0
 1610780:	ee073f15 	mcr	15, 0, r3, cr7, cr5, {0}
 1610784:	ee073fd5 	mcr	15, 0, r3, cr7, cr5, {6}
 1610788:	f57ff04f 	dsb	sy
 161078c:	f57ff06f 	isb	sy
 1610790:	e12fff1e 	bx	lr

01610794 <__v7_outer_cache_enable>:
 1610794:	e12fff1e 	bx	lr

01610798 <__v7_outer_cache_disable>:
 1610798:	e12fff1e 	bx	lr

0161079c <__v7_outer_cache_flush_all>:
 161079c:	e12fff1e 	bx	lr

016107a0 <flush_dcache_all>:
 16107a0:	e92d4010 	push	{r4, lr}
 16107a4:	e3a00002 	mov	r0, #2
 16107a8:	ebffffba 	bl	1610698 <v7_maint_dcache_all>
 16107ac:	e8bd4010 	pop	{r4, lr}
 16107b0:	eafffff9 	b	161079c <__v7_outer_cache_flush_all>

016107b4 <__v7_outer_cache_inval_all>:
 16107b4:	e12fff1e 	bx	lr

016107b8 <invalidate_dcache_all>:
 16107b8:	e92d4010 	push	{r4, lr}
 16107bc:	e3a00001 	mov	r0, #1
 16107c0:	ebffffb4 	bl	1610698 <v7_maint_dcache_all>
 16107c4:	e8bd4010 	pop	{r4, lr}
 16107c8:	eafffff9 	b	16107b4 <__v7_outer_cache_inval_all>

016107cc <arm_init_before_mmu>:
 16107cc:	e92d4010 	push	{r4, lr}
 16107d0:	ebffffef 	bl	1610794 <__v7_outer_cache_enable>
 16107d4:	e3a00001 	mov	r0, #1
 16107d8:	ebffffae 	bl	1610698 <v7_maint_dcache_all>
 16107dc:	ebfffff4 	bl	16107b4 <__v7_outer_cache_inval_all>
 16107e0:	e3a03000 	mov	r3, #0
 16107e4:	ee083f17 	mcr	15, 0, r3, cr8, cr7, {0}
 16107e8:	ee083f16 	mcr	15, 0, r3, cr8, cr6, {0}
 16107ec:	ee083f15 	mcr	15, 0, r3, cr8, cr5, {0}
 16107f0:	f57ff04f 	dsb	sy
 16107f4:	f57ff06f 	isb	sy
 16107f8:	e8bd8010 	pop	{r4, pc}

016107fc <__v7_outer_cache_flush_range>:
 16107fc:	e12fff1e 	bx	lr

01610800 <flush_dcache_range>:
 1610800:	ee302f10 	mrc	15, 1, r2, cr0, cr0, {0}
 1610804:	e2022007 	and	r2, r2, #7
 1610808:	e3a03001 	mov	r3, #1
 161080c:	e2822004 	add	r2, r2, #4
 1610810:	e1a02213 	lsl	r2, r3, r2
 1610814:	e2623000 	rsb	r3, r2, #0
 1610818:	e0033000 	and	r3, r3, r0
 161081c:	e1510003 	cmp	r1, r3
 1610820:	3a000003 	bcc	1610834 <flush_dcache_range+0x34>
 1610824:	ee073f3e 	mcr	15, 0, r3, cr7, cr14, {1}
 1610828:	e0833002 	add	r3, r3, r2
 161082c:	e1510003 	cmp	r1, r3
 1610830:	2afffffb 	bcs	1610824 <flush_dcache_range+0x24>
 1610834:	f57ff04f 	dsb	sy
 1610838:	eaffffef 	b	16107fc <__v7_outer_cache_flush_range>

0161083c <flush_cache>:
 161083c:	e0801001 	add	r1, r0, r1
 1610840:	eaffffee 	b	1610800 <flush_dcache_range>

01610844 <__v7_outer_cache_inval_range>:
 1610844:	e12fff1e 	bx	lr

01610848 <invalidate_dcache_range>:
 1610848:	e52de004 	push	{lr}		; (str lr, [sp, #-4]!)
 161084c:	ee30cf10 	mrc	15, 1, ip, cr0, cr0, {0}
 1610850:	e20cc007 	and	ip, ip, #7
 1610854:	e3a03001 	mov	r3, #1
 1610858:	e28cc004 	add	ip, ip, #4
 161085c:	e1a0cc13 	lsl	ip, r3, ip
 1610860:	e24ce001 	sub	lr, ip, #1
 1610864:	e11e0000 	tst	lr, r0
 1610868:	12402001 	subne	r2, r0, #1
 161086c:	126c3000 	rsbne	r3, ip, #0
 1610870:	1082200c 	addne	r2, r2, ip
 1610874:	01a03000 	moveq	r3, r0
 1610878:	10033002 	andne	r3, r3, r2
 161087c:	e11e0001 	tst	lr, r1
 1610880:	126c2000 	rsbne	r2, ip, #0
 1610884:	01a02001 	moveq	r2, r1
 1610888:	10022001 	andne	r2, r2, r1
 161088c:	e1520003 	cmp	r2, r3
 1610890:	3a000003 	bcc	16108a4 <invalidate_dcache_range+0x5c>
 1610894:	ee073f36 	mcr	15, 0, r3, cr7, cr6, {1}
 1610898:	e083300c 	add	r3, r3, ip
 161089c:	e1530002 	cmp	r3, r2
 16108a0:	9afffffb 	bls	1610894 <invalidate_dcache_range+0x4c>
 16108a4:	f57ff04f 	dsb	sy
 16108a8:	e49de004 	pop	{lr}		; (ldr lr, [sp], #4)
 16108ac:	eaffffe4 	b	1610844 <__v7_outer_cache_inval_range>

016108b0 <alloc_mcp_descriptor>:
 16108b0:	e92d4070 	push	{r4, r5, r6, lr}
 16108b4:	e3024bb8 	movw	r4, #11192	; 0x2bb8
 16108b8:	e3404162 	movt	r4, #354	; 0x162
 16108bc:	e30f3837 	movw	r3, #63543	; 0xf837
 16108c0:	e34f3ebf 	movt	r3, #65215	; 0xfebf
 16108c4:	e30f27fe 	movw	r2, #63486	; 0xf7fe
 16108c8:	e34f2ebf 	movt	r2, #65215	; 0xfebf
 16108cc:	e5945000 	ldr	r5, [r4]
 16108d0:	e0853003 	add	r3, r5, r3
 16108d4:	e3550000 	cmp	r5, #0
 16108d8:	11530002 	cmpne	r3, r2
 16108dc:	8a000006 	bhi	16108fc <alloc_mcp_descriptor+0x4c>
 16108e0:	e3a03505 	mov	r3, #20971520	; 0x1400000
 16108e4:	e3a02b02 	mov	r2, #2048	; 0x800
 16108e8:	e1a00003 	mov	r0, r3
 16108ec:	e3a01000 	mov	r1, #0
 16108f0:	e5843000 	str	r3, [r4]
 16108f4:	eb000411 	bl	1611940 <memset>
 16108f8:	e5945000 	ldr	r5, [r4]
 16108fc:	e3a02038 	mov	r2, #56	; 0x38
 1610900:	e3a01000 	mov	r1, #0
 1610904:	e1a00005 	mov	r0, r5
 1610908:	eb00040c 	bl	1611940 <memset>
 161090c:	e5943000 	ldr	r3, [r4]
 1610910:	e1a00005 	mov	r0, r5
 1610914:	e2833c01 	add	r3, r3, #256	; 0x100
 1610918:	e5843000 	str	r3, [r4]
 161091c:	e8bd8070 	pop	{r4, r5, r6, pc}

01610920 <load_otp>:
 1610920:	e3a01a05 	mov	r1, #20480	; 0x5000
 1610924:	e3491801 	movt	r1, #38913	; 0x9801
 1610928:	e3a00001 	mov	r0, #1
 161092c:	e1a02001 	mov	r2, r1
 1610930:	e3a03801 	mov	r3, #65536	; 0x10000
 1610934:	e581019c 	str	r0, [r1, #412]	; 0x19c
 1610938:	e592019c 	ldr	r0, [r2, #412]	; 0x19c
 161093c:	e2100001 	ands	r0, r0, #1
 1610940:	012fff1e 	bxeq	lr
 1610944:	e2533001 	subs	r3, r3, #1
 1610948:	1afffffa 	bne	1610938 <load_otp+0x18>
 161094c:	e3e00000 	mvn	r0, #0
 1610950:	e12fff1e 	bx	lr

01610954 <do_mcp>:
 1610954:	e2503000 	subs	r3, r0, #0
 1610958:	0a00003d 	beq	1610a54 <do_mcp+0x100>
 161095c:	e92d4070 	push	{r4, r5, r6, lr}
 1610960:	e3a05a05 	mov	r5, #20480	; 0x5000
 1610964:	e3495801 	movt	r5, #38913	; 0x9801
 1610968:	e3a0e002 	mov	lr, #2
 161096c:	e283c070 	add	ip, r3, #112	; 0x70
 1610970:	e3a02001 	mov	r2, #1
 1610974:	e3a010fe 	mov	r1, #254	; 0xfe
 1610978:	e5852934 	str	r2, [r5, #2356]	; 0x934
 161097c:	e2832038 	add	r2, r3, #56	; 0x38
 1610980:	e5851908 	str	r1, [r5, #2312]	; 0x908
 1610984:	e3a01038 	mov	r1, #56	; 0x38
 1610988:	e585e900 	str	lr, [r5, #2304]	; 0x900
 161098c:	e585390c 	str	r3, [r5, #2316]	; 0x90c
 1610990:	e585c910 	str	ip, [r5, #2320]	; 0x910
 1610994:	e5853914 	str	r3, [r5, #2324]	; 0x914
 1610998:	e5852918 	str	r2, [r5, #2328]	; 0x918
 161099c:	ebffffa6 	bl	161083c <flush_cache>
 16109a0:	eb00031d 	bl	161161c <sync>
 16109a4:	f57ff06f 	isb	sy
 16109a8:	e3a03003 	mov	r3, #3
 16109ac:	e5853900 	str	r3, [r5, #2304]	; 0x900
 16109b0:	eb000319 	bl	161161c <sync>
 16109b4:	e5953904 	ldr	r3, [r5, #2308]	; 0x904
 16109b8:	e3130006 	tst	r3, #6
 16109bc:	030f4fff 	movweq	r4, #65535	; 0xffff
 16109c0:	0340407f 	movteq	r4, #127	; 0x7f
 16109c4:	0a000002 	beq	16109d4 <do_mcp+0x80>
 16109c8:	ea000009 	b	16109f4 <do_mcp+0xa0>
 16109cc:	e2544001 	subs	r4, r4, #1
 16109d0:	0a000019 	beq	1610a3c <do_mcp+0xe8>
 16109d4:	e3a00001 	mov	r0, #1
 16109d8:	eb0002e2 	bl	1611568 <mdelay>
 16109dc:	eb00030e 	bl	161161c <sync>
 16109e0:	e5952904 	ldr	r2, [r5, #2308]	; 0x904
 16109e4:	e3a03a05 	mov	r3, #20480	; 0x5000
 16109e8:	e3493801 	movt	r3, #38913	; 0x9801
 16109ec:	e3120006 	tst	r2, #6
 16109f0:	0afffff5 	beq	16109cc <do_mcp+0x78>
 16109f4:	e3a03a05 	mov	r3, #20480	; 0x5000
 16109f8:	e3493801 	movt	r3, #38913	; 0x9801
 16109fc:	e5932904 	ldr	r2, [r3, #2308]	; 0x904
 1610a00:	e3120002 	tst	r2, #2
 1610a04:	13a00000 	movne	r0, #0
 1610a08:	0a000006 	beq	1610a28 <do_mcp+0xd4>
 1610a0c:	e3a03a05 	mov	r3, #20480	; 0x5000
 1610a10:	e3493801 	movt	r3, #38913	; 0x9801
 1610a14:	e3a01002 	mov	r1, #2
 1610a18:	e3a02006 	mov	r2, #6
 1610a1c:	e5831900 	str	r1, [r3, #2304]	; 0x900
 1610a20:	e5832904 	str	r2, [r3, #2308]	; 0x904
 1610a24:	e8bd8070 	pop	{r4, r5, r6, pc}
 1610a28:	e5933904 	ldr	r3, [r3, #2308]	; 0x904
 1610a2c:	e3130004 	tst	r3, #4
 1610a30:	13e00000 	mvnne	r0, #0
 1610a34:	03e00001 	mvneq	r0, #1
 1610a38:	eafffff3 	b	1610a0c <do_mcp+0xb8>
 1610a3c:	e3a01002 	mov	r1, #2
 1610a40:	e3a02006 	mov	r2, #6
 1610a44:	e5831900 	str	r1, [r3, #2304]	; 0x900
 1610a48:	e3e00002 	mvn	r0, #2
 1610a4c:	e5832904 	str	r2, [r3, #2308]	; 0x904
 1610a50:	e8bd8070 	pop	{r4, r5, r6, pc}
 1610a54:	e3e00000 	mvn	r0, #0
 1610a58:	e12fff1e 	bx	lr

01610a5c <swap_endian>:
 1610a5c:	e6bf0f30 	rev	r0, r0
 1610a60:	e12fff1e 	bx	lr

01610a64 <reverse_rsa_signature>:
 1610a64:	e92d4030 	push	{r4, r5, lr}
 1610a68:	e2801206 	add	r1, r0, #1610612736	; 0x60000000
 1610a6c:	e30fefff 	movw	lr, #65535	; 0xffff
 1610a70:	e340e006 	movt	lr, #6
 1610a74:	e24dd014 	sub	sp, sp, #20
 1610a78:	e2814010 	add	r4, r1, #16
 1610a7c:	e1a0c00d 	mov	ip, sp
 1610a80:	e1a03001 	mov	r3, r1
 1610a84:	e283231a 	add	r2, r3, #1744830464	; 0x68000000
 1610a88:	e152000e 	cmp	r2, lr
 1610a8c:	8a00003f 	bhi	1610b90 <reverse_rsa_signature+0x12c>
 1610a90:	e5932000 	ldr	r2, [r3]
 1610a94:	e2833004 	add	r3, r3, #4
 1610a98:	e6bf2f32 	rev	r2, r2
 1610a9c:	e1530004 	cmp	r3, r4
 1610aa0:	e48c2004 	str	r2, [ip], #4
 1610aa4:	1afffff6 	bne	1610a84 <reverse_rsa_signature+0x20>
 1610aa8:	e2803332 	add	r3, r0, #-939524096	; 0xc8000000
 1610aac:	e283e01c 	add	lr, r3, #28
 1610ab0:	e35e0807 	cmp	lr, #458752	; 0x70000
 1610ab4:	2a000080 	bcs	1610cbc <reverse_rsa_signature+0x258>
 1610ab8:	e591201c 	ldr	r2, [r1, #28]
 1610abc:	e3530807 	cmp	r3, #458752	; 0x70000
 1610ac0:	e6bf2f32 	rev	r2, r2
 1610ac4:	2a000076 	bcs	1610ca4 <reverse_rsa_signature+0x240>
 1610ac8:	e5812000 	str	r2, [r1]
 1610acc:	e2834018 	add	r4, r3, #24
 1610ad0:	e3540807 	cmp	r4, #458752	; 0x70000
 1610ad4:	2a00006c 	bcs	1610c8c <reverse_rsa_signature+0x228>
 1610ad8:	e591c018 	ldr	ip, [r1, #24]
 1610adc:	e2832004 	add	r2, r3, #4
 1610ae0:	e6bfcf3c 	rev	ip, ip
 1610ae4:	e3520807 	cmp	r2, #458752	; 0x70000
 1610ae8:	2a000061 	bcs	1610c74 <reverse_rsa_signature+0x210>
 1610aec:	e2802246 	add	r2, r0, #1610612740	; 0x60000004
 1610af0:	e582c000 	str	ip, [r2]
 1610af4:	e2835014 	add	r5, r3, #20
 1610af8:	e3550807 	cmp	r5, #458752	; 0x70000
 1610afc:	2a000056 	bcs	1610c5c <reverse_rsa_signature+0x1f8>
 1610b00:	e591c014 	ldr	ip, [r1, #20]
 1610b04:	e2832008 	add	r2, r3, #8
 1610b08:	e6bfcf3c 	rev	ip, ip
 1610b0c:	e3520807 	cmp	r2, #458752	; 0x70000
 1610b10:	2a00004b 	bcs	1610c44 <reverse_rsa_signature+0x1e0>
 1610b14:	e2802286 	add	r2, r0, #1610612744	; 0x60000008
 1610b18:	e582c000 	str	ip, [r2]
 1610b1c:	e283c010 	add	ip, r3, #16
 1610b20:	e35c0807 	cmp	ip, #458752	; 0x70000
 1610b24:	2a000040 	bcs	1610c2c <reverse_rsa_signature+0x1c8>
 1610b28:	e5912010 	ldr	r2, [r1, #16]
 1610b2c:	e283300c 	add	r3, r3, #12
 1610b30:	e6bf2f32 	rev	r2, r2
 1610b34:	e3530807 	cmp	r3, #458752	; 0x70000
 1610b38:	2a000035 	bcs	1610c14 <reverse_rsa_signature+0x1b0>
 1610b3c:	e28032c6 	add	r3, r0, #1610612748	; 0x6000000c
 1610b40:	e5832000 	str	r2, [r3]
 1610b44:	e35c0807 	cmp	ip, #458752	; 0x70000
 1610b48:	e59d300c 	ldr	r3, [sp, #12]
 1610b4c:	2a00002a 	bcs	1610bfc <reverse_rsa_signature+0x198>
 1610b50:	e5813010 	str	r3, [r1, #16]
 1610b54:	e3550807 	cmp	r5, #458752	; 0x70000
 1610b58:	e59d3008 	ldr	r3, [sp, #8]
 1610b5c:	2a000020 	bcs	1610be4 <reverse_rsa_signature+0x180>
 1610b60:	e5813014 	str	r3, [r1, #20]
 1610b64:	e3540807 	cmp	r4, #458752	; 0x70000
 1610b68:	e59d3004 	ldr	r3, [sp, #4]
 1610b6c:	2a000016 	bcs	1610bcc <reverse_rsa_signature+0x168>
 1610b70:	e5813018 	str	r3, [r1, #24]
 1610b74:	e35e0807 	cmp	lr, #458752	; 0x70000
 1610b78:	e59d3000 	ldr	r3, [sp]
 1610b7c:	2a00000a 	bcs	1610bac <reverse_rsa_signature+0x148>
 1610b80:	e3a00000 	mov	r0, #0
 1610b84:	e581301c 	str	r3, [r1, #28]
 1610b88:	e28dd014 	add	sp, sp, #20
 1610b8c:	e8bd8030 	pop	{r4, r5, pc}
 1610b90:	e2832467 	add	r2, r3, #1728053248	; 0x67000000
 1610b94:	e283520a 	add	r5, r3, #-1610612736	; 0xa0000000
 1610b98:	e282260f 	add	r2, r2, #15728640	; 0xf00000
 1610b9c:	e3520402 	cmp	r2, #33554432	; 0x2000000
 1610ba0:	25952000 	ldrcs	r2, [r5]
 1610ba4:	2affffba 	bcs	1610a94 <reverse_rsa_signature+0x30>
 1610ba8:	eaffffb8 	b	1610a90 <reverse_rsa_signature+0x2c>
 1610bac:	e2802173 	add	r2, r0, #-1073741796	; 0xc000001c
 1610bb0:	e282267f 	add	r2, r2, #133169152	; 0x7f00000
 1610bb4:	e3520402 	cmp	r2, #33554432	; 0x2000000
 1610bb8:	2580301c 	strcs	r3, [r0, #28]
 1610bbc:	3affffef 	bcc	1610b80 <reverse_rsa_signature+0x11c>
 1610bc0:	e3a00000 	mov	r0, #0
 1610bc4:	e28dd014 	add	sp, sp, #20
 1610bc8:	e8bd8030 	pop	{r4, r5, pc}
 1610bcc:	e2802163 	add	r2, r0, #-1073741800	; 0xc0000018
 1610bd0:	e282267f 	add	r2, r2, #133169152	; 0x7f00000
 1610bd4:	e3520402 	cmp	r2, #33554432	; 0x2000000
 1610bd8:	25803018 	strcs	r3, [r0, #24]
 1610bdc:	2affffe4 	bcs	1610b74 <reverse_rsa_signature+0x110>
 1610be0:	eaffffe2 	b	1610b70 <reverse_rsa_signature+0x10c>
 1610be4:	e2802153 	add	r2, r0, #-1073741804	; 0xc0000014
 1610be8:	e282267f 	add	r2, r2, #133169152	; 0x7f00000
 1610bec:	e3520402 	cmp	r2, #33554432	; 0x2000000
 1610bf0:	25803014 	strcs	r3, [r0, #20]
 1610bf4:	2affffda 	bcs	1610b64 <reverse_rsa_signature+0x100>
 1610bf8:	eaffffd8 	b	1610b60 <reverse_rsa_signature+0xfc>
 1610bfc:	e2802143 	add	r2, r0, #-1073741808	; 0xc0000010
 1610c00:	e282267f 	add	r2, r2, #133169152	; 0x7f00000
 1610c04:	e3520402 	cmp	r2, #33554432	; 0x2000000
 1610c08:	25803010 	strcs	r3, [r0, #16]
 1610c0c:	2affffd0 	bcs	1610b54 <reverse_rsa_signature+0xf0>
 1610c10:	eaffffce 	b	1610b50 <reverse_rsa_signature+0xec>
 1610c14:	e2803133 	add	r3, r0, #-1073741812	; 0xc000000c
 1610c18:	e283367f 	add	r3, r3, #133169152	; 0x7f00000
 1610c1c:	e3530402 	cmp	r3, #33554432	; 0x2000000
 1610c20:	2580200c 	strcs	r2, [r0, #12]
 1610c24:	2affffc6 	bcs	1610b44 <reverse_rsa_signature+0xe0>
 1610c28:	eaffffc3 	b	1610b3c <reverse_rsa_signature+0xd8>
 1610c2c:	e2802143 	add	r2, r0, #-1073741808	; 0xc0000010
 1610c30:	e282267f 	add	r2, r2, #133169152	; 0x7f00000
 1610c34:	e3520402 	cmp	r2, #33554432	; 0x2000000
 1610c38:	25902010 	ldrcs	r2, [r0, #16]
 1610c3c:	2affffba 	bcs	1610b2c <reverse_rsa_signature+0xc8>
 1610c40:	eaffffb8 	b	1610b28 <reverse_rsa_signature+0xc4>
 1610c44:	e2802123 	add	r2, r0, #-1073741816	; 0xc0000008
 1610c48:	e282267f 	add	r2, r2, #133169152	; 0x7f00000
 1610c4c:	e3520402 	cmp	r2, #33554432	; 0x2000000
 1610c50:	2580c008 	strcs	ip, [r0, #8]
 1610c54:	2affffb0 	bcs	1610b1c <reverse_rsa_signature+0xb8>
 1610c58:	eaffffad 	b	1610b14 <reverse_rsa_signature+0xb0>
 1610c5c:	e2802153 	add	r2, r0, #-1073741804	; 0xc0000014
 1610c60:	e282267f 	add	r2, r2, #133169152	; 0x7f00000
 1610c64:	e3520402 	cmp	r2, #33554432	; 0x2000000
 1610c68:	2590c014 	ldrcs	ip, [r0, #20]
 1610c6c:	2affffa4 	bcs	1610b04 <reverse_rsa_signature+0xa0>
 1610c70:	eaffffa2 	b	1610b00 <reverse_rsa_signature+0x9c>
 1610c74:	e2802113 	add	r2, r0, #-1073741820	; 0xc0000004
 1610c78:	e282267f 	add	r2, r2, #133169152	; 0x7f00000
 1610c7c:	e3520402 	cmp	r2, #33554432	; 0x2000000
 1610c80:	2580c004 	strcs	ip, [r0, #4]
 1610c84:	2affff9a 	bcs	1610af4 <reverse_rsa_signature+0x90>
 1610c88:	eaffff97 	b	1610aec <reverse_rsa_signature+0x88>
 1610c8c:	e2802163 	add	r2, r0, #-1073741800	; 0xc0000018
 1610c90:	e282267f 	add	r2, r2, #133169152	; 0x7f00000
 1610c94:	e3520402 	cmp	r2, #33554432	; 0x2000000
 1610c98:	2590c018 	ldrcs	ip, [r0, #24]
 1610c9c:	2affff8e 	bcs	1610adc <reverse_rsa_signature+0x78>
 1610ca0:	eaffff8c 	b	1610ad8 <reverse_rsa_signature+0x74>
 1610ca4:	e280c4c7 	add	ip, r0, #-956301312	; 0xc7000000
 1610ca8:	e28cc60f 	add	ip, ip, #15728640	; 0xf00000
 1610cac:	e35c0402 	cmp	ip, #33554432	; 0x2000000
 1610cb0:	25802000 	strcs	r2, [r0]
 1610cb4:	2affff84 	bcs	1610acc <reverse_rsa_signature+0x68>
 1610cb8:	eaffff82 	b	1610ac8 <reverse_rsa_signature+0x64>
 1610cbc:	e2802173 	add	r2, r0, #-1073741796	; 0xc000001c
 1610cc0:	e282267f 	add	r2, r2, #133169152	; 0x7f00000
 1610cc4:	e3520402 	cmp	r2, #33554432	; 0x2000000
 1610cc8:	2590201c 	ldrcs	r2, [r0, #28]
 1610ccc:	2affff7a 	bcs	1610abc <reverse_rsa_signature+0x58>
 1610cd0:	eaffff78 	b	1610ab8 <reverse_rsa_signature+0x54>

01610cd4 <AES_CBC_decrypt>:
 1610cd4:	e92d41f0 	push	{r4, r5, r6, r7, r8, lr}
 1610cd8:	e1a08000 	mov	r8, r0
 1610cdc:	e1a06001 	mov	r6, r1
 1610ce0:	e1a07002 	mov	r7, r2
 1610ce4:	e1a05003 	mov	r5, r3
 1610ce8:	ebfffef0 	bl	16108b0 <alloc_mcp_descriptor>
 1610cec:	e2504000 	subs	r4, r0, #0
 1610cf0:	0a000017 	beq	1610d54 <AES_CBC_decrypt+0x80>
 1610cf4:	e3550000 	cmp	r5, #0
 1610cf8:	0a00000f 	beq	1610d3c <AES_CBC_decrypt+0x68>
 1610cfc:	e3a03045 	mov	r3, #69	; 0x45
 1610d00:	e5843000 	str	r3, [r4]
 1610d04:	e5953000 	ldr	r3, [r5]
 1610d08:	e5843004 	str	r3, [r4, #4]
 1610d0c:	e5953004 	ldr	r3, [r5, #4]
 1610d10:	e5843008 	str	r3, [r4, #8]
 1610d14:	e5953008 	ldr	r3, [r5, #8]
 1610d18:	e584300c 	str	r3, [r4, #12]
 1610d1c:	e595300c 	ldr	r3, [r5, #12]
 1610d20:	e5843010 	str	r3, [r4, #16]
 1610d24:	e584802c 	str	r8, [r4, #44]	; 0x2c
 1610d28:	e1a00004 	mov	r0, r4
 1610d2c:	e5847030 	str	r7, [r4, #48]	; 0x30
 1610d30:	e5846034 	str	r6, [r4, #52]	; 0x34
 1610d34:	e8bd41f0 	pop	{r4, r5, r6, r7, r8, lr}
 1610d38:	eaffff05 	b	1610954 <do_mcp>
 1610d3c:	ebfffef7 	bl	1610920 <load_otp>
 1610d40:	e3500000 	cmp	r0, #0
 1610d44:	1a000004 	bne	1610d5c <AES_CBC_decrypt+0x88>
 1610d48:	e3013045 	movw	r3, #4165	; 0x1045
 1610d4c:	e5843000 	str	r3, [r4]
 1610d50:	eafffff3 	b	1610d24 <AES_CBC_decrypt+0x50>
 1610d54:	e3e00000 	mvn	r0, #0
 1610d58:	e8bd81f0 	pop	{r4, r5, r6, r7, r8, pc}
 1610d5c:	e3e00001 	mvn	r0, #1
 1610d60:	e8bd81f0 	pop	{r4, r5, r6, r7, r8, pc}

01610d64 <AES_CBC_encrypt>:
 1610d64:	e92d41f0 	push	{r4, r5, r6, r7, r8, lr}
 1610d68:	e1a08000 	mov	r8, r0
 1610d6c:	e1a06001 	mov	r6, r1
 1610d70:	e1a07002 	mov	r7, r2
 1610d74:	e1a05003 	mov	r5, r3
 1610d78:	ebfffecc 	bl	16108b0 <alloc_mcp_descriptor>
 1610d7c:	e2504000 	subs	r4, r0, #0
 1610d80:	0a000017 	beq	1610de4 <AES_CBC_encrypt+0x80>
 1610d84:	e3550000 	cmp	r5, #0
 1610d88:	0a00000f 	beq	1610dcc <AES_CBC_encrypt+0x68>
 1610d8c:	e3a03065 	mov	r3, #101	; 0x65
 1610d90:	e5843000 	str	r3, [r4]
 1610d94:	e5953000 	ldr	r3, [r5]
 1610d98:	e5843004 	str	r3, [r4, #4]
 1610d9c:	e5953004 	ldr	r3, [r5, #4]
 1610da0:	e5843008 	str	r3, [r4, #8]
 1610da4:	e5953008 	ldr	r3, [r5, #8]
 1610da8:	e584300c 	str	r3, [r4, #12]
 1610dac:	e595300c 	ldr	r3, [r5, #12]
 1610db0:	e5843010 	str	r3, [r4, #16]
 1610db4:	e584802c 	str	r8, [r4, #44]	; 0x2c
 1610db8:	e1a00004 	mov	r0, r4
 1610dbc:	e5847030 	str	r7, [r4, #48]	; 0x30
 1610dc0:	e5846034 	str	r6, [r4, #52]	; 0x34
 1610dc4:	e8bd41f0 	pop	{r4, r5, r6, r7, r8, lr}
 1610dc8:	eafffee1 	b	1610954 <do_mcp>
 1610dcc:	ebfffed3 	bl	1610920 <load_otp>
 1610dd0:	e3500000 	cmp	r0, #0
 1610dd4:	1a000004 	bne	1610dec <AES_CBC_encrypt+0x88>
 1610dd8:	e3013065 	movw	r3, #4197	; 0x1065
 1610ddc:	e5843000 	str	r3, [r4]
 1610de0:	eafffff3 	b	1610db4 <AES_CBC_encrypt+0x50>
 1610de4:	e3e00000 	mvn	r0, #0
 1610de8:	e8bd81f0 	pop	{r4, r5, r6, r7, r8, pc}
 1610dec:	e3e00001 	mvn	r0, #1
 1610df0:	e8bd81f0 	pop	{r4, r5, r6, r7, r8, pc}

01610df4 <AES_ECB_decrypt>:
 1610df4:	e92d41f0 	push	{r4, r5, r6, r7, r8, lr}
 1610df8:	e1a08000 	mov	r8, r0
 1610dfc:	e1a06001 	mov	r6, r1
 1610e00:	e1a07002 	mov	r7, r2
 1610e04:	e1a05003 	mov	r5, r3
 1610e08:	ebfffea8 	bl	16108b0 <alloc_mcp_descriptor>
 1610e0c:	e2504000 	subs	r4, r0, #0
 1610e10:	0a000018 	beq	1610e78 <AES_ECB_decrypt+0x84>
 1610e14:	e3550000 	cmp	r5, #0
 1610e18:	0a00000f 	beq	1610e5c <AES_ECB_decrypt+0x68>
 1610e1c:	e3a03005 	mov	r3, #5
 1610e20:	e5843000 	str	r3, [r4]
 1610e24:	e5953000 	ldr	r3, [r5]
 1610e28:	e5843004 	str	r3, [r4, #4]
 1610e2c:	e5953004 	ldr	r3, [r5, #4]
 1610e30:	e5843008 	str	r3, [r4, #8]
 1610e34:	e5953008 	ldr	r3, [r5, #8]
 1610e38:	e584300c 	str	r3, [r4, #12]
 1610e3c:	e595300c 	ldr	r3, [r5, #12]
 1610e40:	e5843010 	str	r3, [r4, #16]
 1610e44:	e584802c 	str	r8, [r4, #44]	; 0x2c
 1610e48:	e1a00004 	mov	r0, r4
 1610e4c:	e5847030 	str	r7, [r4, #48]	; 0x30
 1610e50:	e5846034 	str	r6, [r4, #52]	; 0x34
 1610e54:	e8bd41f0 	pop	{r4, r5, r6, r7, r8, lr}
 1610e58:	eafffebd 	b	1610954 <do_mcp>
 1610e5c:	ebfffeaf 	bl	1610920 <load_otp>
 1610e60:	e3500000 	cmp	r0, #0
 1610e64:	1a000005 	bne	1610e80 <AES_ECB_decrypt+0x8c>
 1610e68:	e3a03a01 	mov	r3, #4096	; 0x1000
 1610e6c:	e3403010 	movt	r3, #16
 1610e70:	e5843000 	str	r3, [r4]
 1610e74:	eafffff2 	b	1610e44 <AES_ECB_decrypt+0x50>
 1610e78:	e3e00000 	mvn	r0, #0
 1610e7c:	e8bd81f0 	pop	{r4, r5, r6, r7, r8, pc}
 1610e80:	e3e00001 	mvn	r0, #1
 1610e84:	e8bd81f0 	pop	{r4, r5, r6, r7, r8, pc}

01610e88 <AES_ECB_encrypt>:
 1610e88:	e92d41f0 	push	{r4, r5, r6, r7, r8, lr}
 1610e8c:	e1a08000 	mov	r8, r0
 1610e90:	e1a07001 	mov	r7, r1
 1610e94:	e1a06002 	mov	r6, r2
 1610e98:	e1a05003 	mov	r5, r3
 1610e9c:	ebfffe83 	bl	16108b0 <alloc_mcp_descriptor>
 1610ea0:	e2504000 	subs	r4, r0, #0
 1610ea4:	0a000028 	beq	1610f4c <AES_ECB_encrypt+0xc4>
 1610ea8:	e3550000 	cmp	r5, #0
 1610eac:	0a000017 	beq	1610f10 <AES_ECB_encrypt+0x88>
 1610eb0:	e3a03025 	mov	r3, #37	; 0x25
 1610eb4:	e5843000 	str	r3, [r4]
 1610eb8:	e5953000 	ldr	r3, [r5]
 1610ebc:	e5843004 	str	r3, [r4, #4]
 1610ec0:	e5953004 	ldr	r3, [r5, #4]
 1610ec4:	e5843008 	str	r3, [r4, #8]
 1610ec8:	e5953008 	ldr	r3, [r5, #8]
 1610ecc:	e584300c 	str	r3, [r4, #12]
 1610ed0:	e595300c 	ldr	r3, [r5, #12]
 1610ed4:	e5843010 	str	r3, [r4, #16]
 1610ed8:	e584802c 	str	r8, [r4, #44]	; 0x2c
 1610edc:	e1a00004 	mov	r0, r4
 1610ee0:	e5846030 	str	r6, [r4, #48]	; 0x30
 1610ee4:	e5847034 	str	r7, [r4, #52]	; 0x34
 1610ee8:	ebfffe99 	bl	1610954 <do_mcp>
 1610eec:	e2504000 	subs	r4, r0, #0
 1610ef0:	0a000001 	beq	1610efc <AES_ECB_encrypt+0x74>
 1610ef4:	e1a00004 	mov	r0, r4
 1610ef8:	e8bd81f0 	pop	{r4, r5, r6, r7, r8, pc}
 1610efc:	e1a00006 	mov	r0, r6
 1610f00:	e1a01007 	mov	r1, r7
 1610f04:	ebfffe4c 	bl	161083c <flush_cache>
 1610f08:	e1a00004 	mov	r0, r4
 1610f0c:	e8bd81f0 	pop	{r4, r5, r6, r7, r8, pc}
 1610f10:	ebfffe82 	bl	1610920 <load_otp>
 1610f14:	e3500000 	cmp	r0, #0
 1610f18:	03013025 	movweq	r3, #4133	; 0x1025
 1610f1c:	05843000 	streq	r3, [r4]
 1610f20:	0affffec 	beq	1610ed8 <AES_ECB_encrypt+0x50>
 1610f24:	e3a030c4 	mov	r3, #196	; 0xc4
 1610f28:	e3022584 	movw	r2, #9604	; 0x2584
 1610f2c:	e3402161 	movt	r2, #353	; 0x161
 1610f30:	e30215a4 	movw	r1, #9636	; 0x25a4
 1610f34:	e3401161 	movt	r1, #353	; 0x161
 1610f38:	e30205ac 	movw	r0, #9644	; 0x25ac
 1610f3c:	e3400161 	movt	r0, #353	; 0x161
 1610f40:	ebfffce4 	bl	16102d8 <printf>
 1610f44:	e3e00001 	mvn	r0, #1
 1610f48:	e8bd81f0 	pop	{r4, r5, r6, r7, r8, pc}
 1610f4c:	e3a030be 	mov	r3, #190	; 0xbe
 1610f50:	e3022584 	movw	r2, #9604	; 0x2584
 1610f54:	e3402161 	movt	r2, #353	; 0x161
 1610f58:	e30215a4 	movw	r1, #9636	; 0x25a4
 1610f5c:	e3401161 	movt	r1, #353	; 0x161
 1610f60:	e30205ac 	movw	r0, #9644	; 0x25ac
 1610f64:	e3400161 	movt	r0, #353	; 0x161
 1610f68:	ebfffcda 	bl	16102d8 <printf>
 1610f6c:	e3e00000 	mvn	r0, #0
 1610f70:	e8bd81f0 	pop	{r4, r5, r6, r7, r8, pc}

01610f74 <AES_hash_one>:
 1610f74:	e92d4070 	push	{r4, r5, r6, lr}
 1610f78:	e1a06000 	mov	r6, r0
 1610f7c:	e1a04001 	mov	r4, r1
 1610f80:	e1a05002 	mov	r5, r2
 1610f84:	ebfffe49 	bl	16108b0 <alloc_mcp_descriptor>
 1610f88:	e2503000 	subs	r3, r0, #0
 1610f8c:	0a000012 	beq	1610fdc <AES_hash_one+0x68>
 1610f90:	e583602c 	str	r6, [r3, #44]	; 0x2c
 1610f94:	e30dcf39 	movw	ip, #57145	; 0xdf39
 1610f98:	e342cdc2 	movt	ip, #11714	; 0x2dc2
 1610f9c:	e583c01c 	str	ip, [r3, #28]
 1610fa0:	e5835030 	str	r5, [r3, #48]	; 0x30
 1610fa4:	e30221d0 	movw	r2, #8656	; 0x21d0
 1610fa8:	e3442203 	movt	r2, #16899	; 0x4203
 1610fac:	e5832020 	str	r2, [r3, #32]
 1610fb0:	e5834034 	str	r4, [r3, #52]	; 0x34
 1610fb4:	e30f2e23 	movw	r2, #65059	; 0xfe23
 1610fb8:	e34c2ef1 	movt	r2, #52977	; 0xcef1
 1610fbc:	e5832024 	str	r2, [r3, #36]	; 0x24
 1610fc0:	e3a01027 	mov	r1, #39	; 0x27
 1610fc4:	e3092d95 	movw	r2, #40341	; 0x9d95
 1610fc8:	e3472402 	movt	r2, #29698	; 0x7402
 1610fcc:	e5832028 	str	r2, [r3, #40]	; 0x28
 1610fd0:	e5831000 	str	r1, [r3]
 1610fd4:	e8bd4070 	pop	{r4, r5, r6, lr}
 1610fd8:	eafffe5d 	b	1610954 <do_mcp>
 1610fdc:	e3e00000 	mvn	r0, #0
 1610fe0:	e8bd8070 	pop	{r4, r5, r6, pc}

01610fe4 <AES_hash>:
 1610fe4:	e3520000 	cmp	r2, #0
 1610fe8:	13500000 	cmpne	r0, #0
 1610fec:	0a000050 	beq	1611134 <AES_hash+0x150>
 1610ff0:	e3530000 	cmp	r3, #0
 1610ff4:	13510000 	cmpne	r1, #0
 1610ff8:	e92d41f0 	push	{r4, r5, r6, r7, r8, lr}
 1610ffc:	e1a06001 	mov	r6, r1
 1611000:	e1a07003 	mov	r7, r3
 1611004:	0a000048 	beq	161112c <AES_hash+0x148>
 1611008:	e1a08000 	mov	r8, r0
 161100c:	e1a04002 	mov	r4, r2
 1611010:	ebfffe26 	bl	16108b0 <alloc_mcp_descriptor>
 1611014:	e2505000 	subs	r5, r0, #0
 1611018:	0a000043 	beq	161112c <AES_hash+0x148>
 161101c:	e30d3f39 	movw	r3, #57145	; 0xdf39
 1611020:	e3423dc2 	movt	r3, #11714	; 0x2dc2
 1611024:	e30221d0 	movw	r2, #8656	; 0x21d0
 1611028:	e3442203 	movt	r2, #16899	; 0x4203
 161102c:	e585301c 	str	r3, [r5, #28]
 1611030:	e30f3e23 	movw	r3, #65059	; 0xfe23
 1611034:	e34c3ef1 	movt	r3, #52977	; 0xcef1
 1611038:	e5853024 	str	r3, [r5, #36]	; 0x24
 161103c:	e5852020 	str	r2, [r5, #32]
 1611040:	e3a03027 	mov	r3, #39	; 0x27
 1611044:	e3092d95 	movw	r2, #40341	; 0x9d95
 1611048:	e3472402 	movt	r2, #29698	; 0x7402
 161104c:	e5854030 	str	r4, [r5, #48]	; 0x30
 1611050:	e5852028 	str	r2, [r5, #40]	; 0x28
 1611054:	e5853000 	str	r3, [r5]
 1611058:	ea000026 	b	16110f8 <AES_hash+0x114>
 161105c:	e3560000 	cmp	r6, #0
 1611060:	0a00002f 	beq	1611124 <AES_hash+0x140>
 1611064:	e5d41001 	ldrb	r1, [r4, #1]
 1611068:	e5d43000 	ldrb	r3, [r4]
 161106c:	e5d42003 	ldrb	r2, [r4, #3]
 1611070:	e5d40002 	ldrb	r0, [r4, #2]
 1611074:	e1a01801 	lsl	r1, r1, #16
 1611078:	e1813c03 	orr	r3, r1, r3, lsl #24
 161107c:	e5951034 	ldr	r1, [r5, #52]	; 0x34
 1611080:	e1833002 	orr	r3, r3, r2
 1611084:	e1833400 	orr	r3, r3, r0, lsl #8
 1611088:	e585301c 	str	r3, [r5, #28]
 161108c:	e0888001 	add	r8, r8, r1
 1611090:	e5d41005 	ldrb	r1, [r4, #5]
 1611094:	e5d43004 	ldrb	r3, [r4, #4]
 1611098:	e5d42007 	ldrb	r2, [r4, #7]
 161109c:	e5d40006 	ldrb	r0, [r4, #6]
 16110a0:	e1a01801 	lsl	r1, r1, #16
 16110a4:	e1813c03 	orr	r3, r1, r3, lsl #24
 16110a8:	e1833002 	orr	r3, r3, r2
 16110ac:	e1833400 	orr	r3, r3, r0, lsl #8
 16110b0:	e5853020 	str	r3, [r5, #32]
 16110b4:	e5d42009 	ldrb	r2, [r4, #9]
 16110b8:	e5d40008 	ldrb	r0, [r4, #8]
 16110bc:	e5d4100a 	ldrb	r1, [r4, #10]
 16110c0:	e1a03802 	lsl	r3, r2, #16
 16110c4:	e1833c00 	orr	r3, r3, r0, lsl #24
 16110c8:	e1832002 	orr	r2, r3, r2
 16110cc:	e1822401 	orr	r2, r2, r1, lsl #8
 16110d0:	e5852024 	str	r2, [r5, #36]	; 0x24
 16110d4:	e5d4100d 	ldrb	r1, [r4, #13]
 16110d8:	e5d4200c 	ldrb	r2, [r4, #12]
 16110dc:	e5d4300f 	ldrb	r3, [r4, #15]
 16110e0:	e5d4000e 	ldrb	r0, [r4, #14]
 16110e4:	e1a01801 	lsl	r1, r1, #16
 16110e8:	e1812c02 	orr	r2, r1, r2, lsl #24
 16110ec:	e1822003 	orr	r2, r2, r3
 16110f0:	e1822400 	orr	r2, r2, r0, lsl #8
 16110f4:	e5852028 	str	r2, [r5, #40]	; 0x28
 16110f8:	e1560007 	cmp	r6, r7
 16110fc:	e585802c 	str	r8, [r5, #44]	; 0x2c
 1611100:	31a03006 	movcc	r3, r6
 1611104:	21a03007 	movcs	r3, r7
 1611108:	e1a00005 	mov	r0, r5
 161110c:	e5853034 	str	r3, [r5, #52]	; 0x34
 1611110:	ebfffe0f 	bl	1610954 <do_mcp>
 1611114:	e3500000 	cmp	r0, #0
 1611118:	e0676006 	rsb	r6, r7, r6
 161111c:	0affffce 	beq	161105c <AES_hash+0x78>
 1611120:	e8bd81f0 	pop	{r4, r5, r6, r7, r8, pc}
 1611124:	e1a00006 	mov	r0, r6
 1611128:	e8bd81f0 	pop	{r4, r5, r6, r7, r8, pc}
 161112c:	e3e00000 	mvn	r0, #0
 1611130:	e8bd81f0 	pop	{r4, r5, r6, r7, r8, pc}
 1611134:	e3e00000 	mvn	r0, #0
 1611138:	e12fff1e 	bx	lr

0161113c <SHA1_hash>:
 161113c:	e3520000 	cmp	r2, #0
 1611140:	13500000 	cmpne	r0, #0
 1611144:	0a00002b 	beq	16111f8 <SHA1_hash+0xbc>
 1611148:	e92d41f0 	push	{r4, r5, r6, r7, r8, lr}
 161114c:	e1a07002 	mov	r7, r2
 1611150:	e1a06000 	mov	r6, r0
 1611154:	e1a04003 	mov	r4, r3
 1611158:	e1a05001 	mov	r5, r1
 161115c:	ebfffdd3 	bl	16108b0 <alloc_mcp_descriptor>
 1611160:	e250c000 	subs	ip, r0, #0
 1611164:	0a000025 	beq	1611200 <SHA1_hash+0xc4>
 1611168:	e3540000 	cmp	r4, #0
 161116c:	e3a03004 	mov	r3, #4
 1611170:	e58c3000 	str	r3, [ip]
 1611174:	0a00000f 	beq	16111b8 <SHA1_hash+0x7c>
 1611178:	e5943000 	ldr	r3, [r4]
 161117c:	e58c3004 	str	r3, [ip, #4]
 1611180:	e5943004 	ldr	r3, [r4, #4]
 1611184:	e58c3008 	str	r3, [ip, #8]
 1611188:	e5943008 	ldr	r3, [r4, #8]
 161118c:	e58c300c 	str	r3, [ip, #12]
 1611190:	e594300c 	ldr	r3, [r4, #12]
 1611194:	e58c3010 	str	r3, [ip, #16]
 1611198:	e5943010 	ldr	r3, [r4, #16]
 161119c:	e58c3014 	str	r3, [ip, #20]
 16111a0:	e58c602c 	str	r6, [ip, #44]	; 0x2c
 16111a4:	e1a0000c 	mov	r0, ip
 16111a8:	e58c7030 	str	r7, [ip, #48]	; 0x30
 16111ac:	e58c5034 	str	r5, [ip, #52]	; 0x34
 16111b0:	e8bd41f0 	pop	{r4, r5, r6, r7, r8, lr}
 16111b4:	eafffde6 	b	1610954 <do_mcp>
 16111b8:	e3022301 	movw	r2, #8961	; 0x2301
 16111bc:	e3462745 	movt	r2, #26437	; 0x6745
 16111c0:	e30a3b89 	movw	r3, #43913	; 0xab89
 16111c4:	e34e3fcd 	movt	r3, #61389	; 0xefcd
 16111c8:	e58c2004 	str	r2, [ip, #4]
 16111cc:	e30d2cfe 	movw	r2, #56574	; 0xdcfe
 16111d0:	e34928ba 	movt	r2, #39098	; 0x98ba
 16111d4:	e58c200c 	str	r2, [ip, #12]
 16111d8:	e58c3008 	str	r3, [ip, #8]
 16111dc:	e3053476 	movw	r3, #21622	; 0x5476
 16111e0:	e3413032 	movt	r3, #4146	; 0x1032
 16111e4:	e58c3010 	str	r3, [ip, #16]
 16111e8:	e30e31f0 	movw	r3, #57840	; 0xe1f0
 16111ec:	e34c33d2 	movt	r3, #50130	; 0xc3d2
 16111f0:	e58c3014 	str	r3, [ip, #20]
 16111f4:	eaffffe9 	b	16111a0 <SHA1_hash+0x64>
 16111f8:	e3e00000 	mvn	r0, #0
 16111fc:	e12fff1e 	bx	lr
 1611200:	e3e00000 	mvn	r0, #0
 1611204:	e8bd81f0 	pop	{r4, r5, r6, r7, r8, pc}

01611208 <do_RSA>:
 1611208:	e92d4070 	push	{r4, r5, r6, lr}
 161120c:	e1a04000 	mov	r4, r0
 1611210:	e1a05001 	mov	r5, r1
 1611214:	e24ddc01 	sub	sp, sp, #256	; 0x100
 1611218:	e1a06002 	mov	r6, r2
 161121c:	f57ff04f 	dsb	sy
 1611220:	eb0000fd 	bl	161161c <sync>
 1611224:	e3a03903 	mov	r3, #49152	; 0xc000
 1611228:	e3493804 	movt	r3, #38916	; 0x9804
 161122c:	e3550000 	cmp	r5, #0
 1611230:	e3a01002 	mov	r1, #2
 1611234:	e3a02000 	mov	r2, #0
 1611238:	e5831f08 	str	r1, [r3, #3848]	; 0xf08
 161123c:	e5832f80 	str	r2, [r3, #3968]	; 0xf80
 1611240:	0a000049 	beq	161136c <do_RSA+0x164>
 1611244:	e3a00b33 	mov	r0, #52224	; 0xcc00
 1611248:	e3490804 	movt	r0, #38916	; 0x9804
 161124c:	e1a01005 	mov	r1, r5
 1611250:	e3a02c01 	mov	r2, #256	; 0x100
 1611254:	eb0001c9 	bl	1611980 <copy_memory>
 1611258:	e3a01c01 	mov	r1, #256	; 0x100
 161125c:	e3a00b33 	mov	r0, #52224	; 0xcc00
 1611260:	e3490804 	movt	r0, #38916	; 0x9804
 1611264:	ebfffd74 	bl	161083c <flush_cache>
 1611268:	e3a02c01 	mov	r2, #256	; 0x100
 161126c:	e3a01000 	mov	r1, #0
 1611270:	e1a0000d 	mov	r0, sp
 1611274:	eb0001ba 	bl	1611964 <set_memory>
 1611278:	e1a0100d 	mov	r1, sp
 161127c:	e3a02c01 	mov	r2, #256	; 0x100
 1611280:	e3a03001 	mov	r3, #1
 1611284:	e30c0d80 	movw	r0, #52608	; 0xcd80
 1611288:	e3490804 	movt	r0, #38916	; 0x9804
 161128c:	e7df3813 	bfi	r3, r3, #16, #16
 1611290:	e58d3000 	str	r3, [sp]
 1611294:	eb0001b9 	bl	1611980 <copy_memory>
 1611298:	e1a01004 	mov	r1, r4
 161129c:	e3a02c01 	mov	r2, #256	; 0x100
 16112a0:	e30c0780 	movw	r0, #51072	; 0xc780
 16112a4:	e3490804 	movt	r0, #38916	; 0x9804
 16112a8:	eb0001b4 	bl	1611980 <copy_memory>
 16112ac:	e3a02c01 	mov	r2, #256	; 0x100
 16112b0:	e0841002 	add	r1, r4, r2
 16112b4:	e3a00cc9 	mov	r0, #51456	; 0xc900
 16112b8:	e3490804 	movt	r0, #38916	; 0x9804
 16112bc:	e3a05903 	mov	r5, #49152	; 0xc000
 16112c0:	e3495804 	movt	r5, #38916	; 0x9804
 16112c4:	eb0001ad 	bl	1611980 <copy_memory>
 16112c8:	e5943200 	ldr	r3, [r4, #512]	; 0x200
 16112cc:	e6bf3f33 	rev	r3, r3
 16112d0:	e5853f84 	str	r3, [r5, #3972]	; 0xf84
 16112d4:	e5953f88 	ldr	r3, [r5, #3976]	; 0xf88
 16112d8:	e3833102 	orr	r3, r3, #-2147483648	; 0x80000000
 16112dc:	e5853f88 	str	r3, [r5, #3976]	; 0xf88
 16112e0:	e5953f0c 	ldr	r3, [r5, #3852]	; 0xf0c
 16112e4:	e3530023 	cmp	r3, #35	; 0x23
 16112e8:	130043e9 	movwne	r4, #1001	; 0x3e9
 16112ec:	1a000002 	bne	16112fc <do_RSA+0xf4>
 16112f0:	ea000006 	b	1611310 <do_RSA+0x108>
 16112f4:	e2544001 	subs	r4, r4, #1
 16112f8:	0a000015 	beq	1611354 <do_RSA+0x14c>
 16112fc:	e3a00001 	mov	r0, #1
 1611300:	eb000098 	bl	1611568 <mdelay>
 1611304:	e5953f0c 	ldr	r3, [r5, #3852]	; 0xf0c
 1611308:	e3530023 	cmp	r3, #35	; 0x23
 161130c:	1afffff8 	bne	16112f4 <do_RSA+0xec>
 1611310:	e3a02020 	mov	r2, #32
 1611314:	e1a00006 	mov	r0, r6
 1611318:	e0864002 	add	r4, r6, r2
 161131c:	e3a01cc9 	mov	r1, #51456	; 0xc900
 1611320:	e3491804 	movt	r1, #38916	; 0x9804
 1611324:	eb000195 	bl	1611980 <copy_memory>
 1611328:	e1a01004 	mov	r1, r4
 161132c:	e1a00006 	mov	r0, r6
 1611330:	ebfffd41 	bl	161083c <flush_cache>
 1611334:	e1a00006 	mov	r0, r6
 1611338:	ebfffdc9 	bl	1610a64 <reverse_rsa_signature>
 161133c:	e1a00006 	mov	r0, r6
 1611340:	e1a01004 	mov	r1, r4
 1611344:	ebfffd3c 	bl	161083c <flush_cache>
 1611348:	e3a00000 	mov	r0, #0
 161134c:	e28ddc01 	add	sp, sp, #256	; 0x100
 1611350:	e8bd8070 	pop	{r4, r5, r6, pc}
 1611354:	e30205bc 	movw	r0, #9660	; 0x25bc
 1611358:	e3400161 	movt	r0, #353	; 0x161
 161135c:	eb0000d4 	bl	16116b4 <prints>
 1611360:	e3a00001 	mov	r0, #1
 1611364:	e28ddc01 	add	sp, sp, #256	; 0x100
 1611368:	e8bd8070 	pop	{r4, r5, r6, pc}
 161136c:	e1a00005 	mov	r0, r5
 1611370:	e3a01b33 	mov	r1, #52224	; 0xcc00
 1611374:	e3491804 	movt	r1, #38916	; 0x9804
 1611378:	e3a02040 	mov	r2, #64	; 0x40
 161137c:	eb0003bc 	bl	1612274 <OTP_Get_Word>
 1611380:	eaffffb4 	b	1611258 <do_RSA+0x50>

01611384 <SHA256_hash>:
 1611384:	e3520000 	cmp	r2, #0
 1611388:	13500000 	cmpne	r0, #0
 161138c:	1a000001 	bne	1611398 <SHA256_hash+0x14>
 1611390:	e3a00093 	mov	r0, #147	; 0x93
 1611394:	e12fff1e 	bx	lr
 1611398:	e92d41f0 	push	{r4, r5, r6, r7, r8, lr}
 161139c:	e1a07002 	mov	r7, r2
 16113a0:	e1a06000 	mov	r6, r0
 16113a4:	e1a04003 	mov	r4, r3
 16113a8:	e1a05001 	mov	r5, r1
 16113ac:	ebfffd3f 	bl	16108b0 <alloc_mcp_descriptor>
 16113b0:	e250c000 	subs	ip, r0, #0
 16113b4:	0a000019 	beq	1611420 <SHA256_hash+0x9c>
 16113b8:	e3540000 	cmp	r4, #0
 16113bc:	e3a0300b 	mov	r3, #11
 16113c0:	e58c3000 	str	r3, [ip]
 16113c4:	0a000017 	beq	1611428 <SHA256_hash+0xa4>
 16113c8:	e5943000 	ldr	r3, [r4]
 16113cc:	e58c3004 	str	r3, [ip, #4]
 16113d0:	e5943004 	ldr	r3, [r4, #4]
 16113d4:	e58c3008 	str	r3, [ip, #8]
 16113d8:	e5943008 	ldr	r3, [r4, #8]
 16113dc:	e58c300c 	str	r3, [ip, #12]
 16113e0:	e594300c 	ldr	r3, [r4, #12]
 16113e4:	e58c3010 	str	r3, [ip, #16]
 16113e8:	e5943010 	ldr	r3, [r4, #16]
 16113ec:	e58c3014 	str	r3, [ip, #20]
 16113f0:	e5943014 	ldr	r3, [r4, #20]
 16113f4:	e58c3018 	str	r3, [ip, #24]
 16113f8:	e5943018 	ldr	r3, [r4, #24]
 16113fc:	e58c301c 	str	r3, [ip, #28]
 1611400:	e594301c 	ldr	r3, [r4, #28]
 1611404:	e58c3020 	str	r3, [ip, #32]
 1611408:	e58c602c 	str	r6, [ip, #44]	; 0x2c
 161140c:	e1a0000c 	mov	r0, ip
 1611410:	e58c7030 	str	r7, [ip, #48]	; 0x30
 1611414:	e58c5034 	str	r5, [ip, #52]	; 0x34
 1611418:	e8bd41f0 	pop	{r4, r5, r6, r7, r8, lr}
 161141c:	eafffd4c 	b	1610954 <do_mcp>
 1611420:	e3a00094 	mov	r0, #148	; 0x94
 1611424:	e8bd81f0 	pop	{r4, r5, r6, r7, r8, pc}
 1611428:	e30e2667 	movw	r2, #58983	; 0xe667
 161142c:	e3462a09 	movt	r2, #27145	; 0x6a09
 1611430:	e30a3e85 	movw	r3, #44677	; 0xae85
 1611434:	e34b3b67 	movt	r3, #47975	; 0xbb67
 1611438:	e58c2004 	str	r2, [ip, #4]
 161143c:	e30f2372 	movw	r2, #62322	; 0xf372
 1611440:	e3432c6e 	movt	r2, #15470	; 0x3c6e
 1611444:	e58c200c 	str	r2, [ip, #12]
 1611448:	e58c3008 	str	r3, [ip, #8]
 161144c:	e305227f 	movw	r2, #21119	; 0x527f
 1611450:	e345210e 	movt	r2, #20750	; 0x510e
 1611454:	e58c2014 	str	r2, [ip, #20]
 1611458:	e30f353a 	movw	r3, #62778	; 0xf53a
 161145c:	e34a354f 	movt	r3, #42319	; 0xa54f
 1611460:	e30d29ab 	movw	r2, #55723	; 0xd9ab
 1611464:	e3412f83 	movt	r2, #8067	; 0x1f83
 1611468:	e58c3010 	str	r3, [ip, #16]
 161146c:	e306388c 	movw	r3, #26764	; 0x688c
 1611470:	e3493b05 	movt	r3, #39685	; 0x9b05
 1611474:	e58c3018 	str	r3, [ip, #24]
 1611478:	e58c201c 	str	r2, [ip, #28]
 161147c:	e30c3d19 	movw	r3, #52505	; 0xcd19
 1611480:	e3453be0 	movt	r3, #23520	; 0x5be0
 1611484:	e58c3020 	str	r3, [ip, #32]
 1611488:	eaffffde 	b	1611408 <SHA256_hash+0x84>

0161148c <reverse_signature>:
 161148c:	e2402001 	sub	r2, r0, #1
 1611490:	e2803c01 	add	r3, r0, #256	; 0x100
 1611494:	e280c080 	add	ip, r0, #128	; 0x80
 1611498:	e5730001 	ldrb	r0, [r3, #-1]!
 161149c:	e5f21001 	ldrb	r1, [r2, #1]!
 16114a0:	e153000c 	cmp	r3, ip
 16114a4:	e5c20000 	strb	r0, [r2]
 16114a8:	e5c31000 	strb	r1, [r3]
 16114ac:	1afffff9 	bne	1611498 <reverse_signature+0xc>
 16114b0:	e12fff1e 	bx	lr

016114b4 <InitTimer>:
 16114b4:	e3500001 	cmp	r0, #1
 16114b8:	9a000001 	bls	16114c4 <InitTimer+0x10>
 16114bc:	e3e00000 	mvn	r0, #0
 16114c0:	e12fff1e 	bx	lr
 16114c4:	e3062d40 	movw	r2, #27968	; 0x6d40
 16114c8:	e3422600 	movt	r2, #9728	; 0x2600
 16114cc:	e0802002 	add	r2, r0, r2
 16114d0:	e3a0ca0b 	mov	ip, #45056	; 0xb000
 16114d4:	e349c801 	movt	ip, #38913	; 0x9801
 16114d8:	e1a02102 	lsl	r2, r2, #2
 16114dc:	e2800001 	add	r0, r0, #1
 16114e0:	e92d4010 	push	{r4, lr}
 16114e4:	e1a03300 	lsl	r3, r0, #6
 16114e8:	e5821000 	str	r1, [r2]
 16114ec:	e3a0e000 	mov	lr, #0
 16114f0:	e3a04103 	mov	r4, #-1073741824	; 0xc0000000
 16114f4:	e582e024 	str	lr, [r2, #36]	; 0x24
 16114f8:	e3a00001 	mov	r0, #1
 16114fc:	e582e018 	str	lr, [r2, #24]
 1611500:	e58c3008 	str	r3, [ip, #8]
 1611504:	e5824018 	str	r4, [r2, #24]
 1611508:	e8bd8010 	pop	{r4, pc}

0161150c <DisableTimer>:
 161150c:	e3500001 	cmp	r0, #1
 1611510:	93063d49 	movwls	r3, #27977	; 0x6d49
 1611514:	93a02000 	movls	r2, #0
 1611518:	93423600 	movtls	r3, #9728	; 0x2600
 161151c:	90803003 	addls	r3, r0, r3
 1611520:	93a00001 	movls	r0, #1
 1611524:	83e00000 	mvnhi	r0, #0
 1611528:	91a03103 	lslls	r3, r3, #2
 161152c:	95832000 	strls	r2, [r3]
 1611530:	9503200c 	strls	r2, [r3, #-12]
 1611534:	e12fff1e 	bx	lr

01611538 <SystemTimeout>:
 1611538:	e3500001 	cmp	r0, #1
 161153c:	9a000001 	bls	1611548 <SystemTimeout+0x10>
 1611540:	e3a00000 	mov	r0, #0
 1611544:	e12fff1e 	bx	lr
 1611548:	e3a03a0b 	mov	r3, #45056	; 0xb000
 161154c:	e3493801 	movt	r3, #38913	; 0x9801
 1611550:	e2800001 	add	r0, r0, #1
 1611554:	e5933008 	ldr	r3, [r3, #8]
 1611558:	e0133300 	ands	r3, r3, r0, lsl #6
 161155c:	13a00001 	movne	r0, #1
 1611560:	03a00000 	moveq	r0, #0
 1611564:	e12fff1e 	bx	lr

01611568 <mdelay>:
 1611568:	e3043240 	movw	r3, #16960	; 0x4240
 161156c:	e340300f 	movt	r3, #15
 1611570:	e30c2ccd 	movw	r2, #52429	; 0xcccd
 1611574:	e34c2ccc 	movt	r2, #52428	; 0xcccc
 1611578:	e0000093 	mul	r0, r3, r0
 161157c:	e3a03a0b 	mov	r3, #45056	; 0xb000
 1611580:	e3493801 	movt	r3, #38913	; 0x9801
 1611584:	e52de004 	push	{lr}		; (str lr, [sp, #-4]!)
 1611588:	e0810290 	umull	r0, r1, r0, r2
 161158c:	e3a0c000 	mov	ip, #0
 1611590:	e3a0e040 	mov	lr, #64	; 0x40
 1611594:	e3a00103 	mov	r0, #-1073741824	; 0xc0000000
 1611598:	e1a02003 	mov	r2, r3
 161159c:	e1a01221 	lsr	r1, r1, #4
 16115a0:	e5831500 	str	r1, [r3, #1280]	; 0x500
 16115a4:	e583c524 	str	ip, [r3, #1316]	; 0x524
 16115a8:	e583c518 	str	ip, [r3, #1304]	; 0x518
 16115ac:	e583e008 	str	lr, [r3, #8]
 16115b0:	e5830518 	str	r0, [r3, #1304]	; 0x518
 16115b4:	e5923008 	ldr	r3, [r2, #8]
 16115b8:	e3130040 	tst	r3, #64	; 0x40
 16115bc:	0afffffc 	beq	16115b4 <mdelay+0x4c>
 16115c0:	e49df004 	pop	{pc}		; (ldr pc, [sp], #4)

016115c4 <udelay>:
 16115c4:	e3a03ffa 	mov	r3, #1000	; 0x3e8
 16115c8:	e30c2ccd 	movw	r2, #52429	; 0xcccd
 16115cc:	e34c2ccc 	movt	r2, #52428	; 0xcccc
 16115d0:	e0000093 	mul	r0, r3, r0
 16115d4:	e3a03a0b 	mov	r3, #45056	; 0xb000
 16115d8:	e3493801 	movt	r3, #38913	; 0x9801
 16115dc:	e52de004 	push	{lr}		; (str lr, [sp, #-4]!)
 16115e0:	e0810290 	umull	r0, r1, r0, r2
 16115e4:	e3a0c000 	mov	ip, #0
 16115e8:	e3a0e040 	mov	lr, #64	; 0x40
 16115ec:	e3a00103 	mov	r0, #-1073741824	; 0xc0000000
 16115f0:	e1a02003 	mov	r2, r3
 16115f4:	e1a01221 	lsr	r1, r1, #4
 16115f8:	e5831500 	str	r1, [r3, #1280]	; 0x500
 16115fc:	e583c524 	str	ip, [r3, #1316]	; 0x524
 1611600:	e583c518 	str	ip, [r3, #1304]	; 0x518
 1611604:	e583e008 	str	lr, [r3, #8]
 1611608:	e5830518 	str	r0, [r3, #1304]	; 0x518
 161160c:	e5923008 	ldr	r3, [r2, #8]
 1611610:	e3130040 	tst	r3, #64	; 0x40
 1611614:	0afffffc 	beq	161160c <udelay+0x48>
 1611618:	e49df004 	pop	{pc}		; (ldr pc, [sp], #4)

0161161c <sync>:
 161161c:	e3a03000 	mov	r3, #0
 1611620:	ee073fba 	mcr	15, 0, r3, cr7, cr10, {5}
 1611624:	e3a02a0a 	mov	r2, #40960	; 0xa000
 1611628:	e3492801 	movt	r2, #38913	; 0x9801
 161162c:	e5823020 	str	r3, [r2, #32]
 1611630:	ee073fba 	mcr	15, 0, r3, cr7, cr10, {5}
 1611634:	e12fff1e 	bx	lr

01611638 <init_uart>:
 1611638:	e3a03a07 	mov	r3, #28672	; 0x7000
 161163c:	e3493800 	movt	r3, #38912	; 0x9800
 1611640:	e92d4010 	push	{r4, lr}
 1611644:	e5932310 	ldr	r2, [r3, #784]	; 0x310
 1611648:	e3a01000 	mov	r1, #0
 161164c:	e3a04090 	mov	r4, #144	; 0x90
 1611650:	e3a0e00e 	mov	lr, #14
 1611654:	e3c228ff 	bic	r2, r2, #16711680	; 0xff0000
 1611658:	e3a0c003 	mov	ip, #3
 161165c:	e3c22a0f 	bic	r2, r2, #61440	; 0xf000
 1611660:	e3a000b7 	mov	r0, #183	; 0xb7
 1611664:	e3822855 	orr	r2, r2, #5570560	; 0x550000
 1611668:	e3822a05 	orr	r2, r2, #20480	; 0x5000
 161166c:	e5832310 	str	r2, [r3, #784]	; 0x310
 1611670:	e583480c 	str	r4, [r3, #2060]	; 0x80c
 1611674:	e583e800 	str	lr, [r3, #2048]	; 0x800
 1611678:	e5831804 	str	r1, [r3, #2052]	; 0x804
 161167c:	e583c80c 	str	ip, [r3, #2060]	; 0x80c
 1611680:	e5830808 	str	r0, [r3, #2056]	; 0x808
 1611684:	e5831804 	str	r1, [r3, #2052]	; 0x804
 1611688:	e8bd8010 	pop	{r4, pc}

0161168c <set_focus_uart>:
 161168c:	e3022a3c 	movw	r2, #10812	; 0x2a3c
 1611690:	e3402162 	movt	r2, #354	; 0x162
 1611694:	e3500000 	cmp	r0, #0
 1611698:	e3a01cb2 	mov	r1, #45568	; 0xb200
 161169c:	e3491801 	movt	r1, #38913	; 0x9801
 16116a0:	e3a03b1e 	mov	r3, #30720	; 0x7800
 16116a4:	e3493800 	movt	r3, #38912	; 0x9800
 16116a8:	11a03001 	movne	r3, r1
 16116ac:	e5823000 	str	r3, [r2]
 16116b0:	e12fff1e 	bx	lr

016116b4 <prints>:
 16116b4:	e5d03000 	ldrb	r3, [r0]
 16116b8:	e3530000 	cmp	r3, #0
 16116bc:	012fff1e 	bxeq	lr
 16116c0:	e3022a3c 	movw	r2, #10812	; 0x2a3c
 16116c4:	e3402162 	movt	r2, #354	; 0x162
 16116c8:	e3a0c00d 	mov	ip, #13
 16116cc:	e5922000 	ldr	r2, [r2]
 16116d0:	e353000a 	cmp	r3, #10
 16116d4:	11a01003 	movne	r1, r3
 16116d8:	0a000008 	beq	1611700 <prints+0x4c>
 16116dc:	e5923014 	ldr	r3, [r2, #20]
 16116e0:	e2033060 	and	r3, r3, #96	; 0x60
 16116e4:	e3530060 	cmp	r3, #96	; 0x60
 16116e8:	1afffffb 	bne	16116dc <prints+0x28>
 16116ec:	e5821000 	str	r1, [r2]
 16116f0:	e5f03001 	ldrb	r3, [r0, #1]!
 16116f4:	e3530000 	cmp	r3, #0
 16116f8:	1afffff4 	bne	16116d0 <prints+0x1c>
 16116fc:	e12fff1e 	bx	lr
 1611700:	e5923014 	ldr	r3, [r2, #20]
 1611704:	e2033060 	and	r3, r3, #96	; 0x60
 1611708:	e3530060 	cmp	r3, #96	; 0x60
 161170c:	1afffffb 	bne	1611700 <prints+0x4c>
 1611710:	e582c000 	str	ip, [r2]
 1611714:	e3a0100a 	mov	r1, #10
 1611718:	eaffffef 	b	16116dc <prints+0x28>

0161171c <wait_done>:
 161171c:	e5903000 	ldr	r3, [r0]
 1611720:	e0033001 	and	r3, r3, r1
 1611724:	e1530002 	cmp	r3, r2
 1611728:	0a000012 	beq	1611778 <wait_done+0x5c>
 161172c:	e92d41f0 	push	{r4, r5, r6, r7, r8, lr}
 1611730:	e1a07002 	mov	r7, r2
 1611734:	e1a06001 	mov	r6, r1
 1611738:	e1a05000 	mov	r5, r0
 161173c:	e3004bb9 	movw	r4, #3001	; 0xbb9
 1611740:	ea000001 	b	161174c <wait_done+0x30>
 1611744:	e2544001 	subs	r4, r4, #1
 1611748:	0a000006 	beq	1611768 <wait_done+0x4c>
 161174c:	e3a00001 	mov	r0, #1
 1611750:	ebffff84 	bl	1611568 <mdelay>
 1611754:	e5953000 	ldr	r3, [r5]
 1611758:	e0033006 	and	r3, r3, r6
 161175c:	e1530007 	cmp	r3, r7
 1611760:	1afffff7 	bne	1611744 <wait_done+0x28>
 1611764:	e8bd81f0 	pop	{r4, r5, r6, r7, r8, pc}
 1611768:	e30205d8 	movw	r0, #9688	; 0x25d8
 161176c:	e3400161 	movt	r0, #353	; 0x161
 1611770:	e8bd41f0 	pop	{r4, r5, r6, r7, r8, lr}
 1611774:	eaffffce 	b	16116b4 <prints>
 1611778:	e12fff1e 	bx	lr

0161177c <print_val>:
 161177c:	e3023a3c 	movw	r3, #10812	; 0x2a3c
 1611780:	e3403162 	movt	r3, #354	; 0x162
 1611784:	e2411001 	sub	r1, r1, #1
 1611788:	e5932000 	ldr	r2, [r3]
 161178c:	e1a03101 	lsl	r3, r1, #2
 1611790:	e1a03330 	lsr	r3, r0, r3
 1611794:	e203300f 	and	r3, r3, #15
 1611798:	e353000a 	cmp	r3, #10
 161179c:	33a0c030 	movcc	ip, #48	; 0x30
 16117a0:	23a0c037 	movcs	ip, #55	; 0x37
 16117a4:	e08cc003 	add	ip, ip, r3
 16117a8:	e5923014 	ldr	r3, [r2, #20]
 16117ac:	e2033060 	and	r3, r3, #96	; 0x60
 16117b0:	e3530060 	cmp	r3, #96	; 0x60
 16117b4:	1afffffb 	bne	16117a8 <print_val+0x2c>
 16117b8:	e2411001 	sub	r1, r1, #1
 16117bc:	e582c000 	str	ip, [r2]
 16117c0:	e3710001 	cmn	r1, #1
 16117c4:	1afffff0 	bne	161178c <print_val+0x10>
 16117c8:	e12fff1e 	bx	lr

016117cc <print_hex>:
 16117cc:	e3a01008 	mov	r1, #8
 16117d0:	eaffffe9 	b	161177c <print_val>

016117d4 <sys_dcache_flush_all>:
 16117d4:	e12fff1e 	bx	lr

016117d8 <put_char>:
 16117d8:	e3023a3c 	movw	r3, #10812	; 0x2a3c
 16117dc:	e3403162 	movt	r3, #354	; 0x162
 16117e0:	e5932000 	ldr	r2, [r3]
 16117e4:	e5923014 	ldr	r3, [r2, #20]
 16117e8:	e2033060 	and	r3, r3, #96	; 0x60
 16117ec:	e3530060 	cmp	r3, #96	; 0x60
 16117f0:	1afffffb 	bne	16117e4 <put_char+0xc>
 16117f4:	e5820000 	str	r0, [r2]
 16117f8:	e12fff1e 	bx	lr

016117fc <hexstr2int>:
 16117fc:	e3a02010 	mov	r2, #16
 1611800:	e3a01000 	mov	r1, #0
 1611804:	eafffa4c 	b	161013c <strtoul>

01611808 <simple_malloc>:
 1611808:	e3022bbc 	movw	r2, #11196	; 0x2bbc
 161180c:	e3402162 	movt	r2, #354	; 0x162
 1611810:	e92d4010 	push	{r4, lr}
 1611814:	e5924000 	ldr	r4, [r2]
 1611818:	e080e004 	add	lr, r0, r4
 161181c:	e35e0401 	cmp	lr, #16777216	; 0x1000000
 1611820:	8a00000b 	bhi	1611854 <simple_malloc+0x4c>
 1611824:	e302ca3c 	movw	ip, #10812	; 0x2a3c
 1611828:	e340c162 	movt	ip, #354	; 0x162
 161182c:	e3100003 	tst	r0, #3
 1611830:	13c03003 	bicne	r3, r0, #3
 1611834:	e59c1004 	ldr	r1, [ip, #4]
 1611838:	12830004 	addne	r0, r3, #4
 161183c:	1080e004 	addne	lr, r0, r4
 1611840:	e582e000 	str	lr, [r2]
 1611844:	e0803001 	add	r3, r0, r1
 1611848:	e1a00001 	mov	r0, r1
 161184c:	e58c3004 	str	r3, [ip, #4]
 1611850:	e8bd8010 	pop	{r4, pc}
 1611854:	e3a00000 	mov	r0, #0
 1611858:	e8bd8010 	pop	{r4, pc}

0161185c <is_hex_digit>:
 161185c:	e2403030 	sub	r3, r0, #48	; 0x30
 1611860:	e3530009 	cmp	r3, #9
 1611864:	9a000007 	bls	1611888 <is_hex_digit+0x2c>
 1611868:	e2403041 	sub	r3, r0, #65	; 0x41
 161186c:	e3530005 	cmp	r3, #5
 1611870:	9a000004 	bls	1611888 <is_hex_digit+0x2c>
 1611874:	e2400061 	sub	r0, r0, #97	; 0x61
 1611878:	e3500005 	cmp	r0, #5
 161187c:	93a00000 	movls	r0, #0
 1611880:	83e00000 	mvnhi	r0, #0
 1611884:	e12fff1e 	bx	lr
 1611888:	e3a00000 	mov	r0, #0
 161188c:	e12fff1e 	bx	lr

01611890 <hexdump>:
 1611890:	e3520000 	cmp	r2, #0
 1611894:	13510000 	cmpne	r1, #0
 1611898:	e92d4070 	push	{r4, r5, r6, lr}
 161189c:	03a04001 	moveq	r4, #1
 16118a0:	13a04000 	movne	r4, #0
 16118a4:	0a000021 	beq	1611930 <hexdump+0xa0>
 16118a8:	e3500000 	cmp	r0, #0
 16118ac:	e30235d0 	movw	r3, #9680	; 0x25d0
 16118b0:	e3403161 	movt	r3, #353	; 0x161
 16118b4:	01a00003 	moveq	r0, r3
 16118b8:	e1a05001 	mov	r5, r1
 16118bc:	e1a06002 	mov	r6, r2
 16118c0:	ebffff7b 	bl	16116b4 <prints>
 16118c4:	e30205ec 	movw	r0, #9708	; 0x25ec
 16118c8:	e3400161 	movt	r0, #353	; 0x161
 16118cc:	ebffff78 	bl	16116b4 <prints>
 16118d0:	e1a00005 	mov	r0, r5
 16118d4:	e3a01008 	mov	r1, #8
 16118d8:	e2455001 	sub	r5, r5, #1
 16118dc:	ebffffa6 	bl	161177c <print_val>
 16118e0:	e30205f4 	movw	r0, #9716	; 0x25f4
 16118e4:	e3400161 	movt	r0, #353	; 0x161
 16118e8:	ebffff71 	bl	16116b4 <prints>
 16118ec:	e3a01002 	mov	r1, #2
 16118f0:	e5f50001 	ldrb	r0, [r5, #1]!
 16118f4:	ebffffa0 	bl	161177c <print_val>
 16118f8:	e204300f 	and	r3, r4, #15
 16118fc:	e353000f 	cmp	r3, #15
 1611900:	e30205f8 	movw	r0, #9720	; 0x25f8
 1611904:	e3400161 	movt	r0, #353	; 0x161
 1611908:	0302051c 	movweq	r0, #9500	; 0x251c
 161190c:	03400161 	movteq	r0, #353	; 0x161
 1611910:	e2844001 	add	r4, r4, #1
 1611914:	ebffff66 	bl	16116b4 <prints>
 1611918:	e1540006 	cmp	r4, r6
 161191c:	1afffff2 	bne	16118ec <hexdump+0x5c>
 1611920:	e302051c 	movw	r0, #9500	; 0x251c
 1611924:	e3400161 	movt	r0, #353	; 0x161
 1611928:	e8bd4070 	pop	{r4, r5, r6, lr}
 161192c:	eaffff60 	b	16116b4 <prints>
 1611930:	e30205e4 	movw	r0, #9700	; 0x25e4
 1611934:	e3400161 	movt	r0, #353	; 0x161
 1611938:	e8bd4070 	pop	{r4, r5, r6, lr}
 161193c:	eaffff5c 	b	16116b4 <prints>

01611940 <memset>:
 1611940:	e3520000 	cmp	r2, #0
 1611944:	e6ef1071 	uxtb	r1, r1
 1611948:	012fff1e 	bxeq	lr
 161194c:	e0802002 	add	r2, r0, r2
 1611950:	e1a03000 	mov	r3, r0
 1611954:	e4c31001 	strb	r1, [r3], #1
 1611958:	e1530002 	cmp	r3, r2
 161195c:	1afffffc 	bne	1611954 <memset+0x14>
 1611960:	e12fff1e 	bx	lr

01611964 <set_memory>:
 1611964:	e3520000 	cmp	r2, #0
 1611968:	012fff1e 	bxeq	lr
 161196c:	e0802002 	add	r2, r0, r2
 1611970:	e4c01001 	strb	r1, [r0], #1
 1611974:	e1500002 	cmp	r0, r2
 1611978:	1afffffc 	bne	1611970 <set_memory+0xc>
 161197c:	e12fff1e 	bx	lr

01611980 <copy_memory>:
 1611980:	e1813002 	orr	r3, r1, r2
 1611984:	e24dd008 	sub	sp, sp, #8
 1611988:	e1803003 	orr	r3, r0, r3
 161198c:	e2133003 	ands	r3, r3, #3
 1611990:	1a00000f 	bne	16119d4 <copy_memory+0x54>
 1611994:	e58d3004 	str	r3, [sp, #4]
 1611998:	e59d3004 	ldr	r3, [sp, #4]
 161199c:	e1520003 	cmp	r2, r3
 16119a0:	9a000009 	bls	16119cc <copy_memory+0x4c>
 16119a4:	e59d3004 	ldr	r3, [sp, #4]
 16119a8:	e59dc004 	ldr	ip, [sp, #4]
 16119ac:	e791c00c 	ldr	ip, [r1, ip]
 16119b0:	e780c003 	str	ip, [r0, r3]
 16119b4:	e59d3004 	ldr	r3, [sp, #4]
 16119b8:	e2833004 	add	r3, r3, #4
 16119bc:	e58d3004 	str	r3, [sp, #4]
 16119c0:	e59d3004 	ldr	r3, [sp, #4]
 16119c4:	e1520003 	cmp	r2, r3
 16119c8:	8afffff5 	bhi	16119a4 <copy_memory+0x24>
 16119cc:	e28dd008 	add	sp, sp, #8
 16119d0:	e12fff1e 	bx	lr
 16119d4:	e3a03000 	mov	r3, #0
 16119d8:	e58d3004 	str	r3, [sp, #4]
 16119dc:	e59d3004 	ldr	r3, [sp, #4]
 16119e0:	e1520003 	cmp	r2, r3
 16119e4:	9afffff8 	bls	16119cc <copy_memory+0x4c>
 16119e8:	e59dc004 	ldr	ip, [sp, #4]
 16119ec:	e59d3004 	ldr	r3, [sp, #4]
 16119f0:	e7d13003 	ldrb	r3, [r1, r3]
 16119f4:	e6ef3073 	uxtb	r3, r3
 16119f8:	e7c0300c 	strb	r3, [r0, ip]
 16119fc:	e59d3004 	ldr	r3, [sp, #4]
 1611a00:	e2833001 	add	r3, r3, #1
 1611a04:	e58d3004 	str	r3, [sp, #4]
 1611a08:	e59d3004 	ldr	r3, [sp, #4]
 1611a0c:	e1520003 	cmp	r2, r3
 1611a10:	8afffff4 	bhi	16119e8 <copy_memory+0x68>
 1611a14:	e28dd008 	add	sp, sp, #8
 1611a18:	e12fff1e 	bx	lr

01611a1c <compare_memory>:
 1611a1c:	e3520000 	cmp	r2, #0
 1611a20:	0a000011 	beq	1611a6c <compare_memory+0x50>
 1611a24:	e52de004 	push	{lr}		; (str lr, [sp, #-4]!)
 1611a28:	e5d1e000 	ldrb	lr, [r1]
 1611a2c:	e5d0c000 	ldrb	ip, [r0]
 1611a30:	e15c000e 	cmp	ip, lr
 1611a34:	00802002 	addeq	r2, r0, r2
 1611a38:	02803001 	addeq	r3, r0, #1
 1611a3c:	0a000004 	beq	1611a54 <compare_memory+0x38>
 1611a40:	ea000007 	b	1611a64 <compare_memory+0x48>
 1611a44:	e4d3c001 	ldrb	ip, [r3], #1
 1611a48:	e5f1e001 	ldrb	lr, [r1, #1]!
 1611a4c:	e15c000e 	cmp	ip, lr
 1611a50:	1a000003 	bne	1611a64 <compare_memory+0x48>
 1611a54:	e1530002 	cmp	r3, r2
 1611a58:	1afffff9 	bne	1611a44 <compare_memory+0x28>
 1611a5c:	e3a00000 	mov	r0, #0
 1611a60:	e49df004 	pop	{pc}		; (ldr pc, [sp], #4)
 1611a64:	e06e000c 	rsb	r0, lr, ip
 1611a68:	e49df004 	pop	{pc}		; (ldr pc, [sp], #4)
 1611a6c:	e1a00002 	mov	r0, r2
 1611a70:	e12fff1e 	bx	lr

01611a74 <compare_str>:
 1611a74:	e5d03000 	ldrb	r3, [r0]
 1611a78:	e3530000 	cmp	r3, #0
 1611a7c:	0a000009 	beq	1611aa8 <compare_str+0x34>
 1611a80:	e5d12000 	ldrb	r2, [r1]
 1611a84:	e1530002 	cmp	r3, r2
 1611a88:	0a000003 	beq	1611a9c <compare_str+0x28>
 1611a8c:	ea000007 	b	1611ab0 <compare_str+0x3c>
 1611a90:	e5f12001 	ldrb	r2, [r1, #1]!
 1611a94:	e1530002 	cmp	r3, r2
 1611a98:	1a000004 	bne	1611ab0 <compare_str+0x3c>
 1611a9c:	e5f03001 	ldrb	r3, [r0, #1]!
 1611aa0:	e3530000 	cmp	r3, #0
 1611aa4:	1afffff9 	bne	1611a90 <compare_str+0x1c>
 1611aa8:	e1a00003 	mov	r0, r3
 1611aac:	e12fff1e 	bx	lr
 1611ab0:	e0620003 	rsb	r0, r2, r3
 1611ab4:	e12fff1e 	bx	lr

01611ab8 <watchdog_reset>:
 1611ab8:	e3a03a0b 	mov	r3, #45056	; 0xb000
 1611abc:	e3493801 	movt	r3, #38913	; 0x9801
 1611ac0:	e3a02000 	mov	r2, #0
 1611ac4:	e3a000a5 	mov	r0, #165	; 0xa5
 1611ac8:	e3a01001 	mov	r1, #1
 1611acc:	e58305b0 	str	r0, [r3, #1456]	; 0x5b0
 1611ad0:	e58315b4 	str	r1, [r3, #1460]	; 0x5b4
 1611ad4:	e58325bc 	str	r2, [r3, #1468]	; 0x5bc
 1611ad8:	e58325b0 	str	r2, [r3, #1456]	; 0x5b0
 1611adc:	e12fff1e 	bx	lr

01611ae0 <__div0>:
 1611ae0:	e12fff1e 	bx	lr

01611ae4 <e_buffer>:
 1611ae4:	e92d4ff0 	push	{r4, r5, r6, r7, r8, r9, sl, fp, lr}
 1611ae8:	e1a0b003 	mov	fp, r3
 1611aec:	e24dd054 	sub	sp, sp, #84	; 0x54
 1611af0:	e59d7080 	ldr	r7, [sp, #128]	; 0x80
 1611af4:	e88d0003 	stm	sp, {r0, r1}
 1611af8:	e59da078 	ldr	sl, [sp, #120]	; 0x78
 1611afc:	e0020793 	mul	r2, r3, r7
 1611b00:	e3520040 	cmp	r2, #64	; 0x40
 1611b04:	83a07040 	movhi	r7, #64	; 0x40
 1611b08:	8737f317 	udivhi	r7, r7, r3
 1611b0c:	e3570000 	cmp	r7, #0
 1611b10:	03a07010 	moveq	r7, #16
 1611b14:	0737f317 	udiveq	r7, r7, r3
 1611b18:	e35a0000 	cmp	sl, #0
 1611b1c:	11a0908b 	lslne	r9, fp, #1
 1611b20:	0a00005c 	beq	1611c98 <e_buffer+0x1b4>
 1611b24:	e302060c 	movw	r0, #9740	; 0x260c
 1611b28:	e3400161 	movt	r0, #353	; 0x161
 1611b2c:	e59d1000 	ldr	r1, [sp]
 1611b30:	ebfff9e8 	bl	16102d8 <printf>
 1611b34:	e157000a 	cmp	r7, sl
 1611b38:	21a0700a 	movcs	r7, sl
 1611b3c:	e59d3000 	ldr	r3, [sp]
 1611b40:	e3570000 	cmp	r7, #0
 1611b44:	e283831a 	add	r8, r3, #1744830464	; 0x68000000
 1611b48:	01a04007 	moveq	r4, r7
 1611b4c:	02488a17 	subeq	r8, r8, #94208	; 0x17000
 1611b50:	01a0e007 	moveq	lr, r7
 1611b54:	0a00003c 	beq	1611c4c <e_buffer+0x168>
 1611b58:	e59d6004 	ldr	r6, [sp, #4]
 1611b5c:	e2488a17 	sub	r8, r8, #94208	; 0x17000
 1611b60:	e3a05000 	mov	r5, #0
 1611b64:	e28d400c 	add	r4, sp, #12
 1611b68:	ea000004 	b	1611b80 <e_buffer+0x9c>
 1611b6c:	e2855001 	add	r5, r5, #1
 1611b70:	ebfff9d8 	bl	16102d8 <printf>
 1611b74:	e1550007 	cmp	r5, r7
 1611b78:	e086600b 	add	r6, r6, fp
 1611b7c:	0a000017 	beq	1611be0 <e_buffer+0xfc>
 1611b80:	e35b0004 	cmp	fp, #4
 1611b84:	05962000 	ldreq	r2, [r6]
 1611b88:	07842105 	streq	r2, [r4, r5, lsl #2]
 1611b8c:	0a000007 	beq	1611bb0 <e_buffer+0xcc>
 1611b90:	e35b0002 	cmp	fp, #2
 1611b94:	01a03085 	lsleq	r3, r5, #1
 1611b98:	01d620b0 	ldrheq	r2, [r6]
 1611b9c:	15d62000 	ldrbne	r2, [r6]
 1611ba0:	06ff2072 	uxtheq	r2, r2
 1611ba4:	018420b3 	strheq	r2, [r4, r3]
 1611ba8:	16ef2072 	uxtbne	r2, r2
 1611bac:	17c42005 	strbne	r2, [r4, r5]
 1611bb0:	e3580b01 	cmp	r8, #1024	; 0x400
 1611bb4:	e3020618 	movw	r0, #9752	; 0x2618
 1611bb8:	e3400161 	movt	r0, #353	; 0x161
 1611bbc:	e1a01009 	mov	r1, r9
 1611bc0:	2affffe9 	bcs	1611b6c <e_buffer+0x88>
 1611bc4:	e3020620 	movw	r0, #9760	; 0x2620
 1611bc8:	e3400161 	movt	r0, #353	; 0x161
 1611bcc:	e2855001 	add	r5, r5, #1
 1611bd0:	ebfff9c0 	bl	16102d8 <printf>
 1611bd4:	e1550007 	cmp	r5, r7
 1611bd8:	e086600b 	add	r6, r6, fp
 1611bdc:	1affffe7 	bne	1611b80 <e_buffer+0x9c>
 1611be0:	e00e079b 	mul	lr, fp, r7
 1611be4:	e59d3004 	ldr	r3, [sp, #4]
 1611be8:	e35e0000 	cmp	lr, #0
 1611bec:	01a0400e 	moveq	r4, lr
 1611bf0:	e083300e 	add	r3, r3, lr
 1611bf4:	01a0e004 	moveq	lr, r4
 1611bf8:	e58d3004 	str	r3, [sp, #4]
 1611bfc:	0a000012 	beq	1611c4c <e_buffer+0x168>
 1611c00:	e24e2001 	sub	r2, lr, #1
 1611c04:	e302c3b4 	movw	ip, #9140	; 0x23b4
 1611c08:	e340c161 	movt	ip, #353	; 0x161
 1611c0c:	e0844002 	add	r4, r4, r2
 1611c10:	e3a0502e 	mov	r5, #46	; 0x2e
 1611c14:	e28d200b 	add	r2, sp, #11
 1611c18:	ea000003 	b	1611c2c <e_buffer+0x148>
 1611c1c:	e3130080 	tst	r3, #128	; 0x80
 1611c20:	1a000005 	bne	1611c3c <e_buffer+0x158>
 1611c24:	e1520004 	cmp	r2, r4
 1611c28:	0a000006 	beq	1611c48 <e_buffer+0x164>
 1611c2c:	e5f23001 	ldrb	r3, [r2, #1]!
 1611c30:	e7dc1003 	ldrb	r1, [ip, r3]
 1611c34:	e3110097 	tst	r1, #151	; 0x97
 1611c38:	1afffff7 	bne	1611c1c <e_buffer+0x138>
 1611c3c:	e1520004 	cmp	r2, r4
 1611c40:	e5c25000 	strb	r5, [r2]
 1611c44:	1afffff8 	bne	1611c2c <e_buffer+0x148>
 1611c48:	e1a0400e 	mov	r4, lr
 1611c4c:	e28d3050 	add	r3, sp, #80	; 0x50
 1611c50:	e3580b01 	cmp	r8, #1024	; 0x400
 1611c54:	e083e00e 	add	lr, r3, lr
 1611c58:	e3a02000 	mov	r2, #0
 1611c5c:	e54e2044 	strb	r2, [lr, #-68]	; 0x44
 1611c60:	3a00000f 	bcc	1611ca4 <e_buffer+0x1c0>
 1611c64:	e3020624 	movw	r0, #9764	; 0x2624
 1611c68:	e3400161 	movt	r0, #353	; 0x161
 1611c6c:	e28d100c 	add	r1, sp, #12
 1611c70:	ebfff998 	bl	16102d8 <printf>
 1611c74:	ebfff995 	bl	16102d0 <ctrlc>
 1611c78:	e59d3000 	ldr	r3, [sp]
 1611c7c:	e3500000 	cmp	r0, #0
 1611c80:	e067a00a 	rsb	sl, r7, sl
 1611c84:	e0833004 	add	r3, r3, r4
 1611c88:	e58d3000 	str	r3, [sp]
 1611c8c:	1a000008 	bne	1611cb4 <e_buffer+0x1d0>
 1611c90:	e35a0000 	cmp	sl, #0
 1611c94:	1affffa2 	bne	1611b24 <e_buffer+0x40>
 1611c98:	e3a00000 	mov	r0, #0
 1611c9c:	e28dd054 	add	sp, sp, #84	; 0x54
 1611ca0:	e8bd8ff0 	pop	{r4, r5, r6, r7, r8, r9, sl, fp, pc}
 1611ca4:	e3020630 	movw	r0, #9776	; 0x2630
 1611ca8:	e3400161 	movt	r0, #353	; 0x161
 1611cac:	ebfff989 	bl	16102d8 <printf>
 1611cb0:	eaffffef 	b	1611c74 <e_buffer+0x190>
 1611cb4:	e3e00000 	mvn	r0, #0
 1611cb8:	e28dd054 	add	sp, sp, #84	; 0x54
 1611cbc:	e8bd8ff0 	pop	{r4, r5, r6, r7, r8, r9, sl, fp, pc}

01611cc0 <read_efuse>:
 1611cc0:	e92d41f0 	push	{r4, r5, r6, r7, r8, lr}
 1611cc4:	e3022a44 	movw	r2, #10820	; 0x2a44
 1611cc8:	e3402162 	movt	r2, #354	; 0x162
 1611ccc:	e59f4094 	ldr	r4, [pc, #148]	; 1611d68 <read_efuse+0xa8>
 1611cd0:	e3a01010 	mov	r1, #16
 1611cd4:	e2820010 	add	r0, r2, #16
 1611cd8:	e3a03000 	mov	r3, #0
 1611cdc:	e0847001 	add	r7, r4, r1
 1611ce0:	e2445010 	sub	r5, r4, #16
 1611ce4:	ebfffc67 	bl	1610e88 <AES_ECB_encrypt>
 1611ce8:	e1a01000 	mov	r1, r0
 1611cec:	e3020638 	movw	r0, #9784	; 0x2638
 1611cf0:	e3400161 	movt	r0, #353	; 0x161
 1611cf4:	e1a06005 	mov	r6, r5
 1611cf8:	ebfff976 	bl	16102d8 <printf>
 1611cfc:	e5f41001 	ldrb	r1, [r4, #1]!
 1611d00:	e3020640 	movw	r0, #9792	; 0x2640
 1611d04:	e3400161 	movt	r0, #353	; 0x161
 1611d08:	e5f62001 	ldrb	r2, [r6, #1]!
 1611d0c:	ebfff971 	bl	16102d8 <printf>
 1611d10:	e1540007 	cmp	r4, r7
 1611d14:	1afffff8 	bne	1611cfc <read_efuse+0x3c>
 1611d18:	e59f204c 	ldr	r2, [pc, #76]	; 1611d6c <read_efuse+0xac>
 1611d1c:	e3a01010 	mov	r1, #16
 1611d20:	e3a03000 	mov	r3, #0
 1611d24:	e2420020 	sub	r0, r2, #32
 1611d28:	e2424001 	sub	r4, r2, #1
 1611d2c:	ebfffc30 	bl	1610df4 <AES_ECB_decrypt>
 1611d30:	e1a01000 	mov	r1, r0
 1611d34:	e3020638 	movw	r0, #9784	; 0x2638
 1611d38:	e3400161 	movt	r0, #353	; 0x161
 1611d3c:	e2446010 	sub	r6, r4, #16
 1611d40:	ebfff964 	bl	16102d8 <printf>
 1611d44:	e5f51001 	ldrb	r1, [r5, #1]!
 1611d48:	e302065c 	movw	r0, #9820	; 0x265c
 1611d4c:	e3400161 	movt	r0, #353	; 0x161
 1611d50:	e5f42001 	ldrb	r2, [r4, #1]!
 1611d54:	ebfff95f 	bl	16102d8 <printf>
 1611d58:	e1550006 	cmp	r5, r6
 1611d5c:	1afffff8 	bne	1611d44 <read_efuse+0x84>
 1611d60:	e3a00000 	mov	r0, #0
 1611d64:	e8bd81f0 	pop	{r4, r5, r6, r7, r8, pc}
 1611d68:	01622a53 	cmneq	r2, r3, asr sl
 1611d6c:	01622a64 	cmneq	r2, r4, ror #20

01611d70 <OTP_JUDGE_BIT>:
 1611d70:	e2002007 	and	r2, r0, #7
 1611d74:	e1a001a0 	lsr	r0, r0, #3
 1611d78:	e3c03003 	bic	r3, r0, #3
 1611d7c:	e2000003 	and	r0, r0, #3
 1611d80:	e2833326 	add	r3, r3, #-1744830464	; 0x98000000
 1611d84:	e2833a17 	add	r3, r3, #94208	; 0x17000
 1611d88:	e1a00180 	lsl	r0, r0, #3
 1611d8c:	e5933000 	ldr	r3, [r3]
 1611d90:	e1a00033 	lsr	r0, r3, r0
 1611d94:	e1a00230 	lsr	r0, r0, r2
 1611d98:	e2000001 	and	r0, r0, #1
 1611d9c:	e12fff1e 	bx	lr

01611da0 <do_burn_efuse_getmptest2>:
 1611da0:	e92d4010 	push	{r4, lr}
 1611da4:	e3001e0a 	movw	r1, #3594	; 0xe0a
 1611da8:	e3020678 	movw	r0, #9848	; 0x2678
 1611dac:	e3400161 	movt	r0, #353	; 0x161
 1611db0:	ebfff948 	bl	16102d8 <printf>
 1611db4:	e3000e0a 	movw	r0, #3594	; 0xe0a
 1611db8:	ebffffec 	bl	1611d70 <OTP_JUDGE_BIT>
 1611dbc:	e3500000 	cmp	r0, #0
 1611dc0:	130206b0 	movwne	r0, #9904	; 0x26b0
 1611dc4:	030206ac 	movweq	r0, #9900	; 0x26ac
 1611dc8:	13400161 	movtne	r0, #353	; 0x161
 1611dcc:	03400161 	movteq	r0, #353	; 0x161
 1611dd0:	ebfff940 	bl	16102d8 <printf>
 1611dd4:	e3a00000 	mov	r0, #0
 1611dd8:	e8bd8010 	pop	{r4, pc}

01611ddc <OTP_Program_Start>:
 1611ddc:	e12fff1e 	bx	lr

01611de0 <OTP_Program_End>:
 1611de0:	e3a03a07 	mov	r3, #28672	; 0x7000
 1611de4:	e3493801 	movt	r3, #38913	; 0x9801
 1611de8:	e92d4010 	push	{r4, lr}
 1611dec:	e5931400 	ldr	r1, [r3, #1024]	; 0x400
 1611df0:	e3a00005 	mov	r0, #5
 1611df4:	e3a02a0a 	mov	r2, #40960	; 0xa000
 1611df8:	e3402080 	movt	r2, #128	; 0x80
 1611dfc:	e5832400 	str	r2, [r3, #1024]	; 0x400
 1611e00:	ebfffdef 	bl	16115c4 <udelay>
 1611e04:	e30215fc 	movw	r1, #9724	; 0x25fc
 1611e08:	e3401161 	movt	r1, #353	; 0x161
 1611e0c:	e30206b8 	movw	r0, #9912	; 0x26b8
 1611e10:	e3400161 	movt	r0, #353	; 0x161
 1611e14:	ebfff92f 	bl	16102d8 <printf>
 1611e18:	e3a00000 	mov	r0, #0
 1611e1c:	e8bd8010 	pop	{r4, pc}

01611e20 <start_program>:
 1611e20:	e92d41f0 	push	{r4, r5, r6, r7, r8, lr}
 1611e24:	e1a07001 	mov	r7, r1
 1611e28:	e1a04000 	mov	r4, r0
 1611e2c:	e30206c4 	movw	r0, #9924	; 0x26c4
 1611e30:	e3400161 	movt	r0, #353	; 0x161
 1611e34:	e1a08002 	mov	r8, r2
 1611e38:	ebfff926 	bl	16102d8 <printf>
 1611e3c:	e1a02007 	mov	r2, r7
 1611e40:	e1a01004 	mov	r1, r4
 1611e44:	e30206dc 	movw	r0, #9948	; 0x26dc
 1611e48:	e3400161 	movt	r0, #353	; 0x161
 1611e4c:	ebfff921 	bl	16102d8 <printf>
 1611e50:	e3a00efe 	mov	r0, #4064	; 0xfe0
 1611e54:	ebffffc5 	bl	1611d70 <OTP_JUDGE_BIT>
 1611e58:	e1b07187 	lsls	r7, r7, #3
 1611e5c:	13a05000 	movne	r5, #0
 1611e60:	11a04005 	movne	r4, r5
 1611e64:	1a00000c 	bne	1611e9c <start_program+0x7c>
 1611e68:	ea000012 	b	1611eb8 <start_program+0x98>
 1611e6c:	e7d83005 	ldrb	r3, [r8, r5]
 1611e70:	e3020724 	movw	r0, #10020	; 0x2724
 1611e74:	e3400161 	movt	r0, #353	; 0x161
 1611e78:	e2844001 	add	r4, r4, #1
 1611e7c:	e1a03653 	asr	r3, r3, r6
 1611e80:	e3130001 	tst	r3, #1
 1611e84:	e1a051a4 	lsr	r5, r4, #3
 1611e88:	13020720 	movwne	r0, #10016	; 0x2720
 1611e8c:	13400161 	movtne	r0, #353	; 0x161
 1611e90:	ebfff910 	bl	16102d8 <printf>
 1611e94:	e1540007 	cmp	r4, r7
 1611e98:	0a000006 	beq	1611eb8 <start_program+0x98>
 1611e9c:	e2146007 	ands	r6, r4, #7
 1611ea0:	1afffff1 	bne	1611e6c <start_program+0x4c>
 1611ea4:	e3020714 	movw	r0, #10004	; 0x2714
 1611ea8:	e3400161 	movt	r0, #353	; 0x161
 1611eac:	e1a01005 	mov	r1, r5
 1611eb0:	ebfff908 	bl	16102d8 <printf>
 1611eb4:	eaffffec 	b	1611e6c <start_program+0x4c>
 1611eb8:	ebffffc8 	bl	1611de0 <OTP_Program_End>
 1611ebc:	e30206fc 	movw	r0, #9980	; 0x26fc
 1611ec0:	e3400161 	movt	r0, #353	; 0x161
 1611ec4:	e8bd41f0 	pop	{r4, r5, r6, r7, r8, lr}
 1611ec8:	eafff902 	b	16102d8 <printf>

01611ecc <do_burn_efuse_rsa>:
 1611ecc:	e92d4010 	push	{r4, lr}
 1611ed0:	e3024a44 	movw	r4, #10820	; 0x2a44
 1611ed4:	e3404162 	movt	r4, #354	; 0x162
 1611ed8:	e3020728 	movw	r0, #10024	; 0x2728
 1611edc:	e3400161 	movt	r0, #353	; 0x161
 1611ee0:	e5b41030 	ldr	r1, [r4, #48]!	; 0x30
 1611ee4:	ebfff8fb 	bl	16102d8 <printf>
 1611ee8:	e3a01c01 	mov	r1, #256	; 0x100
 1611eec:	e1a02004 	mov	r2, r4
 1611ef0:	e3a00000 	mov	r0, #0
 1611ef4:	ebffffc9 	bl	1611e20 <start_program>
 1611ef8:	e3a00000 	mov	r0, #0
 1611efc:	e8bd8010 	pop	{r4, pc}

01611f00 <burn_id_test>:
 1611f00:	e92d4010 	push	{r4, lr}
 1611f04:	e300cff8 	movw	ip, #4088	; 0xff8
 1611f08:	e240ea01 	sub	lr, r0, #4096	; 0x1000
 1611f0c:	e15e000c 	cmp	lr, ip
 1611f10:	8a00000d 	bhi	1611f4c <burn_id_test+0x4c>
 1611f14:	e0803001 	add	r3, r0, r1
 1611f18:	e301cff8 	movw	ip, #8184	; 0x1ff8
 1611f1c:	e153000c 	cmp	r3, ip
 1611f20:	e1a04001 	mov	r4, r1
 1611f24:	8a000002 	bhi	1611f34 <burn_id_test+0x34>
 1611f28:	ebffffbc 	bl	1611e20 <start_program>
 1611f2c:	e3a00000 	mov	r0, #0
 1611f30:	e8bd8010 	pop	{r4, pc}
 1611f34:	e1a01003 	mov	r1, r3
 1611f38:	e3020760 	movw	r0, #10080	; 0x2760
 1611f3c:	e3400161 	movt	r0, #353	; 0x161
 1611f40:	ebfff8e4 	bl	16102d8 <printf>
 1611f44:	e3a00001 	mov	r0, #1
 1611f48:	e8bd8010 	pop	{r4, pc}
 1611f4c:	e1a01000 	mov	r1, r0
 1611f50:	e3020738 	movw	r0, #10040	; 0x2738
 1611f54:	e3400161 	movt	r0, #353	; 0x161
 1611f58:	ebfff8de 	bl	16102d8 <printf>
 1611f5c:	e3a00001 	mov	r0, #1
 1611f60:	e8bd8010 	pop	{r4, pc}

01611f64 <do_burn_efuse_aes>:
 1611f64:	e3500001 	cmp	r0, #1
 1611f68:	e92d4010 	push	{r4, lr}
 1611f6c:	0a00000e 	beq	1611fac <do_burn_efuse_aes+0x48>
 1611f70:	3a000007 	bcc	1611f94 <do_burn_efuse_aes+0x30>
 1611f74:	e3500002 	cmp	r0, #2
 1611f78:	1a000003 	bne	1611f8c <do_burn_efuse_aes+0x28>
 1611f7c:	e59f2040 	ldr	r2, [pc, #64]	; 1611fc4 <do_burn_efuse_aes+0x60>
 1611f80:	e3a01010 	mov	r1, #16
 1611f84:	e3a00c0a 	mov	r0, #2560	; 0xa00
 1611f88:	ebffffa4 	bl	1611e20 <start_program>
 1611f8c:	e3a00000 	mov	r0, #0
 1611f90:	e8bd8010 	pop	{r4, pc}
 1611f94:	e59f202c 	ldr	r2, [pc, #44]	; 1611fc8 <do_burn_efuse_aes+0x64>
 1611f98:	e3a01010 	mov	r1, #16
 1611f9c:	e3a00b02 	mov	r0, #2048	; 0x800
 1611fa0:	ebffff9e 	bl	1611e20 <start_program>
 1611fa4:	e3a00000 	mov	r0, #0
 1611fa8:	e8bd8010 	pop	{r4, pc}
 1611fac:	e59f2018 	ldr	r2, [pc, #24]	; 1611fcc <do_burn_efuse_aes+0x68>
 1611fb0:	e3a01010 	mov	r1, #16
 1611fb4:	e3a00c09 	mov	r0, #2304	; 0x900
 1611fb8:	ebffff98 	bl	1611e20 <start_program>
 1611fbc:	e3a00000 	mov	r0, #0
 1611fc0:	e8bd8010 	pop	{r4, pc}
 1611fc4:	01622b94 			; <UNDEFINED> instruction: 0x01622b94
 1611fc8:	01622b74 	smceq	8884	; 0x22b4
 1611fcc:	01622b84 	cmneq	r2, r4, lsl #23

01611fd0 <do_burn_efuse_deviceID>:
 1611fd0:	e92d4010 	push	{r4, lr}
 1611fd4:	e59f2010 	ldr	r2, [pc, #16]	; 1611fec <do_burn_efuse_deviceID+0x1c>
 1611fd8:	e3a01010 	mov	r1, #16
 1611fdc:	e3a00ed2 	mov	r0, #3360	; 0xd20
 1611fe0:	ebffff8e 	bl	1611e20 <start_program>
 1611fe4:	e3a00000 	mov	r0, #0
 1611fe8:	e8bd8010 	pop	{r4, pc}
 1611fec:	01622ba4 	cmneq	r2, r4, lsr #23

01611ff0 <do_burn_efuse_secureboot>:
 1611ff0:	e92d4010 	push	{r4, lr}
 1611ff4:	e3001da6 	movw	r1, #3494	; 0xda6
 1611ff8:	e3020788 	movw	r0, #10120	; 0x2788
 1611ffc:	e3400161 	movt	r0, #353	; 0x161
 1612000:	ebfff8b4 	bl	16102d8 <printf>
 1612004:	e3a00efe 	mov	r0, #4064	; 0xfe0
 1612008:	ebffff58 	bl	1611d70 <OTP_JUDGE_BIT>
 161200c:	ebffff73 	bl	1611de0 <OTP_Program_End>
 1612010:	e3a00000 	mov	r0, #0
 1612014:	e8bd8010 	pop	{r4, pc}

01612018 <do_burn_efuse_bootenc>:
 1612018:	e92d4010 	push	{r4, lr}
 161201c:	e3001dbb 	movw	r1, #3515	; 0xdbb
 1612020:	e30207ac 	movw	r0, #10156	; 0x27ac
 1612024:	e3400161 	movt	r0, #353	; 0x161
 1612028:	ebfff8aa 	bl	16102d8 <printf>
 161202c:	e3a00efe 	mov	r0, #4064	; 0xfe0
 1612030:	ebffff4e 	bl	1611d70 <OTP_JUDGE_BIT>
 1612034:	ebffff69 	bl	1611de0 <OTP_Program_End>
 1612038:	e3a00000 	mov	r0, #0
 161203c:	e8bd8010 	pop	{r4, pc}

01612040 <do_burn_efuse_loadsos>:
 1612040:	e92d4010 	push	{r4, lr}
 1612044:	e3001e0e 	movw	r1, #3598	; 0xe0e
 1612048:	e30207d0 	movw	r0, #10192	; 0x27d0
 161204c:	e3400161 	movt	r0, #353	; 0x161
 1612050:	ebfff8a0 	bl	16102d8 <printf>
 1612054:	e3a00efe 	mov	r0, #4064	; 0xfe0
 1612058:	ebffff44 	bl	1611d70 <OTP_JUDGE_BIT>
 161205c:	ebffff5f 	bl	1611de0 <OTP_Program_End>
 1612060:	e3a00000 	mov	r0, #0
 1612064:	e8bd8010 	pop	{r4, pc}

01612068 <do_burn_efuse_disonecore>:
 1612068:	e92d4010 	push	{r4, lr}
 161206c:	e3001e0f 	movw	r1, #3599	; 0xe0f
 1612070:	e30207f4 	movw	r0, #10228	; 0x27f4
 1612074:	e3400161 	movt	r0, #353	; 0x161
 1612078:	ebfff896 	bl	16102d8 <printf>
 161207c:	e3a00efe 	mov	r0, #4064	; 0xfe0
 1612080:	ebffff3a 	bl	1611d70 <OTP_JUDGE_BIT>
 1612084:	ebffff55 	bl	1611de0 <OTP_Program_End>
 1612088:	e3a00000 	mov	r0, #0
 161208c:	e8bd8010 	pop	{r4, pc}

01612090 <do_burn_efuse_usb2sram>:
 1612090:	e92d4010 	push	{r4, lr}
 1612094:	e3001dc2 	movw	r1, #3522	; 0xdc2
 1612098:	e302081c 	movw	r0, #10268	; 0x281c
 161209c:	e3400161 	movt	r0, #353	; 0x161
 16120a0:	ebfff88c 	bl	16102d8 <printf>
 16120a4:	e3a00efe 	mov	r0, #4064	; 0xfe0
 16120a8:	ebffff30 	bl	1611d70 <OTP_JUDGE_BIT>
 16120ac:	ebffff4b 	bl	1611de0 <OTP_Program_End>
 16120b0:	e3a00000 	mov	r0, #0
 16120b4:	e8bd8010 	pop	{r4, pc}

016120b8 <do_burn_efuse_mptest2>:
 16120b8:	e92d4010 	push	{r4, lr}
 16120bc:	e3001e0a 	movw	r1, #3594	; 0xe0a
 16120c0:	e3020840 	movw	r0, #10304	; 0x2840
 16120c4:	e3400161 	movt	r0, #353	; 0x161
 16120c8:	ebfff882 	bl	16102d8 <printf>
 16120cc:	e3a00efe 	mov	r0, #4064	; 0xfe0
 16120d0:	ebffff26 	bl	1611d70 <OTP_JUDGE_BIT>
 16120d4:	ebffff41 	bl	1611de0 <OTP_Program_End>
 16120d8:	e3a00000 	mov	r0, #0
 16120dc:	e8bd8010 	pop	{r4, pc}

016120e0 <do_burn_efuse_keysel>:
 16120e0:	e2403001 	sub	r3, r0, #1
 16120e4:	e3530002 	cmp	r3, #2
 16120e8:	e92d4010 	push	{r4, lr}
 16120ec:	e1a04000 	mov	r4, r0
 16120f0:	8a000008 	bhi	1612118 <do_burn_efuse_keysel+0x38>
 16120f4:	e3a00efe 	mov	r0, #4064	; 0xfe0
 16120f8:	ebffff1c 	bl	1611d70 <OTP_JUDGE_BIT>
 16120fc:	e3140001 	tst	r4, #1
 1612100:	1a00000e 	bne	1612140 <do_burn_efuse_keysel+0x60>
 1612104:	e3140002 	tst	r4, #2
 1612108:	1a000007 	bne	161212c <do_burn_efuse_keysel+0x4c>
 161210c:	ebffff33 	bl	1611de0 <OTP_Program_End>
 1612110:	e3a00000 	mov	r0, #0
 1612114:	e8bd8010 	pop	{r4, pc}
 1612118:	e3020870 	movw	r0, #10352	; 0x2870
 161211c:	e3400161 	movt	r0, #353	; 0x161
 1612120:	ebfff86c 	bl	16102d8 <printf>
 1612124:	e3a00001 	mov	r0, #1
 1612128:	e8bd8010 	pop	{r4, pc}
 161212c:	e30208ac 	movw	r0, #10412	; 0x28ac
 1612130:	e3400161 	movt	r0, #353	; 0x161
 1612134:	e3001da1 	movw	r1, #3489	; 0xda1
 1612138:	ebfff866 	bl	16102d8 <printf>
 161213c:	eafffff2 	b	161210c <do_burn_efuse_keysel+0x2c>
 1612140:	e3020888 	movw	r0, #10376	; 0x2888
 1612144:	e3400161 	movt	r0, #353	; 0x161
 1612148:	e3a01eda 	mov	r1, #3488	; 0xda0
 161214c:	ebfff861 	bl	16102d8 <printf>
 1612150:	e3140002 	tst	r4, #2
 1612154:	0affffec 	beq	161210c <do_burn_efuse_keysel+0x2c>
 1612158:	eafffff3 	b	161212c <do_burn_efuse_keysel+0x4c>

0161215c <do_burn_efuse_hwchk>:
 161215c:	e2403001 	sub	r3, r0, #1
 1612160:	e3530002 	cmp	r3, #2
 1612164:	e92d4010 	push	{r4, lr}
 1612168:	e1a04000 	mov	r4, r0
 161216c:	8a000008 	bhi	1612194 <do_burn_efuse_hwchk+0x38>
 1612170:	e3a00efe 	mov	r0, #4064	; 0xfe0
 1612174:	ebfffefd 	bl	1611d70 <OTP_JUDGE_BIT>
 1612178:	e3140001 	tst	r4, #1
 161217c:	1a00000e 	bne	16121bc <do_burn_efuse_hwchk+0x60>
 1612180:	e3140002 	tst	r4, #2
 1612184:	1a000007 	bne	16121a8 <do_burn_efuse_hwchk+0x4c>
 1612188:	ebffff14 	bl	1611de0 <OTP_Program_End>
 161218c:	e3a00000 	mov	r0, #0
 1612190:	e8bd8010 	pop	{r4, pc}
 1612194:	e30208d0 	movw	r0, #10448	; 0x28d0
 1612198:	e3400161 	movt	r0, #353	; 0x161
 161219c:	ebfff84d 	bl	16102d8 <printf>
 16121a0:	e3a00001 	mov	r0, #1
 16121a4:	e8bd8010 	pop	{r4, pc}
 16121a8:	e3020904 	movw	r0, #10500	; 0x2904
 16121ac:	e3400161 	movt	r0, #353	; 0x161
 16121b0:	e3001e0c 	movw	r1, #3596	; 0xe0c
 16121b4:	ebfff847 	bl	16102d8 <printf>
 16121b8:	eafffff2 	b	1612188 <do_burn_efuse_hwchk+0x2c>
 16121bc:	e30208e4 	movw	r0, #10468	; 0x28e4
 16121c0:	e3400161 	movt	r0, #353	; 0x161
 16121c4:	e3001e0b 	movw	r1, #3595	; 0xe0b
 16121c8:	ebfff842 	bl	16102d8 <printf>
 16121cc:	e3140002 	tst	r4, #2
 16121d0:	0affffec 	beq	1612188 <do_burn_efuse_hwchk+0x2c>
 16121d4:	eafffff3 	b	16121a8 <do_burn_efuse_hwchk+0x4c>

016121d8 <do_burn_efuse_all>:
 16121d8:	e92d4010 	push	{r4, lr}
 16121dc:	e3024a44 	movw	r4, #10820	; 0x2a44
 16121e0:	e3404162 	movt	r4, #354	; 0x162
 16121e4:	e2842030 	add	r2, r4, #48	; 0x30
 16121e8:	e3a01c01 	mov	r1, #256	; 0x100
 16121ec:	e3a00000 	mov	r0, #0
 16121f0:	ebffff0a 	bl	1611e20 <start_program>
 16121f4:	e2842e13 	add	r2, r4, #304	; 0x130
 16121f8:	e3a01010 	mov	r1, #16
 16121fc:	e3a00b02 	mov	r0, #2048	; 0x800
 1612200:	ebffff06 	bl	1611e20 <start_program>
 1612204:	e2842d05 	add	r2, r4, #320	; 0x140
 1612208:	e3a01010 	mov	r1, #16
 161220c:	e3a00c09 	mov	r0, #2304	; 0x900
 1612210:	ebffff02 	bl	1611e20 <start_program>
 1612214:	e2842e15 	add	r2, r4, #336	; 0x150
 1612218:	e3a01010 	mov	r1, #16
 161221c:	e3a00c0a 	mov	r0, #2560	; 0xa00
 1612220:	ebfffefe 	bl	1611e20 <start_program>
 1612224:	e2842e16 	add	r2, r4, #352	; 0x160
 1612228:	e3a01010 	mov	r1, #16
 161222c:	e3a00ed2 	mov	r0, #3360	; 0xd20
 1612230:	ebfffefa 	bl	1611e20 <start_program>
 1612234:	ebffff6d 	bl	1611ff0 <do_burn_efuse_secureboot>
 1612238:	ebffff76 	bl	1612018 <do_burn_efuse_bootenc>
 161223c:	ebffff7f 	bl	1612040 <do_burn_efuse_loadsos>
 1612240:	ebffff88 	bl	1612068 <do_burn_efuse_disonecore>
 1612244:	ebffff91 	bl	1612090 <do_burn_efuse_usb2sram>
 1612248:	ebffff9a 	bl	16120b8 <do_burn_efuse_mptest2>
 161224c:	e3a00001 	mov	r0, #1
 1612250:	ebffffa2 	bl	16120e0 <do_burn_efuse_keysel>
 1612254:	e3a00002 	mov	r0, #2
 1612258:	ebffffa0 	bl	16120e0 <do_burn_efuse_keysel>
 161225c:	e3a00001 	mov	r0, #1
 1612260:	ebffffbd 	bl	161215c <do_burn_efuse_hwchk>
 1612264:	e3a00002 	mov	r0, #2
 1612268:	ebffffbb 	bl	161215c <do_burn_efuse_hwchk>
 161226c:	e3a00000 	mov	r0, #0
 1612270:	e8bd8010 	pop	{r4, pc}

01612274 <OTP_Get_Word>:
 1612274:	e3520000 	cmp	r2, #0
 1612278:	e3c00003 	bic	r0, r0, #3
 161227c:	0a00001a 	beq	16122ec <OTP_Get_Word+0x78>
 1612280:	e280033e 	add	r0, r0, #-134217728	; 0xf8000000
 1612284:	e30fcfff 	movw	ip, #65535	; 0xffff
 1612288:	e340c006 	movt	ip, #6
 161228c:	e52de004 	push	{lr}		; (str lr, [sp, #-4]!)
 1612290:	e0812102 	add	r2, r1, r2, lsl #2
 1612294:	e2800a17 	add	r0, r0, #94208	; 0x17000
 1612298:	ea000004 	b	16122b0 <OTP_Get_Word+0x3c>
 161229c:	e5903000 	ldr	r3, [r0]
 16122a0:	e2800004 	add	r0, r0, #4
 16122a4:	e4813004 	str	r3, [r1], #4
 16122a8:	e1510002 	cmp	r1, r2
 16122ac:	0a00000c 	beq	16122e4 <OTP_Get_Word+0x70>
 16122b0:	e280331a 	add	r3, r0, #1744830464	; 0x68000000
 16122b4:	e153000c 	cmp	r3, ip
 16122b8:	9afffff7 	bls	161229c <OTP_Get_Word+0x28>
 16122bc:	e2803467 	add	r3, r0, #1728053248	; 0x67000000
 16122c0:	e280e20a 	add	lr, r0, #-1610612736	; 0xa0000000
 16122c4:	e283360f 	add	r3, r3, #15728640	; 0xf00000
 16122c8:	e3530402 	cmp	r3, #33554432	; 0x2000000
 16122cc:	259e3000 	ldrcs	r3, [lr]
 16122d0:	3afffff1 	bcc	161229c <OTP_Get_Word+0x28>
 16122d4:	e4813004 	str	r3, [r1], #4
 16122d8:	e2800004 	add	r0, r0, #4
 16122dc:	e1510002 	cmp	r1, r2
 16122e0:	1afffff2 	bne	16122b0 <OTP_Get_Word+0x3c>
 16122e4:	e3a00000 	mov	r0, #0
 16122e8:	e49df004 	pop	{pc}		; (ldr pc, [sp], #4)
 16122ec:	e3a00000 	mov	r0, #0
 16122f0:	e12fff1e 	bx	lr

016122f4 <OTP_Get_Byte>:
 16122f4:	e3520000 	cmp	r2, #0
 16122f8:	e3c00003 	bic	r0, r0, #3
 16122fc:	0a00000f 	beq	1612340 <OTP_Get_Byte+0x4c>
 1612300:	e52de004 	push	{lr}		; (str lr, [sp, #-4]!)
 1612304:	e081e002 	add	lr, r1, r2
 1612308:	e1a031a0 	lsr	r3, r0, #3
 161230c:	e2800008 	add	r0, r0, #8
 1612310:	e3c3c003 	bic	ip, r3, #3
 1612314:	e2033003 	and	r3, r3, #3
 1612318:	e28cc326 	add	ip, ip, #-1744830464	; 0x98000000
 161231c:	e28cca17 	add	ip, ip, #94208	; 0x17000
 1612320:	e1a03183 	lsl	r3, r3, #3
 1612324:	e59cc000 	ldr	ip, [ip]
 1612328:	e1a0333c 	lsr	r3, ip, r3
 161232c:	e4c13001 	strb	r3, [r1], #1
 1612330:	e151000e 	cmp	r1, lr
 1612334:	1afffff3 	bne	1612308 <OTP_Get_Byte+0x14>
 1612338:	e1a00002 	mov	r0, r2
 161233c:	e49df004 	pop	{pc}		; (ldr pc, [sp], #4)
 1612340:	e1a00002 	mov	r0, r2
 1612344:	e12fff1e 	bx	lr

01612348 <read_id_test>:
 1612348:	e92d4010 	push	{r4, lr}
 161234c:	e300cff8 	movw	ip, #4088	; 0xff8
 1612350:	e240ea01 	sub	lr, r0, #4096	; 0x1000
 1612354:	e15e000c 	cmp	lr, ip
 1612358:	8a00000f 	bhi	161239c <read_id_test+0x54>
 161235c:	e1a0c002 	mov	ip, r2
 1612360:	e0803001 	add	r3, r0, r1
 1612364:	e3012ff8 	movw	r2, #8184	; 0x1ff8
 1612368:	e1530002 	cmp	r3, r2
 161236c:	8a000004 	bhi	1612384 <read_id_test+0x3c>
 1612370:	e1a02001 	mov	r2, r1
 1612374:	e1a0100c 	mov	r1, ip
 1612378:	ebffffdd 	bl	16122f4 <OTP_Get_Byte>
 161237c:	e3a00000 	mov	r0, #0
 1612380:	e8bd8010 	pop	{r4, pc}
 1612384:	e1a01003 	mov	r1, r3
 1612388:	e3020760 	movw	r0, #10080	; 0x2760
 161238c:	e3400161 	movt	r0, #353	; 0x161
 1612390:	ebfff7d0 	bl	16102d8 <printf>
 1612394:	e3a00001 	mov	r0, #1
 1612398:	e8bd8010 	pop	{r4, pc}
 161239c:	e1a01000 	mov	r1, r0
 16123a0:	e3020738 	movw	r0, #10040	; 0x2738
 16123a4:	e3400161 	movt	r0, #353	; 0x161
 16123a8:	ebfff7ca 	bl	16102d8 <printf>
 16123ac:	e3a00001 	mov	r0, #1
 16123b0:	e8bd8010 	pop	{r4, pc}

Disassembly of section .rodata:

016123b4 <_ctype>:
 16123b4:	08080808 	stmdaeq	r8, {r3, fp}
 16123b8:	08080808 	stmdaeq	r8, {r3, fp}
 16123bc:	28282808 	stmdacs	r8!, {r3, fp, sp}
 16123c0:	08082828 	stmdaeq	r8, {r3, r5, fp, sp}
 16123c4:	08080808 	stmdaeq	r8, {r3, fp}
 16123c8:	08080808 	stmdaeq	r8, {r3, fp}
 16123cc:	08080808 	stmdaeq	r8, {r3, fp}
 16123d0:	08080808 	stmdaeq	r8, {r3, fp}
 16123d4:	101010a0 	andsne	r1, r0, r0, lsr #1
 16123d8:	10101010 	andsne	r1, r0, r0, lsl r0
 16123dc:	10101010 	andsne	r1, r0, r0, lsl r0
 16123e0:	10101010 	andsne	r1, r0, r0, lsl r0
 16123e4:	04040404 	streq	r0, [r4], #-1028	; 0x404
 16123e8:	04040404 	streq	r0, [r4], #-1028	; 0x404
 16123ec:	10100404 	andsne	r0, r0, r4, lsl #8
 16123f0:	10101010 	andsne	r1, r0, r0, lsl r0
 16123f4:	41414110 	cmpmi	r1, r0, lsl r1
 16123f8:	01414141 	cmpeq	r1, r1, asr #2
 16123fc:	01010101 	tsteq	r1, r1, lsl #2
 1612400:	01010101 	tsteq	r1, r1, lsl #2
 1612404:	01010101 	tsteq	r1, r1, lsl #2
 1612408:	01010101 	tsteq	r1, r1, lsl #2
 161240c:	10010101 	andne	r0, r1, r1, lsl #2
 1612410:	10101010 	andsne	r1, r0, r0, lsl r0
 1612414:	42424210 	submi	r4, r2, #16, 4
 1612418:	02424242 	subeq	r4, r2, #536870916	; 0x20000004
 161241c:	02020202 	andeq	r0, r2, #536870912	; 0x20000000
 1612420:	02020202 	andeq	r0, r2, #536870912	; 0x20000000
 1612424:	02020202 	andeq	r0, r2, #536870912	; 0x20000000
 1612428:	02020202 	andeq	r0, r2, #536870912	; 0x20000000
 161242c:	10020202 	andne	r0, r2, r2, lsl #4
 1612430:	08101010 	ldmdaeq	r0, {r4, ip}
	...
 1612454:	101010a0 	andsne	r1, r0, r0, lsr #1
 1612458:	10101010 	andsne	r1, r0, r0, lsl r0
 161245c:	10101010 	andsne	r1, r0, r0, lsl r0
 1612460:	10101010 	andsne	r1, r0, r0, lsl r0
 1612464:	10101010 	andsne	r1, r0, r0, lsl r0
 1612468:	10101010 	andsne	r1, r0, r0, lsl r0
 161246c:	10101010 	andsne	r1, r0, r0, lsl r0
 1612470:	10101010 	andsne	r1, r0, r0, lsl r0
 1612474:	01010101 	tsteq	r1, r1, lsl #2
 1612478:	01010101 	tsteq	r1, r1, lsl #2
 161247c:	01010101 	tsteq	r1, r1, lsl #2
 1612480:	01010101 	tsteq	r1, r1, lsl #2
 1612484:	01010101 	tsteq	r1, r1, lsl #2
 1612488:	10010101 	andne	r0, r1, r1, lsl #2
 161248c:	01010101 	tsteq	r1, r1, lsl #2
 1612490:	02010101 	andeq	r0, r1, #1073741824	; 0x40000000
 1612494:	02020202 	andeq	r0, r2, #536870912	; 0x20000000
 1612498:	02020202 	andeq	r0, r2, #536870912	; 0x20000000
 161249c:	02020202 	andeq	r0, r2, #536870912	; 0x20000000
 16124a0:	02020202 	andeq	r0, r2, #536870912	; 0x20000000
 16124a4:	02020202 	andeq	r0, r2, #536870912	; 0x20000000
 16124a8:	10020202 	andne	r0, r2, r2, lsl #4
 16124ac:	02020202 	andeq	r0, r2, #536870912	; 0x20000000
 16124b0:	02020202 	andeq	r0, r2, #536870912	; 0x20000000

016124b4 <.LANCHOR0>:
 16124b4:	34112008 	ldrcc	r2, [r1], #-8
 16124b8:	5501500f 	strpl	r5, [r1, #-15]
 16124bc:	880d6058 	stmdahi	sp, {r3, r4, r6, sp, lr}
 16124c0:	d088ab0e 	addle	sl, r8, lr, lsl #22
 16124c4:	34192008 	ldrcc	r2, [r9], #-8
 16124c8:	5501500f 	strpl	r5, [r1, #-15]
 16124cc:	880d6658 	stmdahi	sp, {r3, r4, r6, r9, sl, sp, lr}
 16124d0:	d088ac0e 	addle	sl, r8, lr, lsl #24
 16124d4:	7566650a 	strbvc	r6, [r6, #-1290]!	; 0x50a
 16124d8:	76206573 			; <UNDEFINED> instruction: 0x76206573
 16124dc:	66697265 	strbtvs	r7, [r9], -r5, ror #4
 16124e0:	31762079 	cmncc	r6, r9, ror r0
 16124e4:	2033302e 	eorscs	r3, r3, lr, lsr #32
 16124e8:	72617473 	rsbvc	r7, r1, #1929379840	; 0x73000000
 16124ec:	2e2e2e74 	mcrcs	14, 1, r2, cr14, cr4, {3}
 16124f0:	00000a2e 	andeq	r0, r0, lr, lsr #20
 16124f4:	726f6609 	rsbvc	r6, pc, #9437184	; 0x900000
 16124f8:	63657320 	cmnvs	r5, #32, 6	; 0x80000000
 16124fc:	20657275 	rsbcs	r7, r5, r5, ror r2
 1612500:	746f6f62 	strbtvc	r6, [pc], #-3938	; 1612508 <.LANCHOR0+0x54>
 1612504:	616c7020 	cmnvs	ip, r0, lsr #32
 1612508:	726f6674 	rsbvc	r6, pc, #116, 12	; 0x7400000
 161250c:	0a202c6d 	beq	1e1d6c8 <__bss_end__+0x7fab08>
 1612510:	00000000 	andeq	r0, r0, r0
 1612514:	20772d09 	rsbscs	r2, r7, r9, lsl #26
 1612518:	20617372 	rsbcs	r7, r1, r2, ror r3
 161251c:	0000000a 	andeq	r0, r0, sl
 1612520:	6764756a 	strbvs	r7, [r4, -sl, ror #10]!
 1612524:	61702065 	cmnvs	r0, r5, rrx
 1612528:	000a7373 	andeq	r7, sl, r3, ror r3
 161252c:	6764756a 	strbvs	r7, [r4, -sl, ror #10]!
 1612530:	61662065 	cmnvs	r6, r5, rrx
 1612534:	0a206c69 	beq	1e2d6e0 <__bss_end__+0x80ab20>
 1612538:	00000000 	andeq	r0, r0, r0
 161253c:	69726576 	ldmdbvs	r2!, {r1, r2, r4, r5, r6, r8, sl, sp, lr}^
 1612540:	70207966 	eorvc	r7, r0, r6, ror #18
 1612544:	72676f72 	rsbvc	r6, r7, #456	; 0x1c8
 1612548:	4f206d61 	svcmi	0x00206d61
 161254c:	4f4b4f4b 	svcmi	0x004b4f4b
 1612550:	4f4b4f4b 	svcmi	0x004b4f4b
 1612554:	214b4f4b 	cmpcs	fp, fp, asr #30
 1612558:	21212121 	teqcs	r1, r1, lsr #2
 161255c:	000a2121 	andeq	r2, sl, r1, lsr #2
 1612560:	69726576 	ldmdbvs	r2!, {r1, r2, r4, r5, r6, r8, sl, sp, lr}^
 1612564:	70207966 	eorvc	r7, r0, r6, ror #18
 1612568:	72676f72 	rsbvc	r6, r7, #456	; 0x1c8
 161256c:	66206d61 	strtvs	r6, [r0], -r1, ror #26
 1612570:	666c6961 	strbtvs	r6, [ip], -r1, ror #18
 1612574:	666c6961 	strbtvs	r6, [ip], -r1, ror #18
 1612578:	216c6961 	cmncs	ip, r1, ror #18
 161257c:	21212121 	teqcs	r1, r1, lsr #2
 1612580:	000a2121 	andeq	r2, sl, r1, lsr #2

01612584 <__FUNCTION__.6519>:
 1612584:	5f534541 	svcpl	0x00534541
 1612588:	5f424345 	svcpl	0x00424345
 161258c:	72636e65 	rsbvc	r6, r3, #1616	; 0x650
 1612590:	00747079 	rsbseq	r7, r4, r9, ror r0

01612594 <Kh_key_default>:
 1612594:	ad0d8175 	stfged	f0, [sp, #-468]	; 0xfffffe2c
 1612598:	a0d732c0 	sbcsge	r3, r7, r0, asr #5
 161259c:	e56ef350 	strb	pc, [lr, #-848]!	; 0x350	; <UNPREDICTABLE>
 16125a0:	c53ce48b 	ldrgt	lr, [ip, #-1163]!	; 0x48b
 16125a4:	2e70636d 	cdpcs	3, 7, cr6, cr0, cr13, {3}
 16125a8:	00000063 	andeq	r0, r0, r3, rrx
 16125ac:	202a2a2a 	eorcs	r2, sl, sl, lsr #20
 16125b0:	25207325 	strcs	r7, [r0, #-805]!	; 0x325
 16125b4:	64252073 	strtvs	r2, [r5], #-115	; 0x73
 16125b8:	0000000a 	andeq	r0, r0, sl
 16125bc:	483e3d3d 	ldmdami	lr!, {r0, r2, r3, r4, r5, r8, sl, fp, ip, sp}
 16125c0:	41535257 	cmpmi	r3, r7, asr r2
 16125c4:	6d697420 	cfstrdvs	mvd7, [r9, #-128]!	; 0xffffff80
 16125c8:	74756f65 	ldrbtvc	r6, [r5], #-3941	; 0xf65
 16125cc:	000a2120 	andeq	r2, sl, r0, lsr #2

016125d0 <__FUNCTION__.3994>:
 16125d0:	64786568 	ldrbtvs	r6, [r8], #-1384	; 0x568
 16125d4:	00706d75 	rsbseq	r6, r0, r5, ror sp
 16125d8:	656d6954 	strbvs	r6, [sp, #-2388]!	; 0x954
 16125dc:	74756f20 	ldrbtvc	r6, [r5], #-3872	; 0xf20
 16125e0:	00000a20 	andeq	r0, r0, r0, lsr #20
 16125e4:	4c4c554e 	cfstr64mi	mvdx5, [ip], {78}	; 0x4e
 16125e8:	0000000a 	andeq	r0, r0, sl
 16125ec:	78302820 	ldmdavc	r0!, {r5, fp, sp}
 16125f0:	00000000 	andeq	r0, r0, r0
 16125f4:	00000a29 	andeq	r0, r0, r9, lsr #20
 16125f8:	00000020 	andeq	r0, r0, r0, lsr #32

016125fc <__func__.4068>:
 16125fc:	5f50544f 	svcpl	0x0050544f
 1612600:	676f7250 			; <UNDEFINED> instruction: 0x676f7250
 1612604:	5f6d6172 	svcpl	0x006d6172
 1612608:	00646e45 	rsbeq	r6, r4, r5, asr #28
 161260c:	30257830 	eorcc	r7, r5, r0, lsr r8
 1612610:	3a786c38 	bcc	342d6f8 <__bss_end__+0x1e0ab38>
 1612614:	00000000 	andeq	r0, r0, r0
 1612618:	2a302520 	bcs	221baa0 <__bss_end__+0xbf8ee0>
 161261c:	00000078 	andeq	r0, r0, r8, ror r0
 1612620:	0000002a 	andeq	r0, r0, sl, lsr #32
 1612624:	20202020 	eorcs	r2, r0, r0, lsr #32
 1612628:	0a73253a 	beq	32dbb18 <__bss_end__+0x1cb8f58>
 161262c:	00000000 	andeq	r0, r0, r0
 1612630:	20202020 	eorcs	r2, r0, r0, lsr #32
 1612634:	000a2a3a 	andeq	r2, sl, sl, lsr sl
 1612638:	3d746572 	cfldr64cc	mvdx6, [r4, #-456]!	; 0xfffffe38
 161263c:	000a6425 	andeq	r6, sl, r5, lsr #8
 1612640:	5b776172 	blpl	33eac10 <__bss_end__+0x1dc8050>
 1612644:	20782520 	rsbscs	r2, r8, r0, lsr #10
 1612648:	2020205d 	eorcs	r2, r0, sp, asr r0
 161264c:	20202020 	eorcs	r2, r0, r0, lsr #32
 1612650:	20636e65 	rsbcs	r6, r3, r5, ror #28
 1612654:	7825205b 	stmdavc	r5!, {r0, r1, r3, r4, r6, sp}
 1612658:	000a5d20 	andeq	r5, sl, r0, lsr #26
 161265c:	5b636e65 	blpl	2eedff8 <__bss_end__+0x18cb438>
 1612660:	20782520 	rsbscs	r2, r8, r0, lsr #10
 1612664:	2020205d 	eorcs	r2, r0, sp, asr r0
 1612668:	20202020 	eorcs	r2, r0, r0, lsr #32
 161266c:	5b776172 	blpl	33eac3c <__bss_end__+0x1dc807c>
 1612670:	5d782520 	cfldr64pl	mvdx2, [r8, #-128]!	; 0xffffff80
 1612674:	0000000a 	andeq	r0, r0, sl
 1612678:	6174730a 	cmnvs	r4, sl, lsl #6
 161267c:	70207472 	eorvc	r7, r0, r2, ror r4
 1612680:	72676f72 	rsbvc	r6, r7, #456	; 0x1c8
 1612684:	3a206d61 	bcc	1e2dc10 <__bss_end__+0x80b050>
 1612688:	74656720 	strbtvc	r6, [r5], #-1824	; 0x720
 161268c:	73657220 	cmnvc	r5, #32, 4
 1612690:	65767265 	ldrbvs	r7, [r6, #-613]!	; 0x265
 1612694:	706d2064 	rsbvc	r2, sp, r4, rrx
 1612698:	73657420 	cmnvc	r5, #32, 8	; 0x20000000
 161269c:	61702074 	cmnvs	r0, r4, ror r0
 16126a0:	20327472 	eorscs	r7, r2, r2, ror r4
 16126a4:	20746962 	rsbscs	r6, r4, r2, ror #18
 16126a8:	000a6425 	andeq	r6, sl, r5, lsr #8
 16126ac:	20746f6e 	rsbscs	r6, r4, lr, ror #30
 16126b0:	6e727562 	cdpvs	5, 7, cr7, cr2, cr2, {3}
 16126b4:	00000a21 	andeq	r0, r0, r1, lsr #20
 16126b8:	3a207325 	bcc	1e2f354 <__bss_end__+0x80c794>
 16126bc:	6e6f6420 	cdpvs	4, 6, cr6, cr15, cr0, {1}
 16126c0:	00000a65 	andeq	r0, r0, r5, ror #20
 16126c4:	72617473 	rsbvc	r7, r1, #1929379840	; 0x73000000
 16126c8:	72702074 	rsbsvc	r2, r0, #116	; 0x74
 16126cc:	6172676f 	cmnvs	r2, pc, ror #14
 16126d0:	203a206d 	eorscs	r2, sl, sp, rrx
 16126d4:	72617473 	rsbvc	r7, r1, #1929379840	; 0x73000000
 16126d8:	00000a74 	andeq	r0, r0, r4, ror sl
 16126dc:	72617473 	rsbvc	r7, r1, #1929379840	; 0x73000000
 16126e0:	74696274 	strbtvc	r6, [r9], #-628	; 0x274
 16126e4:	25203d20 	strcs	r3, [r0, #-3360]!	; 0xd20
 16126e8:	74202c64 	strtvc	r2, [r0], #-3172	; 0xc64
 16126ec:	6c61746f 	cfstrdvs	mvd7, [r1], #-444	; 0xfffffe44
 16126f0:	65747962 	ldrbvs	r7, [r4, #-2402]!	; 0x962
 16126f4:	203d2073 	eorscs	r2, sp, r3, ror r0
 16126f8:	000a6425 	andeq	r6, sl, r5, lsr #8
 16126fc:	6174730a 	cmnvs	r4, sl, lsl #6
 1612700:	70207472 	eorvc	r7, r0, r2, ror r4
 1612704:	72676f72 	rsbvc	r6, r7, #456	; 0x1c8
 1612708:	3a206d61 	bcc	1e2dc94 <__bss_end__+0x80b0d4>
 161270c:	646e6520 	strbtvs	r6, [lr], #-1312	; 0x520
 1612710:	0000000a 	andeq	r0, r0, sl
 1612714:	7479420a 	ldrbtvc	r4, [r9], #-522	; 0x20a
 1612718:	64255b65 	strtvs	r5, [r5], #-2917	; 0xb65
 161271c:	00203a5d 	eoreq	r3, r0, sp, asr sl
 1612720:	00000031 	andeq	r0, r0, r1, lsr r0
 1612724:	00000030 	andeq	r0, r0, r0, lsr r0
 1612728:	5f617372 	svcpl	0x00617372
 161272c:	5f627570 	svcpl	0x00627570
 1612730:	3d79656b 	cfldr64cc	mvdx6, [r9, #-428]!	; 0xfffffe54
 1612734:	000a7825 	andeq	r7, sl, r5, lsr #16
 1612738:	72617473 	rsbvc	r7, r1, #1929379840	; 0x73000000
 161273c:	74796274 	ldrbtvc	r6, [r9], #-628	; 0x274
 1612740:	3d203a65 	vstmdbcc	r0!, {s6-s106}
 1612744:	6d206425 	cfstrsvs	mvf6, [r0, #-148]!	; 0xffffff6c
 1612748:	20747375 	rsbscs	r7, r4, r5, ror r3
 161274c:	30343d3e 	eorscc	r3, r4, lr, lsr sp
 1612750:	26203639 			; <UNDEFINED> instruction: 0x26203639
 1612754:	3d3c2026 	ldccc	0, cr2, [ip, #-152]!	; 0xffffff68
 1612758:	34383138 	ldrtcc	r3, [r8], #-312	; 0x138
 161275c:	0000000a 	andeq	r0, r0, sl
 1612760:	72617473 	rsbvc	r7, r1, #1929379840	; 0x73000000
 1612764:	74796274 	ldrbtvc	r6, [r9], #-628	; 0x274
 1612768:	6f742b65 	svcvs	0x00742b65
 161276c:	626c6174 	rsbvs	r6, ip, #116, 2
 1612770:	3a657479 	bcc	2f6f95c <__bss_end__+0x194cd9c>
 1612774:	64253d20 	strtvs	r3, [r5], #-3360	; 0xd20
 1612778:	73756d20 	cmnvc	r5, #32, 26	; 0x800
 161277c:	3d3c2074 	ldccc	0, cr2, [ip, #-464]!	; 0xfffffe30
 1612780:	34383138 	ldrtcc	r3, [r8], #-312	; 0x138
 1612784:	0000000a 	andeq	r0, r0, sl
 1612788:	6174730a 	cmnvs	r4, sl, lsl #6
 161278c:	70207472 	eorvc	r7, r0, r2, ror r4
 1612790:	72676f72 	rsbvc	r6, r7, #456	; 0x1c8
 1612794:	3a206d61 	bcc	1e2dd20 <__bss_end__+0x80b160>
 1612798:	63657320 	cmnvs	r5, #32, 6	; 0x80000000
 161279c:	62657275 	rsbvs	r7, r5, #1342177287	; 0x50000007
 16127a0:	20746f6f 	rsbscs	r6, r4, pc, ror #30
 16127a4:	20746962 	rsbscs	r6, r4, r2, ror #18
 16127a8:	000a6425 	andeq	r6, sl, r5, lsr #8
 16127ac:	6174730a 	cmnvs	r4, sl, lsl #6
 16127b0:	70207472 	eorvc	r7, r0, r2, ror r4
 16127b4:	72676f72 	rsbvc	r6, r7, #456	; 0x1c8
 16127b8:	3a206d61 	bcc	1e2dd44 <__bss_end__+0x80b184>
 16127bc:	6f6f6220 	svcvs	0x006f6220
 16127c0:	636e6574 	cmnvs	lr, #116, 10	; 0x1d000000
 16127c4:	74696220 	strbtvc	r6, [r9], #-544	; 0x220
 16127c8:	0a642520 	beq	2f1bc50 <__bss_end__+0x18f9090>
 16127cc:	00000000 	andeq	r0, r0, r0
 16127d0:	6174730a 	cmnvs	r4, sl, lsl #6
 16127d4:	70207472 	eorvc	r7, r0, r2, ror r4
 16127d8:	72676f72 	rsbvc	r6, r7, #456	; 0x1c8
 16127dc:	3a206d61 	bcc	1e2dd68 <__bss_end__+0x80b1a8>
 16127e0:	616f6c20 	cmnvs	pc, r0, lsr #24
 16127e4:	736f7364 	cmnvc	pc, #100, 6	; 0x90000001
 16127e8:	74696220 	strbtvc	r6, [r9], #-544	; 0x220
 16127ec:	0a642520 	beq	2f1bc74 <__bss_end__+0x18f90b4>
 16127f0:	00000000 	andeq	r0, r0, r0
 16127f4:	6174730a 	cmnvs	r4, sl, lsl #6
 16127f8:	70207472 	eorvc	r7, r0, r2, ror r4
 16127fc:	72676f72 	rsbvc	r6, r7, #456	; 0x1c8
 1612800:	3a206d61 	bcc	1e2dd8c <__bss_end__+0x80b1cc>
 1612804:	73696420 	cmnvc	r9, #32, 8	; 0x20000000
 1612808:	656e6f2d 	strbvs	r6, [lr, #-3885]!	; 0xf2d
 161280c:	65726f63 	ldrbvs	r6, [r2, #-3939]!	; 0xf63
 1612810:	74696220 	strbtvc	r6, [r9], #-544	; 0x220
 1612814:	0a642520 	beq	2f1bc9c <__bss_end__+0x18f90dc>
 1612818:	00000000 	andeq	r0, r0, r0
 161281c:	6174730a 	cmnvs	r4, sl, lsl #6
 1612820:	70207472 	eorvc	r7, r0, r2, ror r4
 1612824:	72676f72 	rsbvc	r6, r7, #456	; 0x1c8
 1612828:	3a206d61 	bcc	1e2ddb4 <__bss_end__+0x80b1f4>
 161282c:	62737520 	rsbsvs	r7, r3, #32, 10	; 0x8000000
 1612830:	61727332 	cmnvs	r2, r2, lsr r3
 1612834:	6962206d 	stmdbvs	r2!, {r0, r2, r3, r5, r6, sp}^
 1612838:	64252074 	strtvs	r2, [r5], #-116	; 0x74
 161283c:	0000000a 	andeq	r0, r0, sl
 1612840:	6174730a 	cmnvs	r4, sl, lsl #6
 1612844:	70207472 	eorvc	r7, r0, r2, ror r4
 1612848:	72676f72 	rsbvc	r6, r7, #456	; 0x1c8
 161284c:	3a206d61 	bcc	1e2ddd8 <__bss_end__+0x80b218>
 1612850:	73657220 	cmnvc	r5, #32, 4
 1612854:	65767265 	ldrbvs	r7, [r6, #-613]!	; 0x265
 1612858:	706d2064 	rsbvc	r2, sp, r4, rrx
 161285c:	73657420 	cmnvc	r5, #32, 8	; 0x20000000
 1612860:	61702074 	cmnvs	r0, r4, ror r0
 1612864:	20327472 	eorscs	r7, r2, r2, ror r4
 1612868:	20746962 	rsbscs	r6, r4, r2, ror #18
 161286c:	000a6425 	andeq	r6, sl, r5, lsr #8
 1612870:	65637865 	strbvs	r7, [r3, #-2149]!	; 0x865
 1612874:	6b206465 	blvs	1e2ba10 <__bss_end__+0x808e50>
 1612878:	65737965 	ldrbvs	r7, [r3, #-2405]!	; 0x965
 161287c:	6176206c 	cmnvs	r6, ip, rrx
 1612880:	0a65756c 	beq	2f6fe38 <__bss_end__+0x194d278>
 1612884:	00000000 	andeq	r0, r0, r0
 1612888:	6174730a 	cmnvs	r4, sl, lsl #6
 161288c:	70207472 	eorvc	r7, r0, r2, ror r4
 1612890:	72676f72 	rsbvc	r6, r7, #456	; 0x1c8
 1612894:	3a206d61 	bcc	1e2de20 <__bss_end__+0x80b260>
 1612898:	79656b20 	stmdbvc	r5!, {r5, r8, r9, fp, sp, lr}^
 161289c:	206c6573 	rsbcs	r6, ip, r3, ror r5
 16128a0:	30746962 	rsbscc	r6, r4, r2, ror #18
 16128a4:	0a64253d 	beq	2f1bda0 <__bss_end__+0x18f91e0>
 16128a8:	00000000 	andeq	r0, r0, r0
 16128ac:	6174730a 	cmnvs	r4, sl, lsl #6
 16128b0:	70207472 	eorvc	r7, r0, r2, ror r4
 16128b4:	72676f72 	rsbvc	r6, r7, #456	; 0x1c8
 16128b8:	3a206d61 	bcc	1e2de44 <__bss_end__+0x80b284>
 16128bc:	79656b20 	stmdbvc	r5!, {r5, r8, r9, fp, sp, lr}^
 16128c0:	206c6573 	rsbcs	r6, ip, r3, ror r5
 16128c4:	31746962 	cmncc	r4, r2, ror #18
 16128c8:	0a64253d 	beq	2f1bdc4 <__bss_end__+0x18f9204>
 16128cc:	00000000 	andeq	r0, r0, r0
 16128d0:	65637865 	strbvs	r7, [r3, #-2149]!	; 0x865
 16128d4:	68206465 	stmdavs	r0!, {r0, r2, r5, r6, sl, sp, lr}
 16128d8:	6b686377 	blvs	302b6bc <__bss_end__+0x1a08afc>
 16128dc:	6c617620 	stclvs	6, cr7, [r1], #-128	; 0xffffff80
 16128e0:	000a6575 	andeq	r6, sl, r5, ror r5
 16128e4:	6174730a 	cmnvs	r4, sl, lsl #6
 16128e8:	70207472 	eorvc	r7, r0, r2, ror r4
 16128ec:	72676f72 	rsbvc	r6, r7, #456	; 0x1c8
 16128f0:	3a206d61 	bcc	1e2de7c <__bss_end__+0x80b2bc>
 16128f4:	63776820 	cmnvs	r7, #32, 16	; 0x200000
 16128f8:	62206b68 	eorvs	r6, r0, #104, 22	; 0x1a000
 16128fc:	3d307469 	cfldrscc	mvf7, [r0, #-420]!	; 0xfffffe5c
 1612900:	000a6425 	andeq	r6, sl, r5, lsr #8
 1612904:	6174730a 	cmnvs	r4, sl, lsl #6
 1612908:	70207472 	eorvc	r7, r0, r2, ror r4
 161290c:	72676f72 	rsbvc	r6, r7, #456	; 0x1c8
 1612910:	3a206d61 	bcc	1e2de9c <__bss_end__+0x80b2dc>
 1612914:	63776820 	cmnvs	r7, #32, 16	; 0x200000
 1612918:	62206b68 	eorvs	r6, r0, #104, 22	; 0x1a000
 161291c:	3d317469 	cfldrscc	mvf7, [r1, #-420]!	; 0xfffffe5c
 1612920:	000a6425 	andeq	r6, sl, r5, lsr #8

Disassembly of section .data:

01622924 <rsa_pub_key>:
 1622924:	bb1019c1 	bllt	1a29030 <__bss_end__+0x406470>
 1622928:	ed08e036 	stc	0, cr14, [r8, #-216]	; 0xffffff28
 162292c:	ba987f37 	blt	ffc42610 <__bss_end__+0xfe61fa50>
 1622930:	48ee5df2 	stmiami	lr!, {r1, r4, r5, r6, r7, r8, sl, fp, ip, lr}^
 1622934:	f0ebca83 			; <UNDEFINED> instruction: 0xf0ebca83
 1622938:	c2354bd3 	eorsgt	r4, r5, #216064	; 0x34c00
 162293c:	b07fce1f 	rsbslt	ip, pc, pc, lsl lr	; <UNPREDICTABLE>
 1622940:	47ac6df4 			; <UNDEFINED> instruction: 0x47ac6df4
 1622944:	139cde78 	orrsne	sp, ip, #120, 28	; 0x780
 1622948:	199b3b70 	ldmibne	fp, {r4, r5, r6, r8, r9, fp, ip, sp}
 162294c:	38577245 	ldmdacc	r7, {r0, r2, r6, r9, ip, sp, lr}^
 1622950:	1b1ddb8a 	blne	1d99780 <__bss_end__+0x776bc0>
 1622954:	d8da5627 	ldmle	sl, {r0, r1, r2, r5, r9, sl, ip, lr}^
 1622958:	724b9aa1 	subvc	r9, fp, #659456	; 0xa1000
 162295c:	220504b4 	andcs	r0, r5, #180, 8	; 0xb4000000
 1622960:	ab004604 	blge	1634178 <__bss_end__+0x115b8>
 1622964:	56d5d842 	ldrbpl	sp, [r5], r2, asr #16
 1622968:	34e02e74 	strbtcc	r2, [r0], #3700	; 0xe74
 162296c:	efd204db 	svc	0x00d204db
 1622970:	fa576b35 	blx	2bfd64c <__bss_end__+0x15daa8c>
 1622974:	91fe0272 	mvnsls	r0, r2, ror r2
 1622978:	08610530 	stmdaeq	r1!, {r4, r5, r8, sl}^
 162297c:	cf6c90a8 	svcgt	0x006c90a8
 1622980:	3591bb1c 	ldrcc	fp, [r1, #2844]	; 0xb1c
 1622984:	9db86303 	ldcls	3, cr6, [r8, #12]!
 1622988:	b7000be6 	strlt	r0, [r0, -r6, ror #23]
 162298c:	b2defc04 	sbcslt	pc, lr, #4, 24	; 0x400
 1622990:	572e48c1 	strpl	r4, [lr, -r1, asr #17]!
 1622994:	3c328ccb 	ldccc	12, cr8, [r2], #-812	; 0xfffffcd4
 1622998:	fe61dd16 	mcr2	13, 3, sp, cr1, cr6, {0}
 162299c:	62a545d4 	adcvs	r4, r5, #212, 10	; 0x35000000
 16229a0:	5151e2b7 	ldrhpl	lr, [r1, #-39]	; 0xffffffd9
 16229a4:	4c86ee36 	stcmi	14, cr14, [r6], {54}	; 0x36
 16229a8:	97272010 			; <UNDEFINED> instruction: 0x97272010
 16229ac:	0f0e8fc9 	svceq	0x000e8fc9
 16229b0:	cca21d08 	stcgt	13, cr1, [r2], #32
 16229b4:	34ca2876 	strbcc	r2, [sl], #2166	; 0x876
 16229b8:	4ddf8fab 	ldclmi	15, cr8, [pc, #684]	; 1622c6c <__bss_end__+0xac>
 16229bc:	166763de 			; <UNDEFINED> instruction: 0x166763de
 16229c0:	b89a4752 	ldmlt	sl, {r1, r4, r6, r8, r9, sl, lr}
 16229c4:	50059ce4 	andpl	r9, r5, r4, ror #25
 16229c8:	44fb7aa5 	ldrbtmi	r7, [fp], #2725	; 0xaa5
 16229cc:	68304466 	ldmdavs	r0!, {r1, r2, r5, r6, sl, lr}
 16229d0:	04b8731b 	ldrteq	r7, [r8], #795	; 0x31b
 16229d4:	15d80fe6 	ldrbne	r0, [r8, #4070]	; 0xfe6
 16229d8:	8c205a39 	stchi	10, cr5, [r0], #-228	; 0xffffff1c
 16229dc:	27e60af0 			; <UNDEFINED> instruction: 0x27e60af0
 16229e0:	e0850e86 	add	r0, r5, r6, lsl #29
 16229e4:	f210b148 	vrhadd.s16	<illegal reg q5.5>, q0, q4
 16229e8:	1166f23a 	msrne	(UNDEF: 102), sl
 16229ec:	972c4aba 			; <UNDEFINED> instruction: 0x972c4aba
 16229f0:	49714159 	ldmdbmi	r1!, {r0, r3, r4, r6, r8, lr}^
 16229f4:	e54d891d 	strb	r8, [sp, #-2333]	; 0x91d
 16229f8:	94fd7671 	ldrbtls	r7, [sp], #1649	; 0x671
 16229fc:	62fb63dd 	rscsvs	r6, fp, #1946157059	; 0x74000003
 1622a00:	7d629686 	stclvc	6, cr9, [r2, #-536]!	; 0xfffffde8
 1622a04:	c1584c8f 	cmpgt	r8, pc, lsl #25
 1622a08:	dd417cec 	stclle	12, cr7, [r1, #-944]	; 0xfffffc50
 1622a0c:	be9797d4 	mrclt	7, 4, r9, cr7, cr4, {6}
 1622a10:	cc334fd7 	ldcgt	15, cr4, [r3], #-860	; 0xfffffca4
 1622a14:	551c4f54 	ldrpl	r4, [ip, #-3924]	; 0xf54
 1622a18:	4f7f787b 	svcmi	0x007f787b
 1622a1c:	db0783a5 	blle	18038b8 <__bss_end__+0x1e0cf8>
 1622a20:	c4877ba9 	strgt	r7, [r7], #2985	; 0xba9

01622a24 <rsa_pub_key_end>:
 1622a24:	00000000 	andeq	r0, r0, r0

01622a28 <aes_key>:
 1622a28:	8c08a058 	stchi	0, cr10, [r8], {88}	; 0x58
 1622a2c:	dee979ca 	cdple	9, 14, cr7, cr9, cr10, {6}
 1622a30:	d5db778d 	ldrble	r7, [fp, #1933]	; 0x78d
 1622a34:	fac42ded 	blx	72e1f0 <_back_addr-0xee1e10>

01622a38 <aes_key_end>:
 1622a38:	00000000 	andeq	r0, r0, r0

01622a3c <UartReg>:
 1622a3c:	98007800 	stmdals	r0, {fp, ip, sp, lr}

01622a40 <alloc_current.3981>:
 1622a40:	04000000 	streq	r0, [r0], #-0

01622a44 <arrayB>:
 1622a44:	ffffffff 			; <UNDEFINED> instruction: 0xffffffff
 1622a48:	ffffffff 			; <UNDEFINED> instruction: 0xffffffff
 1622a4c:	ffffffff 			; <UNDEFINED> instruction: 0xffffffff
 1622a50:	ffffffff 			; <UNDEFINED> instruction: 0xffffffff

01622a54 <arrayA>:
 1622a54:	07050301 	streq	r0, [r5, -r1, lsl #6]
 1622a58:	23211109 	teqcs	r1, #1073741826	; 0x40000002
 1622a5c:	31292725 	teqcc	r9, r5, lsr #14
 1622a60:	39373533 	ldmdbcc	r7!, {r0, r1, r4, r5, r8, sl, ip, sp}

01622a64 <arrayC>:
 1622a64:	ffffffff 			; <UNDEFINED> instruction: 0xffffffff
 1622a68:	ffffffff 			; <UNDEFINED> instruction: 0xffffffff
 1622a6c:	ffffffff 			; <UNDEFINED> instruction: 0xffffffff
 1622a70:	ffffffff 			; <UNDEFINED> instruction: 0xffffffff

01622a74 <rsa_pub_key>:
 1622a74:	ec39e4af 	cfldrs	mvf14, [r9], #-700	; 0xfffffd44
 1622a78:	0016e5dd 			; <UNDEFINED> instruction: 0x0016e5dd
 1622a7c:	8465bb72 	strbthi	fp, [r5], #-2930	; 0xb72
 1622a80:	bd4fa5dd 	cfstr64lt	mvdx10, [pc, #-884]	; 1622714 <__func__.4068+0x10118>
 1622a84:	e32ee3df 	teq	lr, #2080374787	; 0x7c000003
 1622a88:	00db5c17 	sbcseq	r5, fp, r7, lsl ip
 1622a8c:	d2fe52ac 	rscsle	r5, lr, #172, 4	; 0xc000000a
 1622a90:	ec2a71c3 	stfs	f7, [sl], #-780	; 0xfffffcf4
 1622a94:	1d77452b 	cfldr64ne	mvdx4, [r7, #-172]!	; 0xffffff54
 1622a98:	304c7f48 	subcc	r7, ip, r8, asr #30
 1622a9c:	7c2c34c7 	cfstrsvc	mvf3, [ip], #-796	; 0xfffffce4
 1622aa0:	01e5958f 	mvneq	r9, pc, lsl #11
 1622aa4:	1f9473d8 	svcne	0x009473d8
 1622aa8:	2710e662 	ldrcs	lr, [r0, -r2, ror #12]
 1622aac:	acf87a98 	vldmiage	r8!, {s15-s166}
 1622ab0:	9f9b925a 	svcls	0x009b925a
 1622ab4:	1719b66e 	ldrne	fp, [r9, -lr, ror #12]
 1622ab8:	0c3d1971 	ldceq	9, cr1, [sp], #-452	; 0xfffffe3c
 1622abc:	18f46303 	ldmne	r4!, {r0, r1, r8, r9, sp, lr}^
 1622ac0:	fcbfc6a4 	ldc2	6, cr12, [pc], #656	; 1622d58 <__bss_end__+0x198>
 1622ac4:	12ff9440 	rscsne	r9, pc, #64, 8	; 0x40000000
 1622ac8:	8ec0883f 	mcrhi	8, 6, r8, cr0, cr15, {1}
 1622acc:	5481c382 	strpl	ip, [r1], #898	; 0x382
 1622ad0:	3dba11fa 	ldfccs	f1, [sl, #1000]!	; 0x3e8
 1622ad4:	9ef62b74 	vmovls.u8	r2, d6[7]
 1622ad8:	ffef1d46 			; <UNDEFINED> instruction: 0xffef1d46
 1622adc:	894305d8 	stmdbhi	r3, {r3, r4, r6, r7, r8, sl}^
 1622ae0:	76ed8476 	uxtabvc	r8, sp, r6, ror #8
 1622ae4:	ad9060f3 	ldcge	0, cr6, [r0, #972]	; 0x3cc
 1622ae8:	38c2ccfa 	stmiacc	r2, {r1, r3, r4, r5, r6, r7, sl, fp, lr, pc}^
 1622aec:	62c0ff88 	sbcvs	pc, r0, #136, 30	; 0x220
 1622af0:	1579ec0a 	ldrbne	lr, [r9, #-3082]!	; 0xc0a
 1622af4:	675e0048 	ldrbvs	r0, [lr, -r8, asr #32]
 1622af8:	486be9a4 	stmdami	fp!, {r2, r5, r7, r8, fp, sp, lr, pc}^
 1622afc:	0cde44d9 	cfldrdeq	mvd4, [lr], {217}	; 0xd9
 1622b00:	56cf0ee8 	strbpl	r0, [pc], r8, ror #29
 1622b04:	2618c91b 			; <UNDEFINED> instruction: 0x2618c91b
 1622b08:	8a24e311 	bhi	1f5b754 <__bss_end__+0x938b94>
 1622b0c:	642f509c 	strtvs	r5, [pc], #-156	; 1622b14 <rsa_pub_key+0xa0>
 1622b10:	48d88a99 	ldmmi	r8, {r0, r3, r4, r7, r9, fp, pc}^
 1622b14:	629dd425 	addsvs	sp, sp, #620756992	; 0x25000000
 1622b18:	a8af95be 	stmiage	pc!, {r1, r2, r3, r4, r5, r7, r8, sl, ip, pc}	; <UNPREDICTABLE>
 1622b1c:	9d305a0e 	vldmdbls	r0!, {s10-s23}
 1622b20:	6eeee264 	cdpvs	2, 14, cr14, cr14, cr4, {3}
 1622b24:	25d2f066 	ldrbcs	pc, [r2, #102]	; 0x66	; <UNPREDICTABLE>
 1622b28:	db143839 	blle	1b30c14 <__bss_end__+0x50e054>
 1622b2c:	a86d03d4 	stmdage	sp!, {r2, r4, r6, r7, r8, r9}^
 1622b30:	fa80cb0f 	blx	ff655774 <__bss_end__+0xfe032bb4>
 1622b34:	def72263 	cdple	2, 15, cr2, cr7, cr3, {3}
 1622b38:	83944dbf 	orrshi	r4, r4, #12224	; 0x2fc0
 1622b3c:	2ec53a81 	vdivcs.f32	s7, s11, s2
 1622b40:	a8c593d3 	stmiage	r5, {r0, r1, r4, r6, r7, r8, r9, ip, pc}^
 1622b44:	9374b09c 	cmnls	r4, #156	; 0x9c
 1622b48:	11fd65c8 	mvnsne	r6, r8, asr #11
 1622b4c:	2a5e7165 	bcs	2dbf0e8 <__bss_end__+0x179c528>
 1622b50:	f148b0b7 			; <UNDEFINED> instruction: 0xf148b0b7
 1622b54:	41054302 	tstmi	r5, r2, lsl #6
 1622b58:	7a64a9a8 	bvc	2f4d200 <__bss_end__+0x192a640>
 1622b5c:	ab81b7ec 	blge	ff690b14 <__bss_end__+0xfe06df54>
 1622b60:	dad35f89 	ble	afa98c <_back_addr-0xb15674>
 1622b64:	0db8b8c3 	ldceq	8, cr11, [r8, #780]!	; 0x30c
 1622b68:	3f74dba1 	svccc	0x0074dba1
 1622b6c:	af3f83eb 	svcge	0x003f83eb
 1622b70:	b9975438 	ldmiblt	r7, {r3, r4, r5, sl, ip, lr}

01622b74 <aes_key_ks>:
 1622b74:	12efcdab 	rscne	ip, pc, #10944	; 0x2ac0
 1622b78:	68245713 	stmdavs	r4!, {r0, r1, r4, r8, r9, sl, ip, lr}
 1622b7c:	d4c3b2a1 	strble	fp, [r3], #673	; 0x2a1
 1622b80:	beba9090 	mrclt	0, 5, r9, cr10, cr0, {4}

01622b84 <aes_key_kh>:
 1622b84:	12efcdab 	rscne	ip, pc, #10944	; 0x2ac0
 1622b88:	68245713 	stmdavs	r4!, {r0, r1, r4, r8, r9, sl, ip, lr}
 1622b8c:	d4c3b2a1 	strble	fp, [r3], #673	; 0x2a1
 1622b90:	beba9090 	mrclt	0, 5, r9, cr10, cr0, {4}

01622b94 <aes_key_kn>:
 1622b94:	12efcdab 	rscne	ip, pc, #10944	; 0x2ac0
 1622b98:	68245713 	stmdavs	r4!, {r0, r1, r4, r8, r9, sl, ip, lr}
 1622b9c:	d4c3b2a1 	strble	fp, [r3], #673	; 0x2a1
 1622ba0:	beba9090 	mrclt	0, 5, r9, cr10, cr0, {4}

01622ba4 <deviceID>:
 1622ba4:	31445452 	cmpcc	r4, r2, asr r4
 1622ba8:	30783931 	rsbscc	r3, r8, r1, lsr r9
 1622bac:	30303030 	eorscc	r3, r0, r0, lsr r0
 1622bb0:	31303030 	teqcc	r0, r0, lsr r0
 1622bb4:	00000000 	andeq	r0, r0, r0

Disassembly of section .bss:

01622bb8 <__bss_start>:
 1622bb8:	00000000 	andeq	r0, r0, r0

01622bbc <alloc_count.3982>:
 1622bbc:	00000000 	andeq	r0, r0, r0

Disassembly of section .comment:

00000000 <.comment>:
   0:	3a434347 	bcc	10d0d24 <_back_addr-0x53f2dc>
   4:	65522820 	ldrbvs	r2, [r2, #-2080]	; 0x820
   8:	65746c61 	ldrbvs	r6, [r4, #-3169]!	; 0xc61
   c:	5341206b 	movtpl	r2, #4203	; 0x106b
  10:	342d4b44 	strtcc	r4, [sp], #-2884	; 0xb44
  14:	332e392e 	teqcc	lr, #753664	; 0xb8000
  18:	69754220 	ldmdbvs	r5!, {r5, r9, lr}^
  1c:	3220646c 	eorcc	r6, r0, #108, 8	; 0x6c000000
  20:	29303831 	ldmdbcs	r0!, {r0, r4, r5, fp, ip, sp}
  24:	392e3420 	stmdbcc	lr!, {r5, sl, ip, sp}
  28:	3220332e 	eorcc	r3, r0, #-1207959552	; 0xb8000000
  2c:	30353130 	eorscc	r3, r5, r0, lsr r1
  30:	20333134 	eorscs	r3, r3, r4, lsr r1
  34:	65727028 	ldrbvs	r7, [r2, #-40]!	; 0x28
  38:	656c6572 	strbvs	r6, [ip, #-1394]!	; 0x572
  3c:	29657361 	stmdbcs	r5!, {r0, r5, r6, r8, r9, ip, sp, lr}^
	...

Disassembly of section .ARM.attributes:

00000000 <.ARM.attributes>:
   0:	00003241 	andeq	r3, r0, r1, asr #4
   4:	61656100 	cmnvs	r5, r0, lsl #2
   8:	01006962 	tsteq	r0, r2, ror #18
   c:	00000028 	andeq	r0, r0, r8, lsr #32
  10:	412d3805 	teqmi	sp, r5, lsl #16
  14:	070e0600 	streq	r0, [lr, -r0, lsl #12]
  18:	09010841 	stmdbeq	r1, {r0, r6, fp}
  1c:	0c030a02 	stceq	10, cr0, [r3], {2}
  20:	14041201 	strne	r1, [r4], #-513	; 0x201
  24:	17011501 	strne	r1, [r1, -r1, lsl #10]
  28:	1a011803 	bne	4603c <_back_addr-0x15c9fc4>
  2c:	2a012202 	bcs	4883c <_back_addr-0x15c77c4>
  30:	Address 0x00000030 is out of bounds.


Disassembly of section .debug_aranges:

00000000 <.debug_aranges>:
   0:	0000001c 	andeq	r0, r0, ip, lsl r0
   4:	00000002 	andeq	r0, r0, r2
   8:	00040000 	andeq	r0, r4, r0
   c:	00000000 	andeq	r0, r0, r0
  10:	01610000 	cmneq	r1, r0
  14:	00000074 	andeq	r0, r0, r4, ror r0
	...
  20:	0000001c 	andeq	r0, r0, ip, lsl r0
  24:	007b0002 	rsbseq	r0, fp, r2
  28:	00040000 	andeq	r0, r4, r0
  2c:	00000000 	andeq	r0, r0, r0
  30:	01610074 	smceq	4100	; 0x1004
  34:	00000028 	andeq	r0, r0, r8, lsr #32
	...
  40:	0000001c 	andeq	r0, r0, ip, lsl r0
  44:	01260002 	teqeq	r6, r2
  48:	00040000 	andeq	r0, r4, r0
  4c:	00000000 	andeq	r0, r0, r0
  50:	0161009c 			; <UNDEFINED> instruction: 0x0161009c
  54:	000000a0 	andeq	r0, r0, r0, lsr #1
	...
  60:	0000001c 	andeq	r0, r0, ip, lsl r0
  64:	01f10002 	mvnseq	r0, r2
  68:	00040000 	andeq	r0, r4, r0
  6c:	00000000 	andeq	r0, r0, r0
  70:	0161013c 	cmneq	r1, ip, lsr r1
  74:	00000194 	muleq	r0, r4, r1
	...
  80:	00000014 	andeq	r0, r0, r4, lsl r0
  84:	03390002 	teqeq	r9, #2
  88:	00040000 	andeq	r0, r4, r0
	...
  98:	0000001c 	andeq	r0, r0, ip, lsl r0
  9c:	038b0002 	orreq	r0, fp, #2
  a0:	00040000 	andeq	r0, r4, r0
  a4:	00000000 	andeq	r0, r0, r0
  a8:	016102d0 	ldrdeq	r0, [r1, #-32]!	; 0xffffffe0
  ac:	000003c8 	andeq	r0, r0, r8, asr #7
	...
  b8:	0000001c 	andeq	r0, r0, ip, lsl r0
  bc:	0e5b0002 	cdpeq	0, 5, cr0, cr11, cr2, {0}
  c0:	00040000 	andeq	r0, r4, r0
  c4:	00000000 	andeq	r0, r0, r0
  c8:	01610698 			; <UNDEFINED> instruction: 0x01610698
  cc:	00000218 	andeq	r0, r0, r8, lsl r2
	...
  d8:	0000001c 	andeq	r0, r0, ip, lsl r0
  dc:	17440002 	strbne	r0, [r4, -r2]
  e0:	00040000 	andeq	r0, r4, r0
  e4:	00000000 	andeq	r0, r0, r0
  e8:	016108b0 	strheq	r0, [r1, #-128]!	; 0xffffff80
  ec:	00000c04 	andeq	r0, r0, r4, lsl #24
	...
  f8:	0000001c 	andeq	r0, r0, ip, lsl r0
  fc:	2b7b0002 	blcs	1ec010c <__bss_end__+0x89d54c>
 100:	00040000 	andeq	r0, r4, r0
 104:	00000000 	andeq	r0, r0, r0
 108:	016114b4 	strheq	r1, [r1, #-68]!	; 0xffffffbc
 10c:	00000168 	andeq	r0, r0, r8, ror #2
	...
 118:	0000001c 	andeq	r0, r0, ip, lsl r0
 11c:	2e6a0002 	cdpcs	0, 6, cr0, cr10, cr2, {0}
 120:	00040000 	andeq	r0, r4, r0
 124:	00000000 	andeq	r0, r0, r0
 128:	0161161c 	cmneq	r1, ip, lsl r6
 12c:	000004c8 	andeq	r0, r0, r8, asr #9
	...
 138:	0000001c 	andeq	r0, r0, ip, lsl r0
 13c:	3bbe0002 	blcc	fef8014c <__bss_end__+0xfd95d58c>
 140:	00040000 	andeq	r0, r4, r0
 144:	00000000 	andeq	r0, r0, r0
 148:	01611ae4 	cmneq	r1, r4, ror #21
 14c:	000008d0 	ldrdeq	r0, [r0], -r0	; <UNPREDICTABLE>
	...

Disassembly of section .debug_info:

00000000 <.debug_info>:
       0:	00000077 	andeq	r0, r0, r7, ror r0
       4:	00000002 	andeq	r0, r0, r2
       8:	01040000 	mrseq	r0, (UNDEF: 4)
       c:	00000000 	andeq	r0, r0, r0
      10:	01610000 	cmneq	r1, r0
      14:	01610074 	smceq	4100	; 0x1004
      18:	72617473 	rsbvc	r7, r1, #1929379840	; 0x73000000
      1c:	00532e74 	subseq	r2, r3, r4, ror lr
      20:	6d6f682f 	stclvs	8, cr6, [pc, #-188]!	; ffffff6c <__bss_end__+0xfe9dd3ac>
      24:	61662f65 	cmnvs	r6, r5, ror #30
      28:	616e2f65 	cmnvs	lr, r5, ror #30
      2c:	76732f73 	uhsub16vc	r2, r3, r3
      30:	32312f6e 	eorscc	r2, r1, #440	; 0x1b8
      34:	742f3539 	strtvc	r3, [pc], #-1337	; 3c <_back_addr-0x160ffc4>
      38:	6b6e7572 	blvs	1b9d608 <__bss_end__+0x57aa48>
      3c:	302e362d 	eorcc	r3, lr, sp, lsr #12
      40:	725f302e 	subsvc	r3, pc, #46	; 0x2e
      44:	6f622f31 	svcvs	0x00622f31
      48:	6f63746f 	svcvs	0x0063746f
      4c:	752f6564 	strvc	r6, [pc, #-1380]!	; fffffaf0 <__bss_end__+0xfe9dcf30>
      50:	746f6f62 	strbtvc	r6, [pc], #-3938	; 58 <_back_addr-0x160ffa8>
      54:	6178652f 	cmnvs	r8, pc, lsr #10
      58:	656c706d 	strbvs	r7, [ip, #-109]!	; 0x6d
      5c:	66652f73 	uqsub16vs	r2, r5, r3
      60:	5f657375 	svcpl	0x00657375
      64:	69726576 	ldmdbvs	r2!, {r1, r2, r4, r5, r6, r8, sl, sp, lr}^
      68:	47007966 	strmi	r7, [r0, -r6, ror #18]
      6c:	4120554e 	teqmi	r0, lr, asr #10
      70:	2e322053 	mrccs	0, 1, r2, cr2, cr3, {2}
      74:	302e3432 	eorcc	r3, lr, r2, lsr r4
      78:	a7800100 	strge	r0, [r0, r0, lsl #2]
      7c:	04000000 	streq	r0, [r0], #-0
      80:	00001400 	andeq	r1, r0, r0, lsl #8
      84:	ab010400 	blge	4108c <_back_addr-0x15cef74>
      88:	01000000 	mrseq	r0, (UNDEF: 0)
      8c:	00000000 	andeq	r0, r0, r0
      90:	00000031 	andeq	r0, r0, r1, lsr r0
      94:	01610074 	smceq	4100	; 0x1004
      98:	00000028 	andeq	r0, r0, r8, lsr #32
      9c:	00000050 	andeq	r0, r0, r0, asr r0
      a0:	10080102 	andne	r0, r8, r2, lsl #2
      a4:	02000000 	andeq	r0, r0, #0
      a8:	00120601 	andseq	r0, r2, r1, lsl #12
      ac:	02020000 	andeq	r0, r2, #0
      b0:	00001e07 	andeq	r1, r0, r7, lsl #28
      b4:	05020200 	streq	r0, [r2, #-512]	; 0x200
      b8:	000000a1 	andeq	r0, r0, r1, lsr #1
      bc:	86070402 	strhi	r0, [r7], -r2, lsl #8
      c0:	03000000 	movweq	r0, #0
      c4:	6e690504 	cdpvs	5, 6, cr0, cr9, cr4, {0}
      c8:	08020074 	stmdaeq	r2, {r2, r4, r5, r6}
      cc:	00007c07 	andeq	r7, r0, r7, lsl #24
      d0:	05080200 	streq	r0, [r8, #-512]	; 0x200
      d4:	00000093 	muleq	r0, r3, r0
      d8:	81070402 	tsthi	r7, r2, lsl #8
      dc:	04000000 	streq	r0, [r0], #-0
      e0:	00000009 	andeq	r0, r0, r9
      e4:	00483c01 	subeq	r3, r8, r1, lsl #24
      e8:	00740000 	rsbseq	r0, r4, r0
      ec:	00280161 	eoreq	r0, r8, r1, ror #2
      f0:	9c010000 	stcls	0, cr0, [r1], {-0}
      f4:	00000098 	muleq	r0, r8, r0
      f8:	01007305 	tsteq	r0, r5, lsl #6
      fc:	0000983c 	andeq	r9, r0, ip, lsr r8
     100:	00000000 	andeq	r0, r0, r0
     104:	006c0600 	rsbeq	r0, ip, r0, lsl #12
     108:	00483e01 	subeq	r3, r8, r1, lsl #28
     10c:	002b0000 	eoreq	r0, fp, r0
     110:	07000000 	streq	r0, [r0, -r0]
     114:	00009e04 	andeq	r9, r0, r4, lsl #28
     118:	00a30800 	adceq	r0, r3, r0, lsl #16
     11c:	01020000 	mrseq	r0, (UNDEF: 2)
     120:	00001908 	andeq	r1, r0, r8, lsl #18
     124:	00c70000 	sbceq	r0, r7, r0
     128:	00040000 	andeq	r0, r4, r0
     12c:	00000088 	andeq	r0, r0, r8, lsl #1
     130:	00ab0104 	adceq	r0, fp, r4, lsl #2
     134:	bc010000 	stclt	0, cr0, [r1], {-0}
     138:	31000001 	tstcc	r0, r1
     13c:	9c000000 	stcls	0, cr0, [r0], {-0}
     140:	a0016100 	andge	r6, r1, r0, lsl #2
     144:	8a000000 	bhi	14c <_back_addr-0x160feb4>
     148:	02000000 	andeq	r0, r0, #0
     14c:	00100801 	andseq	r0, r0, r1, lsl #16
     150:	01020000 	mrseq	r0, (UNDEF: 2)
     154:	00001206 	andeq	r1, r0, r6, lsl #4
     158:	07020200 	streq	r0, [r2, -r0, lsl #4]
     15c:	0000001e 	andeq	r0, r0, lr, lsl r0
     160:	a1050202 	tstge	r5, r2, lsl #4
     164:	02000000 	andeq	r0, r0, #0
     168:	00860704 	addeq	r0, r6, r4, lsl #14
     16c:	04030000 	streq	r0, [r3], #-0
     170:	746e6905 	strbtvc	r6, [lr], #-2309	; 0x905
     174:	07080200 	streq	r0, [r8, -r0, lsl #4]
     178:	0000007c 	andeq	r0, r0, ip, ror r0
     17c:	93050802 	movwls	r0, #22530	; 0x5802
     180:	02000000 	andeq	r0, r0, #0
     184:	00810704 	addeq	r0, r1, r4, lsl #14
     188:	c5040000 	strgt	r0, [r4, #-0]
     18c:	01000001 	tsteq	r0, r1
     190:	0000b23e 	andeq	fp, r0, lr, lsr r2
     194:	61009c00 	tstvs	r0, r0, lsl #24
     198:	0000a001 	andeq	sl, r0, r1
     19c:	b29c0100 	addslt	r0, ip, #0, 2
     1a0:	05000000 	streq	r0, [r0, #-0]
     1a4:	01003173 	tsteq	r0, r3, ror r1
     1a8:	0000bf3f 	andeq	fp, r0, pc, lsr pc
     1ac:	00005b00 	andeq	r5, r0, r0, lsl #22
     1b0:	32730600 	rsbscc	r0, r3, #0, 12
     1b4:	bf400100 	svclt	0x00400100
     1b8:	01000000 	mrseq	r0, (UNDEF: 0)
     1bc:	00730751 	rsbseq	r0, r3, r1, asr r7
     1c0:	00bf4201 	adcseq	r4, pc, r1, lsl #4
     1c4:	009f0000 	addseq	r0, pc, r0
     1c8:	74070000 	strvc	r0, [r7], #-0
     1cc:	bf430100 	svclt	0x00430100
     1d0:	d5000000 	strle	r0, [r0, #-0]
     1d4:	00000000 	andeq	r0, r0, r0
     1d8:	00b80408 	adcseq	r0, r8, r8, lsl #8
     1dc:	01020000 	mrseq	r0, (UNDEF: 2)
     1e0:	00001908 	andeq	r1, r0, r8, lsl #18
     1e4:	c5040800 	strgt	r0, [r4, #-2048]	; 0x800
     1e8:	09000000 	stmdbeq	r0, {}	; <UNPREDICTABLE>
     1ec:	000000b8 	strheq	r0, [r0], -r8
     1f0:	00014400 	andeq	r4, r1, r0, lsl #8
     1f4:	0b000400 	bleq	11fc <_back_addr-0x160ee04>
     1f8:	04000001 	streq	r0, [r0], #-1
     1fc:	0000ab01 	andeq	sl, r0, r1, lsl #22
     200:	01e20100 	mvneq	r0, r0, lsl #2
     204:	00310000 	eorseq	r0, r1, r0
     208:	013c0000 	teqeq	ip, r0
     20c:	01940161 	orrseq	r0, r4, r1, ror #2
     210:	00e30000 	rsceq	r0, r3, r0
     214:	01020000 	mrseq	r0, (UNDEF: 2)
     218:	00001008 	andeq	r1, r0, r8
     21c:	06010200 	streq	r0, [r1], -r0, lsl #4
     220:	00000012 	andeq	r0, r0, r2, lsl r0
     224:	1e070202 	cdpne	2, 0, cr0, cr7, cr2, {0}
     228:	02000000 	andeq	r0, r0, #0
     22c:	00a10502 	adceq	r0, r1, r2, lsl #10
     230:	04020000 	streq	r0, [r2], #-0
     234:	00008607 	andeq	r8, r0, r7, lsl #12
     238:	05040300 	streq	r0, [r4, #-768]	; 0x300
     23c:	00746e69 	rsbseq	r6, r4, r9, ror #28
     240:	7c070802 	stcvc	8, cr0, [r7], {2}
     244:	02000000 	andeq	r0, r0, #0
     248:	00930508 	addseq	r0, r3, r8, lsl #10
     24c:	04020000 	streq	r0, [r2], #-0
     250:	00008107 	andeq	r8, r0, r7, lsl #2
     254:	01da0400 	bicseq	r0, sl, r0, lsl #8
     258:	41010000 	mrsmi	r0, (UNDEF: 1)
     25c:	0000005d 	andeq	r0, r0, sp, asr r0
     260:	0161013c 	cmneq	r1, ip, lsr r1
     264:	00000194 	muleq	r0, r4, r1
     268:	010e9c01 	tsteq	lr, r1, lsl #24
     26c:	73050000 	movwvc	r0, #20480	; 0x5000
     270:	01007274 	tsteq	r0, r4, ror r2
     274:	00010e42 	andeq	r0, r1, r2, asr #28
     278:	00010000 	andeq	r0, r1, r0
     27c:	01cc0600 	biceq	r0, ip, r0, lsl #12
     280:	43010000 	movwmi	r0, #4096	; 0x1000
     284:	00000120 	andeq	r0, r0, r0, lsr #2
     288:	ec075101 	stfs	f5, [r7], {1}
     28c:	01000001 	tsteq	r0, r1
     290:	00004844 	andeq	r4, r0, r4, asr #16
     294:	00013700 	andeq	r3, r1, r0, lsl #14
     298:	00730800 	rsbseq	r0, r3, r0, lsl #16
     29c:	010e4601 	tsteq	lr, r1, lsl #12
     2a0:	01960000 	orrseq	r0, r6, r0
     2a4:	61080000 	mrsvs	r0, (UNDEF: 8)
     2a8:	01006363 	tsteq	r0, r3, ror #6
     2ac:	00005d47 	andeq	r5, r0, r7, asr #26
     2b0:	0001ca00 	andeq	ip, r1, r0, lsl #20
     2b4:	01f10900 	mvnseq	r0, r0, lsl #18
     2b8:	47010000 	strmi	r0, [r1, -r0]
     2bc:	0000005d 	andeq	r0, r0, sp, asr r0
     2c0:	0000021a 	andeq	r0, r0, sl, lsl r2
     2c4:	01006308 	tsteq	r0, r8, lsl #6
     2c8:	00004848 	andeq	r4, r0, r8, asr #16
     2cc:	00022d00 	andeq	r2, r2, r0, lsl #26
     2d0:	656e0800 	strbvs	r0, [lr, #-2048]!	; 0x800
     2d4:	49010067 	stmdbmi	r1, {r0, r1, r2, r5, r6}
     2d8:	00000048 	andeq	r0, r0, r8, asr #32
     2dc:	00000279 	andeq	r0, r0, r9, ror r2
     2e0:	796e6108 	stmdbvc	lr!, {r3, r8, sp, lr}^
     2e4:	48490100 	stmdami	r9, {r8}^
     2e8:	99000000 	stmdbls	r0, {}	; <UNPREDICTABLE>
     2ec:	09000002 	stmdbeq	r0, {r1}
     2f0:	000001d3 	ldrdeq	r0, [r0], -r3
     2f4:	00484901 	subeq	r4, r8, r1, lsl #18
     2f8:	02da0000 	sbcseq	r0, sl, #0
     2fc:	0a000000 	beq	304 <_back_addr-0x160fcfc>
     300:	00011404 	andeq	r1, r1, r4, lsl #8
     304:	01190b00 	tsteq	r9, r0, lsl #22
     308:	01020000 	mrseq	r0, (UNDEF: 2)
     30c:	00001908 	andeq	r1, r0, r8, lsl #18
     310:	26040a00 	strcs	r0, [r4], -r0, lsl #20
     314:	0a000001 	beq	320 <_back_addr-0x160fce0>
     318:	00011904 	andeq	r1, r1, r4, lsl #18
     31c:	00250c00 	eoreq	r0, r5, r0, lsl #24
     320:	01370000 	teqeq	r7, r0
     324:	000d0000 	andeq	r0, sp, r0
     328:	0001f80e 	andeq	pc, r1, lr, lsl #16
     32c:	42120200 	andsmi	r0, r2, #0, 4
     330:	0b000001 	bleq	33c <_back_addr-0x160fcc4>
     334:	0000012c 	andeq	r0, r0, ip, lsr #2
     338:	00004e00 	andeq	r4, r0, r0, lsl #28
     33c:	cb000400 	blgt	1344 <_back_addr-0x160ecbc>
     340:	04000001 	streq	r0, [r0], #-1
     344:	0000ab01 	andeq	sl, r0, r1, lsl #22
     348:	01ff0100 	mvnseq	r0, r0, lsl #2
     34c:	00310000 	eorseq	r0, r1, r0
     350:	01c60000 	biceq	r0, r6, r0
     354:	34020000 	strcc	r0, [r2], #-0
     358:	2d000000 	stccs	0, cr0, [r0, #-0]
     35c:	03000000 	movweq	r0, #0
     360:	0000002d 	andeq	r0, r0, sp, lsr #32
     364:	040400ff 	streq	r0, [r4], #-255	; 0xff
     368:	00020707 	andeq	r0, r2, r7, lsl #14
     36c:	08010400 	stmdaeq	r1, {sl}
     370:	00000010 	andeq	r0, r0, r0, lsl r0
     374:	0001f805 	andeq	pc, r1, r5, lsl #16
     378:	4c200100 	stfmis	f0, [r0], #-0
     37c:	05000000 	streq	r0, [r0, #-0]
     380:	6123b403 	teqvs	r3, r3, lsl #8
     384:	001d0601 	andseq	r0, sp, r1, lsl #12
     388:	cc000000 	stcgt	0, cr0, [r0], {-0}
     38c:	0400000a 	streq	r0, [r0], #-10
     390:	00021000 	andeq	r1, r2, r0
     394:	ab010400 	blge	4139c <_back_addr-0x15cec64>
     398:	01000000 	mrseq	r0, (UNDEF: 0)
     39c:	0000029b 	muleq	r0, fp, r2
     3a0:	00000377 	andeq	r0, r0, r7, ror r3
     3a4:	016102d0 	ldrdeq	r0, [r1, #-32]!	; 0xffffffe0
     3a8:	000003c8 	andeq	r0, r0, r8, asr #7
     3ac:	000001ee 	andeq	r0, r0, lr, ror #3
     3b0:	10080102 	andne	r0, r8, r2, lsl #2
     3b4:	02000000 	andeq	r0, r0, #0
     3b8:	00120601 	andseq	r0, r2, r1, lsl #12
     3bc:	02020000 	andeq	r0, r2, #0
     3c0:	00001e07 	andeq	r1, r0, r7, lsl #28
     3c4:	05020200 	streq	r0, [r2, #-512]	; 0x200
     3c8:	000000a1 	andeq	r0, r0, r1, lsr #1
     3cc:	00028103 	andeq	r8, r2, r3, lsl #2
     3d0:	4cb40200 	lfmmi	f0, 4, [r4]
     3d4:	02000000 	andeq	r0, r0, #0
     3d8:	00860704 	addeq	r0, r6, r4, lsl #14
     3dc:	04040000 	streq	r0, [r4], #-0
     3e0:	746e6905 	strbtvc	r6, [lr], #-2309	; 0x905
     3e4:	07080200 	streq	r0, [r8, -r0, lsl #4]
     3e8:	0000007c 	andeq	r0, r0, ip, ror r0
     3ec:	93050802 	movwls	r0, #22530	; 0x5802
     3f0:	02000000 	andeq	r0, r0, #0
     3f4:	00810704 	addeq	r0, r1, r4, lsl #14
     3f8:	18030000 	stmdane	r3, {}	; <UNPREDICTABLE>
     3fc:	02000003 	andeq	r0, r0, #3
     400:	000068c7 	andeq	r6, r0, r7, asr #17
     404:	08840300 	stmeq	r4, {r8, r9}
     408:	e5020000 	str	r0, [r2, #-0]
     40c:	00000068 	andeq	r0, r0, r8, rrx
     410:	008b0405 	addeq	r0, fp, r5, lsl #8
     414:	90060000 	andls	r0, r6, r0
     418:	02000000 	andeq	r0, r0, #0
     41c:	00190801 	andseq	r0, r9, r1, lsl #16
     420:	04020000 	streq	r0, [r2], #-0
     424:	00020707 	andeq	r0, r2, r7, lsl #14
     428:	02100700 	andseq	r0, r0, #0, 14
     42c:	6f010000 	svcvs	0x00010000
     430:	00000053 	andeq	r0, r0, r3, asr r0
     434:	0000d401 	andeq	sp, r0, r1, lsl #8
     438:	07fe0800 	ldrbeq	r0, [lr, r0, lsl #16]!
     43c:	6f010000 	svcvs	0x00010000
     440:	000000d4 	ldrdeq	r0, [r0], -r4
     444:	67697309 	strbvs	r7, [r9, -r9, lsl #6]!
     448:	d46f0100 	strbtle	r0, [pc], #-256	; 450 <_back_addr-0x160fbb0>
     44c:	0a000000 	beq	454 <_back_addr-0x160fbac>
     450:	00000311 	andeq	r0, r0, r1, lsl r3
     454:	00537101 	subseq	r7, r3, r1, lsl #2
     458:	0b000000 	bleq	460 <_back_addr-0x160fba0>
     45c:	0500000b 	streq	r0, [r0, #-11]
     460:	00002504 	andeq	r2, r0, r4, lsl #10
     464:	02a80c00 	adceq	r0, r8, #0, 24
     468:	95010000 	strls	r0, [r1, #-0]
     46c:	00000053 	andeq	r0, r0, r3, asr r0
     470:	00012b01 	andeq	r2, r1, r1, lsl #22
     474:	73630900 	cmnvc	r3, #0, 18
     478:	2b950100 	blcs	fe540880 <__bss_end__+0xfcf1dcc0>
     47c:	09000001 	stmdbeq	r0, {r0}
     480:	01007463 	tsteq	r0, r3, ror #8
     484:	00012b95 	muleq	r1, r5, fp
     488:	0a690800 	beq	1a42490 <__bss_end__+0x41f8d0>
     48c:	95010000 	strls	r0, [r1, #-0]
     490:	0000007a 	andeq	r0, r0, sl, ror r0
     494:	3175730d 	cmncc	r5, sp, lsl #6
     498:	32970100 	addscc	r0, r7, #0, 2
     49c:	0d000001 	stceq	0, cr0, [r0, #-4]
     4a0:	00327573 	eorseq	r7, r2, r3, ror r5
     4a4:	01329701 	teqeq	r2, r1, lsl #14
     4a8:	720d0000 	andvc	r0, sp, #0
     4ac:	01007365 	tsteq	r0, r5, ror #6
     4b0:	00005398 	muleq	r0, r8, r3
     4b4:	04050000 	streq	r0, [r5], #-0
     4b8:	00000131 	andeq	r0, r0, r1, lsr r1
     4bc:	3804050e 	stmdacc	r4, {r1, r2, r3, r8, sl}
     4c0:	06000001 	streq	r0, [r0], -r1
     4c4:	00000025 	andeq	r0, r0, r5, lsr #32
     4c8:	00023907 	andeq	r3, r2, r7, lsl #18
     4cc:	53440100 	movtpl	r0, #16640	; 0x4100
     4d0:	01000000 	mrseq	r0, (UNDEF: 0)
     4d4:	000001b2 			; <UNDEFINED> instruction: 0x000001b2
     4d8:	0007fe08 	andeq	pc, r7, r8, lsl #28
     4dc:	d4440100 	strble	r0, [r4], #-256	; 0x100
     4e0:	09000000 	stmdbeq	r0, {}	; <UNPREDICTABLE>
     4e4:	006e656c 	rsbeq	r6, lr, ip, ror #10
     4e8:	004c4401 	subeq	r4, ip, r1, lsl #8
     4ec:	23080000 	movwcs	r0, #32768	; 0x8000
     4f0:	01000003 	tsteq	r0, r3
     4f4:	0000d444 	andeq	sp, r0, r4, asr #8
     4f8:	69730900 	ldmdbvs	r3!, {r8, fp}^
     4fc:	44010067 	strmi	r0, [r1], #-103	; 0x67
     500:	000000d4 	ldrdeq	r0, [r0], -r4
     504:	79656b09 	stmdbvc	r5!, {r0, r3, r8, r9, fp, sp, lr}^
     508:	b2440100 	sublt	r0, r4, #0, 2
     50c:	0f000001 	svceq	0x00000001
     510:	000003c2 	andeq	r0, r0, r2, asr #7
     514:	004c4601 	subeq	r4, ip, r1, lsl #12
     518:	af100000 	svcge	0x00100000
     51c:	01000002 	tsteq	r0, r2
     520:	00005347 	andeq	r5, r0, r7, asr #6
     524:	01a20000 			; <UNDEFINED> instruction: 0x01a20000
     528:	0b0b0000 	bleq	2c0530 <_back_addr-0x134fad0>
     52c:	028f0a00 	addeq	r0, pc, #0, 20
     530:	4c010000 	stcmi	0, cr0, [r1], {-0}
     534:	00000053 	andeq	r0, r0, r3, asr r0
     538:	000b0b00 	andeq	r0, fp, r0, lsl #22
     53c:	4c040500 	cfstr32mi	mvfx0, [r4], {-0}
     540:	11000000 	mrsne	r0, (UNDEF: 0)
     544:	00000226 	andeq	r0, r0, r6, lsr #4
     548:	00537b01 	subseq	r7, r3, r1, lsl #22
     54c:	02d00000 	sbcseq	r0, r0, #0
     550:	00080161 	andeq	r0, r8, r1, ror #2
     554:	9c010000 	stcls	0, cr0, [r1], {-0}
     558:	00036612 	andeq	r6, r3, r2, lsl r6
     55c:	53800100 	orrpl	r0, r0, #0, 2
     560:	d8000000 	stmdale	r0, {}	; <UNPREDICTABLE>
     564:	10016102 	andne	r6, r1, r2, lsl #2
     568:	01000000 	mrseq	r0, (UNDEF: 0)
     56c:	0001f69c 	muleq	r1, ip, r6
     570:	6d661300 	stclvs	3, cr1, [r6, #-0]
     574:	80010074 	andhi	r0, r1, r4, ror r0
     578:	00000085 	andeq	r0, r0, r5, lsl #1
     57c:	0b709102 	bleq	1c2498c <__bss_end__+0x601dcc>
     580:	02881200 	addeq	r1, r8, #0, 4
     584:	85010000 	strhi	r0, [r1, #-0]
     588:	00000259 	andeq	r0, r0, r9, asr r2
     58c:	016102e8 	smultteq	r1, r8, r2
     590:	00000024 	andeq	r0, r0, r4, lsr #32
     594:	02599c01 	subseq	r9, r9, #256	; 0x100
     598:	2c140000 	ldccs	0, cr0, [r4], {-0}
     59c:	01000002 	tsteq	r0, r2
     5a0:	00025985 	andeq	r5, r2, r5, lsl #19
     5a4:	15500100 	ldrbne	r0, [r0, #-256]	; 0x100
     5a8:	00637273 	rsbeq	r7, r3, r3, ror r2
     5ac:	012b8501 	teqeq	fp, r1, lsl #10
     5b0:	02ed0000 	rsceq	r0, sp, #0
     5b4:	69160000 	ldmdbvs	r6, {}	; <UNPREDICTABLE>
     5b8:	0100000a 	tsteq	r0, sl
     5bc:	00007a85 	andeq	r7, r0, r5, lsl #21
     5c0:	00030e00 	andeq	r0, r3, r0, lsl #28
     5c4:	03001700 	movweq	r1, #1792	; 0x700
     5c8:	86010000 	strhi	r0, [r1], -r0
     5cc:	0000025b 	andeq	r0, r0, fp, asr r2
     5d0:	00000368 	andeq	r0, r0, r8, ror #6
     5d4:	0002d817 	andeq	sp, r2, r7, lsl r8
     5d8:	5b870100 	blpl	fe1c09e0 <__bss_end__+0xfcb9de20>
     5dc:	7b000002 	blvc	5ec <_back_addr-0x160fa14>
     5e0:	00000003 	andeq	r0, r0, r3
     5e4:	04050418 	streq	r0, [r5], #-1048	; 0x418
     5e8:	00000090 	muleq	r0, r0, r0
     5ec:	0000da19 	andeq	sp, r0, r9, lsl sl
     5f0:	61030c00 	tstvs	r3, r0, lsl #24
     5f4:	00005801 	andeq	r5, r0, r1, lsl #16
     5f8:	ab9c0100 	blge	fe700a00 <__bss_end__+0xfd0dde40>
     5fc:	1a000002 	bne	60c <_back_addr-0x160f9f4>
     600:	000000ea 	andeq	r0, r0, sl, ror #1
     604:	000003a6 	andeq	r0, r0, r6, lsr #7
     608:	0000f41a 	andeq	pc, r0, sl, lsl r4	; <UNPREDICTABLE>
     60c:	0003f800 	andeq	pc, r3, r0, lsl #16
     610:	00fe1a00 	rscseq	r1, lr, r0, lsl #20
     614:	04240000 	strteq	r0, [r4], #-0
     618:	091b0000 	ldmdbeq	fp, {}	; <UNPREDICTABLE>
     61c:	a8000001 	stmdage	r0, {r0}
     620:	1b000004 	blne	638 <_back_addr-0x160f9c8>
     624:	00000114 	andeq	r0, r0, r4, lsl r1
     628:	0000051c 	andeq	r0, r0, ip, lsl r5
     62c:	00011f1b 	andeq	r1, r1, fp, lsl pc
     630:	00059000 	andeq	r9, r5, r0
     634:	47120000 	ldrmi	r0, [r2, -r0]
     638:	01000003 	tsteq	r0, r3
     63c:	000053a1 	andeq	r5, r0, r1, lsr #7
     640:	61036400 	tstvs	r3, r0, lsl #8
     644:	0002d401 	andeq	sp, r2, r1, lsl #8
     648:	f09c0100 			; <UNDEFINED> instruction: 0xf09c0100
     64c:	16000007 	strne	r0, [r0], -r7
     650:	000002dd 	ldrdeq	r0, [r0], -sp
     654:	07f0a101 	ldrbeq	sl, [r0, r1, lsl #2]!
     658:	061f0000 	ldreq	r0, [pc], -r0
     65c:	cb0f0000 	blgt	3c0664 <_back_addr-0x124f99c>
     660:	01000003 	tsteq	r0, r3
     664:	000041a3 	andeq	r4, r0, r3, lsr #3
     668:	03510f00 	cmpeq	r1, #0, 30
     66c:	a4010000 	strge	r0, [r1], #-0
     670:	00000041 	andeq	r0, r0, r1, asr #32
     674:	7365721c 	cmnvc	r5, #28, 4	; 0xc0000001
     678:	53a50100 			; <UNDEFINED> instruction: 0x53a50100
     67c:	40000000 	andmi	r0, r0, r0
     680:	1d000006 	stcne	0, cr0, [r0, #-24]	; 0xffffffe8
     684:	006e656c 	rsbeq	r6, lr, ip, ror #10
     688:	0053a601 	subseq	sl, r3, r1, lsl #12
     68c:	54010000 	strpl	r0, [r1], #-0
     690:	0002311e 	andeq	r3, r2, lr, lsl r1
     694:	4ca70100 	stfmis	f0, [r7]
     698:	00000000 	andeq	r0, r0, r0
     69c:	1e017000 	cdpne	0, 0, cr7, cr1, cr0, {0}
     6a0:	00000323 	andeq	r0, r0, r3, lsr #6
     6a4:	004ca801 	subeq	sl, ip, r1, lsl #16
     6a8:	00000000 	andeq	r0, r0, r0
     6ac:	dc1f0150 	ldfles	f0, [pc], {80}	; 0x50
     6b0:	01000003 	tsteq	r0, r3
     6b4:	0007fba9 	andeq	pc, r7, r9, lsr #23
     6b8:	e8910300 	ldm	r1, {r8, r9}
     6bc:	035e1f7b 	cmpeq	lr, #492	; 0x1ec
     6c0:	aa010000 	bge	406c8 <_back_addr-0x15cf938>
     6c4:	000007fb 	strdeq	r0, [r0], -fp
     6c8:	7de89103 	stfvcp	f1, [r8, #12]!
     6cc:	3131721d 	teqcc	r1, sp, lsl r2
     6d0:	0bab0100 	bleq	feac0ad8 <__bss_end__+0xfd49df18>
     6d4:	95000008 	strls	r0, [r0, #-8]
     6d8:	32019301 	andcc	r9, r1, #67108864	; 0x4000000
     6dc:	3101939f 			; <UNDEFINED> instruction: 0x3101939f
     6e0:	0801939f 	stmdaeq	r1, {r0, r1, r2, r3, r4, r7, r8, r9, ip, pc}
     6e4:	01939f21 	orrseq	r9, r3, r1, lsr #30
     6e8:	939f4a08 	orrsls	r4, pc, #8, 20	; 0x8000
     6ec:	9f2c0801 	svcls	0x002c0801
     6f0:	85090193 	strhi	r0, [r9, #-403]	; 0x193
     6f4:	0901939f 	stmdbeq	r1, {r0, r1, r2, r3, r4, r7, r8, r9, ip, pc}
     6f8:	01939f82 	orrseq	r9, r3, r2, lsl #31
     6fc:	939f7a08 	orrsls	r7, pc, #8, 20	; 0x8000
     700:	9f210801 	svcls	0x00210801
     704:	34080193 	strcc	r0, [r8], #-403	; 0x193
     708:	0801939f 	stmdaeq	r1, {r0, r1, r2, r3, r4, r7, r8, r9, ip, pc}
     70c:	01939f3d 	orrseq	r9, r3, sp, lsr pc
     710:	01939f44 	orrseq	r9, r3, r4, asr #30
     714:	9f440193 	svcls	0x00440193
     718:	99090193 	stmdbls	r9, {r0, r1, r4, r7, r8}
     71c:	0801939f 	stmdaeq	r1, {r0, r1, r2, r3, r4, r7, r8, r9, ip, pc}
     720:	01939f20 	orrseq	r9, r3, r0, lsr #30
     724:	939fa209 	orrsls	sl, pc, #-1879048192	; 0x90000000
     728:	939f3201 	orrsls	r3, pc, #268435456	; 0x10000000
     72c:	9f220801 	svcls	0x00220801
     730:	b5090193 	strlt	r0, [r9, #-403]	; 0x193
     734:	4b01939f 	blmi	655b8 <_back_addr-0x15aaa48>
     738:	0801939f 	stmdaeq	r1, {r0, r1, r2, r3, r4, r7, r8, r9, ip, pc}
     73c:	01939f21 	orrseq	r9, r3, r1, lsr #30
     740:	01939f4a 	orrseq	r9, r3, sl, asr #30
     744:	939f7108 	orrsls	r7, pc, #8, 2
     748:	9f220801 	svcls	0x00220801
     74c:	a0090193 	mulge	r9, r3, r1
     750:	0801939f 	stmdaeq	r1, {r0, r1, r2, r3, r4, r7, r8, r9, ip, pc}
     754:	01939f2d 	orrseq	r9, r3, sp, lsr #30
     758:	939f3108 	orrsls	r3, pc, #8, 2
     75c:	939f3a01 	orrsls	r3, pc, #4096	; 0x1000
     760:	9f340801 	svcls	0x00340801
     764:	29080193 	stmdbcs	r8, {r0, r1, r4, r7, r8}
     768:	9301939f 	movwls	r9, #5023	; 0x139f
     76c:	721d03e0 	andsvc	r0, sp, #224, 6	; 0x80000003
     770:	bd010039 	stclt	0, cr0, [r1, #-228]	; 0xffffff1c
     774:	0000081c 	andeq	r0, r0, ip, lsl r8
     778:	7bc89103 	blvc	ff224b8c <__bss_end__+0xfdc01fcc>
     77c:	3031721d 	eorscc	r7, r1, sp, lsl r2
     780:	1cc30100 	stfnee	f0, [r3], {0}
     784:	15000008 	strne	r0, [r0, #-8]
     788:	30080393 	mulcc	r8, r3, r3
     78c:	9301939f 	movwls	r9, #5023	; 0x139f
     790:	939f3204 	orrsls	r3, pc, #4, 4	; 0x40000000
     794:	38059301 	stmdacc	r5, {r0, r8, r9, ip, pc}
     798:	9301939f 	movwls	r9, #5023	; 0x139f
     79c:	31721d01 	cmncc	r2, r1, lsl #26
     7a0:	c9010032 	stmdbgt	r1, {r1, r4, r5}
     7a4:	0000081c 	andeq	r0, r0, ip, lsl r8
     7a8:	7bd89103 	blvc	ff624bbc <__bss_end__+0xfe001ffc>
     7ac:	0002d120 	andeq	sp, r2, r0, lsr #2
     7b0:	53e70100 	mvnpl	r0, #0, 2
     7b4:	32000000 	andcc	r0, r0, #0
     7b8:	0b000004 	bleq	7d0 <_back_addr-0x160f830>
     7bc:	028f2000 	addeq	r2, pc, #0
     7c0:	4c010000 	stcmi	0, cr0, [r1], {-0}
     7c4:	00000053 	andeq	r0, r0, r3, asr r0
     7c8:	00000443 	andeq	r0, r0, r3, asr #8
     7cc:	3d21000b 	stccc	0, cr0, [r1, #-44]!	; 0xffffffd4
     7d0:	f0000001 			; <UNDEFINED> instruction: 0xf0000001
     7d4:	c0016104 	andgt	r6, r1, r4, lsl #2
     7d8:	01000000 	mrseq	r0, (UNDEF: 0)
     7dc:	05a6010e 	streq	r0, [r6, #270]!	; 0x10e
     7e0:	4d220000 	stcmi	0, cr0, [r2, #-0]
     7e4:	00000001 	andeq	r0, r0, r1
     7e8:	22017000 	andcs	r7, r1, #0
     7ec:	00000163 	andeq	r0, r0, r3, ror #2
     7f0:	01500000 	cmpeq	r0, r0
     7f4:	0001791a 	andeq	r7, r1, sl, lsl r9
     7f8:	00067900 	andeq	r7, r6, r0, lsl #18
     7fc:	016e1a00 	cmneq	lr, r0, lsl #20
     800:	06b30000 	ldrteq	r0, [r3], r0
     804:	58230000 	stmdapl	r3!, {}	; <UNPREDICTABLE>
     808:	01000001 	tsteq	r0, r1
     80c:	04f02454 	ldrbteq	r2, [r0], #1108	; 0x454
     810:	00c00161 	sbceq	r0, r0, r1, ror #2
     814:	841b0000 	ldrhi	r0, [fp], #-0
     818:	14000001 	strne	r0, [r0], #-1
     81c:	25000007 	strcs	r0, [r0, #-7]
     820:	016104f8 	strdeq	r0, [r1, #-72]!	; 0xffffffb8
     824:	000009c7 	andeq	r0, r0, r7, asr #19
     828:	61050425 	tstvs	r5, r5, lsr #8
     82c:	0009c701 	andeq	ip, r9, r1, lsl #14
     830:	05102500 	ldreq	r2, [r0, #-1280]	; 0x500
     834:	09c70161 	stmibeq	r7, {r0, r5, r6, r8}^
     838:	1c250000 	stcne	0, cr0, [r5], #-0
     83c:	c7016105 	strgt	r6, [r1, -r5, lsl #2]
     840:	26000009 	strcs	r0, [r0], -r9
     844:	01610540 	cmneq	r1, r0, asr #10
     848:	000009d8 	ldrdeq	r0, [r0], -r8
     84c:	000004da 	ldrdeq	r0, [r0], -sl
     850:	03500127 	cmpeq	r0, #-1073741815	; 0xc0000009
     854:	27244447 	strcs	r4, [r4, -r7, asr #8]!
     858:	45035201 	strmi	r5, [r3, #-513]	; 0x201
     85c:	01272444 	teqeq	r7, r4, asr #8
     860:	007d0253 	rsbseq	r0, sp, r3, asr r2
     864:	054c2600 	strbeq	r2, [ip, #-1536]	; 0x600
     868:	09fc0161 	ldmibeq	ip!, {r0, r5, r6, r8}^
     86c:	04f40000 	ldrbteq	r0, [r4], #0
     870:	01270000 	teqeq	r7, r0
     874:	44450350 	strbmi	r0, [r5], #-848	; 0x350
     878:	51012724 	tstpl	r1, r4, lsr #14
     87c:	26004001 	strcs	r4, [r0], -r1
     880:	01610558 	cmneq	r1, r8, asr r5
     884:	000009fc 	strdeq	r0, [r0], -ip
     888:	0000050d 	andeq	r0, r0, sp, lsl #10
     88c:	02500127 	subseq	r0, r0, #-1073741815	; 0xc0000009
     890:	01270074 	teqeq	r7, r4, ror r0
     894:	00400151 	subeq	r0, r0, r1, asr r1
     898:	61057026 	tstvs	r5, r6, lsr #32
     89c:	0009fc01 	andeq	pc, r9, r1, lsl #24
     8a0:	00052600 	andeq	r2, r5, r0, lsl #12
     8a4:	50012700 	andpl	r2, r1, r0, lsl #14
     8a8:	27007502 	strcs	r7, [r0, -r2, lsl #10]
     8ac:	34015101 	strcc	r5, [r1], #-257	; 0x101
     8b0:	05782600 	ldrbeq	r2, [r8, #-1536]!	; 0x600
     8b4:	09c70161 	stmibeq	r7, {r0, r5, r6, r8}^
     8b8:	053a0000 	ldreq	r0, [sl, #-0]!
     8bc:	01270000 	teqeq	r7, r0
     8c0:	00750250 	rsbseq	r0, r5, r0, asr r2
     8c4:	05842600 	streq	r2, [r4, #1536]	; 0x600
     8c8:	09fc0161 	ldmibeq	ip!, {r0, r5, r6, r8}^
     8cc:	054d0000 	strbeq	r0, [sp, #-0]
     8d0:	01270000 	teqeq	r7, r0
     8d4:	00340151 	eorseq	r0, r4, r1, asr r1
     8d8:	61059026 	tstvs	r5, r6, lsr #32
     8dc:	0009fc01 	andeq	pc, r9, r1, lsl #24
     8e0:	00056600 	andeq	r6, r5, r0, lsl #12
     8e4:	50012700 	andpl	r2, r1, r0, lsl #14
     8e8:	27007502 	strcs	r7, [r0, -r2, lsl #10]
     8ec:	34015101 	strcc	r5, [r1], #-257	; 0x101
     8f0:	05a42600 	streq	r2, [r4, #1536]!	; 0x600
     8f4:	0a0d0161 	beq	340e80 <_back_addr-0x12cf180>
     8f8:	058e0000 	streq	r0, [lr]
     8fc:	01270000 	teqeq	r7, r0
     900:	44450350 	strbmi	r0, [r5], #-848	; 0x350
     904:	51012724 	tstpl	r1, r4, lsr #14
     908:	27007502 	strcs	r7, [r0, -r2, lsl #10]
     90c:	91035201 	tstls	r3, r1, lsl #4
     910:	01277be0 	teqeq	r7, r0, ror #23
     914:	00760253 	rsbseq	r0, r6, r3, asr r2
     918:	05b02800 	ldreq	r2, [r0, #2048]!	; 0x800
     91c:	09fc0161 	ldmibeq	ip!, {r0, r5, r6, r8}^
     920:	01270000 	teqeq	r7, r0
     924:	e0910350 	adds	r0, r1, r0, asr r3
     928:	5101277b 	tstpl	r1, fp, ror r7
     92c:	00004001 	andeq	r4, r0, r1
     930:	009e2100 	addseq	r2, lr, r0, lsl #2
     934:	05b40000 	ldreq	r0, [r4, #0]!
     938:	00140161 	andseq	r0, r4, r1, ror #2
     93c:	11010000 	mrsne	r0, (UNDEF: 1)
     940:	0005f101 	andeq	pc, r5, r1, lsl #2
     944:	00b91a00 	adcseq	r1, r9, r0, lsl #20
     948:	07490000 	strbeq	r0, [r9, -r0]
     94c:	ae1a0000 	cdpge	0, 1, cr0, cr10, cr0, {0}
     950:	91000000 	mrsls	r0, (UNDEF: 0)
     954:	24000007 	strcs	r0, [r0], #-7
     958:	016105b4 	strheq	r0, [r1, #-84]!	; 0xffffffac
     95c:	00000014 	andeq	r0, r0, r4, lsl r0
     960:	6105c828 	tstvs	r5, r8, lsr #16
     964:	000a3101 	andeq	r3, sl, r1, lsl #2
     968:	50012700 	andpl	r2, r1, r0, lsl #14
     96c:	80807405 	addhi	r7, r0, r5, lsl #8
     970:	01270bc0 	smlawteq	r7, r0, fp, r0
     974:	e0910352 	adds	r0, r1, r2, asr r3
     978:	0000007d 	andeq	r0, r0, sp, ror r0
     97c:	0000da21 	andeq	sp, r0, r1, lsr #20
     980:	6105cc00 	tstvs	r5, r0, lsl #24
     984:	00003c01 	andeq	r3, r0, r1, lsl #24
     988:	01140100 	tsteq	r4, r0, lsl #2
     98c:	00000646 	andeq	r0, r0, r6, asr #12
     990:	0000fe1a 	andeq	pc, r0, sl, lsl lr	; <UNPREDICTABLE>
     994:	0007c400 	andeq	ip, r7, r0, lsl #8
     998:	00f41a00 	rscseq	r1, r4, r0, lsl #20
     99c:	07fe0000 	ldrbeq	r0, [lr, r0]!
     9a0:	ea1a0000 	b	6809a8 <_back_addr-0xf8f658>
     9a4:	2d000000 	stccs	0, cr0, [r0, #-0]
     9a8:	24000008 	strcs	r0, [r0], #-8
     9ac:	016105cc 	smulbteq	r1, ip, r5
     9b0:	0000003c 	andeq	r0, r0, ip, lsr r0
     9b4:	0001091b 	andeq	r0, r1, fp, lsl r9
     9b8:	00085c00 	andeq	r5, r8, r0, lsl #24
     9bc:	01141b00 	tsteq	r4, r0, lsl #22
     9c0:	08970000 	ldmeq	r7, {}	; <UNPREDICTABLE>
     9c4:	1f1b0000 	svcne	0x001b0000
     9c8:	d4000001 	strle	r0, [r0], #-1
     9cc:	00000008 	andeq	r0, r0, r8
     9d0:	03882600 	orreq	r2, r8, #0, 12
     9d4:	0a420161 	beq	1080f60 <_back_addr-0x58f0a0>
     9d8:	06670000 	strbteq	r0, [r7], -r0
     9dc:	01270000 	teqeq	r7, r0
     9e0:	e0910350 	adds	r0, r1, r0, asr r3
     9e4:	5101277b 	tstpl	r1, fp, ror r7
     9e8:	01273001 	teqeq	r7, r1
     9ec:	000a0352 	andeq	r0, sl, r2, asr r3
     9f0:	9c260001 	stcls	0, cr0, [r6], #-4
     9f4:	42016103 	andmi	r6, r1, #-1073741824	; 0xc0000000
     9f8:	8900000a 	stmdbhi	r0, {r1, r3}
     9fc:	27000006 	strcs	r0, [r0, -r6]
     a00:	91035001 	tstls	r3, r1
     a04:	01277de0 	teqeq	r7, r0, ror #27
     a08:	00760251 	rsbseq	r0, r6, r1, asr r2
     a0c:	03520127 	cmpeq	r2, #-1073741815	; 0xc0000009
     a10:	0001000a 	andeq	r0, r1, sl
     a14:	61046026 	tstvs	r4, r6, lsr #32
     a18:	000a5f01 	andeq	r5, sl, r1, lsl #30
     a1c:	0006ab00 	andeq	sl, r6, r0, lsl #22
     a20:	50012700 	andpl	r2, r1, r0, lsl #14
     a24:	7be09103 	blvc	ff824e38 <__bss_end__+0xfe202278>
     a28:	02510127 	subseq	r0, r1, #-1073741815	; 0xc0000009
     a2c:	01270076 	teqeq	r7, r6, ror r0
     a30:	000a0352 	andeq	r0, sl, r2, asr r3
     a34:	70260001 	eorvc	r0, r6, r1
     a38:	5f016104 	svcpl	0x00016104
     a3c:	cd00000a 	stcgt	0, cr0, [r0, #-40]	; 0xffffffd8
     a40:	27000006 	strcs	r0, [r0, -r6]
     a44:	91035001 	tstls	r3, r1
     a48:	01277de0 	teqeq	r7, r0, ror #27
     a4c:	00760251 	rsbseq	r0, r6, r1, asr r2
     a50:	03520127 	cmpeq	r2, #-1073741815	; 0xc0000009
     a54:	0001000a 	andeq	r0, r1, sl
     a58:	61047c26 	tstvs	r4, r6, lsr #24
     a5c:	000a7e01 	andeq	r7, sl, r1, lsl #28
     a60:	0006e400 	andeq	lr, r6, r0, lsl #8
     a64:	50012700 	andpl	r2, r1, r0, lsl #14
     a68:	24d40305 	ldrbcs	r0, [r4], #773	; 0x305
     a6c:	26000161 	strcs	r0, [r0], -r1, ror #2
     a70:	01610488 	smulbbeq	r1, r8, r4
     a74:	000009fc 	strdeq	r0, [r0], -ip
     a78:	000006fd 	strdeq	r0, [r0], -sp
     a7c:	02500127 	subseq	r0, r0, #-1073741815	; 0xc0000009
     a80:	01270074 	teqeq	r7, r4, ror r0
     a84:	00340151 	eorseq	r0, r4, r1, asr r1
     a88:	61049426 	tstvs	r4, r6, lsr #8
     a8c:	000a7e01 	andeq	r7, sl, r1, lsl #28
     a90:	00071400 	andeq	r1, r7, r0, lsl #8
     a94:	50012700 	andpl	r2, r1, r0, lsl #14
     a98:	24f40305 	ldrbtcs	r0, [r4], #773	; 0x305
     a9c:	26000161 	strcs	r0, [r0], -r1, ror #2
     aa0:	016104a0 	smultbeq	r1, r0, r4
     aa4:	00000a7e 	andeq	r0, r0, lr, ror sl
     aa8:	0000072b 	andeq	r0, r0, fp, lsr #14
     aac:	05500127 	ldrbeq	r0, [r0, #-295]	; 0x127
     ab0:	61251403 	teqvs	r5, r3, lsl #8
     ab4:	a4250001 	strtge	r0, [r5], #-1
     ab8:	8f016104 	svchi	0x00016104
     abc:	2600000a 	strcs	r0, [r0], -sl
     ac0:	016104b4 	strheq	r0, [r1, #-68]!	; 0xffffffbc
     ac4:	000009fc 	strdeq	r0, [r0], -ip
     ac8:	00000747 	andeq	r0, r0, r7, asr #14
     acc:	01510127 	cmpeq	r1, r7, lsr #2
     ad0:	c0260040 	eorgt	r0, r6, r0, asr #32
     ad4:	fc016104 	stc2	1, cr6, [r1], {4}
     ad8:	60000009 	andvs	r0, r0, r9
     adc:	27000007 	strcs	r0, [r0, -r7]
     ae0:	7d025001 	stcvc	0, cr5, [r2, #-4]
     ae4:	51012700 	tstpl	r1, r0, lsl #14
     ae8:	26004001 	strcs	r4, [r0], -r1
     aec:	016104cc 	smulbteq	r1, ip, r4
     af0:	000009fc 	strdeq	r0, [r0], -ip
     af4:	0000077a 	andeq	r0, r0, sl, ror r7
     af8:	03500127 	cmpeq	r0, #-1073741815	; 0xc0000009
     afc:	277bd091 			; <UNDEFINED> instruction: 0x277bd091
     b00:	40015101 	andmi	r5, r1, r1, lsl #2
     b04:	04e42600 	strbteq	r2, [r4], #1536	; 0x600
     b08:	0a960161 	beq	fe581094 <__bss_end__+0xfcf5e4d4>
     b0c:	079a0000 	ldreq	r0, [sl, r0]
     b10:	01270000 	teqeq	r7, r0
     b14:	27400151 	smlsldcs	r0, r0, r1, r1	; <UNPREDICTABLE>
     b18:	7d025201 	sfmvc	f5, 4, [r2, #-4]
     b1c:	53012700 	movwpl	r2, #5888	; 0x1700
     b20:	7bd09103 	blvc	ff424f34 <__bss_end__+0xfde02374>
     b24:	04f02600 	ldrbteq	r2, [r0], #1536	; 0x600
     b28:	09fc0161 	ldmibeq	ip!, {r0, r5, r6, r8}^
     b2c:	07b30000 	ldreq	r0, [r3, r0]!
     b30:	01270000 	teqeq	r7, r0
     b34:	007d0250 	rsbseq	r0, sp, r0, asr r2
     b38:	01510127 	cmpeq	r1, r7, lsr #2
     b3c:	b4250040 	strtlt	r0, [r5], #-64	; 0x40
     b40:	8f016105 	svchi	0x00016105
     b44:	2500000a 	strcs	r0, [r0, #-10]
     b48:	016105cc 	smulbteq	r1, ip, r5
     b4c:	00000a8f 	andeq	r0, r0, pc, lsl #21
     b50:	61061426 	tstvs	r6, r6, lsr #8
     b54:	000a7e01 	andeq	r7, sl, r1, lsl #28
     b58:	0007dc00 	andeq	sp, r7, r0, lsl #24
     b5c:	50012700 	andpl	r2, r1, r0, lsl #14
     b60:	252c0305 	strcs	r0, [ip, #-773]!	; 0x305
     b64:	28000161 	stmdacs	r0, {r0, r5, r6, r8}
     b68:	0161062c 	cmneq	r1, ip, lsr #12
     b6c:	00000a7e 	andeq	r0, r0, lr, ror sl
     b70:	05500127 	ldrbeq	r0, [r0, #-295]	; 0x127
     b74:	61252003 	teqvs	r5, r3
     b78:	05000001 	streq	r0, [r0, #-1]
     b7c:	0007f604 	andeq	pc, r7, r4, lsl #12
     b80:	025b0600 	subseq	r0, fp, #0, 12
     b84:	25290000 	strcs	r0, [r9, #-0]!
     b88:	0b000000 	bleq	b90 <_back_addr-0x160f470>
     b8c:	2a000008 	bcs	bb4 <_back_addr-0x160f44c>
     b90:	00000097 	muleq	r0, r7, r0
     b94:	252900ff 	strcs	r0, [r9, #-255]!	; 0xff
     b98:	1c000000 	stcne	0, cr0, [r0], {-0}
     b9c:	2b000008 	blcs	bc4 <_back_addr-0x160f43c>
     ba0:	00000097 	muleq	r0, r7, r0
     ba4:	290001ff 	stmdbcs	r0, {r0, r1, r2, r3, r4, r5, r6, r7, r8}
     ba8:	00000025 	andeq	r0, r0, r5, lsr #32
     bac:	0000082c 	andeq	r0, r0, ip, lsr #16
     bb0:	0000972a 	andeq	r9, r0, sl, lsr #14
     bb4:	2c000f00 	stccs	15, cr0, [r0], {-0}
     bb8:	0000025b 	andeq	r0, r0, fp, asr r2
     bbc:	68012b01 	stmdavs	r1, {r0, r8, r9, fp, sp}
     bc0:	38000000 	stmdacc	r0, {}	; <UNPREDICTABLE>
     bc4:	14016106 	strne	r6, [r1], #-262	; 0x106
     bc8:	01000000 	mrseq	r0, (UNDEF: 0)
     bcc:	00088f9c 	muleq	r8, ip, pc	; <UNPREDICTABLE>
     bd0:	02f22d00 	rscseq	r2, r2, #0, 26
     bd4:	2b010000 	blcs	40bdc <_back_addr-0x15cf424>
     bd8:	0008a301 	andeq	sl, r8, r1, lsl #6
     bdc:	00098000 	andeq	r8, r9, r0
     be0:	031e2d00 	tsteq	lr, #0, 26
     be4:	2b010000 	blcs	40bec <_back_addr-0x15cf414>
     be8:	00005301 	andeq	r5, r0, r1, lsl #6
     bec:	0009ac00 	andeq	sl, r9, r0, lsl #24
     bf0:	02dd2d00 	sbcseq	r2, sp, #0, 26
     bf4:	2b010000 	blcs	40bfc <_back_addr-0x15cf404>
     bf8:	0007f001 	andeq	pc, r7, r1
     bfc:	0009d800 	andeq	sp, r9, r0, lsl #16
     c00:	064c2e00 	strbeq	r2, [ip], -r0, lsl #28
     c04:	f3030161 	vrhadd.u8	q0, <illegal reg q1.5>, <illegal reg q8.5>
     c08:	01275001 	teqeq	r7, r1
     c0c:	01f30350 	mvnseq	r0, r0, asr r3
     c10:	51012751 	tstpl	r1, r1, asr r7
     c14:	5201f303 	andpl	pc, r1, #201326592	; 0xc000000
     c18:	6f2f0000 	svcvs	0x002f0000
     c1c:	a3000000 	movwge	r0, #0
     c20:	30000008 	andcc	r0, r0, r8
     c24:	00000053 	andeq	r0, r0, r3, asr r0
     c28:	0007f030 	andeq	pc, r7, r0, lsr r0	; <UNPREDICTABLE>
     c2c:	04050000 	streq	r0, [r5], #-0
     c30:	0000088f 	andeq	r0, r0, pc, lsl #17
     c34:	0002662c 	andeq	r6, r2, ip, lsr #12
     c38:	014f0100 	mrseq	r0, (UNDEF: 95)
     c3c:	00000053 	andeq	r0, r0, r3, asr r0
     c40:	0161064c 	cmneq	r1, ip, asr #12
     c44:	0000004c 	andeq	r0, r0, ip, asr #32
     c48:	09749c01 	ldmdbeq	r4!, {r0, sl, fp, ip, pc}^
     c4c:	1e2d0000 	cdpne	0, 2, cr0, cr13, cr0, {0}
     c50:	01000003 	tsteq	r0, r3
     c54:	0053014f 	subseq	r0, r3, pc, asr #2
     c58:	09f90000 	ldmibeq	r9!, {}^	; <UNPREDICTABLE>
     c5c:	dd2d0000 	stcle	0, cr0, [sp, #-0]
     c60:	01000002 	tsteq	r0, r2
     c64:	07f0014f 	ldrbeq	r0, [r0, pc, asr #2]!
     c68:	0a1a0000 	beq	680c70 <_back_addr-0xf8f390>
     c6c:	72310000 	eorsvc	r0, r1, #0
     c70:	01007465 	tsteq	r0, r5, ror #8
     c74:	00530151 	subseq	r0, r3, r1, asr r1
     c78:	0a380000 	beq	e00c80 <_back_addr-0x80f380>
     c7c:	c2320000 	eorsgt	r0, r2, #0
     c80:	01000002 	tsteq	r0, r2
     c84:	004c0152 	subeq	r0, ip, r2, asr r1
     c88:	2c330000 	ldccs	0, cr0, [r3], #-0
     c8c:	01000003 	tsteq	r0, r3
     c90:	00530156 	subseq	r0, r3, r6, asr r1
     c94:	09110000 	ldmdbeq	r1, {}	; <UNPREDICTABLE>
     c98:	000b0000 	andeq	r0, fp, r0
     c9c:	0002d120 	andeq	sp, r2, r0, lsr #2
     ca0:	53e70100 	mvnpl	r0, #0, 2
     ca4:	22000000 	andcs	r0, r0, #0
     ca8:	0b000009 	bleq	cd4 <_back_addr-0x160f32c>
     cac:	00003400 	andeq	r3, r0, r0, lsl #8
     cb0:	09390000 	ldmdbeq	r9!, {}	; <UNPREDICTABLE>
     cb4:	d1350000 	teqle	r5, r0
     cb8:	01000002 	tsteq	r0, r2
     cbc:	000053e7 	andeq	r5, r0, r7, ror #7
     cc0:	00000b00 	andeq	r0, r0, r0, lsl #22
     cc4:	61066825 	tstvs	r6, r5, lsr #16
     cc8:	000aba01 	andeq	fp, sl, r1, lsl #20
     ccc:	06702600 	ldrbteq	r2, [r0], -r0, lsl #12
     cd0:	0ac10161 	beq	ff04125c <__bss_end__+0xfda1e69c>
     cd4:	09560000 	ldmdbeq	r6, {}^	; <UNPREDICTABLE>
     cd8:	01270000 	teqeq	r7, r0
     cdc:	00740250 	rsbseq	r0, r4, r0, asr r2
     ce0:	06782600 	ldrbteq	r2, [r8], -r0, lsl #12
     ce4:	02ab0161 	adceq	r0, fp, #1073741848	; 0x40000018
     ce8:	096a0000 	stmdbeq	sl!, {}^	; <UNPREDICTABLE>
     cec:	01270000 	teqeq	r7, r0
     cf0:	00750250 	rsbseq	r0, r5, r0, asr r2
     cf4:	06902500 	ldreq	r2, [r0], r0, lsl #10
     cf8:	0a7e0161 	beq	1f81284 <__bss_end__+0x95e6c4>
     cfc:	29000000 	stmdbcs	r0, {}	; <UNPREDICTABLE>
     d00:	00000025 	andeq	r0, r0, r5, lsr #32
     d04:	0000097f 	andeq	r0, r0, pc, ror r9
     d08:	f8370036 			; <UNDEFINED> instruction: 0xf8370036
     d0c:	03000001 	movweq	r0, #1
     d10:	00098a12 	andeq	r8, r9, r2, lsl sl
     d14:	09740600 	ldmdbeq	r4!, {r9, sl}^
     d18:	05370000 	ldreq	r0, [r7, #-0]!
     d1c:	01000003 	tsteq	r0, r3
     d20:	0009740a 	andeq	r7, r9, sl, lsl #8
     d24:	03b23700 			; <UNDEFINED> instruction: 0x03b23700
     d28:	0b010000 	bleq	40d30 <_back_addr-0x15cf2d0>
     d2c:	00000025 	andeq	r0, r0, r5, lsr #32
     d30:	0002f837 	andeq	pc, r2, r7, lsr r8	; <UNPREDICTABLE>
     d34:	740c0100 	strvc	r0, [ip], #-256	; 0x100
     d38:	37000009 	strcc	r0, [r0, -r9]
     d3c:	0000033b 	andeq	r0, r0, fp, lsr r3
     d40:	00250d01 	eoreq	r0, r5, r1, lsl #26
     d44:	c2320000 	eorsgt	r0, r2, #0
     d48:	01000002 	tsteq	r0, r2
     d4c:	004c0152 	subeq	r0, ip, r2, asr r1
     d50:	af200000 	svcge	0x00200000
     d54:	01000002 	tsteq	r0, r2
     d58:	00005347 	andeq	r5, r0, r7, asr #6
     d5c:	0009d800 	andeq	sp, r9, r0, lsl #16
     d60:	38000b00 	stmdacc	r0, {r8, r9, fp}
     d64:	000002e2 	andeq	r0, r0, r2, ror #5
     d68:	00538604 	subseq	r8, r3, r4, lsl #12
     d6c:	09fc0000 	ldmibeq	ip!, {}^	; <UNPREDICTABLE>
     d70:	d4300000 	ldrtle	r0, [r0], #-0
     d74:	30000000 	andcc	r0, r0, r0
     d78:	0000004c 	andeq	r0, r0, ip, asr #32
     d7c:	0000d430 	andeq	sp, r0, r0, lsr r4
     d80:	01b23000 			; <UNDEFINED> instruction: 0x01b23000
     d84:	20000000 	andcs	r0, r0, r0
     d88:	0000028f 	andeq	r0, r0, pc, lsl #5
     d8c:	00534c01 	subseq	r4, r3, r1, lsl #24
     d90:	0a0d0000 	beq	340d98 <_back_addr-0x12cf268>
     d94:	000b0000 	andeq	r0, fp, r0
     d98:	00024f38 	andeq	r4, r2, r8, lsr pc
     d9c:	538d0400 	orrpl	r0, sp, #0, 8
     da0:	31000000 	mrscc	r0, (UNDEF: 0)
     da4:	3000000a 	andcc	r0, r0, sl
     da8:	000000d4 	ldrdeq	r0, [r0], -r4
     dac:	00004c30 	andeq	r4, r0, r0, lsr ip
     db0:	00d43000 	sbcseq	r3, r4, r0
     db4:	b2300000 	eorslt	r0, r0, #0
     db8:	00000001 	andeq	r0, r0, r1
     dbc:	00031120 	andeq	r1, r3, r0, lsr #2
     dc0:	53710100 	cmnpl	r1, #0, 2
     dc4:	42000000 	andmi	r0, r0, #0
     dc8:	0b00000a 	bleq	df8 <_back_addr-0x160f208>
     dcc:	02bb3900 	adcseq	r3, fp, #0, 18
     dd0:	02590000 	subseq	r0, r9, #0
     dd4:	0a5f0000 	beq	17c0ddc <__bss_end__+0x19e21c>
     dd8:	59300000 	ldmdbpl	r0!, {}	; <UNPREDICTABLE>
     ddc:	30000002 	andcc	r0, r0, r2
     de0:	00000053 	andeq	r0, r0, r3, asr r0
     de4:	00009730 	andeq	r9, r0, r0, lsr r7
     de8:	bb380000 	bllt	e00df0 <_back_addr-0x80f210>
     dec:	05000002 	streq	r0, [r0, #-2]
     df0:	00025988 	andeq	r5, r2, r8, lsl #19
     df4:	000a7e00 	andeq	r7, sl, r0, lsl #28
     df8:	02593000 	subseq	r3, r9, #0
     dfc:	53300000 	teqpl	r0, #0
     e00:	30000000 	andcc	r0, r0, r0
     e04:	0000007a 	andeq	r0, r0, sl, ror r0
     e08:	02d12000 	sbcseq	r2, r1, #0
     e0c:	e7010000 	str	r0, [r1, -r0]
     e10:	00000053 	andeq	r0, r0, r3, asr r0
     e14:	00000a8f 	andeq	r0, r0, pc, lsl #21
     e18:	ad3a000b 	ldcge	0, cr0, [sl, #-44]!	; 0xffffffd4
     e1c:	05000003 	streq	r0, [r0, #-3]
     e20:	02713873 	rsbseq	r3, r1, #7536640	; 0x730000
     e24:	88040000 	stmdahi	r4, {}	; <UNPREDICTABLE>
     e28:	00000053 	andeq	r0, r0, r3, asr r0
     e2c:	00000aba 			; <UNDEFINED> instruction: 0x00000aba
     e30:	0000d430 	andeq	sp, r0, r0, lsr r4
     e34:	004c3000 	subeq	r3, ip, r0
     e38:	d4300000 	ldrtle	r0, [r0], #-0
     e3c:	30000000 	andcc	r0, r0, r0
     e40:	000001b2 			; <UNDEFINED> instruction: 0x000001b2
     e44:	036d3a00 	cmneq	sp, #0, 20
     e48:	74050000 	strvc	r0, [r5], #-0
     e4c:	00032c3b 	andeq	r2, r3, fp, lsr ip
     e50:	01560100 	cmpeq	r6, r0, lsl #2
     e54:	00000053 	andeq	r0, r0, r3, asr r0
     e58:	e500000b 	str	r0, [r0, #-11]
     e5c:	04000008 	streq	r0, [r0], #-8
     e60:	00054900 	andeq	r4, r5, r0, lsl #18
     e64:	ab010400 	blge	41e6c <_back_addr-0x15ce194>
     e68:	01000000 	mrseq	r0, (UNDEF: 0)
     e6c:	0000050d 	andeq	r0, r0, sp, lsl #10
     e70:	00000377 	andeq	r0, r0, r7, ror r3
     e74:	01610698 			; <UNDEFINED> instruction: 0x01610698
     e78:	00000218 	andeq	r0, r0, r8, lsl r2
     e7c:	000003a6 	andeq	r0, r0, r6, lsr #7
     e80:	07070402 	streq	r0, [r7, -r2, lsl #8]
     e84:	02000002 	andeq	r0, r0, #2
     e88:	00810704 	addeq	r0, r1, r4, lsl #14
     e8c:	04030000 	streq	r0, [r3], #-0
     e90:	746e6905 	strbtvc	r6, [lr], #-2309	; 0x905
     e94:	07020200 	streq	r0, [r2, -r0, lsl #4]
     e98:	0000001e 	andeq	r0, r0, lr, lsl r0
     e9c:	98050402 	stmdals	r5, {r1, sl}
     ea0:	02000000 	andeq	r0, r0, #0
     ea4:	00860704 	addeq	r0, r6, r4, lsl #14
     ea8:	01020000 	mrseq	r0, (UNDEF: 2)
     eac:	00001908 	andeq	r1, r0, r8, lsl #18
     eb0:	05080200 	streq	r0, [r8, #-512]	; 0x200
     eb4:	00000093 	muleq	r0, r3, r0
     eb8:	12060102 	andne	r0, r6, #-2147483648	; 0x80000000
     ebc:	02000000 	andeq	r0, r0, #0
     ec0:	00100801 	andseq	r0, r0, r1, lsl #16
     ec4:	02020000 	andeq	r0, r2, #0
     ec8:	0000a105 	andeq	sl, r0, r5, lsl #2
     ecc:	07080200 	streq	r0, [r8, -r0, lsl #4]
     ed0:	0000007c 	andeq	r0, r0, ip, ror r0
     ed4:	32337304 	eorscc	r7, r3, #4, 6	; 0x10000000
     ed8:	33240300 	teqcc	r4, #0, 6
     edc:	04000000 	streq	r0, [r0], #-0
     ee0:	00323375 	eorseq	r3, r2, r5, ror r3
     ee4:	00482503 	subeq	r2, r8, r3, lsl #10
     ee8:	9d050000 	stcls	0, cr0, [r5, #-0]
     eec:	04000006 	streq	r0, [r0], #-6
     ef0:	b501ee04 	strlt	lr, [r1, #-3588]	; 0xe04
     ef4:	06000000 	streq	r0, [r0], -r0
     ef8:	0000057a 	andeq	r0, r0, sl, ror r5
     efc:	04c40600 	strbeq	r0, [r4], #1536	; 0x600
     f00:	06010000 	streq	r0, [r1], -r0
     f04:	0000043f 	andeq	r0, r0, pc, lsr r4
     f08:	05180602 	ldreq	r0, [r8, #-1538]	; 0x602
     f0c:	00030000 	andeq	r0, r3, r0
     f10:	0003e407 	andeq	lr, r3, r7, lsl #8
     f14:	01270100 	teqeq	r7, r0, lsl #2
     f18:	000000e3 	andeq	r0, r0, r3, ror #1
     f1c:	00067608 	andeq	r7, r6, r8, lsl #12
     f20:	84270100 	strthi	r0, [r7], #-256	; 0x100
     f24:	08000000 	stmdaeq	r0, {}	; <UNPREDICTABLE>
     f28:	00000698 	muleq	r0, r8, r6
     f2c:	00842701 	addeq	r2, r4, r1, lsl #14
     f30:	e8090000 	stmda	r9, {}	; <UNPREDICTABLE>
     f34:	01000003 	tsteq	r0, r3
     f38:	00008428 	andeq	r8, r0, r8, lsr #8
     f3c:	000a0000 	andeq	r0, sl, r0
     f40:	01000006 	tsteq	r0, r6
     f44:	0000842e 	andeq	r8, r0, lr, lsr #8
     f48:	00ff0100 	rscseq	r0, pc, r0, lsl #2
     f4c:	04090000 	streq	r0, [r9], #-0
     f50:	01000006 	tsteq	r0, r6
     f54:	00008430 	andeq	r8, r0, r0, lsr r4
     f58:	fc0a0000 	stc2	0, cr0, [sl], {-0}
     f5c:	02000004 	andeq	r0, r0, #4
     f60:	0000791b 	andeq	r7, r0, fp, lsl r9
     f64:	012f0300 	teqeq	pc, r0, lsl #6
     f68:	6e0b0000 	cdpvs	0, 0, cr0, cr11, cr0, {0}
     f6c:	841b0200 	ldrhi	r0, [fp], #-512	; 0x200
     f70:	09000000 	stmdbeq	r0, {}	; <UNPREDICTABLE>
     f74:	00000574 	andeq	r0, r0, r4, ror r5
     f78:	00791d02 	rsbseq	r1, r9, r2, lsl #26
     f7c:	4f090000 	svcmi	0x00090000
     f80:	02000004 	andeq	r0, r0, #4
     f84:	0000841e 	andeq	r8, r0, lr, lsl r4
     f88:	22070000 	andcs	r0, r7, #0
     f8c:	01000004 	tsteq	r0, r4
     f90:	01940140 	orrseq	r0, r4, r0, asr #2
     f94:	76080000 	strvc	r0, [r8], -r0
     f98:	01000006 	tsteq	r0, r6
     f9c:	00008440 	andeq	r8, r0, r0, asr #8
     fa0:	058b0800 	streq	r0, [fp, #2048]	; 0x800
     fa4:	40010000 	andmi	r0, r1, r0
     fa8:	00000084 	andeq	r0, r0, r4, lsl #1
     fac:	00054608 	andeq	r4, r5, r8, lsl #12
     fb0:	84410100 	strbhi	r0, [r1], #-256	; 0x100
     fb4:	08000000 	stmdaeq	r0, {}	; <UNPREDICTABLE>
     fb8:	0000054f 	andeq	r0, r0, pc, asr #10
     fbc:	00844101 	addeq	r4, r4, r1, lsl #2
     fc0:	a4080000 	strge	r0, [r8], #-0
     fc4:	01000005 	tsteq	r0, r5
     fc8:	00008442 	andeq	r8, r0, r2, asr #8
     fcc:	61770c00 	cmnvs	r7, r0, lsl #24
     fd0:	44010079 	strmi	r0, [r1], #-121	; 0x79
     fd4:	00000033 	andeq	r0, r0, r3, lsr r0
     fd8:	7465730c 	strbtvc	r7, [r5], #-780	; 0x30c
     fdc:	33440100 	movtcc	r0, #16640	; 0x4100
     fe0:	09000000 	stmdbeq	r0, {}	; <UNPREDICTABLE>
     fe4:	00000438 	andeq	r0, r0, r8, lsr r4
     fe8:	00334401 	eorseq	r4, r3, r1, lsl #8
     fec:	07000000 	streq	r0, [r0, -r0]
     ff0:	000005c2 	andeq	r0, r0, r2, asr #11
     ff4:	f9015801 			; <UNDEFINED> instruction: 0xf9015801
     ff8:	08000001 	stmdaeq	r0, {r0}
     ffc:	00000676 	andeq	r0, r0, r6, ror r6
    1000:	00845801 	addeq	r5, r4, r1, lsl #16
    1004:	8b080000 	blhi	20100c <_back_addr-0x140eff4>
    1008:	01000005 	tsteq	r0, r5
    100c:	00008458 	andeq	r8, r0, r8, asr r4
    1010:	05460800 	strbeq	r0, [r6, #-2048]	; 0x800
    1014:	59010000 	stmdbpl	r1, {}	; <UNPREDICTABLE>
    1018:	00000084 	andeq	r0, r0, r4, lsl #1
    101c:	00054f08 	andeq	r4, r5, r8, lsl #30
    1020:	84590100 	ldrbhi	r0, [r9], #-256	; 0x100
    1024:	08000000 	stmdaeq	r0, {}	; <UNPREDICTABLE>
    1028:	000005a4 	andeq	r0, r0, r4, lsr #11
    102c:	00845a01 	addeq	r5, r4, r1, lsl #20
    1030:	770c0000 	strvc	r0, [ip, -r0]
    1034:	01007961 	tsteq	r0, r1, ror #18
    1038:	0000335c 	andeq	r3, r0, ip, asr r3
    103c:	65730c00 	ldrbvs	r0, [r3, #-3072]!	; 0xc00
    1040:	5c010074 	stcpl	0, cr0, [r1], {116}	; 0x74
    1044:	00000033 	andeq	r0, r0, r3, lsr r0
    1048:	00043809 	andeq	r3, r4, r9, lsl #16
    104c:	335c0100 	cmpcc	ip, #0, 2
    1050:	00000000 	andeq	r0, r0, r0
    1054:	0004050a 	andeq	r0, r4, sl, lsl #10
    1058:	84370100 	ldrthi	r0, [r7], #-256	; 0x100
    105c:	01000000 	mrseq	r0, (UNDEF: 0)
    1060:	00000215 	andeq	r0, r0, r5, lsl r2
    1064:	00040909 	andeq	r0, r4, r9, lsl #18
    1068:	84390100 	ldrthi	r0, [r9], #-256	; 0x100
    106c:	00000000 	andeq	r0, r0, r0
    1070:	00052507 	andeq	r2, r5, r7, lsl #10
    1074:	01a60100 			; <UNDEFINED> instruction: 0x01a60100
    1078:	0000024e 	andeq	r0, r0, lr, asr #4
    107c:	0005b208 	andeq	fp, r5, r8, lsl #4
    1080:	84a60100 	strthi	r0, [r6], #256	; 0x100
    1084:	08000000 	stmdaeq	r0, {}	; <UNPREDICTABLE>
    1088:	000005e5 	andeq	r0, r0, r5, ror #11
    108c:	0084a701 	addeq	sl, r4, r1, lsl #14
    1090:	a9080000 	stmdbge	r8, {}	; <UNPREDICTABLE>
    1094:	01000005 	tsteq	r0, r5
    1098:	000084a7 	andeq	r8, r0, r7, lsr #9
    109c:	766d0c00 	strbtvc	r0, [sp], -r0, lsl #24
    10a0:	a9010061 	stmdbge	r1, {r0, r5, r6}
    10a4:	00000084 	andeq	r0, r0, r4, lsl #1
    10a8:	06bd0d00 	ldrteq	r0, [sp], r0, lsl #26
    10ac:	fb010000 	blx	410b6 <_back_addr-0x15cef4a>
    10b0:	04d40e01 	ldrbeq	r0, [r4], #3585	; 0xe01
    10b4:	ed010000 	stc	0, cr0, [r1, #-0]
    10b8:	04a70701 	strteq	r0, [r7], #1793	; 0x701
    10bc:	73010000 	movwvc	r0, #4096	; 0x1000
    10c0:	0002c301 	andeq	ip, r2, r1, lsl #6
    10c4:	06760800 	ldrbteq	r0, [r6], -r0, lsl #16
    10c8:	73010000 	movwvc	r0, #4096	; 0x1000
    10cc:	00000084 	andeq	r0, r0, r4, lsl #1
    10d0:	0005b808 	andeq	fp, r5, r8, lsl #16
    10d4:	84730100 	ldrbthi	r0, [r3], #-256	; 0x100
    10d8:	09000000 	stmdbeq	r0, {}	; <UNPREDICTABLE>
    10dc:	00000604 	andeq	r0, r0, r4, lsl #12
    10e0:	00847501 	addeq	r7, r4, r1, lsl #10
    10e4:	8b090000 	blhi	2410ec <_back_addr-0x13cef14>
    10e8:	01000005 	tsteq	r0, r5
    10ec:	00008476 	andeq	r8, r0, r6, ror r4
    10f0:	05460900 	strbeq	r0, [r6, #-2304]	; 0x900
    10f4:	76010000 	strvc	r0, [r1], -r0
    10f8:	00000084 	andeq	r0, r0, r4, lsl #1
    10fc:	0005a409 	andeq	sl, r5, r9, lsl #8
    1100:	84760100 	ldrbthi	r0, [r6], #-256	; 0x100
    1104:	09000000 	stmdbeq	r0, {}	; <UNPREDICTABLE>
    1108:	00000541 	andeq	r0, r0, r1, asr #10
    110c:	00847601 	addeq	r7, r4, r1, lsl #12
    1110:	4f090000 	svcmi	0x00090000
    1114:	01000005 	tsteq	r0, r5
    1118:	00008477 	andeq	r8, r0, r7, ror r4
    111c:	930f0000 	movwls	r0, #61440	; 0xf000
    1120:	01000004 	tsteq	r0, r4
    1124:	61069896 			; <UNDEFINED> instruction: 0x61069896
    1128:	0000e401 	andeq	lr, r0, r1, lsl #8
    112c:	cc9c0100 	ldfgts	f0, [ip], {0}
    1130:	10000004 	andne	r0, r0, r4
    1134:	000005b8 			; <UNDEFINED> instruction: 0x000005b8
    1138:	00849601 	addeq	r9, r4, r1, lsl #12
    113c:	50010000 	andpl	r0, r1, r0
    1140:	00067611 	andeq	r7, r6, r1, lsl r6
    1144:	84980100 	ldrhi	r0, [r8], #256	; 0x100
    1148:	58000000 	stmdapl	r0, {}	; <UNPREDICTABLE>
    114c:	1100000a 	tstne	r0, sl
    1150:	00000692 	muleq	r0, r2, r6
    1154:	00849801 	addeq	r9, r4, r1, lsl #16
    1158:	0a770000 	beq	1dc1160 <__bss_end__+0x79e5a0>
    115c:	94110000 	ldrls	r0, [r1], #-0
    1160:	01000005 	tsteq	r0, r5
    1164:	00008498 	muleq	r0, r8, r4
    1168:	000b0300 	andeq	r0, fp, r0, lsl #6
    116c:	04091200 	streq	r1, [r9], #-512	; 0x200
    1170:	9a010000 	bls	41178 <_back_addr-0x15cee88>
    1174:	00000084 	andeq	r0, r0, r4, lsl #1
    1178:	f9135701 			; <UNDEFINED> instruction: 0xf9135701
    117c:	9c000001 	stcls	0, cr0, [r0], {1}
    1180:	04016106 	streq	r6, [r1], #-262	; 0x106
    1184:	01000000 	mrseq	r0, (UNDEF: 0)
    1188:	0003449a 	muleq	r3, sl, r4
    118c:	069c1400 	ldreq	r1, [ip], r0, lsl #8
    1190:	00040161 	andeq	r0, r4, r1, ror #2
    1194:	09150000 	ldmdbeq	r5, {}	; <UNPREDICTABLE>
    1198:	01000002 	tsteq	r0, r2
    119c:	16000057 			; <UNDEFINED> instruction: 0x16000057
    11a0:	0000025e 	andeq	r0, r0, lr, asr r2
    11a4:	016106d0 	ldrdeq	r0, [r1, #-96]!	; 0xffffffa0
    11a8:	00000018 	andeq	r0, r0, r8, lsl r0
    11ac:	7517a101 	ldrvc	sl, [r7, #-257]	; 0x101
    11b0:	18000002 	stmdane	r0, {r1}
    11b4:	0000026a 	andeq	r0, r0, sl, ror #4
    11b8:	00000b22 	andeq	r0, r0, r2, lsr #22
    11bc:	00001819 	andeq	r1, r0, r9, lsl r8
    11c0:	02801a00 	addeq	r1, r0, #0, 20
    11c4:	8b1b0000 	blhi	6c11cc <_back_addr-0xf4ee34>
    11c8:	4d000002 	stcmi	0, cr0, [r0, #-8]
    11cc:	1b00000b 	blne	1200 <_back_addr-0x160ee00>
    11d0:	00000296 	muleq	r0, r6, r2
    11d4:	00000b6f 	andeq	r0, r0, pc, ror #22
    11d8:	0002a11b 	andeq	sl, r2, fp, lsl r1
    11dc:	000b8c00 	andeq	r8, fp, r0, lsl #24
    11e0:	02ac1b00 	adceq	r1, ip, #0, 22
    11e4:	0bbb0000 	bleq	feec11ec <__bss_end__+0xfd89e62c>
    11e8:	b71b0000 	ldrlt	r0, [fp, -r0]
    11ec:	ce000002 	cdpgt	0, 0, cr0, cr0, cr2, {0}
    11f0:	1300000b 	movwne	r0, #11
    11f4:	000000b5 	strheq	r0, [r0], -r5
    11f8:	016106d0 	ldrdeq	r0, [r1, #-96]!	; 0xffffffa0
    11fc:	00000008 	andeq	r0, r0, r8
    1200:	03d17901 	bicseq	r7, r1, #16384	; 0x4000
    1204:	cc180000 	ldcgt	0, cr0, [r8], {-0}
    1208:	ec000000 	stc	0, cr0, [r0], {-0}
    120c:	1800000b 	stmdane	r0, {r0, r1, r3}
    1210:	000000c1 	andeq	r0, r0, r1, asr #1
    1214:	00000b22 	andeq	r0, r0, r2, lsr #22
    1218:	6106d014 	tstvs	r6, r4, lsl r0
    121c:	00000801 	andeq	r0, r0, r1, lsl #16
    1220:	00d71b00 	sbcseq	r1, r7, r0, lsl #22
    1224:	0c0c0000 	stceq	0, cr0, [ip], {-0}
    1228:	00000000 	andeq	r0, r0, r0
    122c:	0000e313 	andeq	lr, r0, r3, lsl r3
    1230:	6106d800 	tstvs	r6, r0, lsl #16
    1234:	00000401 	andeq	r0, r0, r1, lsl #8
    1238:	f87b0100 			; <UNDEFINED> instruction: 0xf87b0100
    123c:	14000003 	strne	r0, [r0], #-3
    1240:	016106d8 	ldrdeq	r0, [r1, #-104]!	; 0xffffff98
    1244:	00000004 	andeq	r0, r0, r4
    1248:	0000f31b 	andeq	pc, r0, fp, lsl r3	; <UNPREDICTABLE>
    124c:	000c2a00 	andeq	r2, ip, r0, lsl #20
    1250:	1c000000 	stcne	0, cr0, [r0], {-0}
    1254:	000000ff 	strdeq	r0, [r0], -pc	; <UNPREDICTABLE>
    1258:	016106ec 	smultteq	r1, ip, r6
    125c:	00000030 	andeq	r0, r0, r0, lsr r0
    1260:	04298a01 	strteq	r8, [r9], #-2561	; 0xa01
    1264:	0f170000 	svceq	0x00170000
    1268:	19000001 	stmdbne	r0, {r0}
    126c:	00000030 	andeq	r0, r0, r0, lsr r0
    1270:	0001181b 	andeq	r1, r1, fp, lsl r8
    1274:	000c3d00 	andeq	r3, ip, r0, lsl #26
    1278:	01231b00 	teqeq	r3, r0, lsl #22
    127c:	0c5d0000 	mraeq	r0, sp, acc0
    1280:	00000000 	andeq	r0, r0, r0
    1284:	00019413 	andeq	r9, r1, r3, lsl r4
    1288:	61072400 	tstvs	r7, r0, lsl #8
    128c:	00002001 	andeq	r2, r0, r1
    1290:	7b910100 	blvc	fe441698 <__bss_end__+0xfce1ead8>
    1294:	17000004 	strne	r0, [r0, -r4]
    1298:	000001cc 	andeq	r0, r0, ip, asr #3
    129c:	0001c117 	andeq	ip, r1, r7, lsl r1
    12a0:	01b61700 			; <UNDEFINED> instruction: 0x01b61700
    12a4:	ab170000 	blge	5c12ac <_back_addr-0x104ed54>
    12a8:	17000001 	strne	r0, [r0, -r1]
    12ac:	000001a0 	andeq	r0, r0, r0, lsr #3
    12b0:	61072414 	tstvs	r7, r4, lsl r4
    12b4:	00002001 	andeq	r2, r0, r1
    12b8:	01d71b00 	bicseq	r1, r7, r0, lsl #22
    12bc:	0c700000 	ldcleq	0, cr0, [r0], #-0
    12c0:	e21b0000 	ands	r0, fp, #0
    12c4:	90000001 	andls	r0, r0, r1
    12c8:	1b00000c 	blne	1300 <_back_addr-0x160ed00>
    12cc:	000001ed 	andeq	r0, r0, sp, ror #3
    12d0:	00000cb0 			; <UNDEFINED> instruction: 0x00000cb0
    12d4:	2f1d0000 	svccs	0x001d0000
    12d8:	58000001 	stmdapl	r0, {r0}
    12dc:	24016107 	strcs	r6, [r1], #-263	; 0x107
    12e0:	01000000 	mrseq	r0, (UNDEF: 0)
    12e4:	0167178e 	cmneq	r7, lr, lsl #15
    12e8:	5c170000 	ldcpl	0, cr0, [r7], {-0}
    12ec:	17000001 	strne	r0, [r0, -r1]
    12f0:	00000151 	andeq	r0, r0, r1, asr r1
    12f4:	00014617 	andeq	r4, r1, r7, lsl r6
    12f8:	013b1700 	teqeq	fp, r0, lsl #14
    12fc:	58140000 	ldmdapl	r4, {}	; <UNPREDICTABLE>
    1300:	24016107 	strcs	r6, [r1], #-263	; 0x107
    1304:	1b000000 	blne	130c <_back_addr-0x160ecf4>
    1308:	00000172 	andeq	r0, r0, r2, ror r1
    130c:	00000cd6 	ldrdeq	r0, [r0], -r6
    1310:	00017d1b 	andeq	r7, r1, fp, lsl sp
    1314:	000d0100 	andeq	r0, sp, r0, lsl #2
    1318:	01881b00 	orreq	r1, r8, r0, lsl #22
    131c:	0d2e0000 	stceq	0, cr0, [lr, #-0]
    1320:	00000000 	andeq	r0, r0, r0
    1324:	1e000000 	cdpne	0, 0, cr0, cr0, cr0, {0}
    1328:	000003ef 	andeq	r0, r0, pc, ror #7
    132c:	7c015001 	stcvc	0, cr5, [r1], {1}
    1330:	18016107 	stmdane	r1, {r0, r1, r2, r8, sp, lr}
    1334:	01000000 	mrseq	r0, (UNDEF: 0)
    1338:	06451e9c 			; <UNDEFINED> instruction: 0x06451e9c
    133c:	6a010000 	bvs	41344 <_back_addr-0x15cecbc>
    1340:	61079401 	tstvs	r7, r1, lsl #8
    1344:	00000401 	andeq	r0, r0, r1, lsl #8
    1348:	1e9c0100 	fmlnee	f0, f4, f0
    134c:	0000065d 	andeq	r0, r0, sp, asr r6
    1350:	98017001 	stmdals	r1, {r0, ip, sp, lr}
    1354:	04016107 	streq	r6, [r1], #-263	; 0x107
    1358:	01000000 	mrseq	r0, (UNDEF: 0)
    135c:	05591e9c 	ldrbeq	r1, [r9, #-3740]	; 0xe9c
    1360:	76010000 	strvc	r0, [r1], -r0
    1364:	61079c01 	tstvs	r7, r1, lsl #24
    1368:	00000401 	andeq	r0, r0, r1, lsl #8
    136c:	1f9c0100 	svcne	0x009c0100
    1370:	000006ac 	andeq	r0, r0, ip, lsr #13
    1374:	a0010601 	andge	r0, r1, r1, lsl #12
    1378:	14016107 	strne	r6, [r1], #-263	; 0x107
    137c:	01000000 	mrseq	r0, (UNDEF: 0)
    1380:	0005439c 	muleq	r5, ip, r3
    1384:	07ac2000 	streq	r2, [ip, r0]!
    1388:	02c30161 	sbceq	r0, r3, #1073741848	; 0x40000018
    138c:	053d0000 	ldreq	r0, [sp, #-0]!
    1390:	01210000 	teqeq	r1, r0
    1394:	00320150 	eorseq	r0, r2, r0, asr r1
    1398:	6107b422 	tstvs	r7, r2, lsr #8
    139c:	e11e0001 	tst	lr, r1
    13a0:	01000004 	tsteq	r0, r4
    13a4:	07b4017c 			; <UNDEFINED> instruction: 0x07b4017c
    13a8:	00040161 	andeq	r0, r4, r1, ror #2
    13ac:	9c010000 	stcls	0, cr0, [r1], {-0}
    13b0:	00024e23 	andeq	r4, r2, r3, lsr #28
    13b4:	6107b800 	tstvs	r7, r0, lsl #16
    13b8:	00001401 	andeq	r1, r0, r1, lsl #8
    13bc:	819c0100 	orrshi	r0, ip, r0, lsl #2
    13c0:	20000005 	andcs	r0, r0, r5
    13c4:	016107c4 	smulbteq	r1, r4, r7
    13c8:	000002c3 	andeq	r0, r0, r3, asr #5
    13cc:	0000057b 	andeq	r0, r0, fp, ror r5
    13d0:	01500121 	cmpeq	r0, r1, lsr #2
    13d4:	cc220031 	stcgt	0, cr0, [r2], #-196	; 0xffffff3c
    13d8:	00016107 	andeq	r6, r1, r7, lsl #2
    13dc:	0006281f 	andeq	r2, r6, pc, lsl r8
    13e0:	01250100 	teqeq	r5, r0, lsl #2
    13e4:	016107cc 	smulbteq	r1, ip, r7
    13e8:	00000030 	andeq	r0, r0, r0, lsr r0
    13ec:	05da9c01 	ldrbeq	r9, [sl, #3073]	; 0xc01
    13f0:	4e240000 	cdpmi	0, 2, cr0, cr4, cr0, {0}
    13f4:	d4000002 	strle	r0, [r0], #-2
    13f8:	0c016107 	stfeqs	f6, [r1], {7}
    13fc:	01000000 	mrseq	r0, (UNDEF: 0)
    1400:	05c40128 	strbeq	r0, [r4, #296]	; 0x128
    1404:	dc200000 	stcle	0, cr0, [r0], #-0
    1408:	c3016107 	movwgt	r6, #4359	; 0x1107
    140c:	be000002 	cdplt	0, 0, cr0, cr0, cr2, {0}
    1410:	21000005 	tstcs	r0, r5
    1414:	31015001 	tstcc	r1, r1
    1418:	07e02500 	strbeq	r2, [r0, r0, lsl #10]!
    141c:	26000161 	strcs	r0, [r0], -r1, ror #2
    1420:	00000256 	andeq	r0, r0, r6, asr r2
    1424:	016107e0 	smultteq	r1, r0, r7
    1428:	0000001c 	andeq	r0, r0, ip, lsl r0
    142c:	25012901 	strcs	r2, [r1, #-2305]	; 0x901
    1430:	016107d4 	ldrdeq	r0, [r1, #-116]!	; 0xffffff8c
    1434:	04761f00 	ldrbteq	r1, [r6], #-3840	; 0xf00
    1438:	82010000 	andhi	r0, r1, #0
    143c:	6107fc01 	tstvs	r7, r1, lsl #24
    1440:	00000401 	andeq	r0, r0, r1, lsl #8
    1444:	0d9c0100 	ldfeqs	f0, [ip]
    1448:	27000006 	strcs	r0, [r0, -r6]
    144c:	000005b2 			; <UNDEFINED> instruction: 0x000005b2
    1450:	84018201 	strhi	r8, [r1], #-513	; 0x201
    1454:	01000000 	mrseq	r0, (UNDEF: 0)
    1458:	6e652850 	mcrvs	8, 3, r2, cr5, cr0, {2}
    145c:	82010064 	andhi	r0, r1, #100	; 0x64
    1460:	00008401 	andeq	r8, r0, r1, lsl #8
    1464:	00510100 	subseq	r0, r1, r0, lsl #2
    1468:	00067c07 	andeq	r7, r6, r7, lsl #24
    146c:	01d30100 	bicseq	r0, r3, r0, lsl #2
    1470:	00000651 	andeq	r0, r0, r1, asr r6
    1474:	0005b208 	andeq	fp, r5, r8, lsl #4
    1478:	84d30100 	ldrbhi	r0, [r3], #256	; 0x100
    147c:	08000000 	stmdaeq	r0, {}	; <UNPREDICTABLE>
    1480:	000005e5 	andeq	r0, r0, r5, ror #11
    1484:	0084d301 	addeq	sp, r4, r1, lsl #6
    1488:	3c080000 	stccc	0, cr0, [r8], {-0}
    148c:	01000006 	tsteq	r0, r6
    1490:	000084d3 	ldrdeq	r8, [r0], -r3
    1494:	05a90900 	streq	r0, [r9, #2304]!	; 0x900
    1498:	d5010000 	strle	r0, [r1, #-0]
    149c:	00000084 	andeq	r0, r0, r4, lsl #1
    14a0:	00060409 	andeq	r0, r6, r9, lsl #8
    14a4:	84d50100 	ldrbhi	r0, [r5], #256	; 0x100
    14a8:	00000000 	andeq	r0, r0, r0
    14ac:	00040f1f 	andeq	r0, r4, pc, lsl pc
    14b0:	011e0100 	tsteq	lr, r0, lsl #2
    14b4:	01610800 	cmneq	r1, r0, lsl #16
    14b8:	0000003c 	andeq	r0, r0, ip, lsr r0
    14bc:	07379c01 	ldreq	r9, [r7, -r1, lsl #24]!
    14c0:	b2290000 	eorlt	r0, r9, #0
    14c4:	01000005 	tsteq	r0, r5
    14c8:	002c011e 	eoreq	r0, ip, lr, lsl r1
    14cc:	0d5f0000 	ldcleq	0, cr0, [pc, #-0]	; 14d4 <_back_addr-0x160eb2c>
    14d0:	e5290000 	str	r0, [r9, #-0]!
    14d4:	01000005 	tsteq	r0, r5
    14d8:	002c011e 	eoreq	r0, ip, lr, lsl r1
    14dc:	0d800000 	stceq	0, cr0, [r0]
    14e0:	0d240000 	stceq	0, cr0, [r4, #-0]
    14e4:	00000006 	andeq	r0, r0, r6
    14e8:	38016108 	stmdacc	r1, {r3, r8, sp, lr}
    14ec:	01000000 	mrseq	r0, (UNDEF: 0)
    14f0:	07310120 	ldreq	r0, [r1, -r0, lsr #2]!
    14f4:	2f2a0000 	svccs	0x002a0000
    14f8:	04000006 	streq	r0, [r0], #-6
    14fc:	00062418 	andeq	r2, r6, r8, lsl r4
    1500:	000d8000 	andeq	r8, sp, r0
    1504:	06191800 	ldreq	r1, [r9], -r0, lsl #16
    1508:	0d5f0000 	ldcleq	0, cr0, [pc, #-0]	; 1510 <_back_addr-0x160eaf0>
    150c:	00140000 	andseq	r0, r4, r0
    1510:	38016108 	stmdacc	r1, {r3, r8, sp, lr}
    1514:	1b000000 	blne	151c <_back_addr-0x160eae4>
    1518:	0000063a 	andeq	r0, r0, sl, lsr r6
    151c:	00000da1 	andeq	r0, r0, r1, lsr #27
    1520:	0006451a 	andeq	r4, r6, sl, lsl r5
    1524:	00e31300 	rsceq	r1, r3, r0, lsl #6
    1528:	08000000 	stmdaeq	r0, {}	; <UNPREDICTABLE>
    152c:	00040161 	andeq	r0, r4, r1, ror #2
    1530:	d7010000 	strle	r0, [r1, -r0]
    1534:	000006f1 	strdeq	r0, [r0], -r1
    1538:	61080014 	tstvs	r8, r4, lsl r0
    153c:	00000401 	andeq	r0, r0, r1, lsl #8
    1540:	00f31b00 	rscseq	r1, r3, r0, lsl #22
    1544:	0dc50000 	stcleq	0, cr0, [r5]
    1548:	00000000 	andeq	r0, r0, r0
    154c:	0002151d 	andeq	r1, r2, sp, lsl r5
    1550:	61081400 	tstvs	r8, r0, lsl #8
    1554:	00002001 	andeq	r2, r0, r1
    1558:	18e10100 	stmiane	r1!, {r8}^
    155c:	00000237 	andeq	r0, r0, r7, lsr r2
    1560:	00000dd8 	ldrdeq	r0, [r0], -r8
    1564:	00022c18 	andeq	r2, r2, r8, lsl ip
    1568:	000deb00 	andeq	lr, sp, r0, lsl #22
    156c:	02211800 	eoreq	r1, r1, #0, 16
    1570:	0e0c0000 	cdpeq	0, 0, cr0, cr12, cr0, {0}
    1574:	14140000 	ldrne	r0, [r4], #-0
    1578:	20016108 	andcs	r6, r1, r8, lsl #2
    157c:	1b000000 	blne	1584 <_back_addr-0x160ea7c>
    1580:	00000242 	andeq	r0, r0, r2, asr #4
    1584:	00000e3b 	andeq	r0, r0, fp, lsr lr
    1588:	00000000 	andeq	r0, r0, r0
    158c:	61083c22 	tstvs	r8, r2, lsr #24
    1590:	8f1f0001 	svchi	0x001f0001
    1594:	01000002 	tsteq	r0, r2
    1598:	083c0130 	ldmdaeq	ip!, {r4, r5, r8}
    159c:	00080161 	andeq	r0, r8, r1, ror #2
    15a0:	9c010000 	stcls	0, cr0, [r1], {-0}
    15a4:	0000078a 	andeq	r0, r0, sl, lsl #15
    15a8:	0005b229 	andeq	fp, r5, r9, lsr #4
    15ac:	01300100 	teqeq	r0, r0, lsl #2
    15b0:	0000002c 	andeq	r0, r0, ip, lsr #32
    15b4:	00000e4e 	andeq	r0, r0, lr, asr #28
    15b8:	0006f429 	andeq	pc, r6, r9, lsr #8
    15bc:	01300100 	teqeq	r0, r0, lsl #2
    15c0:	0000002c 	andeq	r0, r0, ip, lsr #32
    15c4:	00000e6f 	andeq	r0, r0, pc, ror #28
    15c8:	6108442b 	tstvs	r8, fp, lsr #8
    15cc:	00065101 	andeq	r5, r6, r1, lsl #2
    15d0:	50012100 	andpl	r2, r1, r0, lsl #2
    15d4:	5001f303 	andpl	pc, r1, r3, lsl #6
    15d8:	07510121 	ldrbeq	r0, [r1, -r1, lsr #2]
    15dc:	f35001f3 	vbsl	q8, q8, <illegal reg q9.5>
    15e0:	00225101 	eoreq	r5, r2, r1, lsl #2
    15e4:	060b1f00 	streq	r1, [fp], -r0, lsl #30
    15e8:	88010000 	stmdahi	r1, {}	; <UNPREDICTABLE>
    15ec:	61084401 	tstvs	r8, r1, lsl #8
    15f0:	00000401 	andeq	r0, r0, r1, lsl #8
    15f4:	bd9c0100 	ldflts	f0, [ip]
    15f8:	27000007 	strcs	r0, [r0, -r7]
    15fc:	000005b2 			; <UNDEFINED> instruction: 0x000005b2
    1600:	84018801 	strhi	r8, [r1], #-2049	; 0x801
    1604:	01000000 	mrseq	r0, (UNDEF: 0)
    1608:	6e652850 	mcrvs	8, 3, r2, cr5, cr0, {2}
    160c:	88010064 	stmdahi	r1, {r2, r5, r6}
    1610:	00008401 	andeq	r8, r0, r1, lsl #8
    1614:	00510100 	subseq	r0, r1, r0, lsl #2
    1618:	0005ea07 	andeq	lr, r5, r7, lsl #20
    161c:	01b30100 			; <UNDEFINED> instruction: 0x01b30100
    1620:	000007f6 	strdeq	r0, [r0], -r6
    1624:	0005b208 	andeq	fp, r5, r8, lsl #4
    1628:	84b30100 	ldrthi	r0, [r3], #256	; 0x100
    162c:	08000000 	stmdaeq	r0, {}	; <UNPREDICTABLE>
    1630:	000005e5 	andeq	r0, r0, r5, ror #11
    1634:	0084b301 	addeq	fp, r4, r1, lsl #6
    1638:	a9080000 	stmdbge	r8, {}	; <UNPREDICTABLE>
    163c:	01000005 	tsteq	r0, r5
    1640:	000084b3 			; <UNDEFINED> instruction: 0x000084b3
    1644:	766d0c00 	strbtvc	r0, [sp], -r0, lsl #24
    1648:	b5010061 	strlt	r0, [r1, #-97]	; 0x61
    164c:	00000084 	andeq	r0, r0, r4, lsl #1
    1650:	045e1f00 	ldrbeq	r1, [lr], #-3840	; 0xf00
    1654:	11010000 	mrsne	r0, (UNDEF: 1)
    1658:	61084801 	tstvs	r8, r1, lsl #16
    165c:	00006801 	andeq	r6, r0, r1, lsl #16
    1660:	dc9c0100 	ldfles	f0, [ip], {0}
    1664:	29000008 	stmdbcs	r0, {r3}
    1668:	000005b2 			; <UNDEFINED> instruction: 0x000005b2
    166c:	2c011101 	stfcss	f1, [r1], {1}
    1670:	90000000 	andls	r0, r0, r0
    1674:	2900000e 	stmdbcs	r0, {r1, r2, r3}
    1678:	000005e5 	andeq	r0, r0, r5, ror #11
    167c:	2c011101 	stfcss	f1, [r1], {1}
    1680:	b1000000 	mrslt	r0, (UNDEF: 0)
    1684:	2400000e 	strcs	r0, [r0], #-14
    1688:	0000060d 	andeq	r0, r0, sp, lsl #12
    168c:	0161084c 	cmneq	r1, ip, asr #16
    1690:	0000005c 	andeq	r0, r0, ip, asr r0
    1694:	d6011401 	strle	r1, [r1], -r1, lsl #8
    1698:	2a000008 	bcs	16c0 <_back_addr-0x160e940>
    169c:	0000062f 	andeq	r0, r0, pc, lsr #12
    16a0:	06241803 	strteq	r1, [r4], -r3, lsl #16
    16a4:	0eb10000 	cdpeq	0, 11, cr0, cr1, cr0, {0}
    16a8:	19180000 	ldmdbne	r8, {}	; <UNPREDICTABLE>
    16ac:	90000006 	andls	r0, r0, r6
    16b0:	1400000e 	strne	r0, [r0], #-14
    16b4:	0161084c 	cmneq	r1, ip, asr #16
    16b8:	0000005c 	andeq	r0, r0, ip, asr r0
    16bc:	00063a1b 	andeq	r3, r6, fp, lsl sl
    16c0:	000ed200 	andeq	sp, lr, r0, lsl #4
    16c4:	06451a00 	strbeq	r1, [r5], -r0, lsl #20
    16c8:	e3130000 	tst	r3, #0
    16cc:	4c000000 	stcmi	0, cr0, [r0], {-0}
    16d0:	04016108 	streq	r6, [r1], #-264	; 0x108
    16d4:	01000000 	mrseq	r0, (UNDEF: 0)
    16d8:	000896d7 	ldrdeq	r9, [r8], -r7
    16dc:	084c1400 	stmdaeq	ip, {sl, ip}^
    16e0:	00040161 	andeq	r0, r4, r1, ror #2
    16e4:	f31b0000 	vhadd.u16	d0, d11, d0
    16e8:	f6000000 			; <UNDEFINED> instruction: 0xf6000000
    16ec:	0000000e 	andeq	r0, r0, lr
    16f0:	07bd1d00 	ldreq	r1, [sp, r0, lsl #26]!
    16f4:	08600000 	stmdaeq	r0!, {}^	; <UNPREDICTABLE>
    16f8:	00440161 	subeq	r0, r4, r1, ror #2
    16fc:	e4010000 	str	r0, [r1], #-0
    1700:	0007df18 	andeq	sp, r7, r8, lsl pc
    1704:	000f0900 	andeq	r0, pc, r0, lsl #18
    1708:	07d41800 	ldrbeq	r1, [r4, r0, lsl #16]
    170c:	0f1c0000 	svceq	0x001c0000
    1710:	c9180000 	ldmdbgt	r8, {}	; <UNPREDICTABLE>
    1714:	3a000007 	bcc	1738 <_back_addr-0x160e8c8>
    1718:	1400000f 	strne	r0, [r0], #-15
    171c:	01610860 	cmneq	r1, r0, ror #16
    1720:	00000044 	andeq	r0, r0, r4, asr #32
    1724:	0007ea1b 	andeq	lr, r7, fp, lsl sl
    1728:	000f5800 	andeq	r5, pc, r0, lsl #16
    172c:	00000000 	andeq	r0, r0, r0
    1730:	08b02200 	ldmeq	r0!, {r9, sp}
    1734:	2c000161 	stfcss	f0, [r0], {97}	; 0x61
    1738:	00000454 	andeq	r0, r0, r4, asr r4
    173c:	8f01f604 	svchi	0x0001f604
    1740:	00000000 	andeq	r0, r0, r0
    1744:	00001433 	andeq	r1, r0, r3, lsr r4
    1748:	07b50004 	ldreq	r0, [r5, r4]!
    174c:	01040000 	mrseq	r0, (UNDEF: 4)
    1750:	000000ab 	andeq	r0, r0, fp, lsr #1
    1754:	0006e801 	andeq	lr, r6, r1, lsl #16
    1758:	00037700 	andeq	r7, r3, r0, lsl #14
    175c:	6108b000 	mrsvs	fp, (UNDEF: 8)
    1760:	000c0401 	andeq	r0, ip, r1, lsl #8
    1764:	00056700 	andeq	r6, r5, r0, lsl #14
    1768:	07040200 	streq	r0, [r4, -r0, lsl #4]
    176c:	00000207 	andeq	r0, r0, r7, lsl #4
    1770:	81070402 	tsthi	r7, r2, lsl #8
    1774:	03000000 	movweq	r0, #0
    1778:	6e690504 	cdpvs	5, 6, cr0, cr9, cr4, {0}
    177c:	02020074 	andeq	r0, r2, #116	; 0x74
    1780:	00001e07 	andeq	r1, r0, r7, lsl #28
    1784:	05040200 	streq	r0, [r4, #-512]	; 0x200
    1788:	00000098 	muleq	r0, r8, r0
    178c:	00087b04 	andeq	r7, r8, r4, lsl #22
    1790:	531f0300 	tstpl	pc, #0, 6
    1794:	02000000 	andeq	r0, r0, #0
    1798:	00860704 	addeq	r0, r6, r4, lsl #14
    179c:	01020000 	mrseq	r0, (UNDEF: 2)
    17a0:	00001908 	andeq	r1, r0, r8, lsl #18
    17a4:	05080200 	streq	r0, [r8, #-512]	; 0x200
    17a8:	00000093 	muleq	r0, r3, r0
    17ac:	12060102 	andne	r0, r6, #-2147483648	; 0x80000000
    17b0:	02000000 	andeq	r0, r0, #0
    17b4:	00100801 	andseq	r0, r0, r1, lsl #16
    17b8:	02020000 	andeq	r0, r2, #0
    17bc:	0000a105 	andeq	sl, r0, r5, lsl #2
    17c0:	07080200 	streq	r0, [r8, -r0, lsl #4]
    17c4:	0000007c 	andeq	r0, r0, ip, ror r0
    17c8:	00081304 	andeq	r1, r8, r4, lsl #6
    17cc:	535c0400 	cmppl	ip, #0, 8
    17d0:	05000000 	streq	r0, [r0, #-0]
    17d4:	97040604 	strls	r0, [r4, -r4, lsl #12]
    17d8:	07000000 	streq	r0, [r0, -r0]
    17dc:	0000005a 	andeq	r0, r0, sl, asr r0
    17e0:	00005a08 	andeq	r5, r0, r8, lsl #20
    17e4:	0000ac00 	andeq	sl, r0, r0, lsl #24
    17e8:	00250900 	eoreq	r0, r5, r0, lsl #18
    17ec:	000f0000 	andeq	r0, pc, r0
    17f0:	00069d0a 	andeq	r9, r6, sl, lsl #26
    17f4:	ee060400 	cfcpys	mvf0, mvf6
    17f8:	0000d201 	andeq	sp, r0, r1, lsl #4
    17fc:	057a0b00 	ldrbeq	r0, [sl, #-2816]!	; 0xb00
    1800:	0b000000 	bleq	1808 <_back_addr-0x160e7f8>
    1804:	000004c4 	andeq	r0, r0, r4, asr #9
    1808:	043f0b01 	ldrteq	r0, [pc], #-2817	; 1810 <_back_addr-0x160e7f0>
    180c:	0b020000 	bleq	81814 <_back_addr-0x158e7ec>
    1810:	00000518 	andeq	r0, r0, r8, lsl r5
    1814:	d90c0003 	stmdble	ip, {r0, r1}
    1818:	38000006 	stmdacc	r0, {r1, r2}
    181c:	01275005 	teqeq	r7, r5
    1820:	1a0d0000 	bne	341828 <_back_addr-0x12ce7d8>
    1824:	05000007 	streq	r0, [r0, #-7]
    1828:	00005352 	andeq	r5, r0, r2, asr r3
    182c:	6b0e0000 	blvs	381834 <_back_addr-0x128e7cc>
    1830:	05007965 	streq	r7, [r0, #-2405]	; 0x965
    1834:	00012753 	andeq	r2, r1, r3, asr r7
    1838:	5b0d0400 	blpl	342840 <_back_addr-0x12cd7c0>
    183c:	05000007 	streq	r0, [r0, #-7]
    1840:	00013754 	andeq	r3, r1, r4, asr r7
    1844:	8c0d1c00 	stchi	12, cr1, [sp], {-0}
    1848:	05000007 	streq	r0, [r0, #-7]
    184c:	00005355 	andeq	r5, r0, r5, asr r3
    1850:	1f0d2c00 	svcne	0x000d2c00
    1854:	05000007 	streq	r0, [r0, #-7]
    1858:	00005356 	andeq	r5, r0, r6, asr r3
    185c:	cf0d3000 	svcgt	0x000d3000
    1860:	05000007 	streq	r0, [r0, #-7]
    1864:	00005357 	andeq	r5, r0, r7, asr r3
    1868:	08003400 	stmdaeq	r0, {sl, ip, sp}
    186c:	00000053 	andeq	r0, r0, r3, asr r0
    1870:	00000137 	andeq	r0, r0, r7, lsr r1
    1874:	00002509 	andeq	r2, r0, r9, lsl #10
    1878:	08000500 	stmdaeq	r0, {r8, sl}
    187c:	00000053 	andeq	r0, r0, r3, asr r0
    1880:	00000147 	andeq	r0, r0, r7, asr #2
    1884:	00002509 	andeq	r2, r0, r9, lsl #10
    1888:	04000300 	streq	r0, [r0], #-768	; 0x300
    188c:	0000074a 	andeq	r0, r0, sl, asr #14
    1890:	00d25805 	sbcseq	r5, r2, r5, lsl #16
    1894:	730f0000 	movwvc	r0, #61440	; 0xf000
    1898:	02000008 	andeq	r0, r0, #8
    189c:	00005344 	andeq	r5, r0, r4, asr #6
    18a0:	016e0300 	cmneq	lr, r0, lsl #6
    18a4:	fe100000 	cdp2	0, 1, cr0, cr0, cr0, {0}
    18a8:	02000007 	andeq	r0, r0, #7
    18ac:	00005344 	andeq	r5, r0, r4, asr #6
    18b0:	f9110000 			; <UNDEFINED> instruction: 0xf9110000
    18b4:	02000006 	andeq	r0, r0, #6
    18b8:	0191035f 	orrseq	r0, r1, pc, asr r3
    18bc:	fe100000 	cdp2	0, 1, cr0, cr0, cr0, {0}
    18c0:	02000007 	andeq	r0, r0, #7
    18c4:	0000535f 	andeq	r5, r0, pc, asr r3
    18c8:	61761200 	cmnvs	r6, r0, lsl #4
    18cc:	5f02006c 	svcpl	0x0002006c
    18d0:	00000053 	andeq	r0, r0, r3, asr r0
    18d4:	07ad1300 	streq	r1, [sp, r0, lsl #6]!
    18d8:	08010000 	stmdaeq	r1, {}	; <UNPREDICTABLE>
    18dc:	00003302 	andeq	r3, r0, r2, lsl #6
    18e0:	01d50100 	bicseq	r0, r5, r0, lsl #2
    18e4:	5c140000 	ldcpl	0, cr0, [r4], {-0}
    18e8:	01000008 	tsteq	r0, r8
    18ec:	01d50208 	bicseq	r0, r5, r8, lsl #4
    18f0:	72150000 	andsvc	r0, r5, #0
    18f4:	01007365 	tsteq	r0, r5, ror #6
    18f8:	0033020d 	eorseq	r0, r3, sp, lsl #4
    18fc:	69160000 	ldmdbvs	r6, {}	; <UNPREDICTABLE>
    1900:	0100000a 	tsteq	r0, sl
    1904:	0033020e 	eorseq	r0, r3, lr, lsl #4
    1908:	ad170000 	ldcge	0, cr0, [r7, #-0]
    190c:	01000003 	tsteq	r0, r3
    1910:	0033015a 	eorseq	r0, r3, sl, asr r1
    1914:	00180000 	andseq	r0, r8, r0
    1918:	47040600 	strmi	r0, [r4, -r0, lsl #12]
    191c:	19000001 	stmdbne	r0, {r0}
    1920:	000002af 	andeq	r0, r0, pc, lsr #5
    1924:	00334701 	eorseq	r4, r3, r1, lsl #14
    1928:	02010000 	andeq	r0, r1, #0
    192c:	10000002 	andne	r0, r0, r2
    1930:	00000714 	andeq	r0, r0, r4, lsl r7
    1934:	00534701 	subseq	r4, r3, r1, lsl #14
    1938:	6c1a0000 	ldcvs	0, cr0, [sl], {-0}
    193c:	01000008 	tsteq	r0, r8
    1940:	00005349 	andeq	r5, r0, r9, asr #6
    1944:	d31b0000 	tstle	fp, #0
    1948:	01000006 	tsteq	r0, r6
    194c:	01d502a6 	bicseq	r0, r5, r6, lsr #5
    1950:	08b00000 	ldmeq	r0!, {}	; <UNPREDICTABLE>
    1954:	00700161 	rsbseq	r0, r0, r1, ror #2
    1958:	9c010000 	stcls	0, cr0, [r1], {-0}
    195c:	00000267 	andeq	r0, r0, r7, ror #4
    1960:	0009581c 	andeq	r5, r9, ip, lsl r8
    1964:	02a90100 	adceq	r0, r9, #0, 2
    1968:	000001d5 	ldrdeq	r0, [r0], -r5
    196c:	f81d5501 			; <UNDEFINED> instruction: 0xf81d5501
    1970:	81016108 	tsthi	r1, r8, lsl #2
    1974:	4b000013 	blmi	19c8 <_back_addr-0x160e638>
    1978:	1e000002 	cdpne	0, 0, cr0, cr0, cr2, {0}
    197c:	44035001 	strmi	r5, [r3], #-1
    1980:	011e2444 	tsteq	lr, r4, asr #8
    1984:	1e300151 	mrcne	1, 1, r0, cr0, cr1, {2}
    1988:	0a035201 	beq	d6194 <_back_addr-0x1539e6c>
    198c:	1f000800 	svcne	0x00000800
    1990:	0161090c 	cmneq	r1, ip, lsl #18
    1994:	00001381 	andeq	r1, r0, r1, lsl #7
    1998:	0250011e 	subseq	r0, r0, #-2147483641	; 0x80000007
    199c:	011e0075 	tsteq	lr, r5, ror r0
    19a0:	1e300151 	mrcne	1, 1, r0, cr0, cr1, {2}
    19a4:	08025201 	stmdaeq	r2, {r0, r9, ip, lr}
    19a8:	1b000038 	blne	1a90 <_back_addr-0x160e570>
    19ac:	00000893 	muleq	r0, r3, r8
    19b0:	3302d601 	movwcc	sp, #9729	; 0x2601
    19b4:	20000000 	andcs	r0, r0, r0
    19b8:	34016109 	strcc	r6, [r1], #-265	; 0x109
    19bc:	01000000 	mrseq	r0, (UNDEF: 0)
    19c0:	0002f69c 	muleq	r2, ip, r6
    19c4:	00692000 	rsbeq	r2, r9, r0
    19c8:	5302d801 	movwpl	sp, #10241	; 0x2801
    19cc:	6b000000 	blvs	19d4 <_back_addr-0x160e62c>
    19d0:	2100000f 	tstcs	r0, pc
    19d4:	0000016e 	andeq	r0, r0, lr, ror #2
    19d8:	01610920 	cmneq	r1, r0, lsr #18
    19dc:	00000048 	andeq	r0, r0, r8, asr #32
    19e0:	ca02da01 	bgt	b81ec <_back_addr-0x1557e14>
    19e4:	22000002 	andcs	r0, r0, #2
    19e8:	00000185 	andeq	r0, r0, r5, lsl #3
    19ec:	017a2301 	cmneq	sl, r1, lsl #6
    19f0:	a39c0000 	orrsge	r0, ip, #0
    19f4:	2479c085 	ldrbtcs	ip, [r9], #-133	; 0x85
    19f8:	00000048 	andeq	r0, r0, r8, asr #32
    19fc:	00018522 	andeq	r8, r1, r2, lsr #10
    1a00:	7a230100 	bvc	8c1e08 <_back_addr-0xd4e1f8>
    1a04:	9c000001 	stcls	0, cr0, [r0], {1}
    1a08:	79c085a3 	stmibvc	r0, {r0, r1, r5, r7, r8, sl, pc}^
    1a0c:	52250000 	eorpl	r0, r5, #0
    1a10:	2c000001 	stccs	0, cr0, [r0], {1}
    1a14:	60016109 	andvs	r6, r1, r9, lsl #2
    1a18:	01000000 	mrseq	r0, (UNDEF: 0)
    1a1c:	622302dc 	eorvs	r0, r3, #220, 4	; 0xc000000d
    1a20:	9c000001 	stcls	0, cr0, [r0], {1}
    1a24:	79c085a3 	stmibvc	r0, {r0, r1, r5, r7, r8, sl, pc}^
    1a28:	00006024 	andeq	r6, r0, r4, lsr #32
    1a2c:	01622300 	cmneq	r2, r0, lsl #6
    1a30:	a39c0000 	orrsge	r0, ip, #0
    1a34:	0079c085 	rsbseq	ip, r9, r5, lsl #1
    1a38:	91260000 	teqls	r6, r0
    1a3c:	54000001 	strpl	r0, [r0], #-1
    1a40:	08016109 	stmdaeq	r1, {r0, r3, r8, sp, lr}
    1a44:	01000001 	tsteq	r0, r1
    1a48:	0007419c 	muleq	r7, ip, r1
    1a4c:	01a22700 			; <UNDEFINED> instruction: 0x01a22700
    1a50:	0f970000 	svceq	0x00970000
    1a54:	ae280000 	cdpge	0, 2, cr0, cr8, cr0, {0}
    1a58:	29000001 	stmdbcs	r0, {r0}
    1a5c:	000001ba 			; <UNDEFINED> instruction: 0x000001ba
    1a60:	00000fce 	andeq	r0, r0, lr, asr #31
    1a64:	0001c62a 	andeq	ip, r1, sl, lsr #12
    1a68:	032d0000 	teqeq	sp, #0
    1a6c:	18180000 	ldmdane	r8, {}	; <UNPREDICTABLE>
    1a70:	016e2100 	cmneq	lr, r0, lsl #2
    1a74:	09600000 	stmdbeq	r0!, {}^	; <UNPREDICTABLE>
    1a78:	00780161 	rsbseq	r0, r8, r1, ror #2
    1a7c:	16010000 	strne	r0, [r1], -r0
    1a80:	00036c02 	andeq	r6, r3, r2, lsl #24
    1a84:	01852700 	orreq	r2, r5, r0, lsl #14
    1a88:	0fe20000 	svceq	0x00e20000
    1a8c:	7a270000 	bvc	9c1a94 <_back_addr-0xc4e56c>
    1a90:	f6000001 			; <UNDEFINED> instruction: 0xf6000001
    1a94:	2400000f 	strcs	r0, [r0], #-15
    1a98:	00000078 	andeq	r0, r0, r8, ror r0
    1a9c:	00018527 	andeq	r8, r1, r7, lsr #10
    1aa0:	000fe200 	andeq	lr, pc, r0, lsl #4
    1aa4:	017a2700 	cmneq	sl, r0, lsl #14
    1aa8:	0ff60000 	svceq	0x00f60000
    1aac:	00000000 	andeq	r0, r0, r0
    1ab0:	00016e21 	andeq	r6, r1, r1, lsr #28
    1ab4:	61096800 	tstvs	r9, r0, lsl #16
    1ab8:	00009801 	andeq	r9, r0, r1, lsl #16
    1abc:	021a0100 	andseq	r0, sl, #0, 2
    1ac0:	000003ab 	andeq	r0, r0, fp, lsr #7
    1ac4:	00018527 	andeq	r8, r1, r7, lsr #10
    1ac8:	00100e00 	andseq	r0, r0, r0, lsl #28
    1acc:	017a2700 	cmneq	sl, r0, lsl #14
    1ad0:	10220000 	eorne	r0, r2, r0
    1ad4:	98240000 	stmdals	r4!, {}	; <UNPREDICTABLE>
    1ad8:	27000000 	strcs	r0, [r0, -r0]
    1adc:	00000185 	andeq	r0, r0, r5, lsl #3
    1ae0:	0000100e 	andeq	r1, r0, lr
    1ae4:	00017a27 	andeq	r7, r1, r7, lsr #20
    1ae8:	00102200 	andseq	r2, r0, r0, lsl #4
    1aec:	21000000 	mrscs	r0, (UNDEF: 0)
    1af0:	0000016e 	andeq	r0, r0, lr, ror #2
    1af4:	01610974 	smceq	4244	; 0x1094
    1af8:	000000b0 	strheq	r0, [r0], -r0	; <UNPREDICTABLE>
    1afc:	ea021701 	b	87708 <_back_addr-0x15888f8>
    1b00:	27000003 	strcs	r0, [r0, -r3]
    1b04:	00000185 	andeq	r0, r0, r5, lsl #3
    1b08:	0000103a 	andeq	r1, r0, sl, lsr r0
    1b0c:	00017a27 	andeq	r7, r1, r7, lsr #20
    1b10:	00104f00 	andseq	r4, r0, r0, lsl #30
    1b14:	00b02400 	adcseq	r2, r0, r0, lsl #8
    1b18:	85270000 	strhi	r0, [r7, #-0]!
    1b1c:	3a000001 	bcc	1b28 <_back_addr-0x160e4d8>
    1b20:	27000010 	smladcs	r0, r0, r0, r0
    1b24:	0000017a 	andeq	r0, r0, sl, ror r1
    1b28:	0000104f 	andeq	r1, r0, pc, asr #32
    1b2c:	6e2b0000 	cdpvs	0, 2, cr0, cr11, cr0, {0}
    1b30:	8c000001 	stchi	0, cr0, [r0], {1}
    1b34:	04016109 	streq	r6, [r1], #-265	; 0x109
    1b38:	01000000 	mrseq	r0, (UNDEF: 0)
    1b3c:	042d021d 	strteq	r0, [sp], #-541	; 0x21d
    1b40:	85270000 	strhi	r0, [r7, #-0]!
    1b44:	67000001 	strvs	r0, [r0, -r1]
    1b48:	27000010 	smladcs	r0, r0, r0, r0
    1b4c:	0000017a 	andeq	r0, r0, sl, ror r1
    1b50:	00001088 	andeq	r1, r0, r8, lsl #1
    1b54:	61098c2c 	tstvs	r9, ip, lsr #24
    1b58:	00000401 	andeq	r0, r0, r1, lsl #8
    1b5c:	01852700 	orreq	r2, r5, r0, lsl #14
    1b60:	10670000 	rsbne	r0, r7, r0
    1b64:	7a270000 	bvc	9c1b6c <_back_addr-0xc4e494>
    1b68:	88000001 	stmdahi	r0, {r0}
    1b6c:	00000010 	andeq	r0, r0, r0, lsl r0
    1b70:	016e2b00 	cmneq	lr, r0, lsl #22
    1b74:	09900000 	ldmibeq	r0, {}	; <UNPREDICTABLE>
    1b78:	00040161 	andeq	r0, r4, r1, ror #2
    1b7c:	1e010000 	cdpne	0, 0, cr0, cr1, cr0, {0}
    1b80:	00047002 	andeq	r7, r4, r2
    1b84:	01852700 	orreq	r2, r5, r0, lsl #14
    1b88:	10a00000 	adcne	r0, r0, r0
    1b8c:	7a270000 	bvc	9c1b94 <_back_addr-0xc4e46c>
    1b90:	c3000001 	movwgt	r0, #1
    1b94:	2c000010 	stccs	0, cr0, [r0], {16}
    1b98:	01610990 			; <UNDEFINED> instruction: 0x01610990
    1b9c:	00000004 	andeq	r0, r0, r4
    1ba0:	00018527 	andeq	r8, r1, r7, lsr #10
    1ba4:	0010a000 	andseq	sl, r0, r0
    1ba8:	017a2700 	cmneq	sl, r0, lsl #14
    1bac:	10c30000 	sbcne	r0, r3, r0
    1bb0:	00000000 	andeq	r0, r0, r0
    1bb4:	00016e2b 	andeq	r6, r1, fp, lsr #28
    1bb8:	61099400 	tstvs	r9, r0, lsl #8
    1bbc:	00000401 	andeq	r0, r0, r1, lsl #8
    1bc0:	021f0100 	andseq	r0, pc, #0, 2
    1bc4:	000004b3 			; <UNDEFINED> instruction: 0x000004b3
    1bc8:	00018527 	andeq	r8, r1, r7, lsr #10
    1bcc:	0010db00 	andseq	sp, r0, r0, lsl #22
    1bd0:	017a2700 	cmneq	sl, r0, lsl #14
    1bd4:	10fc0000 	rscsne	r0, ip, r0
    1bd8:	942c0000 	strtls	r0, [ip], #-0
    1bdc:	04016109 	streq	r6, [r1], #-265	; 0x109
    1be0:	27000000 	strcs	r0, [r0, -r0]
    1be4:	00000185 	andeq	r0, r0, r5, lsl #3
    1be8:	000010db 	ldrdeq	r1, [r0], -fp
    1bec:	00017a27 	andeq	r7, r1, r7, lsr #20
    1bf0:	0010fc00 	andseq	pc, r0, r0, lsl #24
    1bf4:	2b000000 	blcs	1bfc <_back_addr-0x160e404>
    1bf8:	0000016e 	andeq	r0, r0, lr, ror #2
    1bfc:	01610998 			; <UNDEFINED> instruction: 0x01610998
    1c00:	00000004 	andeq	r0, r0, r4
    1c04:	f6022001 			; <UNDEFINED> instruction: 0xf6022001
    1c08:	27000004 	strcs	r0, [r0, -r4]
    1c0c:	00000185 	andeq	r0, r0, r5, lsl #3
    1c10:	00001114 	andeq	r1, r0, r4, lsl r1
    1c14:	00017a27 	andeq	r7, r1, r7, lsr #20
    1c18:	00113700 	andseq	r3, r1, r0, lsl #14
    1c1c:	09982c00 	ldmibeq	r8, {sl, fp, sp}
    1c20:	00040161 	andeq	r0, r4, r1, ror #2
    1c24:	85270000 	strhi	r0, [r7, #-0]!
    1c28:	14000001 	strne	r0, [r0], #-1
    1c2c:	27000011 	smladcs	r0, r1, r0, r0
    1c30:	0000017a 	andeq	r0, r0, sl, ror r1
    1c34:	00001137 	andeq	r1, r0, r7, lsr r1
    1c38:	6e2b0000 	cdpvs	0, 2, cr0, cr11, cr0, {0}
    1c3c:	a8000001 	stmdage	r0, {r0}
    1c40:	08016109 	stmdaeq	r1, {r0, r3, r8, sp, lr}
    1c44:	01000000 	mrseq	r0, (UNDEF: 0)
    1c48:	05390275 	ldreq	r0, [r9, #-629]!	; 0x275
    1c4c:	85270000 	strhi	r0, [r7, #-0]!
    1c50:	4f000001 	svcmi	0x00000001
    1c54:	27000011 	smladcs	r0, r1, r0, r0
    1c58:	0000017a 	andeq	r0, r0, sl, ror r1
    1c5c:	00001163 	andeq	r1, r0, r3, ror #2
    1c60:	6109a82c 	tstvs	r9, ip, lsr #16
    1c64:	00000801 	andeq	r0, r0, r1, lsl #16
    1c68:	01852700 	orreq	r2, r5, r0, lsl #14
    1c6c:	114f0000 	mrsne	r0, SPSR
    1c70:	7a270000 	bvc	9c1c78 <_back_addr-0xc4e388>
    1c74:	63000001 	movwvs	r0, #1
    1c78:	00000011 	andeq	r0, r0, r1, lsl r0
    1c7c:	09b42d00 	ldmibeq	r4!, {r8, sl, fp, sp}
    1c80:	00a00161 	adceq	r0, r0, r1, ror #2
    1c84:	07130000 	ldreq	r0, [r3, -r0]
    1c88:	a2270000 	eorge	r0, r7, #0
    1c8c:	7b000001 	blvc	1c98 <_back_addr-0x160e368>
    1c90:	2c000011 	stccs	0, cr0, [r0], {17}
    1c94:	016109b4 	strheq	r0, [r1, #-148]!	; 0xffffff6c
    1c98:	000000a0 	andeq	r0, r0, r0, lsr #1
    1c9c:	0001ae29 	andeq	sl, r1, r9, lsr #28
    1ca0:	00119100 	andseq	r9, r1, r0, lsl #2
    1ca4:	01ba2900 			; <UNDEFINED> instruction: 0x01ba2900
    1ca8:	11a40000 			; <UNDEFINED> instruction: 0x11a40000
    1cac:	52210000 	eorpl	r0, r1, #0
    1cb0:	b4000001 	strlt	r0, [r0], #-1
    1cb4:	c8016109 	stmdagt	r1, {r0, r3, r8, sp, lr}
    1cb8:	01000000 	mrseq	r0, (UNDEF: 0)
    1cbc:	05970278 	ldreq	r0, [r7, #632]	; 0x278
    1cc0:	62270000 	eorvs	r0, r7, #0
    1cc4:	00000001 	andeq	r0, r0, r1
    1cc8:	24000012 	strcs	r0, [r0], #-18
    1ccc:	000000c8 	andeq	r0, r0, r8, asr #1
    1cd0:	00016227 	andeq	r6, r1, r7, lsr #4
    1cd4:	00120000 	andseq	r0, r2, r0
    1cd8:	2b000000 	blcs	1ce0 <_back_addr-0x160e320>
    1cdc:	00000152 	andeq	r0, r0, r2, asr r1
    1ce0:	016109f4 	strdeq	r0, [r1, #-148]!	; 0xffffff6c
    1ce4:	0000000c 	andeq	r0, r0, ip
    1ce8:	c8029601 	stmdagt	r2, {r0, r9, sl, ip, pc}
    1cec:	27000005 	strcs	r0, [r0, -r5]
    1cf0:	00000162 	andeq	r0, r0, r2, ror #2
    1cf4:	00001218 	andeq	r1, r0, r8, lsl r2
    1cf8:	6109f42c 	tstvs	r9, ip, lsr #8
    1cfc:	00000c01 	andeq	r0, r0, r1, lsl #24
    1d00:	01622700 	cmneq	r2, r0, lsl #14
    1d04:	12180000 	andsne	r0, r8, #0
    1d08:	00000000 	andeq	r0, r0, r0
    1d0c:	00016e21 	andeq	r6, r1, r1, lsr #28
    1d10:	610a0c00 	tstvs	sl, r0, lsl #24
    1d14:	0000e001 	andeq	lr, r0, r1
    1d18:	029e0100 	addseq	r0, lr, #0, 2
    1d1c:	00000607 	andeq	r0, r0, r7, lsl #12
    1d20:	00018527 	andeq	r8, r1, r7, lsr #10
    1d24:	00123000 	andseq	r3, r2, r0
    1d28:	017a2700 	cmneq	sl, r0, lsl #14
    1d2c:	12440000 	subne	r0, r4, #0
    1d30:	e0240000 	eor	r0, r4, r0
    1d34:	27000000 	strcs	r0, [r0, -r0]
    1d38:	00000185 	andeq	r0, r0, r5, lsl #3
    1d3c:	00001230 	andeq	r1, r0, r0, lsr r2
    1d40:	00017a27 	andeq	r7, r1, r7, lsr #20
    1d44:	00124400 	andseq	r4, r2, r0, lsl #8
    1d48:	21000000 	mrscs	r0, (UNDEF: 0)
    1d4c:	0000016e 	andeq	r0, r0, lr, ror #2
    1d50:	01610a18 	cmneq	r1, r8, lsl sl
    1d54:	000000f8 	strdeq	r0, [r0], -r8
    1d58:	46029f01 	strmi	r9, [r2], -r1, lsl #30
    1d5c:	27000006 	strcs	r0, [r0, -r6]
    1d60:	00000185 	andeq	r0, r0, r5, lsl #3
    1d64:	0000125c 	andeq	r1, r0, ip, asr r2
    1d68:	00017a27 	andeq	r7, r1, r7, lsr #20
    1d6c:	00127000 	andseq	r7, r2, r0
    1d70:	00f82400 	rscseq	r2, r8, r0, lsl #8
    1d74:	85270000 	strhi	r0, [r7, #-0]!
    1d78:	5c000001 	stcpl	0, cr0, [r0], {1}
    1d7c:	27000012 	smladcs	r0, r2, r0, r0
    1d80:	0000017a 	andeq	r0, r0, sl, ror r1
    1d84:	00001270 	andeq	r1, r0, r0, ror r2
    1d88:	522b0000 	eorpl	r0, fp, #0
    1d8c:	28000001 	stmdacs	r0, {r0}
    1d90:	0401610a 	streq	r6, [r1], #-266	; 0x10a
    1d94:	01000000 	mrseq	r0, (UNDEF: 0)
    1d98:	06770298 			; <UNDEFINED> instruction: 0x06770298
    1d9c:	62270000 	eorvs	r0, r7, #0
    1da0:	88000001 	stmdahi	r0, {r0}
    1da4:	2c000012 	stccs	0, cr0, [r0], {18}
    1da8:	01610a28 	cmneq	r1, r8, lsr #20
    1dac:	00000004 	andeq	r0, r0, r4
    1db0:	00016227 	andeq	r6, r1, r7, lsr #4
    1db4:	00128800 	andseq	r8, r2, r0, lsl #16
    1db8:	21000000 	mrscs	r0, (UNDEF: 0)
    1dbc:	0000016e 	andeq	r0, r0, lr, ror #2
    1dc0:	01610a3c 	cmneq	r1, ip, lsr sl
    1dc4:	00000110 	andeq	r0, r0, r0, lsl r1
    1dc8:	b6028401 	strlt	r8, [r2], -r1, lsl #8
    1dcc:	27000006 	strcs	r0, [r0, -r6]
    1dd0:	00000185 	andeq	r0, r0, r5, lsl #3
    1dd4:	000012a0 	andeq	r1, r0, r0, lsr #5
    1dd8:	00017a27 	andeq	r7, r1, r7, lsr #20
    1ddc:	0012b400 	andseq	fp, r2, r0, lsl #8
    1de0:	01102400 	tsteq	r0, r0, lsl #8
    1de4:	85270000 	strhi	r0, [r7, #-0]!
    1de8:	a0000001 	andge	r0, r0, r1
    1dec:	27000012 	smladcs	r0, r2, r0, r0
    1df0:	0000017a 	andeq	r0, r0, sl, ror r1
    1df4:	000012b4 			; <UNDEFINED> instruction: 0x000012b4
    1df8:	6e210000 	cdpvs	0, 2, cr0, cr1, cr0, {0}
    1dfc:	40000001 	andmi	r0, r0, r1
    1e00:	2801610a 	stmdacs	r1, {r1, r3, r8, sp, lr}
    1e04:	01000001 	tsteq	r0, r1
    1e08:	06f50285 	ldrbteq	r0, [r5], r5, lsl #5
    1e0c:	85270000 	strhi	r0, [r7, #-0]!
    1e10:	cc000001 	stcgt	0, cr0, [r0], {1}
    1e14:	27000012 	smladcs	r0, r2, r0, r0
    1e18:	0000017a 	andeq	r0, r0, sl, ror r1
    1e1c:	000012e0 	andeq	r1, r0, r0, ror #5
    1e20:	00012824 	andeq	r2, r1, r4, lsr #16
    1e24:	01852700 	orreq	r2, r5, r0, lsl #14
    1e28:	12cc0000 	sbcne	r0, ip, #0
    1e2c:	7a270000 	bvc	9c1e34 <_back_addr-0xc4e1cc>
    1e30:	e0000001 	and	r0, r0, r1
    1e34:	00000012 	andeq	r0, r0, r2, lsl r0
    1e38:	09dc1d00 	ldmibeq	ip, {r8, sl, fp, ip}^
    1e3c:	13a00161 	movne	r0, #1073741848	; 0x40000018
    1e40:	07080000 	streq	r0, [r8, -r0]
    1e44:	011e0000 	tsteq	lr, r0
    1e48:	00310150 	eorseq	r0, r1, r0, asr r1
    1e4c:	6109e02e 	tstvs	r9, lr, lsr #32
    1e50:	0013b201 	andseq	fp, r3, r1, lsl #4
    1e54:	1d000000 	stcne	0, cr0, [r0, #-0]
    1e58:	016109a0 	smultbeq	r1, r0, r9
    1e5c:	000013c4 	andeq	r1, r0, r4, asr #7
    1e60:	0000072e 	andeq	r0, r0, lr, lsr #14
    1e64:	0350011e 	cmpeq	r0, #-2147483641	; 0x80000007
    1e68:	1e5001f3 	mrcne	1, 2, r0, cr0, cr3, {7}
    1e6c:	08025101 	stmdaeq	r2, {r0, r8, ip, lr}
    1e70:	a42e0038 	strtge	r0, [lr], #-56	; 0x38
    1e74:	b2016109 	andlt	r6, r1, #1073741826	; 0x40000002
    1e78:	2e000013 	mcrcs	0, 0, r0, cr0, cr3, {0}
    1e7c:	016109b4 	strheq	r0, [r1, #-148]!	; 0xffffff6c
    1e80:	000013b2 			; <UNDEFINED> instruction: 0x000013b2
    1e84:	01db2600 	bicseq	r2, fp, r0, lsl #12
    1e88:	0a5c0000 	beq	1701e90 <__bss_end__+0xdf2d0>
    1e8c:	00080161 	andeq	r0, r8, r1, ror #2
    1e90:	9c010000 	stcls	0, cr0, [r1], {-0}
    1e94:	00000767 	andeq	r0, r0, r7, ror #14
    1e98:	0001eb27 	andeq	lr, r1, r7, lsr #22
    1e9c:	0012f800 	andseq	pc, r2, r0, lsl #16
    1ea0:	01f62900 	mvnseq	r2, r0, lsl #18
    1ea4:	13190000 	tstne	r9, #0
    1ea8:	2f000000 	svccs	0x00000000
    1eac:	0000082e 	andeq	r0, r0, lr, lsr #16
    1eb0:	00335201 	eorseq	r5, r3, r1, lsl #4
    1eb4:	0a640000 	beq	1901ebc <__bss_end__+0x2df2fc>
    1eb8:	02700161 	rsbseq	r0, r0, #1073741848	; 0x40000018
    1ebc:	9c010000 	stcls	0, cr0, [r1], {-0}
    1ec0:	00000a53 	andeq	r0, r0, r3, asr sl
    1ec4:	0007fe30 	andeq	pc, r7, r0, lsr lr	; <UNPREDICTABLE>
    1ec8:	53520100 	cmppl	r2, #0, 2
    1ecc:	73000000 	movwvc	r0, #0
    1ed0:	31000013 	tstcc	r0, r3, lsl r0
    1ed4:	000007a2 	andeq	r0, r0, r2, lsr #15
    1ed8:	01375401 	teqeq	r7, r1, lsl #8
    1edc:	91020000 	mrsls	r0, (UNDEF: 2)
    1ee0:	00693260 	rsbeq	r3, r9, r0, ror #4
    1ee4:	00535401 	subseq	r5, r3, r1, lsl #8
    1ee8:	13be0000 			; <UNDEFINED> instruction: 0x13be0000
    1eec:	52330000 	eorspl	r0, r3, #0
    1ef0:	6c000001 	stcvs	0, cr0, [r0], {1}
    1ef4:	4001610a 	andmi	r6, r1, sl, lsl #2
    1ef8:	01000001 	tsteq	r0, r1
    1efc:	0007d657 	andeq	sp, r7, r7, asr r6
    1f00:	01622700 	cmneq	r2, r0, lsl #14
    1f04:	13d20000 	bicsne	r0, r2, #0
    1f08:	60240000 	eorvs	r0, r4, r0
    1f0c:	27000001 	strcs	r0, [r0, -r1]
    1f10:	00000162 	andeq	r0, r0, r2, ror #2
    1f14:	0000140d 	andeq	r1, r0, sp, lsl #8
    1f18:	52330000 	eorspl	r0, r3, #0
    1f1c:	a8000001 	stmdage	r0, {r0}
    1f20:	7801610a 	stmdavc	r1, {r1, r3, r8, sp, lr}
    1f24:	01000001 	tsteq	r0, r1
    1f28:	00080258 	andeq	r0, r8, r8, asr r2
    1f2c:	01622700 	cmneq	r2, r0, lsl #14
    1f30:	14260000 	strtne	r0, [r6], #-0
    1f34:	90240000 	eorls	r0, r4, r0
    1f38:	34000001 	strcc	r0, [r0], #-1
    1f3c:	00000162 	andeq	r0, r0, r2, ror #2
    1f40:	9f1c7003 	svcls	0x001c7003
    1f44:	6e330000 	cdpvs	0, 3, cr0, cr3, cr0, {0}
    1f48:	bc000001 	stclt	0, cr0, [r0], {1}
    1f4c:	a801610a 	stmdage	r1, {r1, r3, r8, sp, lr}
    1f50:	01000001 	tsteq	r0, r1
    1f54:	00083858 	andeq	r3, r8, r8, asr r8
    1f58:	01853500 	orreq	r3, r5, r0, lsl #10
    1f5c:	7a270000 	bvc	9c1f64 <_back_addr-0xc4e09c>
    1f60:	88000001 	stmdahi	r0, {r0}
    1f64:	24000014 	strcs	r0, [r0], #-20
    1f68:	000001c0 	andeq	r0, r0, r0, asr #3
    1f6c:	00018535 	andeq	r8, r1, r5, lsr r5
    1f70:	017a2700 	cmneq	sl, r0, lsl #14
    1f74:	14d30000 	ldrbne	r0, [r3], #0
    1f78:	00000000 	andeq	r0, r0, r0
    1f7c:	00015233 	andeq	r5, r1, r3, lsr r2
    1f80:	610acc00 	tstvs	sl, r0, lsl #24
    1f84:	0001d801 	andeq	sp, r1, r1, lsl #16
    1f88:	64590100 	ldrbvs	r0, [r9], #-256	; 0x100
    1f8c:	27000008 	strcs	r0, [r0, -r8]
    1f90:	00000162 	andeq	r0, r0, r2, ror #2
    1f94:	000014e6 	andeq	r1, r0, r6, ror #9
    1f98:	0001f024 	andeq	pc, r1, r4, lsr #32
    1f9c:	01622700 	cmneq	r2, r0, lsl #14
    1fa0:	15370000 	ldrne	r0, [r7, #-0]!
    1fa4:	00000000 	andeq	r0, r0, r0
    1fa8:	00016e33 	andeq	r6, r1, r3, lsr lr
    1fac:	610adc00 	tstvs	sl, r0, lsl #24
    1fb0:	00020801 	andeq	r0, r2, r1, lsl #16
    1fb4:	9a590100 	bls	16423bc <__bss_end__+0x1f7fc>
    1fb8:	35000008 	strcc	r0, [r0, #-8]
    1fbc:	00000185 	andeq	r0, r0, r5, lsl #3
    1fc0:	00017a27 	andeq	r7, r1, r7, lsr #20
    1fc4:	00154c00 	andseq	r4, r5, r0, lsl #24
    1fc8:	02202400 	eoreq	r2, r0, #0, 8
    1fcc:	85350000 	ldrhi	r0, [r5, #-0]!
    1fd0:	27000001 	strcs	r0, [r0, -r1]
    1fd4:	0000017a 	andeq	r0, r0, sl, ror r1
    1fd8:	0000159d 	muleq	r0, sp, r5
    1fdc:	52330000 	eorspl	r0, r3, #0
    1fe0:	f4000001 	vst4.8	{d0-d3}, [r0], r1
    1fe4:	3801610a 	stmdacc	r1, {r1, r3, r8, sp, lr}
    1fe8:	01000002 	tsteq	r0, r2
    1fec:	0008c65a 	andeq	ip, r8, sl, asr r6
    1ff0:	01622700 	cmneq	r2, r0, lsl #14
    1ff4:	15b20000 	ldrne	r0, [r2, #0]!
    1ff8:	50240000 	eorpl	r0, r4, r0
    1ffc:	27000002 	strcs	r0, [r0, -r2]
    2000:	00000162 	andeq	r0, r0, r2, ror #2
    2004:	00001603 	andeq	r1, r0, r3, lsl #12
    2008:	6e330000 	cdpvs	0, 3, cr0, cr3, cr0, {0}
    200c:	04000001 	streq	r0, [r0], #-1
    2010:	6801610b 	stmdavs	r1, {r0, r1, r3, r8, sp, lr}
    2014:	01000002 	tsteq	r0, r2
    2018:	0008fc5a 	andeq	pc, r8, sl, asr ip	; <UNPREDICTABLE>
    201c:	01853500 	orreq	r3, r5, r0, lsl #10
    2020:	7a270000 	bvc	9c2028 <_back_addr-0xc4dfd8>
    2024:	18000001 	stmdane	r0, {r0}
    2028:	24000016 	strcs	r0, [r0], #-22
    202c:	00000280 	andeq	r0, r0, r0, lsl #5
    2030:	00018535 	andeq	r8, r1, r5, lsr r5
    2034:	017a2700 	cmneq	sl, r0, lsl #14
    2038:	16690000 	strbtne	r0, [r9], -r0
    203c:	00000000 	andeq	r0, r0, r0
    2040:	00015233 	andeq	r5, r1, r3, lsr r2
    2044:	610b1c00 	tstvs	fp, r0, lsl #24
    2048:	00029801 	andeq	r9, r2, r1, lsl #16
    204c:	285b0100 	ldmdacs	fp, {r8}^
    2050:	27000009 	strcs	r0, [r0, -r9]
    2054:	00000162 	andeq	r0, r0, r2, ror #2
    2058:	0000167e 	andeq	r1, r0, lr, ror r6
    205c:	0002b024 	andeq	fp, r2, r4, lsr #32
    2060:	01622700 	cmneq	r2, r0, lsl #14
    2064:	16cf0000 	strbne	r0, [pc], r0
    2068:	00000000 	andeq	r0, r0, r0
    206c:	00016e33 	andeq	r6, r1, r3, lsr lr
    2070:	610b2c00 	tstvs	fp, r0, lsl #24
    2074:	0002c801 	andeq	ip, r2, r1, lsl #16
    2078:	5e5b0100 	rdfple	f0, f3, f0
    207c:	35000009 	strcc	r0, [r0, #-9]
    2080:	00000185 	andeq	r0, r0, r5, lsl #3
    2084:	00017a27 	andeq	r7, r1, r7, lsr #20
    2088:	0016e400 	andseq	lr, r6, r0, lsl #8
    208c:	02e02400 	rsceq	r2, r0, #0, 8
    2090:	85350000 	ldrhi	r0, [r5, #-0]!
    2094:	27000001 	strcs	r0, [r0, -r1]
    2098:	0000017a 	andeq	r0, r0, sl, ror r1
    209c:	00001735 	andeq	r1, r0, r5, lsr r7
    20a0:	6e330000 	cdpvs	0, 3, cr0, cr3, cr0, {0}
    20a4:	44000001 	strmi	r0, [r0], #-1
    20a8:	f801610b 			; <UNDEFINED> instruction: 0xf801610b
    20ac:	01000002 	tsteq	r0, r2
    20b0:	00099c5c 	andeq	r9, r9, ip, asr ip
    20b4:	01852700 	orreq	r2, r5, r0, lsl #14
    20b8:	174a0000 	strbne	r0, [sl, -r0]
    20bc:	7a270000 	bvc	9c20c4 <_back_addr-0xc4df3c>
    20c0:	68000001 	stmdavs	r0, {r0}
    20c4:	24000017 	strcs	r0, [r0], #-23
    20c8:	00000318 	andeq	r0, r0, r8, lsl r3
    20cc:	00018527 	andeq	r8, r1, r7, lsr #10
    20d0:	0017b900 	andseq	fp, r7, r0, lsl #18
    20d4:	017a2700 	cmneq	sl, r0, lsl #14
    20d8:	17cc0000 	strbne	r0, [ip, r0]
    20dc:	00000000 	andeq	r0, r0, r0
    20e0:	00016e33 	andeq	r6, r1, r3, lsr lr
    20e4:	610b5400 	tstvs	fp, r0, lsl #8
    20e8:	00033001 	andeq	r3, r3, r1
    20ec:	da5d0100 	ble	17424f4 <__bss_end__+0x11f934>
    20f0:	27000009 	strcs	r0, [r0, -r9]
    20f4:	00000185 	andeq	r0, r0, r5, lsl #3
    20f8:	000017e1 	andeq	r1, r0, r1, ror #15
    20fc:	00017a27 	andeq	r7, r1, r7, lsr #20
    2100:	0017ff00 	andseq	pc, r7, r0, lsl #30
    2104:	03502400 	cmpeq	r0, #0, 8
    2108:	85270000 	strhi	r0, [r7, #-0]!
    210c:	50000001 	andpl	r0, r0, r1
    2110:	27000018 	smladcs	r0, r8, r0, r0
    2114:	0000017a 	andeq	r0, r0, sl, ror r1
    2118:	00001863 	andeq	r1, r0, r3, ror #16
    211c:	6e330000 	cdpvs	0, 3, cr0, cr3, cr0, {0}
    2120:	64000001 	strvs	r0, [r0], #-1
    2124:	6801610b 	stmdavs	r1, {r0, r1, r3, r8, sp, lr}
    2128:	01000003 	tsteq	r0, r3
    212c:	000a185e 	andeq	r1, sl, lr, asr r8
    2130:	01852700 	orreq	r2, r5, r0, lsl #14
    2134:	18780000 	ldmdane	r8!, {}^	; <UNPREDICTABLE>
    2138:	7a270000 	bvc	9c2140 <_back_addr-0xc4dec0>
    213c:	96000001 	strls	r0, [r0], -r1
    2140:	24000018 	strcs	r0, [r0], #-24
    2144:	00000388 	andeq	r0, r0, r8, lsl #7
    2148:	00018527 	andeq	r8, r1, r7, lsr #10
    214c:	0018e700 	andseq	lr, r8, r0, lsl #14
    2150:	017a2700 	cmneq	sl, r0, lsl #14
    2154:	18fa0000 	ldmne	sl!, {}^	; <UNPREDICTABLE>
    2158:	00000000 	andeq	r0, r0, r0
    215c:	00016e36 	andeq	r6, r1, r6, lsr lr
    2160:	610b7400 	tstvs	fp, r0, lsl #8
    2164:	0003a001 	andeq	sl, r3, r1
    2168:	275f0100 	ldrbcs	r0, [pc, -r0, lsl #2]
    216c:	00000185 	andeq	r0, r0, r5, lsl #3
    2170:	0000190f 	andeq	r1, r0, pc, lsl #18
    2174:	00017a27 	andeq	r7, r1, r7, lsr #20
    2178:	00192d00 	andseq	r2, r9, r0, lsl #26
    217c:	03c82400 	biceq	r2, r8, #0, 8
    2180:	85270000 	strhi	r0, [r7, #-0]!
    2184:	71000001 	tstvc	r0, r1
    2188:	27000019 	smladcs	r0, r9, r0, r0
    218c:	0000017a 	andeq	r0, r0, sl, ror r1
    2190:	00001984 	andeq	r1, r0, r4, lsl #19
    2194:	2f000000 	svccs	0x00000000
    2198:	000002e2 	andeq	r0, r0, r2, ror #5
    219c:	00336401 	eorseq	r6, r3, r1, lsl #8
    21a0:	0cd40000 	ldcleq	0, cr0, [r4], {0}
    21a4:	00900161 	addseq	r0, r0, r1, ror #2
    21a8:	9c010000 	stcls	0, cr0, [r1], {-0}
    21ac:	00000ad3 	ldrdeq	r0, [r0], -r3
    21b0:	00078c30 	andeq	r8, r7, r0, lsr ip
    21b4:	d3640100 	cmnle	r4, #0, 2
    21b8:	aa00000a 	bge	21e8 <_back_addr-0x160de18>
    21bc:	30000019 	andcc	r0, r0, r9, lsl r0
    21c0:	000007cf 	andeq	r0, r0, pc, asr #15
    21c4:	00536401 	subseq	r6, r3, r1, lsl #8
    21c8:	19ed0000 	stmibne	sp!, {}^	; <UNPREDICTABLE>
    21cc:	1f300000 	svcne	0x00300000
    21d0:	01000007 	tsteq	r0, r7
    21d4:	000ad364 	andeq	sp, sl, r4, ror #6
    21d8:	001a3000 	andseq	r3, sl, r0
    21dc:	656b3700 	strbvs	r3, [fp, #-1792]!	; 0x700
    21e0:	64010079 	strvs	r0, [r1], #-121	; 0x79
    21e4:	00000ad9 	ldrdeq	r0, [r0], -r9
    21e8:	00001a73 	andeq	r1, r0, r3, ror sl
    21ec:	00085c38 	andeq	r5, r8, r8, lsr ip
    21f0:	d5660100 	strble	r0, [r6, #-256]!	; 0x100
    21f4:	aa000001 	bge	2200 <_back_addr-0x160de00>
    21f8:	2e00001a 	mcrcs	0, 0, r0, cr0, cr10, {0}
    21fc:	01610cec 	smultteq	r1, ip, ip
    2200:	00000202 	andeq	r0, r0, r2, lsl #4
    2204:	610d3c39 	tstvs	sp, r9, lsr ip
    2208:	00019101 	andeq	r9, r1, r1, lsl #2
    220c:	0d402e00 	stcleq	14, cr2, [r0, #-0]
    2210:	02670161 	rsbeq	r0, r7, #1073741848	; 0x40000018
    2214:	06000000 	streq	r0, [r0], -r0
    2218:	00006f04 	andeq	r6, r0, r4, lsl #30
    221c:	53040600 	movwpl	r0, #17920	; 0x4600
    2220:	2f000000 	svccs	0x00000000
    2224:	000007bf 			; <UNDEFINED> instruction: 0x000007bf
    2228:	00337f01 	eorseq	r7, r3, r1, lsl #30
    222c:	0d640000 	stcleq	0, cr0, [r4, #-0]
    2230:	00900161 	addseq	r0, r0, r1, ror #2
    2234:	9c010000 	stcls	0, cr0, [r1], {-0}
    2238:	00000b5f 	andeq	r0, r0, pc, asr fp
    223c:	00078c30 	andeq	r8, r7, r0, lsr ip
    2240:	d37f0100 	cmnle	pc, #0, 2
    2244:	ff00000a 			; <UNDEFINED> instruction: 0xff00000a
    2248:	3000001a 	andcc	r0, r0, sl, lsl r0
    224c:	000007cf 	andeq	r0, r0, pc, asr #15
    2250:	00537f01 	subseq	r7, r3, r1, lsl #30
    2254:	1b420000 	blne	108225c <_back_addr-0x58dda4>
    2258:	1f300000 	svcne	0x00300000
    225c:	01000007 	tsteq	r0, r7
    2260:	000ad37f 	andeq	sp, sl, pc, ror r3
    2264:	001b8500 	andseq	r8, fp, r0, lsl #10
    2268:	656b3700 	strbvs	r3, [fp, #-1792]!	; 0x700
    226c:	7f010079 	svcvc	0x00010079
    2270:	00000ad9 	ldrdeq	r0, [r0], -r9
    2274:	00001bc8 	andeq	r1, r0, r8, asr #23
    2278:	00085c38 	andeq	r5, r8, r8, lsr ip
    227c:	d5810100 	strle	r0, [r1, #256]	; 0x100
    2280:	ff000001 			; <UNDEFINED> instruction: 0xff000001
    2284:	2e00001b 	mcrcs	0, 0, r0, cr0, cr11, {0}
    2288:	01610d7c 	smceq	4316	; 0x10dc
    228c:	00000202 	andeq	r0, r0, r2, lsl #4
    2290:	610dcc39 	tstvs	sp, r9, lsr ip
    2294:	00019101 	andeq	r9, r1, r1, lsl #2
    2298:	0dd02e00 	ldcleq	14, cr2, [r0]
    229c:	02670161 	rsbeq	r0, r7, #1073741848	; 0x40000018
    22a0:	2f000000 	svccs	0x00000000
    22a4:	00000271 	andeq	r0, r0, r1, ror r2
    22a8:	00339a01 	eorseq	r9, r3, r1, lsl #20
    22ac:	0df40000 	ldcleq	0, cr0, [r4]
    22b0:	00940161 	addseq	r0, r4, r1, ror #2
    22b4:	9c010000 	stcls	0, cr0, [r1], {-0}
    22b8:	00000bdf 	ldrdeq	r0, [r0], -pc	; <UNPREDICTABLE>
    22bc:	00078c30 	andeq	r8, r7, r0, lsr ip
    22c0:	d39a0100 	orrsle	r0, sl, #0, 2
    22c4:	5400000a 	strpl	r0, [r0], #-10
    22c8:	3000001c 	andcc	r0, r0, ip, lsl r0
    22cc:	000007cf 	andeq	r0, r0, pc, asr #15
    22d0:	00539a01 	subseq	r9, r3, r1, lsl #20
    22d4:	1c970000 	ldcne	0, cr0, [r7], {0}
    22d8:	1f300000 	svcne	0x00300000
    22dc:	01000007 	tsteq	r0, r7
    22e0:	000ad39a 	muleq	sl, sl, r3
    22e4:	001cda00 	andseq	sp, ip, r0, lsl #20
    22e8:	656b3700 	strbvs	r3, [fp, #-1792]!	; 0x700
    22ec:	9a010079 	bls	424d8 <_back_addr-0x15cdb28>
    22f0:	00000ad9 	ldrdeq	r0, [r0], -r9
    22f4:	00001d1d 	andeq	r1, r0, sp, lsl sp
    22f8:	00085c38 	andeq	r5, r8, r8, lsr ip
    22fc:	d59c0100 	ldrle	r0, [ip, #256]	; 0x100
    2300:	54000001 	strpl	r0, [r0], #-1
    2304:	2e00001d 	mcrcs	0, 0, r0, cr0, cr13, {0}
    2308:	01610e0c 	cmneq	r1, ip, lsl #28
    230c:	00000202 	andeq	r0, r0, r2, lsl #4
    2310:	610e5c39 	tstvs	lr, r9, lsr ip
    2314:	00019101 	andeq	r9, r1, r1, lsl #2
    2318:	0e602e00 	cdpeq	14, 6, cr2, cr0, cr0, {0}
    231c:	02670161 	rsbeq	r0, r7, #1073741848	; 0x40000018
    2320:	2f000000 	svccs	0x00000000
    2324:	00000803 	andeq	r0, r0, r3, lsl #16
    2328:	0033b701 	eorseq	fp, r3, r1, lsl #14
    232c:	0e880000 	cdpeq	0, 8, cr0, cr8, cr0, {0}
    2330:	00ec0161 	rsceq	r0, ip, r1, ror #2
    2334:	9c010000 	stcls	0, cr0, [r1], {-0}
    2338:	00000cfc 	strdeq	r0, [r0], -ip
    233c:	00078c30 	andeq	r8, r7, r0, lsr ip
    2340:	d3b70100 			; <UNDEFINED> instruction: 0xd3b70100
    2344:	a900000a 	stmdbge	r0, {r1, r3}
    2348:	3000001d 	andcc	r0, r0, sp, lsl r0
    234c:	000007cf 	andeq	r0, r0, pc, asr #15
    2350:	0053b701 	subseq	fp, r3, r1, lsl #14
    2354:	1dc70000 	stclne	0, cr0, [r7]
    2358:	1f300000 	svcne	0x00300000
    235c:	01000007 	tsteq	r0, r7
    2360:	000ad3b7 			; <UNDEFINED> instruction: 0x000ad3b7
    2364:	001de500 	andseq	lr, sp, r0, lsl #10
    2368:	656b3700 	strbvs	r3, [fp, #-1792]!	; 0x700
    236c:	b7010079 	smlsdxlt	r1, r9, r0, r0
    2370:	00000ad9 	ldrdeq	r0, [r0], -r9
    2374:	00001e03 	andeq	r1, r0, r3, lsl #28
    2378:	74657232 	strbtvc	r7, [r5], #-562	; 0x232
    237c:	33b90100 			; <UNDEFINED> instruction: 0x33b90100
    2380:	21000000 	mrscs	r0, (UNDEF: 0)
    2384:	3800001e 	stmdacc	r0, {r1, r2, r3, r4}
    2388:	0000085c 	andeq	r0, r0, ip, asr r8
    238c:	01d5ba01 	bicseq	fp, r5, r1, lsl #20
    2390:	1e4c0000 	cdpne	0, 4, cr0, cr12, cr0, {0}
    2394:	953a0000 	ldrls	r0, [sl, #-0]!
    2398:	fc000007 	stc2	0, cr0, [r0], {7}
    239c:	0500000c 	streq	r0, [r0, #-12]
    23a0:	61258403 	teqvs	r5, r3, lsl #8
    23a4:	0ea02e01 	cdpeq	14, 10, cr2, cr0, cr1, {0}
    23a8:	02020161 	andeq	r0, r2, #1073741848	; 0x40000018
    23ac:	ec1d0000 	ldc	0, cr0, [sp], {-0}
    23b0:	9101610e 	tstls	r1, lr, lsl #2
    23b4:	7e000001 	cdpvc	0, 0, cr0, cr0, cr1, {0}
    23b8:	1e00000c 	cdpne	0, 0, cr0, cr0, cr12, {0}
    23bc:	74025001 	strvc	r5, [r2], #-1
    23c0:	081d0000 	ldmdaeq	sp, {}	; <UNPREDICTABLE>
    23c4:	c401610f 	strgt	r6, [r1], #-271	; 0x10f
    23c8:	98000013 	stmdals	r0, {r0, r1, r4}
    23cc:	1e00000c 	cdpne	0, 0, cr0, cr0, cr12, {0}
    23d0:	76025001 	strvc	r5, [r2], -r1
    23d4:	51011e00 	tstpl	r1, r0, lsl #28
    23d8:	00007702 	andeq	r7, r0, r2, lsl #14
    23dc:	610f142e 	tstvs	pc, lr, lsr #8
    23e0:	00026701 	andeq	r6, r2, r1, lsl #14
    23e4:	0f441d00 	svceq	0x00441d00
    23e8:	13db0161 	bicsne	r0, fp, #1073741848	; 0x40000018
    23ec:	0cd00000 	ldcleq	0, cr0, [r0], {0}
    23f0:	011e0000 	tsteq	lr, r0
    23f4:	ac030550 	cfstr32ge	mvfx0, [r3], {80}	; 0x50
    23f8:	1e016125 	adfnesp	f6, f1, f5
    23fc:	03055101 	movweq	r5, #20737	; 0x5101
    2400:	016125a4 	cmneq	r1, r4, lsr #11
    2404:	0552011e 	ldrbeq	r0, [r2, #-286]	; 0x11e
    2408:	61258403 	teqvs	r5, r3, lsl #8
    240c:	53011e01 	movwpl	r1, #7681	; 0x1e01
    2410:	00c40802 	sbceq	r0, r4, r2, lsl #16
    2414:	610f6c1f 	tstvs	pc, pc, lsl ip	; <UNPREDICTABLE>
    2418:	0013db01 	andseq	sp, r3, r1, lsl #22
    241c:	50011e00 	andpl	r1, r1, r0, lsl #28
    2420:	25ac0305 	strcs	r0, [ip, #773]!	; 0x305
    2424:	011e0161 	tsteq	lr, r1, ror #2
    2428:	a4030551 	strge	r0, [r3], #-1361	; 0x551
    242c:	1e016125 	adfnesp	f6, f1, f5
    2430:	03055201 	movweq	r5, #20993	; 0x5201
    2434:	01612584 	cmneq	r1, r4, lsl #11
    2438:	0253011e 	subseq	r0, r3, #-2147483641	; 0x80000007
    243c:	0000be08 	andeq	fp, r0, r8, lsl #28
    2440:	00009c07 	andeq	r9, r0, r7, lsl #24
    2444:	07352f00 	ldreq	r2, [r5, -r0, lsl #30]!
    2448:	e4010000 	str	r0, [r1], #-0
    244c:	00000033 	andeq	r0, r0, r3, lsr r0
    2450:	01610f74 	smceq	4340	; 0x10f4
    2454:	00000070 	andeq	r0, r0, r0, ror r0
    2458:	0d699c01 	stcleq	12, cr9, [r9, #-4]!
    245c:	8c300000 	ldchi	0, cr0, [r0], #-0
    2460:	01000007 	tsteq	r0, r7
    2464:	000ad3e4 	andeq	sp, sl, r4, ror #7
    2468:	001e9600 	andseq	r9, lr, r0, lsl #12
    246c:	07cf3000 	strbeq	r3, [pc, r0]
    2470:	e4010000 	str	r0, [r1], #-0
    2474:	00000053 	andeq	r0, r0, r3, asr r0
    2478:	00001ed9 	ldrdeq	r1, [r0], -r9
    247c:	00071f30 	andeq	r1, r7, r0, lsr pc
    2480:	d3e40100 	mvnle	r0, #0, 2
    2484:	1c00000a 	stcne	0, cr0, [r0], {10}
    2488:	3800001f 	stmdacc	r0, {r0, r1, r2, r3, r4}
    248c:	0000085c 	andeq	r0, r0, ip, asr r8
    2490:	01d5e601 	bicseq	lr, r5, r1, lsl #12
    2494:	1f5f0000 	svcne	0x005f0000
    2498:	882e0000 	stmdahi	lr!, {}	; <UNPREDICTABLE>
    249c:	0201610f 	andeq	r6, r1, #-1073741821	; 0xc0000003
    24a0:	39000002 	stmdbcc	r0, {r1}
    24a4:	01610fdc 	ldrdeq	r0, [r1, #-252]!	; 0xffffff04
    24a8:	00000191 	muleq	r0, r1, r1
    24ac:	07d63b00 	ldrbeq	r3, [r6, r0, lsl #22]
    24b0:	cb010000 	blgt	424b8 <_back_addr-0x15cdb48>
    24b4:	0d8f0102 	stfeqs	f0, [pc, #8]	; 24c4 <_back_addr-0x160db3c>
    24b8:	5c140000 	ldcpl	0, cr0, [r4], {-0}
    24bc:	01000008 	tsteq	r0, r8
    24c0:	01d502cb 	bicseq	r0, r5, fp, asr #5
    24c4:	e5140000 	ldr	r0, [r4, #-0]
    24c8:	01000007 	tsteq	r0, r7
    24cc:	0ad302cb 	beq	ff4c3000 <__bss_end__+0xfdea0440>
    24d0:	2f000000 	svccs	0x00000000
    24d4:	000007ec 	andeq	r0, r0, ip, ror #15
    24d8:	0033f901 	eorseq	pc, r3, r1, lsl #18
    24dc:	0fe40000 	svceq	0x00e40000
    24e0:	01580161 	cmpeq	r8, r1, ror #2
    24e4:	9c010000 	stcls	0, cr0, [r1], {-0}
    24e8:	00000e52 	andeq	r0, r0, r2, asr lr
    24ec:	00078c30 	andeq	r8, r7, r0, lsr ip
    24f0:	d3f90100 	mvnsle	r0, #0, 2
    24f4:	8800000a 	stmdahi	r0, {r1, r3}
    24f8:	3000001f 	andcc	r0, r0, pc, lsl r0
    24fc:	000007cf 	andeq	r0, r0, pc, asr #15
    2500:	0053f901 	subseq	pc, r3, r1, lsl #18
    2504:	1fcd0000 	svcne	0x00cd0000
    2508:	1f300000 	svcne	0x00300000
    250c:	01000007 	tsteq	r0, r7
    2510:	000ad3f9 	strdeq	sp, [sl], -r9
    2514:	001ff600 	andseq	pc, pc, r0, lsl #12
    2518:	06ee3000 	strbteq	r3, [lr], r0
    251c:	f9010000 			; <UNDEFINED> instruction: 0xf9010000
    2520:	00000053 	andeq	r0, r0, r3, asr r0
    2524:	0000202d 	andeq	r2, r0, sp, lsr #32
    2528:	00085c38 	andeq	r5, r8, r8, lsr ip
    252c:	d5fb0100 	ldrble	r0, [fp, #256]!	; 0x100
    2530:	56000001 	strpl	r0, [r0], -r1
    2534:	38000020 	stmdacc	r0, {r5}
    2538:	0000088b 	andeq	r0, r0, fp, lsl #17
    253c:	0ad3fc01 	beq	ff501548 <__bss_end__+0xfdede988>
    2540:	20740000 	rsbscs	r0, r4, r0
    2544:	72320000 	eorsvc	r0, r2, #0
    2548:	01007365 	tsteq	r0, r5, ror #6
    254c:	000033fd 	strdeq	r3, [r0], -sp
    2550:	00208700 	eoreq	r8, r0, r0, lsl #14
    2554:	0d692100 	stfeqe	f2, [r9, #-0]
    2558:	10640000 	rsbne	r0, r4, r0
    255c:	03e00161 	mvneq	r0, #1073741848	; 0x40000018
    2560:	1e010000 	cdpne	0, 0, cr0, cr1, cr0, {0}
    2564:	000e3801 	andeq	r3, lr, r1, lsl #16
    2568:	0d822700 	stceq	7, cr2, [r2]
    256c:	20a70000 	adccs	r0, r7, r0
    2570:	76270000 	strtvc	r0, [r7], -r0
    2574:	c500000d 	strgt	r0, [r0, #-13]
    2578:	00000020 	andeq	r0, r0, r0, lsr #32
    257c:	6110142e 	tstvs	r0, lr, lsr #8
    2580:	00020201 	andeq	r0, r2, r1, lsl #4
    2584:	11141f00 	tstne	r4, r0, lsl #30
    2588:	01910161 	orrseq	r0, r1, r1, ror #2
    258c:	011e0000 	tsteq	lr, r0
    2590:	00750250 	rsbseq	r0, r5, r0, asr r2
    2594:	623c0000 	eorsvs	r0, ip, #0
    2598:	01000008 	tsteq	r0, r8
    259c:	00330129 	eorseq	r0, r3, r9, lsr #2
    25a0:	113c0000 	teqne	ip, r0
    25a4:	00cc0161 	sbceq	r0, ip, r1, ror #2
    25a8:	9c010000 	stcls	0, cr0, [r1], {-0}
    25ac:	00000ece 	andeq	r0, r0, lr, asr #29
    25b0:	00078c3d 	andeq	r8, r7, sp, lsr ip
    25b4:	01290100 	teqeq	r9, r0, lsl #2
    25b8:	00000ad3 	ldrdeq	r0, [r0], -r3
    25bc:	000020e3 	andeq	r2, r0, r3, ror #1
    25c0:	0007cf3d 	andeq	ip, r7, sp, lsr pc
    25c4:	01290100 	teqeq	r9, r0, lsl #2
    25c8:	00000053 	andeq	r0, r0, r3, asr r0
    25cc:	0000214a 	andeq	r2, r0, sl, asr #2
    25d0:	00071f3d 	andeq	r1, r7, sp, lsr pc
    25d4:	01290100 	teqeq	r9, r0, lsl #2
    25d8:	00000ad3 	ldrdeq	r0, [r0], -r3
    25dc:	000021a3 	andeq	r2, r0, r3, lsr #3
    25e0:	0076693e 	rsbseq	r6, r6, lr, lsr r9
    25e4:	d9012901 	stmdble	r1, {r0, r8, fp, sp}
    25e8:	fc00000a 	stc2	0, cr0, [r0], {10}
    25ec:	3f000021 	svccc	0x00000021
    25f0:	0000085c 	andeq	r0, r0, ip, asr r8
    25f4:	d5012b01 	strle	r2, [r1, #-2817]	; 0xb01
    25f8:	49000001 	stmdbmi	r0, {r0}
    25fc:	2e000022 	cdpcs	0, 0, cr0, cr0, cr2, {1}
    2600:	01611160 	cmneq	r1, r0, ror #2
    2604:	00000202 	andeq	r0, r0, r2, lsl #4
    2608:	6111b839 	tstvs	r1, r9, lsr r8
    260c:	00019101 	andeq	r9, r1, r1, lsl #2
    2610:	113c0000 	teqne	ip, r0
    2614:	01000003 	tsteq	r0, r3
    2618:	0033014e 	eorseq	r0, r3, lr, asr #2
    261c:	12080000 	andne	r0, r8, #0
    2620:	017c0161 	cmneq	ip, r1, ror #2
    2624:	9c010000 	stcls	0, cr0, [r1], {-0}
    2628:	0000126a 	andeq	r1, r0, sl, ror #4
    262c:	0007633d 	andeq	r6, r7, sp, lsr r3
    2630:	014e0100 	mrseq	r0, (UNDEF: 94)
    2634:	00000ad3 	ldrdeq	r0, [r0], -r3
    2638:	00002288 	andeq	r2, r0, r8, lsl #5
    263c:	0007fa3d 	andeq	pc, r7, sp, lsr sl	; <UNPREDICTABLE>
    2640:	014e0100 	mrseq	r0, (UNDEF: 94)
    2644:	00000ad3 	ldrdeq	r0, [r0], -r3
    2648:	000022bf 			; <UNDEFINED> instruction: 0x000022bf
    264c:	0008443d 	andeq	r4, r8, sp, lsr r4
    2650:	014e0100 	mrseq	r0, (UNDEF: 94)
    2654:	00000ad3 	ldrdeq	r0, [r0], -r3
    2658:	000022f6 	strdeq	r2, [r0], -r6
    265c:	01006915 	tsteq	r0, r5, lsl r9
    2660:	00330151 	eorseq	r0, r3, r1, asr r1
    2664:	1f1c0000 	svcne	0x001c0000
    2668:	01000008 	tsteq	r0, r8
    266c:	126a0152 	rsbne	r0, sl, #-2147483628	; 0x80000014
    2670:	91030000 	mrsls	r0, (UNDEF: 3)
    2674:	f53f7df0 			; <UNDEFINED> instruction: 0xf53f7df0
    2678:	01000007 	tsteq	r0, r7
    267c:	00530153 	subseq	r0, r3, r3, asr r1
    2680:	23140000 	tstcs	r4, #0
    2684:	42400000 	submi	r0, r0, #0
    2688:	01000007 	tsteq	r0, r7
    268c:	128a0154 	addne	r0, sl, #84, 2
    2690:	30130000 	andscc	r0, r3, r0
    2694:	060d3031 			; <UNDEFINED> instruction: 0x060d3031
    2698:	48866009 	stmmi	r6, {r0, r3, sp, lr}
    269c:	04036501 	streq	r6, [r3], #-1281	; 0x501
    26a0:	00050102 	andeq	r0, r5, r2, lsl #2
    26a4:	ad412004 	stclge	0, cr2, [r1, #-16]
    26a8:	01000003 	tsteq	r0, r3
    26ac:	0033015a 	eorseq	r0, r3, sl, asr r1
    26b0:	0f740000 	svceq	0x00740000
    26b4:	00180000 	andseq	r0, r8, r0
    26b8:	00072841 	andeq	r2, r7, r1, asr #16
    26bc:	016c0100 	cmneq	ip, r0, lsl #2
    26c0:	00000033 	andeq	r0, r0, r3, lsr r0
    26c4:	00000f86 	andeq	r0, r0, r6, lsl #31
    26c8:	50410018 	subpl	r0, r1, r8, lsl r0
    26cc:	01000008 	tsteq	r0, r8
    26d0:	0033016e 	eorseq	r0, r3, lr, ror #2
    26d4:	0f980000 	svceq	0x00980000
    26d8:	00180000 	andseq	r0, r8, r0
    26dc:	0007b441 	andeq	fp, r7, r1, asr #8
    26e0:	01750100 	cmneq	r5, r0, lsl #2
    26e4:	00000033 	andeq	r0, r0, r3, lsr r0
    26e8:	00000faa 	andeq	r0, r0, sl, lsr #31
    26ec:	6e210018 	mcrvs	0, 1, r0, cr1, cr8, {0}
    26f0:	24000001 	strcs	r0, [r0], #-1
    26f4:	00016112 	andeq	r6, r1, r2, lsl r1
    26f8:	01000004 	tsteq	r0, r4
    26fc:	0fe50162 	svceq	0x00e50162
    2700:	85220000 	strhi	r0, [r2, #-0]!
    2704:	02000001 	andeq	r0, r0, #1
    2708:	00017a23 	andeq	r7, r1, r3, lsr #20
    270c:	939e8800 	orrsls	r8, lr, #0, 16
    2710:	002479c0 	eoreq	r7, r4, r0, asr #19
    2714:	22000004 	andcs	r0, r0, #4
    2718:	00000185 	andeq	r0, r0, r5, lsl #3
    271c:	017a2302 	cmneq	sl, r2, lsl #6
    2720:	9e880000 	cdpls	0, 8, cr0, cr8, cr0, {0}
    2724:	0079c093 			; <UNDEFINED> instruction: 0x0079c093
    2728:	016e2100 	cmneq	lr, r0, lsl #2
    272c:	12340000 	eorsne	r0, r4, #0
    2730:	04200161 	strteq	r0, [r0], #-353	; 0x161
    2734:	63010000 	movwvs	r0, #4096	; 0x1000
    2738:	00102001 	andseq	r2, r0, r1
    273c:	01852200 	orreq	r2, r5, r0, lsl #4
    2740:	23000000 	movwcs	r0, #0
    2744:	0000017a 	andeq	r0, r0, sl, ror r1
    2748:	c0939f80 	addsgt	r9, r3, r0, lsl #31
    274c:	04202479 	strteq	r2, [r0], #-1145	; 0x479
    2750:	85220000 	strhi	r0, [r2, #-0]!
    2754:	00000001 	andeq	r0, r0, r1
    2758:	00017a23 	andeq	r7, r1, r3, lsr #20
    275c:	939f8000 	orrsls	r8, pc, #0
    2760:	000079c0 	andeq	r7, r0, r0, asr #19
    2764:	00016e21 	andeq	r6, r1, r1, lsr #28
    2768:	6112bc00 	tstvs	r2, r0, lsl #24
    276c:	00043801 	andeq	r3, r4, r1, lsl #16
    2770:	01810100 	orreq	r0, r1, r0, lsl #2
    2774:	0000105f 	andeq	r1, r0, pc, asr r0
    2778:	00018527 	andeq	r8, r1, r7, lsr #10
    277c:	00237800 	eoreq	r7, r3, r0, lsl #16
    2780:	017a2700 	cmneq	sl, r0, lsl #14
    2784:	23af0000 			; <UNDEFINED> instruction: 0x23af0000
    2788:	38240000 	stmdacc	r4!, {}	; <UNPREDICTABLE>
    278c:	27000004 	strcs	r0, [r0, -r4]
    2790:	00000185 	andeq	r0, r0, r5, lsl #3
    2794:	00002378 	andeq	r2, r0, r8, ror r3
    2798:	00017a27 	andeq	r7, r1, r7, lsr #20
    279c:	0023af00 	eoreq	sl, r3, r0, lsl #30
    27a0:	2b000000 	blcs	27a8 <_back_addr-0x160d858>
    27a4:	00000152 	andeq	r0, r0, r2, asr r1
    27a8:	016112d4 	ldrdeq	r1, [r1, #-36]!	; 0xffffffdc
    27ac:	00000004 	andeq	r0, r0, r4
    27b0:	90018501 	andls	r8, r1, r1, lsl #10
    27b4:	27000010 	smladcs	r0, r0, r0, r0
    27b8:	00000162 	andeq	r0, r0, r2, ror #2
    27bc:	000023c7 	andeq	r2, r0, r7, asr #7
    27c0:	6112d42c 	tstvs	r2, ip, lsr #8
    27c4:	00000401 	andeq	r0, r0, r1, lsl #8
    27c8:	01622700 	cmneq	r2, r0, lsl #14
    27cc:	23c70000 	biccs	r0, r7, #0
    27d0:	00000000 	andeq	r0, r0, r0
    27d4:	00016e2b 	andeq	r6, r1, fp, lsr #28
    27d8:	6112dc00 	tstvs	r2, r0, lsl #24
    27dc:	00000401 	andeq	r0, r0, r1, lsl #8
    27e0:	01850100 	orreq	r0, r5, r0, lsl #2
    27e4:	000010d3 	ldrdeq	r1, [r0], -r3
    27e8:	00018527 	andeq	r8, r1, r7, lsr #10
    27ec:	0023df00 	eoreq	sp, r3, r0, lsl #30
    27f0:	017a2700 	cmneq	sl, r0, lsl #14
    27f4:	23ff0000 	mvnscs	r0, #0
    27f8:	dc2c0000 	stcle	0, cr0, [ip], #-0
    27fc:	04016112 	streq	r6, [r1], #-274	; 0x112
    2800:	27000000 	strcs	r0, [r0, -r0]
    2804:	00000185 	andeq	r0, r0, r5, lsl #3
    2808:	000023df 	ldrdeq	r2, [r0], -pc	; <UNPREDICTABLE>
    280c:	00017a27 	andeq	r7, r1, r7, lsr #20
    2810:	0023ff00 	eoreq	pc, r3, r0, lsl #30
    2814:	21000000 	mrscs	r0, (UNDEF: 0)
    2818:	00000152 	andeq	r0, r0, r2, asr r1
    281c:	016112e0 	cmneq	r1, r0, ror #5
    2820:	00000450 	andeq	r0, r0, r0, asr r4
    2824:	00018601 	andeq	r8, r1, r1, lsl #12
    2828:	27000011 	smladcs	r0, r1, r0, r0
    282c:	00000162 	andeq	r0, r0, r2, ror #2
    2830:	00002417 	andeq	r2, r0, r7, lsl r4
    2834:	00045024 	andeq	r5, r4, r4, lsr #32
    2838:	01622700 	cmneq	r2, r0, lsl #14
    283c:	24170000 	ldrcs	r0, [r7], #-0
    2840:	00000000 	andeq	r0, r0, r0
    2844:	6113542d 	tstvs	r3, sp, lsr #8
    2848:	00001001 	andeq	r1, r0, r1
    284c:	00113300 	andseq	r3, r1, r0, lsl #6
    2850:	02d14100 	sbcseq	r4, r1, #0, 2
    2854:	8a010000 	bhi	4285c <_back_addr-0x15cd7a4>
    2858:	00003301 	andeq	r3, r0, r1, lsl #6
    285c:	00111f00 	andseq	r1, r1, r0, lsl #30
    2860:	1f001800 	svcne	0x00001800
    2864:	01611360 	cmneq	r1, r0, ror #6
    2868:	000013f2 	strdeq	r1, [r0], -r2
    286c:	0550011e 	ldrbeq	r0, [r0, #-286]	; 0x11e
    2870:	6125bc03 	teqvs	r5, r3, lsl #24
    2874:	2e000001 	cdpcs	0, 0, cr0, cr0, cr1, {0}
    2878:	01611224 	cmneq	r1, r4, lsr #4
    287c:	000013b2 			; <UNDEFINED> instruction: 0x000013b2
    2880:	6112581d 	tstvs	r2, sp, lsl r8
    2884:	00140401 	andseq	r0, r4, r1, lsl #8
    2888:	00115700 	andseq	r5, r1, r0, lsl #14
    288c:	51011e00 	tstpl	r1, r0, lsl #28
    2890:	1e007502 	cfsh32ne	mvfx7, mvfx0, #2
    2894:	0a035201 	beq	d70a0 <_back_addr-0x1538f60>
    2898:	1d000100 	stfnes	f0, [r0, #-0]
    289c:	01611268 	cmneq	r1, r8, ror #4
    28a0:	000013c4 	andeq	r1, r0, r4, asr #7
    28a4:	0000116c 	andeq	r1, r0, ip, ror #2
    28a8:	0351011e 	cmpeq	r1, #-2147483641	; 0x80000007
    28ac:	0001000a 	andeq	r0, r1, sl
    28b0:	6112781d 	tstvs	r2, sp, lsl r8
    28b4:	00141601 	andseq	r1, r4, r1, lsl #12
    28b8:	00118c00 	andseq	r8, r1, r0, lsl #24
    28bc:	50011e00 	andpl	r1, r1, r0, lsl #28
    28c0:	1e007d02 	cdpne	13, 0, cr7, cr0, cr2, {0}
    28c4:	30015101 	andcc	r5, r1, r1, lsl #2
    28c8:	0352011e 	cmpeq	r2, #-2147483641	; 0x80000007
    28cc:	0001000a 	andeq	r0, r1, sl
    28d0:	6112981d 	tstvs	r2, sp, lsl r8
    28d4:	00140401 	andseq	r0, r4, r1, lsl #8
    28d8:	0011a700 	andseq	sl, r1, r0, lsl #14
    28dc:	51011e00 	tstpl	r1, r0, lsl #28
    28e0:	1e007d02 	cdpne	13, 0, cr7, cr0, cr2, {0}
    28e4:	0a035201 	beq	d70f0 <_back_addr-0x1538f10>
    28e8:	1d000100 	stfnes	f0, [r0, #-0]
    28ec:	016112ac 	cmneq	r1, ip, lsr #5
    28f0:	00001404 	andeq	r1, r0, r4, lsl #8
    28f4:	000011c2 	andeq	r1, r0, r2, asr #3
    28f8:	0251011e 	subseq	r0, r1, #-2147483641	; 0x80000007
    28fc:	011e0074 	tsteq	lr, r4, ror r0
    2900:	000a0352 	andeq	r0, sl, r2, asr r3
    2904:	c81d0001 	ldmdagt	sp, {r0}
    2908:	04016112 	streq	r6, [r1], #-274	; 0x112
    290c:	de000014 	mcrle	0, 0, r0, cr0, cr4, {0}
    2910:	1e000011 	mcrne	0, 0, r0, cr0, cr1, {0}
    2914:	74035101 	strvc	r5, [r3], #-257	; 0x101
    2918:	011e0280 	tsteq	lr, r0, lsl #5
    291c:	000a0352 	andeq	r0, sl, r2, asr r3
    2920:	041d0001 	ldreq	r0, [sp], #-1
    2924:	a0016113 	andge	r6, r1, r3, lsl r1
    2928:	f1000013 	cps	#19
    292c:	1e000011 	mcrne	0, 0, r0, cr0, cr1, {0}
    2930:	31015001 	tstcc	r1, r1
    2934:	13281d00 	teqne	r8, #0, 26
    2938:	14040161 	strne	r0, [r4], #-353	; 0x161
    293c:	120b0000 	andne	r0, fp, #0
    2940:	011e0000 	tsteq	lr, r0
    2944:	00760250 	rsbseq	r0, r6, r0, asr r2
    2948:	0252011e 	subseq	r0, r2, #-2147483641	; 0x80000007
    294c:	1d002008 	stcne	0, cr2, [r0, #-32]	; 0xffffffe0
    2950:	01611334 	cmneq	r1, r4, lsr r3
    2954:	000013c4 	andeq	r1, r0, r4, asr #7
    2958:	00001225 	andeq	r1, r0, r5, lsr #4
    295c:	0250011e 	subseq	r0, r0, #-2147483641	; 0x80000007
    2960:	011e0076 	tsteq	lr, r6, ror r0
    2964:	00740251 	rsbseq	r0, r4, r1, asr r2
    2968:	133c1d00 	teqne	ip, #0, 26
    296c:	07670161 	strbeq	r0, [r7, -r1, ror #2]!
    2970:	12390000 	eorsne	r0, r9, #0
    2974:	011e0000 	tsteq	lr, r0
    2978:	00760250 	rsbseq	r0, r6, r0, asr r2
    297c:	13481d00 	movtne	r1, #36096	; 0x8d00
    2980:	13c40161 	bicne	r0, r4, #1073741848	; 0x40000018
    2984:	12530000 	subsne	r0, r3, #0
    2988:	011e0000 	tsteq	lr, r0
    298c:	00760250 	rsbseq	r0, r6, r0, asr r2
    2990:	0251011e 	subseq	r0, r1, #-2147483641	; 0x80000007
    2994:	1f000074 	svcne	0x00000074
    2998:	01611380 	cmneq	r1, r0, lsl #7
    299c:	00001428 	andeq	r1, r0, r8, lsr #8
    29a0:	0250011e 	subseq	r0, r0, #-2147483641	; 0x80000007
    29a4:	011e0075 	tsteq	lr, r5, ror r0
    29a8:	40080252 	andmi	r0, r8, r2, asr r2
    29ac:	53080000 	movwpl	r0, #32768	; 0x8000
    29b0:	7a000000 	bvc	29b8 <_back_addr-0x160d648>
    29b4:	09000012 	stmdbeq	r0, {r1, r4}
    29b8:	00000025 	andeq	r0, r0, r5, lsr #32
    29bc:	5a08003f 	bpl	202ac0 <_back_addr-0x140d540>
    29c0:	8a000000 	bhi	29c8 <_back_addr-0x160d638>
    29c4:	09000012 	stmdbeq	r0, {r1, r4}
    29c8:	00000025 	andeq	r0, r0, r5, lsr #32
    29cc:	7a070012 	bvc	1c2a1c <_back_addr-0x144d5e4>
    29d0:	3c000012 	stccc	0, cr0, [r0], {18}
    29d4:	0000024f 	andeq	r0, r0, pc, asr #4
    29d8:	33019601 	movwcc	r9, #5633	; 0x1601
    29dc:	84000000 	strhi	r0, [r0], #-0
    29e0:	08016113 	stmdaeq	r1, {r0, r1, r4, r8, sp, lr}
    29e4:	01000001 	tsteq	r0, r1
    29e8:	00130b9c 	mulseq	r3, ip, fp
    29ec:	078c3d00 	streq	r3, [ip, r0, lsl #26]
    29f0:	96010000 	strls	r0, [r1], -r0
    29f4:	000ad301 	andeq	sp, sl, r1, lsl #6
    29f8:	00242f00 	eoreq	r2, r4, r0, lsl #30
    29fc:	07cf3d00 	strbeq	r3, [pc, r0, lsl #26]
    2a00:	96010000 	strls	r0, [r1], -r0
    2a04:	00005301 	andeq	r5, r0, r1, lsl #6
    2a08:	00248b00 	eoreq	r8, r4, r0, lsl #22
    2a0c:	071f3d00 	ldreq	r3, [pc, -r0, lsl #26]
    2a10:	96010000 	strls	r0, [r1], -r0
    2a14:	000ad301 	andeq	sp, sl, r1, lsl #6
    2a18:	0024ce00 	eoreq	ip, r4, r0, lsl #28
    2a1c:	76693e00 	strbtvc	r3, [r9], -r0, lsl #28
    2a20:	01960100 	orrseq	r0, r6, r0, lsl #2
    2a24:	00000ad9 	ldrdeq	r0, [r0], -r9
    2a28:	00002511 	andeq	r2, r0, r1, lsl r5
    2a2c:	00085c3f 	andeq	r5, r8, pc, lsr ip
    2a30:	01980100 	orrseq	r0, r8, r0, lsl #2
    2a34:	000001d5 	ldrdeq	r0, [r0], -r5
    2a38:	00002548 	andeq	r2, r0, r8, asr #10
    2a3c:	6113b02e 	tstvs	r3, lr, lsr #32
    2a40:	00020201 	andeq	r0, r2, r1, lsl #4
    2a44:	14203900 	strtne	r3, [r0], #-2304	; 0x900
    2a48:	01910161 	orrseq	r0, r1, r1, ror #2
    2a4c:	42000000 	andmi	r0, r0, #0
    2a50:	00000702 	andeq	r0, r0, r2, lsl #14
    2a54:	8c02e601 	stchi	6, cr14, [r2], {1}
    2a58:	28016114 	stmdacs	r1, {r2, r4, r8, sp, lr}
    2a5c:	01000000 	mrseq	r0, (UNDEF: 0)
    2a60:	00134e9c 	mulseq	r3, ip, lr
    2a64:	07723d00 	ldrbeq	r3, [r2, -r0, lsl #26]!
    2a68:	e6010000 	str	r0, [r1], -r0
    2a6c:	000ad302 	andeq	sp, sl, r2, lsl #6
    2a70:	00258700 	eoreq	r8, r5, r0, lsl #14
    2a74:	044f1c00 	strbeq	r1, [pc], #-3072	; 2a7c <_back_addr-0x160d584>
    2a78:	e8010000 	stmda	r1, {}	; <UNPREDICTABLE>
    2a7c:	00006f02 	andeq	r6, r0, r2, lsl #30
    2a80:	20510100 	subscs	r0, r1, r0, lsl #2
    2a84:	e9010069 	stmdb	r1, {r0, r3, r5, r6}
    2a88:	00005302 	andeq	r5, r0, r2, lsl #6
    2a8c:	0025a800 	eoreq	sl, r5, r0, lsl #16
    2a90:	54430000 	strbpl	r0, [r3], #-0
    2a94:	06000004 	streq	r0, [r0], -r4
    2a98:	00ac01f6 	strdeq	r0, [ip], r6	; <UNPREDICTABLE>
    2a9c:	c2440000 	subgt	r0, r4, #0
    2aa0:	01000002 	tsteq	r0, r2
    2aa4:	00005328 	andeq	r5, r0, r8, lsr #6
    2aa8:	b8030500 	stmdalt	r3, {r8, sl}
    2aac:	4401622b 	strmi	r6, [r1], #-555	; 0x22b
    2ab0:	0000077d 	andeq	r0, r0, sp, ror r7
    2ab4:	137c2901 	cmnne	ip, #16384	; 0x4000
    2ab8:	03050000 	movweq	r0, #20480	; 0x5000
    2abc:	01612594 			; <UNDEFINED> instruction: 0x01612594
    2ac0:	00013707 	andeq	r3, r1, r7, lsl #14
    2ac4:	02bb4500 	adcseq	r4, fp, #0, 10
    2ac8:	47070000 	strmi	r0, [r7, -r0]
    2acc:	0000008f 	andeq	r0, r0, pc, lsl #1
    2ad0:	000013a0 	andeq	r1, r0, r0, lsr #7
    2ad4:	00008f46 	andeq	r8, r0, r6, asr #30
    2ad8:	00334600 	eorseq	r4, r3, r0, lsl #12
    2adc:	48460000 	stmdami	r6, {}^	; <UNPREDICTABLE>
    2ae0:	00000000 	andeq	r0, r0, r0
    2ae4:	00081847 	andeq	r1, r8, r7, asr #16
    2ae8:	030d0800 	movweq	r0, #55296	; 0xd800
    2aec:	000013b2 			; <UNDEFINED> instruction: 0x000013b2
    2af0:	00002c46 	andeq	r2, r0, r6, asr #24
    2af4:	ad410000 	stclge	0, cr0, [r1, #-0]
    2af8:	01000003 	tsteq	r0, r3
    2afc:	0033015a 	eorseq	r0, r3, sl, asr r1
    2b00:	13c40000 	bicne	r0, r4, #0
    2b04:	00180000 	andseq	r0, r8, r0
    2b08:	00028f47 	andeq	r8, r2, r7, asr #30
    2b0c:	02f00800 	rscseq	r0, r0, #0, 16
    2b10:	000013db 	ldrdeq	r1, [r0], -fp
    2b14:	00002c46 	andeq	r2, r0, r6, asr #24
    2b18:	002c4600 	eoreq	r4, ip, r0, lsl #12
    2b1c:	48000000 	stmdami	r0, {}	; <UNPREDICTABLE>
    2b20:	00000366 	andeq	r0, r0, r6, ror #6
    2b24:	33034d08 	movwcc	r4, #15624	; 0x3d08
    2b28:	f2000000 	vhadd.s8	d0, d0, d0
    2b2c:	46000013 			; <UNDEFINED> instruction: 0x46000013
    2b30:	00000091 	muleq	r0, r1, r0
    2b34:	d1410018 	cmple	r1, r8, lsl r0
    2b38:	01000002 	tsteq	r0, r2
    2b3c:	0033018a 	eorseq	r0, r3, sl, lsl #3
    2b40:	14040000 	strne	r0, [r4], #-0
    2b44:	00180000 	andseq	r0, r8, r0
    2b48:	00085041 	andeq	r5, r8, r1, asr #32
    2b4c:	016e0100 	cmneq	lr, r0, lsl #2
    2b50:	00000033 	andeq	r0, r0, r3, lsr r0
    2b54:	00001416 	andeq	r1, r0, r6, lsl r4
    2b58:	b4410018 	strblt	r0, [r1], #-24
    2b5c:	01000007 	tsteq	r0, r7
    2b60:	00330175 	eorseq	r0, r3, r5, ror r1
    2b64:	14280000 	strtne	r0, [r8], #-0
    2b68:	00180000 	andseq	r0, r8, r0
    2b6c:	00072817 	andeq	r2, r7, r7, lsl r8
    2b70:	016c0100 	cmneq	ip, r0, lsl #2
    2b74:	00000033 	andeq	r0, r0, r3, lsr r0
    2b78:	eb000018 	bl	2be0 <_back_addr-0x160d420>
    2b7c:	04000002 	streq	r0, [r0], #-2
    2b80:	000bb300 	andeq	fp, fp, r0, lsl #6
    2b84:	ab010400 	blge	43b8c <_back_addr-0x15cc474>
    2b88:	01000000 	mrseq	r0, (UNDEF: 0)
    2b8c:	000008af 	andeq	r0, r0, pc, lsr #17
    2b90:	00000377 	andeq	r0, r0, r7, ror r3
    2b94:	016114b4 	strheq	r1, [r1, #-68]!	; 0xffffffbc
    2b98:	00000168 	andeq	r0, r0, r8, ror #2
    2b9c:	00000a0b 	andeq	r0, r0, fp, lsl #20
    2ba0:	00091902 	andeq	r1, r9, r2, lsl #18
    2ba4:	30b00200 	adcscc	r0, r0, r0, lsl #4
    2ba8:	03000000 	movweq	r0, #0
    2bac:	00100801 	andseq	r0, r0, r1, lsl #16
    2bb0:	01030000 	mrseq	r0, (UNDEF: 3)
    2bb4:	00001206 	andeq	r1, r0, r6, lsl #4
    2bb8:	07020300 	streq	r0, [r2, -r0, lsl #6]
    2bbc:	0000001e 	andeq	r0, r0, lr, lsl r0
    2bc0:	a1050203 	tstge	r5, r3, lsl #4
    2bc4:	02000000 	andeq	r0, r0, #0
    2bc8:	00000281 	andeq	r0, r0, r1, lsl #5
    2bcc:	0057b402 	subseq	fp, r7, r2, lsl #8
    2bd0:	04030000 	streq	r0, [r3], #-0
    2bd4:	00008607 	andeq	r8, r0, r7, lsl #12
    2bd8:	05040400 	streq	r0, [r4, #-1024]	; 0x400
    2bdc:	00746e69 	rsbseq	r6, r4, r9, ror #28
    2be0:	7c070803 	stcvc	8, cr0, [r7], {3}
    2be4:	03000000 	movweq	r0, #0
    2be8:	00930508 	addseq	r0, r3, r8, lsl #10
    2bec:	9c020000 	stcls	0, cr0, [r2], {-0}
    2bf0:	02000008 	andeq	r0, r0, #8
    2bf4:	000025b8 			; <UNDEFINED> instruction: 0x000025b8
    2bf8:	07040300 	streq	r0, [r4, -r0, lsl #6]
    2bfc:	00000081 	andeq	r0, r0, r1, lsl #1
    2c00:	00090f05 	andeq	r0, r9, r5, lsl #30
    2c04:	4c130100 	ldfmis	f0, [r3], {-0}
    2c08:	01000000 	mrseq	r0, (UNDEF: 0)
    2c0c:	000000ac 	andeq	r0, r0, ip, lsr #1
    2c10:	0008c406 	andeq	ip, r8, r6, lsl #8
    2c14:	57130100 	ldrpl	r0, [r3, -r0, lsl #2]
    2c18:	06000000 	streq	r0, [r0], -r0
    2c1c:	00000908 	andeq	r0, r0, r8, lsl #18
    2c20:	00571301 	subseq	r1, r7, r1, lsl #6
    2c24:	05000000 	streq	r0, [r0, #-0]
    2c28:	000008a1 	andeq	r0, r0, r1, lsr #17
    2c2c:	00733d01 	rsbseq	r3, r3, r1, lsl #26
    2c30:	de010000 	cdple	0, 0, cr0, cr1, cr0, {0}
    2c34:	06000000 	streq	r0, [r0], -r0
    2c38:	000008c4 	andeq	r0, r0, r4, asr #17
    2c3c:	004c3d01 	subeq	r3, ip, r1, lsl #26
    2c40:	f8060000 			; <UNDEFINED> instruction: 0xf8060000
    2c44:	01000008 	tsteq	r0, r8
    2c48:	00004c3d 	andeq	r4, r0, sp, lsr ip
    2c4c:	08fe0700 	ldmeq	lr!, {r8, r9, sl}^
    2c50:	3f010000 	svccc	0x00010000
    2c54:	00000073 	andeq	r0, r0, r3, ror r0
    2c58:	00850800 	addeq	r0, r5, r0, lsl #16
    2c5c:	14b40000 	ldrtne	r0, [r4], #0
    2c60:	00580161 	subseq	r0, r8, r1, ror #2
    2c64:	9c010000 	stcls	0, cr0, [r1], {-0}
    2c68:	00000118 	andeq	r0, r0, r8, lsl r1
    2c6c:	00009509 	andeq	r9, r0, r9, lsl #10
    2c70:	0025f500 	eoreq	pc, r5, r0, lsl #10
    2c74:	00a00a00 	adceq	r0, r0, r0, lsl #20
    2c78:	51010000 	mrspl	r0, (UNDEF: 1)
    2c7c:	0004680b 	andeq	r6, r4, fp, lsl #16
    2c80:	00a00a00 	adceq	r0, r0, r0, lsl #20
    2c84:	51010000 	mrspl	r0, (UNDEF: 1)
    2c88:	00009509 	andeq	r9, r0, r9, lsl #10
    2c8c:	00263c00 	eoreq	r3, r6, r0, lsl #24
    2c90:	0c000000 	stceq	0, cr0, [r0], {-0}
    2c94:	000008b7 			; <UNDEFINED> instruction: 0x000008b7
    2c98:	004c2e01 	subeq	r2, ip, r1, lsl #28
    2c9c:	150c0000 	strne	r0, [ip, #-0]
    2ca0:	002c0161 	eoreq	r0, ip, r1, ror #2
    2ca4:	9c010000 	stcls	0, cr0, [r1], {-0}
    2ca8:	00000141 	andeq	r0, r0, r1, asr #2
    2cac:	0008c40d 	andeq	ip, r8, sp, lsl #8
    2cb0:	4c2e0100 	stfmis	f0, [lr], #-0
    2cb4:	6a000000 	bvs	2cbc <_back_addr-0x160d344>
    2cb8:	00000026 	andeq	r0, r0, r6, lsr #32
    2cbc:	0000ac08 	andeq	sl, r0, r8, lsl #24
    2cc0:	61153800 	tstvs	r5, r0, lsl #16
    2cc4:	00003001 	andeq	r3, r0, r1
    2cc8:	949c0100 	ldrls	r0, [ip], #256	; 0x100
    2ccc:	09000001 	stmdbeq	r0, {r0}
    2cd0:	000000bc 	strheq	r0, [r0], -ip
    2cd4:	0000268b 	andeq	r2, r0, fp, lsl #13
    2cd8:	0000c70a 	andeq	ip, r0, sl, lsl #14
    2cdc:	0e510100 	rdfeqs	f0, f1, f0
    2ce0:	000000d2 	ldrdeq	r0, [r0], -r2
    2ce4:	15480f00 	strbne	r0, [r8, #-3840]	; 0xf00
    2ce8:	00140161 	andseq	r0, r4, r1, ror #2
    2cec:	c70a0000 	strgt	r0, [sl, -r0]
    2cf0:	01000000 	mrseq	r0, (UNDEF: 0)
    2cf4:	00bc0951 	adcseq	r0, ip, r1, asr r9
    2cf8:	26c50000 	strbcs	r0, [r5], r0
    2cfc:	480f0000 	stmdami	pc, {}	; <UNPREDICTABLE>
    2d00:	14016115 	strne	r6, [r1], #-277	; 0x115
    2d04:	10000000 	andne	r0, r0, r0
    2d08:	000000d2 	ldrdeq	r0, [r0], -r2
    2d0c:	11000000 	mrsne	r0, (UNDEF: 0)
    2d10:	00000818 	andeq	r0, r0, r8, lsl r8
    2d14:	15685e01 	strbne	r5, [r8, #-3585]!	; 0xe01
    2d18:	005c0161 	subseq	r0, ip, r1, ror #2
    2d1c:	9c010000 	stcls	0, cr0, [r1], {-0}
    2d20:	00000243 	andeq	r0, r0, r3, asr #4
    2d24:	0008d30d 	andeq	sp, r8, sp, lsl #6
    2d28:	575e0100 	ldrbpl	r0, [lr, -r0, lsl #2]
    2d2c:	f3000000 	vhadd.u8	d0, d0, d0
    2d30:	12000026 	andne	r0, r0, #38	; 0x26
    2d34:	000008ee 	andeq	r0, r0, lr, ror #17
    2d38:	004c6001 	subeq	r6, ip, r1
    2d3c:	27140000 	ldrcs	r0, [r4, -r0]
    2d40:	85130000 	ldrhi	r0, [r3, #-0]
    2d44:	7c000000 	stcvc	0, cr0, [r0], {-0}
    2d48:	80016115 	andhi	r6, r1, r5, lsl r1
    2d4c:	01000004 	tsteq	r0, r4
    2d50:	0001fb68 	andeq	pc, r1, r8, ror #22
    2d54:	00a00a00 	adceq	r0, r0, r0, lsl #20
    2d58:	51010000 	mrspl	r0, (UNDEF: 1)
    2d5c:	00009514 	andeq	r9, r0, r4, lsl r5
    2d60:	800b0000 	andhi	r0, fp, r0
    2d64:	0a000004 	beq	2d7c <_back_addr-0x160d284>
    2d68:	000000a0 	andeq	r0, r0, r0, lsr #1
    2d6c:	95145101 	ldrls	r5, [r4, #-257]	; 0x101
    2d70:	00000000 	andeq	r0, r0, r0
    2d74:	ac150000 	ldcge	0, cr0, [r5], {-0}
    2d78:	98000000 	stmdals	r0, {}	; <UNPREDICTABLE>
    2d7c:	a0016115 	andge	r6, r1, r5, lsl r1
    2d80:	01000004 	tsteq	r0, r4
    2d84:	00c70a6b 	sbceq	r0, r7, fp, ror #20
    2d88:	51010000 	mrspl	r0, (UNDEF: 1)
    2d8c:	0000bc14 	andeq	fp, r0, r4, lsl ip
    2d90:	a00b0000 	andge	r0, fp, r0
    2d94:	0e000004 	cdpeq	0, 0, cr0, cr0, cr4, {0}
    2d98:	000000d2 	ldrdeq	r0, [r0], -r2
    2d9c:	04a00b00 	strteq	r0, [r0], #2816	; 0xb00
    2da0:	c70a0000 	strgt	r0, [sl, -r0]
    2da4:	01000000 	mrseq	r0, (UNDEF: 0)
    2da8:	00bc1451 	adcseq	r1, ip, r1, asr r4
    2dac:	0b000000 	bleq	2db4 <_back_addr-0x160d24c>
    2db0:	000004a0 	andeq	r0, r0, r0, lsr #9
    2db4:	0000d210 	andeq	sp, r0, r0, lsl r2
    2db8:	00000000 	andeq	r0, r0, r0
    2dbc:	cc160000 	ldcgt	0, cr0, [r6], {-0}
    2dc0:	01000008 	tsteq	r0, r8
    2dc4:	6115c46d 	tstvs	r5, sp, ror #8
    2dc8:	00005801 	andeq	r5, r0, r1, lsl #16
    2dcc:	0d9c0100 	ldfeqs	f0, [ip]
    2dd0:	000008e0 	andeq	r0, r0, r0, ror #17
    2dd4:	00576d01 	subseq	r6, r7, r1, lsl #26
    2dd8:	27330000 	ldrcs	r0, [r3, -r0]!
    2ddc:	ee120000 	cdp	0, 1, cr0, cr2, cr0, {0}
    2de0:	01000008 	tsteq	r0, r8
    2de4:	00004c6f 	andeq	r4, r0, pc, ror #24
    2de8:	00275400 	eoreq	r5, r7, r0, lsl #8
    2dec:	00851300 	addeq	r1, r5, r0, lsl #6
    2df0:	15d40000 	ldrbne	r0, [r4]
    2df4:	04b80161 	ldrteq	r0, [r8], #353	; 0x161
    2df8:	75010000 	strvc	r0, [r1, #-0]
    2dfc:	000002a6 	andeq	r0, r0, r6, lsr #5
    2e00:	0000a00a 	andeq	sl, r0, sl
    2e04:	14510100 	ldrbne	r0, [r1], #-256	; 0x100
    2e08:	00000095 	muleq	r0, r5, r0
    2e0c:	04b80b00 	ldrteq	r0, [r8], #2816	; 0xb00
    2e10:	a00a0000 	andge	r0, sl, r0
    2e14:	01000000 	mrseq	r0, (UNDEF: 0)
    2e18:	00951451 	addseq	r1, r5, r1, asr r4
    2e1c:	00000000 	andeq	r0, r0, r0
    2e20:	00ac1500 	adceq	r1, ip, r0, lsl #10
    2e24:	15f00000 	ldrbne	r0, [r0, #0]!
    2e28:	04d80161 	ldrbeq	r0, [r8], #353	; 0x161
    2e2c:	78010000 	stmdavc	r1, {}	; <UNPREDICTABLE>
    2e30:	0000c70a 	andeq	ip, r0, sl, lsl #14
    2e34:	14510100 	ldrbne	r0, [r1], #-256	; 0x100
    2e38:	000000bc 	strheq	r0, [r0], -ip
    2e3c:	04d80b00 	ldrbeq	r0, [r8], #2816	; 0xb00
    2e40:	d20e0000 	andle	r0, lr, #0
    2e44:	00000000 	andeq	r0, r0, r0
    2e48:	0004d80b 	andeq	sp, r4, fp, lsl #16
    2e4c:	00c70a00 	sbceq	r0, r7, r0, lsl #20
    2e50:	51010000 	mrspl	r0, (UNDEF: 1)
    2e54:	0000bc14 	andeq	fp, r0, r4, lsl ip
    2e58:	d80b0000 	stmdale	fp, {}	; <UNPREDICTABLE>
    2e5c:	10000004 	andne	r0, r0, r4
    2e60:	000000d2 	ldrdeq	r0, [r0], -r2
    2e64:	00000000 	andeq	r0, r0, r0
    2e68:	0d500000 	ldcleq	0, cr0, [r0, #-0]
    2e6c:	00040000 	andeq	r0, r4, r0
    2e70:	00000cf2 	strdeq	r0, [r0], -r2
    2e74:	00ab0104 	adceq	r0, fp, r4, lsl #2
    2e78:	71010000 	mrsvc	r0, (UNDEF: 1)
    2e7c:	77000009 	strvc	r0, [r0, -r9]
    2e80:	1c000003 	stcne	0, cr0, [r0], {3}
    2e84:	c8016116 	stmdagt	r1, {r1, r2, r4, r8, sp, lr}
    2e88:	1e000004 	cdpne	0, 0, cr0, cr0, cr4, {0}
    2e8c:	0200000b 	andeq	r0, r0, #11
    2e90:	00000919 	andeq	r0, r0, r9, lsl r9
    2e94:	0030b002 	eorseq	fp, r0, r2
    2e98:	01030000 	mrseq	r0, (UNDEF: 3)
    2e9c:	00001008 	andeq	r1, r0, r8
    2ea0:	06010300 	streq	r0, [r1], -r0, lsl #6
    2ea4:	00000012 	andeq	r0, r0, r2, lsl r0
    2ea8:	1e070203 	cdpne	2, 0, cr0, cr7, cr3, {0}
    2eac:	03000000 	movweq	r0, #0
    2eb0:	00a10502 	adceq	r0, r1, r2, lsl #10
    2eb4:	81020000 	mrshi	r0, (UNDEF: 2)
    2eb8:	02000002 	andeq	r0, r0, #2
    2ebc:	000057b4 			; <UNDEFINED> instruction: 0x000057b4
    2ec0:	07040300 	streq	r0, [r4, -r0, lsl #6]
    2ec4:	00000086 	andeq	r0, r0, r6, lsl #1
    2ec8:	69050404 	stmdbvs	r5, {r2, sl}
    2ecc:	0300746e 	movweq	r7, #1134	; 0x46e
    2ed0:	007c0708 	rsbseq	r0, ip, r8, lsl #14
    2ed4:	08030000 	stmdaeq	r3, {}	; <UNPREDICTABLE>
    2ed8:	00009305 	andeq	r9, r0, r5, lsl #6
    2edc:	07040300 	streq	r0, [r4, -r0, lsl #6]
    2ee0:	00000081 	andeq	r0, r0, r1, lsl #1
    2ee4:	00088402 	andeq	r8, r8, r2, lsl #8
    2ee8:	73e50200 	mvnvc	r0, #0, 4
    2eec:	05000000 	streq	r0, [r0, #-0]
    2ef0:	00008b04 	andeq	r8, r0, r4, lsl #22
    2ef4:	00900600 	addseq	r0, r0, r0, lsl #12
    2ef8:	01030000 	mrseq	r0, (UNDEF: 3)
    2efc:	00001908 	andeq	r1, r0, r8, lsl #18
    2f00:	03040700 	movweq	r0, #18176	; 0x4700
    2f04:	0000be2f 	andeq	fp, r0, pc, lsr #28
    2f08:	4c440800 	mcrrmi	8, 0, r0, r4, cr0
    2f0c:	3203004c 	andcc	r0, r3, #76	; 0x4c
    2f10:	0000004c 	andeq	r0, r0, ip, asr #32
    2f14:	00180804 	andseq	r0, r8, r4, lsl #16
    2f18:	00094409 	andeq	r4, r9, r9, lsl #8
    2f1c:	4c330300 	ldcmi	3, cr0, [r3], #-0
    2f20:	04000000 	streq	r0, [r0], #-0
    2f24:	00000018 	andeq	r0, r0, r8, lsl r0
    2f28:	37030407 	strcc	r0, [r3, -r7, lsl #8]
    2f2c:	000000e5 	andeq	r0, r0, r5, ror #1
    2f30:	44425208 	strbmi	r5, [r2], #-520	; 0x208
    2f34:	4c3a0300 	ldcmi	3, cr0, [sl], #-0
    2f38:	04000000 	streq	r0, [r0], #-0
    2f3c:	09001808 	stmdbeq	r0, {r3, fp, ip}
    2f40:	00000944 	andeq	r0, r0, r4, asr #18
    2f44:	004c3b03 	subeq	r3, ip, r3, lsl #22
    2f48:	18040000 	stmdane	r4, {}	; <UNPREDICTABLE>
    2f4c:	07000000 	streq	r0, [r0, -r0]
    2f50:	0c3f0304 	ldceq	3, cr0, [pc], #-16	; 2f48 <_back_addr-0x160d0b8>
    2f54:	08000001 	stmdaeq	r0, {r0}
    2f58:	00444854 	subeq	r4, r4, r4, asr r8
    2f5c:	004c4203 	subeq	r4, ip, r3, lsl #4
    2f60:	08040000 	stmdaeq	r4, {}	; <UNPREDICTABLE>
    2f64:	44090018 	strmi	r0, [r9], #-24
    2f68:	03000009 	movweq	r0, #9
    2f6c:	00004c43 	andeq	r4, r0, r3, asr #24
    2f70:	00180400 	andseq	r0, r8, r0, lsl #8
    2f74:	390a0000 	stmdbcc	sl, {}	; <UNPREDICTABLE>
    2f78:	0400000b 	streq	r0, [r0], #-11
    2f7c:	01452c03 	cmpeq	r5, r3, lsl #24
    2f80:	5d0b0000 	stcpl	0, cr0, [fp, #-0]
    2f84:	0300000a 	movweq	r0, #10
    2f88:	00004c2e 	andeq	r4, r0, lr, lsr #24
    2f8c:	0b8e0b00 	bleq	fe385b94 <__bss_end__+0xfcd62fd4>
    2f90:	35030000 	strcc	r0, [r3, #-0]
    2f94:	00000097 	muleq	r0, r7, r0
    2f98:	00091f0b 	andeq	r1, r9, fp, lsl #30
    2f9c:	be3d0300 	cdplt	3, 3, cr0, cr13, cr0, {0}
    2fa0:	0b000000 	bleq	2fa8 <_back_addr-0x160d058>
    2fa4:	00000927 	andeq	r0, r0, r7, lsr #18
    2fa8:	00e54503 	rsceq	r4, r5, r3, lsl #10
    2fac:	02000000 	andeq	r0, r0, #0
    2fb0:	00000b3a 	andeq	r0, r0, sl, lsr fp
    2fb4:	010c4703 	tsteq	ip, r3, lsl #14
    2fb8:	04070000 	streq	r0, [r7], #-0
    2fbc:	01774c03 	cmneq	r7, r3, lsl #24
    2fc0:	44080000 	strmi	r0, [r8], #-0
    2fc4:	03004d4c 	movweq	r4, #3404	; 0xd4c
    2fc8:	00004c4f 	andeq	r4, r0, pc, asr #24
    2fcc:	18080400 	stmdane	r8, {sl}
    2fd0:	09440900 	stmdbeq	r4, {r8, fp}^
    2fd4:	50030000 	andpl	r0, r3, r0
    2fd8:	0000004c 	andeq	r0, r0, ip, asr #32
    2fdc:	00001804 	andeq	r1, r0, r4, lsl #16
    2fe0:	03040700 	movweq	r0, #18176	; 0x4700
    2fe4:	0001cb53 	andeq	ip, r1, r3, asr fp
    2fe8:	0b730900 	bleq	1cc53f0 <__bss_end__+0x6a2830>
    2fec:	56030000 	strpl	r0, [r3], -r0
    2ff0:	0000004c 	andeq	r0, r0, ip, asr #32
    2ff4:	001f0104 	andseq	r0, pc, r4, lsl #2
    2ff8:	00096b09 	andeq	r6, r9, r9, lsl #22
    2ffc:	4c570300 	mrrcmi	3, 0, r0, r7, cr0
    3000:	04000000 	streq	r0, [r0], #-0
    3004:	09001e01 	stmdbeq	r0, {r0, r9, sl, fp, ip}
    3008:	000009cb 	andeq	r0, r0, fp, asr #19
    300c:	004c5803 	subeq	r5, ip, r3, lsl #16
    3010:	01040000 	mrseq	r0, (UNDEF: 4)
    3014:	1e09001d 	mcrne	0, 0, r0, cr9, cr13, {0}
    3018:	0300000b 	movweq	r0, #11
    301c:	00004c59 	andeq	r4, r0, r9, asr ip
    3020:	1c010400 	cfstrsne	mvf0, [r1], {-0}
    3024:	09440900 	stmdbeq	r4, {r8, fp}^
    3028:	5a030000 	bpl	c3030 <_back_addr-0x154cfd0>
    302c:	0000004c 	andeq	r0, r0, ip, asr #32
    3030:	00001c04 	andeq	r1, r0, r4, lsl #24
    3034:	0b0d0a00 	bleq	34583c <_back_addr-0x12ca7c4>
    3038:	03040000 	movweq	r0, #16384	; 0x4000
    303c:	0001f949 	andeq	pc, r1, r9, asr #18
    3040:	0a5d0b00 	beq	1745c48 <__bss_end__+0x123088>
    3044:	4b030000 	blmi	c304c <_back_addr-0x154cfb4>
    3048:	0000004c 	andeq	r0, r0, ip, asr #32
    304c:	000b8e0b 	andeq	r8, fp, fp, lsl #28
    3050:	50510300 	subspl	r0, r1, r0, lsl #6
    3054:	0b000001 	bleq	3060 <_back_addr-0x160cfa0>
    3058:	0000091f 	andeq	r0, r0, pc, lsl r9
    305c:	01775b03 	cmneq	r7, r3, lsl #22
    3060:	02000000 	andeq	r0, r0, #0
    3064:	00000b0e 	andeq	r0, r0, lr, lsl #22
    3068:	01cb5d03 	biceq	r5, fp, r3, lsl #26
    306c:	04070000 	streq	r0, [r7], #-0
    3070:	02586203 	subseq	r6, r8, #805306368	; 0x30000000
    3074:	45090000 	strmi	r0, [r9, #-0]
    3078:	0300000a 	movweq	r0, #10
    307c:	00004c65 	andeq	r4, r0, r5, ror #24
    3080:	1f010400 	svcne	0x00010400
    3084:	49490800 	stmdbmi	r9, {fp}^
    3088:	67030044 	strvs	r0, [r3, -r4, asr #32]
    308c:	0000004c 	andeq	r0, r0, ip, asr #32
    3090:	001c0304 	andseq	r0, ip, r4, lsl #6
    3094:	0009d609 	andeq	sp, r9, r9, lsl #12
    3098:	4c6d0300 	stclmi	3, cr0, [sp], #-0
    309c:	04000000 	streq	r0, [r0], #-0
    30a0:	09001a02 	stmdbeq	r0, {r1, r9, fp, ip}
    30a4:	000009ea 	andeq	r0, r0, sl, ror #19
    30a8:	004c6e03 	subeq	r6, ip, r3, lsl #28
    30ac:	02040000 	andeq	r0, r4, #0
    30b0:	e0090018 	and	r0, r9, r8, lsl r0
    30b4:	03000009 	movweq	r0, #9
    30b8:	00004c71 	andeq	r4, r0, r1, ror ip
    30bc:	00180400 	andseq	r0, r8, r0, lsl #8
    30c0:	04070000 	streq	r0, [r7], #-0
    30c4:	02ca7403 	sbceq	r7, sl, #50331648	; 0x3000000
    30c8:	56090000 	strpl	r0, [r9], -r0
    30cc:	0300000b 	movweq	r0, #11
    30d0:	00004c77 	andeq	r4, r0, r7, ror ip
    30d4:	1f010400 	svcne	0x00010400
    30d8:	0a4a0900 	beq	12854e0 <_back_addr-0x38ab20>
    30dc:	7c030000 	stcvc	0, cr0, [r3], {-0}
    30e0:	0000004c 	andeq	r0, r0, ip, asr #32
    30e4:	001e0104 	andseq	r0, lr, r4, lsl #2
    30e8:	000a8909 	andeq	r8, sl, r9, lsl #18
    30ec:	4c7e0300 	ldclmi	3, cr0, [lr], #-0
    30f0:	04000000 	streq	r0, [r0], #-0
    30f4:	09001d01 	stmdbeq	r0, {r0, r8, sl, fp, ip}
    30f8:	0000094d 	andeq	r0, r0, sp, asr #18
    30fc:	004c8003 	subeq	r8, ip, r3
    3100:	01040000 	mrseq	r0, (UNDEF: 4)
    3104:	d609001c 			; <UNDEFINED> instruction: 0xd609001c
    3108:	03000009 	movweq	r0, #9
    310c:	00004c81 	andeq	r4, r0, r1, lsl #25
    3110:	1a020400 	bne	84118 <_back_addr-0x158bee8>
    3114:	0a300900 	beq	c0551c <_back_addr-0xa0aae4>
    3118:	82030000 	andhi	r0, r3, #0
    311c:	0000004c 	andeq	r0, r0, ip, asr #32
    3120:	00180204 	andseq	r0, r8, r4, lsl #4
    3124:	0009e009 	andeq	lr, r9, r9
    3128:	4c880300 	stcmi	3, cr0, [r8], {0}
    312c:	04000000 	streq	r0, [r0], #-0
    3130:	00000018 	andeq	r0, r0, r8, lsl r0
    3134:	000aa50a 	andeq	sl, sl, sl, lsl #10
    3138:	5f030400 	svcpl	0x00030400
    313c:	000002f8 	strdeq	r0, [r0], -r8
    3140:	000a5d0b 	andeq	r5, sl, fp, lsl #26
    3144:	4c610300 	stclmi	3, cr0, [r1], #-0
    3148:	0b000000 	bleq	3150 <_back_addr-0x160ceb0>
    314c:	00000b8e 	andeq	r0, r0, lr, lsl #23
    3150:	02047203 	andeq	r7, r4, #805306368	; 0x30000000
    3154:	1f0b0000 	svcne	0x000b0000
    3158:	03000009 	movweq	r0, #9
    315c:	00025889 	andeq	r5, r2, r9, lsl #17
    3160:	a6020000 	strge	r0, [r2], -r0
    3164:	0300000a 	movweq	r0, #10
    3168:	0002ca8b 	andeq	ip, r2, fp, lsl #21
    316c:	03040700 	movweq	r0, #18176	; 0x4700
    3170:	00037590 	muleq	r3, r0, r5
    3174:	4c570800 	mrrcmi	8, 0, r0, r7, cr0
    3178:	93030053 	movwls	r0, #12371	; 0x3053
    317c:	0000004c 	andeq	r0, r0, ip, asr #32
    3180:	001e0204 	andseq	r0, lr, r4, lsl #4
    3184:	50545308 	subspl	r5, r4, r8, lsl #6
    3188:	4c980300 	ldcmi	3, cr0, [r8], {0}
    318c:	04000000 	streq	r0, [r0], #-0
    3190:	08001d01 	stmdaeq	r0, {r0, r8, sl, fp, ip}
    3194:	004e4550 	subeq	r4, lr, r0, asr r5
    3198:	004c9b03 	subeq	r9, ip, r3, lsl #22
    319c:	01040000 	mrseq	r0, (UNDEF: 4)
    31a0:	4508001c 	strmi	r0, [r8, #-28]
    31a4:	03005350 	movweq	r5, #848	; 0x350
    31a8:	00004c9c 	muleq	r0, ip, ip
    31ac:	1a020400 	bne	841b4 <_back_addr-0x158be4c>
    31b0:	52420800 	subpl	r0, r2, #0, 16
    31b4:	a103004b 	tstge	r3, fp, asr #32
    31b8:	0000004c 	andeq	r0, r0, ip, asr #32
    31bc:	00190104 	andseq	r0, r9, r4, lsl #2
    31c0:	00098109 	andeq	r8, r9, r9, lsl #2
    31c4:	4ca40300 	stcmi	3, cr0, [r4]
    31c8:	04000000 	streq	r0, [r0], #-0
    31cc:	09001801 	stmdbeq	r0, {r0, fp, ip}
    31d0:	00000944 	andeq	r0, r0, r4, asr #18
    31d4:	004ca503 	subeq	sl, ip, r3, lsl #10
    31d8:	18040000 	stmdane	r4, {}	; <UNPREDICTABLE>
    31dc:	0a000000 	beq	31e4 <_back_addr-0x160ce1c>
    31e0:	000009be 			; <UNDEFINED> instruction: 0x000009be
    31e4:	988d0304 	stmls	sp, {r2, r8, r9}
    31e8:	0b000003 	bleq	31fc <_back_addr-0x160ce04>
    31ec:	00000a5d 	andeq	r0, r0, sp, asr sl
    31f0:	004c8f03 	subeq	r8, ip, r3, lsl #30
    31f4:	870b0000 	strhi	r0, [fp, -r0]
    31f8:	0300000b 	movweq	r0, #11
    31fc:	000303a6 	andeq	r0, r3, r6, lsr #7
    3200:	bf020000 	svclt	0x00020000
    3204:	03000009 	movweq	r0, #9
    3208:	000375a8 	andeq	r7, r3, r8, lsr #11
    320c:	03040700 	movweq	r0, #18176	; 0x4700
    3210:	0003f7ad 	andeq	pc, r3, sp, lsr #15
    3214:	54440800 	strbpl	r0, [r4], #-2048	; 0x800
    3218:	b0030052 	andlt	r0, r3, r2, asr r0
    321c:	0000004c 	andeq	r0, r0, ip, asr #32
    3220:	001f0104 	andseq	r0, pc, r4, lsl #2
    3224:	53545208 	cmppl	r4, #8, 4	; 0x80000000
    3228:	4cb30300 	ldcmi	3, cr0, [r3]
    322c:	04000000 	streq	r0, [r0], #-0
    3230:	09001e01 	stmdbeq	r0, {r0, r9, sl, fp, ip}
    3234:	000009d6 	ldrdeq	r0, [r0], -r6
    3238:	004cb603 	subeq	fp, ip, r3, lsl #12
    323c:	02040000 	andeq	r0, r4, #0
    3240:	e009001c 	and	r0, r9, ip, lsl r0
    3244:	03000009 	movweq	r0, #9
    3248:	00004cb7 			; <UNDEFINED> instruction: 0x00004cb7
    324c:	011b0400 	tsteq	fp, r0, lsl #8
    3250:	0a840900 	beq	fe105658 <__bss_end__+0xfcae2a98>
    3254:	b8030000 	stmdalt	r3, {}	; <UNPREDICTABLE>
    3258:	0000004c 	andeq	r0, r0, ip, asr #32
    325c:	00000104 	andeq	r0, r0, r4, lsl #2
    3260:	0b240a00 	bleq	905a68 <_back_addr-0xd0a598>
    3264:	03040000 	movweq	r0, #16384	; 0x4000
    3268:	00041aaa 	andeq	r1, r4, sl, lsr #21
    326c:	0a5d0b00 	beq	1745e74 <__bss_end__+0x1232b4>
    3270:	ac030000 	stcge	0, cr0, [r3], {-0}
    3274:	0000004c 	andeq	r0, r0, ip, asr #32
    3278:	000b870b 	andeq	r8, fp, fp, lsl #14
    327c:	a3b90300 			; <UNDEFINED> instruction: 0xa3b90300
    3280:	00000003 	andeq	r0, r0, r3
    3284:	000b2502 	andeq	r2, fp, r2, lsl #10
    3288:	f7bb0300 			; <UNDEFINED> instruction: 0xf7bb0300
    328c:	07000003 	streq	r0, [r0, -r3]
    3290:	b0c00304 	sbclt	r0, r0, r4, lsl #6
    3294:	08000004 	stmdaeq	r0, {r2}
    3298:	03005244 	movweq	r5, #580	; 0x244
    329c:	00004cc3 	andeq	r4, r0, r3, asr #25
    32a0:	1f010400 	svcne	0x00010400
    32a4:	454f0800 	strbmi	r0, [pc, #-2048]	; 2aac <_back_addr-0x160d554>
    32a8:	4cc70300 	stclmi	3, cr0, [r7], {0}
    32ac:	04000000 	streq	r0, [r0], #-0
    32b0:	08001e01 	stmdaeq	r0, {r0, r9, sl, fp, ip}
    32b4:	03004550 	movweq	r4, #1360	; 0x550
    32b8:	00004ccc 	andeq	r4, r0, ip, asr #25
    32bc:	1d010400 	cfstrsne	mvf0, [r1, #-0]
    32c0:	45460800 	strbmi	r0, [r6, #-2048]	; 0x800
    32c4:	4ccd0300 	stclmi	3, cr0, [sp], {0}
    32c8:	04000000 	streq	r0, [r0], #-0
    32cc:	08001c01 	stmdaeq	r0, {r0, sl, fp, ip}
    32d0:	03004942 	movweq	r4, #2370	; 0x942
    32d4:	00004cce 	andeq	r4, r0, lr, asr #25
    32d8:	1b010400 	blne	442e0 <_back_addr-0x15cbd20>
    32dc:	0a060900 	beq	1856e4 <_back_addr-0x148a91c>
    32e0:	cf030000 	svcgt	0x00030000
    32e4:	0000004c 	andeq	r0, r0, ip, asr #32
    32e8:	001a0104 	andseq	r0, sl, r4, lsl #2
    32ec:	000a2309 	andeq	r2, sl, r9, lsl #6
    32f0:	4cd20300 	ldclmi	3, cr0, [r2], {0}
    32f4:	04000000 	streq	r0, [r0], #-0
    32f8:	08001901 	stmdaeq	r0, {r0, r8, fp, ip}
    32fc:	00454652 	subeq	r4, r5, r2, asr r6
    3300:	004cd503 	subeq	sp, ip, r3, lsl #10
    3304:	01040000 	mrseq	r0, (UNDEF: 4)
    3308:	44090018 	strmi	r0, [r9], #-24
    330c:	03000009 	movweq	r0, #9
    3310:	00004cd7 	ldrdeq	r4, [r0], -r7
    3314:	00180400 	andseq	r0, r8, r0, lsl #8
    3318:	910a0000 	mrsls	r0, (UNDEF: 10)
    331c:	04000009 	streq	r0, [r0], #-9
    3320:	04d3bd03 	ldrbeq	fp, [r3], #3331	; 0xd03
    3324:	5d0b0000 	stcpl	0, cr0, [fp, #-0]
    3328:	0300000a 	movweq	r0, #10
    332c:	00004cbf 			; <UNDEFINED> instruction: 0x00004cbf
    3330:	0b870b00 	bleq	fe1c5f38 <__bss_end__+0xfcba3378>
    3334:	d8030000 	stmdale	r3, {}	; <UNPREDICTABLE>
    3338:	00000425 	andeq	r0, r0, r5, lsr #8
    333c:	09920200 	ldmibeq	r2, {r9}
    3340:	da030000 	ble	c3348 <_back_addr-0x154ccb8>
    3344:	000004b0 			; <UNDEFINED> instruction: 0x000004b0
    3348:	df030407 	svcle	0x00030407
    334c:	0000054f 	andeq	r0, r0, pc, asr #10
    3350:	000a1309 	andeq	r1, sl, r9, lsl #6
    3354:	4ce30300 	stclmi	3, cr0, [r3]
    3358:	04000000 	streq	r0, [r0], #-0
    335c:	09001f01 	stmdbeq	r0, {r0, r8, r9, sl, fp, ip}
    3360:	000009d6 	ldrdeq	r0, [r0], -r6
    3364:	004ce503 	subeq	lr, ip, r3, lsl #10
    3368:	03040000 	movweq	r0, #16384	; 0x4000
    336c:	4308001c 	movwmi	r0, #32796	; 0x801c
    3370:	03005354 	movweq	r5, #852	; 0x354
    3374:	00004ce6 	andeq	r4, r0, r6, ror #25
    3378:	1b010400 	blne	44380 <_back_addr-0x15cbc80>
    337c:	53440800 	movtpl	r0, #18432	; 0x4800
    3380:	e9030052 	stmdb	r3, {r1, r4, r6}
    3384:	0000004c 	andeq	r0, r0, ip, asr #32
    3388:	001a0104 	andseq	r0, sl, r4, lsl #2
    338c:	00495208 	subeq	r5, r9, r8, lsl #4
    3390:	004cec03 	subeq	lr, ip, r3, lsl #24
    3394:	01040000 	mrseq	r0, (UNDEF: 4)
    3398:	44080019 	strmi	r0, [r8], #-25
    339c:	03004443 	movweq	r4, #1091	; 0x443
    33a0:	00004cef 	andeq	r4, r0, pc, ror #25
    33a4:	18010400 	stmdane	r1, {sl}
    33a8:	09e00900 	stmibeq	r0!, {r8, fp}^
    33ac:	f2030000 	vhadd.s8	d0, d3, d0
    33b0:	0000004c 	andeq	r0, r0, ip, asr #32
    33b4:	00001804 	andeq	r1, r0, r4, lsl #16
    33b8:	0acf0a00 	beq	ff3c5bc0 <__bss_end__+0xfdda3000>
    33bc:	03040000 	movweq	r0, #16384	; 0x4000
    33c0:	000572dc 	ldrdeq	r7, [r5], -ip
    33c4:	0a5d0b00 	beq	1745fcc <__bss_end__+0x12340c>
    33c8:	de030000 	cdple	0, 0, cr0, cr3, cr0, {0}
    33cc:	0000004c 	andeq	r0, r0, ip, asr #32
    33d0:	000b870b 	andeq	r8, fp, fp, lsl #14
    33d4:	def40300 	cdple	3, 15, cr0, cr4, cr0, {0}
    33d8:	00000004 	andeq	r0, r0, r4
    33dc:	000ad002 	andeq	sp, sl, r2
    33e0:	4ff60300 	svcmi	0x00f60300
    33e4:	07000005 	streq	r0, [r0, -r5]
    33e8:	a4fb0304 	ldrbtge	r0, [fp], #772	; 0x304
    33ec:	08000005 	stmdaeq	r0, {r0, r2}
    33f0:	00524353 	subseq	r4, r2, r3, asr r3
    33f4:	004cfe03 	subeq	pc, ip, r3, lsl #28
    33f8:	08040000 	stmdaeq	r4, {}	; <UNPREDICTABLE>
    33fc:	44090018 	strmi	r0, [r9], #-24
    3400:	03000009 	movweq	r0, #9
    3404:	00004cff 	strdeq	r4, [r0], -pc	; <UNPREDICTABLE>
    3408:	00180400 	andseq	r0, r8, r0, lsl #8
    340c:	5c0a0000 	stcpl	0, cr0, [sl], {-0}
    3410:	0400000b 	streq	r0, [r0], #-11
    3414:	05c8f803 	strbeq	pc, [r8, #2051]	; 0x803	; <UNPREDICTABLE>
    3418:	5d0b0000 	stcpl	0, cr0, [fp, #-0]
    341c:	0300000a 	movweq	r0, #10
    3420:	00004cfa 	strdeq	r4, [r0], -sl
    3424:	0b870c00 	bleq	fe1c642c <__bss_end__+0xfcba386c>
    3428:	00030000 	andeq	r0, r3, r0
    342c:	00057d01 	andeq	r7, r5, r1, lsl #26
    3430:	5d0d0000 	stcpl	0, cr0, [sp, #-0]
    3434:	0300000b 	movweq	r0, #11
    3438:	05a40102 	streq	r0, [r4, #258]!	; 0x102
    343c:	7b0e0000 	blvc	383444 <_back_addr-0x128cbbc>
    3440:	2000000a 	andcs	r0, r0, sl
    3444:	4a010503 	bmi	44858 <_back_addr-0x15cb7a8>
    3448:	0f000006 	svceq	0x00000006
    344c:	00000a8f 	andeq	r0, r0, pc, lsl #21
    3450:	45010703 	strmi	r0, [r1, #-1795]	; 0x703
    3454:	00000001 	andeq	r0, r0, r1
    3458:	0009600f 	andeq	r6, r9, pc
    345c:	01080300 	mrseq	r0, (UNDEF: 56)
    3460:	000001f9 	strdeq	r0, [r0], -r9
    3464:	09860f04 	stmibeq	r6, {r2, r8, r9, sl, fp}
    3468:	09030000 	stmdbeq	r3, {}	; <UNPREDICTABLE>
    346c:	0002f801 	andeq	pc, r2, r1, lsl #16
    3470:	4e0f0800 	cdpmi	8, 0, cr0, cr15, cr0, {0}
    3474:	0300000b 	movweq	r0, #11
    3478:	0398010a 	orrseq	r0, r8, #-2147483646	; 0x80000002
    347c:	0f0c0000 	svceq	0x000c0000
    3480:	00000b05 	andeq	r0, r0, r5, lsl #22
    3484:	1a010b03 	bne	46098 <_back_addr-0x15c9f68>
    3488:	10000004 	andne	r0, r0, r4
    348c:	000a280f 	andeq	r2, sl, pc, lsl #16
    3490:	010c0300 	mrseq	r0, LR_mon
    3494:	000004d3 	ldrdeq	r0, [r0], -r3
    3498:	09f10f14 	ldmibeq	r1!, {r2, r4, r8, r9, sl, fp}^
    349c:	0d030000 	stceq	0, cr0, [r3, #-0]
    34a0:	00057201 	andeq	r7, r5, r1, lsl #4
    34a4:	0b0f1800 	bleq	3c94ac <_back_addr-0x1246b54>
    34a8:	0300000a 	movweq	r0, #10
    34ac:	05c8010e 	strbeq	r0, [r8, #270]	; 0x10e
    34b0:	001c0000 	andseq	r0, ip, r0
    34b4:	000a7c0d 	andeq	r7, sl, sp, lsl #24
    34b8:	01100300 	tsteq	r0, r0, lsl #6
    34bc:	000005d4 	ldrdeq	r0, [r0], -r4
    34c0:	000aec10 	andeq	lr, sl, r0, lsl ip
    34c4:	01670100 	cmneq	r7, r0, lsl #2
    34c8:	0000066e 	andeq	r0, r0, lr, ror #12
    34cc:	000a9d11 	andeq	r9, sl, r1, lsl sp
    34d0:	6e670100 	powvss	f0, f7, f0
    34d4:	00000006 	andeq	r0, r0, r6
    34d8:	00300405 	eorseq	r0, r0, r5, lsl #8
    34dc:	c5120000 	ldrgt	r0, [r2, #-0]
    34e0:	0100000a 	tsteq	r0, sl
    34e4:	068c018e 	streq	r0, [ip], lr, lsl #3
    34e8:	d0110000 	andsle	r0, r1, r0
    34ec:	01000009 	tsteq	r0, r9
    34f0:	0000578e 	andeq	r5, r0, lr, lsl #15
    34f4:	b4120000 	ldrlt	r0, [r2], #-0
    34f8:	01000007 	tsteq	r0, r7
    34fc:	06c301f6 			; <UNDEFINED> instruction: 0x06c301f6
    3500:	64130000 	ldrvs	r0, [r3], #-0
    3504:	01007473 	tsteq	r0, r3, ror r4
    3508:	0006c3f6 	strdeq	ip, [r6], -r6
    350c:	09d01100 	ldmibeq	r0, {r8, ip}^
    3510:	f6010000 			; <UNDEFINED> instruction: 0xf6010000
    3514:	00000025 	andeq	r0, r0, r5, lsr #32
    3518:	0006f411 	andeq	pc, r6, r1, lsl r4	; <UNPREDICTABLE>
    351c:	4cf60100 	ldfmie	f0, [r6]
    3520:	14000000 	strne	r0, [r0], #-0
    3524:	f8010069 			; <UNDEFINED> instruction: 0xf8010069
    3528:	0000004c 	andeq	r0, r0, ip, asr #32
    352c:	16041500 	strne	r1, [r4], -r0, lsl #10
    3530:	000003ad 	andeq	r0, r0, sp, lsr #7
    3534:	161c3301 	ldrne	r3, [ip], -r1, lsl #6
    3538:	001c0161 	andseq	r0, ip, r1, ror #2
    353c:	9c010000 	stcls	0, cr0, [r1], {-0}
    3540:	00036d17 	andeq	r6, r3, r7, lsl sp
    3544:	38480100 	stmdacc	r8, {r8}^
    3548:	54016116 	strpl	r6, [r1], #-278	; 0x116
    354c:	01000000 	mrseq	r0, (UNDEF: 0)
    3550:	00070a9c 	muleq	r7, ip, sl
    3554:	0ae41800 	beq	ff90955c <__bss_end__+0xfe2e699c>
    3558:	4a010000 	bmi	43560 <_back_addr-0x15ccaa0>
    355c:	00000057 	andeq	r0, r0, r7, asr r0
    3560:	00002773 	andeq	r2, r0, r3, ror r7
    3564:	0009f919 	andeq	pc, r9, r9, lsl r9	; <UNPREDICTABLE>
    3568:	574b0100 	strbpl	r0, [fp, -r0, lsl #2]
    356c:	00000000 	andeq	r0, r0, r0
    3570:	00005550 	andeq	r5, r0, r0, asr r5
    3574:	00032c17 	andeq	r2, r3, r7, lsl ip
    3578:	8c620100 	stfhie	f0, [r2], #-0
    357c:	28016116 	stmdacs	r1, {r1, r2, r4, r8, sp, lr}
    3580:	01000000 	mrseq	r0, (UNDEF: 0)
    3584:	00072d9c 	muleq	r7, ip, sp
    3588:	0a351a00 	beq	d49d90 <_back_addr-0x8c6270>
    358c:	62010000 	andvs	r0, r1, #0
    3590:	0000005e 	andeq	r0, r0, lr, asr r0
    3594:	17005001 	strne	r5, [r0, -r1]
    3598:	000002d1 	ldrdeq	r0, [r0], -r1
    359c:	16b46e01 	ldrtne	r6, [r4], r1, lsl #28
    35a0:	00680161 	rsbeq	r0, r8, r1, ror #2
    35a4:	9c010000 	stcls	0, cr0, [r1], {-0}
    35a8:	00000795 	muleq	r0, r5, r7
    35ac:	0068631b 	rsbeq	r6, r8, fp, lsl r3
    35b0:	00856e01 	addeq	r6, r5, r1, lsl #28
    35b4:	278e0000 	strcs	r0, [lr, r0]
    35b8:	631c0000 	tstvs	ip, #0
    35bc:	01003868 	tsteq	r0, r8, ror #16
    35c0:	00003072 	andeq	r3, r0, r2, ror r0
    35c4:	0027c600 	eoreq	ip, r7, r0, lsl #12
    35c8:	06561d00 	ldrbeq	r1, [r6], -r0, lsl #26
    35cc:	16c80000 	strbne	r0, [r8], r0
    35d0:	04f00161 	ldrbteq	r0, [r0], #353	; 0x161
    35d4:	78010000 	stmdavc	r1, {}	; <UNPREDICTABLE>
    35d8:	00000778 	andeq	r0, r0, r8, ror r7
    35dc:	0006621e 	andeq	r6, r6, lr, lsl r2
    35e0:	561f0000 	ldrpl	r0, [pc], -r0
    35e4:	dc000006 	stcle	0, cr0, [r0], {6}
    35e8:	14016116 	strne	r6, [r1], #-278	; 0x116
    35ec:	01000000 	mrseq	r0, (UNDEF: 0)
    35f0:	0662207b 			; <UNDEFINED> instruction: 0x0662207b
    35f4:	f2060000 	vhadd.s8	d0, d6, d0
    35f8:	000035ba 			; <UNDEFINED> instruction: 0x000035ba
    35fc:	17000000 	strne	r0, [r0, -r0]
    3600:	000009b4 			; <UNDEFINED> instruction: 0x000009b4
    3604:	171c3a01 	ldrne	r3, [ip, -r1, lsl #20]
    3608:	00600161 	rsbeq	r0, r0, r1, ror #2
    360c:	9c010000 	stcls	0, cr0, [r1], {-0}
    3610:	00000822 	andeq	r0, r0, r2, lsr #16
    3614:	0007fe21 	andeq	pc, r7, r1, lsr #28
    3618:	223a0100 	eorscs	r0, sl, #0, 2
    361c:	e5000008 	str	r0, [r0, #-8]
    3620:	21000027 	tstcs	r0, r7, lsr #32
    3624:	00000b00 	andeq	r0, r0, r0, lsl #22
    3628:	004c3a01 	subeq	r3, ip, r1, lsl #20
    362c:	281c0000 	ldmdacs	ip, {}	; <UNPREDICTABLE>
    3630:	d0210000 	eorle	r0, r1, r0
    3634:	01000009 	tsteq	r0, r9
    3638:	00004c3a 	andeq	r4, r0, sl, lsr ip
    363c:	00285300 	eoreq	r5, r8, r0, lsl #6
    3640:	006e1c00 	rsbeq	r1, lr, r0, lsl #24
    3644:	005e3b01 	subseq	r3, lr, r1, lsl #22
    3648:	288a0000 	stmcs	sl, {}	; <UNPREDICTABLE>
    364c:	08220000 	stmdaeq	r2!, {}	; <UNPREDICTABLE>
    3650:	23000005 	movwcs	r0, #5
    3654:	00000818 	andeq	r0, r0, r8, lsl r8
    3658:	005e4301 	subseq	r4, lr, r1, lsl #6
    365c:	07fa0000 	ldrbeq	r0, [sl, r0]!
    3660:	00240000 	eoreq	r0, r4, r0
    3664:	61175425 	tstvs	r7, r5, lsr #8
    3668:	000d3501 	andeq	r3, sp, r1, lsl #10
    366c:	00080d00 	andeq	r0, r8, r0, lsl #26
    3670:	50012600 	andpl	r2, r1, r0, lsl #12
    3674:	27003101 	strcs	r3, [r0, -r1, lsl #2]
    3678:	01611778 	smceq	4472	; 0x1178
    367c:	0000072d 	andeq	r0, r0, sp, lsr #14
    3680:	05500126 	ldrbeq	r0, [r0, #-294]	; 0x126
    3684:	6125d803 	teqvs	r5, r3, lsl #16
    3688:	00000001 	andeq	r0, r0, r1
    368c:	08280405 	stmdaeq	r8!, {r0, r2, sl}
    3690:	4c280000 	stcmi	0, cr0, [r8], #-0
    3694:	17000000 	strne	r0, [r0, -r0]
    3698:	00000b69 	andeq	r0, r0, r9, ror #22
    369c:	177c8001 	ldrbne	r8, [ip, -r1]!
    36a0:	00500161 	subseq	r0, r0, r1, ror #2
    36a4:	9c010000 	stcls	0, cr0, [r1], {-0}
    36a8:	00000889 	andeq	r0, r0, r9, lsl #17
    36ac:	6c617629 	stclvs	6, cr7, [r1], #-164	; 0xffffff5c
    36b0:	4c800100 	stfmis	f0, [r0], {0}
    36b4:	01000000 	mrseq	r0, (UNDEF: 0)
    36b8:	656c1b50 	strbvs	r1, [ip, #-2896]!	; 0xb50
    36bc:	8001006e 	andhi	r0, r1, lr, rrx
    36c0:	0000004c 	andeq	r0, r0, ip, asr #32
    36c4:	000028ee 	andeq	r2, r0, lr, ror #17
    36c8:	0068631c 	rsbeq	r6, r8, ip, lsl r3
    36cc:	00308301 	eorseq	r8, r0, r1, lsl #6
    36d0:	290c0000 	stmdbcs	ip, {}	; <UNPREDICTABLE>
    36d4:	562a0000 	strtpl	r0, [sl], -r0
    36d8:	a8000006 	stmdage	r0, {r1, r2}
    36dc:	28016117 	stmdacs	r1, {r0, r1, r2, r4, r8, sp, lr}
    36e0:	01000005 	tsteq	r0, r5
    36e4:	06622089 	strbteq	r2, [r2], -r9, lsl #1
    36e8:	f2060000 	vhadd.s8	d0, d6, d0
    36ec:	000036c8 	andeq	r3, r0, r8, asr #13
    36f0:	2b000000 	blcs	36f8 <_back_addr-0x160c908>
    36f4:	00000674 	andeq	r0, r0, r4, ror r6
    36f8:	016117cc 	cmneq	r1, ip, asr #15
    36fc:	00000008 	andeq	r0, r0, r8
    3700:	08bc9c01 	ldmeq	ip!, {r0, sl, fp, ip, pc}
    3704:	802c0000 	eorhi	r0, ip, r0
    3708:	2a000006 	bcs	3728 <_back_addr-0x160c8d8>
    370c:	27000029 	strcs	r0, [r0, -r9, lsr #32]
    3710:	016117d4 	ldrdeq	r1, [r1, #-116]!	; 0xffffff8c
    3714:	0000082d 	andeq	r0, r0, sp, lsr #16
    3718:	03500126 	cmpeq	r0, #-2147483639	; 0x80000009
    371c:	265001f3 			; <UNDEFINED> instruction: 0x265001f3
    3720:	38015101 	stmdacc	r1, {r0, r8, ip, lr}
    3724:	2f160000 	svccs	0x00160000
    3728:	01000009 	tsteq	r0, r9
    372c:	6117d49a 			; <UNDEFINED> instruction: 0x6117d49a
    3730:	00000401 	andeq	r0, r0, r1, lsl #8
    3734:	179c0100 	ldrne	r0, [ip, r0, lsl #2]
    3738:	00000978 	andeq	r0, r0, r8, ror r9
    373c:	17d8a001 	ldrbne	sl, [r8, r1]
    3740:	00240161 	eoreq	r0, r4, r1, ror #2
    3744:	9c010000 	stcls	0, cr0, [r1], {-0}
    3748:	0000090b 	andeq	r0, r0, fp, lsl #18
    374c:	00686329 	rsbeq	r6, r8, r9, lsr #6
    3750:	0090a001 	addseq	sl, r0, r1
    3754:	50010000 	andpl	r0, r1, r0
    3758:	0006561f 	andeq	r5, r6, pc, lsl r6
    375c:	6117e400 	tstvs	r7, r0, lsl #8
    3760:	00001801 	andeq	r1, r0, r1, lsl #16
    3764:	20a40100 	adccs	r0, r4, r0, lsl #2
    3768:	00000662 	andeq	r0, r0, r2, ror #12
    376c:	374cf206 	strbcc	pc, [ip, -r6, lsl #4]	; <UNPREDICTABLE>
    3770:	00000000 	andeq	r0, r0, r0
    3774:	0a182d00 	beq	60eb7c <_back_addr-0x1001484>
    3778:	a8010000 	stmdage	r1, {}	; <UNPREDICTABLE>
    377c:	00000057 	andeq	r0, r0, r7, asr r0
    3780:	016117fc 	strdeq	r1, [r1, #-124]!	; 0xffffff84
    3784:	0000000c 	andeq	r0, r0, ip
    3788:	095e9c01 	ldmdbeq	lr, {r0, sl, fp, ip, pc}^
    378c:	731b0000 	tstvc	fp, #0
    3790:	5ea80100 	fdvple	f0, f0, f0
    3794:	4b000009 	blmi	37c0 <_back_addr-0x160c840>
    3798:	23000029 	movwcs	r0, #41	; 0x29
    379c:	000001da 	ldrdeq	r0, [r0], -sl
    37a0:	005eaa01 	subseq	sl, lr, r1, lsl #20
    37a4:	09420000 	stmdbeq	r2, {}^	; <UNPREDICTABLE>
    37a8:	00240000 	eoreq	r0, r4, r0
    37ac:	61180827 	tstvs	r8, r7, lsr #16
    37b0:	000d4601 	andeq	r4, sp, r1, lsl #12
    37b4:	50012600 	andpl	r2, r1, r0, lsl #12
    37b8:	5001f303 	andpl	pc, r1, r3, lsl #6
    37bc:	01510126 	cmpeq	r1, r6, lsr #2
    37c0:	52012630 	andpl	r2, r1, #48, 12	; 0x3000000
    37c4:	00004001 	andeq	r4, r0, r1
    37c8:	00900405 	addseq	r0, r0, r5, lsl #8
    37cc:	a62d0000 	strtge	r0, [sp], -r0
    37d0:	01000009 	tsteq	r0, r9
    37d4:	0006c3ad 	andeq	ip, r6, sp, lsr #7
    37d8:	61180800 	tstvs	r8, r0, lsl #16
    37dc:	00005401 	andeq	r5, r0, r1, lsl #8
    37e0:	bc9c0100 	ldflts	f0, [ip], {0}
    37e4:	21000009 	tstcs	r0, r9
    37e8:	00000adc 	ldrdeq	r0, [r0], -ip
    37ec:	0057ad01 	subseq	sl, r7, r1, lsl #26
    37f0:	296c0000 	stmdbcs	ip!, {}^	; <UNPREDICTABLE>
    37f4:	522e0000 	eorpl	r0, lr, #0
    37f8:	01000009 	tsteq	r0, r9
    37fc:	000057af 	andeq	r5, r0, pc, lsr #15
    3800:	40030500 	andmi	r0, r3, r0, lsl #10
    3804:	2e01622a 	cdpcs	2, 0, cr6, cr1, cr10, {1}
    3808:	00000a63 	andeq	r0, r0, r3, ror #20
    380c:	0057b001 	subseq	fp, r7, r1
    3810:	03050000 	movweq	r0, #20480	; 0x5000
    3814:	01622bbc 	strheq	r2, [r2, #-188]!	; 0xffffff44
    3818:	0100701c 	tsteq	r0, ip, lsl r0
    381c:	0006c3b1 			; <UNDEFINED> instruction: 0x0006c3b1
    3820:	0029a300 	eoreq	sl, r9, r0, lsl #6
    3824:	502d0000 	eorpl	r0, sp, r0
    3828:	0100000a 	tsteq	r0, sl
    382c:	00005ec2 	andeq	r5, r0, r2, asr #29
    3830:	61185c00 	tstvs	r8, r0, lsl #24
    3834:	00003401 	andeq	r3, r0, r1, lsl #8
    3838:	e39c0100 	orrs	r0, ip, #0, 2
    383c:	1b000009 	blne	3868 <_back_addr-0x160c798>
    3840:	c2010063 	andgt	r0, r1, #99	; 0x63
    3844:	00000090 	muleq	r0, r0, r0
    3848:	000029b6 			; <UNDEFINED> instruction: 0x000029b6
    384c:	099e1700 	ldmibeq	lr, {r8, r9, sl, ip}
    3850:	ce010000 	cdpgt	0, 0, cr0, cr1, cr0, {0}
    3854:	01611890 			; <UNDEFINED> instruction: 0x01611890
    3858:	000000b0 	strheq	r0, [r0], -r0	; <UNPREDICTABLE>
    385c:	0b1b9c01 	bleq	6ea868 <_back_addr-0xf25798>
    3860:	731b0000 	tstvc	fp, #0
    3864:	01007274 	tsteq	r0, r4, ror r2
    3868:	000085ce 	andeq	r8, r0, lr, asr #11
    386c:	0029f000 	eoreq	pc, r9, r0
    3870:	75621b00 	strbvc	r1, [r2, #-2816]!	; 0xb00
    3874:	ce010066 	cdpgt	0, 0, cr0, cr1, cr6, {3}
    3878:	00000b1b 	andeq	r0, r0, fp, lsl fp
    387c:	00002a2a 	andeq	r2, r0, sl, lsr #20
    3880:	0007cf21 	andeq	ip, r7, r1, lsr #30
    3884:	57ce0100 	strbpl	r0, [lr, r0, lsl #2]
    3888:	87000000 	strhi	r0, [r0, -r0]
    388c:	1c00002a 	stcne	0, cr0, [r0], {42}	; 0x2a
    3890:	d0010069 	andle	r0, r1, r9, rrx
    3894:	00000057 	andeq	r0, r0, r7, asr r0
    3898:	00002acc 	andeq	r2, r0, ip, asr #21
    389c:	7274701c 	rsbsvc	r7, r4, #28
    38a0:	5ed10100 	cdppl	1, 13, cr0, cr1, cr0, {0}
    38a4:	2a000009 	bcs	38d0 <_back_addr-0x160c730>
    38a8:	2f00002a 	svccs	0x0000002a
    38ac:	00000795 	muleq	r0, r5, r7
    38b0:	00000b39 	andeq	r0, r0, r9, lsr fp
    38b4:	25d00305 	ldrbcs	r0, [r0, #773]	; 0x305
    38b8:	74300161 	ldrtvc	r0, [r0], #-353	; 0x161
    38bc:	d0000006 	andle	r0, r0, r6
    38c0:	10016118 	andne	r6, r1, r8, lsl r1
    38c4:	01000000 	mrseq	r0, (UNDEF: 0)
    38c8:	000a82da 	ldrdeq	r8, [sl], -sl
    38cc:	06802c00 	streq	r2, [r0], r0, lsl #24
    38d0:	2af70000 	bcs	ffdc38d8 <__bss_end__+0xfe7a0d18>
    38d4:	e0310000 	eors	r0, r1, r0
    38d8:	2d016118 	stfcss	f6, [r1, #-96]	; 0xffffffa0
    38dc:	26000008 	strcs	r0, [r0], -r8
    38e0:	75025001 	strvc	r5, [r2, #-1]
    38e4:	51012601 	tstpl	r1, r1, lsl #12
    38e8:	00003801 	andeq	r3, r0, r1, lsl #16
    38ec:	6118c425 	tstvs	r8, r5, lsr #8
    38f0:	00072d01 	andeq	r2, r7, r1, lsl #26
    38f4:	000aa600 	andeq	sl, sl, r0, lsl #12
    38f8:	50012600 	andpl	r2, r1, r0, lsl #12
    38fc:	25d00312 	ldrbcs	r0, [r0, #786]	; 0x312
    3900:	01f30161 	mvnseq	r0, r1, ror #2
    3904:	5001f350 	andpl	pc, r1, r0, asr r3	; <UNPREDICTABLE>
    3908:	01282930 	teqeq	r8, r0, lsr r9
    390c:	00131600 	andseq	r1, r3, r0, lsl #12
    3910:	6118d025 	tstvs	r8, r5, lsr #32
    3914:	00072d01 	andeq	r2, r7, r1, lsl #26
    3918:	000abd00 	andeq	fp, sl, r0, lsl #26
    391c:	50012600 	andpl	r2, r1, r0, lsl #12
    3920:	25ec0305 	strbcs	r0, [ip, #773]!	; 0x305
    3924:	25000161 	strcs	r0, [r0, #-353]	; 0x161
    3928:	016118ec 	cmneq	r1, ip, ror #17
    392c:	0000072d 	andeq	r0, r0, sp, lsr #14
    3930:	00000ad4 	ldrdeq	r0, [r0], -r4
    3934:	05500126 	ldrbeq	r0, [r0, #-294]	; 0x126
    3938:	6125f403 	msrvs	CPSR_sc, r3, lsl #8
    393c:	f8250001 			; <UNDEFINED> instruction: 0xf8250001
    3940:	2d016118 	stfcss	f6, [r1, #-96]	; 0xffffffa0
    3944:	e7000008 	str	r0, [r0, -r8]
    3948:	2600000a 	strcs	r0, [r0], -sl
    394c:	32015101 	andcc	r5, r1, #1073741824	; 0x40000000
    3950:	19183200 	ldmdbne	r8, {r9, ip, sp}
    3954:	072d0161 	streq	r0, [sp, -r1, ror #2]!
    3958:	30330000 	eorscc	r0, r3, r0
    395c:	2d016119 	stfcss	f6, [r1, #-100]	; 0xffffff9c
    3960:	07000007 	streq	r0, [r0, -r7]
    3964:	2600000b 	strcs	r0, [r0], -fp
    3968:	03055001 	movweq	r5, #20481	; 0x5001
    396c:	0161251c 	cmneq	r1, ip, lsl r5
    3970:	19402700 	stmdbne	r0, {r8, r9, sl, sp}^
    3974:	072d0161 	streq	r0, [sp, -r1, ror #2]!
    3978:	01260000 	teqeq	r6, r0
    397c:	e4030550 	str	r0, [r3], #-1360	; 0x550
    3980:	00016125 	andeq	r6, r1, r5, lsr #2
    3984:	21040500 	tstcs	r4, r0, lsl #10
    3988:	3400000b 	strcc	r0, [r0], #-11
    398c:	00009035 	andeq	r9, r0, r5, lsr r0
    3990:	000b3200 	andeq	r3, fp, r0, lsl #4
    3994:	0b323600 	bleq	c9119c <_back_addr-0x97ee64>
    3998:	00070000 	andeq	r0, r7, r0
    399c:	07070403 	streq	r0, [r7, -r3, lsl #8]
    39a0:	06000002 	streq	r0, [r0], -r2
    39a4:	00000b22 	andeq	r0, r0, r2, lsr #22
    39a8:	0002bb2d 	andeq	fp, r2, sp, lsr #22
    39ac:	c3f00100 	mvnsgt	r0, #0, 2
    39b0:	40000006 	andmi	r0, r0, r6
    39b4:	24016119 	strcs	r6, [r1], #-281	; 0x119
    39b8:	01000000 	mrseq	r0, (UNDEF: 0)
    39bc:	000bb59c 	muleq	fp, ip, r5
    39c0:	00732900 	rsbseq	r2, r3, r0, lsl #18
    39c4:	06c3f001 	strbeq	pc, [r3], r1	; <UNPREDICTABLE>
    39c8:	50010000 	andpl	r0, r1, r0
    39cc:	0100631b 	tsteq	r0, fp, lsl r3
    39d0:	00005ef0 	strdeq	r5, [r0], -r0
    39d4:	002b3000 	eoreq	r3, fp, r0
    39d8:	0a692100 	beq	1a4bde0 <__bss_end__+0x429220>
    39dc:	f0010000 			; <UNDEFINED> instruction: 0xf0010000
    39e0:	0000007a 	andeq	r0, r0, sl, ror r0
    39e4:	00002b51 	andeq	r2, r0, r1, asr fp
    39e8:	00068c2a 	andeq	r8, r6, sl, lsr #24
    39ec:	61194000 	tstvs	r9, r0
    39f0:	00054001 	andeq	r4, r5, r1
    39f4:	2cf20100 	ldfcse	f0, [r2]
    39f8:	000006ae 	andeq	r0, r0, lr, lsr #13
    39fc:	00002b72 	andeq	r2, r0, r2, ror fp
    3a00:	0006a320 	andeq	sl, r6, r0, lsr #6
    3a04:	20510100 	subscs	r0, r1, r0, lsl #2
    3a08:	00000698 	muleq	r0, r8, r6
    3a0c:	40225001 	eormi	r5, r2, r1
    3a10:	37000005 	strcc	r0, [r0, -r5]
    3a14:	000006b9 			; <UNDEFINED> instruction: 0x000006b9
    3a18:	00002b93 	muleq	r0, r3, fp
    3a1c:	2b000000 	blcs	3a24 <_back_addr-0x160c5dc>
    3a20:	0000068c 	andeq	r0, r0, ip, lsl #13
    3a24:	01611964 	cmneq	r1, r4, ror #18
    3a28:	0000001c 	andeq	r0, r0, ip, lsl r0
    3a2c:	0beb9c01 	bleq	ffaeaa38 <__bss_end__+0xfe4c7e78>
    3a30:	982c0000 	stmdals	ip!, {}	; <UNPREDICTABLE>
    3a34:	a7000006 	strge	r0, [r0, -r6]
    3a38:	2000002b 	andcs	r0, r0, fp, lsr #32
    3a3c:	000006a3 	andeq	r0, r0, r3, lsr #13
    3a40:	ae2c5101 	sufgee	f5, f4, f1
    3a44:	c8000006 	stmdagt	r0, {r1, r2}
    3a48:	3700002b 	strcc	r0, [r0, -fp, lsr #32]
    3a4c:	000006b9 			; <UNDEFINED> instruction: 0x000006b9
    3a50:	00002be9 	andeq	r2, r0, r9, ror #23
    3a54:	08501700 	ldmdaeq	r0, {r8, r9, sl, ip}^
    3a58:	fd010000 	stc2	0, cr0, [r1, #-0]
    3a5c:	01611980 	cmneq	r1, r0, lsl #19
    3a60:	0000009c 	muleq	r0, ip, r0
    3a64:	0c349c01 	ldceq	12, cr9, [r4], #-4
    3a68:	64290000 	strtvs	r0, [r9], #-0
    3a6c:	01007473 	tsteq	r0, r3, ror r4
    3a70:	0006c3fd 	strdeq	ip, [r6], -sp
    3a74:	29500100 	ldmdbcs	r0, {r8}^
    3a78:	00637273 	rsbeq	r7, r3, r3, ror r2
    3a7c:	06c3fd01 	strbeq	pc, [r3], r1, lsl #26	; <UNPREDICTABLE>
    3a80:	51010000 	mrspl	r0, (UNDEF: 1)
    3a84:	0006f41a 	andeq	pc, r6, sl, lsl r4	; <UNPREDICTABLE>
    3a88:	57fd0100 	ldrbpl	r0, [sp, r0, lsl #2]!
    3a8c:	01000000 	mrseq	r0, (UNDEF: 0)
    3a90:	00693852 	rsbeq	r3, r9, r2, asr r8
    3a94:	0c34ff01 	ldceq	15, cr15, [r4], #-4
    3a98:	91020000 	mrsls	r0, (UNDEF: 2)
    3a9c:	5728007c 			; <UNDEFINED> instruction: 0x5728007c
    3aa0:	39000000 	stmdbcc	r0, {}	; <UNPREDICTABLE>
    3aa4:	00000b78 	andeq	r0, r0, r8, ror fp
    3aa8:	5e010c01 	cdppl	12, 0, cr0, cr1, cr1, {0}
    3aac:	1c000000 	stcne	0, cr0, [r0], {-0}
    3ab0:	5801611a 	stmdapl	r1, {r1, r3, r4, r8, sp, lr}
    3ab4:	01000000 	mrseq	r0, (UNDEF: 0)
    3ab8:	000cae9c 	muleq	ip, ip, lr
    3abc:	31733a00 	cmncc	r3, r0, lsl #20
    3ac0:	010c0100 	mrseq	r0, (UNDEF: 28)
    3ac4:	000006c3 	andeq	r0, r0, r3, asr #13
    3ac8:	00002c21 	andeq	r2, r0, r1, lsr #24
    3acc:	0032733a 	eorseq	r7, r2, sl, lsr r3
    3ad0:	c3010c01 	movwgt	r0, #7169	; 0x1c01
    3ad4:	74000006 	strvc	r0, [r0], #-6
    3ad8:	3b00002c 	blcc	3b90 <_back_addr-0x160c470>
    3adc:	000006f4 	strdeq	r0, [r0], -r4
    3ae0:	4c010c01 	stcmi	12, cr0, [r1], {1}
    3ae4:	a0000000 	andge	r0, r0, r0
    3ae8:	3c00002c 	stccc	0, cr0, [r0], {44}	; 0x2c
    3aec:	0e010069 	cdpeq	0, 0, cr0, cr1, cr9, {3}
    3af0:	00004c01 	andeq	r4, r0, r1, lsl #24
    3af4:	002ccc00 	eoreq	ip, ip, r0, lsl #24
    3af8:	31703c00 	cmncc	r0, r0, lsl #24
    3afc:	010f0100 	mrseq	r0, (UNDEF: 31)
    3b00:	0000095e 	andeq	r0, r0, lr, asr r9
    3b04:	00002c21 	andeq	r2, r0, r1, lsr #24
    3b08:	0032703c 	eorseq	r7, r2, ip, lsr r0
    3b0c:	5e010f01 	cdppl	15, 0, cr0, cr1, cr1, {0}
    3b10:	2e000009 	cdpcs	0, 0, cr0, cr0, cr9, {0}
    3b14:	0000002d 	andeq	r0, r0, sp, lsr #32
    3b18:	000a6f39 	andeq	r6, sl, r9, lsr pc
    3b1c:	011c0100 	tsteq	ip, r0, lsl #2
    3b20:	0000005e 	andeq	r0, r0, lr, asr r0
    3b24:	01611a74 	smceq	4516	; 0x11a4
    3b28:	00000044 	andeq	r0, r0, r4, asr #32
    3b2c:	0cf59c01 	ldcleq	12, cr9, [r5], #4
    3b30:	733a0000 	teqvc	sl, #0
    3b34:	1c010031 	stcne	0, cr0, [r1], {49}	; 0x31
    3b38:	00008501 	andeq	r8, r0, r1, lsl #10
    3b3c:	002d5a00 	eoreq	r5, sp, r0, lsl #20
    3b40:	32733a00 	rsbscc	r3, r3, #0, 20
    3b44:	011c0100 	tsteq	ip, r0, lsl #2
    3b48:	00000085 	andeq	r0, r0, r5, lsl #1
    3b4c:	00002d7b 	andeq	r2, r0, fp, ror sp
    3b50:	0100693c 	tsteq	r0, ip, lsr r9
    3b54:	004c011e 	subeq	r0, ip, lr, lsl r1
    3b58:	2d9c0000 	ldccs	0, cr0, [ip]
    3b5c:	3d000000 	stccc	0, cr0, [r0, #-0]
    3b60:	00000ab6 			; <UNDEFINED> instruction: 0x00000ab6
    3b64:	b8012a01 	stmdalt	r1, {r0, r9, fp, sp}
    3b68:	2801611a 	stmdacs	r1, {r1, r3, r4, r8, sp, lr}
    3b6c:	01000000 	mrseq	r0, (UNDEF: 0)
    3b70:	0af93d9c 	beq	ffe531e8 <__bss_end__+0xfe830628>
    3b74:	47010000 	strmi	r0, [r1, -r0]
    3b78:	611ae001 	tstvs	sl, r1
    3b7c:	00000401 	andeq	r0, r0, r1, lsl #8
    3b80:	2e9c0100 	fmlcse	f0, f4, f0
    3b84:	00000b31 	andeq	r0, r0, r1, lsr fp
    3b88:	0d2a1501 	cfstr32eq	mvfx1, [sl, #-4]!
    3b8c:	03050000 	movweq	r0, #20480	; 0x5000
    3b90:	01622a3c 	cmneq	r2, ip, lsr sl
    3b94:	0d300405 	cfldrseq	mvf0, [r0, #-20]!	; 0xffffffec
    3b98:	4a280000 	bmi	a03ba0 <_back_addr-0xc0c460>
    3b9c:	23000006 	movwcs	r0, #6
    3ba0:	00000818 	andeq	r0, r0, r8, lsl r8
    3ba4:	005e4301 	subseq	r4, lr, r1, lsl #6
    3ba8:	0d460000 	stcleq	0, cr0, [r6, #-0]
    3bac:	00240000 	eoreq	r0, r4, r0
    3bb0:	0001da3e 	andeq	sp, r1, lr, lsr sl
    3bb4:	5eaa0100 	fdvple	f0, f2, f0
    3bb8:	24000000 	strcs	r0, [r0], #-0
    3bbc:	14ec0000 	strbtne	r0, [ip], #0
    3bc0:	00040000 	andeq	r0, r4, r0
    3bc4:	00001068 	andeq	r1, r0, r8, rrx
    3bc8:	00ab0104 	adceq	r0, fp, r4, lsl #2
    3bcc:	3f010000 	svccc	0x00010000
    3bd0:	7700000d 	strvc	r0, [r0, -sp]
    3bd4:	e4000003 	str	r0, [r0], #-3
    3bd8:	d001611a 	andle	r6, r1, sl, lsl r1
    3bdc:	a6000008 	strge	r0, [r0], -r8
    3be0:	0200000c 	andeq	r0, r0, #12
    3be4:	00860704 	addeq	r0, r6, r4, lsl #14
    3be8:	04030000 	streq	r0, [r3], #-0
    3bec:	00470f03 	subeq	r0, r7, r3, lsl #30
    3bf0:	15040000 	strne	r0, [r4, #-0]
    3bf4:	0000000e 	andeq	r0, r0, lr
    3bf8:	000deb04 	andeq	lr, sp, r4, lsl #22
    3bfc:	f6040100 			; <UNDEFINED> instruction: 0xf6040100
    3c00:	0200000d 	andeq	r0, r0, #13
    3c04:	0ba00500 	bleq	fe80500c <__bss_end__+0xfd1e244c>
    3c08:	13030000 	movwne	r0, #12288	; 0x3000
    3c0c:	0000002c 	andeq	r0, r0, ip, lsr #32
    3c10:	19080102 	stmdbne	r8, {r1, r8}
    3c14:	06000000 	streq	r0, [r0], -r0
    3c18:	6e690504 	cdpvs	5, 6, cr0, cr9, cr4, {0}
    3c1c:	dd070074 	stcle	0, cr0, [r7, #-464]	; 0xfffffe30
    3c20:	0400000d 	streq	r0, [r0], #-13
    3c24:	007f7f08 	rsbseq	r7, pc, r8, lsl #30
    3c28:	de040000 	cdple	0, 0, cr0, cr4, cr0, {0}
    3c2c:	0000000b 	andeq	r0, r0, fp
    3c30:	000dc404 	andeq	ip, sp, r4, lsl #8
    3c34:	87040100 	strhi	r0, [r4, -r0, lsl #2]
    3c38:	7f00000e 	svcvc	0x0000000e
    3c3c:	07040200 	streq	r0, [r4, -r0, lsl #4]
    3c40:	00000207 	andeq	r0, r0, r7, lsl #4
    3c44:	81070402 	tsthi	r7, r2, lsl #8
    3c48:	02000000 	andeq	r0, r0, #0
    3c4c:	001e0702 	andseq	r0, lr, r2, lsl #14
    3c50:	04020000 	streq	r0, [r2], #-0
    3c54:	00009805 	andeq	r9, r0, r5, lsl #16
    3c58:	05080200 	streq	r0, [r8, #-512]	; 0x200
    3c5c:	00000093 	muleq	r0, r3, r0
    3c60:	12060102 	andne	r0, r6, #-2147483648	; 0x80000000
    3c64:	05000000 	streq	r0, [r0, #-0]
    3c68:	00000c4d 	andeq	r0, r0, sp, asr #24
    3c6c:	00b40c04 	adcseq	r0, r4, r4, lsl #24
    3c70:	01020000 	mrseq	r0, (UNDEF: 2)
    3c74:	00001008 	andeq	r1, r0, r8
    3c78:	05020200 	streq	r0, [r2, #-512]	; 0x200
    3c7c:	000000a1 	andeq	r0, r0, r1, lsr #1
    3c80:	000bb805 	andeq	fp, fp, r5, lsl #16
    3c84:	8d0f0400 	cfstrshi	mvf0, [pc, #-0]	; 3c8c <_back_addr-0x160c374>
    3c88:	05000000 	streq	r0, [r0, #-0]
    3c8c:	00000c6b 	andeq	r0, r0, fp, ror #24
    3c90:	00251204 	eoreq	r1, r5, r4, lsl #4
    3c94:	08020000 	stmdaeq	r2, {}	; <UNPREDICTABLE>
    3c98:	00007c07 	andeq	r7, r0, r7, lsl #24
    3c9c:	08130500 	ldmdaeq	r3, {r8, sl}
    3ca0:	5c050000 	stcpl	0, cr0, [r5], {-0}
    3ca4:	00000025 	andeq	r0, r0, r5, lsr #32
    3ca8:	00031805 	andeq	r1, r3, r5, lsl #16
    3cac:	865d0500 	ldrbhi	r0, [sp], -r0, lsl #10
    3cb0:	05000000 	streq	r0, [r0, #-0]
    3cb4:	00000e67 	andeq	r0, r0, r7, ror #28
    3cb8:	00a96b05 	adceq	r6, r9, r5, lsl #22
    3cbc:	ee050000 	cdp	0, 0, cr0, cr5, cr0, {0}
    3cc0:	0500000b 	streq	r0, [r0, #-11]
    3cc4:	0000c26c 	andeq	ip, r0, ip, ror #4
    3cc8:	0dd40500 	cfldr64eq	mvdx0, [r4]
    3ccc:	6d050000 	stcvs	0, cr0, [r5, #-0]
    3cd0:	000000cd 	andeq	r0, r0, sp, asr #1
    3cd4:	00091905 	andeq	r1, r9, r5, lsl #18
    3cd8:	b40b0100 	strlt	r0, [fp], #-256	; 0x100
    3cdc:	08000000 	stmdaeq	r0, {}	; <UNPREDICTABLE>
    3ce0:	00000873 	andeq	r0, r0, r3, ror r8
    3ce4:	00254402 	eoreq	r4, r5, r2, lsl #8
    3ce8:	3d030000 	stccc	0, cr0, [r3, #-0]
    3cec:	09000001 	stmdbeq	r0, {r0}
    3cf0:	000007fe 	strdeq	r0, [r0], -lr
    3cf4:	00254402 	eoreq	r4, r5, r2, lsl #8
    3cf8:	0a000000 	beq	3d00 <_back_addr-0x160c300>
    3cfc:	000006f9 	strdeq	r0, [r0], -r9
    3d00:	60035f02 	andvs	r5, r3, r2, lsl #30
    3d04:	09000001 	stmdbeq	r0, {r0}
    3d08:	000007fe 	strdeq	r0, [r0], -lr
    3d0c:	00255f02 	eoreq	r5, r5, r2, lsl #30
    3d10:	760b0000 	strvc	r0, [fp], -r0
    3d14:	02006c61 	andeq	r6, r0, #24832	; 0x6100
    3d18:	0000255f 	andeq	r2, r0, pc, asr r5
    3d1c:	cf0c0000 	svcgt	0x000c0000
    3d20:	0100000c 	tsteq	r0, ip
    3d24:	005901fb 	ldrsheq	r0, [r9], #-27	; 0xffffffe5
    3d28:	96010000 	strls	r0, [r1], -r0
    3d2c:	0d000001 	stceq	0, cr0, [r0, #-4]
    3d30:	00000bd9 	ldrdeq	r0, [r0], -r9
    3d34:	5901fb01 	stmdbpl	r1, {r0, r8, r9, fp, ip, sp, lr, pc}
    3d38:	0e000000 	cdpeq	0, 0, cr0, cr0, cr0, {0}
    3d3c:	000007fe 	strdeq	r0, [r0], -lr
    3d40:	5901fd01 	stmdbpl	r1, {r0, r8, sl, fp, ip, sp, lr, pc}
    3d44:	0e000000 	cdpeq	0, 0, cr0, cr0, cr0, {0}
    3d48:	00000e37 	andeq	r0, r0, r7, lsr lr
    3d4c:	5901fd01 	stmdbpl	r1, {r0, r8, sl, fp, ip, sp, lr, pc}
    3d50:	00000000 	andeq	r0, r0, r0
    3d54:	000bbe0c 	andeq	fp, fp, ip, lsl #28
    3d58:	01600100 	cmneq	r0, r0, lsl #2
    3d5c:	00000059 	andeq	r0, r0, r9, asr r0
    3d60:	00022401 	andeq	r2, r2, r1, lsl #8
    3d64:	0bcc0d00 	bleq	ff30716c <__bss_end__+0xfdce45ac>
    3d68:	60010000 	andvs	r0, r1, r0
    3d6c:	0000b401 	andeq	fp, r0, r1, lsl #8
    3d70:	0eb30f00 	cdpeq	15, 11, cr0, cr3, cr0, {0}
    3d74:	d8010000 	stmdale	r1, {}	; <UNPREDICTABLE>
    3d78:	00000059 	andeq	r0, r0, r9, asr r0
    3d7c:	000001c4 	andeq	r0, r0, r4, asr #3
    3d80:	d7110010 			; <UNDEFINED> instruction: 0xd7110010
    3d84:	12000001 	andne	r0, r0, #1
    3d88:	00000366 	andeq	r0, r0, r6, ror #6
    3d8c:	00598101 	subseq	r8, r9, r1, lsl #2
    3d90:	00100000 	andseq	r0, r0, r0
    3d94:	01ff1100 	mvnseq	r1, r0, lsl #2
    3d98:	66130000 	ldrvs	r0, [r3], -r0
    3d9c:	01000003 	tsteq	r0, r3
    3da0:	00005981 	andeq	r5, r0, r1, lsl #19
    3da4:	01ef0000 	mvneq	r0, r0
    3da8:	10100000 	andsne	r0, r0, r0
    3dac:	0ccf1400 	cfstrdeq	mvd1, [pc], {0}
    3db0:	cc010000 	stcgt	0, cr0, [r1], {-0}
    3db4:	00000059 	andeq	r0, r0, r9, asr r0
    3db8:	00101000 	andseq	r1, r0, r0
    3dbc:	66131500 	ldrvs	r1, [r3], -r0, lsl #10
    3dc0:	01000003 	tsteq	r0, r3
    3dc4:	00005981 	andeq	r5, r0, r1, lsl #19
    3dc8:	02130000 	andseq	r0, r3, #0
    3dcc:	10100000 	andsne	r0, r0, r0
    3dd0:	0ccf1400 	cfstrdeq	mvd1, [pc], {0}
    3dd4:	cc010000 	stcgt	0, cr0, [r1], {-0}
    3dd8:	00000059 	andeq	r0, r0, r9, asr r0
    3ddc:	00101000 	andseq	r1, r0, r0
    3de0:	010c0000 	mrseq	r0, (UNDEF: 12)
    3de4:	0100000e 	tsteq	r0, lr
    3de8:	0059017d 	subseq	r0, r9, sp, ror r1
    3dec:	b2010000 	andlt	r0, r1, #0
    3df0:	0d000002 	stceq	0, cr0, [r0, #-8]
    3df4:	00000e0f 	andeq	r0, r0, pc, lsl #28
    3df8:	b4017d01 	strlt	r7, [r1], #-3329	; 0xd01
    3dfc:	0f000000 	svceq	0x00000000
    3e00:	00000eb3 			; <UNDEFINED> instruction: 0x00000eb3
    3e04:	0059d801 	subseq	sp, r9, r1, lsl #16
    3e08:	02520000 	subseq	r0, r2, #0
    3e0c:	00100000 	andseq	r0, r0, r0
    3e10:	00026511 	andeq	r6, r2, r1, lsl r5
    3e14:	03661200 	cmneq	r6, #0, 4
    3e18:	81010000 	mrshi	r0, (UNDEF: 1)
    3e1c:	00000059 	andeq	r0, r0, r9, asr r0
    3e20:	11000010 	tstne	r0, r0, lsl r0
    3e24:	0000028d 	andeq	r0, r0, sp, lsl #5
    3e28:	00036613 	andeq	r6, r3, r3, lsl r6
    3e2c:	59810100 	stmibpl	r1, {r8}
    3e30:	00000000 	andeq	r0, r0, r0
    3e34:	0000027d 	andeq	r0, r0, sp, ror r2
    3e38:	14001010 	strne	r1, [r0], #-16
    3e3c:	00000ccf 	andeq	r0, r0, pc, asr #25
    3e40:	0059cc01 	subseq	ip, r9, r1, lsl #24
    3e44:	10000000 	andne	r0, r0, r0
    3e48:	15000010 	strne	r0, [r0, #-16]
    3e4c:	00036613 	andeq	r6, r3, r3, lsl r6
    3e50:	59810100 	stmibpl	r1, {r8}
    3e54:	00000000 	andeq	r0, r0, r0
    3e58:	000002a1 	andeq	r0, r0, r1, lsr #5
    3e5c:	14001010 	strne	r1, [r0], #-16
    3e60:	00000ccf 	andeq	r0, r0, pc, asr #25
    3e64:	0059cc01 	subseq	ip, r9, r1, lsl #24
    3e68:	10000000 	andne	r0, r0, r0
    3e6c:	00000010 	andeq	r0, r0, r0, lsl r0
    3e70:	000bf716 	andeq	pc, fp, r6, lsl r7	; <UNPREDICTABLE>
    3e74:	59710100 	ldmdbpl	r1!, {r8}^
    3e78:	e4000000 	str	r0, [r0], #-0
    3e7c:	dc01611a 	stfles	f6, [r1], {26}
    3e80:	01000001 	tsteq	r0, r1
    3e84:	00042d9c 	muleq	r4, ip, sp
    3e88:	07fe1700 	ldrbeq	r1, [lr, r0, lsl #14]!
    3e8c:	71010000 	mrsvc	r0, (UNDEF: 1)
    3e90:	000000ea 	andeq	r0, r0, sl, ror #1
    3e94:	00002de5 	andeq	r2, r0, r5, ror #27
    3e98:	000c9717 	andeq	r9, ip, r7, lsl r7
    3e9c:	2d710100 	ldfcse	f0, [r1, #-0]
    3ea0:	3f000004 	svccc	0x00000004
    3ea4:	1700002e 	strne	r0, [r0, -lr, lsr #32]
    3ea8:	00000caa 	andeq	r0, r0, sl, lsr #25
    3eac:	00df7101 	sbcseq	r7, pc, r1, lsl #2
    3eb0:	2e770000 	cdpcs	0, 7, cr0, cr7, cr0, {0}
    3eb4:	91170000 	tstls	r7, r0
    3eb8:	0100000c 	tsteq	r0, ip
    3ebc:	0000df71 	andeq	sp, r0, r1, ror pc
    3ec0:	002e9800 	eoreq	r9, lr, r0, lsl #16
    3ec4:	0a691700 	beq	1a49acc <__bss_end__+0x426f0c>
    3ec8:	71010000 	mrsvc	r0, (UNDEF: 1)
    3ecc:	000000df 	ldrdeq	r0, [r0], -pc	; <UNPREDICTABLE>
    3ed0:	00002eb6 			; <UNDEFINED> instruction: 0x00002eb6
    3ed4:	000cb318 	andeq	fp, ip, r8, lsl r3
    3ed8:	df710100 	svcle	0x00710100
    3edc:	02000000 	andeq	r0, r0, #0
    3ee0:	13170491 	tstne	r7, #-1862270976	; 0x91000000
    3ee4:	0100000c 	tsteq	r0, ip
    3ee8:	0000df71 	andeq	sp, r0, r1, ror pc
    3eec:	002eeb00 	eoreq	lr, lr, r0, lsl #22
    3ef0:	0ea01900 	cdpeq	9, 10, cr1, cr0, cr0, {0}
    3ef4:	01440000 	mrseq	r0, (UNDEF: 68)
    3ef8:	00035e74 	andeq	r5, r3, r4, ror lr
    3efc:	69751a00 	ldmdbvs	r5!, {r9, fp, ip}^
    3f00:	2f750100 	svccs	0x00750100
    3f04:	1a000004 	bne	3f1c <_back_addr-0x160c0e4>
    3f08:	01007375 	tsteq	r0, r5, ror r3
    3f0c:	00043f76 	andeq	r3, r4, r6, ror pc
    3f10:	63751a00 	cmnvs	r5, #0, 20
    3f14:	4f770100 	svcmi	0x00770100
    3f18:	00000004 	andeq	r0, r0, r4
    3f1c:	00626c1b 	rsbeq	r6, r2, fp, lsl ip
    3f20:	03337801 	teqeq	r3, #65536	; 0x10000
    3f24:	91030000 	mrsls	r0, (UNDEF: 3)
    3f28:	691c7f94 	ldmdbvs	ip, {r2, r4, r7, r8, r9, sl, fp, ip, sp, lr}
    3f2c:	59790100 	ldmdbpl	r9!, {r8}^
    3f30:	66000000 	strvs	r0, [r0], -r0
    3f34:	1d00002f 	stcne	0, cr0, [r0, #-188]	; 0xffffff44
    3f38:	00000558 	andeq	r0, r0, r8, asr r5
    3f3c:	0003660f 	andeq	r6, r3, pc, lsl #12
    3f40:	59810100 	stmibpl	r1, {r8}
    3f44:	8f000000 	svchi	0x00000000
    3f48:	10000003 	andne	r0, r0, r3
    3f4c:	02260f00 	eoreq	r0, r6, #0, 30
    3f50:	a7010000 	strge	r0, [r1, -r0]
    3f54:	00000059 	andeq	r0, r0, r9, asr r0
    3f58:	000003a0 	andeq	r0, r0, r0, lsr #7
    3f5c:	781e0010 	ldmdavc	lr, {r4}
    3f60:	d3000005 	movwle	r0, #5
    3f64:	1c000003 	stcne	0, cr0, [r0], {3}
    3f68:	89010078 	stmdbhi	r1, {r3, r4, r5, r6}
    3f6c:	0000010b 	andeq	r0, r0, fp, lsl #2
    3f70:	00002fd3 	ldrdeq	r2, [r0], -r3
    3f74:	611b741f 	tstvs	fp, pc, lsl r4
    3f78:	00149c01 	andseq	r9, r4, r1, lsl #24
    3f7c:	1bd42000 	blne	ff50bf84 <__bss_end__+0xfdee93c4>
    3f80:	149c0161 	ldrne	r0, [ip], #353	; 0x161
    3f84:	01210000 	teqeq	r1, r0
    3f88:	20030550 	andcs	r0, r3, r0, asr r5
    3f8c:	00016126 	andeq	r6, r1, r6, lsr #2
    3f90:	1b342200 	blne	d0c798 <_back_addr-0x903868>
    3f94:	149c0161 	ldrne	r0, [ip], #353	; 0x161
    3f98:	03f10000 	mvnseq	r0, #0
    3f9c:	01210000 	teqeq	r1, r0
    3fa0:	0c030550 	cfstr32eq	mvfx0, [r3], {80}	; 0x50
    3fa4:	21016126 	tstcs	r1, r6, lsr #2
    3fa8:	7d035101 	stfvcs	f5, [r3, #-4]
    3fac:	22000600 	andcs	r0, r0, #0, 12
    3fb0:	01611c74 	smceq	4548	; 0x11c4
    3fb4:	0000149c 	muleq	r0, ip, r4
    3fb8:	0000040f 	andeq	r0, r0, pc, lsl #8
    3fbc:	05500121 	ldrbeq	r0, [r0, #-289]	; 0x121
    3fc0:	61262403 	teqvs	r6, r3, lsl #8
    3fc4:	51012101 	tstpl	r1, r1, lsl #2
    3fc8:	7f8c9103 	svcvc	0x008c9103
    3fcc:	1c781f00 	ldclne	15, cr1, [r8], #-0
    3fd0:	14ad0161 	strtne	r0, [sp], #353	; 0x161
    3fd4:	b0200000 	eorlt	r0, r0, r0
    3fd8:	9c01611c 	stflss	f6, [r1], {28}
    3fdc:	21000014 	tstcs	r0, r4, lsl r0
    3fe0:	03055001 	movweq	r5, #20481	; 0x5001
    3fe4:	01612630 	cmneq	r1, r0, lsr r6
    3fe8:	23000000 	movwcs	r0, #0
    3fec:	010b2404 	tsteq	fp, r4, lsl #8
    3ff0:	043f0000 	ldrteq	r0, [pc], #-0	; 3ff8 <_back_addr-0x160c008>
    3ff4:	7f250000 	svcvc	0x00250000
    3ff8:	10000000 	andne	r0, r0, r0
    3ffc:	01002400 	tsteq	r0, r0, lsl #8
    4000:	044f0000 	strbeq	r0, [pc], #-0	; 4008 <_back_addr-0x160bff8>
    4004:	7f250000 	svcvc	0x00250000
    4008:	20000000 	andcs	r0, r0, r0
    400c:	00f52400 	rscseq	r2, r5, r0, lsl #8
    4010:	045f0000 	ldrbeq	r0, [pc], #-0	; 4018 <_back_addr-0x160bfe8>
    4014:	7f250000 	svcvc	0x00250000
    4018:	40000000 	andmi	r0, r0, r0
    401c:	0da52600 	stceq	6, cr2, [r5]
    4020:	cb010000 	blgt	44028 <_back_addr-0x15cbfd8>
    4024:	00005901 	andeq	r5, r0, r1, lsl #18
    4028:	611cc000 	tstvs	ip, r0
    402c:	0000b001 	andeq	fp, r0, r1
    4030:	859c0100 	ldrhi	r0, [ip, #256]	; 0x100
    4034:	27000005 	strcs	r0, [r0, -r5]
    4038:	0079656b 	rsbseq	r6, r9, fp, ror #10
    403c:	8501d501 	strhi	sp, [r1, #-1281]	; 0x501
    4040:	28000005 	stmdacs	r0, {r0, r2}
    4044:	00746572 	rsbseq	r6, r4, r2, ror r5
    4048:	5901d601 	stmdbpl	r1, {r0, r9, sl, ip, lr, pc}
    404c:	f1000000 	cps	#0
    4050:	2900002f 	stmdbcs	r0, {r0, r1, r2, r3, r5}
    4054:	00000803 	andeq	r0, r0, r3, lsl #16
    4058:	5901d801 	stmdbpl	r1, {r0, fp, ip, lr, pc}
    405c:	a7000000 	strge	r0, [r0, -r0]
    4060:	10000004 	andne	r0, r0, r4
    4064:	03660f00 	cmneq	r6, #0, 30
    4068:	81010000 	mrshi	r0, (UNDEF: 1)
    406c:	00000059 	andeq	r0, r0, r9, asr r0
    4070:	000004b8 			; <UNDEFINED> instruction: 0x000004b8
    4074:	69280010 	stmdbvs	r8!, {r4}
    4078:	01db0100 	bicseq	r0, fp, r0, lsl #2
    407c:	00000059 	andeq	r0, r0, r9, asr r0
    4080:	00003025 	andeq	r3, r0, r5, lsr #32
    4084:	00027129 	andeq	r7, r2, r9, lsr #2
    4088:	01e20100 	mvneq	r0, r0, lsl #2
    408c:	00000059 	andeq	r0, r0, r9, asr r0
    4090:	000004d8 	ldrdeq	r0, [r0], -r8
    4094:	e8220010 	stmda	r2!, {r4}
    4098:	be01611c 	mcrlt	1, 0, r6, cr1, cr12, {0}
    409c:	02000014 	andeq	r0, r0, #20
    40a0:	21000005 	tstcs	r0, r5
    40a4:	03055001 	movweq	r5, #20481	; 0x5001
    40a8:	01622a54 	cmneq	r2, r4, asr sl
    40ac:	01510121 	cmpeq	r1, r1, lsr #2
    40b0:	52012140 	andpl	r2, r1, #64, 2
    40b4:	2a440305 	bcs	1104cd0 <_back_addr-0x50b330>
    40b8:	01210162 	teqeq	r1, r2, ror #2
    40bc:	00300153 	eorseq	r0, r0, r3, asr r1
    40c0:	611cfc22 	tstvs	ip, r2, lsr #24
    40c4:	00149c01 	andseq	r9, r4, r1, lsl #24
    40c8:	00051900 	andeq	r1, r5, r0, lsl #18
    40cc:	50012100 	andpl	r2, r1, r0, lsl #2
    40d0:	26380305 	ldrtcs	r0, [r8], -r5, lsl #6
    40d4:	22000161 	andcs	r0, r0, #1073741848	; 0x40000018
    40d8:	01611d10 	cmneq	r1, r0, lsl sp
    40dc:	0000149c 	muleq	r0, ip, r4
    40e0:	00000530 	andeq	r0, r0, r0, lsr r5
    40e4:	05500121 	ldrbeq	r0, [r0, #-289]	; 0x121
    40e8:	61264003 	teqvs	r6, r3
    40ec:	30220001 	eorcc	r0, r2, r1
    40f0:	d001611d 	andle	r6, r1, sp, lsl r1
    40f4:	5a000014 	bpl	414c <_back_addr-0x160beb4>
    40f8:	21000005 	tstcs	r0, r5
    40fc:	03055001 	movweq	r5, #20481	; 0x5001
    4100:	01622a44 	cmneq	r2, r4, asr #20
    4104:	01510121 	cmpeq	r1, r1, lsr #2
    4108:	52012140 	andpl	r2, r1, #64, 2
    410c:	2a640305 	bcs	1904d28 <__bss_end__+0x2e2168>
    4110:	01210162 	teqeq	r1, r2, ror #2
    4114:	00300153 	eorseq	r0, r0, r3, asr r1
    4118:	611d4422 	tstvs	sp, r2, lsr #8
    411c:	00149c01 	andseq	r9, r4, r1, lsl #24
    4120:	00057100 	andeq	r7, r5, r0, lsl #2
    4124:	50012100 	andpl	r2, r1, r0, lsl #2
    4128:	26380305 	ldrtcs	r0, [r8], -r5, lsl #6
    412c:	20000161 	andcs	r0, r0, r1, ror #2
    4130:	01611d58 	cmneq	r1, r8, asr sp
    4134:	0000149c 	muleq	r0, ip, r4
    4138:	05500121 	ldrbeq	r0, [r0, #-289]	; 0x121
    413c:	61265c03 	teqvs	r6, r3, lsl #24
    4140:	24000001 	strcs	r0, [r0], #-1
    4144:	00000025 	andeq	r0, r0, r5, lsr #32
    4148:	00000595 	muleq	r0, r5, r5
    414c:	00007f25 	andeq	r7, r0, r5, lsr #30
    4150:	26000300 	strcs	r0, [r0], -r0, lsl #6
    4154:	00000c9c 	muleq	r0, ip, ip
    4158:	2501ec01 	strcs	lr, [r1, #-3073]	; 0xc01
    415c:	70000000 	andvc	r0, r0, r0
    4160:	3001611d 	andcc	r6, r1, sp, lsl r1
    4164:	01000000 	mrseq	r0, (UNDEF: 0)
    4168:	00063d9c 	muleq	r6, ip, sp
    416c:	0e372a00 	vaddeq.f32	s4, s14, s0
    4170:	ec010000 	stc	0, cr0, [r1], {-0}
    4174:	00002501 	andeq	r2, r0, r1, lsl #10
    4178:	00309f00 	eorseq	r9, r0, r0, lsl #30
    417c:	0bd32b00 	bleq	ff4ced84 <__bss_end__+0xfdeac1c4>
    4180:	ee010000 	cdp	0, 0, cr0, cr1, cr0, {0}
    4184:	00002501 	andeq	r2, r0, r1, lsl #10
    4188:	0030c000 	eorseq	ip, r0, r0
    418c:	0d392b00 	vldmdbeq	r9!, {d2-d1}
    4190:	ee010000 	cdp	0, 0, cr0, cr1, cr0, {0}
    4194:	00002501 	andeq	r2, r0, r1, lsl #10
    4198:	0030ef00 	eorseq	lr, r0, r0, lsl #30
    419c:	0ce12b00 	vstmiaeq	r1!, {d18-d17}
    41a0:	ef010000 	svc	0x00010000
    41a4:	00002501 	andeq	r2, r0, r1, lsl #10
    41a8:	00311100 	eorseq	r1, r1, r0, lsl #2
    41ac:	0d332b00 	vldmdbeq	r3!, {d2-d1}
    41b0:	ef010000 	svc	0x00010000
    41b4:	00002501 	andeq	r2, r0, r1, lsl #10
    41b8:	00317500 	eorseq	r7, r1, r0, lsl #10
    41bc:	0e552b00 	vnmlseq.f64	d18, d5, d0
    41c0:	ef010000 	svc	0x00010000
    41c4:	00002501 	andeq	r2, r0, r1, lsl #10
    41c8:	0031b500 	eorseq	fp, r1, r0, lsl #10
    41cc:	01212c00 	teqeq	r1, r0, lsl #24
    41d0:	1d8c0000 	stcne	0, cr0, [ip]
    41d4:	00040161 	andeq	r0, r4, r1, ror #2
    41d8:	f7010000 			; <UNDEFINED> instruction: 0xf7010000
    41dc:	01312d01 	teqeq	r1, r1, lsl #26
    41e0:	31c90000 	biccc	r0, r9, r0
    41e4:	8c2e0000 	stchi	0, cr0, [lr], #-0
    41e8:	0401611d 	streq	r6, [r1], #-285	; 0x11d
    41ec:	2d000000 	stccs	0, cr0, [r0, #-0]
    41f0:	00000131 	andeq	r0, r0, r1, lsr r1
    41f4:	000031c9 	andeq	r3, r0, r9, asr #3
    41f8:	26000000 	strcs	r0, [r0], -r0
    41fc:	00000c1b 	andeq	r0, r0, fp, lsl ip
    4200:	59015101 	stmdbpl	r1, {r0, r8, ip, lr}
    4204:	a0000000 	andge	r0, r0, r0
    4208:	3c01611d 	stfccs	f6, [r1], {29}
    420c:	01000000 	mrseq	r0, (UNDEF: 0)
    4210:	0006b59c 	muleq	r6, ip, r5
    4214:	65722800 	ldrbvs	r2, [r2, #-2048]!	; 0x800
    4218:	53010074 	movwpl	r0, #4212	; 0x1074
    421c:	00002501 	andeq	r2, r0, r1, lsl #10
    4220:	00320000 	eorseq	r0, r2, r0
    4224:	03660f00 	cmneq	r6, #0, 30
    4228:	81010000 	mrshi	r0, (UNDEF: 1)
    422c:	00000059 	andeq	r0, r0, r9, asr r0
    4230:	00000678 	andeq	r0, r0, r8, ror r6
    4234:	b4220010 	strtlt	r0, [r2], #-16
    4238:	9c01611d 	stflss	f6, [r1], {29}
    423c:	96000014 			; <UNDEFINED> instruction: 0x96000014
    4240:	21000006 	tstcs	r0, r6
    4244:	03055001 	movweq	r5, #20481	; 0x5001
    4248:	01612678 	smceq	4712	; 0x1268
    424c:	03510121 	cmpeq	r1, #1073741832	; 0x40000008
    4250:	000e0a0a 	andeq	r0, lr, sl, lsl #20
    4254:	611dbc22 	tstvs	sp, r2, lsr #24
    4258:	00059501 	andeq	r9, r5, r1, lsl #10
    425c:	0006ab00 	andeq	sl, r6, r0, lsl #22
    4260:	50012100 	andpl	r2, r1, r0, lsl #2
    4264:	0e0a0a03 	vmlaeq.f32	s0, s20, s6
    4268:	1dd41f00 	ldclne	15, cr1, [r4]
    426c:	149c0161 	ldrne	r0, [ip], #353	; 0x161
    4270:	2f000000 	svccs	0x00000000
    4274:	00000160 	andeq	r0, r0, r0, ror #2
    4278:	01611ddc 	ldrdeq	r1, [r1, #-220]!	; 0xffffff24
    427c:	00000004 	andeq	r0, r0, r4
    4280:	06e49c01 	strbteq	r9, [r4], r1, lsl #24
    4284:	712d0000 	teqvc	sp, r0
    4288:	1f000001 	svcne	0x00000001
    428c:	30000032 	andcc	r0, r0, r2, lsr r0
    4290:	0000017d 	andeq	r0, r0, sp, ror r1
    4294:	00003240 	andeq	r3, r0, r0, asr #4
    4298:	00018930 	andeq	r8, r1, r0, lsr r9
    429c:	00326f00 	eorseq	r6, r2, r0, lsl #30
    42a0:	b3310000 	teqlt	r1, #0
    42a4:	0100000e 	tsteq	r0, lr
    42a8:	00590216 	subseq	r0, r9, r6, lsl r2
    42ac:	1de00000 	stclne	0, cr0, [r0]
    42b0:	00400161 	subeq	r0, r0, r1, ror #2
    42b4:	9c010000 	stcls	0, cr0, [r1], {-0}
    42b8:	000007b5 			; <UNDEFINED> instruction: 0x000007b5
    42bc:	000ae432 	andeq	lr, sl, r2, lsr r4
    42c0:	02180100 	andseq	r0, r8, #0, 2
    42c4:	00000025 	andeq	r0, r0, r5, lsr #32
    42c8:	0080a000 	addeq	sl, r0, r0
    42cc:	0003660f 	andeq	r6, r3, pc, lsl #12
    42d0:	59810100 	stmibpl	r1, {r8}
    42d4:	1f000000 	svcne	0x00000000
    42d8:	10000007 	andne	r0, r0, r7
    42dc:	0dbb3300 	ldceq	3, cr3, [fp]
    42e0:	07c50000 	strbeq	r0, [r5, r0]
    42e4:	03050000 	movweq	r0, #20480	; 0x5000
    42e8:	016125fc 	strdeq	r2, [r1, #-92]!	; 0xffffffa4
    42ec:	00012134 	andeq	r2, r1, r4, lsr r1
    42f0:	611de000 	tstvs	sp, r0
    42f4:	0005b001 	andeq	fp, r5, r1
    42f8:	021f0100 	andseq	r0, pc, #0, 2
    42fc:	0000075d 	andeq	r0, r0, sp, asr r7
    4300:	00013135 	andeq	r3, r1, r5, lsr r1
    4304:	85e88000 	strbhi	r8, [r8, #0]!
    4308:	b01d79c0 	andslt	r7, sp, r0, asr #19
    430c:	35000005 	strcc	r0, [r0, #-5]
    4310:	00000131 	andeq	r0, r0, r1, lsr r1
    4314:	c085e880 	addgt	lr, r5, r0, lsl #17
    4318:	36000079 			; <UNDEFINED> instruction: 0x36000079
    431c:	0000013d 	andeq	r0, r0, sp, lsr r1
    4320:	01611df4 	strdeq	r1, [r1, #-212]!	; 0xffffff2c
    4324:	0000000c 	andeq	r0, r0, ip
    4328:	85022101 	strhi	r2, [r2, #-257]	; 0x101
    432c:	37000007 	strcc	r0, [r0, -r7]
    4330:	00000154 	andeq	r0, r0, r4, asr r1
    4334:	0080a000 	addeq	sl, r0, r0
    4338:	00014935 	andeq	r4, r1, r5, lsr r9
    433c:	85e88000 	strbhi	r8, [r8, #0]!
    4340:	220079c0 	andcs	r7, r0, #192, 18	; 0x300000
    4344:	01611e04 	cmneq	r1, r4, lsl #28
    4348:	000014e2 	andeq	r1, r0, r2, ror #9
    434c:	00000798 	muleq	r0, r8, r7
    4350:	01500121 	cmpeq	r0, r1, lsr #2
    4354:	18200035 	stmdane	r0!, {r0, r2, r4, r5}
    4358:	9c01611e 	stflss	f6, [r1], {30}
    435c:	21000014 	tstcs	r0, r4, lsl r0
    4360:	03055001 	movweq	r5, #20481	; 0x5001
    4364:	016126b8 	strheq	r2, [r1, #-104]!	; 0xffffff98
    4368:	05510121 	ldrbeq	r0, [r1, #-289]	; 0x121
    436c:	6125fc03 	msrvs	CPSR_sc, r3, lsl #24
    4370:	24000001 	strcs	r0, [r0], #-1
    4374:	00000052 	andeq	r0, r0, r2, asr r0
    4378:	000007c5 	andeq	r0, r0, r5, asr #15
    437c:	00007f25 	andeq	r7, r0, r5, lsr #30
    4380:	38000f00 	stmdacc	r0, {r8, r9, sl, fp}
    4384:	000007b5 			; <UNDEFINED> instruction: 0x000007b5
    4388:	000c7116 	andeq	r7, ip, r6, lsl r1
    438c:	59b60100 	ldmibpl	r6!, {r8}
    4390:	20000000 	andcs	r0, r0, r0
    4394:	ac01611e 	stfges	f6, [r1], {30}
    4398:	01000000 	mrseq	r0, (UNDEF: 0)
    439c:	0009179c 	muleq	r9, ip, r7
    43a0:	0cc61700 	stcleq	7, cr1, [r6], {0}
    43a4:	b6010000 	strlt	r0, [r1], -r0
    43a8:	00000025 	andeq	r0, r0, r5, lsr #32
    43ac:	00003296 	muleq	r0, r6, r2
    43b0:	000d8817 	andeq	r8, sp, r7, lsl r8
    43b4:	25b60100 	ldrcs	r0, [r6, #256]!	; 0x100
    43b8:	c2000000 	andgt	r0, r0, #0
    43bc:	17000032 	smladxne	r0, r2, r0, r0
    43c0:	00000b96 	muleq	r0, r6, fp
    43c4:	0917b601 	ldmdbeq	r7, {r0, r9, sl, ip, sp, pc}
    43c8:	32ee0000 	rsccc	r0, lr, #0
    43cc:	691c0000 	ldmdbvs	ip, {}	; <UNPREDICTABLE>
    43d0:	25b80100 	ldrcs	r0, [r8, #256]!	; 0x100
    43d4:	1a000000 	bne	43dc <_back_addr-0x160bc24>
    43d8:	1c000033 	stcne	0, cr0, [r0], {51}	; 0x33
    43dc:	b801006a 	stmdalt	r1, {r1, r3, r5, r6}
    43e0:	00000025 	andeq	r0, r0, r5, lsr #32
    43e4:	00003351 	andeq	r3, r0, r1, asr r3
    43e8:	000c0039 	andeq	r0, ip, r9, lsr r0
    43ec:	25b90100 	ldrcs	r0, [r9, #256]!	; 0x100
    43f0:	7b000000 	blvc	43f8 <_back_addr-0x160bc08>
    43f4:	39000033 	stmdbcc	r0, {r0, r1, r4, r5}
    43f8:	00000d15 	andeq	r0, r0, r5, lsl sp
    43fc:	0025b901 	eoreq	fp, r5, r1, lsl #18
    4400:	33a90000 			; <UNDEFINED> instruction: 0x33a90000
    4404:	660f0000 	strvs	r0, [pc], -r0
    4408:	01000003 	tsteq	r0, r3
    440c:	00005981 	andeq	r5, r0, r1, lsl #19
    4410:	00085900 	andeq	r5, r8, r0, lsl #18
    4414:	0f001000 	svceq	0x00001000
    4418:	00000eb3 			; <UNDEFINED> instruction: 0x00000eb3
    441c:	0059d801 	subseq	sp, r9, r1, lsl #16
    4420:	086a0000 	stmdaeq	sl!, {}^	; <UNPREDICTABLE>
    4424:	00100000 	andseq	r0, r0, r0
    4428:	611e883a 	tstvs	lr, sl, lsr r8
    442c:	00000801 	andeq	r0, r0, r1, lsl #16
    4430:	00088500 	andeq	r8, r8, r0, lsl #10
    4434:	0ccf1200 	sfmeq	f1, 2, [pc], {0}
    4438:	cc010000 	stcgt	0, cr0, [r1], {-0}
    443c:	00000059 	andeq	r0, r0, r9, asr r0
    4440:	22000010 	andcs	r0, r0, #16
    4444:	01611e3c 	cmneq	r1, ip, lsr lr
    4448:	0000149c 	muleq	r0, ip, r4
    444c:	0000089c 	muleq	r0, ip, r8
    4450:	05500121 	ldrbeq	r0, [r0, #-289]	; 0x121
    4454:	6126c403 	teqvs	r6, r3, lsl #8
    4458:	50220001 	eorpl	r0, r2, r1
    445c:	9c01611e 	stflss	f6, [r1], {30}
    4460:	bf000014 	svclt	0x00000014
    4464:	21000008 	tstcs	r0, r8
    4468:	03055001 	movweq	r5, #20481	; 0x5001
    446c:	016126dc 	ldrdeq	r2, [r1, #-108]!	; 0xffffff94
    4470:	02510121 	subseq	r0, r1, #1073741832	; 0x40000008
    4474:	01210074 	teqeq	r1, r4, ror r0
    4478:	00770252 	rsbseq	r0, r7, r2, asr r2
    447c:	1e582200 	cdpne	2, 5, cr2, cr8, cr0, {0}
    4480:	05950161 	ldreq	r0, [r5, #353]	; 0x161
    4484:	08d40000 	ldmeq	r4, {}^	; <UNPREDICTABLE>
    4488:	01210000 	teqeq	r1, r0
    448c:	e00a0350 	and	r0, sl, r0, asr r3
    4490:	941f000f 	ldrls	r0, [pc], #-15	; 4498 <_back_addr-0x160bb68>
    4494:	9c01611e 	stflss	f6, [r1], {30}
    4498:	22000014 	andcs	r0, r0, #20
    449c:	01611eb4 	strheq	r1, [r1, #-228]!	; 0xffffff1c
    44a0:	0000149c 	muleq	r0, ip, r4
    44a4:	000008fa 	strdeq	r0, [r0], -sl
    44a8:	05500121 	ldrbeq	r0, [r0, #-289]	; 0x121
    44ac:	61271403 	teqvs	r7, r3, lsl #8
    44b0:	51012101 	tstpl	r1, r1, lsl #2
    44b4:	00007502 	andeq	r7, r0, r2, lsl #10
    44b8:	611ebc1f 	tstvs	lr, pc, lsl ip
    44bc:	0006e401 	andeq	lr, r6, r1, lsl #8
    44c0:	1ecc3b00 	vdivne.f64	d19, d12, d0
    44c4:	149c0161 	ldrne	r0, [ip], #353	; 0x161
    44c8:	01210000 	teqeq	r1, r0
    44cc:	fc030550 	stc2	5, cr0, [r3], {80}	; 0x50
    44d0:	00016126 	andeq	r6, r1, r6, lsr #2
    44d4:	16043c00 	strne	r3, [r4], -r0, lsl #24
    44d8:	16000001 	strne	r0, [r0], -r1
    44dc:	00000c7f 	andeq	r0, r0, pc, ror ip
    44e0:	0059de01 	subseq	sp, r9, r1, lsl #28
    44e4:	1ecc0000 	cdpne	0, 12, cr0, cr12, cr0, {0}
    44e8:	00340161 	eorseq	r0, r4, r1, ror #2
    44ec:	9c010000 	stcls	0, cr0, [r1], {-0}
    44f0:	0000097b 	andeq	r0, r0, fp, ror r9
    44f4:	0003660f 	andeq	r6, r3, pc, lsl #12
    44f8:	59810100 	stmibpl	r1, {r8}
    44fc:	47000000 	strmi	r0, [r0, -r0]
    4500:	10000009 	andne	r0, r0, r9
    4504:	1ee82200 	cdpne	2, 14, cr2, cr8, cr0, {0}
    4508:	149c0161 	ldrne	r0, [ip], #353	; 0x161
    450c:	095e0000 	ldmdbeq	lr, {}^	; <UNPREDICTABLE>
    4510:	01210000 	teqeq	r1, r0
    4514:	28030550 	stmdacs	r3, {r4, r6, r8, sl}
    4518:	00016127 	andeq	r6, r1, r7, lsr #2
    451c:	611ef820 	tstvs	lr, r0, lsr #16
    4520:	0007ca01 	andeq	ip, r7, r1, lsl #20
    4524:	50012100 	andpl	r2, r1, r0, lsl #2
    4528:	01213001 	teqeq	r1, r1
    452c:	000a0351 	andeq	r0, sl, r1, asr r3
    4530:	52012101 	andpl	r2, r1, #1073741824	; 0x40000000
    4534:	00007402 	andeq	r7, r0, r2, lsl #8
    4538:	0ce91600 	stcleq	6, cr1, [r9]
    453c:	e7010000 	str	r0, [r1, -r0]
    4540:	00000059 	andeq	r0, r0, r9, asr r0
    4544:	01611f00 	cmneq	r1, r0, lsl #30
    4548:	00000064 	andeq	r0, r0, r4, rrx
    454c:	0a559c01 	beq	156b558 <_back_addr-0xa4aa8>
    4550:	bc170000 	ldclt	0, cr0, [r7], {-0}
    4554:	0100000c 	tsteq	r0, ip
    4558:	000025e7 	andeq	r2, r0, r7, ror #11
    455c:	0033c800 	eorseq	ip, r3, r0, lsl #16
    4560:	0c091700 	stceq	7, cr1, [r9], {-0}
    4564:	e7010000 	str	r0, [r1, -r0]
    4568:	00000025 	andeq	r0, r0, r5, lsr #32
    456c:	00003434 	andeq	r3, r0, r4, lsr r4
    4570:	000b9617 	andeq	r9, fp, r7, lsl r6
    4574:	17e70100 	strbne	r0, [r7, r0, lsl #2]!
    4578:	81000009 	tsthi	r0, r9
    457c:	3a000034 	bcc	4654 <_back_addr-0x160b9ac>
    4580:	01611f34 	cmneq	r1, r4, lsr pc
    4584:	00000018 	andeq	r0, r0, r8, lsl r0
    4588:	000009fd 	strdeq	r0, [r0], -sp
    458c:	0003660f 	andeq	r6, r3, pc, lsl #12
    4590:	59810100 	stmibpl	r1, {r8}
    4594:	df000000 	svcle	0x00000000
    4598:	10000009 	andne	r0, r0, r9
    459c:	1f442000 	svcne	0x00442000
    45a0:	149c0161 	ldrne	r0, [ip], #353	; 0x161
    45a4:	01210000 	teqeq	r1, r0
    45a8:	60030550 	andvs	r0, r3, r0, asr r5
    45ac:	21016127 	tstcs	r1, r7, lsr #2
    45b0:	f3065101 	vrhadd.u8	d5, d6, d1
    45b4:	00745001 	rsbseq	r5, r4, r1
    45b8:	3a000022 	bcc	4648 <_back_addr-0x160b9b8>
    45bc:	01611f4c 	cmneq	r1, ip, asr #30
    45c0:	00000018 	andeq	r0, r0, r8, lsl r0
    45c4:	00000a36 	andeq	r0, r0, r6, lsr sl
    45c8:	0003660f 	andeq	r6, r3, pc, lsl #12
    45cc:	59810100 	stmibpl	r1, {r8}
    45d0:	1b000000 	blne	45d8 <_back_addr-0x160ba28>
    45d4:	1000000a 	andne	r0, r0, sl
    45d8:	1f5c2000 	svcne	0x005c2000
    45dc:	149c0161 	ldrne	r0, [ip], #353	; 0x161
    45e0:	01210000 	teqeq	r1, r0
    45e4:	38030550 	stmdacc	r3, {r4, r6, r8, sl}
    45e8:	21016127 	tstcs	r1, r7, lsr #2
    45ec:	f3035101 	vrhadd.u8	d5, d3, d1
    45f0:	00005001 	andeq	r5, r0, r1
    45f4:	611f2c20 	tstvs	pc, r0, lsr #24
    45f8:	0007ca01 	andeq	ip, r7, r1, lsl #20
    45fc:	50012100 	andpl	r2, r1, r0, lsl #2
    4600:	5001f303 	andpl	pc, r1, r3, lsl #6
    4604:	02510121 	subseq	r0, r1, #1073741832	; 0x40000008
    4608:	01210074 	teqeq	r1, r4, ror r0
    460c:	01f30352 	mvnseq	r0, r2, asr r3
    4610:	26000052 			; <UNDEFINED> instruction: 0x26000052
    4614:	00000d93 	muleq	r0, r3, sp
    4618:	59019a01 	stmdbpl	r1, {r0, r9, fp, ip, pc}
    461c:	64000000 	strvs	r0, [r0], #-0
    4620:	6c01611f 	stfvss	f6, [r1], {31}
    4624:	01000000 	mrseq	r0, (UNDEF: 0)
    4628:	000ae59c 	muleq	sl, ip, r5
    462c:	0baf2a00 	bleq	febcee34 <__bss_end__+0xfd5ac274>
    4630:	9a010000 	bls	44638 <_back_addr-0x15cb9c8>
    4634:	00004701 	andeq	r4, r0, r1, lsl #14
    4638:	0034d400 	eorseq	sp, r4, r0, lsl #8
    463c:	1f8c2200 	svcne	0x008c2200
    4640:	07ca0161 	strbeq	r0, [sl, r1, ror #2]
    4644:	0aa20000 	beq	fe88464c <__bss_end__+0xfd261a8c>
    4648:	01210000 	teqeq	r1, r0
    464c:	000a0350 	andeq	r0, sl, r0, asr r3
    4650:	5101210a 	tstpl	r1, sl, lsl #2
    4654:	01214001 	teqeq	r1, r1
    4658:	94030552 	strls	r0, [r3], #-1362	; 0x552
    465c:	0001622b 	andeq	r6, r1, fp, lsr #4
    4660:	611fa422 	tstvs	pc, r2, lsr #8
    4664:	0007ca01 	andeq	ip, r7, r1, lsl #20
    4668:	000ac500 	andeq	ip, sl, r0, lsl #10
    466c:	50012100 	andpl	r2, r1, r0, lsl #2
    4670:	08000a03 	stmdaeq	r0, {r0, r1, r9, fp}
    4674:	01510121 	cmpeq	r1, r1, lsr #2
    4678:	52012140 	andpl	r2, r1, #64, 2
    467c:	2b740305 	blcs	1d05298 <__bss_end__+0x6e26d8>
    4680:	20000162 	andcs	r0, r0, r2, ror #2
    4684:	01611fbc 	strheq	r1, [r1, #-252]!	; 0xffffff04
    4688:	000007ca 	andeq	r0, r0, sl, asr #15
    468c:	03500121 	cmpeq	r0, #1073741832	; 0x40000008
    4690:	2109000a 	tstcs	r9, sl
    4694:	40015101 	andmi	r5, r1, r1, lsl #2
    4698:	05520121 	ldrbeq	r0, [r2, #-289]	; 0x121
    469c:	622b8403 	eorvs	r8, fp, #50331648	; 0x3000000
    46a0:	26000001 	strcs	r0, [r0], -r1
    46a4:	00000e3e 	andeq	r0, r0, lr, lsr lr
    46a8:	5901ac01 	stmdbpl	r1, {r0, sl, fp, sp, pc}
    46ac:	d0000000 	andle	r0, r0, r0
    46b0:	2001611f 	andcs	r6, r1, pc, lsl r1
    46b4:	01000000 	mrseq	r0, (UNDEF: 0)
    46b8:	000b1f9c 	muleq	fp, ip, pc	; <UNPREDICTABLE>
    46bc:	1fe42000 	svcne	0x00e42000
    46c0:	07ca0161 	strbeq	r0, [sl, r1, ror #2]
    46c4:	01210000 	teqeq	r1, r0
    46c8:	200a0350 	andcs	r0, sl, r0, asr r3
    46cc:	5101210d 	tstpl	r1, sp, lsl #2
    46d0:	01214001 	teqeq	r1, r1
    46d4:	a4030552 	strge	r0, [r3], #-1362	; 0x552
    46d8:	0001622b 	andeq	r6, r1, fp, lsr #4
    46dc:	0c522600 	mrrceq	6, 0, r2, r2, cr0	; <UNPREDICTABLE>
    46e0:	11010000 	mrsne	r0, (UNDEF: 1)
    46e4:	00005901 	andeq	r5, r0, r1, lsl #18
    46e8:	611ff000 	tstvs	pc, r0
    46ec:	00002801 	andeq	r2, r0, r1, lsl #16
    46f0:	a99c0100 	ldmibge	ip, {r8}
    46f4:	0f00000b 	svceq	0x0000000b
    46f8:	00000366 	andeq	r0, r0, r6, ror #6
    46fc:	00598101 	subseq	r8, r9, r1, lsl #2
    4700:	0b4a0000 	bleq	1284708 <_back_addr-0x38b8f8>
    4704:	00100000 	andseq	r0, r0, r0
    4708:	000ccf0f 	andeq	ip, ip, pc, lsl #30
    470c:	59cc0100 	stmibpl	ip, {r8}^
    4710:	5b000000 	blpl	4718 <_back_addr-0x160b8e8>
    4714:	1000000b 	andne	r0, r0, fp
    4718:	0eb30f00 	cdpeq	15, 11, cr0, cr3, cr0, {0}
    471c:	d8010000 	stmdale	r1, {}	; <UNPREDICTABLE>
    4720:	00000059 	andeq	r0, r0, r9, asr r0
    4724:	00000b6c 	andeq	r0, r0, ip, ror #22
    4728:	04220010 	strteq	r0, [r2], #-16
    472c:	9c016120 	stflss	f6, [r1], {32}
    4730:	8a000014 	bhi	4788 <_back_addr-0x160b878>
    4734:	2100000b 	tstcs	r0, fp
    4738:	03055001 	movweq	r5, #20481	; 0x5001
    473c:	01612788 	cmneq	r1, r8, lsl #15
    4740:	03510121 	cmpeq	r1, #1073741832	; 0x40000008
    4744:	000da60a 	andeq	sl, sp, sl, lsl #12
    4748:	61200c22 	teqvs	r0, r2, lsr #24
    474c:	00059501 	andeq	r9, r5, r1, lsl #10
    4750:	000b9f00 	andeq	r9, fp, r0, lsl #30
    4754:	50012100 	andpl	r2, r1, r0, lsl #2
    4758:	0fe00a03 	svceq	0x00e00a03
    475c:	20101f00 	andscs	r1, r0, r0, lsl #30
    4760:	06e40161 	strbteq	r0, [r4], r1, ror #2
    4764:	26000000 	strcs	r0, [r0], -r0
    4768:	00000d1d 	andeq	r0, r0, sp, lsl sp
    476c:	59011c01 	stmdbpl	r1, {r0, sl, fp, ip}
    4770:	18000000 	stmdane	r0, {}	; <UNPREDICTABLE>
    4774:	28016120 	stmdacs	r1, {r5, r8, sp, lr}
    4778:	01000000 	mrseq	r0, (UNDEF: 0)
    477c:	000c339c 	muleq	ip, ip, r3
    4780:	03660f00 	cmneq	r6, #0, 30
    4784:	81010000 	mrshi	r0, (UNDEF: 1)
    4788:	00000059 	andeq	r0, r0, r9, asr r0
    478c:	00000bd4 	ldrdeq	r0, [r0], -r4
    4790:	cf0f0010 	svcgt	0x000f0010
    4794:	0100000c 	tsteq	r0, ip
    4798:	000059cc 	andeq	r5, r0, ip, asr #19
    479c:	000be500 	andeq	lr, fp, r0, lsl #10
    47a0:	0f001000 	svceq	0x00001000
    47a4:	00000eb3 			; <UNDEFINED> instruction: 0x00000eb3
    47a8:	0059d801 	subseq	sp, r9, r1, lsl #16
    47ac:	0bf60000 	bleq	ffd847b4 <__bss_end__+0xfe761bf4>
    47b0:	00100000 	andseq	r0, r0, r0
    47b4:	61202c22 	teqvs	r0, r2, lsr #24
    47b8:	00149c01 	andseq	r9, r4, r1, lsl #24
    47bc:	000c1400 	andeq	r1, ip, r0, lsl #8
    47c0:	50012100 	andpl	r2, r1, r0, lsl #2
    47c4:	27ac0305 	strcs	r0, [ip, r5, lsl #6]!
    47c8:	01210161 	teqeq	r1, r1, ror #2
    47cc:	bb0a0351 	bllt	285518 <_back_addr-0x138aae8>
    47d0:	3422000d 	strtcc	r0, [r2], #-13
    47d4:	95016120 	strls	r6, [r1, #-288]	; 0x120
    47d8:	29000005 	stmdbcs	r0, {r0, r2}
    47dc:	2100000c 	tstcs	r0, ip
    47e0:	0a035001 	beq	d87ec <_back_addr-0x1537814>
    47e4:	1f000fe0 	svcne	0x00000fe0
    47e8:	01612038 	cmneq	r1, r8, lsr r0
    47ec:	000006e4 	andeq	r0, r0, r4, ror #13
    47f0:	0d472600 	stcleq	6, cr2, [r7, #-0]
    47f4:	27010000 	strcs	r0, [r1, -r0]
    47f8:	00005901 	andeq	r5, r0, r1, lsl #18
    47fc:	61204000 	teqvs	r0, r0
    4800:	00002801 	andeq	r2, r0, r1, lsl #16
    4804:	bd9c0100 	ldflts	f0, [ip]
    4808:	0f00000c 	svceq	0x0000000c
    480c:	00000366 	andeq	r0, r0, r6, ror #6
    4810:	00598101 	subseq	r8, r9, r1, lsl #2
    4814:	0c5e0000 	mraeq	r0, lr, acc0
    4818:	00100000 	andseq	r0, r0, r0
    481c:	000ccf0f 	andeq	ip, ip, pc, lsl #30
    4820:	59cc0100 	stmibpl	ip, {r8}^
    4824:	6f000000 	svcvs	0x00000000
    4828:	1000000c 	andne	r0, r0, ip
    482c:	0eb30f00 	cdpeq	15, 11, cr0, cr3, cr0, {0}
    4830:	d8010000 	stmdale	r1, {}	; <UNPREDICTABLE>
    4834:	00000059 	andeq	r0, r0, r9, asr r0
    4838:	00000c80 	andeq	r0, r0, r0, lsl #25
    483c:	54220010 	strtpl	r0, [r2], #-16
    4840:	9c016120 	stflss	f6, [r1], {32}
    4844:	9e000014 	mcrls	0, 0, r0, cr0, cr4, {0}
    4848:	2100000c 	tstcs	r0, ip
    484c:	03055001 	movweq	r5, #20481	; 0x5001
    4850:	016127d0 	ldrdeq	r2, [r1, #-112]!	; 0xffffff90
    4854:	03510121 	cmpeq	r1, #1073741832	; 0x40000008
    4858:	000e0e0a 	andeq	r0, lr, sl, lsl #28
    485c:	61205c22 	teqvs	r0, r2, lsr #24
    4860:	00059501 	andeq	r9, r5, r1, lsl #10
    4864:	000cb300 	andeq	fp, ip, r0, lsl #6
    4868:	50012100 	andpl	r2, r1, r0, lsl #2
    486c:	0fe00a03 	svceq	0x00e00a03
    4870:	20601f00 	rsbcs	r1, r0, r0, lsl #30
    4874:	06e40161 	strbteq	r0, [r4], r1, ror #2
    4878:	26000000 	strcs	r0, [r0], -r0
    487c:	00000c34 	andeq	r0, r0, r4, lsr ip
    4880:	59013201 	stmdbpl	r1, {r0, r9, ip, sp}
    4884:	68000000 	stmdavs	r0, {}	; <UNPREDICTABLE>
    4888:	28016120 	stmdacs	r1, {r5, r8, sp, lr}
    488c:	01000000 	mrseq	r0, (UNDEF: 0)
    4890:	000d479c 	muleq	sp, ip, r7
    4894:	03660f00 	cmneq	r6, #0, 30
    4898:	81010000 	mrshi	r0, (UNDEF: 1)
    489c:	00000059 	andeq	r0, r0, r9, asr r0
    48a0:	00000ce8 	andeq	r0, r0, r8, ror #25
    48a4:	cf0f0010 	svcgt	0x000f0010
    48a8:	0100000c 	tsteq	r0, ip
    48ac:	000059cc 	andeq	r5, r0, ip, asr #19
    48b0:	000cf900 	andeq	pc, ip, r0, lsl #18
    48b4:	0f001000 	svceq	0x00001000
    48b8:	00000eb3 			; <UNDEFINED> instruction: 0x00000eb3
    48bc:	0059d801 	subseq	sp, r9, r1, lsl #16
    48c0:	0d0a0000 	stceq	0, cr0, [sl, #-0]
    48c4:	00100000 	andseq	r0, r0, r0
    48c8:	61207c22 	teqvs	r0, r2, lsr #24
    48cc:	00149c01 	andseq	r9, r4, r1, lsl #24
    48d0:	000d2800 	andeq	r2, sp, r0, lsl #16
    48d4:	50012100 	andpl	r2, r1, r0, lsl #2
    48d8:	27f40305 	ldrbcs	r0, [r4, r5, lsl #6]!
    48dc:	01210161 	teqeq	r1, r1, ror #2
    48e0:	0f0a0351 	svceq	0x000a0351
    48e4:	8422000e 	strthi	r0, [r2], #-14
    48e8:	95016120 	strls	r6, [r1, #-288]	; 0x120
    48ec:	3d000005 	stccc	0, cr0, [r0, #-20]	; 0xffffffec
    48f0:	2100000d 	tstcs	r0, sp
    48f4:	0a035001 	beq	d8900 <_back_addr-0x1537700>
    48f8:	1f000fe0 	svcne	0x00000fe0
    48fc:	01612088 	cmneq	r1, r8, lsl #1
    4900:	000006e4 	andeq	r0, r0, r4, ror #13
    4904:	0e202600 	cfmadda32eq	mvax0, mvax2, mvfx0, mvfx0
    4908:	3d010000 	stccc	0, cr0, [r1, #-0]
    490c:	00005901 	andeq	r5, r0, r1, lsl #18
    4910:	61209000 	teqvs	r0, r0
    4914:	00002801 	andeq	r2, r0, r1, lsl #16
    4918:	d19c0100 	orrsle	r0, ip, r0, lsl #2
    491c:	0f00000d 	svceq	0x0000000d
    4920:	00000366 	andeq	r0, r0, r6, ror #6
    4924:	00598101 	subseq	r8, r9, r1, lsl #2
    4928:	0d720000 	ldcleq	0, cr0, [r2, #-0]
    492c:	00100000 	andseq	r0, r0, r0
    4930:	000ccf0f 	andeq	ip, ip, pc, lsl #30
    4934:	59cc0100 	stmibpl	ip, {r8}^
    4938:	83000000 	movwhi	r0, #0
    493c:	1000000d 	andne	r0, r0, sp
    4940:	0eb30f00 	cdpeq	15, 11, cr0, cr3, cr0, {0}
    4944:	d8010000 	stmdale	r1, {}	; <UNPREDICTABLE>
    4948:	00000059 	andeq	r0, r0, r9, asr r0
    494c:	00000d94 	muleq	r0, r4, sp
    4950:	a4220010 	strtge	r0, [r2], #-16
    4954:	9c016120 	stflss	f6, [r1], {32}
    4958:	b2000014 	andlt	r0, r0, #20
    495c:	2100000d 	tstcs	r0, sp
    4960:	03055001 	movweq	r5, #20481	; 0x5001
    4964:	0161281c 	cmneq	r1, ip, lsl r8
    4968:	03510121 	cmpeq	r1, #1073741832	; 0x40000008
    496c:	000dc20a 	andeq	ip, sp, sl, lsl #4
    4970:	6120ac22 	teqvs	r0, r2, lsr #24
    4974:	00059501 	andeq	r9, r5, r1, lsl #10
    4978:	000dc700 	andeq	ip, sp, r0, lsl #14
    497c:	50012100 	andpl	r2, r1, r0, lsl #2
    4980:	0fe00a03 	svceq	0x00e00a03
    4984:	20b01f00 	adcscs	r1, r0, r0, lsl #30
    4988:	06e40161 	strbteq	r0, [r4], r1, ror #2
    498c:	26000000 	strcs	r0, [r0], -r0
    4990:	00000d5d 	andeq	r0, r0, sp, asr sp
    4994:	59014701 	stmdbpl	r1, {r0, r8, r9, sl, lr}
    4998:	b8000000 	stmdalt	r0, {}	; <UNPREDICTABLE>
    499c:	28016120 	stmdacs	r1, {r5, r8, sp, lr}
    49a0:	01000000 	mrseq	r0, (UNDEF: 0)
    49a4:	000e5b9c 	muleq	lr, ip, fp
    49a8:	03660f00 	cmneq	r6, #0, 30
    49ac:	81010000 	mrshi	r0, (UNDEF: 1)
    49b0:	00000059 	andeq	r0, r0, r9, asr r0
    49b4:	00000dfc 	strdeq	r0, [r0], -ip
    49b8:	cf0f0010 	svcgt	0x000f0010
    49bc:	0100000c 	tsteq	r0, ip
    49c0:	000059cc 	andeq	r5, r0, ip, asr #19
    49c4:	000e0d00 	andeq	r0, lr, r0, lsl #26
    49c8:	0f001000 	svceq	0x00001000
    49cc:	00000eb3 			; <UNDEFINED> instruction: 0x00000eb3
    49d0:	0059d801 	subseq	sp, r9, r1, lsl #16
    49d4:	0e1e0000 	cdpeq	0, 1, cr0, cr14, cr0, {0}
    49d8:	00100000 	andseq	r0, r0, r0
    49dc:	6120cc22 	teqvs	r0, r2, lsr #24
    49e0:	00149c01 	andseq	r9, r4, r1, lsl #24
    49e4:	000e3c00 	andeq	r3, lr, r0, lsl #24
    49e8:	50012100 	andpl	r2, r1, r0, lsl #2
    49ec:	28400305 	stmdacs	r0, {r0, r2, r8, r9}^
    49f0:	01210161 	teqeq	r1, r1, ror #2
    49f4:	0a0a0351 	beq	285740 <_back_addr-0x138a8c0>
    49f8:	d422000e 	strtle	r0, [r2], #-14
    49fc:	95016120 	strls	r6, [r1, #-288]	; 0x120
    4a00:	51000005 	tstpl	r0, r5
    4a04:	2100000e 	tstcs	r0, lr
    4a08:	0a035001 	beq	d8a14 <_back_addr-0x15375ec>
    4a0c:	1f000fe0 	svcne	0x00000fe0
    4a10:	016120d8 	ldrdeq	r2, [r1, #-8]!
    4a14:	000006e4 	andeq	r0, r0, r4, ror #13
    4a18:	01962f00 	orrseq	r2, r6, r0, lsl #30
    4a1c:	20e00000 	rsccs	r0, r0, r0
    4a20:	007c0161 	rsbseq	r0, ip, r1, ror #2
    4a24:	9c010000 	stcls	0, cr0, [r1], {-0}
    4a28:	00000f34 	andeq	r0, r0, r4, lsr pc
    4a2c:	0001a72d 	andeq	sl, r1, sp, lsr #14
    4a30:	00352700 	eorseq	r2, r5, r0, lsl #14
    4a34:	01b33d00 			; <UNDEFINED> instruction: 0x01b33d00
    4a38:	84000000 	strhi	r0, [r0], #-0
    4a3c:	1000000e 	andne	r0, r0, lr
    4a40:	c81e0010 	ldmdagt	lr, {r4}
    4a44:	0b000005 	bleq	4a60 <_back_addr-0x160b5a0>
    4a48:	2d00000f 	stccs	0, cr0, [r0, #-60]	; 0xffffffc4
    4a4c:	000001a7 	andeq	r0, r0, r7, lsr #3
    4a50:	00003561 	andeq	r3, r0, r1, ror #10
    4a54:	0005c81d 	andeq	ip, r5, sp, lsl r8
    4a58:	212c3a00 	teqcs	ip, r0, lsl #20
    4a5c:	00140161 	andseq	r0, r4, r1, ror #2
    4a60:	0ec30000 	cdpeq	0, 12, cr0, cr3, cr0, {0}
    4a64:	3c200000 	stccc	0, cr0, [r0], #-0
    4a68:	9c016121 	stflss	f6, [r1], {33}	; 0x21
    4a6c:	21000014 	tstcs	r0, r4, lsl r0
    4a70:	03055001 	movweq	r5, #20481	; 0x5001
    4a74:	016128ac 	cmneq	r1, ip, lsr #17
    4a78:	03510121 	cmpeq	r1, #1073741832	; 0x40000008
    4a7c:	000da10a 	andeq	sl, sp, sl, lsl #2
    4a80:	21403a00 	cmpcs	r0, r0, lsl #20
    4a84:	00100161 	andseq	r0, r0, r1, ror #2
    4a88:	0eeb0000 	cdpeq	0, 14, cr0, cr11, cr0, {0}
    4a8c:	50200000 	eorpl	r0, r0, r0
    4a90:	9c016121 	stflss	f6, [r1], {33}	; 0x21
    4a94:	21000014 	tstcs	r0, r4, lsl r0
    4a98:	03055001 	movweq	r5, #20481	; 0x5001
    4a9c:	01612888 	cmneq	r1, r8, lsl #17
    4aa0:	03510121 	cmpeq	r1, #1073741832	; 0x40000008
    4aa4:	000da00a 	andeq	sl, sp, sl
    4aa8:	20fc2200 	rscscs	r2, ip, r0, lsl #4
    4aac:	05950161 	ldreq	r0, [r5, #353]	; 0x161
    4ab0:	0f000000 	svceq	0x00000000
    4ab4:	01210000 	teqeq	r1, r0
    4ab8:	e00a0350 	and	r0, sl, r0, asr r3
    4abc:	101f000f 	andsne	r0, pc, pc
    4ac0:	e4016121 	str	r6, [r1], #-289	; 0x121
    4ac4:	00000006 	andeq	r0, r0, r6
    4ac8:	21182e00 	tstcs	r8, r0, lsl #28
    4acc:	00140161 	andseq	r0, r4, r1, ror #2
    4ad0:	c93e0000 	ldmdbgt	lr!, {}	; <UNPREDICTABLE>
    4ad4:	1f000001 	svcne	0x00000001
    4ad8:	1000000f 	andne	r0, r0, pc
    4adc:	21242000 	teqcs	r4, r0
    4ae0:	149c0161 	ldrne	r0, [ip], #353	; 0x161
    4ae4:	01210000 	teqeq	r1, r0
    4ae8:	70030550 	andvc	r0, r3, r0, asr r5
    4aec:	00016128 	andeq	r6, r1, r8, lsr #2
    4af0:	242f0000 	strtcs	r0, [pc], #-0	; 4af8 <_back_addr-0x160b508>
    4af4:	5c000002 	stcpl	0, cr0, [r0], {2}
    4af8:	7c016121 	stfvcs	f6, [r1], {33}	; 0x21
    4afc:	01000000 	mrseq	r0, (UNDEF: 0)
    4b00:	00100d9c 	mulseq	r0, ip, sp
    4b04:	02352d00 	eorseq	r2, r5, #0, 26
    4b08:	357f0000 	ldrbcc	r0, [pc, #-0]!	; 4b10 <_back_addr-0x160b4f0>
    4b0c:	413d0000 	teqmi	sp, r0
    4b10:	00000002 	andeq	r0, r0, r2
    4b14:	00000f5d 	andeq	r0, r0, sp, asr pc
    4b18:	1e001010 	mcrne	0, 0, r1, cr0, cr0, {0}
    4b1c:	000005e0 	andeq	r0, r0, r0, ror #11
    4b20:	00000fe4 	andeq	r0, r0, r4, ror #31
    4b24:	0002352d 	andeq	r3, r2, sp, lsr #10
    4b28:	0035b900 	eorseq	fp, r5, r0, lsl #18
    4b2c:	05e01d00 	strbeq	r1, [r0, #3328]!	; 0xd00
    4b30:	a83a0000 	ldmdage	sl!, {}	; <UNPREDICTABLE>
    4b34:	14016121 	strne	r6, [r1], #-289	; 0x121
    4b38:	9c000000 	stcls	0, cr0, [r0], {-0}
    4b3c:	2000000f 	andcs	r0, r0, pc
    4b40:	016121b8 	strheq	r2, [r1, #-24]!	; 0xffffffe8
    4b44:	0000149c 	muleq	r0, ip, r4
    4b48:	05500121 	ldrbeq	r0, [r0, #-289]	; 0x121
    4b4c:	61290403 	teqvs	r9, r3, lsl #8
    4b50:	51012101 	tstpl	r1, r1, lsl #2
    4b54:	0e0c0a03 	vmlaeq.f32	s0, s24, s6
    4b58:	bc3a0000 	ldclt	0, cr0, [sl], #-0
    4b5c:	10016121 	andne	r6, r1, r1, lsr #2
    4b60:	c4000000 	strgt	r0, [r0], #-0
    4b64:	2000000f 	andcs	r0, r0, pc
    4b68:	016121cc 	cmneq	r1, ip, asr #3
    4b6c:	0000149c 	muleq	r0, ip, r4
    4b70:	05500121 	ldrbeq	r0, [r0, #-289]	; 0x121
    4b74:	6128e403 	teqvs	r8, r3, lsl #8
    4b78:	51012101 	tstpl	r1, r1, lsl #2
    4b7c:	0e0b0a03 	vmlaeq.f32	s0, s22, s6
    4b80:	78220000 	stmdavc	r2!, {}	; <UNPREDICTABLE>
    4b84:	95016121 	strls	r6, [r1, #-289]	; 0x121
    4b88:	d9000005 	stmdble	r0, {r0, r2}
    4b8c:	2100000f 	tstcs	r0, pc
    4b90:	0a035001 	beq	d8b9c <_back_addr-0x1537464>
    4b94:	1f000fe0 	svcne	0x00000fe0
    4b98:	0161218c 	cmneq	r1, ip, lsl #3
    4b9c:	000006e4 	andeq	r0, r0, r4, ror #13
    4ba0:	942e0000 	strtls	r0, [lr], #-0
    4ba4:	14016121 	strne	r6, [r1], #-289	; 0x121
    4ba8:	3e000000 	cdpcc	0, 0, cr0, cr0, cr0, {0}
    4bac:	00000257 	andeq	r0, r0, r7, asr r2
    4bb0:	00000ff8 	strdeq	r0, [r0], -r8
    4bb4:	a0200010 	eorge	r0, r0, r0, lsl r0
    4bb8:	9c016121 	stflss	f6, [r1], {33}	; 0x21
    4bbc:	21000014 	tstcs	r0, r4, lsl r0
    4bc0:	03055001 	movweq	r5, #20481	; 0x5001
    4bc4:	016128d0 	ldrdeq	r2, [r1, #-128]!	; 0xffffff80
    4bc8:	26000000 	strcs	r0, [r0], -r0
    4bcc:	00000d03 	andeq	r0, r0, r3, lsl #26
    4bd0:	5901b201 	stmdbpl	r1, {r0, r9, ip, sp, pc}
    4bd4:	d8000000 	stmdale	r0, {}	; <UNPREDICTABLE>
    4bd8:	9c016121 	stflss	f6, [r1], {33}	; 0x21
    4bdc:	01000000 	mrseq	r0, (UNDEF: 0)
    4be0:	00114a9c 	mulseq	r1, ip, sl
    4be4:	21f42200 	mvnscs	r2, r0, lsl #4
    4be8:	07ca0161 	strbeq	r0, [sl, r1, ror #2]
    4bec:	10470000 	subne	r0, r7, r0
    4bf0:	01210000 	teqeq	r1, r0
    4bf4:	21300150 	teqcs	r0, r0, asr r1
    4bf8:	0a035101 	beq	d9004 <_back_addr-0x1536ffc>
    4bfc:	01210100 	teqeq	r1, r0, lsl #2
    4c00:	30740252 	rsbscc	r0, r4, r2, asr r2
    4c04:	22042200 	andcs	r2, r4, #0, 4
    4c08:	07ca0161 	strbeq	r0, [sl, r1, ror #2]
    4c0c:	10680000 	rsbne	r0, r8, r0
    4c10:	01210000 	teqeq	r1, r0
    4c14:	000a0350 	andeq	r0, sl, r0, asr r3
    4c18:	51012108 	tstpl	r1, r8, lsl #2
    4c1c:	01214001 	teqeq	r1, r1
    4c20:	b0740352 	rsbslt	r0, r4, r2, asr r3
    4c24:	14220002 	strtne	r0, [r2], #-2
    4c28:	ca016122 	bgt	5d0b8 <_back_addr-0x15b2f48>
    4c2c:	89000007 	stmdbhi	r0, {r0, r1, r2}
    4c30:	21000010 	tstcs	r0, r0, lsl r0
    4c34:	0a035001 	beq	d8c40 <_back_addr-0x15373c0>
    4c38:	01210900 	teqeq	r1, r0, lsl #18
    4c3c:	21400151 	cmpcs	r0, r1, asr r1
    4c40:	74035201 	strvc	r5, [r3], #-513	; 0x201
    4c44:	220002c0 	andcs	r0, r0, #192, 4
    4c48:	01612224 	cmneq	r1, r4, lsr #4
    4c4c:	000007ca 	andeq	r0, r0, sl, asr #15
    4c50:	000010aa 	andeq	r1, r0, sl, lsr #1
    4c54:	03500121 	cmpeq	r0, #1073741832	; 0x40000008
    4c58:	210a000a 	tstcs	sl, sl
    4c5c:	40015101 	andmi	r5, r1, r1, lsl #2
    4c60:	03520121 	cmpeq	r2, #1073741832	; 0x40000008
    4c64:	0002d074 	andeq	sp, r2, r4, ror r0
    4c68:	61223422 	teqvs	r2, r2, lsr #8
    4c6c:	0007ca01 	andeq	ip, r7, r1, lsl #20
    4c70:	0010cb00 	andseq	ip, r0, r0, lsl #22
    4c74:	50012100 	andpl	r2, r1, r0, lsl #2
    4c78:	0d200a03 	vstmdbeq	r0!, {s0-s2}
    4c7c:	01510121 	cmpeq	r1, r1, lsr #2
    4c80:	52012140 	andpl	r2, r1, #64, 2
    4c84:	02e07403 	rsceq	r7, r0, #50331648	; 0x3000000
    4c88:	22381f00 	eorscs	r1, r8, #0, 30
    4c8c:	0b1f0161 	bleq	7c5218 <_back_addr-0xe4ade8>
    4c90:	3c1f0000 	ldccc	0, cr0, [pc], {-0}
    4c94:	a9016122 	stmdbge	r1, {r1, r5, r8, sp, lr}
    4c98:	1f00000b 	svcne	0x0000000b
    4c9c:	01612240 	cmneq	r1, r0, asr #4
    4ca0:	00000c33 	andeq	r0, r0, r3, lsr ip
    4ca4:	6122441f 	teqvs	r2, pc, lsl r4
    4ca8:	000cbd01 	andeq	fp, ip, r1, lsl #26
    4cac:	22481f00 	subcs	r1, r8, #0, 30
    4cb0:	0d470161 	stfeqe	f0, [r7, #-388]	; 0xfffffe7c
    4cb4:	4c1f0000 	ldcmi	0, cr0, [pc], {-0}
    4cb8:	d1016122 	tstle	r1, r2, lsr #2
    4cbc:	2200000d 	andcs	r0, r0, #13
    4cc0:	01612254 	cmneq	r1, r4, asr r2
    4cc4:	00000196 	muleq	r0, r6, r1
    4cc8:	00001114 	andeq	r1, r0, r4, lsl r1
    4ccc:	01500121 	cmpeq	r0, r1, lsr #2
    4cd0:	5c220031 	stcpl	0, cr0, [r2], #-196	; 0xffffff3c
    4cd4:	96016122 	strls	r6, [r1], -r2, lsr #2
    4cd8:	27000001 	strcs	r0, [r0, -r1]
    4cdc:	21000011 	tstcs	r0, r1, lsl r0
    4ce0:	32015001 	andcc	r5, r1, #1
    4ce4:	22642200 	rsbcs	r2, r4, #0, 4
    4ce8:	02240161 	eoreq	r0, r4, #1073741848	; 0x40000018
    4cec:	113a0000 	teqne	sl, r0
    4cf0:	01210000 	teqeq	r1, r0
    4cf4:	00310150 	eorseq	r0, r1, r0, asr r1
    4cf8:	61226c20 	teqvs	r2, r0, lsr #24
    4cfc:	00022401 	andeq	r2, r2, r1, lsl #8
    4d00:	50012100 	andpl	r2, r1, r0, lsl #2
    4d04:	00003201 	andeq	r3, r0, r1, lsl #4
    4d08:	00072826 	andeq	r2, r7, r6, lsr #16
    4d0c:	022c0100 	eoreq	r0, ip, #0, 2
    4d10:	00000025 	andeq	r0, r0, r5, lsr #32
    4d14:	01612274 	smceq	4644	; 0x1224
    4d18:	00000080 	andeq	r0, r0, r0, lsl #1
    4d1c:	11e99c01 	mvnne	r9, r1, lsl #24
    4d20:	372a0000 	strcc	r0, [sl, -r0]!
    4d24:	0100000e 	tsteq	r0, lr
    4d28:	0025022c 	eoreq	r0, r5, ip, lsr #4
    4d2c:	35d70000 	ldrbcc	r0, [r7]
    4d30:	703f0000 	eorsvc	r0, pc, r0
    4d34:	01007274 	tsteq	r0, r4, ror r2
    4d38:	11e9022c 	mvnne	r0, ip, lsr #4
    4d3c:	35f80000 	ldrbcc	r0, [r8, #0]!
    4d40:	633f0000 	teqvs	pc, #0
    4d44:	0100746e 	tsteq	r0, lr, ror #8
    4d48:	0025022c 	eoreq	r0, r5, ip, lsr #4
    4d4c:	36240000 	strtcc	r0, [r4], -r0
    4d50:	72400000 	subvc	r0, r0, #0
    4d54:	01007465 	tsteq	r0, r5, ror #8
    4d58:	0025022e 	eoreq	r0, r5, lr, lsr #4
    4d5c:	28000000 	stmdacs	r0, {}	; <UNPREDICTABLE>
    4d60:	2f010069 	svccs	0x00010069
    4d64:	00002502 	andeq	r2, r0, r2, lsl #10
    4d68:	00365000 	eorseq	r5, r6, r0
    4d6c:	0db02b00 	ldceq	11, cr2, [r0]
    4d70:	30010000 	andcc	r0, r1, r0
    4d74:	00002502 	andeq	r2, r0, r2, lsl #10
    4d78:	00367000 	eorseq	r7, r6, r0
    4d7c:	01214100 	teqeq	r1, r0, lsl #2
    4d80:	22840000 	addcs	r0, r4, #0
    4d84:	05f80161 	ldrbeq	r0, [r8, #353]!	; 0x161
    4d88:	34010000 	strcc	r0, [r1], #-0
    4d8c:	01312d02 	teqeq	r1, r2, lsl #26
    4d90:	36ea0000 	strbtcc	r0, [sl], r0
    4d94:	181d0000 	ldmdane	sp, {}	; <UNPREDICTABLE>
    4d98:	2d000006 	stccs	0, cr0, [r0, #-24]	; 0xffffffe8
    4d9c:	00000131 	andeq	r0, r0, r1, lsr r1
    4da0:	00003730 	andeq	r3, r0, r0, lsr r7
    4da4:	3c000000 	stccc	0, cr0, [r0], {-0}
    4da8:	00002504 	andeq	r2, r0, r4, lsl #10
    4dac:	0e6f2600 	cdpeq	6, 6, cr2, cr15, cr0, {0}
    4db0:	39010000 	stmdbcc	r1, {}	; <UNPREDICTABLE>
    4db4:	00005902 	andeq	r5, r0, r2, lsl #18
    4db8:	6122f400 	msrvs	CPSR_x, r0, lsl #8
    4dbc:	00005401 	andeq	r5, r0, r1, lsl #8
    4dc0:	d29c0100 	addsle	r0, ip, #0, 2
    4dc4:	2a000012 	bcs	4e14 <_back_addr-0x160b1ec>
    4dc8:	00000e37 	andeq	r0, r0, r7, lsr lr
    4dcc:	59023901 	stmdbpl	r2, {r0, r8, fp, ip, sp}
    4dd0:	54000000 	strpl	r0, [r0], #-0
    4dd4:	3f000037 	svccc	0x00000037
    4dd8:	00727470 	rsbseq	r7, r2, r0, ror r4
    4ddc:	d2023901 	andle	r3, r2, #16384	; 0x4000
    4de0:	75000012 	strvc	r0, [r0, #-18]
    4de4:	42000037 	andmi	r0, r0, #55	; 0x37
    4de8:	00746e63 	rsbseq	r6, r4, r3, ror #28
    4dec:	25023901 	strcs	r3, [r2, #-2305]	; 0x901
    4df0:	01000000 	mrseq	r0, (UNDEF: 0)
    4df4:	65724352 	ldrbvs	r4, [r2, #-850]!	; 0x352
    4df8:	3b010074 	blcc	44fd0 <_back_addr-0x15cb030>
    4dfc:	00002502 	andeq	r2, r0, r2, lsl #10
    4e00:	69287f00 	stmdbvs	r8!, {r8, r9, sl, fp, ip, sp, lr}
    4e04:	023c0100 	eorseq	r0, ip, #0, 2
    4e08:	00000025 	andeq	r0, r0, r5, lsr #32
    4e0c:	000037a1 	andeq	r3, r0, r1, lsr #15
    4e10:	000bd32b 	andeq	sp, fp, fp, lsr #6
    4e14:	023d0100 	eorseq	r0, sp, #0, 2
    4e18:	00000025 	andeq	r0, r0, r5, lsr #32
    4e1c:	000037d2 	ldrdeq	r3, [r0], -r2
    4e20:	000d3944 	andeq	r3, sp, r4, asr #18
    4e24:	023d0100 	eorseq	r0, sp, #0, 2
    4e28:	00000025 	andeq	r0, r0, r5, lsr #32
    4e2c:	0ce12b00 	vstmiaeq	r1!, {d18-d17}
    4e30:	3e010000 	cdpcc	0, 0, cr0, cr1, cr0, {0}
    4e34:	00002502 	andeq	r2, r0, r2, lsl #10
    4e38:	0037d200 	eorseq	sp, r7, r0, lsl #4
    4e3c:	0d332b00 	vldmdbeq	r3!, {d2-d1}
    4e40:	3e010000 	cdpcc	0, 0, cr0, cr1, cr0, {0}
    4e44:	00002502 	andeq	r2, r0, r2, lsl #10
    4e48:	0037d200 	eorseq	sp, r7, r0, lsl #4
    4e4c:	0e554400 	cdpeq	4, 5, cr4, cr5, cr0, {0}
    4e50:	3e010000 	cdpcc	0, 0, cr0, cr1, cr0, {0}
    4e54:	00002502 	andeq	r2, r0, r2, lsl #10
    4e58:	5c2b0000 	stcpl	0, cr0, [fp], #-0
    4e5c:	0100000e 	tsteq	r0, lr
    4e60:	0025023f 	eoreq	r0, r5, pc, lsr r2
    4e64:	37f20000 	ldrbcc	r0, [r2, r0]!
    4e68:	212c0000 	teqcs	ip, r0
    4e6c:	24000001 	strcs	r0, [r0], #-1
    4e70:	04016123 	streq	r6, [r1], #-291	; 0x123
    4e74:	01000000 	mrseq	r0, (UNDEF: 0)
    4e78:	31450247 	cmpcc	r5, r7, asr #4
    4e7c:	2e000001 	cdpcs	0, 0, cr0, cr0, cr1, {0}
    4e80:	01612324 	cmneq	r1, r4, lsr #6
    4e84:	00000004 	andeq	r0, r0, r4
    4e88:	00013145 	andeq	r3, r1, r5, asr #2
    4e8c:	00000000 	andeq	r0, r0, r0
    4e90:	00b4043c 	adcseq	r0, r4, ip, lsr r4
    4e94:	f6160000 			; <UNDEFINED> instruction: 0xf6160000
    4e98:	0100000c 	tsteq	r0, ip
    4e9c:	000059fc 	strdeq	r5, [r0], -ip
    4ea0:	61234800 	teqvs	r3, r0, lsl #16
    4ea4:	00006c01 	andeq	r6, r0, r1, lsl #24
    4ea8:	c69c0100 	ldrgt	r0, [ip], r0, lsl #2
    4eac:	17000013 	smladne	r0, r3, r0, r0
    4eb0:	00000cbc 			; <UNDEFINED> instruction: 0x00000cbc
    4eb4:	0025fc01 	eoreq	pc, r5, r1, lsl #24
    4eb8:	383e0000 	ldmdacc	lr!, {}	; <UNPREDICTABLE>
    4ebc:	09170000 	ldmdbeq	r7, {}	; <UNPREDICTABLE>
    4ec0:	0100000c 	tsteq	r0, ip
    4ec4:	000025fc 	strdeq	r2, [r0], -ip
    4ec8:	0038aa00 	eorseq	sl, r8, r0, lsl #20
    4ecc:	0b961700 	bleq	fe58aad4 <__bss_end__+0xfcf67f14>
    4ed0:	fc010000 	stc2	0, cr0, [r1], {-0}
    4ed4:	00000917 	andeq	r0, r0, r7, lsl r9
    4ed8:	00003908 	andeq	r3, r0, r8, lsl #18
    4edc:	000e6f29 	andeq	r6, lr, r9, lsr #30
    4ee0:	010d0100 	mrseq	r0, (UNDEF: 29)
    4ee4:	00000059 	andeq	r0, r0, r9, asr r0
    4ee8:	00001330 	andeq	r1, r0, r0, lsr r3
    4eec:	843a0010 	ldrthi	r0, [sl], #-16
    4ef0:	18016123 	stmdane	r1, {r0, r1, r5, r8, sp, lr}
    4ef4:	6d000000 	stcvs	0, cr0, [r0, #-0]
    4ef8:	0f000013 	svceq	0x00000013
    4efc:	00000366 	andeq	r0, r0, r6, ror #6
    4f00:	00598101 	subseq	r8, r9, r1, lsl #2
    4f04:	134e0000 	movtne	r0, #57344	; 0xe000
    4f08:	00100000 	andseq	r0, r0, r0
    4f0c:	61239420 	teqvs	r3, r0, lsr #8
    4f10:	00149c01 	andseq	r9, r4, r1, lsl #24
    4f14:	50012100 	andpl	r2, r1, r0, lsl #2
    4f18:	27600305 	strbcs	r0, [r0, -r5, lsl #6]!
    4f1c:	01210161 	teqeq	r1, r1, ror #2
    4f20:	01f30751 	mvnseq	r0, r1, asr r7
    4f24:	5101f350 	tstpl	r1, r0, asr r3
    4f28:	3a000022 	bcc	4fb8 <_back_addr-0x160b048>
    4f2c:	0161239c 			; <UNDEFINED> instruction: 0x0161239c
    4f30:	00000018 	andeq	r0, r0, r8, lsl r0
    4f34:	000013a6 	andeq	r1, r0, r6, lsr #7
    4f38:	0003660f 	andeq	r6, r3, pc, lsl #12
    4f3c:	59810100 	stmibpl	r1, {r8}
    4f40:	8b000000 	blhi	4f48 <_back_addr-0x160b0b8>
    4f44:	10000013 	andne	r0, r0, r3, lsl r0
    4f48:	23ac2000 			; <UNDEFINED> instruction: 0x23ac2000
    4f4c:	149c0161 	ldrne	r0, [ip], #353	; 0x161
    4f50:	01210000 	teqeq	r1, r0
    4f54:	38030550 	stmdacc	r3, {r4, r6, r8, sl}
    4f58:	21016127 	tstcs	r1, r7, lsr #2
    4f5c:	f3035101 	vrhadd.u8	d5, d3, d1
    4f60:	00005001 	andeq	r5, r0, r1
    4f64:	61237c20 	teqvs	r3, r0, lsr #24
    4f68:	0011ef01 	andseq	lr, r1, r1, lsl #30
    4f6c:	50012100 	andpl	r2, r1, r0, lsl #2
    4f70:	5001f303 	andpl	pc, r1, r3, lsl #6
    4f74:	03510121 	cmpeq	r1, #1073741832	; 0x40000008
    4f78:	215201f3 	ldrshcs	r0, [r2, #-19]	; 0xffffffed
    4f7c:	f3035201 	vhsub.u8	d5, d3, d1
    4f80:	00005101 	andeq	r5, r0, r1, lsl #2
    4f84:	00002524 	andeq	r2, r0, r4, lsr #10
    4f88:	0013d600 	andseq	sp, r3, r0, lsl #12
    4f8c:	007f2500 	rsbseq	r2, pc, r0, lsl #10
    4f90:	003f0000 	eorseq	r0, pc, r0
    4f94:	00030546 	andeq	r0, r3, r6, asr #10
    4f98:	c63b0100 	ldrtgt	r0, [fp], -r0, lsl #2
    4f9c:	05000013 	streq	r0, [r0, #-19]
    4fa0:	622a7403 	eorvs	r7, sl, #50331648	; 0x3000000
    4fa4:	0e954601 	cdpeq	6, 9, cr4, cr5, cr1, {0}
    4fa8:	4f010000 	svcmi	0x00010000
    4fac:	00000585 	andeq	r0, r0, r5, lsl #11
    4fb0:	2b940305 	blcs	fe505bcc <__bss_end__+0xfcee300c>
    4fb4:	7c460162 	stfvce	f0, [r6], {98}	; 0x62
    4fb8:	0100000e 	tsteq	r0, lr
    4fbc:	00058554 	andeq	r8, r5, r4, asr r5
    4fc0:	84030500 	strhi	r0, [r3], #-1280	; 0x500
    4fc4:	4601622b 	strmi	r6, [r1], -fp, lsr #4
    4fc8:	00000ea8 	andeq	r0, r0, r8, lsr #29
    4fcc:	05855901 	streq	r5, [r5, #2305]	; 0x901
    4fd0:	03050000 	movweq	r0, #20480	; 0x5000
    4fd4:	01622b74 	smceq	8884	; 0x22b4
    4fd8:	0000b424 	andeq	fp, r0, r4, lsr #8
    4fdc:	00142a00 	andseq	r2, r4, r0, lsl #20
    4fe0:	007f2500 	rsbseq	r2, pc, r0, lsl #10
    4fe4:	00100000 	andseq	r0, r0, r0
    4fe8:	000e4c46 	andeq	r4, lr, r6, asr #24
    4fec:	1a5e0100 	bne	17853f4 <__bss_end__+0x162834>
    4ff0:	05000014 	streq	r0, [r0, #-20]
    4ff4:	622ba403 	eorvs	sl, fp, #50331648	; 0x3000000
    4ff8:	00b42401 	adcseq	r2, r4, r1, lsl #8
    4ffc:	14460000 	strbne	r0, [r6], #-0
    5000:	00470000 	subeq	r0, r7, r0
    5004:	0001f848 	andeq	pc, r1, r8, asr #16
    5008:	51120600 	tstpl	r2, r0, lsl #12
    500c:	38000014 	stmdacc	r0, {r2, r4}
    5010:	0000143b 	andeq	r1, r0, fp, lsr r4
    5014:	0000b424 	andeq	fp, r0, r4, lsr #8
    5018:	00146600 	andseq	r6, r4, r0, lsl #12
    501c:	007f2500 	rsbseq	r2, pc, r0, lsl #10
    5020:	000f0000 	andeq	r0, pc, r0
    5024:	000d7349 	andeq	r7, sp, r9, asr #6
    5028:	01c80100 	biceq	r0, r8, r0, lsl #2
    502c:	00001456 	andeq	r1, r0, r6, asr r4
    5030:	2a540305 	bcs	1505c4c <_back_addr-0x10a3b4>
    5034:	7a490162 	bvc	12455c4 <_back_addr-0x3caa3c>
    5038:	0100000d 	tsteq	r0, sp
    503c:	145601c9 	ldrbne	r0, [r6], #-457	; 0x1c9
    5040:	03050000 	movweq	r0, #20480	; 0x5000
    5044:	01622a44 	cmneq	r2, r4, asr #20
    5048:	000d8149 	andeq	r8, sp, r9, asr #2
    504c:	01ca0100 	biceq	r0, sl, r0, lsl #2
    5050:	00001456 	andeq	r1, r0, r6, asr r4
    5054:	2a640305 	bcs	1905c70 <__bss_end__+0x2e30b0>
    5058:	660f0162 	strvs	r0, [pc], -r2, ror #2
    505c:	01000003 	tsteq	r0, r3
    5060:	00005981 	andeq	r5, r0, r1, lsl #19
    5064:	0014ad00 	andseq	sl, r4, r0, lsl #26
    5068:	0f001000 	svceq	0x00001000
    506c:	00000226 	andeq	r0, r0, r6, lsr #4
    5070:	0059a701 	subseq	sl, r9, r1, lsl #14
    5074:	14be0000 	ldrtne	r0, [lr], #0
    5078:	00100000 	andseq	r0, r0, r0
    507c:	00080329 	andeq	r0, r8, r9, lsr #6
    5080:	01d80100 	bicseq	r0, r8, r0, lsl #2
    5084:	00000059 	andeq	r0, r0, r9, asr r0
    5088:	000014d0 	ldrdeq	r1, [r0], -r0
    508c:	71290010 	teqvc	r9, r0, lsl r0
    5090:	01000002 	tsteq	r0, r2
    5094:	005901e2 	subseq	r0, r9, r2, ror #3
    5098:	14e20000 	strbtne	r0, [r2], #0
    509c:	00100000 	andseq	r0, r0, r0
    50a0:	0008cc4a 	andeq	ip, r8, sl, asr #24
    50a4:	4b2f0700 	blmi	bc6cac <_back_addr-0xa49354>
    50a8:	00000025 	andeq	r0, r0, r5, lsr #32
	...

Disassembly of section .debug_abbrev:

00000000 <.debug_abbrev>:
       0:	10001101 	andne	r1, r0, r1, lsl #2
       4:	12011106 	andne	r1, r1, #-2147483647	; 0x80000001
       8:	1b080301 	blne	200c14 <_back_addr-0x140f3ec>
       c:	13082508 	movwne	r2, #34056	; 0x8508
      10:	00000005 	andeq	r0, r0, r5
      14:	25011101 	strcs	r1, [r1, #-257]	; 0x101
      18:	030b130e 	movweq	r1, #45838	; 0xb30e
      1c:	110e1b0e 	tstne	lr, lr, lsl #22
      20:	10061201 	andne	r1, r6, r1, lsl #4
      24:	02000017 	andeq	r0, r0, #23
      28:	0b0b0024 	bleq	2c00c0 <_back_addr-0x134ff40>
      2c:	0e030b3e 	vmoveq.16	d3[0], r0
      30:	24030000 	strcs	r0, [r3], #-0
      34:	3e0b0b00 	vmlacc.f64	d0, d11, d0
      38:	0008030b 	andeq	r0, r8, fp, lsl #6
      3c:	012e0400 	teqeq	lr, r0, lsl #8
      40:	0e03193f 	mcreq	9, 0, r1, cr3, cr15, {1}
      44:	0b3b0b3a 	bleq	ec2d34 <_back_addr-0x74d2cc>
      48:	13491927 	movtne	r1, #39207	; 0x9927
      4c:	06120111 			; <UNDEFINED> instruction: 0x06120111
      50:	42971840 	addsmi	r1, r7, #64, 16	; 0x400000
      54:	00130119 	andseq	r0, r3, r9, lsl r1
      58:	00050500 	andeq	r0, r5, r0, lsl #10
      5c:	0b3a0803 	bleq	e82070 <_back_addr-0x78df90>
      60:	13490b3b 	movtne	r0, #39739	; 0x9b3b
      64:	00001702 	andeq	r1, r0, r2, lsl #14
      68:	03003406 	movweq	r3, #1030	; 0x406
      6c:	3b0b3a08 	blcc	2ce894 <_back_addr-0x134176c>
      70:	0213490b 	andseq	r4, r3, #180224	; 0x2c000
      74:	07000017 	smladeq	r0, r7, r0, r0
      78:	0b0b000f 	bleq	2c00bc <_back_addr-0x134ff44>
      7c:	00001349 	andeq	r1, r0, r9, asr #6
      80:	49002608 	stmdbmi	r0, {r3, r9, sl, sp}
      84:	00000013 	andeq	r0, r0, r3, lsl r0
      88:	25011101 	strcs	r1, [r1, #-257]	; 0x101
      8c:	030b130e 	movweq	r1, #45838	; 0xb30e
      90:	110e1b0e 	tstne	lr, lr, lsl #22
      94:	10061201 	andne	r1, r6, r1, lsl #4
      98:	02000017 	andeq	r0, r0, #23
      9c:	0b0b0024 	bleq	2c0134 <_back_addr-0x134fecc>
      a0:	0e030b3e 	vmoveq.16	d3[0], r0
      a4:	24030000 	strcs	r0, [r3], #-0
      a8:	3e0b0b00 	vmlacc.f64	d0, d11, d0
      ac:	0008030b 	andeq	r0, r8, fp, lsl #6
      b0:	012e0400 	teqeq	lr, r0, lsl #8
      b4:	0e03193f 	mcreq	9, 0, r1, cr3, cr15, {1}
      b8:	0b3b0b3a 	bleq	ec2da8 <_back_addr-0x74d258>
      bc:	13491927 	movtne	r1, #39207	; 0x9927
      c0:	06120111 			; <UNDEFINED> instruction: 0x06120111
      c4:	42971840 	addsmi	r1, r7, #64, 16	; 0x400000
      c8:	00130119 	andseq	r0, r3, r9, lsl r1
      cc:	00050500 	andeq	r0, r5, r0, lsl #10
      d0:	0b3a0803 	bleq	e820e4 <_back_addr-0x78df1c>
      d4:	13490b3b 	movtne	r0, #39739	; 0x9b3b
      d8:	00001702 	andeq	r1, r0, r2, lsl #14
      dc:	03000506 	movweq	r0, #1286	; 0x506
      e0:	3b0b3a08 	blcc	2ce908 <_back_addr-0x13416f8>
      e4:	0213490b 	andseq	r4, r3, #180224	; 0x2c000
      e8:	07000018 	smladeq	r0, r8, r0, r0
      ec:	08030034 	stmdaeq	r3, {r2, r4, r5}
      f0:	0b3b0b3a 	bleq	ec2de0 <_back_addr-0x74d220>
      f4:	17021349 	strne	r1, [r2, -r9, asr #6]
      f8:	0f080000 	svceq	0x00080000
      fc:	490b0b00 	stmdbmi	fp, {r8, r9, fp}
     100:	09000013 	stmdbeq	r0, {r0, r1, r4}
     104:	13490026 	movtne	r0, #36902	; 0x9026
     108:	01000000 	mrseq	r0, (UNDEF: 0)
     10c:	0e250111 	mcreq	1, 1, r0, cr5, cr1, {0}
     110:	0e030b13 	vmoveq.32	d3[0], r0
     114:	01110e1b 	tsteq	r1, fp, lsl lr
     118:	17100612 			; <UNDEFINED> instruction: 0x17100612
     11c:	24020000 	strcs	r0, [r2], #-0
     120:	3e0b0b00 	vmlacc.f64	d0, d11, d0
     124:	000e030b 	andeq	r0, lr, fp, lsl #6
     128:	00240300 	eoreq	r0, r4, r0, lsl #6
     12c:	0b3e0b0b 	bleq	f82d60 <_back_addr-0x68d2a0>
     130:	00000803 	andeq	r0, r0, r3, lsl #16
     134:	3f012e04 	svccc	0x00012e04
     138:	3a0e0319 	bcc	380da4 <_back_addr-0x128f25c>
     13c:	270b3b0b 	strcs	r3, [fp, -fp, lsl #22]
     140:	11134919 	tstne	r3, r9, lsl r9
     144:	40061201 	andmi	r1, r6, r1, lsl #4
     148:	19429718 	stmdbne	r2, {r3, r4, r8, r9, sl, ip, pc}^
     14c:	00001301 	andeq	r1, r0, r1, lsl #6
     150:	03000505 	movweq	r0, #1285	; 0x505
     154:	3b0b3a08 	blcc	2ce97c <_back_addr-0x1341684>
     158:	0213490b 	andseq	r4, r3, #180224	; 0x2c000
     15c:	06000017 			; <UNDEFINED> instruction: 0x06000017
     160:	0e030005 	cdpeq	0, 0, cr0, cr3, cr5, {0}
     164:	0b3b0b3a 	bleq	ec2e54 <_back_addr-0x74d1ac>
     168:	18021349 	stmdane	r2, {r0, r3, r6, r8, r9, ip}
     16c:	05070000 	streq	r0, [r7, #-0]
     170:	3a0e0300 	bcc	380d78 <_back_addr-0x128f288>
     174:	490b3b0b 	stmdbmi	fp, {r0, r1, r3, r8, r9, fp, ip, sp}
     178:	00170213 	andseq	r0, r7, r3, lsl r2
     17c:	00340800 	eorseq	r0, r4, r0, lsl #16
     180:	0b3a0803 	bleq	e82194 <_back_addr-0x78de6c>
     184:	13490b3b 	movtne	r0, #39739	; 0x9b3b
     188:	00001702 	andeq	r1, r0, r2, lsl #14
     18c:	03003409 	movweq	r3, #1033	; 0x409
     190:	3b0b3a0e 	blcc	2ce9d0 <_back_addr-0x1341630>
     194:	0213490b 	andseq	r4, r3, #180224	; 0x2c000
     198:	0a000017 	beq	1fc <_back_addr-0x160fe04>
     19c:	0b0b000f 	bleq	2c01e0 <_back_addr-0x134fe20>
     1a0:	00001349 	andeq	r1, r0, r9, asr #6
     1a4:	4900260b 	stmdbmi	r0, {r0, r1, r3, r9, sl, sp}
     1a8:	0c000013 	stceq	0, cr0, [r0], {19}
     1ac:	13490101 	movtne	r0, #37121	; 0x9101
     1b0:	00001301 	andeq	r1, r0, r1, lsl #6
     1b4:	0000210d 	andeq	r2, r0, sp, lsl #2
     1b8:	00340e00 	eorseq	r0, r4, r0, lsl #28
     1bc:	0b3a0e03 	bleq	e839d0 <_back_addr-0x78c630>
     1c0:	13490b3b 	movtne	r0, #39739	; 0x9b3b
     1c4:	193c193f 	ldmdbne	ip!, {r0, r1, r2, r3, r4, r5, r8, fp, ip}
     1c8:	01000000 	mrseq	r0, (UNDEF: 0)
     1cc:	0e250111 	mcreq	1, 1, r0, cr5, cr1, {0}
     1d0:	0e030b13 	vmoveq.32	d3[0], r0
     1d4:	17100e1b 			; <UNDEFINED> instruction: 0x17100e1b
     1d8:	01020000 	mrseq	r0, (UNDEF: 2)
     1dc:	01134901 	tsteq	r3, r1, lsl #18
     1e0:	03000013 	movweq	r0, #19
     1e4:	13490021 	movtne	r0, #36897	; 0x9021
     1e8:	00000b2f 	andeq	r0, r0, pc, lsr #22
     1ec:	0b002404 	bleq	9204 <_back_addr-0x1606dfc>
     1f0:	030b3e0b 	movweq	r3, #48651	; 0xbe0b
     1f4:	0500000e 	streq	r0, [r0, #-14]
     1f8:	0e030034 	mcreq	0, 0, r0, cr3, cr4, {1}
     1fc:	0b3b0b3a 	bleq	ec2eec <_back_addr-0x74d114>
     200:	193f1349 	ldmdbne	pc!, {r0, r3, r6, r8, r9, ip}	; <UNPREDICTABLE>
     204:	00001802 	andeq	r1, r0, r2, lsl #16
     208:	49002606 	stmdbmi	r0, {r1, r2, r9, sl, sp}
     20c:	00000013 	andeq	r0, r0, r3, lsl r0
     210:	25011101 	strcs	r1, [r1, #-257]	; 0x101
     214:	030b130e 	movweq	r1, #45838	; 0xb30e
     218:	110e1b0e 	tstne	lr, lr, lsl #22
     21c:	10061201 	andne	r1, r6, r1, lsl #4
     220:	02000017 	andeq	r0, r0, #23
     224:	0b0b0024 	bleq	2c02bc <_back_addr-0x134fd44>
     228:	0e030b3e 	vmoveq.16	d3[0], r0
     22c:	16030000 	strne	r0, [r3], -r0
     230:	3a0e0300 	bcc	380e38 <_back_addr-0x128f1c8>
     234:	490b3b0b 	stmdbmi	fp, {r0, r1, r3, r8, r9, fp, ip, sp}
     238:	04000013 	streq	r0, [r0], #-19
     23c:	0b0b0024 	bleq	2c02d4 <_back_addr-0x134fd2c>
     240:	08030b3e 	stmdaeq	r3, {r1, r2, r3, r4, r5, r8, r9, fp}
     244:	0f050000 	svceq	0x00050000
     248:	490b0b00 	stmdbmi	fp, {r8, r9, fp}
     24c:	06000013 			; <UNDEFINED> instruction: 0x06000013
     250:	13490026 	movtne	r0, #36902	; 0x9026
     254:	2e070000 	cdpcs	0, 0, cr0, cr7, cr0, {0}
     258:	3a0e0301 	bcc	380e64 <_back_addr-0x128f19c>
     25c:	270b3b0b 	strcs	r3, [fp, -fp, lsl #22]
     260:	20134919 	andscs	r4, r3, r9, lsl r9
     264:	0013010b 	andseq	r0, r3, fp, lsl #2
     268:	00050800 	andeq	r0, r5, r0, lsl #16
     26c:	0b3a0e03 	bleq	e83a80 <_back_addr-0x78c580>
     270:	13490b3b 	movtne	r0, #39739	; 0x9b3b
     274:	05090000 	streq	r0, [r9, #-0]
     278:	3a080300 	bcc	200e80 <_back_addr-0x140f180>
     27c:	490b3b0b 	stmdbmi	fp, {r0, r1, r3, r8, r9, fp, ip, sp}
     280:	0a000013 	beq	2d4 <_back_addr-0x160fd2c>
     284:	193f012e 	ldmdbne	pc!, {r1, r2, r3, r5, r8}	; <UNPREDICTABLE>
     288:	0b3a0e03 	bleq	e83a9c <_back_addr-0x78c564>
     28c:	13490b3b 	movtne	r0, #39739	; 0x9b3b
     290:	00000b20 	andeq	r0, r0, r0, lsr #22
     294:	0000180b 	andeq	r1, r0, fp, lsl #16
     298:	012e0c00 	teqeq	lr, r0, lsl #24
     29c:	0e03193f 	mcreq	9, 0, r1, cr3, cr15, {1}
     2a0:	0b3b0b3a 	bleq	ec2f90 <_back_addr-0x74d070>
     2a4:	13491927 	movtne	r1, #39207	; 0x9927
     2a8:	13010b20 	movwne	r0, #6944	; 0x1b20
     2ac:	340d0000 	strcc	r0, [sp], #-0
     2b0:	3a080300 	bcc	200eb8 <_back_addr-0x140f148>
     2b4:	490b3b0b 	stmdbmi	fp, {r0, r1, r3, r8, r9, fp, ip, sp}
     2b8:	0e000013 	mcreq	0, 0, r0, cr0, cr3, {0}
     2bc:	00000026 	andeq	r0, r0, r6, lsr #32
     2c0:	0300340f 	movweq	r3, #1039	; 0x40f
     2c4:	3b0b3a0e 	blcc	2ceb04 <_back_addr-0x13414fc>
     2c8:	0013490b 	andseq	r4, r3, fp, lsl #18
     2cc:	012e1000 	teqeq	lr, r0
     2d0:	0e03193f 	mcreq	9, 0, r1, cr3, cr15, {1}
     2d4:	0b3b0b3a 	bleq	ec2fc4 <_back_addr-0x74d03c>
     2d8:	0b201349 	bleq	805004 <_back_addr-0xe0affc>
     2dc:	00001301 	andeq	r1, r0, r1, lsl #6
     2e0:	3f002e11 	svccc	0x00002e11
     2e4:	3a0e0319 	bcc	380f50 <_back_addr-0x128f0b0>
     2e8:	490b3b0b 	stmdbmi	fp, {r0, r1, r3, r8, r9, fp, ip, sp}
     2ec:	12011113 	andne	r1, r1, #-1073741820	; 0xc0000004
     2f0:	97184006 	ldrls	r4, [r8, -r6]
     2f4:	00001942 	andeq	r1, r0, r2, asr #18
     2f8:	3f012e12 	svccc	0x00012e12
     2fc:	3a0e0319 	bcc	380f68 <_back_addr-0x128f098>
     300:	270b3b0b 	strcs	r3, [fp, -fp, lsl #22]
     304:	11134919 	tstne	r3, r9, lsl r9
     308:	40061201 	andmi	r1, r6, r1, lsl #4
     30c:	19429718 	stmdbne	r2, {r3, r4, r8, r9, sl, ip, pc}^
     310:	00001301 	andeq	r1, r0, r1, lsl #6
     314:	03000513 	movweq	r0, #1299	; 0x513
     318:	3b0b3a08 	blcc	2ceb40 <_back_addr-0x13414c0>
     31c:	0213490b 	andseq	r4, r3, #180224	; 0x2c000
     320:	14000018 	strne	r0, [r0], #-24
     324:	0e030005 	cdpeq	0, 0, cr0, cr3, cr5, {0}
     328:	0b3b0b3a 	bleq	ec3018 <_back_addr-0x74cfe8>
     32c:	18021349 	stmdane	r2, {r0, r3, r6, r8, r9, ip}
     330:	05150000 	ldreq	r0, [r5, #-0]
     334:	3a080300 	bcc	200f3c <_back_addr-0x140f0c4>
     338:	490b3b0b 	stmdbmi	fp, {r0, r1, r3, r8, r9, fp, ip, sp}
     33c:	00170213 	andseq	r0, r7, r3, lsl r2
     340:	00051600 	andeq	r1, r5, r0, lsl #12
     344:	0b3a0e03 	bleq	e83b58 <_back_addr-0x78c4a8>
     348:	13490b3b 	movtne	r0, #39739	; 0x9b3b
     34c:	00001702 	andeq	r1, r0, r2, lsl #14
     350:	03003417 	movweq	r3, #1047	; 0x417
     354:	3b0b3a0e 	blcc	2ceb94 <_back_addr-0x134146c>
     358:	0213490b 	andseq	r4, r3, #180224	; 0x2c000
     35c:	18000017 	stmdane	r0, {r0, r1, r2, r4}
     360:	0b0b000f 	bleq	2c03a4 <_back_addr-0x134fc5c>
     364:	2e190000 	cdpcs	0, 1, cr0, cr9, cr0, {0}
     368:	11133101 	tstne	r3, r1, lsl #2
     36c:	40061201 	andmi	r1, r6, r1, lsl #4
     370:	19429718 	stmdbne	r2, {r3, r4, r8, r9, sl, ip, pc}^
     374:	00001301 	andeq	r1, r0, r1, lsl #6
     378:	3100051a 	tstcc	r0, sl, lsl r5
     37c:	00170213 	andseq	r0, r7, r3, lsl r2
     380:	00341b00 	eorseq	r1, r4, r0, lsl #22
     384:	17021331 	smladxne	r2, r1, r3, r1
     388:	341c0000 	ldrcc	r0, [ip], #-0
     38c:	3a080300 	bcc	200f94 <_back_addr-0x140f06c>
     390:	490b3b0b 	stmdbmi	fp, {r0, r1, r3, r8, r9, fp, ip, sp}
     394:	00170213 	andseq	r0, r7, r3, lsl r2
     398:	00341d00 	eorseq	r1, r4, r0, lsl #26
     39c:	0b3a0803 	bleq	e823b0 <_back_addr-0x78dc50>
     3a0:	13490b3b 	movtne	r0, #39739	; 0x9b3b
     3a4:	00001802 	andeq	r1, r0, r2, lsl #16
     3a8:	0300341e 	movweq	r3, #1054	; 0x41e
     3ac:	3b0b3a0e 	blcc	2cebec <_back_addr-0x1341414>
     3b0:	1c13490b 	ldcne	9, cr4, [r3], {11}
     3b4:	1f000006 	svcne	0x00000006
     3b8:	0e030034 	mcreq	0, 0, r0, cr3, cr4, {1}
     3bc:	0b3b0b3a 	bleq	ec30ac <_back_addr-0x74cf54>
     3c0:	18021349 	stmdane	r2, {r0, r3, r6, r8, r9, ip}
     3c4:	2e200000 	cdpcs	0, 2, cr0, cr0, cr0, {0}
     3c8:	03193f01 	tsteq	r9, #1, 30
     3cc:	3b0b3a0e 	blcc	2cec0c <_back_addr-0x13413f4>
     3d0:	3c13490b 	ldccc	9, cr4, [r3], {11}
     3d4:	00130119 	andseq	r0, r3, r9, lsl r1
     3d8:	011d2100 	tsteq	sp, r0, lsl #2
     3dc:	01111331 	tsteq	r1, r1, lsr r3
     3e0:	0b580612 	bleq	1601c30 <_back_addr-0xe3d0>
     3e4:	13010559 	movwne	r0, #5465	; 0x1559
     3e8:	05220000 	streq	r0, [r2, #-0]!
     3ec:	1c133100 	ldfnes	f3, [r3], {-0}
     3f0:	23000006 	movwcs	r0, #6
     3f4:	13310005 	teqne	r1, #5
     3f8:	00001802 	andeq	r1, r0, r2, lsl #16
     3fc:	11010b24 	tstne	r1, r4, lsr #22
     400:	00061201 	andeq	r1, r6, r1, lsl #4
     404:	82892500 	addhi	r2, r9, #0, 10
     408:	01110001 	tsteq	r1, r1
     40c:	00001331 	andeq	r1, r0, r1, lsr r3
     410:	01828926 	orreq	r8, r2, r6, lsr #18
     414:	31011101 	tstcc	r1, r1, lsl #2
     418:	00130113 	andseq	r0, r3, r3, lsl r1
     41c:	828a2700 	addhi	r2, sl, #0, 14
     420:	18020001 	stmdane	r2, {r0}
     424:	00184291 	mulseq	r8, r1, r2
     428:	82892800 	addhi	r2, r9, #0, 16
     42c:	01110101 	tsteq	r1, r1, lsl #2
     430:	00001331 	andeq	r1, r0, r1, lsr r3
     434:	49010129 	stmdbmi	r1, {r0, r3, r5, r8}
     438:	00130113 	andseq	r0, r3, r3, lsl r1
     43c:	00212a00 	eoreq	r2, r1, r0, lsl #20
     440:	0b2f1349 	bleq	bc516c <_back_addr-0xa4ae94>
     444:	212b0000 	teqcs	fp, r0
     448:	2f134900 	svccs	0x00134900
     44c:	2c000005 	stccs	0, cr0, [r0], {5}
     450:	193f012e 	ldmdbne	pc!, {r1, r2, r3, r5, r8}	; <UNPREDICTABLE>
     454:	0b3a0e03 	bleq	e83c68 <_back_addr-0x78c398>
     458:	1927053b 	stmdbne	r7!, {r0, r1, r3, r4, r5, r8, sl}
     45c:	01111349 	tsteq	r1, r9, asr #6
     460:	18400612 	stmdane	r0, {r1, r4, r9, sl}^
     464:	01194297 			; <UNDEFINED> instruction: 0x01194297
     468:	2d000013 	stccs	0, cr0, [r0, #-76]	; 0xffffffb4
     46c:	0e030005 	cdpeq	0, 0, cr0, cr3, cr5, {0}
     470:	053b0b3a 	ldreq	r0, [fp, #-2874]!	; 0xb3a
     474:	17021349 	strne	r1, [r2, -r9, asr #6]
     478:	892e0000 	stmdbhi	lr!, {}	; <UNPREDICTABLE>
     47c:	11010182 	smlabbne	r1, r2, r1, r0
     480:	19429501 	stmdbne	r2, {r0, r8, sl, ip, pc}^
     484:	00184293 	mulseq	r8, r3, r2
     488:	01152f00 	tsteq	r5, r0, lsl #30
     48c:	13491927 	movtne	r1, #39207	; 0x9927
     490:	00001301 	andeq	r1, r0, r1, lsl #6
     494:	49000530 	stmdbmi	r0, {r4, r5, r8, sl}
     498:	31000013 	tstcc	r0, r3, lsl r0
     49c:	08030034 	stmdaeq	r3, {r2, r4, r5}
     4a0:	053b0b3a 	ldreq	r0, [fp, #-2874]!	; 0xb3a
     4a4:	17021349 	strne	r1, [r2, -r9, asr #6]
     4a8:	34320000 	ldrtcc	r0, [r2], #-0
     4ac:	3a0e0300 	bcc	3810b4 <_back_addr-0x128ef4c>
     4b0:	49053b0b 	stmdbmi	r5, {r0, r1, r3, r8, r9, fp, ip, sp}
     4b4:	3c193f13 	ldccc	15, cr3, [r9], {19}
     4b8:	33000019 	movwcc	r0, #25
     4bc:	193f012e 	ldmdbne	pc!, {r1, r2, r3, r5, r8}	; <UNPREDICTABLE>
     4c0:	0b3a0e03 	bleq	e83cd4 <_back_addr-0x78c32c>
     4c4:	1349053b 	movtne	r0, #38203	; 0x953b
     4c8:	1301193c 	movwne	r1, #6460	; 0x193c
     4cc:	0b340000 	bleq	d004d4 <_back_addr-0x90fb2c>
     4d0:	01175501 	tsteq	r7, r1, lsl #10
     4d4:	35000013 	strcc	r0, [r0, #-19]
     4d8:	193f012e 	ldmdbne	pc!, {r1, r2, r3, r5, r8}	; <UNPREDICTABLE>
     4dc:	0b3a0e03 	bleq	e83cf0 <_back_addr-0x78c310>
     4e0:	13490b3b 	movtne	r0, #39739	; 0x9b3b
     4e4:	0000193c 	andeq	r1, r0, ip, lsr r9
     4e8:	00002136 	andeq	r2, r0, r6, lsr r1
     4ec:	00343700 	eorseq	r3, r4, r0, lsl #14
     4f0:	0b3a0e03 	bleq	e83d04 <_back_addr-0x78c2fc>
     4f4:	13490b3b 	movtne	r0, #39739	; 0x9b3b
     4f8:	193c193f 	ldmdbne	ip!, {r0, r1, r2, r3, r4, r5, r8, fp, ip}
     4fc:	2e380000 	cdpcs	0, 3, cr0, cr8, cr0, {0}
     500:	03193f01 	tsteq	r9, #1, 30
     504:	3b0b3a0e 	blcc	2ced44 <_back_addr-0x13412bc>
     508:	4919270b 	ldmdbmi	r9, {r0, r1, r3, r8, r9, sl, sp}
     50c:	01193c13 	tsteq	r9, r3, lsl ip
     510:	39000013 	stmdbcc	r0, {r0, r1, r4}
     514:	193f012e 	ldmdbne	pc!, {r1, r2, r3, r5, r8}	; <UNPREDICTABLE>
     518:	19270e03 	stmdbne	r7!, {r0, r1, r9, sl, fp}
     51c:	19341349 	ldmdbne	r4!, {r0, r3, r6, r8, r9, ip}
     520:	1301193c 	movwne	r1, #6460	; 0x193c
     524:	2e3a0000 	cdpcs	0, 3, cr0, cr10, cr0, {0}
     528:	03193f00 	tsteq	r9, #0, 30
     52c:	3b0b3a0e 	blcc	2ced6c <_back_addr-0x1341294>
     530:	3c19270b 	ldccc	7, cr2, [r9], {11}
     534:	3b000019 	blcc	5a0 <_back_addr-0x160fa60>
     538:	193f012e 	ldmdbne	pc!, {r1, r2, r3, r5, r8}	; <UNPREDICTABLE>
     53c:	0b3a0e03 	bleq	e83d50 <_back_addr-0x78c2b0>
     540:	1349053b 	movtne	r0, #38203	; 0x953b
     544:	0000193c 	andeq	r1, r0, ip, lsr r9
     548:	01110100 	tsteq	r1, r0, lsl #2
     54c:	0b130e25 	bleq	4c3de8 <_back_addr-0x114c218>
     550:	0e1b0e03 	cdpeq	14, 1, cr0, cr11, cr3, {0}
     554:	06120111 			; <UNDEFINED> instruction: 0x06120111
     558:	00001710 	andeq	r1, r0, r0, lsl r7
     55c:	0b002402 	bleq	956c <_back_addr-0x1606a94>
     560:	030b3e0b 	movweq	r3, #48651	; 0xbe0b
     564:	0300000e 	movweq	r0, #14
     568:	0b0b0024 	bleq	2c0600 <_back_addr-0x134fa00>
     56c:	08030b3e 	stmdaeq	r3, {r1, r2, r3, r4, r5, r8, r9, fp}
     570:	16040000 	strne	r0, [r4], -r0
     574:	3a080300 	bcc	20117c <_back_addr-0x140ee84>
     578:	490b3b0b 	stmdbmi	fp, {r0, r1, r3, r8, r9, fp, ip, sp}
     57c:	05000013 	streq	r0, [r0, #-19]
     580:	0e030104 	adfeqs	f0, f3, f4
     584:	0b3a0b0b 	bleq	e831b8 <_back_addr-0x78ce48>
     588:	1301053b 	movwne	r0, #5435	; 0x153b
     58c:	28060000 	stmdacs	r6, {}	; <UNPREDICTABLE>
     590:	1c0e0300 	stcne	3, cr0, [lr], {-0}
     594:	0700000d 	streq	r0, [r0, -sp]
     598:	0e03012e 	adfeqsp	f0, f3, #0.5
     59c:	0b3b0b3a 	bleq	ec328c <_back_addr-0x74cd74>
     5a0:	0b201927 	bleq	806a44 <_back_addr-0xe095bc>
     5a4:	00001301 	andeq	r1, r0, r1, lsl #6
     5a8:	03000508 	movweq	r0, #1288	; 0x508
     5ac:	3b0b3a0e 	blcc	2cedec <_back_addr-0x1341214>
     5b0:	0013490b 	andseq	r4, r3, fp, lsl #18
     5b4:	00340900 	eorseq	r0, r4, r0, lsl #18
     5b8:	0b3a0e03 	bleq	e83dcc <_back_addr-0x78c234>
     5bc:	13490b3b 	movtne	r0, #39739	; 0x9b3b
     5c0:	2e0a0000 	cdpcs	0, 0, cr0, cr10, cr0, {0}
     5c4:	3a0e0301 	bcc	3811d0 <_back_addr-0x128ee30>
     5c8:	270b3b0b 	strcs	r3, [fp, -fp, lsl #22]
     5cc:	20134919 	andscs	r4, r3, r9, lsl r9
     5d0:	0013010b 	andseq	r0, r3, fp, lsl #2
     5d4:	00050b00 	andeq	r0, r5, r0, lsl #22
     5d8:	0b3a0803 	bleq	e825ec <_back_addr-0x78da14>
     5dc:	13490b3b 	movtne	r0, #39739	; 0x9b3b
     5e0:	340c0000 	strcc	r0, [ip], #-0
     5e4:	3a080300 	bcc	2011ec <_back_addr-0x140ee14>
     5e8:	490b3b0b 	stmdbmi	fp, {r0, r1, r3, r8, r9, fp, ip, sp}
     5ec:	0d000013 	stceq	0, cr0, [r0, #-76]	; 0xffffffb4
     5f0:	193f002e 	ldmdbne	pc!, {r1, r2, r3, r5}	; <UNPREDICTABLE>
     5f4:	0b3a0e03 	bleq	e83e08 <_back_addr-0x78c1f8>
     5f8:	19270b3b 	stmdbne	r7!, {r0, r1, r3, r4, r5, r8, r9, fp}
     5fc:	00000b20 	andeq	r0, r0, r0, lsr #22
     600:	03002e0e 	movweq	r2, #3598	; 0xe0e
     604:	3b0b3a0e 	blcc	2cee44 <_back_addr-0x13411bc>
     608:	2019270b 	andscs	r2, r9, fp, lsl #14
     60c:	0f00000b 	svceq	0x0000000b
     610:	0e03012e 	adfeqsp	f0, f3, #0.5
     614:	0b3b0b3a 	bleq	ec3304 <_back_addr-0x74ccfc>
     618:	01111927 	tsteq	r1, r7, lsr #18
     61c:	18400612 	stmdane	r0, {r1, r4, r9, sl}^
     620:	01194297 			; <UNDEFINED> instruction: 0x01194297
     624:	10000013 	andne	r0, r0, r3, lsl r0
     628:	0e030005 	cdpeq	0, 0, cr0, cr3, cr5, {0}
     62c:	0b3b0b3a 	bleq	ec331c <_back_addr-0x74cce4>
     630:	18021349 	stmdane	r2, {r0, r3, r6, r8, r9, ip}
     634:	34110000 	ldrcc	r0, [r1], #-0
     638:	3a0e0300 	bcc	381240 <_back_addr-0x128edc0>
     63c:	490b3b0b 	stmdbmi	fp, {r0, r1, r3, r8, r9, fp, ip, sp}
     640:	00170213 	andseq	r0, r7, r3, lsl r2
     644:	00341200 	eorseq	r1, r4, r0, lsl #4
     648:	0b3a0e03 	bleq	e83e5c <_back_addr-0x78c1a4>
     64c:	13490b3b 	movtne	r0, #39739	; 0x9b3b
     650:	00001802 	andeq	r1, r0, r2, lsl #16
     654:	31011d13 	tstcc	r1, r3, lsl sp
     658:	12011113 	andne	r1, r1, #-1073741820	; 0xc0000004
     65c:	590b5806 	stmdbpl	fp, {r1, r2, fp, ip, lr}
     660:	0013010b 	andseq	r0, r3, fp, lsl #2
     664:	010b1400 	tsteq	fp, r0, lsl #8
     668:	06120111 			; <UNDEFINED> instruction: 0x06120111
     66c:	34150000 	ldrcc	r0, [r5], #-0
     670:	02133100 	andseq	r3, r3, #0, 2
     674:	16000018 			; <UNDEFINED> instruction: 0x16000018
     678:	1331011d 	teqne	r1, #1073741831	; 0x40000007
     67c:	17550152 			; <UNDEFINED> instruction: 0x17550152
     680:	0b590b58 	bleq	16433e8 <__bss_end__+0x20828>
     684:	05170000 	ldreq	r0, [r7, #-0]
     688:	00133100 	andseq	r3, r3, r0, lsl #2
     68c:	00051800 	andeq	r1, r5, r0, lsl #16
     690:	17021331 	smladxne	r2, r1, r3, r1
     694:	0b190000 	bleq	64069c <_back_addr-0xfcf964>
     698:	00175501 	andseq	r5, r7, r1, lsl #10
     69c:	00341a00 	eorseq	r1, r4, r0, lsl #20
     6a0:	00001331 	andeq	r1, r0, r1, lsr r3
     6a4:	3100341b 	tstcc	r0, fp, lsl r4
     6a8:	00170213 	andseq	r0, r7, r3, lsl r2
     6ac:	011d1c00 	tsteq	sp, r0, lsl #24
     6b0:	01521331 	cmpeq	r2, r1, lsr r3
     6b4:	0b581755 	bleq	1606410 <_back_addr-0x9bf0>
     6b8:	13010b59 	movwne	r0, #7001	; 0x1b59
     6bc:	1d1d0000 	ldcne	0, cr0, [sp, #-0]
     6c0:	11133101 	tstne	r3, r1, lsl #2
     6c4:	58061201 	stmdapl	r6, {r0, r9, ip}
     6c8:	000b590b 	andeq	r5, fp, fp, lsl #18
     6cc:	002e1e00 	eoreq	r1, lr, r0, lsl #28
     6d0:	0e03193f 	mcreq	9, 0, r1, cr3, cr15, {1}
     6d4:	053b0b3a 	ldreq	r0, [fp, #-2874]!	; 0xb3a
     6d8:	01111927 	tsteq	r1, r7, lsr #18
     6dc:	18400612 	stmdane	r0, {r1, r4, r9, sl}^
     6e0:	00194297 	mulseq	r9, r7, r2
     6e4:	012e1f00 	teqeq	lr, r0, lsl #30
     6e8:	0e03193f 	mcreq	9, 0, r1, cr3, cr15, {1}
     6ec:	053b0b3a 	ldreq	r0, [fp, #-2874]!	; 0xb3a
     6f0:	01111927 	tsteq	r1, r7, lsr #18
     6f4:	18400612 	stmdane	r0, {r1, r4, r9, sl}^
     6f8:	01194297 			; <UNDEFINED> instruction: 0x01194297
     6fc:	20000013 	andcs	r0, r0, r3, lsl r0
     700:	01018289 	smlabbeq	r1, r9, r2, r8
     704:	13310111 	teqne	r1, #1073741828	; 0x40000004
     708:	00001301 	andeq	r1, r0, r1, lsl #6
     70c:	01828a21 	orreq	r8, r2, r1, lsr #20
     710:	91180200 	tstls	r8, r0, lsl #4
     714:	00001842 	andeq	r1, r0, r2, asr #16
     718:	01828922 	orreq	r8, r2, r2, lsr #18
     71c:	95011100 	strls	r1, [r1, #-256]	; 0x100
     720:	00001942 	andeq	r1, r0, r2, asr #18
     724:	31012e23 	tstcc	r1, r3, lsr #28
     728:	12011113 	andne	r1, r1, #-1073741820	; 0xc0000004
     72c:	97184006 	ldrls	r4, [r8, -r6]
     730:	13011942 	movwne	r1, #6466	; 0x1942
     734:	1d240000 	stcne	0, cr0, [r4, #-0]
     738:	11133101 	tstne	r3, r1, lsl #2
     73c:	58061201 	stmdapl	r6, {r0, r9, ip}
     740:	0105590b 	tsteq	r5, fp, lsl #18
     744:	25000013 	strcs	r0, [r0, #-19]
     748:	00018289 	andeq	r8, r1, r9, lsl #5
     74c:	00000111 	andeq	r0, r0, r1, lsl r1
     750:	31001d26 	tstcc	r0, r6, lsr #26
     754:	12011113 	andne	r1, r1, #-1073741820	; 0xc0000004
     758:	590b5806 	stmdbpl	fp, {r1, r2, fp, ip, lr}
     75c:	27000005 	strcs	r0, [r0, -r5]
     760:	0e030005 	cdpeq	0, 0, cr0, cr3, cr5, {0}
     764:	053b0b3a 	ldreq	r0, [fp, #-2874]!	; 0xb3a
     768:	18021349 	stmdane	r2, {r0, r3, r6, r8, r9, ip}
     76c:	05280000 	streq	r0, [r8, #-0]!
     770:	3a080300 	bcc	201378 <_back_addr-0x140ec88>
     774:	49053b0b 	stmdbmi	r5, {r0, r1, r3, r8, r9, fp, ip, sp}
     778:	00180213 	andseq	r0, r8, r3, lsl r2
     77c:	00052900 	andeq	r2, r5, r0, lsl #18
     780:	0b3a0e03 	bleq	e83f94 <_back_addr-0x78c06c>
     784:	1349053b 	movtne	r0, #38203	; 0x953b
     788:	00001702 	andeq	r1, r0, r2, lsl #14
     78c:	3100052a 	tstcc	r0, sl, lsr #10
     790:	000b1c13 	andeq	r1, fp, r3, lsl ip
     794:	82892b00 	addhi	r2, r9, #0, 22
     798:	01110101 	tsteq	r1, r1, lsl #2
     79c:	31194295 			; <UNDEFINED> instruction: 0x31194295
     7a0:	2c000013 	stccs	0, cr0, [r0], {19}
     7a4:	0e030034 	mcreq	0, 0, r0, cr3, cr4, {1}
     7a8:	053b0b3a 	ldreq	r0, [fp, #-2874]!	; 0xb3a
     7ac:	193f1349 	ldmdbne	pc!, {r0, r3, r6, r8, r9, ip}	; <UNPREDICTABLE>
     7b0:	0000193c 	andeq	r1, r0, ip, lsr r9
     7b4:	01110100 	tsteq	r1, r0, lsl #2
     7b8:	0b130e25 	bleq	4c4054 <_back_addr-0x114bfac>
     7bc:	0e1b0e03 	cdpeq	14, 1, cr0, cr11, cr3, {0}
     7c0:	06120111 			; <UNDEFINED> instruction: 0x06120111
     7c4:	00001710 	andeq	r1, r0, r0, lsl r7
     7c8:	0b002402 	bleq	97d8 <_back_addr-0x1606828>
     7cc:	030b3e0b 	movweq	r3, #48651	; 0xbe0b
     7d0:	0300000e 	movweq	r0, #14
     7d4:	0b0b0024 	bleq	2c086c <_back_addr-0x134f794>
     7d8:	08030b3e 	stmdaeq	r3, {r1, r2, r3, r4, r5, r8, r9, fp}
     7dc:	16040000 	strne	r0, [r4], -r0
     7e0:	3a0e0300 	bcc	3813e8 <_back_addr-0x128ec18>
     7e4:	490b3b0b 	stmdbmi	fp, {r0, r1, r3, r8, r9, fp, ip, sp}
     7e8:	05000013 	streq	r0, [r0, #-19]
     7ec:	0b0b000f 	bleq	2c0830 <_back_addr-0x134f7d0>
     7f0:	0f060000 	svceq	0x00060000
     7f4:	490b0b00 	stmdbmi	fp, {r8, r9, fp}
     7f8:	07000013 	smladeq	r0, r3, r0, r0
     7fc:	13490026 	movtne	r0, #36902	; 0x9026
     800:	01080000 	mrseq	r0, (UNDEF: 8)
     804:	01134901 	tsteq	r3, r1, lsl #18
     808:	09000013 	stmdbeq	r0, {r0, r1, r4}
     80c:	13490021 	movtne	r0, #36897	; 0x9021
     810:	00000b2f 	andeq	r0, r0, pc, lsr #22
     814:	0301040a 	movweq	r0, #5130	; 0x140a
     818:	3a0b0b0e 	bcc	2c3458 <_back_addr-0x134cba8>
     81c:	01053b0b 	tsteq	r5, fp, lsl #22
     820:	0b000013 	bleq	874 <_back_addr-0x160f78c>
     824:	0e030028 	cdpeq	0, 0, cr0, cr3, cr8, {1}
     828:	00000d1c 	andeq	r0, r0, ip, lsl sp
     82c:	0301130c 	movweq	r1, #4876	; 0x130c
     830:	3a0b0b0e 	bcc	2c3470 <_back_addr-0x134cb90>
     834:	010b3b0b 	tsteq	fp, fp, lsl #22
     838:	0d000013 	stceq	0, cr0, [r0, #-76]	; 0xffffffb4
     83c:	0e03000d 	cdpeq	0, 0, cr0, cr3, cr13, {0}
     840:	0b3b0b3a 	bleq	ec3530 <_back_addr-0x74cad0>
     844:	0b381349 	bleq	e05570 <_back_addr-0x80aa90>
     848:	0d0e0000 	stceq	0, cr0, [lr, #-0]
     84c:	3a080300 	bcc	201454 <_back_addr-0x140ebac>
     850:	490b3b0b 	stmdbmi	fp, {r0, r1, r3, r8, r9, fp, ip, sp}
     854:	000b3813 	andeq	r3, fp, r3, lsl r8
     858:	012e0f00 	teqeq	lr, r0, lsl #30
     85c:	0b3a0e03 	bleq	e84070 <_back_addr-0x78bf90>
     860:	19270b3b 	stmdbne	r7!, {r0, r1, r3, r4, r5, r8, r9, fp}
     864:	0b201349 	bleq	805590 <_back_addr-0xe0aa70>
     868:	00001301 	andeq	r1, r0, r1, lsl #6
     86c:	03000510 	movweq	r0, #1296	; 0x510
     870:	3b0b3a0e 	blcc	2cf0b0 <_back_addr-0x1340f50>
     874:	0013490b 	andseq	r4, r3, fp, lsl #18
     878:	012e1100 	teqeq	lr, r0, lsl #2
     87c:	0b3a0e03 	bleq	e84090 <_back_addr-0x78bf70>
     880:	19270b3b 	stmdbne	r7!, {r0, r1, r3, r4, r5, r8, r9, fp}
     884:	13010b20 	movwne	r0, #6944	; 0x1b20
     888:	05120000 	ldreq	r0, [r2, #-0]
     88c:	3a080300 	bcc	201494 <_back_addr-0x140eb6c>
     890:	490b3b0b 	stmdbmi	fp, {r0, r1, r3, r8, r9, fp, ip, sp}
     894:	13000013 	movwne	r0, #19
     898:	0e03012e 	adfeqsp	f0, f3, #0.5
     89c:	053b0b3a 	ldreq	r0, [fp, #-2874]!	; 0xb3a
     8a0:	13491927 	movtne	r1, #39207	; 0x9927
     8a4:	13010b20 	movwne	r0, #6944	; 0x1b20
     8a8:	05140000 	ldreq	r0, [r4, #-0]
     8ac:	3a0e0300 	bcc	3814b4 <_back_addr-0x128eb4c>
     8b0:	49053b0b 	stmdbmi	r5, {r0, r1, r3, r8, r9, fp, ip, sp}
     8b4:	15000013 	strne	r0, [r0, #-19]
     8b8:	08030034 	stmdaeq	r3, {r2, r4, r5}
     8bc:	053b0b3a 	ldreq	r0, [fp, #-2874]!	; 0xb3a
     8c0:	00001349 	andeq	r1, r0, r9, asr #6
     8c4:	03003416 	movweq	r3, #1046	; 0x416
     8c8:	3b0b3a0e 	blcc	2cf108 <_back_addr-0x1340ef8>
     8cc:	00134905 	andseq	r4, r3, r5, lsl #18
     8d0:	012e1700 	teqeq	lr, r0, lsl #14
     8d4:	0e03193f 	mcreq	9, 0, r1, cr3, cr15, {1}
     8d8:	053b0b3a 	ldreq	r0, [fp, #-2874]!	; 0xb3a
     8dc:	193c1349 	ldmdbne	ip!, {r0, r3, r6, r8, r9, ip}
     8e0:	18180000 	ldmdane	r8, {}	; <UNPREDICTABLE>
     8e4:	19000000 	stmdbne	r0, {}	; <UNPREDICTABLE>
     8e8:	193f012e 	ldmdbne	pc!, {r1, r2, r3, r5, r8}	; <UNPREDICTABLE>
     8ec:	0b3a0e03 	bleq	e84100 <_back_addr-0x78bf00>
     8f0:	19270b3b 	stmdbne	r7!, {r0, r1, r3, r4, r5, r8, r9, fp}
     8f4:	0b201349 	bleq	805620 <_back_addr-0xe0a9e0>
     8f8:	00001301 	andeq	r1, r0, r1, lsl #6
     8fc:	0300341a 	movweq	r3, #1050	; 0x41a
     900:	3b0b3a0e 	blcc	2cf140 <_back_addr-0x1340ec0>
     904:	0013490b 	andseq	r4, r3, fp, lsl #18
     908:	012e1b00 	teqeq	lr, r0, lsl #22
     90c:	0b3a0e03 	bleq	e84120 <_back_addr-0x78bee0>
     910:	1927053b 	stmdbne	r7!, {r0, r1, r3, r4, r5, r8, sl}
     914:	01111349 	tsteq	r1, r9, asr #6
     918:	18400612 	stmdane	r0, {r1, r4, r9, sl}^
     91c:	01194297 			; <UNDEFINED> instruction: 0x01194297
     920:	1c000013 	stcne	0, cr0, [r0], {19}
     924:	0e030034 	mcreq	0, 0, r0, cr3, cr4, {1}
     928:	053b0b3a 	ldreq	r0, [fp, #-2874]!	; 0xb3a
     92c:	18021349 	stmdane	r2, {r0, r3, r6, r8, r9, ip}
     930:	891d0000 	ldmdbhi	sp, {}	; <UNPREDICTABLE>
     934:	11010182 	smlabbne	r1, r2, r1, r0
     938:	01133101 	tsteq	r3, r1, lsl #2
     93c:	1e000013 	mcrne	0, 0, r0, cr0, cr3, {0}
     940:	0001828a 	andeq	r8, r1, sl, lsl #5
     944:	42911802 	addsmi	r1, r1, #131072	; 0x20000
     948:	1f000018 	svcne	0x00000018
     94c:	01018289 	smlabbeq	r1, r9, r2, r8
     950:	13310111 	teqne	r1, #1073741828	; 0x40000004
     954:	34200000 	strtcc	r0, [r0], #-0
     958:	3a080300 	bcc	201560 <_back_addr-0x140eaa0>
     95c:	49053b0b 	stmdbmi	r5, {r0, r1, r3, r8, r9, fp, ip, sp}
     960:	00170213 	andseq	r0, r7, r3, lsl r2
     964:	011d2100 	tsteq	sp, r0, lsl #2
     968:	01521331 	cmpeq	r2, r1, lsr r3
     96c:	0b581755 	bleq	16066c8 <_back_addr-0x9938>
     970:	13010559 	movwne	r0, #5465	; 0x1559
     974:	05220000 	streq	r0, [r2, #-0]!
     978:	1c133100 	ldfnes	f3, [r3], {-0}
     97c:	2300000b 	movwcs	r0, #11
     980:	13310005 	teqne	r1, #5
     984:	00000d1c 	andeq	r0, r0, ip, lsl sp
     988:	55010b24 	strpl	r0, [r1, #-2852]	; 0xb24
     98c:	25000017 	strcs	r0, [r0, #-23]
     990:	1331011d 	teqne	r1, #1073741831	; 0x40000007
     994:	17550152 			; <UNDEFINED> instruction: 0x17550152
     998:	05590b58 	ldrbeq	r0, [r9, #-2904]	; 0xb58
     99c:	2e260000 	cdpcs	0, 2, cr0, cr6, cr0, {0}
     9a0:	11133101 	tstne	r3, r1, lsl #2
     9a4:	40061201 	andmi	r1, r6, r1, lsl #4
     9a8:	19429718 	stmdbne	r2, {r3, r4, r8, r9, sl, ip, pc}^
     9ac:	00001301 	andeq	r1, r0, r1, lsl #6
     9b0:	31000527 	tstcc	r0, r7, lsr #10
     9b4:	00170213 	andseq	r0, r7, r3, lsl r2
     9b8:	00342800 	eorseq	r2, r4, r0, lsl #16
     9bc:	00001331 	andeq	r1, r0, r1, lsr r3
     9c0:	31003429 	tstcc	r0, r9, lsr #8
     9c4:	00170213 	andseq	r0, r7, r3, lsl r2
     9c8:	012e2a00 	teqeq	lr, r0, lsl #20
     9cc:	0b201347 	bleq	8056f0 <_back_addr-0xe0a910>
     9d0:	00001301 	andeq	r1, r0, r1, lsl #6
     9d4:	31011d2b 	tstcc	r1, fp, lsr #26
     9d8:	12011113 	andne	r1, r1, #-1073741820	; 0xc0000004
     9dc:	590b5806 	stmdbpl	fp, {r1, r2, fp, ip, lr}
     9e0:	00130105 	andseq	r0, r3, r5, lsl #2
     9e4:	010b2c00 	tsteq	fp, r0, lsl #24
     9e8:	06120111 			; <UNDEFINED> instruction: 0x06120111
     9ec:	0b2d0000 	bleq	b409f4 <_back_addr-0xacf60c>
     9f0:	12011101 	andne	r1, r1, #1073741824	; 0x40000000
     9f4:	00130106 	andseq	r0, r3, r6, lsl #2
     9f8:	82892e00 	addhi	r2, r9, #0, 28
     9fc:	01110001 	tsteq	r1, r1
     a00:	00001331 	andeq	r1, r0, r1, lsr r3
     a04:	3f012e2f 	svccc	0x00012e2f
     a08:	3a0e0319 	bcc	381674 <_back_addr-0x128e98c>
     a0c:	270b3b0b 	strcs	r3, [fp, -fp, lsl #22]
     a10:	11134919 	tstne	r3, r9, lsl r9
     a14:	40061201 	andmi	r1, r6, r1, lsl #4
     a18:	19429718 	stmdbne	r2, {r3, r4, r8, r9, sl, ip, pc}^
     a1c:	00001301 	andeq	r1, r0, r1, lsl #6
     a20:	03000530 	movweq	r0, #1328	; 0x530
     a24:	3b0b3a0e 	blcc	2cf264 <_back_addr-0x1340d9c>
     a28:	0213490b 	andseq	r4, r3, #180224	; 0x2c000
     a2c:	31000017 	tstcc	r0, r7, lsl r0
     a30:	0e030034 	mcreq	0, 0, r0, cr3, cr4, {1}
     a34:	0b3b0b3a 	bleq	ec3724 <_back_addr-0x74c8dc>
     a38:	18021349 	stmdane	r2, {r0, r3, r6, r8, r9, ip}
     a3c:	34320000 	ldrtcc	r0, [r2], #-0
     a40:	3a080300 	bcc	201648 <_back_addr-0x140e9b8>
     a44:	490b3b0b 	stmdbmi	fp, {r0, r1, r3, r8, r9, fp, ip, sp}
     a48:	00170213 	andseq	r0, r7, r3, lsl r2
     a4c:	011d3300 	tsteq	sp, r0, lsl #6
     a50:	01521331 	cmpeq	r2, r1, lsr r3
     a54:	0b581755 	bleq	16067b0 <_back_addr-0x9850>
     a58:	13010b59 	movwne	r0, #7001	; 0x1b59
     a5c:	05340000 	ldreq	r0, [r4, #-0]!
     a60:	02133100 	andseq	r3, r3, #0, 2
     a64:	35000018 	strcc	r0, [r0, #-24]
     a68:	13310005 	teqne	r1, #5
     a6c:	1d360000 	ldcne	0, cr0, [r6, #-0]
     a70:	52133101 	andspl	r3, r3, #1073741824	; 0x40000000
     a74:	58175501 	ldmdapl	r7, {r0, r8, sl, ip, lr}
     a78:	000b590b 	andeq	r5, fp, fp, lsl #18
     a7c:	00053700 	andeq	r3, r5, r0, lsl #14
     a80:	0b3a0803 	bleq	e82a94 <_back_addr-0x78d56c>
     a84:	13490b3b 	movtne	r0, #39739	; 0x9b3b
     a88:	00001702 	andeq	r1, r0, r2, lsl #14
     a8c:	03003438 	movweq	r3, #1080	; 0x438
     a90:	3b0b3a0e 	blcc	2cf2d0 <_back_addr-0x1340d30>
     a94:	0213490b 	andseq	r4, r3, #180224	; 0x2c000
     a98:	39000017 	stmdbcc	r0, {r0, r1, r2, r4}
     a9c:	00018289 	andeq	r8, r1, r9, lsl #5
     aa0:	42950111 	addsmi	r0, r5, #1073741828	; 0x40000004
     aa4:	00133119 	andseq	r3, r3, r9, lsl r1
     aa8:	00343a00 	eorseq	r3, r4, r0, lsl #20
     aac:	13490e03 	movtne	r0, #40451	; 0x9e03
     ab0:	18021934 	stmdane	r2, {r2, r4, r5, r8, fp, ip}
     ab4:	2e3b0000 	cdpcs	0, 3, cr0, cr11, cr0, {0}
     ab8:	3a0e0301 	bcc	3816c4 <_back_addr-0x128e93c>
     abc:	27053b0b 	strcs	r3, [r5, -fp, lsl #22]
     ac0:	010b2019 	tsteq	fp, r9, lsl r0
     ac4:	3c000013 	stccc	0, cr0, [r0], {19}
     ac8:	193f012e 	ldmdbne	pc!, {r1, r2, r3, r5, r8}	; <UNPREDICTABLE>
     acc:	0b3a0e03 	bleq	e842e0 <_back_addr-0x78bd20>
     ad0:	1927053b 	stmdbne	r7!, {r0, r1, r3, r4, r5, r8, sl}
     ad4:	01111349 	tsteq	r1, r9, asr #6
     ad8:	18400612 	stmdane	r0, {r1, r4, r9, sl}^
     adc:	01194297 			; <UNDEFINED> instruction: 0x01194297
     ae0:	3d000013 	stccc	0, cr0, [r0, #-76]	; 0xffffffb4
     ae4:	0e030005 	cdpeq	0, 0, cr0, cr3, cr5, {0}
     ae8:	053b0b3a 	ldreq	r0, [fp, #-2874]!	; 0xb3a
     aec:	17021349 	strne	r1, [r2, -r9, asr #6]
     af0:	053e0000 	ldreq	r0, [lr, #-0]!
     af4:	3a080300 	bcc	2016fc <_back_addr-0x140e904>
     af8:	49053b0b 	stmdbmi	r5, {r0, r1, r3, r8, r9, fp, ip, sp}
     afc:	00170213 	andseq	r0, r7, r3, lsl r2
     b00:	00343f00 	eorseq	r3, r4, r0, lsl #30
     b04:	0b3a0e03 	bleq	e84318 <_back_addr-0x78bce8>
     b08:	1349053b 	movtne	r0, #38203	; 0x953b
     b0c:	00001702 	andeq	r1, r0, r2, lsl #14
     b10:	03003440 	movweq	r3, #1088	; 0x440
     b14:	3b0b3a0e 	blcc	2cf354 <_back_addr-0x1340cac>
     b18:	1c134905 	ldcne	9, cr4, [r3], {5}
     b1c:	4100000a 	tstmi	r0, sl
     b20:	193f012e 	ldmdbne	pc!, {r1, r2, r3, r5, r8}	; <UNPREDICTABLE>
     b24:	0b3a0e03 	bleq	e84338 <_back_addr-0x78bcc8>
     b28:	1349053b 	movtne	r0, #38203	; 0x953b
     b2c:	1301193c 	movwne	r1, #6460	; 0x193c
     b30:	2e420000 	cdpcs	0, 4, cr0, cr2, cr0, {0}
     b34:	03193f01 	tsteq	r9, #1, 30
     b38:	3b0b3a0e 	blcc	2cf378 <_back_addr-0x1340c88>
     b3c:	11192705 	tstne	r9, r5, lsl #14
     b40:	40061201 	andmi	r1, r6, r1, lsl #4
     b44:	19429718 	stmdbne	r2, {r3, r4, r8, r9, sl, ip, pc}^
     b48:	00001301 	andeq	r1, r0, r1, lsl #6
     b4c:	03003443 	movweq	r3, #1091	; 0x443
     b50:	3b0b3a0e 	blcc	2cf390 <_back_addr-0x1340c70>
     b54:	3f134905 	svccc	0x00134905
     b58:	00193c19 	andseq	r3, r9, r9, lsl ip
     b5c:	00344400 	eorseq	r4, r4, r0, lsl #8
     b60:	0b3a0e03 	bleq	e84374 <_back_addr-0x78bc8c>
     b64:	13490b3b 	movtne	r0, #39739	; 0x9b3b
     b68:	1802193f 	stmdane	r2, {r0, r1, r2, r3, r4, r5, r8, fp, ip}
     b6c:	2e450000 	cdpcs	0, 4, cr0, cr5, cr0, {0}
     b70:	03193f01 	tsteq	r9, #1, 30
     b74:	3b0b3a0e 	blcc	2cf3b4 <_back_addr-0x1340c4c>
     b78:	4919270b 	ldmdbmi	r9, {r0, r1, r3, r8, r9, sl, sp}
     b7c:	01193c13 	tsteq	r9, r3, lsl ip
     b80:	46000013 			; <UNDEFINED> instruction: 0x46000013
     b84:	13490005 	movtne	r0, #36869	; 0x9005
     b88:	2e470000 	cdpcs	0, 4, cr0, cr7, cr0, {0}
     b8c:	03193f01 	tsteq	r9, #1, 30
     b90:	3b0b3a0e 	blcc	2cf3d0 <_back_addr-0x1340c30>
     b94:	3c192705 	ldccc	7, cr2, [r9], {5}
     b98:	00130119 	andseq	r0, r3, r9, lsl r1
     b9c:	012e4800 	teqeq	lr, r0, lsl #16
     ba0:	0e03193f 	mcreq	9, 0, r1, cr3, cr15, {1}
     ba4:	053b0b3a 	ldreq	r0, [fp, #-2874]!	; 0xb3a
     ba8:	13491927 	movtne	r1, #39207	; 0x9927
     bac:	1301193c 	movwne	r1, #6460	; 0x193c
     bb0:	01000000 	mrseq	r0, (UNDEF: 0)
     bb4:	0e250111 	mcreq	1, 1, r0, cr5, cr1, {0}
     bb8:	0e030b13 	vmoveq.32	d3[0], r0
     bbc:	01110e1b 	tsteq	r1, fp, lsl lr
     bc0:	17100612 			; <UNDEFINED> instruction: 0x17100612
     bc4:	16020000 	strne	r0, [r2], -r0
     bc8:	3a0e0300 	bcc	3817d0 <_back_addr-0x128e830>
     bcc:	490b3b0b 	stmdbmi	fp, {r0, r1, r3, r8, r9, fp, ip, sp}
     bd0:	03000013 	movweq	r0, #19
     bd4:	0b0b0024 	bleq	2c0c6c <_back_addr-0x134f394>
     bd8:	0e030b3e 	vmoveq.16	d3[0], r0
     bdc:	24040000 	strcs	r0, [r4], #-0
     be0:	3e0b0b00 	vmlacc.f64	d0, d11, d0
     be4:	0008030b 	andeq	r0, r8, fp, lsl #6
     be8:	012e0500 	teqeq	lr, r0, lsl #10
     bec:	0e03193f 	mcreq	9, 0, r1, cr3, cr15, {1}
     bf0:	0b3b0b3a 	bleq	ec38e0 <_back_addr-0x74c720>
     bf4:	13491927 	movtne	r1, #39207	; 0x9927
     bf8:	13010b20 	movwne	r0, #6944	; 0x1b20
     bfc:	05060000 	streq	r0, [r6, #-0]
     c00:	3a0e0300 	bcc	381808 <_back_addr-0x128e7f8>
     c04:	490b3b0b 	stmdbmi	fp, {r0, r1, r3, r8, r9, fp, ip, sp}
     c08:	07000013 	smladeq	r0, r3, r0, r0
     c0c:	0e030034 	mcreq	0, 0, r0, cr3, cr4, {1}
     c10:	0b3b0b3a 	bleq	ec3900 <_back_addr-0x74c700>
     c14:	00001349 	andeq	r1, r0, r9, asr #6
     c18:	31012e08 	tstcc	r1, r8, lsl #28
     c1c:	12011113 	andne	r1, r1, #-1073741820	; 0xc0000004
     c20:	97184006 	ldrls	r4, [r8, -r6]
     c24:	13011942 	movwne	r1, #6466	; 0x1942
     c28:	05090000 	streq	r0, [r9, #-0]
     c2c:	02133100 	andseq	r3, r3, #0, 2
     c30:	0a000017 	beq	c94 <_back_addr-0x160f36c>
     c34:	13310005 	teqne	r1, #5
     c38:	00001802 	andeq	r1, r0, r2, lsl #16
     c3c:	55010b0b 	strpl	r0, [r1, #-2827]	; 0xb0b
     c40:	0c000017 	stceq	0, cr0, [r0], {23}
     c44:	193f012e 	ldmdbne	pc!, {r1, r2, r3, r5, r8}	; <UNPREDICTABLE>
     c48:	0b3a0e03 	bleq	e8445c <_back_addr-0x78bba4>
     c4c:	19270b3b 	stmdbne	r7!, {r0, r1, r3, r4, r5, r8, r9, fp}
     c50:	01111349 	tsteq	r1, r9, asr #6
     c54:	18400612 	stmdane	r0, {r1, r4, r9, sl}^
     c58:	01194297 			; <UNDEFINED> instruction: 0x01194297
     c5c:	0d000013 	stceq	0, cr0, [r0, #-76]	; 0xffffffb4
     c60:	0e030005 	cdpeq	0, 0, cr0, cr3, cr5, {0}
     c64:	0b3b0b3a 	bleq	ec3954 <_back_addr-0x74c6ac>
     c68:	17021349 	strne	r1, [r2, -r9, asr #6]
     c6c:	340e0000 	strcc	r0, [lr], #-0
     c70:	1c133100 	ldfnes	f3, [r3], {-0}
     c74:	0f00000b 	svceq	0x0000000b
     c78:	0111010b 	tsteq	r1, fp, lsl #2
     c7c:	00000612 	andeq	r0, r0, r2, lsl r6
     c80:	31003410 	tstcc	r0, r0, lsl r4
     c84:	11000013 	tstne	r0, r3, lsl r0
     c88:	193f012e 	ldmdbne	pc!, {r1, r2, r3, r5, r8}	; <UNPREDICTABLE>
     c8c:	0b3a0e03 	bleq	e844a0 <_back_addr-0x78bb60>
     c90:	19270b3b 	stmdbne	r7!, {r0, r1, r3, r4, r5, r8, r9, fp}
     c94:	06120111 			; <UNDEFINED> instruction: 0x06120111
     c98:	42971840 	addsmi	r1, r7, #64, 16	; 0x400000
     c9c:	00130119 	andseq	r0, r3, r9, lsl r1
     ca0:	00341200 	eorseq	r1, r4, r0, lsl #4
     ca4:	0b3a0e03 	bleq	e844b8 <_back_addr-0x78bb48>
     ca8:	13490b3b 	movtne	r0, #39739	; 0x9b3b
     cac:	00001702 	andeq	r1, r0, r2, lsl #14
     cb0:	31011d13 	tstcc	r1, r3, lsl sp
     cb4:	55015213 	strpl	r5, [r1, #-531]	; 0x213
     cb8:	590b5817 	stmdbpl	fp, {r0, r1, r2, r4, fp, ip, lr}
     cbc:	0013010b 	andseq	r0, r3, fp, lsl #2
     cc0:	00051400 	andeq	r1, r5, r0, lsl #8
     cc4:	0b1c1331 	bleq	705990 <_back_addr-0xf0a670>
     cc8:	1d150000 	ldcne	0, cr0, [r5, #-0]
     ccc:	52133101 	andspl	r3, r3, #1073741824	; 0x40000000
     cd0:	58175501 	ldmdapl	r7, {r0, r8, sl, ip, lr}
     cd4:	000b590b 	andeq	r5, fp, fp, lsl #18
     cd8:	012e1600 	teqeq	lr, r0, lsl #12
     cdc:	0e03193f 	mcreq	9, 0, r1, cr3, cr15, {1}
     ce0:	0b3b0b3a 	bleq	ec39d0 <_back_addr-0x74c630>
     ce4:	01111927 	tsteq	r1, r7, lsr #18
     ce8:	18400612 	stmdane	r0, {r1, r4, r9, sl}^
     cec:	00194297 	mulseq	r9, r7, r2
     cf0:	11010000 	mrsne	r0, (UNDEF: 1)
     cf4:	130e2501 	movwne	r2, #58625	; 0xe501
     cf8:	1b0e030b 	blne	38192c <_back_addr-0x128e6d4>
     cfc:	1201110e 	andne	r1, r1, #-2147483645	; 0x80000003
     d00:	00171006 	andseq	r1, r7, r6
     d04:	00160200 	andseq	r0, r6, r0, lsl #4
     d08:	0b3a0e03 	bleq	e8451c <_back_addr-0x78bae4>
     d0c:	13490b3b 	movtne	r0, #39739	; 0x9b3b
     d10:	24030000 	strcs	r0, [r3], #-0
     d14:	3e0b0b00 	vmlacc.f64	d0, d11, d0
     d18:	000e030b 	andeq	r0, lr, fp, lsl #6
     d1c:	00240400 	eoreq	r0, r4, r0, lsl #8
     d20:	0b3e0b0b 	bleq	f83954 <_back_addr-0x68c6ac>
     d24:	00000803 	andeq	r0, r0, r3, lsl #16
     d28:	0b000f05 	bleq	4944 <_back_addr-0x160b6bc>
     d2c:	0013490b 	andseq	r4, r3, fp, lsl #18
     d30:	00260600 	eoreq	r0, r6, r0, lsl #12
     d34:	00001349 	andeq	r1, r0, r9, asr #6
     d38:	0b011307 	bleq	4595c <_back_addr-0x15ca6a4>
     d3c:	3b0b3a0b 	blcc	2cf570 <_back_addr-0x1340a90>
     d40:	0013010b 	andseq	r0, r3, fp, lsl #2
     d44:	000d0800 	andeq	r0, sp, r0, lsl #16
     d48:	0b3a0803 	bleq	e82d5c <_back_addr-0x78d2a4>
     d4c:	13490b3b 	movtne	r0, #39739	; 0x9b3b
     d50:	0b0d0b0b 	bleq	343984 <_back_addr-0x12cc67c>
     d54:	0b380b0c 	bleq	e0398c <_back_addr-0x80c674>
     d58:	0d090000 	stceq	0, cr0, [r9, #-0]
     d5c:	3a0e0300 	bcc	381964 <_back_addr-0x128e69c>
     d60:	490b3b0b 	stmdbmi	fp, {r0, r1, r3, r8, r9, fp, ip, sp}
     d64:	0d0b0b13 	vstreq	d0, [fp, #-76]	; 0xffffffb4
     d68:	380b0c0b 	stmdacc	fp, {r0, r1, r3, sl, fp}
     d6c:	0a00000b 	beq	da0 <_back_addr-0x160f260>
     d70:	0e030117 	mcreq	1, 0, r0, cr3, cr7, {0}
     d74:	0b3a0b0b 	bleq	e839a8 <_back_addr-0x78c658>
     d78:	13010b3b 	movwne	r0, #6971	; 0x1b3b
     d7c:	0d0b0000 	stceq	0, cr0, [fp, #-0]
     d80:	3a0e0300 	bcc	381988 <_back_addr-0x128e678>
     d84:	490b3b0b 	stmdbmi	fp, {r0, r1, r3, r8, r9, fp, ip, sp}
     d88:	0c000013 	stceq	0, cr0, [r0], {19}
     d8c:	0e03000d 	cdpeq	0, 0, cr0, cr3, cr13, {0}
     d90:	053b0b3a 	ldreq	r0, [fp, #-2874]!	; 0xb3a
     d94:	00001349 	andeq	r1, r0, r9, asr #6
     d98:	0300160d 	movweq	r1, #1549	; 0x60d
     d9c:	3b0b3a0e 	blcc	2cf5dc <_back_addr-0x1340a24>
     da0:	00134905 	andseq	r4, r3, r5, lsl #18
     da4:	01130e00 	tsteq	r3, r0, lsl #28
     da8:	0b0b0e03 	bleq	2c45bc <_back_addr-0x134ba44>
     dac:	053b0b3a 	ldreq	r0, [fp, #-2874]!	; 0xb3a
     db0:	00001301 	andeq	r1, r0, r1, lsl #6
     db4:	03000d0f 	movweq	r0, #3343	; 0xd0f
     db8:	3b0b3a0e 	blcc	2cf5f8 <_back_addr-0x1340a08>
     dbc:	38134905 	ldmdacc	r3, {r0, r2, r8, fp, lr}
     dc0:	1000000b 	andne	r0, r0, fp
     dc4:	0e03012e 	adfeqsp	f0, f3, #0.5
     dc8:	0b3b0b3a 	bleq	ec3ab8 <_back_addr-0x74c548>
     dcc:	0b201927 	bleq	807270 <_back_addr-0xe08d90>
     dd0:	00001301 	andeq	r1, r0, r1, lsl #6
     dd4:	03000511 	movweq	r0, #1297	; 0x511
     dd8:	3b0b3a0e 	blcc	2cf618 <_back_addr-0x13409e8>
     ddc:	0013490b 	andseq	r4, r3, fp, lsl #18
     de0:	012e1200 	teqeq	lr, r0, lsl #4
     de4:	0e03193f 	mcreq	9, 0, r1, cr3, cr15, {1}
     de8:	0b3b0b3a 	bleq	ec3ad8 <_back_addr-0x74c528>
     dec:	0b201927 	bleq	807290 <_back_addr-0xe08d70>
     df0:	00001301 	andeq	r1, r0, r1, lsl #6
     df4:	03000513 	movweq	r0, #1299	; 0x513
     df8:	3b0b3a08 	blcc	2cf620 <_back_addr-0x13409e0>
     dfc:	0013490b 	andseq	r4, r3, fp, lsl #18
     e00:	00341400 	eorseq	r1, r4, r0, lsl #8
     e04:	0b3a0803 	bleq	e82e18 <_back_addr-0x78d1e8>
     e08:	13490b3b 	movtne	r0, #39739	; 0x9b3b
     e0c:	0f150000 	svceq	0x00150000
     e10:	000b0b00 	andeq	r0, fp, r0, lsl #22
     e14:	002e1600 	eoreq	r1, lr, r0, lsl #12
     e18:	0e03193f 	mcreq	9, 0, r1, cr3, cr15, {1}
     e1c:	0b3b0b3a 	bleq	ec3b0c <_back_addr-0x74c4f4>
     e20:	01111927 	tsteq	r1, r7, lsr #18
     e24:	18400612 	stmdane	r0, {r1, r4, r9, sl}^
     e28:	00194297 	mulseq	r9, r7, r2
     e2c:	012e1700 	teqeq	lr, r0, lsl #14
     e30:	0e03193f 	mcreq	9, 0, r1, cr3, cr15, {1}
     e34:	0b3b0b3a 	bleq	ec3b24 <_back_addr-0x74c4dc>
     e38:	01111927 	tsteq	r1, r7, lsr #18
     e3c:	18400612 	stmdane	r0, {r1, r4, r9, sl}^
     e40:	01194297 			; <UNDEFINED> instruction: 0x01194297
     e44:	18000013 	stmdane	r0, {r0, r1, r4}
     e48:	0e030034 	mcreq	0, 0, r0, cr3, cr4, {1}
     e4c:	0b3b0b3a 	bleq	ec3b3c <_back_addr-0x74c4c4>
     e50:	17021349 	strne	r1, [r2, -r9, asr #6]
     e54:	34190000 	ldrcc	r0, [r9], #-0
     e58:	3a0e0300 	bcc	381a60 <_back_addr-0x128e5a0>
     e5c:	490b3b0b 	stmdbmi	fp, {r0, r1, r3, r8, r9, fp, ip, sp}
     e60:	00061c13 	andeq	r1, r6, r3, lsl ip
     e64:	00051a00 	andeq	r1, r5, r0, lsl #20
     e68:	0b3a0e03 	bleq	e8467c <_back_addr-0x78b984>
     e6c:	13490b3b 	movtne	r0, #39739	; 0x9b3b
     e70:	00001802 	andeq	r1, r0, r2, lsl #16
     e74:	0300051b 	movweq	r0, #1307	; 0x51b
     e78:	3b0b3a08 	blcc	2cf6a0 <_back_addr-0x1340960>
     e7c:	0213490b 	andseq	r4, r3, #180224	; 0x2c000
     e80:	1c000017 	stcne	0, cr0, [r0], {23}
     e84:	08030034 	stmdaeq	r3, {r2, r4, r5}
     e88:	0b3b0b3a 	bleq	ec3b78 <_back_addr-0x74c488>
     e8c:	17021349 	strne	r1, [r2, -r9, asr #6]
     e90:	1d1d0000 	ldcne	0, cr0, [sp, #-0]
     e94:	52133101 	andspl	r3, r3, #1073741824	; 0x40000000
     e98:	58175501 	ldmdapl	r7, {r0, r8, sl, ip, lr}
     e9c:	010b590b 	tsteq	fp, fp, lsl #18
     ea0:	1e000013 	mcrne	0, 0, r0, cr0, cr3, {0}
     ea4:	13310005 	teqne	r1, #5
     ea8:	1d1f0000 	ldcne	0, cr0, [pc, #-0]	; eb0 <_back_addr-0x160f150>
     eac:	11133101 	tstne	r3, r1, lsl #2
     eb0:	58061201 	stmdapl	r6, {r0, r9, ip}
     eb4:	000b590b 	andeq	r5, fp, fp, lsl #18
     eb8:	00052000 	andeq	r2, r5, r0
     ebc:	18021331 	stmdane	r2, {r0, r4, r5, r8, r9, ip}
     ec0:	05210000 	streq	r0, [r1, #-0]!
     ec4:	3a0e0300 	bcc	381acc <_back_addr-0x128e534>
     ec8:	490b3b0b 	stmdbmi	fp, {r0, r1, r3, r8, r9, fp, ip, sp}
     ecc:	00170213 	andseq	r0, r7, r3, lsl r2
     ed0:	010b2200 	mrseq	r2, R11_fiq
     ed4:	00001755 	andeq	r1, r0, r5, asr r7
     ed8:	3f012e23 	svccc	0x00012e23
     edc:	3a0e0319 	bcc	381b48 <_back_addr-0x128e4b8>
     ee0:	490b3b0b 	stmdbmi	fp, {r0, r1, r3, r8, r9, fp, ip, sp}
     ee4:	01193c13 	tsteq	r9, r3, lsl ip
     ee8:	24000013 	strcs	r0, [r0], #-19
     eec:	00000018 	andeq	r0, r0, r8, lsl r0
     ef0:	01828925 	orreq	r8, r2, r5, lsr #18
     ef4:	31011101 	tstcc	r1, r1, lsl #2
     ef8:	00130113 	andseq	r0, r3, r3, lsl r1
     efc:	828a2600 	addhi	r2, sl, #0, 12
     f00:	18020001 	stmdane	r2, {r0}
     f04:	00184291 	mulseq	r8, r1, r2
     f08:	82892700 	addhi	r2, r9, #0, 14
     f0c:	01110101 	tsteq	r1, r1, lsl #2
     f10:	31194295 			; <UNDEFINED> instruction: 0x31194295
     f14:	28000013 	stmdacs	r0, {r0, r1, r4}
     f18:	13490035 	movtne	r0, #36917	; 0x9035
     f1c:	05290000 	streq	r0, [r9, #-0]!
     f20:	3a080300 	bcc	201b28 <_back_addr-0x140e4d8>
     f24:	490b3b0b 	stmdbmi	fp, {r0, r1, r3, r8, r9, fp, ip, sp}
     f28:	00180213 	andseq	r0, r8, r3, lsl r2
     f2c:	011d2a00 	tsteq	sp, r0, lsl #20
     f30:	01521331 	cmpeq	r2, r1, lsr r3
     f34:	0b581755 	bleq	1606c90 <_back_addr-0x9370>
     f38:	00000b59 	andeq	r0, r0, r9, asr fp
     f3c:	31012e2b 	tstcc	r1, fp, lsr #28
     f40:	12011113 	andne	r1, r1, #-1073741820	; 0xc0000004
     f44:	97184006 	ldrls	r4, [r8, -r6]
     f48:	13011942 	movwne	r1, #6466	; 0x1942
     f4c:	052c0000 	streq	r0, [ip, #-0]!
     f50:	02133100 	andseq	r3, r3, #0, 2
     f54:	2d000017 	stccs	0, cr0, [r0, #-92]	; 0xffffffa4
     f58:	193f012e 	ldmdbne	pc!, {r1, r2, r3, r5, r8}	; <UNPREDICTABLE>
     f5c:	0b3a0e03 	bleq	e84770 <_back_addr-0x78b890>
     f60:	19270b3b 	stmdbne	r7!, {r0, r1, r3, r4, r5, r8, r9, fp}
     f64:	01111349 	tsteq	r1, r9, asr #6
     f68:	18400612 	stmdane	r0, {r1, r4, r9, sl}^
     f6c:	01194297 			; <UNDEFINED> instruction: 0x01194297
     f70:	2e000013 	mcrcs	0, 0, r0, cr0, cr3, {0}
     f74:	0e030034 	mcreq	0, 0, r0, cr3, cr4, {1}
     f78:	0b3b0b3a 	bleq	ec3c68 <_back_addr-0x74c398>
     f7c:	18021349 	stmdane	r2, {r0, r3, r6, r8, r9, ip}
     f80:	342f0000 	strtcc	r0, [pc], #-0	; f88 <_back_addr-0x160f078>
     f84:	490e0300 	stmdbmi	lr, {r8, r9}
     f88:	02193413 	andseq	r3, r9, #318767104	; 0x13000000
     f8c:	30000018 	andcc	r0, r0, r8, lsl r0
     f90:	1331011d 	teqne	r1, #1073741831	; 0x40000007
     f94:	06120111 			; <UNDEFINED> instruction: 0x06120111
     f98:	0b590b58 	bleq	1643d00 <__bss_end__+0x21140>
     f9c:	00001301 	andeq	r1, r0, r1, lsl #6
     fa0:	01828931 	orreq	r8, r2, r1, lsr r9
     fa4:	31011101 	tstcc	r1, r1, lsl #2
     fa8:	32000013 	andcc	r0, r0, #19
     fac:	00018289 	andeq	r8, r1, r9, lsl #5
     fb0:	13310111 	teqne	r1, #1073741828	; 0x40000004
     fb4:	89330000 	ldmdbhi	r3!, {}	; <UNPREDICTABLE>
     fb8:	11010182 	smlabbne	r1, r2, r1, r0
     fbc:	19429501 	stmdbne	r2, {r0, r8, sl, ip, pc}^
     fc0:	13011331 	movwne	r1, #4913	; 0x1331
     fc4:	26340000 	ldrtcs	r0, [r4], -r0
     fc8:	35000000 	strcc	r0, [r0, #-0]
     fcc:	13490101 	movtne	r0, #37121	; 0x9101
     fd0:	00001301 	andeq	r1, r0, r1, lsl #6
     fd4:	49002136 	stmdbmi	r0, {r1, r2, r4, r5, r8, sp}
     fd8:	000b2f13 	andeq	r2, fp, r3, lsl pc
     fdc:	00343700 	eorseq	r3, r4, r0, lsl #14
     fe0:	17021331 	smladxne	r2, r1, r3, r1
     fe4:	34380000 	ldrtcc	r0, [r8], #-0
     fe8:	3a080300 	bcc	201bf0 <_back_addr-0x140e410>
     fec:	490b3b0b 	stmdbmi	fp, {r0, r1, r3, r8, r9, fp, ip, sp}
     ff0:	00180213 	andseq	r0, r8, r3, lsl r2
     ff4:	012e3900 	teqeq	lr, r0, lsl #18
     ff8:	0e03193f 	mcreq	9, 0, r1, cr3, cr15, {1}
     ffc:	053b0b3a 	ldreq	r0, [fp, #-2874]!	; 0xb3a
    1000:	13491927 	movtne	r1, #39207	; 0x9927
    1004:	06120111 			; <UNDEFINED> instruction: 0x06120111
    1008:	42971840 	addsmi	r1, r7, #64, 16	; 0x400000
    100c:	00130119 	andseq	r0, r3, r9, lsl r1
    1010:	00053a00 	andeq	r3, r5, r0, lsl #20
    1014:	0b3a0803 	bleq	e83028 <_back_addr-0x78cfd8>
    1018:	1349053b 	movtne	r0, #38203	; 0x953b
    101c:	00001702 	andeq	r1, r0, r2, lsl #14
    1020:	0300053b 	movweq	r0, #1339	; 0x53b
    1024:	3b0b3a0e 	blcc	2cf864 <_back_addr-0x134079c>
    1028:	02134905 	andseq	r4, r3, #81920	; 0x14000
    102c:	3c000017 	stccc	0, cr0, [r0], {23}
    1030:	08030034 	stmdaeq	r3, {r2, r4, r5}
    1034:	053b0b3a 	ldreq	r0, [fp, #-2874]!	; 0xb3a
    1038:	17021349 	strne	r1, [r2, -r9, asr #6]
    103c:	2e3d0000 	cdpcs	0, 3, cr0, cr13, cr0, {0}
    1040:	03193f00 	tsteq	r9, #0, 30
    1044:	3b0b3a0e 	blcc	2cf884 <_back_addr-0x134077c>
    1048:	11192705 	tstne	r9, r5, lsl #14
    104c:	40061201 	andmi	r1, r6, r1, lsl #4
    1050:	19429718 	stmdbne	r2, {r3, r4, r8, r9, sl, ip, pc}^
    1054:	2e3e0000 	cdpcs	0, 3, cr0, cr14, cr0, {0}
    1058:	03193f01 	tsteq	r9, #1, 30
    105c:	3b0b3a0e 	blcc	2cf89c <_back_addr-0x1340764>
    1060:	3c13490b 	ldccc	9, cr4, [r3], {11}
    1064:	00000019 	andeq	r0, r0, r9, lsl r0
    1068:	25011101 	strcs	r1, [r1, #-257]	; 0x101
    106c:	030b130e 	movweq	r1, #45838	; 0xb30e
    1070:	110e1b0e 	tstne	lr, lr, lsl #22
    1074:	10061201 	andne	r1, r6, r1, lsl #4
    1078:	02000017 	andeq	r0, r0, #23
    107c:	0b0b0024 	bleq	2c1114 <_back_addr-0x134eeec>
    1080:	0e030b3e 	vmoveq.16	d3[0], r0
    1084:	04030000 	streq	r0, [r3], #-0
    1088:	3a0b0b01 	bcc	2c3c94 <_back_addr-0x134c36c>
    108c:	010b3b0b 	tsteq	fp, fp, lsl #22
    1090:	04000013 	streq	r0, [r0], #-19
    1094:	0e030028 	cdpeq	0, 0, cr0, cr3, cr8, {1}
    1098:	00000d1c 	andeq	r0, r0, ip, lsl sp
    109c:	03001605 	movweq	r1, #1541	; 0x605
    10a0:	3b0b3a0e 	blcc	2cf8e0 <_back_addr-0x1340720>
    10a4:	0013490b 	andseq	r4, r3, fp, lsl #18
    10a8:	00240600 	eoreq	r0, r4, r0, lsl #12
    10ac:	0b3e0b0b 	bleq	f83ce0 <_back_addr-0x68c320>
    10b0:	00000803 	andeq	r0, r0, r3, lsl #16
    10b4:	03010407 	movweq	r0, #5127	; 0x1407
    10b8:	3a0b0b0e 	bcc	2c3cf8 <_back_addr-0x134c308>
    10bc:	010b3b0b 	tsteq	fp, fp, lsl #22
    10c0:	08000013 	stmdaeq	r0, {r0, r1, r4}
    10c4:	0e03012e 	adfeqsp	f0, f3, #0.5
    10c8:	0b3b0b3a 	bleq	ec3db8 <_back_addr-0x74c248>
    10cc:	13491927 	movtne	r1, #39207	; 0x9927
    10d0:	13010b20 	movwne	r0, #6944	; 0x1b20
    10d4:	05090000 	streq	r0, [r9, #-0]
    10d8:	3a0e0300 	bcc	381ce0 <_back_addr-0x128e320>
    10dc:	490b3b0b 	stmdbmi	fp, {r0, r1, r3, r8, r9, fp, ip, sp}
    10e0:	0a000013 	beq	1134 <_back_addr-0x160eecc>
    10e4:	0e03012e 	adfeqsp	f0, f3, #0.5
    10e8:	0b3b0b3a 	bleq	ec3dd8 <_back_addr-0x74c228>
    10ec:	0b201927 	bleq	807590 <_back_addr-0xe08a70>
    10f0:	00001301 	andeq	r1, r0, r1, lsl #6
    10f4:	0300050b 	movweq	r0, #1291	; 0x50b
    10f8:	3b0b3a08 	blcc	2cf920 <_back_addr-0x13406e0>
    10fc:	0013490b 	andseq	r4, r3, fp, lsl #18
    1100:	012e0c00 	teqeq	lr, r0, lsl #24
    1104:	0e03193f 	mcreq	9, 0, r1, cr3, cr15, {1}
    1108:	053b0b3a 	ldreq	r0, [fp, #-2874]!	; 0xb3a
    110c:	13491927 	movtne	r1, #39207	; 0x9927
    1110:	13010b20 	movwne	r0, #6944	; 0x1b20
    1114:	050d0000 	streq	r0, [sp, #-0]
    1118:	3a0e0300 	bcc	381d20 <_back_addr-0x128e2e0>
    111c:	49053b0b 	stmdbmi	r5, {r0, r1, r3, r8, r9, fp, ip, sp}
    1120:	0e000013 	mcreq	0, 0, r0, cr0, cr3, {0}
    1124:	0e030034 	mcreq	0, 0, r0, cr3, cr4, {1}
    1128:	053b0b3a 	ldreq	r0, [fp, #-2874]!	; 0xb3a
    112c:	00001349 	andeq	r1, r0, r9, asr #6
    1130:	3f012e0f 	svccc	0x00012e0f
    1134:	3a0e0319 	bcc	381da0 <_back_addr-0x128e260>
    1138:	490b3b0b 	stmdbmi	fp, {r0, r1, r3, r8, r9, fp, ip, sp}
    113c:	01193c13 	tsteq	r9, r3, lsl ip
    1140:	10000013 	andne	r0, r0, r3, lsl r0
    1144:	00000018 	andeq	r0, r0, r8, lsl r0
    1148:	01010b11 	tsteq	r1, r1, lsl fp
    114c:	12000013 	andne	r0, r0, #19
    1150:	193f012e 	ldmdbne	pc!, {r1, r2, r3, r5, r8}	; <UNPREDICTABLE>
    1154:	0b3a0e03 	bleq	e84968 <_back_addr-0x78b698>
    1158:	13490b3b 	movtne	r0, #39739	; 0x9b3b
    115c:	0000193c 	andeq	r1, r0, ip, lsr r9
    1160:	3f012e13 	svccc	0x00012e13
    1164:	3a0e0319 	bcc	381dd0 <_back_addr-0x128e230>
    1168:	490b3b0b 	stmdbmi	fp, {r0, r1, r3, r8, r9, fp, ip, sp}
    116c:	010b2013 	tsteq	fp, r3, lsl r0
    1170:	14000013 	strne	r0, [r0], #-19
    1174:	193f012e 	ldmdbne	pc!, {r1, r2, r3, r5, r8}	; <UNPREDICTABLE>
    1178:	0b3a0e03 	bleq	e8498c <_back_addr-0x78b674>
    117c:	13490b3b 	movtne	r0, #39739	; 0x9b3b
    1180:	00000b20 	andeq	r0, r0, r0, lsr #22
    1184:	00010b15 	andeq	r0, r1, r5, lsl fp
    1188:	012e1600 	teqeq	lr, r0, lsl #12
    118c:	0e03193f 	mcreq	9, 0, r1, cr3, cr15, {1}
    1190:	0b3b0b3a 	bleq	ec3e80 <_back_addr-0x74c180>
    1194:	13491927 	movtne	r1, #39207	; 0x9927
    1198:	06120111 			; <UNDEFINED> instruction: 0x06120111
    119c:	42971840 	addsmi	r1, r7, #64, 16	; 0x400000
    11a0:	00130119 	andseq	r0, r3, r9, lsl r1
    11a4:	00051700 	andeq	r1, r5, r0, lsl #14
    11a8:	0b3a0e03 	bleq	e849bc <_back_addr-0x78b644>
    11ac:	13490b3b 	movtne	r0, #39739	; 0x9b3b
    11b0:	00001702 	andeq	r1, r0, r2, lsl #14
    11b4:	03000518 	movweq	r0, #1304	; 0x518
    11b8:	3b0b3a0e 	blcc	2cf9f8 <_back_addr-0x1340608>
    11bc:	0213490b 	andseq	r4, r3, #180224	; 0x2c000
    11c0:	19000018 	stmdbne	r0, {r3, r4}
    11c4:	0e030117 	mcreq	1, 0, r0, cr3, cr7, {0}
    11c8:	0b3a0b0b 	bleq	e83dfc <_back_addr-0x78c204>
    11cc:	13010b3b 	movwne	r0, #6971	; 0x1b3b
    11d0:	0d1a0000 	ldceq	0, cr0, [sl, #-0]
    11d4:	3a080300 	bcc	201ddc <_back_addr-0x140e224>
    11d8:	490b3b0b 	stmdbmi	fp, {r0, r1, r3, r8, r9, fp, ip, sp}
    11dc:	1b000013 	blne	1230 <_back_addr-0x160edd0>
    11e0:	08030034 	stmdaeq	r3, {r2, r4, r5}
    11e4:	0b3b0b3a 	bleq	ec3ed4 <_back_addr-0x74c12c>
    11e8:	18021349 	stmdane	r2, {r0, r3, r6, r8, r9, ip}
    11ec:	341c0000 	ldrcc	r0, [ip], #-0
    11f0:	3a080300 	bcc	201df8 <_back_addr-0x140e208>
    11f4:	490b3b0b 	stmdbmi	fp, {r0, r1, r3, r8, r9, fp, ip, sp}
    11f8:	00170213 	andseq	r0, r7, r3, lsl r2
    11fc:	010b1d00 	tsteq	fp, r0, lsl #26
    1200:	00001755 	andeq	r1, r0, r5, asr r7
    1204:	55010b1e 	strpl	r0, [r1, #-2846]	; 0xb1e
    1208:	00130117 	andseq	r0, r3, r7, lsl r1
    120c:	82891f00 	addhi	r1, r9, #0, 30
    1210:	01110001 	tsteq	r1, r1
    1214:	00001331 	andeq	r1, r0, r1, lsr r3
    1218:	01828920 	orreq	r8, r2, r0, lsr #18
    121c:	31011101 	tstcc	r1, r1, lsl #2
    1220:	21000013 	tstcs	r0, r3, lsl r0
    1224:	0001828a 	andeq	r8, r1, sl, lsl #5
    1228:	42911802 	addsmi	r1, r1, #131072	; 0x20000
    122c:	22000018 	andcs	r0, r0, #24
    1230:	01018289 	smlabbeq	r1, r9, r2, r8
    1234:	13310111 	teqne	r1, #1073741828	; 0x40000004
    1238:	00001301 	andeq	r1, r0, r1, lsl #6
    123c:	0b000f23 	bleq	4ed0 <_back_addr-0x160b130>
    1240:	2400000b 	strcs	r0, [r0], #-11
    1244:	13490101 	movtne	r0, #37121	; 0x9101
    1248:	00001301 	andeq	r1, r0, r1, lsl #6
    124c:	49002125 	stmdbmi	r0, {r0, r2, r5, r8, sp}
    1250:	000b2f13 	andeq	r2, fp, r3, lsl pc
    1254:	012e2600 	teqeq	lr, r0, lsl #12
    1258:	0e03193f 	mcreq	9, 0, r1, cr3, cr15, {1}
    125c:	053b0b3a 	ldreq	r0, [fp, #-2874]!	; 0xb3a
    1260:	13491927 	movtne	r1, #39207	; 0x9927
    1264:	06120111 			; <UNDEFINED> instruction: 0x06120111
    1268:	42971840 	addsmi	r1, r7, #64, 16	; 0x400000
    126c:	00130119 	andseq	r0, r3, r9, lsl r1
    1270:	00342700 	eorseq	r2, r4, r0, lsl #14
    1274:	0b3a0803 	bleq	e83288 <_back_addr-0x78cd78>
    1278:	1349053b 	movtne	r0, #38203	; 0x953b
    127c:	34280000 	strtcc	r0, [r8], #-0
    1280:	3a080300 	bcc	201e88 <_back_addr-0x140e178>
    1284:	49053b0b 	stmdbmi	r5, {r0, r1, r3, r8, r9, fp, ip, sp}
    1288:	00170213 	andseq	r0, r7, r3, lsl r2
    128c:	012e2900 	teqeq	lr, r0, lsl #18
    1290:	0e03193f 	mcreq	9, 0, r1, cr3, cr15, {1}
    1294:	053b0b3a 	ldreq	r0, [fp, #-2874]!	; 0xb3a
    1298:	193c1349 	ldmdbne	ip!, {r0, r3, r6, r8, r9, ip}
    129c:	00001301 	andeq	r1, r0, r1, lsl #6
    12a0:	0300052a 	movweq	r0, #1322	; 0x52a
    12a4:	3b0b3a0e 	blcc	2cfae4 <_back_addr-0x134051c>
    12a8:	02134905 	andseq	r4, r3, #81920	; 0x14000
    12ac:	2b000017 	blcs	1310 <_back_addr-0x160ecf0>
    12b0:	0e030034 	mcreq	0, 0, r0, cr3, cr4, {1}
    12b4:	053b0b3a 	ldreq	r0, [fp, #-2874]!	; 0xb3a
    12b8:	17021349 	strne	r1, [r2, -r9, asr #6]
    12bc:	1d2c0000 	stcne	0, cr0, [ip, #-0]
    12c0:	11133101 	tstne	r3, r1, lsl #2
    12c4:	58061201 	stmdapl	r6, {r0, r9, ip}
    12c8:	0005590b 	andeq	r5, r5, fp, lsl #18
    12cc:	00052d00 	andeq	r2, r5, r0, lsl #26
    12d0:	17021331 	smladxne	r2, r1, r3, r1
    12d4:	0b2e0000 	bleq	b812dc <_back_addr-0xa8ed24>
    12d8:	12011101 	andne	r1, r1, #1073741824	; 0x40000000
    12dc:	2f000006 	svccs	0x00000006
    12e0:	1331012e 	teqne	r1, #-2147483637	; 0x8000000b
    12e4:	06120111 			; <UNDEFINED> instruction: 0x06120111
    12e8:	42971840 	addsmi	r1, r7, #64, 16	; 0x400000
    12ec:	00130119 	andseq	r0, r3, r9, lsl r1
    12f0:	00343000 	eorseq	r3, r4, r0
    12f4:	17021331 	smladxne	r2, r1, r3, r1
    12f8:	2e310000 	cdpcs	0, 3, cr0, cr1, cr0, {0}
    12fc:	03193f01 	tsteq	r9, #1, 30
    1300:	3b0b3a0e 	blcc	2cfb40 <_back_addr-0x13404c0>
    1304:	11134905 	tstne	r3, r5, lsl #18
    1308:	40061201 	andmi	r1, r6, r1, lsl #4
    130c:	19429718 	stmdbne	r2, {r3, r4, r8, r9, sl, ip, pc}^
    1310:	00001301 	andeq	r1, r0, r1, lsl #6
    1314:	03003432 	movweq	r3, #1074	; 0x432
    1318:	3b0b3a0e 	blcc	2cfb58 <_back_addr-0x13404a8>
    131c:	1c134905 	ldcne	9, cr4, [r3], {5}
    1320:	33000006 	movwcc	r0, #6
    1324:	0e030034 	mcreq	0, 0, r0, cr3, cr4, {1}
    1328:	19341349 	ldmdbne	r4!, {r0, r3, r6, r8, r9, ip}
    132c:	00001802 	andeq	r1, r0, r2, lsl #16
    1330:	31011d34 	tstcc	r1, r4, lsr sp
    1334:	55015213 	strpl	r5, [r1, #-531]	; 0x213
    1338:	590b5817 	stmdbpl	fp, {r0, r1, r2, r4, fp, ip, lr}
    133c:	00130105 	andseq	r0, r3, r5, lsl #2
    1340:	00053500 	andeq	r3, r5, r0, lsl #10
    1344:	0d1c1331 	ldceq	3, cr1, [ip, #-196]	; 0xffffff3c
    1348:	1d360000 	ldcne	0, cr0, [r6, #-0]
    134c:	11133101 	tstne	r3, r1, lsl #2
    1350:	58061201 	stmdapl	r6, {r0, r9, ip}
    1354:	0105590b 	tsteq	r5, fp, lsl #18
    1358:	37000013 	smladcc	r0, r3, r0, r0
    135c:	13310005 	teqne	r1, #5
    1360:	0000061c 	andeq	r0, r0, ip, lsl r6
    1364:	49002638 	stmdbmi	r0, {r3, r4, r5, r9, sl, sp}
    1368:	39000013 	stmdbcc	r0, {r0, r1, r4}
    136c:	0e030034 	mcreq	0, 0, r0, cr3, cr4, {1}
    1370:	0b3b0b3a 	bleq	ec4060 <_back_addr-0x74bfa0>
    1374:	17021349 	strne	r1, [r2, -r9, asr #6]
    1378:	0b3a0000 	bleq	e81380 <_back_addr-0x78ec80>
    137c:	12011101 	andne	r1, r1, #1073741824	; 0x40000000
    1380:	00130106 	andseq	r0, r3, r6, lsl #2
    1384:	82893b00 	addhi	r3, r9, #0, 22
    1388:	01110101 	tsteq	r1, r1, lsl #2
    138c:	31194295 			; <UNDEFINED> instruction: 0x31194295
    1390:	3c000013 	stccc	0, cr0, [r0], {19}
    1394:	0b0b000f 	bleq	2c13d8 <_back_addr-0x134ec28>
    1398:	00001349 	andeq	r1, r0, r9, asr #6
    139c:	47012e3d 	smladxmi	r1, sp, lr, r2
    13a0:	010b2013 	tsteq	fp, r3, lsl r0
    13a4:	3e000013 	mcrcc	0, 0, r0, cr0, cr3, {0}
    13a8:	1347012e 	movtne	r0, #28974	; 0x712e
    13ac:	1301193c 	movwne	r1, #6460	; 0x193c
    13b0:	053f0000 	ldreq	r0, [pc, #-0]!	; 13b8 <_back_addr-0x160ec48>
    13b4:	3a080300 	bcc	201fbc <_back_addr-0x140e044>
    13b8:	49053b0b 	stmdbmi	r5, {r0, r1, r3, r8, r9, fp, ip, sp}
    13bc:	00170213 	andseq	r0, r7, r3, lsl r2
    13c0:	00344000 	eorseq	r4, r4, r0
    13c4:	0b3a0803 	bleq	e833d8 <_back_addr-0x78cc28>
    13c8:	1349053b 	movtne	r0, #38203	; 0x953b
    13cc:	00000b1c 	andeq	r0, r0, ip, lsl fp
    13d0:	31011d41 	tstcc	r1, r1, asr #26
    13d4:	55015213 	strpl	r5, [r1, #-531]	; 0x213
    13d8:	590b5817 	stmdbpl	fp, {r0, r1, r2, r4, fp, ip, lr}
    13dc:	42000005 	andmi	r0, r0, #5
    13e0:	08030005 	stmdaeq	r3, {r0, r2}
    13e4:	053b0b3a 	ldreq	r0, [fp, #-2874]!	; 0xb3a
    13e8:	18021349 	stmdane	r2, {r0, r3, r6, r8, r9, ip}
    13ec:	34430000 	strbcc	r0, [r3], #-0
    13f0:	3a080300 	bcc	201ff8 <_back_addr-0x140e008>
    13f4:	49053b0b 	stmdbmi	r5, {r0, r1, r3, r8, r9, fp, ip, sp}
    13f8:	000d1c13 	andeq	r1, sp, r3, lsl ip
    13fc:	00344400 	eorseq	r4, r4, r0, lsl #8
    1400:	0b3a0e03 	bleq	e84c14 <_back_addr-0x78b3ec>
    1404:	1349053b 	movtne	r0, #38203	; 0x953b
    1408:	00000b1c 	andeq	r0, r0, ip, lsl fp
    140c:	31000545 	tstcc	r0, r5, asr #10
    1410:	46000013 			; <UNDEFINED> instruction: 0x46000013
    1414:	0e030034 	mcreq	0, 0, r0, cr3, cr4, {1}
    1418:	0b3b0b3a 	bleq	ec4108 <_back_addr-0x74bef8>
    141c:	18021349 	stmdane	r2, {r0, r3, r6, r8, r9, ip}
    1420:	21470000 	mrscs	r0, (UNDEF: 71)
    1424:	48000000 	stmdami	r0, {}	; <UNPREDICTABLE>
    1428:	0e030034 	mcreq	0, 0, r0, cr3, cr4, {1}
    142c:	0b3b0b3a 	bleq	ec411c <_back_addr-0x74bee4>
    1430:	193f1349 	ldmdbne	pc!, {r0, r3, r6, r8, r9, ip}	; <UNPREDICTABLE>
    1434:	0000193c 	andeq	r1, r0, ip, lsr r9
    1438:	03003449 	movweq	r3, #1097	; 0x449
    143c:	3b0b3a0e 	blcc	2cfc7c <_back_addr-0x1340384>
    1440:	3f134905 	svccc	0x00134905
    1444:	00180219 	andseq	r0, r8, r9, lsl r2
    1448:	012e4a00 	teqeq	lr, r0, lsl #20
    144c:	0e03193f 	mcreq	9, 0, r1, cr3, cr15, {1}
    1450:	0b3b0b3a 	bleq	ec4140 <_back_addr-0x74bec0>
    1454:	193c1927 	ldmdbne	ip!, {r0, r1, r2, r5, r8, fp, ip}
    1458:	054b0000 	strbeq	r0, [fp, #-0]
    145c:	00134900 	andseq	r4, r3, r0, lsl #18
	...

Disassembly of section .debug_line:

00000000 <.debug_line>:
   0:	0000004c 	andeq	r0, r0, ip, asr #32
   4:	001e0002 	andseq	r0, lr, r2
   8:	01020000 	mrseq	r0, (UNDEF: 2)
   c:	000d0efb 	strdeq	r0, [sp], -fp
  10:	01010101 	tsteq	r1, r1, lsl #2
  14:	01000000 	mrseq	r0, (UNDEF: 0)
  18:	00010000 	andeq	r0, r1, r0
  1c:	72617473 	rsbvc	r7, r1, #1929379840	; 0x73000000
  20:	00532e74 	subseq	r2, r3, r4, ror lr
  24:	00000000 	andeq	r0, r0, r0
  28:	0c020500 	cfstr32eq	mvfx0, [r2], {-0}
  2c:	03016100 	movweq	r6, #4352	; 0x1100
  30:	2f2f010d 	svccs	0x002f010d
  34:	2f2f302f 	svccs	0x002f302f
  38:	2f2f302f 	svccs	0x002f302f
  3c:	2f2f2f30 	svccs	0x002f2f30
  40:	2f312f2f 	svccs	0x00312f2f
  44:	302f2f2f 	eorcc	r2, pc, pc, lsr #30
  48:	022f2f2f 	eoreq	r2, pc, #47, 30	; 0xbc
  4c:	01010002 	tsteq	r1, r2
  50:	00000036 	andeq	r0, r0, r6, lsr r0
  54:	001f0002 	andseq	r0, pc, r2
  58:	01020000 	mrseq	r0, (UNDEF: 2)
  5c:	000d0efb 	strdeq	r0, [sp], -fp
  60:	01010101 	tsteq	r1, r1, lsl #2
  64:	01000000 	mrseq	r0, (UNDEF: 0)
  68:	00010000 	andeq	r0, r1, r0
  6c:	6c727473 	cfldrdvs	mvd7, [r2], #-460	; 0xfffffe34
  70:	632e6e65 	teqvs	lr, #1616	; 0x650
  74:	00000000 	andeq	r0, r0, r0
  78:	02050000 	andeq	r0, r5, #0
  7c:	01610074 	smceq	4100	; 0x1004
  80:	15013c03 	strne	r3, [r1, #-3075]	; 0xc03
  84:	000402f8 	strdeq	r0, [r4], -r8
  88:	00550101 	subseq	r0, r5, r1, lsl #2
  8c:	00020000 	andeq	r0, r2, r0
  90:	0000001f 	andeq	r0, r0, pc, lsl r0
  94:	0efb0102 	cdpeq	1, 15, cr0, cr11, cr2, {0}
  98:	0101000d 	tsteq	r1, sp
  9c:	00000101 	andeq	r0, r0, r1, lsl #2
  a0:	00000100 	andeq	r0, r0, r0, lsl #2
  a4:	74730001 	ldrbtvc	r0, [r3], #-1
  a8:	72747372 	rsbsvc	r7, r4, #-939524095	; 0xc8000001
  ac:	0000632e 	andeq	r6, r0, lr, lsr #6
  b0:	00000000 	andeq	r0, r0, r0
  b4:	009c0205 	addseq	r0, ip, r5, lsl #4
  b8:	c0030161 	andgt	r0, r3, r1, ror #2
  bc:	62160100 	andsvs	r0, r6, #0, 2
  c0:	04020035 	streq	r0, [r2], #-53	; 0x35
  c4:	82066901 	andhi	r6, r6, #16384	; 0x4000
  c8:	02006806 	andeq	r6, r0, #393216	; 0x60000
  cc:	684e0104 	stmdavs	lr, {r2, r8}^
  d0:	7003a3f0 	strdvc	sl, [r3], -r0
  d4:	2e150382 	cdpcs	3, 1, cr0, cr5, cr2, {4}
  d8:	032e6b03 	teqeq	lr, #3072	; 0xc00
  dc:	02022e15 	andeq	r2, r2, #336	; 0x150
  e0:	df010100 	svcle	0x00010100
  e4:	02000000 	andeq	r0, r0, #0
  e8:	00008a00 	andeq	r8, r0, r0, lsl #20
  ec:	fb010200 	blx	408f6 <_back_addr-0x15cf70a>
  f0:	01000d0e 	tsteq	r0, lr, lsl #26
  f4:	00010101 	andeq	r0, r1, r1, lsl #2
  f8:	00010000 	andeq	r0, r1, r0
  fc:	682f0100 	stmdavs	pc!, {r8}	; <UNPREDICTABLE>
 100:	2f656d6f 	svccs	0x00656d6f
 104:	2f656166 	svccs	0x00656166
 108:	2f73616e 	svccs	0x0073616e
 10c:	2f6e7673 	svccs	0x006e7673
 110:	35393231 	ldrcc	r3, [r9, #-561]!	; 0x231
 114:	7572742f 	ldrbvc	r7, [r2, #-1071]!	; 0x42f
 118:	362d6b6e 	strtcc	r6, [sp], -lr, ror #22
 11c:	302e302e 	eorcc	r3, lr, lr, lsr #32
 120:	2f31725f 	svccs	0x0031725f
 124:	746f6f62 	strbtvc	r6, [pc], #-3938	; 12c <_back_addr-0x160fed4>
 128:	65646f63 	strbvs	r6, [r4, #-3939]!	; 0xf63
 12c:	6f62752f 	svcvs	0x0062752f
 130:	652f746f 	strvs	r7, [pc, #-1135]!	; fffffcc9 <__bss_end__+0xfe9dd109>
 134:	706d6178 	rsbvc	r6, sp, r8, ror r1
 138:	2f73656c 	svccs	0x0073656c
 13c:	73756665 	cmnvc	r5, #105906176	; 0x6500000
 140:	65765f65 	ldrbvs	r5, [r6, #-3941]!	; 0xf65
 144:	79666972 	stmdbvc	r6!, {r1, r4, r5, r6, r8, fp, sp, lr}^
 148:	636e692f 	cmnvs	lr, #770048	; 0xbc000
 14c:	6564756c 	strbvs	r7, [r4, #-1388]!	; 0x56c
 150:	7276642f 	rsbsvc	r6, r6, #788529152	; 0x2f000000
 154:	746f6f62 	strbtvc	r6, [pc], #-3938	; 15c <_back_addr-0x160fea4>
 158:	636e695f 	cmnvs	lr, #1556480	; 0x17c000
 15c:	74730000 	ldrbtvc	r0, [r3], #-0
 160:	756f7472 	strbvc	r7, [pc, #-1138]!	; fffffcf6 <__bss_end__+0xfe9dd136>
 164:	00632e6c 	rsbeq	r2, r3, ip, ror #28
 168:	63000000 	movwvs	r0, #0
 16c:	65707974 	ldrbvs	r7, [r0, #-2420]!	; 0x974
 170:	0100682e 	tsteq	r0, lr, lsr #16
 174:	00000000 	andeq	r0, r0, r0
 178:	013c0205 	teqeq	ip, r5, lsl #4
 17c:	c4030161 	strgt	r0, [r3], #-353	; 0x161
 180:	00660100 	rsbeq	r0, r6, r0, lsl #2
 184:	03010402 	movweq	r0, #5122	; 0x1402
 188:	0200660b 	andeq	r6, r0, #11534336	; 0xb00000
 18c:	834b0104 	movthi	r0, #45316	; 0xb104
 190:	004c2f4f 	subeq	r2, ip, pc, asr #30
 194:	06010402 	streq	r0, [r1], -r2, lsl #8
 198:	9f88064a 	svcls	0x0088064a
 19c:	db2d6765 	blle	b59f38 <_back_addr-0xab60c8>
 1a0:	01040200 	mrseq	r0, R12_usr
 1a4:	dd660b03 	fstmdbxle	r6!, {d16}	;@ Deprecated
 1a8:	2e70032c 	cdpcs	3, 7, cr0, cr0, cr12, {1}
 1ac:	302d4b2f 	eorcc	r4, sp, pc, lsr #22
 1b0:	4c4c854b 	cfstr64mi	mvdx8, [ip], {75}	; 0x4b
 1b4:	68522f4b 	ldmdavs	r2, {r0, r1, r3, r6, r8, r9, sl, fp, sp}^
 1b8:	8257039f 	subshi	r0, r7, #2080374786	; 0x7c000002
 1bc:	302d8489 	eorcc	r8, sp, r9, lsl #9
 1c0:	0008022d 	andeq	r0, r8, sp, lsr #4
 1c4:	00240101 	eoreq	r0, r4, r1, lsl #2
 1c8:	00020000 	andeq	r0, r2, r0
 1cc:	0000001e 	andeq	r0, r0, lr, lsl r0
 1d0:	0efb0102 	cdpeq	1, 15, cr0, cr11, cr2, {0}
 1d4:	0101000d 	tsteq	r1, sp
 1d8:	00000101 	andeq	r0, r0, r1, lsl #2
 1dc:	00000100 	andeq	r0, r0, r0, lsl #2
 1e0:	74630001 	strbtvc	r0, [r3], #-1
 1e4:	2e657079 	mcrcs	0, 3, r7, cr5, cr9, {3}
 1e8:	00000063 	andeq	r0, r0, r3, rrx
 1ec:	01b40000 			; <UNDEFINED> instruction: 0x01b40000
 1f0:	00020000 	andeq	r0, r2, r0
 1f4:	000000d6 	ldrdeq	r0, [r0], -r6
 1f8:	0efb0102 	cdpeq	1, 15, cr0, cr11, cr2, {0}
 1fc:	0101000d 	tsteq	r1, sp
 200:	00000101 	andeq	r0, r0, r1, lsl #2
 204:	00000100 	andeq	r0, r0, r0, lsl #2
 208:	6f682f01 	svcvs	0x00682f01
 20c:	6c2f656d 	cfstr32vs	mvfx6, [pc], #-436	; 60 <_back_addr-0x160ffa0>
 210:	7369756f 	cmnvc	r9, #465567744	; 0x1bc00000
 214:	3932312f 	ldmdbcc	r2!, {r0, r1, r2, r3, r5, r8, ip, sp}
 218:	6f622f35 	svcvs	0x00622f35
 21c:	6f63746f 	svcvs	0x0063746f
 220:	752f6564 	strvc	r6, [pc, #-1380]!	; fffffcc4 <__bss_end__+0xfe9dd104>
 224:	746f6f62 	strbtvc	r6, [pc], #-3938	; 22c <_back_addr-0x160fdd4>
 228:	6178652f 	cmnvs	r8, pc, lsr #10
 22c:	656c706d 	strbvs	r7, [ip, #-109]!	; 0x6d
 230:	66652f73 	uqsub16vs	r2, r5, r3
 234:	5f657375 	svcpl	0x00657375
 238:	69726576 	ldmdbvs	r2!, {r1, r2, r4, r5, r6, r8, sl, sp, lr}^
 23c:	692f7966 	stmdbvs	pc!, {r1, r2, r5, r6, r8, fp, ip, sp, lr}	; <UNPREDICTABLE>
 240:	756c636e 	strbvc	r6, [ip, #-878]!	; 0x36e
 244:	2f006564 	svccs	0x00006564
 248:	656d6f68 	strbvs	r6, [sp, #-3944]!	; 0xf68
 24c:	756f6c2f 	strbvc	r6, [pc, #-3119]!	; fffff625 <__bss_end__+0xfe9dca65>
 250:	312f7369 	teqcc	pc, r9, ror #6
 254:	2f353932 	svccs	0x00353932
 258:	746f6f62 	strbtvc	r6, [pc], #-3938	; 260 <_back_addr-0x160fda0>
 25c:	65646f63 	strbvs	r6, [r4, #-3939]!	; 0xf63
 260:	6f62752f 	svcvs	0x0062752f
 264:	652f746f 	strvs	r7, [pc, #-1135]!	; fffffdfd <__bss_end__+0xfe9dd23d>
 268:	706d6178 	rsbvc	r6, sp, r8, ror r1
 26c:	2f73656c 	svccs	0x0073656c
 270:	73756665 	cmnvc	r5, #105906176	; 0x6500000
 274:	65765f65 	ldrbvs	r5, [r6, #-3941]!	; 0xf65
 278:	79666972 	stmdbvc	r6!, {r1, r4, r5, r6, r8, fp, sp, lr}^
 27c:	636e692f 	cmnvs	lr, #770048	; 0xbc000
 280:	6564756c 	strbvs	r7, [r4, #-1388]!	; 0x56c
 284:	7276642f 	rsbsvc	r6, r6, #788529152	; 0x2f000000
 288:	746f6f62 	strbtvc	r6, [pc], #-3938	; 290 <_back_addr-0x160fd70>
 28c:	636e695f 	cmnvs	lr, #1556480	; 0x17c000
 290:	65760000 	ldrbvs	r0, [r6, #-0]!
 294:	79666972 	stmdbvc	r6!, {r1, r4, r5, r6, r8, fp, sp, lr}^
 298:	6e69616d 	powvsez	f6, f1, #5.0
 29c:	0000632e 	andeq	r6, r0, lr, lsr #6
 2a0:	79730000 	ldmdbvc	r3!, {}^	; <UNPREDICTABLE>
 2a4:	66656473 			; <UNDEFINED> instruction: 0x66656473
 2a8:	00682e73 	rsbeq	r2, r8, r3, ror lr
 2ac:	63000001 	movwvs	r0, #1
 2b0:	65707974 	ldrbvs	r7, [r0, #-2420]!	; 0x974
 2b4:	0200682e 	andeq	r6, r0, #3014656	; 0x2e0000
 2b8:	636d0000 	cmnvs	sp, #0
 2bc:	00682e70 	rsbeq	r2, r8, r0, ror lr
 2c0:	75000000 	strvc	r0, [r0, #-0]
 2c4:	2e6c6974 	mcrcs	9, 3, r6, cr12, cr4, {3}
 2c8:	00020068 	andeq	r0, r2, r8, rrx
 2cc:	05000000 	streq	r0, [r0, #-0]
 2d0:	6102d002 	tstvs	r2, r2
 2d4:	00fb0301 	rscseq	r0, fp, r1, lsl #6
 2d8:	304d1401 	subcc	r1, sp, r1, lsl #8
 2dc:	49831668 	stmibmi	r3, {r3, r5, r6, r9, sl, ip}
 2e0:	2e09034e 	cdpcs	3, 0, cr0, cr9, cr14, {2}
 2e4:	4fd14b16 	svcmi	0x00d14b16
 2e8:	02040200 	andeq	r0, r4, #0, 4
 2ec:	322a8681 	eorcc	r8, sl, #135266304	; 0x8100000
 2f0:	35463232 	strbcc	r3, [r6, #-562]	; 0x232
 2f4:	032f3163 	teqeq	pc, #-1073741800	; 0xc0000018
 2f8:	4a036636 	bmi	d9bd8 <_back_addr-0x1536428>
 2fc:	2e13032e 	cdpcs	3, 1, cr0, cr3, cr14, {1}
 300:	034a0c03 	movteq	r0, #44035	; 0xac03
 304:	0c032e74 	stceq	14, cr2, [r3], {116}	; 0x74
 308:	2e0a032e 	cdpcs	3, 0, cr0, cr10, cr14, {1}
 30c:	032e6a03 	teqeq	lr, #12288	; 0x3000
 310:	0b039e0c 	bleq	e7b48 <_back_addr-0x15284b8>
 314:	2e75032e 	cdpcs	3, 7, cr0, cr5, cr14, {1}
 318:	03660c03 	cmneq	r6, #768	; 0x300
 31c:	1b032e74 	blne	cbcf4 <_back_addr-0x154430c>
 320:	6670032e 	ldrbtvs	r0, [r0], -lr, lsr #6
 324:	79033630 	stmdbvc	r3, {r4, r5, r9, sl, ip, sp}
 328:	2c312c2e 	ldccs	12, cr2, [r1], #-184	; 0xffffff48
 32c:	2c2f302f 	stccs	0, cr3, [pc], #-188	; 278 <_back_addr-0x160fd88>
 330:	2c2f302f 	stccs	0, cr3, [pc], #-188	; 27c <_back_addr-0x160fd84>
 334:	2b30302f 	blcs	c0c3f8 <_back_addr-0xa03c08>
 338:	332a3031 	teqcc	sl, #49	; 0x31
 33c:	032c2f2d 	teqeq	ip, #45, 30	; 0xb4
 340:	11032e73 	tstne	r3, r3, ror lr
 344:	03842f2e 	orreq	r2, r4, #46, 30	; 0xb8
 348:	676d660e 	strbvs	r6, [sp, -lr, lsl #12]!
 34c:	67833067 	strvs	r3, [r3, r7, rrx]
 350:	c003bb6a 	andgt	fp, r3, sl, ror #22
 354:	6767667e 			; <UNDEFINED> instruction: 0x6767667e
 358:	2fb94b67 	svccs	0x00b94b67
 35c:	4b6b674b 	blmi	1ada090 <__bss_end__+0x4b74d0>
 360:	4b502f2d 	blmi	140c01c <_back_addr-0x203fe4>
 364:	2e7a0334 	mrccs	3, 3, r0, cr10, cr4, {1}
 368:	672e0d03 	strvs	r0, [lr, -r3, lsl #26]!
 36c:	01a6039f 			; <UNDEFINED> instruction: 0x01a6039f
 370:	7ee20366 	cdpvc	3, 14, cr0, cr2, cr6, {3}
 374:	01a1032e 			; <UNDEFINED> instruction: 0x01a1032e
 378:	7f89039e 	svcvc	0x0089039e
 37c:	4b1f082e 	blmi	7c243c <_back_addr-0xe4dbc4>
 380:	82018303 	andhi	r8, r1, #201326592	; 0xc000000
 384:	70033568 	andvc	r3, r3, r8, ror #10
 388:	0e03684a 	cdpeq	8, 0, cr6, cr3, cr10, {2}
 38c:	4b014f2e 	blmi	5404c <_back_addr-0x15bbfb4>
 390:	16662303 	strbtne	r2, [r6], -r3, lsl #6
 394:	322a3246 	eorcc	r3, sl, #1610612740	; 0x60000004
 398:	4c4b2f2f 	mcrrmi	15, 2, r2, fp, cr15
 39c:	322a3230 	eorcc	r3, sl, #48, 4
 3a0:	0004024c 	andeq	r0, r4, ip, asr #4
 3a4:	01bd0101 			; <UNDEFINED> instruction: 0x01bd0101
 3a8:	00020000 	andeq	r0, r2, r0
 3ac:	000000cc 	andeq	r0, r0, ip, asr #1
 3b0:	0efb0102 	cdpeq	1, 15, cr0, cr11, cr2, {0}
 3b4:	0101000d 	tsteq	r1, sp
 3b8:	00000101 	andeq	r0, r0, r1, lsl #2
 3bc:	00000100 	andeq	r0, r0, r0, lsl #2
 3c0:	6f682f01 	svcvs	0x00682f01
 3c4:	6c2f656d 	cfstr32vs	mvfx6, [pc], #-436	; 218 <_back_addr-0x160fde8>
 3c8:	7369756f 	cmnvc	r9, #465567744	; 0x1bc00000
 3cc:	3932312f 	ldmdbcc	r2!, {r0, r1, r2, r3, r5, r8, ip, sp}
 3d0:	6f622f35 	svcvs	0x00622f35
 3d4:	6f63746f 	svcvs	0x0063746f
 3d8:	752f6564 	strvc	r6, [pc, #-1380]!	; fffffe7c <__bss_end__+0xfe9dd2bc>
 3dc:	746f6f62 	strbtvc	r6, [pc], #-3938	; 3e4 <_back_addr-0x160fc1c>
 3e0:	6178652f 	cmnvs	r8, pc, lsr #10
 3e4:	656c706d 	strbvs	r7, [ip, #-109]!	; 0x6d
 3e8:	66652f73 	uqsub16vs	r2, r5, r3
 3ec:	5f657375 	svcpl	0x00657375
 3f0:	69726576 	ldmdbvs	r2!, {r1, r2, r4, r5, r6, r8, sl, sp, lr}^
 3f4:	2e2f7966 	cdpcs	9, 2, cr7, cr15, cr6, {3}
 3f8:	2e2e2f2e 	cdpcs	15, 2, cr2, cr14, cr14, {1}
 3fc:	636e692f 	cmnvs	lr, #770048	; 0xbc000
 400:	6564756c 	strbvs	r7, [r4, #-1388]!	; 0x56c
 404:	6d73612f 	ldfvse	f6, [r3, #-188]!	; 0xffffff44
 408:	6f682f00 	svcvs	0x00682f00
 40c:	6c2f656d 	cfstr32vs	mvfx6, [pc], #-436	; 260 <_back_addr-0x160fda0>
 410:	7369756f 	cmnvc	r9, #465567744	; 0x1bc00000
 414:	3932312f 	ldmdbcc	r2!, {r0, r1, r2, r3, r5, r8, ip, sp}
 418:	6f622f35 	svcvs	0x00622f35
 41c:	6f63746f 	svcvs	0x0063746f
 420:	752f6564 	strvc	r6, [pc, #-1380]!	; fffffec4 <__bss_end__+0xfe9dd304>
 424:	746f6f62 	strbtvc	r6, [pc], #-3938	; 42c <_back_addr-0x160fbd4>
 428:	6178652f 	cmnvs	r8, pc, lsr #10
 42c:	656c706d 	strbvs	r7, [ip, #-109]!	; 0x6d
 430:	66652f73 	uqsub16vs	r2, r5, r3
 434:	5f657375 	svcpl	0x00657375
 438:	69726576 	ldmdbvs	r2!, {r1, r2, r4, r5, r6, r8, sl, sp, lr}^
 43c:	2e2f7966 	cdpcs	9, 2, cr7, cr15, cr6, {3}
 440:	2e2e2f2e 	cdpcs	15, 2, cr2, cr14, cr14, {1}
 444:	636e692f 	cmnvs	lr, #770048	; 0xbc000
 448:	6564756c 	strbvs	r7, [r4, #-1388]!	; 0x56c
 44c:	61630000 	cmnvs	r3, r0
 450:	5f656863 	svcpl	0x00656863
 454:	632e3776 	teqvs	lr, #30932992	; 0x1d80000
 458:	00000000 	andeq	r0, r0, r0
 45c:	6c697475 	cfstrdvs	mvd7, [r9], #-468	; 0xfffffe2c
 460:	00682e73 	rsbeq	r2, r8, r3, ror lr
 464:	74000001 	strvc	r0, [r0], #-1
 468:	73657079 	cmnvc	r5, #121	; 0x79
 46c:	0100682e 	tsteq	r0, lr, lsr #16
 470:	656e0000 	strbvs	r0, [lr, #-0]!
 474:	00682e74 	rsbeq	r2, r8, r4, ror lr
 478:	00000002 	andeq	r0, r0, r2
 47c:	98020500 	stmdals	r2, {r8, sl}
 480:	03016106 	movweq	r6, #4358	; 0x1106
 484:	03010196 	movweq	r0, #4502	; 0x1196
 488:	032e7fa5 	teqeq	lr, #660	; 0x294
 48c:	322e00dc 	eorcc	r0, lr, #220	; 0xdc
 490:	02040200 	andeq	r0, r4, #0, 4
 494:	04020050 	streq	r0, [r2], #-80	; 0x50
 498:	2e7a0302 	cdpcs	3, 7, cr0, cr10, cr2, {0}
 49c:	032d4c67 	teqeq	sp, #26368	; 0x6700
 4a0:	314a7f8a 	smlalbbcc	r7, sl, sl, pc	; <UNPREDICTABLE>
 4a4:	00cf0336 	sbceq	r0, pc, r6, lsr r3	; <UNPREDICTABLE>
 4a8:	2c33292e 	ldccs	9, cr2, [r3], #-184	; 0xffffff48
 4ac:	9e030204 	cdpls	2, 0, cr0, cr3, cr4, {0}
 4b0:	01042e7f 	tsteq	r4, pc, ror lr
 4b4:	2e00e603 	cfmadd32cs	mvax0, mvfx14, mvfx0, mvfx3
 4b8:	99030204 	stmdbls	r3, {r2, r9}
 4bc:	2f312e7f 	svccs	0x00312e7f
 4c0:	042f332d 	strteq	r3, [pc], #-813	; 4c8 <_back_addr-0x160fb38>
 4c4:	00e70301 	rsceq	r0, r7, r1, lsl #6
 4c8:	312f2d2e 	teqcc	pc, lr, lsr #26
 4cc:	2f665403 	svccs	0x00665403
 4d0:	2e790334 	mrccs	3, 3, r0, cr9, cr4, {1}
 4d4:	4a0d0349 	bmi	341200 <_back_addr-0x12cee00>
 4d8:	032e3203 	teqeq	lr, #805306368	; 0x30000000
 4dc:	036e2e7a 	cmneq	lr, #1952	; 0x7a0
 4e0:	672e7fa7 	strvs	r7, [lr, -r7, lsr #31]!
 4e4:	032a312f 	teqeq	sl, #-1073741813	; 0xc000000b
 4e8:	17660285 	strbne	r0, [r6, -r5, lsl #5]!
 4ec:	0331314d 	teqeq	r1, #1073741843	; 0x40000013
 4f0:	34344a0c 	ldrtcc	r4, [r4], #-2572	; 0xa0c
 4f4:	2e7f9003 	cdpcs	0, 7, cr9, cr15, cr3, {0}
 4f8:	2d4d2f01 	stclcs	15, cr2, [sp, #-4]
 4fc:	2e00f303 	cdpcs	3, 0, cr15, cr0, cr3, {0}
 500:	2e7eff03 	cdpcs	15, 7, cr15, cr14, cr3, {0}
 504:	2d4d2f01 	stclcs	15, cr2, [sp, #-4]
 508:	2f2e2703 	svccs	0x002e2703
 50c:	4c2e5603 	stcmi	6, cr5, [lr], #-12
 510:	4c2e7103 	stfmis	f7, [lr], #-12
 514:	03303030 	teqeq	r0, #48	; 0x30
 518:	034a018b 	movteq	r0, #41355	; 0xa18b
 51c:	032e7f9c 	teqeq	lr, #156, 30	; 0x270
 520:	03017e94 	movweq	r7, #7828	; 0x1e94
 524:	332e01a5 	teqcc	lr, #1073741865	; 0x40000029
 528:	4f03302c 	svcmi	0x0003302c
 52c:	2c4c4b2e 	mcrrcs	11, 2, r4, ip, cr14
 530:	03663c03 	cmneq	r6, #768	; 0x300
 534:	0f032e39 	svceq	0x00032e39
 538:	d703132e 	strle	r1, [r3, -lr, lsr #6]
 53c:	89034a00 	stmdbhi	r3, {r9, fp, lr}
 540:	03012e7f 	movweq	r2, #7807	; 0x1e7f
 544:	032e7ea1 	teqeq	lr, #2576	; 0xa10
 548:	332e01a5 	teqcc	lr, #1073741865	; 0x40000029
 54c:	5e03302c 	cdppl	0, 0, cr3, cr3, cr12, {1}
 550:	32466a2e 	subcc	r6, r6, #188416	; 0x2e000
 554:	322a3235 	eorcc	r3, sl, #1342177283	; 0x50000003
 558:	032c4c31 	teqeq	ip, #12544	; 0x3100
 55c:	2e03661c 	mcrcs	6, 0, r6, cr3, cr12, {0}
 560:	02022d2e 	andeq	r2, r2, #2944	; 0xb80
 564:	a0010100 	andge	r0, r1, r0, lsl #2
 568:	02000004 	andeq	r0, r0, #4
 56c:	00015400 	andeq	r5, r1, r0, lsl #8
 570:	fb010200 	blx	40d7a <_back_addr-0x15cf286>
 574:	01000d0e 	tsteq	r0, lr, lsl #26
 578:	00010101 	andeq	r0, r1, r1, lsl #2
 57c:	00010000 	andeq	r0, r1, r0
 580:	6e690100 	powvse	f0, f1, f0
 584:	64756c63 	ldrbtvs	r6, [r5], #-3171	; 0xc63
 588:	76642f65 	strbtvc	r2, [r4], -r5, ror #30
 58c:	6f6f6272 	svcvs	0x006f6272
 590:	6e695f74 	mcrvs	15, 3, r5, cr9, cr4, {3}
 594:	682f0063 	stmdavs	pc!, {r0, r1, r5, r6}	; <UNPREDICTABLE>
 598:	2f656d6f 	svccs	0x00656d6f
 59c:	69756f6c 	ldmdbvs	r5!, {r2, r3, r5, r6, r8, r9, sl, fp, sp, lr}^
 5a0:	32312f73 	eorscc	r2, r1, #460	; 0x1cc
 5a4:	622f3539 	eorvs	r3, pc, #239075328	; 0xe400000
 5a8:	63746f6f 	cmnvs	r4, #444	; 0x1bc
 5ac:	2f65646f 	svccs	0x0065646f
 5b0:	6f6f6275 	svcvs	0x006f6275
 5b4:	78652f74 	stmdavc	r5!, {r2, r4, r5, r6, r8, r9, sl, fp, sp}^
 5b8:	6c706d61 	ldclvs	13, cr6, [r0], #-388	; 0xfffffe7c
 5bc:	652f7365 	strvs	r7, [pc, #-869]!	; 25f <_back_addr-0x160fda1>
 5c0:	65737566 	ldrbvs	r7, [r3, #-1382]!	; 0x566
 5c4:	7265765f 	rsbvc	r7, r5, #99614720	; 0x5f00000
 5c8:	2f796669 	svccs	0x00796669
 5cc:	2e2f2e2e 	cdpcs	14, 2, cr2, cr15, cr14, {1}
 5d0:	6e692f2e 	cdpvs	15, 6, cr2, cr9, cr14, {1}
 5d4:	64756c63 	ldrbtvs	r6, [r5], #-3171	; 0xc63
 5d8:	73612f65 	cmnvc	r1, #404	; 0x194
 5dc:	682f006d 	stmdavs	pc!, {r0, r2, r3, r5, r6}	; <UNPREDICTABLE>
 5e0:	2f656d6f 	svccs	0x00656d6f
 5e4:	69756f6c 	ldmdbvs	r5!, {r2, r3, r5, r6, r8, r9, sl, fp, sp, lr}^
 5e8:	32312f73 	eorscc	r2, r1, #460	; 0x1cc
 5ec:	622f3539 	eorvs	r3, pc, #239075328	; 0xe400000
 5f0:	63746f6f 	cmnvs	r4, #444	; 0x1bc
 5f4:	2f65646f 	svccs	0x0065646f
 5f8:	6f6f6275 	svcvs	0x006f6275
 5fc:	78652f74 	stmdavc	r5!, {r2, r4, r5, r6, r8, r9, sl, fp, sp}^
 600:	6c706d61 	ldclvs	13, cr6, [r0], #-388	; 0xfffffe7c
 604:	652f7365 	strvs	r7, [pc, #-869]!	; 2a7 <_back_addr-0x160fd59>
 608:	65737566 	ldrbvs	r7, [r3, #-1382]!	; 0x566
 60c:	7265765f 	rsbvc	r7, r5, #99614720	; 0x5f00000
 610:	2f796669 	svccs	0x00796669
 614:	2e2f2e2e 	cdpcs	14, 2, cr2, cr15, cr14, {1}
 618:	6e692f2e 	cdpvs	15, 6, cr2, cr9, cr14, {1}
 61c:	64756c63 	ldrbtvs	r6, [r5], #-3171	; 0xc63
 620:	696c2f65 	stmdbvs	ip!, {r0, r2, r5, r6, r8, r9, sl, fp, sp}^
 624:	0078756e 	rsbseq	r7, r8, lr, ror #10
 628:	6d6f682f 	stclvs	8, cr6, [pc, #-188]!	; 574 <_back_addr-0x160fa8c>
 62c:	6f6c2f65 	svcvs	0x006c2f65
 630:	2f736975 	svccs	0x00736975
 634:	35393231 	ldrcc	r3, [r9, #-561]!	; 0x231
 638:	6f6f622f 	svcvs	0x006f622f
 63c:	646f6374 	strbtvs	r6, [pc], #-884	; 644 <_back_addr-0x160f9bc>
 640:	62752f65 	rsbsvs	r2, r5, #404	; 0x194
 644:	2f746f6f 	svccs	0x00746f6f
 648:	6d617865 	stclvs	8, cr7, [r1, #-404]!	; 0xfffffe6c
 64c:	73656c70 	cmnvc	r5, #112, 24	; 0x7000
 650:	7566652f 	strbvc	r6, [r6, #-1327]!	; 0x52f
 654:	765f6573 			; <UNDEFINED> instruction: 0x765f6573
 658:	66697265 	strbtvs	r7, [r9], -r5, ror #4
 65c:	2e2e2f79 	mcrcs	15, 1, r2, cr14, cr9, {3}
 660:	2f2e2e2f 	svccs	0x002e2e2f
 664:	6c636e69 	stclvs	14, cr6, [r3], #-420	; 0xfffffe5c
 668:	00656475 	rsbeq	r6, r5, r5, ror r4
 66c:	70636d00 	rsbvc	r6, r3, r0, lsl #26
 670:	0000632e 	andeq	r6, r0, lr, lsr #6
 674:	6f690000 	svcvs	0x00690000
 678:	0100682e 	tsteq	r0, lr, lsr #16
 67c:	6f700000 	svcvs	0x00700000
 680:	5f786973 	svcpl	0x00786973
 684:	65707974 	ldrbvs	r7, [r0, #-2420]!	; 0x974
 688:	00682e73 	rsbeq	r2, r8, r3, ror lr
 68c:	74000002 	strvc	r0, [r0], #-2
 690:	73657079 	cmnvc	r5, #121	; 0x79
 694:	0300682e 	movweq	r6, #2094	; 0x82e
 698:	636d0000 	cmnvs	sp, #0
 69c:	00682e70 	rsbeq	r2, r8, r0, ror lr
 6a0:	6e000000 	cdpvs	0, 0, cr0, cr0, cr0, {0}
 6a4:	682e7465 	stmdavs	lr!, {r0, r2, r5, r6, sl, ip, sp, lr}
 6a8:	00000400 	andeq	r0, r0, r0, lsl #8
 6ac:	69727473 	ldmdbvs	r2!, {r0, r1, r4, r5, r6, sl, ip, sp, lr}^
 6b0:	682e676e 	stmdavs	lr!, {r1, r2, r3, r5, r6, r8, r9, sl, sp, lr}
 6b4:	00000300 	andeq	r0, r0, r0, lsl #6
 6b8:	6d6d6f63 	stclvs	15, cr6, [sp, #-396]!	; 0xfffffe74
 6bc:	682e6e6f 	stmdavs	lr!, {r0, r1, r2, r3, r5, r6, r9, sl, fp, sp, lr}
 6c0:	00000400 	andeq	r0, r0, r0, lsl #8
 6c4:	02050000 	andeq	r0, r5, #0
 6c8:	016108b0 	strheq	r0, [r1, #-128]!	; 0xffffff80
 6cc:	0105a603 	tsteq	r5, r3, lsl #12
 6d0:	082e0b03 	stmdaeq	lr!, {r0, r1, r8, r9, fp}
 6d4:	3064305a 	rsbcc	r3, r4, sl, asr r0
 6d8:	0d03834e 	stceq	3, cr8, [r3, #-312]	; 0xfffffec8
 6dc:	2e73032e 	cdpcs	3, 7, cr0, cr3, cr14, {1}
 6e0:	034a0d03 	movteq	r0, #44291	; 0xad03
 6e4:	02042e0f 	andeq	r2, r4, #15, 28	; 0xf0
 6e8:	017b8f03 	cmneq	fp, r3, lsl #30
 6ec:	03666503 	cmneq	r6, #12582912	; 0xc00000
 6f0:	65032e1b 	strvs	r2, [r3, #-3611]	; 0xe1b
 6f4:	0301044a 	movweq	r0, #5194	; 0x144a
 6f8:	002e0591 	mlaeq	lr, r1, r5, r0
 6fc:	49020402 	stmdbmi	r2, {r1, sl}
 700:	a5032f52 	strge	r2, [r3, #-3922]	; 0xf52
 704:	03192e7e 	tsteq	r9, #2016	; 0x7e0
 708:	02044a79 	andeq	r4, r4, #495616	; 0x79000
 70c:	2e7cdd03 	cdpcs	13, 7, cr13, cr12, cr3, {0}
 710:	b8030104 	stmdalt	r3, {r2, r8}
 714:	02046603 	andeq	r6, r4, #3145728	; 0x300000
 718:	2e7cc803 	cdpcs	8, 7, cr12, cr12, cr3, {0}
 71c:	ba030104 	blt	c0b34 <_back_addr-0x154f4cc>
 720:	02046603 	andeq	r6, r4, #3145728	; 0x300000
 724:	2e7cc603 	cdpcs	6, 7, cr12, cr12, cr3, {0}
 728:	bc030104 	stflts	f0, [r3], {4}
 72c:	02042e03 	andeq	r2, r4, #3, 28	; 0x30
 730:	2e7cc403 	cdpcs	4, 7, cr12, cr12, cr3, {0}
 734:	bc030104 	stflts	f0, [r3], {4}
 738:	cf039e03 	svcgt	0x00039e03
 73c:	042f2e00 	strteq	r2, [pc], #-3584	; 744 <_back_addr-0x160f8bc>
 740:	7bf40302 	blvc	ffd01350 <__bss_end__+0xfe6de790>
 744:	0301042e 	movweq	r0, #5166	; 0x142e
 748:	044a0490 	strbeq	r0, [sl], #-1168	; 0x490
 74c:	7bd50302 	blvc	ff54135c <__bss_end__+0xfdf1e79c>
 750:	0301042e 	movweq	r0, #5166	; 0x142e
 754:	a02e04ad 	eorge	r0, lr, sp, lsr #9
 758:	4b4a0e03 	blmi	1283f6c <_back_addr-0x38c094>
 75c:	c2030204 	andgt	r0, r3, #4, 4	; 0x40000000
 760:	01042e7b 	tsteq	r4, fp, ror lr
 764:	6604ad03 	strvs	sl, [r4], -r3, lsl #26
 768:	d3030204 	movwle	r0, #12804	; 0x3204
 76c:	01044a7b 	tsteq	r4, fp, ror sl
 770:	6604cb03 	strvs	ip, [r4], -r3, lsl #22
 774:	02042d2f 	andeq	r2, r4, #3008	; 0xbc0
 778:	2e7bd003 	cdpcs	0, 7, cr13, cr11, cr3, {0}
 77c:	04d66503 	ldrbeq	r6, [r6], #1283	; 0x503
 780:	04d00301 	ldrbeq	r0, [r0], #769	; 0x301
 784:	0302042e 	movweq	r0, #9262	; 0x242e
 788:	04827bcb 	streq	r7, [r2], #3019	; 0xbcb
 78c:	04a00301 	strteq	r0, [r0], #769	; 0x301
 790:	03020466 	movweq	r0, #9318	; 0x2466
 794:	042e7be0 	strteq	r7, [lr], #-3040	; 0xbe0
 798:	03ab0301 			; <UNDEFINED> instruction: 0x03ab0301
 79c:	7cb7034a 	ldcvc	3, cr0, [r7], #296	; 0x128
 7a0:	044d1a4a 	strbeq	r1, [sp], #-2634	; 0xa4a
 7a4:	4a730302 	bmi	1cc13b4 <__bss_end__+0x69e7f4>
 7a8:	0d030104 	stfeqs	f0, [r3, #-16]
 7ac:	0204664a 	andeq	r6, r4, #77594624	; 0x4a00000
 7b0:	03040200 	movweq	r0, #16896	; 0x4200
 7b4:	4d4a7303 	stclmi	3, cr7, [sl, #-12]
 7b8:	0d030104 	stfeqs	f0, [r3, #-16]
 7bc:	042d2f66 	strteq	r2, [sp], #-3942	; 0xf66
 7c0:	2e700302 	cdpcs	3, 7, cr0, cr0, cr2, {0}
 7c4:	2e180385 	cdpcs	3, 1, cr0, cr8, cr5, {4}
 7c8:	2e620369 	cdpcs	3, 6, cr0, cr2, cr9, {3}
 7cc:	2e180369 	cdpcs	3, 1, cr0, cr8, cr9, {3}
 7d0:	4a620385 	bmi	18815ec <__bss_end__+0x25ea2c>
 7d4:	2e180369 	cdpcs	3, 1, cr0, cr8, cr9, {3}
 7d8:	4a620385 	bmi	18815f4 <__bss_end__+0x25ea34>
 7dc:	2e180369 	cdpcs	3, 1, cr0, cr8, cr9, {3}
 7e0:	01044785 	smlabbeq	r4, r5, r7, r4
 7e4:	33020429 	movwcc	r0, #9257	; 0x2429
 7e8:	01042b31 	tsteq	r4, r1, lsr fp
 7ec:	3202042a 	andcc	r0, r2, #704643072	; 0x2a000000
 7f0:	01042b31 	tsteq	r4, r1, lsr fp
 7f4:	3102042b 	tstcc	r2, fp, lsr #8
 7f8:	01042b31 	tsteq	r4, r1, lsr fp
 7fc:	3002042c 	andcc	r0, r2, ip, lsr #8
 800:	042f0104 	strteq	r0, [pc], #-260	; 808 <_back_addr-0x160f7f8>
 804:	01043002 	tsteq	r4, r2
 808:	0302042c 	movweq	r0, #9260	; 0x242c
 80c:	2b319e66 	blcs	c681ac <_back_addr-0x9a7e54>
 810:	694a1b03 	stmdbvs	sl, {r0, r1, r8, r9, fp, ip}^
 814:	2d01042b 	cfstrscs	mvf0, [r1, #-172]	; 0xffffff54
 818:	69670204 	stmdbvs	r7!, {r2, r9}^
 81c:	a12ba12b 	teqge	fp, fp, lsr #2
 820:	032ba12b 	teqeq	fp, #-1073741814	; 0xc000000a
 824:	2b694a65 	blcs	1a531c0 <__bss_end__+0x430600>
 828:	694a1b03 	stmdbvs	sl, {r0, r1, r8, r9, fp, ip}^
 82c:	4a65032b 	bmi	19414e0 <__bss_end__+0x31e920>
 830:	1b032b69 	blne	cb5dc <_back_addr-0x1544a24>
 834:	032b694a 	teqeq	fp, #1212416	; 0x128000
 838:	2b694a65 	blcs	1a531d4 <__bss_end__+0x430614>
 83c:	694a1b03 	stmdbvs	sl, {r0, r1, r8, r9, fp, ip}^
 840:	4a65032b 	bmi	19414f4 <__bss_end__+0x31e934>
 844:	01042b69 	tsteq	r4, r9, ror #22
 848:	2e4a1d03 	cdpcs	13, 4, cr1, cr10, cr3, {0}
 84c:	514d2f85 	smlalbbpl	r2, sp, r5, pc	; <UNPREDICTABLE>
 850:	4b4b4b4b 	blmi	12d3584 <_back_addr-0x33ca7c>
 854:	2f2c314c 	svccs	0x002c314c
 858:	71032d30 	tstvc	r3, r0, lsr sp
 85c:	7a03692e 	bvc	dad1c <_back_addr-0x15352e4>
 860:	0f034e66 	svceq	0x00034e66
 864:	852e312e 	strhi	r3, [lr, #-302]!	; 0x12e
 868:	4b514d2f 	blmi	1453d2c <_back_addr-0x1bc2d4>
 86c:	4c4b4b4b 	mcrrmi	11, 4, r4, fp, cr11
 870:	302f2c31 	eorcc	r2, pc, r1, lsr ip	; <UNPREDICTABLE>
 874:	2e71032d 	cdpcs	3, 7, cr0, cr1, cr13, {1}
 878:	667a0369 	ldrbtvs	r0, [sl], -r9, ror #6
 87c:	2e0f034e 	cdpcs	3, 0, cr0, cr15, cr14, {2}
 880:	2f852e31 	svccs	0x00852e31
 884:	4b4b524d 	blmi	12d51c0 <_back_addr-0x33ae40>
 888:	314c4b4b 	cmpcc	ip, fp, asr #22
 88c:	2d302f2c 	ldccs	15, cr2, [r0, #-176]!	; 0xffffff50
 890:	692e7103 	stmdbvs	lr!, {r0, r1, r8, ip, sp, lr}
 894:	4f827903 	svcmi	0x00827903
 898:	322e0f03 	eorcc	r0, lr, #3, 30
 89c:	4f2f862e 	svcmi	0x002f862e
 8a0:	4b4a0903 	blmi	1282cb4 <_back_addr-0x38d34c>
 8a4:	504b4b4b 	subpl	r4, fp, fp, asr #22
 8a8:	2f2f2c31 	svccs	0x002f2c31
 8ac:	6609032f 	strvs	r0, [r9], -pc, lsr #6
 8b0:	032e7903 	teqeq	lr, #49152	; 0xc000
 8b4:	454f9e68 	strbmi	r9, [pc, #-3688]	; fffffa54 <__bss_end__+0xfe9dce94>
 8b8:	7903f32f 	stmdbvc	r3, {r0, r1, r2, r3, r5, r8, r9, ip, sp, lr, pc}
 8bc:	2603f34a 	strcs	pc, [r3], -sl, asr #6
 8c0:	2f692e4a 	svccs	0x00692e4a
 8c4:	2a4a0903 	bcs	1282cd8 <_back_addr-0x38d328>
 8c8:	2a6b2a6b 	bcs	1acb27c <__bss_end__+0x4a86bc>
 8cc:	03623263 	cmneq	r2, #805306374	; 0x30000006
 8d0:	2f2d2e09 	svccs	0x002d2e09
 8d4:	0369174e 	cmneq	r9, #20447232	; 0x1380000
 8d8:	696e4a78 	stmdbvs	lr!, {r3, r4, r5, r6, r9, fp, lr}^
 8dc:	494b4f2f 	stmdbmi	fp, {r0, r1, r2, r3, r5, r8, r9, sl, fp, lr}^
 8e0:	322c6530 	eorcc	r6, ip, #48, 10	; 0xc000000
 8e4:	032a2c4c 	teqeq	sl, #76, 24	; 0x4c00
 8e8:	09032e09 	stmdbeq	r3, {r0, r3, r9, sl, fp, sp}
 8ec:	03b4032e 			; <UNDEFINED> instruction: 0x03b4032e
 8f0:	7ccf034a 	stclvc	3, cr0, [pc], {74}	; 0x4a
 8f4:	03b103ba 			; <UNDEFINED> instruction: 0x03b103ba
 8f8:	7ccf034a 	stclvc	3, cr0, [pc], {74}	; 0x4a
 8fc:	03b2034a 			; <UNDEFINED> instruction: 0x03b2034a
 900:	f321082e 	vsub.i32	d0, d1, d30
 904:	087cc203 	ldmdaeq	ip!, {r0, r1, r9, lr, pc}^
 908:	4d2f2d20 	stcmi	13, cr2, [pc, #-128]!	; 890 <_back_addr-0x160f770>
 90c:	2b2f312b 	blcs	bccdc0 <_back_addr-0xa43240>
 910:	660d0331 			; <UNDEFINED> instruction: 0x660d0331
 914:	032e5a03 	teqeq	lr, #12288	; 0x3000
 918:	15326626 	ldrne	r6, [r2, #-1574]!	; 0x626
 91c:	4f2fa463 	svcmi	0x002fa463
 920:	09034c2c 	stmdbeq	r3, {r2, r3, r5, sl, fp, lr}
 924:	4b4b4b2e 	blmi	12d35e4 <_back_addr-0x33ca1c>
 928:	2a334d4b 	bcs	cd3e5c <_back_addr-0x93c1a4>
 92c:	032d322f 	teqeq	sp, #-268435454	; 0xf0000002
 930:	494b2e6d 	stmdbmi	fp, {r0, r2, r3, r5, r6, r9, sl, fp, sp}^
 934:	67306530 			; <UNDEFINED> instruction: 0x67306530
 938:	85821003 	strhi	r1, [r2, #3]
 93c:	2e0a0382 	cdpcs	3, 0, cr0, cr10, cr2, {4}
 940:	0302042f 	movweq	r0, #9263	; 0x242f
 944:	042e7e8c 	strteq	r7, [lr], #-3724	; 0xe8c
 948:	02850301 	addeq	r0, r5, #67108864	; 0x4000000
 94c:	0302044a 	movweq	r0, #9290	; 0x244a
 950:	042e7dfb 	strteq	r7, [lr], #-3579	; 0xdfb
 954:	02850301 	addeq	r0, r5, #67108864	; 0x4000000
 958:	86a13182 	strthi	r3, [r1], r2, lsl #3
 95c:	492f4984 	stmdbmi	pc!, {r2, r7, r8, fp, lr}	; <UNPREDICTABLE>
 960:	04a22f4b 	strteq	r2, [r2], #3915	; 0xf4b
 964:	7dea0302 	stclvc	3, cr0, [sl, #8]!
 968:	03010482 	movweq	r0, #5250	; 0x1482
 96c:	044a0296 	strbeq	r0, [sl], #-662	; 0x296
 970:	7dea0302 	stclvc	3, cr0, [sl, #8]!
 974:	2e650366 	cdpcs	3, 6, cr0, cr5, cr6, {3}
 978:	ba030104 	blt	c0d90 <_back_addr-0x154f270>
 97c:	02042e02 	andeq	r2, r4, #2, 28
 980:	2e7de103 	expcse	f6, f3
 984:	042e6503 	strteq	r6, [lr], #-1283	; 0x503
 988:	02bb0301 	adcseq	r0, fp, #67108864	; 0x4000000
 98c:	044e852e 	strbeq	r8, [lr], #-1326	; 0x52e
 990:	7dbe0302 	ldcvc	3, cr0, [lr, #8]!
 994:	0301044a 	movweq	r0, #5194	; 0x144a
 998:	032e02bb 	teqeq	lr, #-1342177269	; 0xb000000b
 99c:	2d4b4a0a 	vstrcs	s9, [fp, #-40]	; 0xffffffd8
 9a0:	674b6767 	strbvs	r6, [fp, -r7, ror #14]
 9a4:	4a75032f 	bmi	1d41668 <__bss_end__+0x71eaa8>
 9a8:	2e0a0367 	cdpcs	3, 0, cr0, cr10, cr7, {3}
 9ac:	034a5703 	movteq	r5, #42755	; 0xa703
 9b0:	6715ba2b 	ldrvs	fp, [r5, -fp, lsr #20]
 9b4:	032e2303 	teqeq	lr, #201326592	; 0xc000000
 9b8:	2fa52e59 	svccs	0x00a52e59
 9bc:	034c2c50 	movteq	r2, #52304	; 0xcc50
 9c0:	4b4b2e0b 	blmi	12cc1f4 <_back_addr-0x343e0c>
 9c4:	4b4b4b4b 	blmi	12d36f8 <_back_addr-0x33c908>
 9c8:	2c314d4b 	ldccs	13, cr4, [r1], #-300	; 0xfffffed4
 9cc:	032d302f 	teqeq	sp, #47	; 0x2f
 9d0:	1e032e63 	cdpne	14, 0, cr2, cr3, cr3, {3}
 9d4:	2e68032e 	cdpcs	3, 6, cr0, cr8, cr14, {1}
 9d8:	6530494b 	ldrvs	r4, [r0, #-2379]!	; 0x94b
 9dc:	474d6531 	smlaldxmi	r6, sp, r1, r5
 9e0:	032f6730 	teqeq	pc, #48, 14	; 0xc00000
 9e4:	008202ba 			; <UNDEFINED> instruction: 0x008202ba
 9e8:	6c030402 	cfstrsvs	mvf0, [r3], {2}
 9ec:	03040200 	movweq	r0, #16896	; 0x4200
 9f0:	0402002d 	streq	r0, [r2], #-45	; 0x2d
 9f4:	02002d03 	andeq	r2, r0, #3, 26	; 0xc0
 9f8:	00300304 	eorseq	r0, r0, r4, lsl #6
 9fc:	2f030402 	svccs	0x00030402
 a00:	03040200 	movweq	r0, #16896	; 0x4200
 a04:	0202332b 	andeq	r3, r2, #-1409286144	; 0xac000000
 a08:	0f010100 	svceq	0x00010100
 a0c:	02000001 	andeq	r0, r0, #1
 a10:	00006900 	andeq	r6, r0, r0, lsl #18
 a14:	fb010200 	blx	4121e <_back_addr-0x15cede2>
 a18:	01000d0e 	tsteq	r0, lr, lsl #26
 a1c:	00010101 	andeq	r0, r1, r1, lsl #2
 a20:	00010000 	andeq	r0, r1, r0
 a24:	682f0100 	stmdavs	pc!, {r8}	; <UNPREDICTABLE>
 a28:	2f656d6f 	svccs	0x00656d6f
 a2c:	69756f6c 	ldmdbvs	r5!, {r2, r3, r5, r6, r8, r9, sl, fp, sp, lr}^
 a30:	32312f73 	eorscc	r2, r1, #460	; 0x1cc
 a34:	622f3539 	eorvs	r3, pc, #239075328	; 0xe400000
 a38:	63746f6f 	cmnvs	r4, #444	; 0x1bc
 a3c:	2f65646f 	svccs	0x0065646f
 a40:	6f6f6275 	svcvs	0x006f6275
 a44:	78652f74 	stmdavc	r5!, {r2, r4, r5, r6, r8, r9, sl, fp, sp}^
 a48:	6c706d61 	ldclvs	13, cr6, [r0], #-388	; 0xfffffe7c
 a4c:	652f7365 	strvs	r7, [pc, #-869]!	; 6ef <_back_addr-0x160f911>
 a50:	65737566 	ldrbvs	r7, [r3, #-1382]!	; 0x566
 a54:	7265765f 	rsbvc	r7, r5, #99614720	; 0x5f00000
 a58:	2f796669 	svccs	0x00796669
 a5c:	6c636e69 	stclvs	14, cr6, [r3], #-420	; 0xfffffe5c
 a60:	00656475 	rsbeq	r6, r5, r5, ror r4
 a64:	6d697400 	cfstrdvs	mvd7, [r9, #-0]
 a68:	632e7265 	teqvs	lr, #1342177286	; 0x50000006
 a6c:	00000000 	andeq	r0, r0, r0
 a70:	64737973 	ldrbtvs	r7, [r3], #-2419	; 0x973
 a74:	2e736665 	cdpcs	6, 7, cr6, cr3, cr5, {3}
 a78:	00010068 	andeq	r0, r1, r8, rrx
 a7c:	05000000 	streq	r0, [r0, #-0]
 a80:	6114b402 	tstvs	r4, r2, lsl #8
 a84:	01130301 	tsteq	r3, r1, lsl #6
 a88:	034d4b14 	movteq	r4, #56084	; 0xdb14
 a8c:	7303660d 	movwvc	r6, #13837	; 0x360d
 a90:	2e0d034a 	cdpcs	3, 0, cr0, cr13, cr10, {2}
 a94:	032e6d03 	teqeq	lr, #3, 26	; 0xc0
 a98:	73032e13 	movwvc	r2, #15891	; 0x3e13
 a9c:	0c03312e 	stfeqs	f3, [r3], {46}	; 0x2e
 aa0:	2e74032e 	cdpcs	3, 7, cr0, cr4, cr14, {1}
 aa4:	032e0c03 	teqeq	lr, #768	; 0x300
 aa8:	30352e77 	eorscc	r2, r5, r7, ror lr
 aac:	87321450 			; <UNDEFINED> instruction: 0x87321450
 ab0:	322e7703 	eorcc	r7, lr, #786432	; 0xc0000
 ab4:	1631314d 	ldrtne	r3, [r1], -sp, asr #2
 ab8:	03661003 	cmneq	r6, #3
 abc:	77032e79 	smlsdxvc	r3, r9, lr, r2
 ac0:	661d039e 			; <UNDEFINED> instruction: 0x661d039e
 ac4:	7fb3031a 	svcvc	0x00b3031a
 ac8:	00c5039e 	smulleq	r0, r5, lr, r3
 acc:	b603364a 	strlt	r3, [r3], -sl, asr #12
 ad0:	0a032e7f 	beq	cc4d4 <_back_addr-0x1543b2c>
 ad4:	2203302e 	andcs	r3, r3, #46	; 0x2e
 ad8:	2e1c032e 	cdpcs	3, 1, cr0, cr12, cr14, {1}
 adc:	2e7fb303 	cdpcs	3, 7, cr11, cr15, cr3, {0}
 ae0:	30353131 	eorscc	r3, r5, r1, lsr r1
 ae4:	01040200 	mrseq	r0, R12_usr
 ae8:	032e2203 	teqeq	lr, #805306368	; 0x30000000
 aec:	18306621 	ldmdane	r0!, {r0, r5, r9, sl, sp, lr}
 af0:	827fa603 	rsbshi	sl, pc, #3145728	; 0x300000
 af4:	4a00d403 	bmi	35b08 <_back_addr-0x15da4f8>
 af8:	7fa90334 	svcvc	0x00a90334
 afc:	2e0a032e 	cdpcs	3, 0, cr0, cr10, cr14, {1}
 b00:	2e220330 	mcrcs	3, 1, r0, cr2, cr0, {1}
 b04:	032e2903 	teqeq	lr, #49152	; 0xc000
 b08:	312e7fa6 	teqcc	lr, r6, lsr #31
 b0c:	00303531 	eorseq	r3, r0, r1, lsr r5
 b10:	03010402 	movweq	r0, #5122	; 0x1402
 b14:	2e032e22 	cdpcs	14, 0, cr2, cr3, cr2, {1}
 b18:	00020266 	andeq	r0, r2, r6, ror #4
 b1c:	01840101 	orreq	r0, r4, r1, lsl #2
 b20:	00020000 	andeq	r0, r2, r0
 b24:	00000072 	andeq	r0, r0, r2, ror r0
 b28:	0efb0102 	cdpeq	1, 15, cr0, cr11, cr2, {0}
 b2c:	0101000d 	tsteq	r1, sp
 b30:	00000101 	andeq	r0, r0, r1, lsl #2
 b34:	00000100 	andeq	r0, r0, r0, lsl #2
 b38:	6f682f01 	svcvs	0x00682f01
 b3c:	6c2f656d 	cfstr32vs	mvfx6, [pc], #-436	; 990 <_back_addr-0x160f670>
 b40:	7369756f 	cmnvc	r9, #465567744	; 0x1bc00000
 b44:	3932312f 	ldmdbcc	r2!, {r0, r1, r2, r3, r5, r8, ip, sp}
 b48:	6f622f35 	svcvs	0x00622f35
 b4c:	6f63746f 	svcvs	0x0063746f
 b50:	752f6564 	strvc	r6, [pc, #-1380]!	; 5f4 <_back_addr-0x160fa0c>
 b54:	746f6f62 	strbtvc	r6, [pc], #-3938	; b5c <_back_addr-0x160f4a4>
 b58:	6178652f 	cmnvs	r8, pc, lsr #10
 b5c:	656c706d 	strbvs	r7, [ip, #-109]!	; 0x6d
 b60:	66652f73 	uqsub16vs	r2, r5, r3
 b64:	5f657375 	svcpl	0x00657375
 b68:	69726576 	ldmdbvs	r2!, {r1, r2, r4, r5, r6, r8, sl, sp, lr}^
 b6c:	692f7966 	stmdbvs	pc!, {r1, r2, r5, r6, r8, fp, ip, sp, lr}	; <UNPREDICTABLE>
 b70:	756c636e 	strbvc	r6, [ip, #-878]!	; 0x36e
 b74:	00006564 	andeq	r6, r0, r4, ror #10
 b78:	6c697475 	cfstrdvs	mvd7, [r9], #-468	; 0xfffffe2c
 b7c:	0000632e 	andeq	r6, r0, lr, lsr #6
 b80:	79730000 	ldmdbvc	r3!, {}^	; <UNPREDICTABLE>
 b84:	66656473 			; <UNDEFINED> instruction: 0x66656473
 b88:	00682e73 	rsbeq	r2, r8, r3, ror lr
 b8c:	75000001 	strvc	r0, [r0, #-1]
 b90:	2e747261 	cdpcs	2, 7, cr7, cr4, cr1, {3}
 b94:	00010068 	andeq	r0, r1, r8, rrx
 b98:	05000000 	streq	r0, [r0, #-0]
 b9c:	61161c02 	tstvs	r6, r2, lsl #24
 ba0:	01330301 	teqeq	r3, r1, lsl #6
 ba4:	03674b13 	cmneq	r7, #19456	; 0x4c00
 ba8:	45174a12 	ldrmi	r4, [r7, #-2578]	; 0xa12
 bac:	2e0c0333 	mcrcs	3, 0, r0, cr12, cr3, {1}
 bb0:	332e7903 	teqcc	lr, #49152	; 0xc000
 bb4:	032e7603 	teqeq	lr, #3145728	; 0x300000
 bb8:	73032e0d 	movwvc	r2, #15885	; 0x3e0d
 bbc:	2e0e032e 	cdpcs	3, 0, cr0, cr14, cr14, {1}
 bc0:	6a2e7303 	bvs	b9d7d4 <_back_addr-0xa7282c>
 bc4:	2f2f3033 	svccs	0x002f3033
 bc8:	0313502f 	tsteq	r3, #47	; 0x2f
 bcc:	173c080b 	ldrne	r0, [ip, -fp, lsl #16]!
 bd0:	039e7703 	orrseq	r7, lr, #786432	; 0xc0000
 bd4:	73034a0b 	movwvc	r4, #14859	; 0x3a0b
 bd8:	09038466 	stmdbeq	r3, {r1, r2, r5, r6, sl, pc}
 bdc:	8275032e 	rsbshi	r0, r5, #-1207959552	; 0xb8000000
 be0:	664f0384 	strbvs	r0, [pc], -r4, lsl #7
 be4:	4c848014 	stcmi	0, cr8, [r4], {20}
 be8:	4a79034f 	bmi	1e4192c <__bss_end__+0x81ed6c>
 bec:	03294fa2 	teqeq	r9, #648	; 0x288
 bf0:	4e4a00c1 	cdpmi	0, 4, cr0, cr10, cr1, {6}
 bf4:	6103674c 	tstvs	r3, ip, asr #14
 bf8:	82210382 	eorhi	r0, r1, #134217730	; 0x8000002
 bfc:	032e6103 	teqeq	lr, #-1073741824	; 0xc0000000
 c00:	314c2e1f 	cmpcc	ip, pc, lsl lr
 c04:	4a0a0314 	bmi	28185c <_back_addr-0x138e7a4>
 c08:	66480334 			; <UNDEFINED> instruction: 0x66480334
 c0c:	4a3e0384 	bmi	f81a24 <_back_addr-0x68e5dc>
 c10:	45176a13 	ldrmi	r6, [r7, #-2579]	; 0xa13
 c14:	2f4c8733 	svccs	0x004c8733
 c18:	2d4d312b 	stfcse	f3, [sp, #-172]	; 0xffffff54
 c1c:	03302c30 	teqeq	r0, #48, 24	; 0x3000
 c20:	0b032e76 	bleq	cc600 <_back_addr-0x1543a00>
 c24:	6813312e 	ldmdavs	r3, {r1, r2, r3, r5, r8, ip, sp}
 c28:	31359b68 	teqcc	r5, r8, ror #22
 c2c:	6b324616 	blvs	c9248c <_back_addr-0x97db74>
 c30:	7fb803d7 	svcvc	0x00b803d7
 c34:	00ca0366 	sbceq	r0, sl, r6, ror #6
 c38:	4d686982 	stclmi	9, cr6, [r8, #-520]!	; 0xfffffdf8
 c3c:	03344648 	teqeq	r4, #72, 12	; 0x4800000
 c40:	4b522e7a 	blmi	148c630 <_back_addr-0x1839d0>
 c44:	2e6f032d 	cdpcs	3, 6, cr0, cr15, cr13, {1}
 c48:	034a1203 	movteq	r1, #41475	; 0xa203
 c4c:	1d032e6e 	stcne	14, cr2, [r3, #-440]	; 0xfffffe48
 c50:	79031a2e 	stmdbvc	r3, {r1, r2, r3, r5, r9, fp, ip}
 c54:	2d67352e 	cfstr64cs	mvdx3, [r7, #-184]!	; 0xffffff48
 c58:	00143145 	andseq	r3, r4, r5, asr #2
 c5c:	67030402 	strvs	r0, [r3, -r2, lsl #8]
 c60:	03040200 	movweq	r0, #16896	; 0x4200
 c64:	4b6a6b2d 	blmi	1a9b920 <__bss_end__+0x478d60>
 c68:	03040200 	movweq	r0, #16896	; 0x4200
 c6c:	04020083 	streq	r0, [r2], #-131	; 0x83
 c70:	47c18103 	strbmi	r8, [r1, r3, lsl #2]
 c74:	03040200 	movweq	r0, #16896	; 0x4200
 c78:	0402009f 	streq	r0, [r2], #-159	; 0x9f
 c7c:	4dbd9d03 	ldcmi	13, cr9, [sp, #12]!
 c80:	4a7a0318 	bmi	1e818e8 <__bss_end__+0x85ed28>
 c84:	04020036 	streq	r0, [r2], #-54	; 0x36
 c88:	50560802 	subspl	r0, r6, r2, lsl #16
 c8c:	154e4d47 	strbne	r4, [lr, #-3399]	; 0xd47
 c90:	2f6dd468 	svccs	0x006dd468
 c94:	4e135229 	cdpmi	2, 1, cr5, cr3, cr9, {1}
 c98:	2f2d2f2a 	svccs	0x002d2f2a
 c9c:	16033031 			; <UNDEFINED> instruction: 0x16033031
 ca0:	0002024a 	andeq	r0, r2, sl, asr #4
 ca4:	032c0101 	teqeq	ip, #1073741824	; 0x40000000
 ca8:	00020000 	andeq	r0, r2, r0
 cac:	00000112 	andeq	r0, r0, r2, lsl r1
 cb0:	0efb0102 	cdpeq	1, 15, cr0, cr11, cr2, {0}
 cb4:	0101000d 	tsteq	r1, sp
 cb8:	00000101 	andeq	r0, r0, r1, lsl #2
 cbc:	00000100 	andeq	r0, r0, r0, lsl #2
 cc0:	636e6901 	cmnvs	lr, #16384	; 0x4000
 cc4:	6564756c 	strbvs	r7, [r4, #-1388]!	; 0x56c
 cc8:	7276642f 	rsbsvc	r6, r6, #788529152	; 0x2f000000
 ccc:	746f6f62 	strbtvc	r6, [pc], #-3938	; cd4 <_back_addr-0x160f32c>
 cd0:	636e695f 	cmnvs	lr, #1556480	; 0x17c000
 cd4:	6f682f00 	svcvs	0x00682f00
 cd8:	6c2f656d 	cfstr32vs	mvfx6, [pc], #-436	; b2c <_back_addr-0x160f4d4>
 cdc:	7369756f 	cmnvc	r9, #465567744	; 0x1bc00000
 ce0:	3932312f 	ldmdbcc	r2!, {r0, r1, r2, r3, r5, r8, ip, sp}
 ce4:	6f622f35 	svcvs	0x00622f35
 ce8:	6f63746f 	svcvs	0x0063746f
 cec:	752f6564 	strvc	r6, [pc, #-1380]!	; 790 <_back_addr-0x160f870>
 cf0:	746f6f62 	strbtvc	r6, [pc], #-3938	; cf8 <_back_addr-0x160f308>
 cf4:	6178652f 	cmnvs	r8, pc, lsr #10
 cf8:	656c706d 	strbvs	r7, [ip, #-109]!	; 0x6d
 cfc:	66652f73 	uqsub16vs	r2, r5, r3
 d00:	5f657375 	svcpl	0x00657375
 d04:	69726576 	ldmdbvs	r2!, {r1, r2, r4, r5, r6, r8, sl, sp, lr}^
 d08:	2e2f7966 	cdpcs	9, 2, cr7, cr15, cr6, {3}
 d0c:	2e2e2f2e 	cdpcs	15, 2, cr2, cr14, cr14, {1}
 d10:	636e692f 	cmnvs	lr, #770048	; 0xbc000
 d14:	6564756c 	strbvs	r7, [r4, #-1388]!	; 0x56c
 d18:	6d73612f 	ldfvse	f6, [r3, #-188]!	; 0xffffff44
 d1c:	6f682f00 	svcvs	0x00682f00
 d20:	6c2f656d 	cfstr32vs	mvfx6, [pc], #-436	; b74 <_back_addr-0x160f48c>
 d24:	7369756f 	cmnvc	r9, #465567744	; 0x1bc00000
 d28:	3932312f 	ldmdbcc	r2!, {r0, r1, r2, r3, r5, r8, ip, sp}
 d2c:	6f622f35 	svcvs	0x00622f35
 d30:	6f63746f 	svcvs	0x0063746f
 d34:	752f6564 	strvc	r6, [pc, #-1380]!	; 7d8 <_back_addr-0x160f828>
 d38:	746f6f62 	strbtvc	r6, [pc], #-3938	; d40 <_back_addr-0x160f2c0>
 d3c:	6178652f 	cmnvs	r8, pc, lsr #10
 d40:	656c706d 	strbvs	r7, [ip, #-109]!	; 0x6d
 d44:	66652f73 	uqsub16vs	r2, r5, r3
 d48:	5f657375 	svcpl	0x00657375
 d4c:	69726576 	ldmdbvs	r2!, {r1, r2, r4, r5, r6, r8, sl, sp, lr}^
 d50:	692f7966 	stmdbvs	pc!, {r1, r2, r5, r6, r8, fp, ip, sp, lr}	; <UNPREDICTABLE>
 d54:	756c636e 	strbvc	r6, [ip, #-878]!	; 0x36e
 d58:	642f6564 	strtvs	r6, [pc], #-1380	; d60 <_back_addr-0x160f2a0>
 d5c:	6f627276 	svcvs	0x00627276
 d60:	695f746f 	ldmdbvs	pc, {r0, r1, r2, r3, r5, r6, sl, ip, sp, lr}^	; <UNPREDICTABLE>
 d64:	0000636e 	andeq	r6, r0, lr, ror #6
 d68:	73756665 	cmnvc	r5, #105906176	; 0x6500000
 d6c:	00632e65 	rsbeq	r2, r3, r5, ror #28
 d70:	69000000 	stmdbvs	r0, {}	; <UNPREDICTABLE>
 d74:	00682e6f 	rsbeq	r2, r8, pc, ror #28
 d78:	6f000001 	svcvs	0x00000001
 d7c:	725f7074 	subsvc	r7, pc, #116	; 0x74
 d80:	682e6765 	stmdavs	lr!, {r0, r2, r5, r6, r8, r9, sl, sp, lr}
 d84:	00000000 	andeq	r0, r0, r0
 d88:	65707974 	ldrbvs	r7, [r0, #-2420]!	; 0x974
 d8c:	00682e73 	rsbeq	r2, r8, r3, ror lr
 d90:	74000002 	strvc	r0, [r0], #-2
 d94:	73657079 	cmnvc	r5, #121	; 0x79
 d98:	0000682e 	andeq	r6, r0, lr, lsr #16
 d9c:	74630000 	strbtvc	r0, [r3], #-0
 da0:	2e657079 	mcrcs	0, 3, r7, cr5, cr9, {3}
 da4:	00030068 	andeq	r0, r3, r8, rrx
 da8:	6d697400 	cfstrdvs	mvd7, [r9, #-0]
 dac:	682e7265 	stmdavs	lr!, {r0, r2, r5, r6, r9, ip, sp, lr}
 db0:	00000100 	andeq	r0, r0, r0, lsl #2
 db4:	6d6d6f63 	stclvs	15, cr6, [sp, #-396]!	; 0xfffffe74
 db8:	2e646e61 	cdpcs	14, 6, cr6, cr4, cr1, {3}
 dbc:	00000068 	andeq	r0, r0, r8, rrx
 dc0:	05000000 	streq	r0, [r0, #-0]
 dc4:	611ae402 	tstvs	sl, r2, lsl #8
 dc8:	00f10301 	rscseq	r0, r1, r1, lsl #6
 dcc:	09036601 	stmdbeq	r3, {r0, r9, sl, sp, lr}
 dd0:	2f4b4b66 	svccs	0x004b4b66
 dd4:	2e12034c 	cdpcs	3, 1, cr0, cr2, cr12, {2}
 dd8:	2f2e6e03 	svccs	0x002e6e03
 ddc:	4a1103dd 	bmi	441d58 <_back_addr-0x11ce2a8>
 de0:	034a6f03 	movteq	r6, #44803	; 0xaf03
 de4:	7603f20a 	strvc	pc, [r3], -sl, lsl #4
 de8:	2e0d032e 	cdpcs	3, 0, cr0, cr13, cr14, {1}
 dec:	302e7303 	eorcc	r7, lr, r3, lsl #6
 df0:	4b30492f 	blmi	c132b4 <_back_addr-0x9fcd4c>
 df4:	4c4c2c30 	mcrrmi	12, 3, r2, ip, cr0
 df8:	0331652f 	teqeq	r1, #197132288	; 0xbc00000
 dfc:	0c034a74 	stceq	10, cr4, [r3], {116}	; 0x74
 e00:	2e74032e 	cdpcs	3, 7, cr0, cr4, cr14, {1}
 e04:	032e0d03 	teqeq	lr, #3, 26	; 0xc0
 e08:	11032e73 	tstne	r3, r3, ror lr
 e0c:	003e0866 	eorseq	r0, lr, r6, ror #16
 e10:	65010402 	strvs	r0, [r1, #-1026]	; 0x402
 e14:	02040200 	andeq	r0, r4, #0, 4
 e18:	30814b49 	addcc	r4, r1, r9, asr #22
 e1c:	2c304e2c 	ldccs	14, cr4, [r0], #-176	; 0xffffff50
 e20:	2b892f68 	blcs	fe24cbc8 <__bss_end__+0xfcc2a008>
 e24:	4d2d2c31 	stcmi	12, cr2, [sp, #-196]!	; 0xffffff3c
 e28:	032e5903 	teqeq	lr, #49152	; 0xc000
 e2c:	032f4a2b 	teqeq	pc, #176128	; 0x2b000
 e30:	32884a76 	addcc	r4, r8, #483328	; 0x76000
 e34:	4a02a003 	bmi	a8e48 <_back_addr-0x15671b8>
 e38:	082e0c03 	stmdaeq	lr!, {r0, r1, sl, fp}
 e3c:	04020021 	streq	r0, [r2], #-33	; 0x21
 e40:	0200a303 	andeq	sl, r0, #201326592	; 0xc000000
 e44:	509c0304 	addspl	r0, ip, r4, lsl #6
 e48:	040200bb 	streq	r0, [r2], #-187	; 0xbb
 e4c:	0200a103 	andeq	sl, r0, #-1073741824	; 0xc0000000
 e50:	509c0304 	addspl	r0, ip, r4, lsl #6
 e54:	302f1685 	eorcc	r1, pc, r5, lsl #13
 e58:	044b302f 	strbeq	r3, [fp], #-47	; 0x2f
 e5c:	7cd30302 	ldclvc	3, cr0, [r3], {2}
 e60:	0301042e 	movweq	r0, #5166	; 0x142e
 e64:	4b2e03ad 	blmi	b81d20 <_back_addr-0xa8e2e0>
 e68:	4a7ed903 	bmi	1fb727c <__bss_end__+0x9946bc>
 e6c:	2f4b8431 	svccs	0x004b8431
 e70:	4d302c30 	ldcmi	12, cr2, [r0, #-192]!	; 0xffffff40
 e74:	4a019e03 	bmi	68688 <_back_addr-0x15a7978>
 e78:	31011803 	tstcc	r1, r3, lsl #16
 e7c:	b4030204 	strlt	r0, [r3], #-516	; 0x204
 e80:	0104017c 	tsteq	r4, ip, ror r1
 e84:	4a03cc03 	bmi	f3e98 <_back_addr-0x151c168>
 e88:	b4030204 	strlt	r0, [r3], #-516	; 0x204
 e8c:	01042e7c 	tsteq	r4, ip, ror lr
 e90:	2e03d803 	cdpcs	8, 0, cr13, cr3, cr3, {0}
 e94:	c3030204 	movwgt	r0, #12804	; 0x3204
 e98:	01042e7c 	tsteq	r4, ip, ror lr
 e9c:	6603bd03 	strvs	fp, [r3], -r3, lsl #26
 ea0:	8d03a231 	sfmhi	f2, 1, [r3, #-196]	; 0xffffff3c
 ea4:	4f2e4a7d 	svcmi	0x002e4a7d
 ea8:	a12f3345 	teqge	pc, r5, asr #6
 eac:	0b03a54c 	bleq	ea3e4 <_back_addr-0x1525c1c>
 eb0:	4a6e032e 	bmi	1b81b70 <__bss_end__+0x55efb0>
 eb4:	78032f35 	stmdavc	r3, {r0, r2, r4, r5, r8, r9, sl, fp, sp}
 eb8:	2e0c032e 	cdpcs	3, 0, cr0, cr12, cr14, {1}
 ebc:	2e6e0350 	mcrcs	3, 3, r0, cr14, cr0, {2}
 ec0:	12034b4d 	andne	r4, r3, #78848	; 0x13400
 ec4:	2c4c309e 	mcrrcs	0, 9, r3, ip, cr14
 ec8:	84bc3033 	ldrthi	r3, [ip], #51	; 0x33
 ecc:	a589304d 	strge	r3, [r9, #77]	; 0x4d
 ed0:	79032f2f 	stmdbvc	r3, {r0, r1, r2, r3, r5, r8, r9, sl, fp, sp}
 ed4:	7603852e 	strvc	r8, [r3], -lr, lsr #10
 ed8:	ac03854a 	cfstr32ge	mvfx8, [r3], {74}	; 0x4a
 edc:	2d134a01 	vldrcs	s8, [r3, #-4]
 ee0:	8209032f 	andhi	r0, r9, #-1140850688	; 0xbc000000
 ee4:	4a750387 	bmi	1d41d08 <__bss_end__+0x71f148>
 ee8:	03820b03 	orreq	r0, r2, #3072	; 0xc00
 eec:	a18a4a78 	orrge	r4, sl, r8, ror sl
 ef0:	e203842f 	and	r8, r3, #788529152	; 0x2f000000
 ef4:	8430667e 	ldrthi	r6, [r0], #-1662	; 0x67e
 ef8:	304d304c 	subcc	r3, sp, ip, asr #32
 efc:	4d304c84 	ldcmi	12, cr4, [r0, #-528]!	; 0xfffffdf0
 f00:	304c8430 	subcc	r8, ip, r0, lsr r4
 f04:	4c84304d 	stcmi	0, cr3, [r4], {77}	; 0x4d
 f08:	84304d30 	ldrthi	r4, [r0], #-3376	; 0xd30
 f0c:	304c304c 	subcc	r3, ip, ip, asr #32
 f10:	03304c84 	teqeq	r0, #132, 24	; 0x8400
 f14:	49134a11 	ldmdbmi	r3, {r0, r4, r9, fp, lr}
 f18:	4d342f2e 	ldcmi	15, cr2, [r4, #-184]!	; 0xffffff48
 f1c:	034c5151 	movteq	r5, #49489	; 0xc151
 f20:	03672e69 	cmneq	r7, #1680	; 0x690
 f24:	79034a10 	stmdbvc	r3, {r4, r9, fp, lr}
 f28:	0c03869e 	stceq	6, cr8, [r3], {158}	; 0x9e
 f2c:	2e491366 	cdpcs	3, 4, cr1, cr9, cr6, {3}
 f30:	514d342f 	cmppl	sp, pc, lsr #8
 f34:	69034c51 	stmdbvs	r3, {r0, r4, r6, sl, fp, lr}
 f38:	1003672e 	andne	r6, r3, lr, lsr #14
 f3c:	9e79034a 	cdpls	3, 7, cr0, cr9, cr10, {2}
 f40:	66240386 	strtvs	r0, [r4], -r6, lsl #7
 f44:	8383bb2f 	orrhi	fp, r3, #48128	; 0xbc00
 f48:	2f2f8483 	svccs	0x002f8483
 f4c:	2f2f2f2f 	svccs	0x002f2f2f
 f50:	4d4b4b4b 	vstrmi	d20, [fp, #-300]	; 0xfffffed4
 f54:	4a00e703 	bmi	3ab68 <_back_addr-0x15d5498>
 f58:	04302c17 	ldrteq	r2, [r0], #-3095	; 0xc17
 f5c:	7c940302 	ldcvc	3, cr0, [r4], {2}
 f60:	0301044a 	movweq	r0, #5194	; 0x144a
 f64:	044a03e7 	strbeq	r0, [sl], #-999	; 0x3e7
 f68:	7c9c0302 	ldcvc	3, cr0, [ip], {2}
 f6c:	03010482 	movweq	r0, #5250	; 0x1482
 f70:	2c4a03eb 	mcrrcs	3, 14, r0, sl, cr11
 f74:	02000204 	andeq	r0, r0, #4, 4	; 0x40000000
 f78:	94030304 	strls	r0, [r3], #-772	; 0x304
 f7c:	31a0667c 	rorcc	r6, ip, r6
 f80:	0301042b 	movweq	r0, #5163	; 0x142b
 f84:	482e03ec 	stmdami	lr!, {r2, r3, r5, r6, r7, r8, r9}
 f88:	2d1a854f 	cfldr32cs	mvfx8, [sl, #-316]	; 0xfffffec4
 f8c:	2e78032f 	cdpcs	3, 7, cr0, cr8, cr15, {1}
 f90:	03040200 	movweq	r0, #16896	; 0x4200
 f94:	004a0a03 	subeq	r0, sl, r3, lsl #20
 f98:	2f030402 	svccs	0x00030402
 f9c:	03040200 	movweq	r0, #16896	; 0x4200
 fa0:	0402004b 	streq	r0, [r2], #-75	; 0x4b
 fa4:	02042f03 	andeq	r2, r4, #3, 30
 fa8:	03040200 	movweq	r0, #16896	; 0x4200
 fac:	667c8403 	ldrbtvs	r8, [ip], -r3, lsl #8
 fb0:	02000104 	andeq	r0, r0, #4, 2
 fb4:	fc030304 	stc2	3, cr0, [r3], {4}
 fb8:	02002e03 	andeq	r2, r0, #3, 28	; 0x30
 fbc:	52450304 	subpl	r0, r5, #4, 6	; 0x10000000
 fc0:	827db303 	rsbshi	fp, sp, #201326592	; 0xc000000
 fc4:	6789a530 			; <UNDEFINED> instruction: 0x6789a530
 fc8:	2e79032f 	cdpcs	3, 7, cr0, cr9, cr15, {1}
 fcc:	4a760385 	bmi	1d81de8 <__bss_end__+0x75f228>
 fd0:	00040285 	andeq	r0, r4, r5, lsl #5
 fd4:	Address 0x00000fd4 is out of bounds.


Disassembly of section .debug_frame:

00000000 <.debug_frame>:
   0:	0000000c 	andeq	r0, r0, ip
   4:	ffffffff 			; <UNDEFINED> instruction: 0xffffffff
   8:	7c020001 	stcvc	0, cr0, [r2], {1}
   c:	000d0c0e 	andeq	r0, sp, lr, lsl #24
  10:	0000000c 	andeq	r0, r0, ip
  14:	00000000 	andeq	r0, r0, r0
  18:	01610074 	smceq	4100	; 0x1004
  1c:	00000028 	andeq	r0, r0, r8, lsr #32
  20:	0000000c 	andeq	r0, r0, ip
  24:	ffffffff 			; <UNDEFINED> instruction: 0xffffffff
  28:	7c020001 	stcvc	0, cr0, [r2], {1}
  2c:	000d0c0e 	andeq	r0, sp, lr, lsl #24
  30:	0000001c 	andeq	r0, r0, ip, lsl r0
  34:	00000020 	andeq	r0, r0, r0, lsr #32
  38:	0161009c 			; <UNDEFINED> instruction: 0x0161009c
  3c:	000000a0 	andeq	r0, r0, r0, lsr #1
  40:	840c0e48 	strhi	r0, [ip], #-3656	; 0xe48
  44:	8e028503 	cfsh32hi	mvfx8, mvfx2, #3
  48:	0e440201 	cdpeq	2, 4, cr0, cr4, cr1, {0}
  4c:	cec5c400 	cdpgt	4, 12, cr12, cr5, cr0, {0}
  50:	0000000c 	andeq	r0, r0, ip
  54:	ffffffff 			; <UNDEFINED> instruction: 0xffffffff
  58:	7c020001 	stcvc	0, cr0, [r2], {1}
  5c:	000d0c0e 	andeq	r0, sp, lr, lsl #24
  60:	00000020 	andeq	r0, r0, r0, lsr #32
  64:	00000050 	andeq	r0, r0, r0, asr r0
  68:	0161013c 	cmneq	r1, ip, lsr r1
  6c:	00000194 	muleq	r0, r4, r1
  70:	84200e42 	strthi	r0, [r0], #-3650	; 0xe42
  74:	86078508 	strhi	r8, [r7], -r8, lsl #10
  78:	88058706 	stmdahi	r5, {r1, r2, r8, r9, sl, pc}
  7c:	8a038904 	bhi	e2494 <_back_addr-0x152db6c>
  80:	00018e02 	andeq	r8, r1, r2, lsl #28
  84:	0000000c 	andeq	r0, r0, ip
  88:	ffffffff 			; <UNDEFINED> instruction: 0xffffffff
  8c:	7c020001 	stcvc	0, cr0, [r2], {1}
  90:	000d0c0e 	andeq	r0, sp, lr, lsl #24
  94:	0000000c 	andeq	r0, r0, ip
  98:	00000084 	andeq	r0, r0, r4, lsl #1
  9c:	016102d0 	ldrdeq	r0, [r1, #-32]!	; 0xffffffe0
  a0:	00000008 	andeq	r0, r0, r8
  a4:	00000020 	andeq	r0, r0, r0, lsr #32
  a8:	00000084 	andeq	r0, r0, r4, lsl #1
  ac:	016102d8 	ldrdeq	r0, [r1, #-40]!	; 0xffffffd8
  b0:	00000010 	andeq	r0, r0, r0, lsl r0
  b4:	80100e42 	andshi	r0, r0, r2, asr #28
  b8:	82038104 	andhi	r8, r3, #4, 2
  bc:	44018302 	strmi	r8, [r1], #-770	; 0x302
  c0:	c0c1c2c3 	sbcgt	ip, r1, r3, asr #5
  c4:	0000000e 	andeq	r0, r0, lr
  c8:	0000000c 	andeq	r0, r0, ip
  cc:	00000084 	andeq	r0, r0, r4, lsl #1
  d0:	016102e8 	smultteq	r1, r8, r2
  d4:	00000024 	andeq	r0, r0, r4, lsr #32
  d8:	00000018 	andeq	r0, r0, r8, lsl r0
  dc:	00000084 	andeq	r0, r0, r4, lsl #1
  e0:	0161030c 	cmneq	r1, ip, lsl #6
  e4:	00000058 	andeq	r0, r0, r8, asr r0
  e8:	8e040e54 	mcrhi	14, 0, r0, cr4, cr4, {2}
  ec:	000e5401 	andeq	r5, lr, r1, lsl #8
  f0:	000000ce 	andeq	r0, r0, lr, asr #1
  f4:	00000028 	andeq	r0, r0, r8, lsr #32
  f8:	00000084 	andeq	r0, r0, r4, lsl #1
  fc:	01610364 	cmneq	r1, r4, ror #6
 100:	000002d4 	ldrdeq	r0, [r0], -r4
 104:	84140e42 	ldrhi	r0, [r4], #-3650	; 0xe42
 108:	86048505 	strhi	r8, [r4], -r5, lsl #10
 10c:	8e028703 	cdphi	7, 0, cr8, cr2, cr3, {0}
 110:	b80e4601 	stmdalt	lr, {r0, r9, sl, lr}
 114:	01540304 	cmpeq	r4, r4, lsl #6
 118:	42140e0a 	andsmi	r0, r4, #10, 28	; 0xa0
 11c:	140e4a0b 	strne	r4, [lr], #-2571	; 0xa0b
 120:	0000000c 	andeq	r0, r0, ip
 124:	00000084 	andeq	r0, r0, r4, lsl #1
 128:	01610638 	cmneq	r1, r8, lsr r6
 12c:	00000014 	andeq	r0, r0, r4, lsl r0
 130:	00000018 	andeq	r0, r0, r8, lsl r0
 134:	00000084 	andeq	r0, r0, r4, lsl #1
 138:	0161064c 	cmneq	r1, ip, asr #12
 13c:	0000004c 	andeq	r0, r0, ip, asr #32
 140:	84100e46 	ldrhi	r0, [r0], #-3654	; 0xe46
 144:	86038504 	strhi	r8, [r3], -r4, lsl #10
 148:	00018e02 	andeq	r8, r1, r2, lsl #28
 14c:	0000000c 	andeq	r0, r0, ip
 150:	ffffffff 			; <UNDEFINED> instruction: 0xffffffff
 154:	7c020001 	stcvc	0, cr0, [r2], {1}
 158:	000d0c0e 	andeq	r0, sp, lr, lsl #24
 15c:	00000020 	andeq	r0, r0, r0, lsr #32
 160:	0000014c 	andeq	r0, r0, ip, asr #2
 164:	01610698 			; <UNDEFINED> instruction: 0x01610698
 168:	000000e4 	andeq	r0, r0, r4, ror #1
 16c:	841c0e42 	ldrhi	r0, [ip], #-3650	; 0xe42
 170:	86068507 	strhi	r8, [r6], -r7, lsl #10
 174:	88048705 	stmdahi	r4, {r0, r2, r8, r9, sl, pc}
 178:	8e028903 	cdphi	9, 0, cr8, cr2, cr3, {0}
 17c:	00000001 	andeq	r0, r0, r1
 180:	0000000c 	andeq	r0, r0, ip
 184:	0000014c 	andeq	r0, r0, ip, asr #2
 188:	0161077c 	smceq	4220	; 0x107c
 18c:	00000018 	andeq	r0, r0, r8, lsl r0
 190:	0000000c 	andeq	r0, r0, ip
 194:	0000014c 	andeq	r0, r0, ip, asr #2
 198:	01610794 			; <UNDEFINED> instruction: 0x01610794
 19c:	00000004 	andeq	r0, r0, r4
 1a0:	0000000c 	andeq	r0, r0, ip
 1a4:	0000014c 	andeq	r0, r0, ip, asr #2
 1a8:	01610798 			; <UNDEFINED> instruction: 0x01610798
 1ac:	00000004 	andeq	r0, r0, r4
 1b0:	0000000c 	andeq	r0, r0, ip
 1b4:	0000014c 	andeq	r0, r0, ip, asr #2
 1b8:	0161079c 			; <UNDEFINED> instruction: 0x0161079c
 1bc:	00000004 	andeq	r0, r0, r4
 1c0:	00000018 	andeq	r0, r0, r8, lsl r0
 1c4:	0000014c 	andeq	r0, r0, ip, asr #2
 1c8:	016107a0 	smultbeq	r1, r0, r7
 1cc:	00000014 	andeq	r0, r0, r4, lsl r0
 1d0:	84080e42 	strhi	r0, [r8], #-3650	; 0xe42
 1d4:	46018e02 	strmi	r8, [r1], -r2, lsl #28
 1d8:	000ec4ce 	andeq	ip, lr, lr, asr #9
 1dc:	0000000c 	andeq	r0, r0, ip
 1e0:	0000014c 	andeq	r0, r0, ip, asr #2
 1e4:	016107b4 	strheq	r0, [r1, #-116]!	; 0xffffff8c
 1e8:	00000004 	andeq	r0, r0, r4
 1ec:	00000018 	andeq	r0, r0, r8, lsl r0
 1f0:	0000014c 	andeq	r0, r0, ip, asr #2
 1f4:	016107b8 	strheq	r0, [r1, #-120]!	; 0xffffff88
 1f8:	00000014 	andeq	r0, r0, r4, lsl r0
 1fc:	84080e42 	strhi	r0, [r8], #-3650	; 0xe42
 200:	46018e02 	strmi	r8, [r1], -r2, lsl #28
 204:	000ec4ce 	andeq	ip, lr, lr, asr #9
 208:	00000014 	andeq	r0, r0, r4, lsl r0
 20c:	0000014c 	andeq	r0, r0, ip, asr #2
 210:	016107cc 	smulbteq	r1, ip, r7
 214:	00000030 	andeq	r0, r0, r0, lsr r0
 218:	84080e42 	strhi	r0, [r8], #-3650	; 0xe42
 21c:	00018e02 	andeq	r8, r1, r2, lsl #28
 220:	0000000c 	andeq	r0, r0, ip
 224:	0000014c 	andeq	r0, r0, ip, asr #2
 228:	016107fc 	strdeq	r0, [r1, #-124]!	; 0xffffff84
 22c:	00000004 	andeq	r0, r0, r4
 230:	0000000c 	andeq	r0, r0, ip
 234:	0000014c 	andeq	r0, r0, ip, asr #2
 238:	01610800 	cmneq	r1, r0, lsl #16
 23c:	0000003c 	andeq	r0, r0, ip, lsr r0
 240:	0000000c 	andeq	r0, r0, ip
 244:	0000014c 	andeq	r0, r0, ip, asr #2
 248:	0161083c 	cmneq	r1, ip, lsr r8
 24c:	00000008 	andeq	r0, r0, r8
 250:	0000000c 	andeq	r0, r0, ip
 254:	0000014c 	andeq	r0, r0, ip, asr #2
 258:	01610844 	cmneq	r1, r4, asr #16
 25c:	00000004 	andeq	r0, r0, r4
 260:	00000018 	andeq	r0, r0, r8, lsl r0
 264:	0000014c 	andeq	r0, r0, ip, asr #2
 268:	01610848 	cmneq	r1, r8, asr #16
 26c:	00000068 	andeq	r0, r0, r8, rrx
 270:	8e040e42 	cdphi	14, 0, cr0, cr4, cr2, {2}
 274:	0ece7001 	cdpeq	0, 12, cr7, cr14, cr1, {0}
 278:	00000000 	andeq	r0, r0, r0
 27c:	0000000c 	andeq	r0, r0, ip
 280:	ffffffff 			; <UNDEFINED> instruction: 0xffffffff
 284:	7c020001 	stcvc	0, cr0, [r2], {1}
 288:	000d0c0e 	andeq	r0, sp, lr, lsl #24
 28c:	00000018 	andeq	r0, r0, r8, lsl r0
 290:	0000027c 	andeq	r0, r0, ip, ror r2
 294:	016108b0 	strheq	r0, [r1, #-128]!	; 0xffffff80
 298:	00000070 	andeq	r0, r0, r0, ror r0
 29c:	84100e42 	ldrhi	r0, [r0], #-3650	; 0xe42
 2a0:	86038504 	strhi	r8, [r3], -r4, lsl #10
 2a4:	00018e02 	andeq	r8, r1, r2, lsl #28
 2a8:	0000000c 	andeq	r0, r0, ip
 2ac:	0000027c 	andeq	r0, r0, ip, ror r2
 2b0:	01610920 	cmneq	r1, r0, lsr #18
 2b4:	00000034 	andeq	r0, r0, r4, lsr r0
 2b8:	00000020 	andeq	r0, r0, r0, lsr #32
 2bc:	0000027c 	andeq	r0, r0, ip, ror r2
 2c0:	01610954 	cmneq	r1, r4, asr r9
 2c4:	00000108 	andeq	r0, r0, r8, lsl #2
 2c8:	84100e46 	ldrhi	r0, [r0], #-3654	; 0xe46
 2cc:	86038504 	strhi	r8, [r3], -r4, lsl #10
 2d0:	02018e02 	andeq	r8, r1, #2, 28
 2d4:	c4000e7a 	strgt	r0, [r0], #-3706	; 0xe7a
 2d8:	00cec6c5 	sbceq	ip, lr, r5, asr #13
 2dc:	0000000c 	andeq	r0, r0, ip
 2e0:	0000027c 	andeq	r0, r0, ip, ror r2
 2e4:	01610a5c 	cmneq	r1, ip, asr sl
 2e8:	00000008 	andeq	r0, r0, r8
 2ec:	00000028 	andeq	r0, r0, r8, lsr #32
 2f0:	0000027c 	andeq	r0, r0, ip, ror r2
 2f4:	01610a64 	cmneq	r1, r4, ror #20
 2f8:	00000270 	andeq	r0, r0, r0, ror r2
 2fc:	840c0e42 	strhi	r0, [ip], #-3650	; 0xe42
 300:	8e028503 	cfsh32hi	mvfx8, mvfx2, #3
 304:	200e4801 	andcs	r4, lr, r1, lsl #16
 308:	0e0a8a02 	vmlaeq.f32	s16, s20, s4
 30c:	5c0b420c 	sfmpl	f4, 4, [fp], {12}
 310:	420c0e0a 	andmi	r0, ip, #10, 28	; 0xa0
 314:	0000000b 	andeq	r0, r0, fp
 318:	00000028 	andeq	r0, r0, r8, lsr #32
 31c:	0000027c 	andeq	r0, r0, ip, ror r2
 320:	01610cd4 	ldrdeq	r0, [r1, #-196]!	; 0xffffff3c
 324:	00000090 	muleq	r0, r0, r0
 328:	84180e42 	ldrhi	r0, [r8], #-3650	; 0xe42
 32c:	86058506 	strhi	r8, [r5], -r6, lsl #10
 330:	88038704 	stmdahi	r3, {r2, r8, r9, sl, pc}
 334:	70018e02 	andvc	r8, r1, r2, lsl #28
 338:	c7c8ce0a 	strbgt	ip, [r8, sl, lsl #28]
 33c:	0ec4c5c6 	cdpeq	5, 12, cr12, cr4, cr6, {6}
 340:	000b4200 	andeq	r4, fp, r0, lsl #4
 344:	00000028 	andeq	r0, r0, r8, lsr #32
 348:	0000027c 	andeq	r0, r0, ip, ror r2
 34c:	01610d64 	cmneq	r1, r4, ror #26
 350:	00000090 	muleq	r0, r0, r0
 354:	84180e42 	ldrhi	r0, [r8], #-3650	; 0xe42
 358:	86058506 	strhi	r8, [r5], -r6, lsl #10
 35c:	88038704 	stmdahi	r3, {r2, r8, r9, sl, pc}
 360:	70018e02 	andvc	r8, r1, r2, lsl #28
 364:	c7c8ce0a 	strbgt	ip, [r8, sl, lsl #28]
 368:	0ec4c5c6 	cdpeq	5, 12, cr12, cr4, cr6, {6}
 36c:	000b4200 	andeq	r4, fp, r0, lsl #4
 370:	00000028 	andeq	r0, r0, r8, lsr #32
 374:	0000027c 	andeq	r0, r0, ip, ror r2
 378:	01610df4 	strdeq	r0, [r1, #-212]!	; 0xffffff2c
 37c:	00000094 	muleq	r0, r4, r0
 380:	84180e42 	ldrhi	r0, [r8], #-3650	; 0xe42
 384:	86058506 	strhi	r8, [r5], -r6, lsl #10
 388:	88038704 	stmdahi	r3, {r2, r8, r9, sl, pc}
 38c:	70018e02 	andvc	r8, r1, r2, lsl #28
 390:	c7c8ce0a 	strbgt	ip, [r8, sl, lsl #28]
 394:	0ec4c5c6 	cdpeq	5, 12, cr12, cr4, cr6, {6}
 398:	000b4200 	andeq	r4, fp, r0, lsl #4
 39c:	0000001c 	andeq	r0, r0, ip, lsl r0
 3a0:	0000027c 	andeq	r0, r0, ip, ror r2
 3a4:	01610e88 	smulbbeq	r1, r8, lr
 3a8:	000000ec 	andeq	r0, r0, ip, ror #1
 3ac:	84180e42 	ldrhi	r0, [r8], #-3650	; 0xe42
 3b0:	86058506 	strhi	r8, [r5], -r6, lsl #10
 3b4:	88038704 	stmdahi	r3, {r2, r8, r9, sl, pc}
 3b8:	00018e02 	andeq	r8, r1, r2, lsl #28
 3bc:	00000024 	andeq	r0, r0, r4, lsr #32
 3c0:	0000027c 	andeq	r0, r0, ip, ror r2
 3c4:	01610f74 	smceq	4340	; 0x10f4
 3c8:	00000070 	andeq	r0, r0, r0, ror r0
 3cc:	84100e42 	ldrhi	r0, [r0], #-3650	; 0xe42
 3d0:	86038504 	strhi	r8, [r3], -r4, lsl #10
 3d4:	70018e02 	andvc	r8, r1, r2, lsl #28
 3d8:	c5c6ce0a 	strbgt	ip, [r6, #3594]	; 0xe0a
 3dc:	42000ec4 	andmi	r0, r0, #196, 28	; 0xc40
 3e0:	0000000b 	andeq	r0, r0, fp
 3e4:	00000028 	andeq	r0, r0, r8, lsr #32
 3e8:	0000027c 	andeq	r0, r0, ip, ror r2
 3ec:	01610fe4 	smultteq	r1, r4, pc	; <UNPREDICTABLE>
 3f0:	00000158 	andeq	r0, r0, r8, asr r1
 3f4:	84180e4c 	ldrhi	r0, [r8], #-3660	; 0xe4c
 3f8:	86058506 	strhi	r8, [r5], -r6, lsl #10
 3fc:	88038704 	stmdahi	r3, {r2, r8, r9, sl, pc}
 400:	02018e02 	andeq	r8, r1, #2, 28
 404:	c4000e9c 	strgt	r0, [r0], #-3740	; 0xe9c
 408:	c8c7c6c5 	stmiagt	r7, {r0, r2, r6, r7, r9, sl, lr, pc}^
 40c:	000000ce 	andeq	r0, r0, lr, asr #1
 410:	00000040 	andeq	r0, r0, r0, asr #32
 414:	0000027c 	andeq	r0, r0, ip, ror r2
 418:	0161113c 	cmneq	r1, ip, lsr r1
 41c:	000000cc 	andeq	r0, r0, ip, asr #1
 420:	84180e48 	ldrhi	r0, [r8], #-3656	; 0xe48
 424:	86058506 	strhi	r8, [r5], -r6, lsl #10
 428:	88038704 	stmdahi	r3, {r2, r8, r9, sl, pc}
 42c:	74018e02 	strvc	r8, [r1], #-3586	; 0xe02
 430:	c7c8ce0a 	strbgt	ip, [r8, sl, lsl #28]
 434:	0ec4c5c6 	cdpeq	5, 12, cr12, cr4, cr6, {6}
 438:	600b4200 	andvs	r4, fp, r0, lsl #4
 43c:	c5c4000e 	strbgt	r0, [r4, #14]
 440:	cec8c7c6 	cdpgt	7, 12, cr12, cr8, cr6, {6}
 444:	84180e44 	ldrhi	r0, [r8], #-3652	; 0xe44
 448:	86058506 	strhi	r8, [r5], -r6, lsl #10
 44c:	88038704 	stmdahi	r3, {r2, r8, r9, sl, pc}
 450:	00018e02 	andeq	r8, r1, r2, lsl #28
 454:	00000028 	andeq	r0, r0, r8, lsr #32
 458:	0000027c 	andeq	r0, r0, ip, ror r2
 45c:	01611208 	cmneq	r1, r8, lsl #4
 460:	0000017c 	andeq	r0, r0, ip, ror r1
 464:	84100e42 	ldrhi	r0, [r0], #-3650	; 0xe42
 468:	86038504 	strhi	r8, [r3], -r4, lsl #10
 46c:	46018e02 	strmi	r8, [r1], -r2, lsl #28
 470:	0202900e 	andeq	r9, r2, #14
 474:	100e0a9c 	mulne	lr, ip, sl
 478:	0a4a0b42 	beq	1283188 <_back_addr-0x38ce78>
 47c:	0b42100e 	bleq	10844bc <_back_addr-0x58bb44>
 480:	00000028 	andeq	r0, r0, r8, lsr #32
 484:	0000027c 	andeq	r0, r0, ip, ror r2
 488:	01611384 	cmneq	r1, r4, lsl #7
 48c:	00000108 	andeq	r0, r0, r8, lsl #2
 490:	84180e4c 	ldrhi	r0, [r8], #-3660	; 0xe4c
 494:	86058506 	strhi	r8, [r5], -r6, lsl #10
 498:	88038704 	stmdahi	r3, {r2, r8, r9, sl, pc}
 49c:	02018e02 	andeq	r8, r1, #2, 28
 4a0:	c8ce0a40 	stmiagt	lr, {r6, r9, fp}^
 4a4:	c4c5c6c7 	strbgt	ip, [r5], #1735	; 0x6c7
 4a8:	0b42000e 	bleq	10804e8 <_back_addr-0x58fb18>
 4ac:	0000000c 	andeq	r0, r0, ip
 4b0:	0000027c 	andeq	r0, r0, ip, ror r2
 4b4:	0161148c 	cmneq	r1, ip, lsl #9
 4b8:	00000028 	andeq	r0, r0, r8, lsr #32
 4bc:	0000000c 	andeq	r0, r0, ip
 4c0:	ffffffff 			; <UNDEFINED> instruction: 0xffffffff
 4c4:	7c020001 	stcvc	0, cr0, [r2], {1}
 4c8:	000d0c0e 	andeq	r0, sp, lr, lsl #24
 4cc:	00000014 	andeq	r0, r0, r4, lsl r0
 4d0:	000004bc 			; <UNDEFINED> instruction: 0x000004bc
 4d4:	016114b4 	strheq	r1, [r1, #-68]!	; 0xffffffbc
 4d8:	00000058 	andeq	r0, r0, r8, asr r0
 4dc:	84080e58 	strhi	r0, [r8], #-3672	; 0xe58
 4e0:	00018e02 	andeq	r8, r1, r2, lsl #28
 4e4:	0000000c 	andeq	r0, r0, ip
 4e8:	000004bc 			; <UNDEFINED> instruction: 0x000004bc
 4ec:	0161150c 	cmneq	r1, ip, lsl #10
 4f0:	0000002c 	andeq	r0, r0, ip, lsr #32
 4f4:	0000000c 	andeq	r0, r0, ip
 4f8:	000004bc 			; <UNDEFINED> instruction: 0x000004bc
 4fc:	01611538 	cmneq	r1, r8, lsr r5
 500:	00000030 	andeq	r0, r0, r0, lsr r0
 504:	00000014 	andeq	r0, r0, r4, lsl r0
 508:	000004bc 			; <UNDEFINED> instruction: 0x000004bc
 50c:	01611568 	cmneq	r1, r8, ror #10
 510:	0000005c 	andeq	r0, r0, ip, asr r0
 514:	8e040e50 	mcrhi	14, 0, r0, cr4, cr0, {2}
 518:	00000001 	andeq	r0, r0, r1
 51c:	00000014 	andeq	r0, r0, r4, lsl r0
 520:	000004bc 			; <UNDEFINED> instruction: 0x000004bc
 524:	016115c4 	cmneq	r1, r4, asr #11
 528:	00000058 	andeq	r0, r0, r8, asr r0
 52c:	8e040e4e 	cdphi	14, 0, cr0, cr4, cr14, {2}
 530:	00000001 	andeq	r0, r0, r1
 534:	0000000c 	andeq	r0, r0, ip
 538:	ffffffff 			; <UNDEFINED> instruction: 0xffffffff
 53c:	7c020001 	stcvc	0, cr0, [r2], {1}
 540:	000d0c0e 	andeq	r0, sp, lr, lsl #24
 544:	0000000c 	andeq	r0, r0, ip
 548:	00000534 	andeq	r0, r0, r4, lsr r5
 54c:	0161161c 	cmneq	r1, ip, lsl r6
 550:	0000001c 	andeq	r0, r0, ip, lsl r0
 554:	00000014 	andeq	r0, r0, r4, lsl r0
 558:	00000534 	andeq	r0, r0, r4, lsr r5
 55c:	01611638 	cmneq	r1, r8, lsr r6
 560:	00000054 	andeq	r0, r0, r4, asr r0
 564:	84080e46 	strhi	r0, [r8], #-3654	; 0xe46
 568:	00018e02 	andeq	r8, r1, r2, lsl #28
 56c:	0000000c 	andeq	r0, r0, ip
 570:	00000534 	andeq	r0, r0, r4, lsr r5
 574:	0161168c 	cmneq	r1, ip, lsl #13
 578:	00000028 	andeq	r0, r0, r8, lsr #32
 57c:	0000000c 	andeq	r0, r0, ip
 580:	00000534 	andeq	r0, r0, r4, lsr r5
 584:	016116b4 	strheq	r1, [r1, #-100]!	; 0xffffff9c
 588:	00000068 	andeq	r0, r0, r8, rrx
 58c:	00000024 	andeq	r0, r0, r4, lsr #32
 590:	00000534 	andeq	r0, r0, r4, lsr r5
 594:	0161171c 	cmneq	r1, ip, lsl r7
 598:	00000060 	andeq	r0, r0, r0, rrx
 59c:	84180e4a 	ldrhi	r0, [r8], #-3658	; 0xe4a
 5a0:	86058506 	strhi	r8, [r5], -r6, lsl #10
 5a4:	88038704 	stmdahi	r3, {r2, r8, r9, sl, pc}
 5a8:	62018e02 	andvs	r8, r1, #2, 28
 5ac:	c6c7c8ce 	strbgt	ip, [r7], lr, asr #17
 5b0:	000ec4c5 	andeq	ip, lr, r5, asr #9
 5b4:	0000000c 	andeq	r0, r0, ip
 5b8:	00000534 	andeq	r0, r0, r4, lsr r5
 5bc:	0161177c 	smceq	4476	; 0x117c
 5c0:	00000050 	andeq	r0, r0, r0, asr r0
 5c4:	0000000c 	andeq	r0, r0, ip
 5c8:	00000534 	andeq	r0, r0, r4, lsr r5
 5cc:	016117cc 	cmneq	r1, ip, asr #15
 5d0:	00000008 	andeq	r0, r0, r8
 5d4:	0000000c 	andeq	r0, r0, ip
 5d8:	00000534 	andeq	r0, r0, r4, lsr r5
 5dc:	016117d4 	ldrdeq	r1, [r1, #-116]!	; 0xffffff8c
 5e0:	00000004 	andeq	r0, r0, r4
 5e4:	0000000c 	andeq	r0, r0, ip
 5e8:	00000534 	andeq	r0, r0, r4, lsr r5
 5ec:	016117d8 	ldrdeq	r1, [r1, #-120]!	; 0xffffff88
 5f0:	00000024 	andeq	r0, r0, r4, lsr #32
 5f4:	0000000c 	andeq	r0, r0, ip
 5f8:	00000534 	andeq	r0, r0, r4, lsr r5
 5fc:	016117fc 	strdeq	r1, [r1, #-124]!	; 0xffffff84
 600:	0000000c 	andeq	r0, r0, ip
 604:	00000014 	andeq	r0, r0, r4, lsl r0
 608:	00000534 	andeq	r0, r0, r4, lsr r5
 60c:	01611808 	cmneq	r1, r8, lsl #16
 610:	00000054 	andeq	r0, r0, r4, asr r0
 614:	84080e46 	strhi	r0, [r8], #-3654	; 0xe46
 618:	00018e02 	andeq	r8, r1, r2, lsl #28
 61c:	0000000c 	andeq	r0, r0, ip
 620:	00000534 	andeq	r0, r0, r4, lsr r5
 624:	0161185c 	cmneq	r1, ip, asr r8
 628:	00000034 	andeq	r0, r0, r4, lsr r0
 62c:	0000002c 	andeq	r0, r0, ip, lsr #32
 630:	00000534 	andeq	r0, r0, r4, lsr r5
 634:	01611890 			; <UNDEFINED> instruction: 0x01611890
 638:	000000b0 	strheq	r0, [r0], -r0	; <UNPREDICTABLE>
 63c:	84100e46 	ldrhi	r0, [r0], #-3654	; 0xe46
 640:	86038504 	strhi	r8, [r3], -r4, lsl #10
 644:	02018e02 	andeq	r8, r1, #2, 28
 648:	c6ce0a48 	strbgt	r0, [lr], r8, asr #20
 64c:	000ec4c5 	andeq	ip, lr, r5, asr #9
 650:	ce460b42 	vmlsgt.f64	d16, d6, d2
 654:	0ec4c5c6 	cdpeq	5, 12, cr12, cr4, cr6, {6}
 658:	00000000 	andeq	r0, r0, r0
 65c:	0000000c 	andeq	r0, r0, ip
 660:	00000534 	andeq	r0, r0, r4, lsr r5
 664:	01611940 	cmneq	r1, r0, asr #18
 668:	00000024 	andeq	r0, r0, r4, lsr #32
 66c:	0000000c 	andeq	r0, r0, ip
 670:	00000534 	andeq	r0, r0, r4, lsr r5
 674:	01611964 	cmneq	r1, r4, ror #18
 678:	0000001c 	andeq	r0, r0, ip, lsl r0
 67c:	00000018 	andeq	r0, r0, r8, lsl r0
 680:	00000534 	andeq	r0, r0, r4, lsr r5
 684:	01611980 	cmneq	r1, r0, lsl #19
 688:	0000009c 	muleq	r0, ip, r0
 68c:	64080e44 	strvs	r0, [r8], #-3652	; 0xe44
 690:	42000e0a 	andmi	r0, r0, #10, 28	; 0xa0
 694:	000e620b 	andeq	r6, lr, fp, lsl #4
 698:	00000018 	andeq	r0, r0, r8, lsl r0
 69c:	00000534 	andeq	r0, r0, r4, lsr r5
 6a0:	01611a1c 	cmneq	r1, ip, lsl sl
 6a4:	00000058 	andeq	r0, r0, r8, asr r0
 6a8:	8e040e46 	cdphi	14, 0, cr0, cr4, cr6, {2}
 6ac:	000e6201 	andeq	r6, lr, r1, lsl #4
 6b0:	000000ce 	andeq	r0, r0, lr, asr #1
 6b4:	0000000c 	andeq	r0, r0, ip
 6b8:	00000534 	andeq	r0, r0, r4, lsr r5
 6bc:	01611a74 	smceq	4516	; 0x11a4
 6c0:	00000044 	andeq	r0, r0, r4, asr #32
 6c4:	0000000c 	andeq	r0, r0, ip
 6c8:	00000534 	andeq	r0, r0, r4, lsr r5
 6cc:	01611ab8 	strheq	r1, [r1, #-168]!	; 0xffffff58
 6d0:	00000028 	andeq	r0, r0, r8, lsr #32
 6d4:	0000000c 	andeq	r0, r0, ip
 6d8:	00000534 	andeq	r0, r0, r4, lsr r5
 6dc:	01611ae0 	cmneq	r1, r0, ror #21
 6e0:	00000004 	andeq	r0, r0, r4
 6e4:	0000000c 	andeq	r0, r0, ip
 6e8:	ffffffff 			; <UNDEFINED> instruction: 0xffffffff
 6ec:	7c020001 	stcvc	0, cr0, [r2], {1}
 6f0:	000d0c0e 	andeq	r0, sp, lr, lsl #24
 6f4:	00000030 	andeq	r0, r0, r0, lsr r0
 6f8:	000006e4 	andeq	r0, r0, r4, ror #13
 6fc:	01611ae4 	cmneq	r1, r4, ror #21
 700:	000001dc 	ldrdeq	r0, [r0], -ip
 704:	84240e42 	strthi	r0, [r4], #-3650	; 0xe42
 708:	86088509 	strhi	r8, [r8], -r9, lsl #10
 70c:	88068707 	stmdahi	r6, {r0, r1, r2, r8, r9, sl, pc}
 710:	8a048905 	bhi	122b2c <_back_addr-0x14ed4d4>
 714:	8e028b03 	vmlahi.f64	d8, d2, d3
 718:	780e4401 	stmdavc	lr, {r0, sl, lr}
 71c:	0e0ad802 	cdpeq	8, 0, cr13, cr10, cr2, {0}
 720:	4c0b4224 	sfmmi	f4, 4, [fp], {36}	; 0x24
 724:	0000240e 	andeq	r2, r0, lr, lsl #8
 728:	0000001c 	andeq	r0, r0, ip, lsl r0
 72c:	000006e4 	andeq	r0, r0, r4, ror #13
 730:	01611cc0 	cmneq	r1, r0, asr #25
 734:	000000b0 	strheq	r0, [r0], -r0	; <UNPREDICTABLE>
 738:	84180e42 	ldrhi	r0, [r8], #-3650	; 0xe42
 73c:	86058506 	strhi	r8, [r5], -r6, lsl #10
 740:	88038704 	stmdahi	r3, {r2, r8, r9, sl, pc}
 744:	00018e02 	andeq	r8, r1, r2, lsl #28
 748:	0000000c 	andeq	r0, r0, ip
 74c:	000006e4 	andeq	r0, r0, r4, ror #13
 750:	01611d70 	smceq	4560	; 0x11d0
 754:	00000030 	andeq	r0, r0, r0, lsr r0
 758:	00000014 	andeq	r0, r0, r4, lsl r0
 75c:	000006e4 	andeq	r0, r0, r4, ror #13
 760:	01611da0 	cmneq	r1, r0, lsr #27
 764:	0000003c 	andeq	r0, r0, ip, lsr r0
 768:	84080e42 	strhi	r0, [r8], #-3650	; 0xe42
 76c:	00018e02 	andeq	r8, r1, r2, lsl #28
 770:	0000000c 	andeq	r0, r0, ip
 774:	000006e4 	andeq	r0, r0, r4, ror #13
 778:	01611ddc 	ldrdeq	r1, [r1, #-220]!	; 0xffffff24
 77c:	00000004 	andeq	r0, r0, r4
 780:	00000014 	andeq	r0, r0, r4, lsl r0
 784:	000006e4 	andeq	r0, r0, r4, ror #13
 788:	01611de0 	cmneq	r1, r0, ror #27
 78c:	00000040 	andeq	r0, r0, r0, asr #32
 790:	84080e46 	strhi	r0, [r8], #-3654	; 0xe46
 794:	00018e02 	andeq	r8, r1, r2, lsl #28
 798:	00000028 	andeq	r0, r0, r8, lsr #32
 79c:	000006e4 	andeq	r0, r0, r4, ror #13
 7a0:	01611e20 	cmneq	r1, r0, lsr #28
 7a4:	000000ac 	andeq	r0, r0, ip, lsr #1
 7a8:	84180e42 	ldrhi	r0, [r8], #-3650	; 0xe42
 7ac:	86058506 	strhi	r8, [r5], -r6, lsl #10
 7b0:	88038704 	stmdahi	r3, {r2, r8, r9, sl, pc}
 7b4:	02018e02 	andeq	r8, r1, #2, 28
 7b8:	c7c8ce52 			; <UNDEFINED> instruction: 0xc7c8ce52
 7bc:	0ec4c5c6 	cdpeq	5, 12, cr12, cr4, cr6, {6}
 7c0:	00000000 	andeq	r0, r0, r0
 7c4:	00000014 	andeq	r0, r0, r4, lsl r0
 7c8:	000006e4 	andeq	r0, r0, r4, ror #13
 7cc:	01611ecc 	cmneq	r1, ip, asr #29
 7d0:	00000034 	andeq	r0, r0, r4, lsr r0
 7d4:	84080e42 	strhi	r0, [r8], #-3650	; 0xe42
 7d8:	00018e02 	andeq	r8, r1, r2, lsl #28
 7dc:	00000014 	andeq	r0, r0, r4, lsl r0
 7e0:	000006e4 	andeq	r0, r0, r4, ror #13
 7e4:	01611f00 	cmneq	r1, r0, lsl #30
 7e8:	00000064 	andeq	r0, r0, r4, rrx
 7ec:	84080e42 	strhi	r0, [r8], #-3650	; 0xe42
 7f0:	00018e02 	andeq	r8, r1, r2, lsl #28
 7f4:	00000014 	andeq	r0, r0, r4, lsl r0
 7f8:	000006e4 	andeq	r0, r0, r4, ror #13
 7fc:	01611f64 	cmneq	r1, r4, ror #30
 800:	0000006c 	andeq	r0, r0, ip, rrx
 804:	84080e44 	strhi	r0, [r8], #-3652	; 0xe44
 808:	00018e02 	andeq	r8, r1, r2, lsl #28
 80c:	00000014 	andeq	r0, r0, r4, lsl r0
 810:	000006e4 	andeq	r0, r0, r4, ror #13
 814:	01611fd0 	ldrdeq	r1, [r1, #-240]!	; 0xffffff10
 818:	00000020 	andeq	r0, r0, r0, lsr #32
 81c:	84080e42 	strhi	r0, [r8], #-3650	; 0xe42
 820:	00018e02 	andeq	r8, r1, r2, lsl #28
 824:	00000014 	andeq	r0, r0, r4, lsl r0
 828:	000006e4 	andeq	r0, r0, r4, ror #13
 82c:	01611ff0 	strdeq	r1, [r1, #-240]!	; 0xffffff10
 830:	00000028 	andeq	r0, r0, r8, lsr #32
 834:	84080e42 	strhi	r0, [r8], #-3650	; 0xe42
 838:	00018e02 	andeq	r8, r1, r2, lsl #28
 83c:	00000014 	andeq	r0, r0, r4, lsl r0
 840:	000006e4 	andeq	r0, r0, r4, ror #13
 844:	01612018 	cmneq	r1, r8, lsl r0
 848:	00000028 	andeq	r0, r0, r8, lsr #32
 84c:	84080e42 	strhi	r0, [r8], #-3650	; 0xe42
 850:	00018e02 	andeq	r8, r1, r2, lsl #28
 854:	00000014 	andeq	r0, r0, r4, lsl r0
 858:	000006e4 	andeq	r0, r0, r4, ror #13
 85c:	01612040 	cmneq	r1, r0, asr #32
 860:	00000028 	andeq	r0, r0, r8, lsr #32
 864:	84080e42 	strhi	r0, [r8], #-3650	; 0xe42
 868:	00018e02 	andeq	r8, r1, r2, lsl #28
 86c:	00000014 	andeq	r0, r0, r4, lsl r0
 870:	000006e4 	andeq	r0, r0, r4, ror #13
 874:	01612068 	cmneq	r1, r8, rrx
 878:	00000028 	andeq	r0, r0, r8, lsr #32
 87c:	84080e42 	strhi	r0, [r8], #-3650	; 0xe42
 880:	00018e02 	andeq	r8, r1, r2, lsl #28
 884:	00000014 	andeq	r0, r0, r4, lsl r0
 888:	000006e4 	andeq	r0, r0, r4, ror #13
 88c:	01612090 			; <UNDEFINED> instruction: 0x01612090
 890:	00000028 	andeq	r0, r0, r8, lsr #32
 894:	84080e42 	strhi	r0, [r8], #-3650	; 0xe42
 898:	00018e02 	andeq	r8, r1, r2, lsl #28
 89c:	00000014 	andeq	r0, r0, r4, lsl r0
 8a0:	000006e4 	andeq	r0, r0, r4, ror #13
 8a4:	016120b8 	strheq	r2, [r1, #-8]!
 8a8:	00000028 	andeq	r0, r0, r8, lsr #32
 8ac:	84080e42 	strhi	r0, [r8], #-3650	; 0xe42
 8b0:	00018e02 	andeq	r8, r1, r2, lsl #28
 8b4:	00000014 	andeq	r0, r0, r4, lsl r0
 8b8:	000006e4 	andeq	r0, r0, r4, ror #13
 8bc:	016120e0 	cmneq	r1, r0, ror #1
 8c0:	0000007c 	andeq	r0, r0, ip, ror r0
 8c4:	84080e46 	strhi	r0, [r8], #-3654	; 0xe46
 8c8:	00018e02 	andeq	r8, r1, r2, lsl #28
 8cc:	00000014 	andeq	r0, r0, r4, lsl r0
 8d0:	000006e4 	andeq	r0, r0, r4, ror #13
 8d4:	0161215c 	cmneq	r1, ip, asr r1
 8d8:	0000007c 	andeq	r0, r0, ip, ror r0
 8dc:	84080e46 	strhi	r0, [r8], #-3654	; 0xe46
 8e0:	00018e02 	andeq	r8, r1, r2, lsl #28
 8e4:	00000014 	andeq	r0, r0, r4, lsl r0
 8e8:	000006e4 	andeq	r0, r0, r4, ror #13
 8ec:	016121d8 	ldrdeq	r2, [r1, #-24]!	; 0xffffffe8
 8f0:	0000009c 	muleq	r0, ip, r0
 8f4:	84080e42 	strhi	r0, [r8], #-3650	; 0xe42
 8f8:	00018e02 	andeq	r8, r1, r2, lsl #28
 8fc:	00000018 	andeq	r0, r0, r8, lsl r0
 900:	000006e4 	andeq	r0, r0, r4, ror #13
 904:	01612274 	smceq	4644	; 0x1224
 908:	00000080 	andeq	r0, r0, r0, lsl #1
 90c:	8e040e4e 	cdphi	14, 0, cr0, cr4, cr14, {2}
 910:	000e6e01 	andeq	r6, lr, r1, lsl #28
 914:	000000ce 	andeq	r0, r0, lr, asr #1
 918:	00000018 	andeq	r0, r0, r8, lsl r0
 91c:	000006e4 	andeq	r0, r0, r4, ror #13
 920:	016122f4 	strdeq	r2, [r1, #-36]!	; 0xffffffdc
 924:	00000054 	andeq	r0, r0, r4, asr r0
 928:	8e040e48 	cdphi	14, 0, cr0, cr4, cr8, {2}
 92c:	000e5e01 	andeq	r5, lr, r1, lsl #28
 930:	000000ce 	andeq	r0, r0, lr, asr #1
 934:	00000014 	andeq	r0, r0, r4, lsl r0
 938:	000006e4 	andeq	r0, r0, r4, ror #13
 93c:	01612348 	cmneq	r1, r8, asr #6
 940:	0000006c 	andeq	r0, r0, ip, rrx
 944:	84080e42 	strhi	r0, [r8], #-3650	; 0xe42
 948:	00018e02 	andeq	r8, r1, r2, lsl #28

Disassembly of section .debug_str:

00000000 <.debug_str>:
   0:	6c727473 	cfldrdvs	mvd7, [r2], #-460	; 0xfffffe34
   4:	632e6e65 	teqvs	lr, #1616	; 0x650
   8:	72747300 	rsbsvc	r7, r4, #0, 6
   c:	006e656c 	rsbeq	r6, lr, ip, ror #10
  10:	69736e75 	ldmdbvs	r3!, {r0, r2, r4, r5, r6, r9, sl, fp, sp, lr}^
  14:	64656e67 	strbtvs	r6, [r5], #-3687	; 0xe67
  18:	61686320 	cmnvs	r8, r0, lsr #6
  1c:	68730072 	ldmdavs	r3!, {r1, r4, r5, r6}^
  20:	2074726f 	rsbscs	r7, r4, pc, ror #4
  24:	69736e75 	ldmdbvs	r3!, {r0, r2, r4, r5, r6, r9, sl, fp, sp, lr}^
  28:	64656e67 	strbtvs	r6, [r5], #-3687	; 0xe67
  2c:	746e6920 	strbtvc	r6, [lr], #-2336	; 0x920
  30:	6f682f00 	svcvs	0x00682f00
  34:	662f656d 	strtvs	r6, [pc], -sp, ror #10
  38:	6e2f6561 	cfsh64vs	mvdx6, mvdx15, #49
  3c:	732f7361 	teqvc	pc, #-2080374783	; 0x84000001
  40:	312f6e76 	teqcc	pc, r6, ror lr	; <UNPREDICTABLE>
  44:	2f353932 	svccs	0x00353932
  48:	6e757274 	mrcvs	2, 3, r7, cr5, cr4, {3}
  4c:	2e362d6b 	cdpcs	13, 3, cr2, cr6, cr11, {3}
  50:	5f302e30 	svcpl	0x00302e30
  54:	622f3172 	eorvs	r3, pc, #-2147483620	; 0x8000001c
  58:	63746f6f 	cmnvs	r4, #444	; 0x1bc
  5c:	2f65646f 	svccs	0x0065646f
  60:	6f6f6275 	svcvs	0x006f6275
  64:	78652f74 	stmdavc	r5!, {r2, r4, r5, r6, r8, r9, sl, fp, sp}^
  68:	6c706d61 	ldclvs	13, cr6, [r0], #-388	; 0xfffffe7c
  6c:	652f7365 	strvs	r7, [pc, #-869]!	; fffffd0f <__bss_end__+0xfe9dd14f>
  70:	65737566 	ldrbvs	r7, [r3, #-1382]!	; 0x566
  74:	7265765f 	rsbvc	r7, r5, #99614720	; 0x5f00000
  78:	00796669 	rsbseq	r6, r9, r9, ror #12
  7c:	676e6f6c 	strbvs	r6, [lr, -ip, ror #30]!
  80:	6e6f6c20 	cdpvs	12, 6, cr6, cr15, cr0, {1}
  84:	6e752067 	cdpvs	0, 7, cr2, cr5, cr7, {3}
  88:	6e676973 	mcrvs	9, 3, r6, cr7, cr3, {3}
  8c:	69206465 	stmdbvs	r0!, {r0, r2, r5, r6, sl, sp, lr}
  90:	6c00746e 	cfstrsvs	mvf7, [r0], {110}	; 0x6e
  94:	20676e6f 	rsbcs	r6, r7, pc, ror #28
  98:	676e6f6c 	strbvs	r6, [lr, -ip, ror #30]!
  9c:	746e6920 	strbtvc	r6, [lr], #-2336	; 0x920
  a0:	6f687300 	svcvs	0x00687300
  a4:	69207472 	stmdbvs	r0!, {r1, r4, r5, r6, sl, ip, sp, lr}
  a8:	4700746e 	strmi	r7, [r0, -lr, ror #8]
  ac:	4320554e 	teqmi	r0, #327155712	; 0x13800000
  b0:	392e3420 	stmdbcc	lr!, {r5, sl, ip, sp}
  b4:	3220332e 	eorcc	r3, r0, #-1207959552	; 0xb8000000
  b8:	30353130 	eorscc	r3, r5, r0, lsr r1
  bc:	20333134 	eorscs	r3, r3, r4, lsr r1
  c0:	65727028 	ldrbvs	r7, [r2, #-40]!	; 0x28
  c4:	656c6572 	strbvs	r6, [ip, #-1394]!	; 0x572
  c8:	29657361 	stmdbcs	r5!, {r0, r5, r6, r8, r9, ip, sp, lr}^
  cc:	6c6d2d20 	stclvs	13, cr2, [sp], #-128	; 0xffffff80
  d0:	6c747469 	cfldrdvs	mvd7, [r4], #-420	; 0xfffffe5c
  d4:	6e652d65 	cdpvs	13, 6, cr2, cr5, cr5, {3}
  d8:	6e616964 	cdpvs	9, 6, cr6, cr1, cr4, {3}
  dc:	666d2d20 	strbtvs	r2, [sp], -r0, lsr #26
  e0:	6e3d7570 	mrcvs	5, 1, r7, cr13, cr0, {3}
  e4:	206e6f65 	rsbcs	r6, lr, r5, ror #30
  e8:	6c666d2d 	stclvs	13, cr6, [r6], #-180	; 0xffffff4c
  ec:	2d74616f 	ldfcse	f6, [r4, #-444]!	; 0xfffffe44
  f0:	3d696261 	sfmcc	f6, 2, [r9, #-388]!	; 0xfffffe7c
  f4:	74666f73 	strbtvc	r6, [r6], #-3955	; 0xf73
  f8:	2d207066 	stccs	0, cr7, [r0, #-408]!	; 0xfffffe68
  fc:	6e75746d 	cdpvs	4, 7, cr7, cr5, cr13, {3}
 100:	6f633d65 	svcvs	0x00633d65
 104:	78657472 	stmdavc	r5!, {r1, r4, r5, r6, sl, ip, sp, lr}^
 108:	3335612d 	teqcc	r5, #1073741835	; 0x4000000b
 10c:	666d2d20 	strbtvs	r2, [sp], -r0, lsr #26
 110:	74616f6c 	strbtvc	r6, [r1], #-3948	; 0xf6c
 114:	6962612d 	stmdbvs	r2!, {r0, r2, r3, r5, r8, sp, lr}^
 118:	666f733d 			; <UNDEFINED> instruction: 0x666f733d
 11c:	6d2d2074 	stcvs	0, cr2, [sp, #-464]!	; 0xfffffe30
 120:	6d756874 	ldclvs	8, cr6, [r5, #-464]!	; 0xfffffe30
 124:	6e692d62 	cdpvs	13, 6, cr2, cr9, cr2, {3}
 128:	77726574 			; <UNDEFINED> instruction: 0x77726574
 12c:	206b726f 	rsbcs	r7, fp, pc, ror #4
 130:	72616d2d 	rsbvc	r6, r1, #2880	; 0xb40
 134:	6d2d206d 	stcvs	0, cr2, [sp, #-436]!	; 0xfffffe4c
 138:	3d696261 	sfmcc	f6, 2, [r9, #-388]!	; 0xfffffe7c
 13c:	63706161 	cmnvs	r0, #1073741848	; 0x40000018
 140:	696c2d73 	stmdbvs	ip!, {r0, r1, r4, r5, r6, r8, sl, fp, sp}^
 144:	2078756e 	rsbscs	r7, r8, lr, ror #10
 148:	72616d2d 	rsbvc	r6, r1, #2880	; 0xb40
 14c:	613d6863 	teqvs	sp, r3, ror #16
 150:	38766d72 	ldmdacc	r6!, {r1, r4, r5, r6, r8, sl, fp, sp, lr}^
 154:	2d20612d 	stfcss	f6, [r0, #-180]!	; 0xffffff4c
 158:	736c746d 	cmnvc	ip, #1828716544	; 0x6d000000
 15c:	6169642d 	cmnvs	r9, sp, lsr #8
 160:	7463656c 	strbtvc	r6, [r3], #-1388	; 0x56c
 164:	756e673d 	strbvc	r6, [lr, #-1853]!	; 0x73d
 168:	20672d20 	rsbcs	r2, r7, r0, lsr #26
 16c:	20324f2d 	eorscs	r4, r2, sp, lsr #30
 170:	7375662d 	cmnvc	r5, #47185920	; 0x2d00000
 174:	6c742d65 	ldclvs	13, cr2, [r4], #-404	; 0xfffffe6c
 178:	662d2073 			; <UNDEFINED> instruction: 0x662d2073
 17c:	632d6f6e 	teqvs	sp, #440	; 0x1b8
 180:	6f6d6d6f 	svcvs	0x006d6d6f
 184:	662d206e 	strtvs	r2, [sp], -lr, rrx
 188:	6f72657a 	svcvs	0x0072657a
 18c:	696e692d 	stmdbvs	lr!, {r0, r2, r3, r5, r8, fp, sp, lr}^
 190:	6c616974 	stclvs	9, cr6, [r1], #-464	; 0xfffffe30
 194:	64657a69 	strbtvs	r7, [r5], #-2665	; 0xa69
 198:	2d6e692d 	stclcs	9, cr6, [lr, #-180]!	; 0xffffff4c
 19c:	20737362 	rsbscs	r7, r3, r2, ror #6
 1a0:	6f6e662d 	svcvs	0x006e662d
 1a4:	6975622d 	ldmdbvs	r5!, {r0, r2, r3, r5, r9, sp, lr}^
 1a8:	6e69746c 	cdpvs	4, 6, cr7, cr9, cr12, {3}
 1ac:	66662d20 	strbtvs	r2, [r6], -r0, lsr #26
 1b0:	73656572 	cmnvc	r5, #478150656	; 0x1c800000
 1b4:	646e6174 	strbtvs	r6, [lr], #-372	; 0x174
 1b8:	00676e69 	rsbeq	r6, r7, r9, ror #28
 1bc:	73727473 	cmnvc	r2, #1929379840	; 0x73000000
 1c0:	632e7274 	teqvs	lr, #116, 4	; 0x40000007
 1c4:	72747300 	rsbsvc	r7, r4, #0, 6
 1c8:	00727473 	rsbseq	r7, r2, r3, ror r4
 1cc:	70646e65 	rsbvc	r6, r4, r5, ror #28
 1d0:	63007274 	movwvs	r7, #628	; 0x274
 1d4:	696c7475 	stmdbvs	ip!, {r0, r2, r4, r5, r6, sl, ip, sp, lr}^
 1d8:	7473006d 	ldrbtvc	r0, [r3], #-109	; 0x6d
 1dc:	756f7472 	strbvc	r7, [pc, #-1138]!	; fffffd72 <__bss_end__+0xfe9dd1b2>
 1e0:	7473006c 	ldrbtvc	r0, [r3], #-108	; 0x6c
 1e4:	756f7472 	strbvc	r7, [pc, #-1138]!	; fffffd7a <__bss_end__+0xfe9dd1ba>
 1e8:	00632e6c 	rsbeq	r2, r3, ip, ror #28
 1ec:	65736162 	ldrbvs	r6, [r3, #-354]!	; 0x162
 1f0:	74756300 	ldrbtvc	r6, [r5], #-768	; 0x300
 1f4:	0066666f 	rsbeq	r6, r6, pc, ror #12
 1f8:	7974635f 	ldmdbvc	r4!, {r0, r1, r2, r3, r4, r6, r8, r9, sp, lr}^
 1fc:	63006570 	movwvs	r6, #1392	; 0x570
 200:	65707974 	ldrbvs	r7, [r0, #-2420]!	; 0x974
 204:	7300632e 	movwvc	r6, #814	; 0x32e
 208:	74657a69 	strbtvc	r7, [r5], #-2665	; 0xa69
 20c:	00657079 	rsbeq	r7, r5, r9, ror r0
 210:	4e746567 	cdpmi	5, 7, cr6, cr4, cr7, {3}
 214:	68537765 	ldmdavs	r3, {r0, r2, r5, r6, r8, r9, sl, ip, sp, lr}^
 218:	36353261 	ldrtcc	r3, [r5], -r1, ror #4
 21c:	6e676953 	mcrvs	9, 3, r6, cr7, cr3, {2}
 220:	72757461 	rsbsvc	r7, r5, #1627389952	; 0x61000000
 224:	74630065 	strbtvc	r0, [r3], #-101	; 0x65
 228:	00636c72 	rsbeq	r6, r3, r2, ror ip
 22c:	74736564 	ldrbtvc	r6, [r3], #-1380	; 0x564
 230:	5f776600 	svcpl	0x00776600
 234:	72646461 	rsbvc	r6, r4, #1627389952	; 0x61000000
 238:	74656700 	strbtvc	r6, [r5], #-1792	; 0x700
 23c:	5367724f 	cmnpl	r7, #-268435452	; 0xf0000004
 240:	35326168 	ldrcc	r6, [r2, #-360]!	; 0x168
 244:	67695336 			; <UNDEFINED> instruction: 0x67695336
 248:	7574616e 	ldrbvc	r6, [r4, #-366]!	; 0x16e
 24c:	53006572 	movwpl	r6, #1394	; 0x572
 250:	35324148 	ldrcc	r4, [r2, #-328]!	; 0x148
 254:	61685f36 	cmnvs	r8, r6, lsr pc
 258:	64006873 	strvs	r6, [r0], #-2163	; 0x873
 25c:	6f675f6f 	svcvs	0x00675f6f
 260:	6578655f 	ldrbvs	r6, [r8, #-1375]!	; 0x55f
 264:	65760063 	ldrbvs	r0, [r6, #-99]!	; 0x63
 268:	79666972 	stmdbvc	r6!, {r1, r4, r5, r6, r8, fp, sp, lr}^
 26c:	6e69616d 	powvsez	f6, f1, #5.0
 270:	53454100 	movtpl	r4, #20736	; 0x5100
 274:	4243455f 	submi	r4, r3, #398458880	; 0x17c00000
 278:	6365645f 	cmnvs	r5, #1593835520	; 0x5f000000
 27c:	74707972 	ldrbtvc	r7, [r0], #-2418	; 0x972
 280:	4e495500 	cdpmi	5, 4, cr5, cr9, cr0, {0}
 284:	00323354 	eorseq	r3, r2, r4, asr r3
 288:	636d656d 	cmnvs	sp, #457179136	; 0x1b400000
 28c:	66007970 			; <UNDEFINED> instruction: 0x66007970
 290:	6873756c 	ldmdavs	r3!, {r2, r3, r5, r6, r8, sl, ip, sp, lr}^
 294:	6361635f 	cmnvs	r1, #2080374785	; 0x7c000001
 298:	76006568 	strvc	r6, [r0], -r8, ror #10
 29c:	66697265 	strbtvs	r7, [r9], -r5, ror #4
 2a0:	69616d79 	stmdbvs	r1!, {r0, r3, r4, r5, r6, r8, sl, fp, sp, lr}^
 2a4:	00632e6e 	rsbeq	r2, r3, lr, ror #28
 2a8:	636d656d 	cmnvs	sp, #457179136	; 0x1b400000
 2ac:	7300706d 	movwvc	r7, #109	; 0x6d
 2b0:	5f706177 	svcpl	0x00706177
 2b4:	69646e65 	stmdbvs	r4!, {r0, r2, r5, r6, r9, sl, fp, sp, lr}^
 2b8:	6d006e61 	stcvs	14, cr6, [r0, #-388]	; 0xfffffe7c
 2bc:	65736d65 	ldrbvs	r6, [r3, #-3429]!	; 0xd65
 2c0:	636d0074 	cmnvs	sp, #116	; 0x74
 2c4:	73645f70 	cmnvc	r4, #112, 30	; 0x1c0
 2c8:	5f747063 	svcpl	0x00747063
 2cc:	72646461 	rsbvc	r6, r4, #1627389952	; 0x61000000
 2d0:	69727000 	ldmdbvs	r2!, {ip, sp, lr}^
 2d4:	0073746e 	rsbseq	r7, r3, lr, ror #8
 2d8:	38637273 	stmdacc	r3!, {r0, r1, r4, r5, r6, r9, ip, sp, lr}^
 2dc:	67726100 	ldrbvs	r6, [r2, -r0, lsl #2]!
 2e0:	45410076 	strbmi	r0, [r1, #-118]	; 0x76
 2e4:	42435f53 	submi	r5, r3, #332	; 0x14c
 2e8:	65645f43 	strbvs	r5, [r4, #-3907]!	; 0xf43
 2ec:	70797263 	rsbsvc	r7, r9, r3, ror #4
 2f0:	6e650074 	mcrvs	0, 3, r0, cr5, cr4, {3}
 2f4:	00797274 	rsbseq	r7, r9, r4, ror r2
 2f8:	5f736561 	svcpl	0x00736561
 2fc:	0079656b 	rsbseq	r6, r9, fp, ror #10
 300:	38747364 	ldmdacc	r4!, {r2, r5, r6, r8, r9, ip, sp, lr}^
 304:	61737200 	cmnvs	r3, r0, lsl #4
 308:	6275705f 	rsbsvs	r7, r5, #95	; 0x5f
 30c:	79656b5f 	stmdbvc	r5!, {r0, r1, r2, r3, r4, r6, r8, r9, fp, sp, lr}^
 310:	5f6f6400 	svcpl	0x006f6400
 314:	00415352 	subeq	r5, r1, r2, asr r3
 318:	6e6f6c75 	mcrvs	12, 3, r6, cr15, cr5, {3}
 31c:	72610067 	rsbvc	r0, r1, #103	; 0x67
 320:	6f006367 	svcvs	0x00006367
 324:	615f7475 	cmpvs	pc, r5, ror r4	; <UNPREDICTABLE>
 328:	00726464 	rsbseq	r6, r2, r4, ror #8
 32c:	5f746573 	svcpl	0x00746573
 330:	75636f66 	strbvc	r6, [r3, #-3942]!	; 0xf66
 334:	61755f73 	cmnvs	r5, r3, ror pc
 338:	61007472 	tstvs	r0, r2, ror r4
 33c:	6b5f7365 	blvs	17dd0d8 <__bss_end__+0x1ba518>
 340:	655f7965 	ldrbvs	r7, [pc, #-2405]	; fffff9e3 <__bss_end__+0xfe9dce23>
 344:	6400646e 	strvs	r6, [r0], #-1134	; 0x46e
 348:	65765f6f 	ldrbvs	r5, [r6, #-3951]!	; 0xf6f
 34c:	79666972 	stmdbvc	r6!, {r1, r4, r5, r6, r8, fp, sp, lr}^
 350:	73656100 	cmnvc	r5, #0, 2
 354:	79656b5f 	stmdbvc	r5!, {r0, r1, r2, r3, r4, r6, r8, r9, fp, sp, lr}^
 358:	7a69735f 	bvc	1a5d0dc <__bss_end__+0x43a51c>
 35c:	69730065 	ldmdbvs	r3!, {r0, r2, r5, r6}^
 360:	656e5f67 	strbvs	r5, [lr, #-3943]!	; 0xf67
 364:	72700077 	rsbsvc	r0, r0, #119	; 0x77
 368:	66746e69 	ldrbtvs	r6, [r4], -r9, ror #28
 36c:	696e6900 	stmdbvs	lr!, {r8, fp, sp, lr}^
 370:	61755f74 	cmnvs	r5, r4, ror pc
 374:	2f007472 	svccs	0x00007472
 378:	656d6f68 	strbvs	r6, [sp, #-3944]!	; 0xf68
 37c:	756f6c2f 	strbvc	r6, [pc, #-3119]!	; fffff755 <__bss_end__+0xfe9dcb95>
 380:	312f7369 	teqcc	pc, r9, ror #6
 384:	2f353932 	svccs	0x00353932
 388:	746f6f62 	strbtvc	r6, [pc], #-3938	; 390 <_back_addr-0x160fc70>
 38c:	65646f63 	strbvs	r6, [r4, #-3939]!	; 0xf63
 390:	6f62752f 	svcvs	0x0062752f
 394:	652f746f 	strvs	r7, [pc, #-1135]!	; ffffff2d <__bss_end__+0xfe9dd36d>
 398:	706d6178 	rsbvc	r6, sp, r8, ror r1
 39c:	2f73656c 	svccs	0x0073656c
 3a0:	73756665 	cmnvc	r5, #105906176	; 0x6500000
 3a4:	65765f65 	ldrbvs	r5, [r6, #-3941]!	; 0xf65
 3a8:	79666972 	stmdbvc	r6!, {r1, r4, r5, r6, r8, fp, sp, lr}^
 3ac:	6e797300 	cdpvs	3, 7, cr7, cr9, cr0, {0}
 3b0:	73720063 	cmnvc	r2, #99	; 0x63
 3b4:	75705f61 	ldrbvc	r5, [r0, #-3937]!	; 0xf61
 3b8:	656b5f62 	strbvs	r5, [fp, #-3938]!	; 0xf62
 3bc:	6e655f79 	mcrvs	15, 3, r5, cr5, cr9, {3}
 3c0:	65720064 	ldrbvs	r0, [r2, #-100]!	; 0x64
 3c4:	6c5f6c61 	mrrcvs	12, 6, r6, pc, cr1	; <UNPREDICTABLE>
 3c8:	72006e65 	andvc	r6, r0, #1616	; 0x650
 3cc:	705f6173 	subsvc	r6, pc, r3, ror r1	; <UNPREDICTABLE>
 3d0:	6b5f6275 	blvs	17d8dac <__bss_end__+0x1b61ec>
 3d4:	735f7965 	cmpvc	pc, #1654784	; 0x194000
 3d8:	00657a69 	rsbeq	r7, r5, r9, ror #20
 3dc:	5f676973 	svcpl	0x00676973
 3e0:	0067726f 	rsbeq	r7, r7, pc, ror #4
 3e4:	5f746573 	svcpl	0x00746573
 3e8:	65737363 	ldrbvs	r7, [r3, #-867]!	; 0x363
 3ec:	6900726c 	stmdbvs	r0, {r2, r3, r5, r6, r9, ip, sp, lr}
 3f0:	6c61766e 	stclvs	6, cr7, [r1], #-440	; 0xfffffe48
 3f4:	74616469 	strbtvc	r6, [r1], #-1129	; 0x469
 3f8:	63695f65 	cmnvs	r9, #404	; 0x194
 3fc:	65686361 	strbvs	r6, [r8, #-865]!	; 0x361
 400:	6c6c615f 	stfvse	f6, [ip], #-380	; 0xfffffe84
 404:	74656700 	strbtvc	r6, [r5], #-1792	; 0x700
 408:	696c635f 	stmdbvs	ip!, {r0, r1, r2, r3, r4, r6, r8, r9, sp, lr}^
 40c:	66007264 	strvs	r7, [r0], -r4, ror #4
 410:	6873756c 	ldmdavs	r3!, {r2, r3, r5, r6, r8, sl, ip, sp, lr}^
 414:	6163645f 	cmnvs	r3, pc, asr r4
 418:	5f656863 	svcpl	0x00656863
 41c:	676e6172 			; <UNDEFINED> instruction: 0x676e6172
 420:	37760065 	ldrbcc	r0, [r6, -r5, rrx]!
 424:	766e695f 			; <UNDEFINED> instruction: 0x766e695f
 428:	645f6c61 	ldrbvs	r6, [pc], #-3169	; 430 <_back_addr-0x160fbd0>
 42c:	68636163 	stmdavs	r3!, {r0, r1, r5, r6, r8, sp, lr}^
 430:	656c5f65 	strbvs	r5, [ip, #-3941]!	; 0xf65
 434:	5f6c6576 	svcpl	0x006c6576
 438:	77746573 			; <UNDEFINED> instruction: 0x77746573
 43c:	4e007961 	cdpmi	9, 0, cr7, cr0, cr1, {3}
 440:	4f4c5445 	svcmi	0x004c5445
 444:	535f504f 	cmppl	pc, #79	; 0x4f
 448:	45434355 	strbmi	r4, [r3, #-853]	; 0x355
 44c:	74005353 	strvc	r5, [r0], #-851	; 0x353
 450:	00706d65 	rsbseq	r6, r0, r5, ror #26
 454:	5f74656e 	svcpl	0x0074656e
 458:	74617473 	strbtvc	r7, [r1], #-1139	; 0x473
 45c:	6e690065 	cdpvs	0, 6, cr0, cr9, cr5, {3}
 460:	696c6176 	stmdbvs	ip!, {r1, r2, r4, r5, r6, r8, sp, lr}^
 464:	65746164 	ldrbvs	r6, [r4, #-356]!	; 0x164
 468:	6163645f 	cmnvs	r3, pc, asr r4
 46c:	5f656863 	svcpl	0x00656863
 470:	676e6172 			; <UNDEFINED> instruction: 0x676e6172
 474:	5f5f0065 	svcpl	0x005f0065
 478:	6f5f3776 	svcvs	0x005f3776
 47c:	72657475 	rsbvc	r7, r5, #1962934272	; 0x75000000
 480:	6361635f 	cmnvs	r1, #2080374785	; 0x7c000001
 484:	665f6568 	ldrbvs	r6, [pc], -r8, ror #10
 488:	6873756c 	ldmdavs	r3!, {r2, r3, r5, r6, r8, sl, ip, sp, lr}^
 48c:	6e61725f 	mcrvs	2, 3, r7, cr1, cr15, {2}
 490:	76006567 	strvc	r6, [r0], -r7, ror #10
 494:	616d5f37 	cmnvs	sp, r7, lsr pc
 498:	5f746e69 	svcpl	0x00746e69
 49c:	63616364 	cmnvs	r1, #100, 6	; 0x90000001
 4a0:	615f6568 	cmpvs	pc, r8, ror #10
 4a4:	76006c6c 	strvc	r6, [r0], -ip, ror #24
 4a8:	616d5f37 	cmnvs	sp, r7, lsr pc
 4ac:	5f746e69 	svcpl	0x00746e69
 4b0:	63616364 	cmnvs	r1, #100, 6	; 0x90000001
 4b4:	6c5f6568 	cfldr64vs	mvdx6, [pc], {104}	; 0x68
 4b8:	6c657665 	stclvs	6, cr7, [r5], #-404	; 0xfffffe6c
 4bc:	7465735f 	strbtvc	r7, [r5], #-863	; 0x35f
 4c0:	00796177 	rsbseq	r6, r9, r7, ror r1
 4c4:	4c54454e 	cfldr64mi	mvdx4, [r4], {78}	; 0x4e
 4c8:	5f504f4f 	svcpl	0x00504f4f
 4cc:	54534552 	ldrbpl	r4, [r3], #-1362	; 0x552
 4d0:	00545241 	subseq	r5, r4, r1, asr #4
 4d4:	695f3776 	ldmdbvs	pc, {r1, r2, r4, r5, r6, r8, r9, sl, ip, sp}^	; <UNPREDICTABLE>
 4d8:	6c61766e 	stclvs	6, cr7, [r1], #-440	; 0xfffffe48
 4dc:	626c745f 	rsbvs	r7, ip, #1593835520	; 0x5f000000
 4e0:	765f5f00 	ldrbvc	r5, [pc], -r0, lsl #30
 4e4:	756f5f37 	strbvc	r5, [pc, #-3895]!	; fffff5b5 <__bss_end__+0xfe9dc9f5>
 4e8:	5f726574 	svcpl	0x00726574
 4ec:	68636163 	stmdavs	r3!, {r0, r1, r5, r6, r8, sp, lr}^
 4f0:	6e695f65 	cdpvs	15, 6, cr5, cr9, cr5, {3}
 4f4:	5f6c6176 	svcpl	0x006c6176
 4f8:	006c6c61 	rsbeq	r6, ip, r1, ror #24
 4fc:	5f676f6c 	svcpl	0x00676f6c
 500:	5f6e5f32 	svcpl	0x006e5f32
 504:	6e756f72 	mrcvs	15, 3, r6, cr5, cr2, {3}
 508:	70755f64 	rsbsvc	r5, r5, r4, ror #30
 50c:	63616300 	cmnvs	r1, #0, 6
 510:	765f6568 	ldrbvc	r6, [pc], -r8, ror #10
 514:	00632e37 	rsbeq	r2, r3, r7, lsr lr
 518:	4c54454e 	cfldr64mi	mvdx4, [r4], {78}	; 0x4e
 51c:	5f504f4f 	svcpl	0x00504f4f
 520:	4c494146 	stfmie	f4, [r9], {70}	; 0x46
 524:	5f377600 	svcpl	0x00377600
 528:	63616364 	cmnvs	r1, #100, 6	; 0x90000001
 52c:	635f6568 	cmpvs	pc, #104, 10	; 0x1a000000
 530:	6e61656c 	cdpvs	5, 6, cr6, cr1, cr12, {3}
 534:	766e695f 			; <UNDEFINED> instruction: 0x766e695f
 538:	725f6c61 	subsvc	r6, pc, #24832	; 0x6100
 53c:	65676e61 	strbvs	r6, [r7, #-3681]!	; 0xe61
 540:	676f6c00 	strbvs	r6, [pc, -r0, lsl #24]!
 544:	756e5f32 	strbvc	r5, [lr, #-3890]!	; 0xf32
 548:	61775f6d 	cmnvs	r7, sp, ror #30
 54c:	77007379 	smlsdxvc	r0, r9, r3, r7
 550:	735f7961 	cmpvc	pc, #1589248	; 0x184000
 554:	74666968 	strbtvc	r6, [r6], #-2408	; 0x968
 558:	765f5f00 	ldrbvc	r5, [pc], -r0, lsl #30
 55c:	756f5f37 	strbvc	r5, [pc, #-3895]!	; fffff62d <__bss_end__+0xfe9dca6d>
 560:	5f726574 	svcpl	0x00726574
 564:	68636163 	stmdavs	r3!, {r0, r1, r5, r6, r8, sp, lr}^
 568:	6c665f65 	stclvs	15, cr5, [r6], #-404	; 0xfffffe6c
 56c:	5f687375 	svcpl	0x00687375
 570:	006c6c61 	rsbeq	r6, ip, r1, ror #24
 574:	32676f6c 	rsbcc	r6, r7, #108, 30	; 0x1b0
 578:	454e006e 	strbmi	r0, [lr, #-110]	; 0x6e
 57c:	4f4f4c54 	svcmi	0x004f4c54
 580:	4f435f50 	svcmi	0x00435f50
 584:	4e49544e 	cdpmi	4, 4, cr5, cr9, cr14, {2}
 588:	6e004555 	cfrshl32vs	mvfx0, mvfx5, r4
 58c:	735f6d75 	cmpvc	pc, #7488	; 0x1d40
 590:	00737465 	rsbseq	r7, r3, r5, ror #8
 594:	6576656c 	ldrbvs	r6, [r6, #-1388]!	; 0x56c
 598:	74735f6c 	ldrbtvc	r5, [r3], #-3948	; 0xf6c
 59c:	5f747261 	svcpl	0x00747261
 5a0:	00746962 	rsbseq	r6, r4, r2, ror #18
 5a4:	32676f6c 	rsbcc	r6, r7, #108, 30	; 0x1b0
 5a8:	6e696c5f 	mcrvs	12, 3, r6, cr9, cr15, {2}
 5ac:	656c5f65 	strbvs	r5, [ip, #-3941]!	; 0xf65
 5b0:	7473006e 	ldrbtvc	r0, [r3], #-110	; 0x6e
 5b4:	00747261 	rsbseq	r7, r4, r1, ror #4
 5b8:	7265706f 	rsbvc	r7, r5, #111	; 0x6f
 5bc:	6f697461 	svcvs	0x00697461
 5c0:	3776006e 	ldrbcc	r0, [r6, -lr, rrx]!
 5c4:	656c635f 	strbvs	r6, [ip, #-863]!	; 0x35f
 5c8:	695f6e61 	ldmdbvs	pc, {r0, r5, r6, r9, sl, fp, sp, lr}^	; <UNPREDICTABLE>
 5cc:	6c61766e 	stclvs	6, cr7, [r1], #-440	; 0xfffffe48
 5d0:	6163645f 	cmnvs	r3, pc, asr r4
 5d4:	5f656863 	svcpl	0x00656863
 5d8:	6576656c 	ldrbvs	r6, [r6, #-1388]!	; 0x56c
 5dc:	65735f6c 	ldrbvs	r5, [r3, #-3948]!	; 0xf6c
 5e0:	79617774 	stmdbvc	r1!, {r2, r4, r5, r6, r8, r9, sl, ip, sp, lr}^
 5e4:	6f747300 	svcvs	0x00747300
 5e8:	37760070 			; <UNDEFINED> instruction: 0x37760070
 5ec:	6163645f 	cmnvs	r3, pc, asr r4
 5f0:	5f656863 	svcpl	0x00656863
 5f4:	61766e69 	cmnvs	r6, r9, ror #28
 5f8:	61725f6c 	cmnvs	r2, ip, ror #30
 5fc:	0065676e 	rsbeq	r6, r5, lr, ror #14
 600:	5f746567 	svcpl	0x00746567
 604:	69736363 	ldmdbvs	r3!, {r0, r1, r5, r6, r8, r9, sp, lr}^
 608:	5f007264 	svcpl	0x00007264
 60c:	5f37765f 	svcpl	0x0037765f
 610:	6574756f 	ldrbvs	r7, [r4, #-1391]!	; 0x56f
 614:	61635f72 	smcvs	13810	; 0x35f2
 618:	5f656863 	svcpl	0x00656863
 61c:	61766e69 	cmnvs	r6, r9, ror #28
 620:	61725f6c 	cmnvs	r2, ip, ror #30
 624:	0065676e 	rsbeq	r6, r5, lr, ror #14
 628:	5f6d7261 	svcpl	0x006d7261
 62c:	74696e69 	strbtvc	r6, [r9], #-3689	; 0xe69
 630:	6665625f 			; <UNDEFINED> instruction: 0x6665625f
 634:	5f65726f 	svcpl	0x0065726f
 638:	00756d6d 	rsbseq	r6, r5, sp, ror #26
 63c:	676e6172 			; <UNDEFINED> instruction: 0x676e6172
 640:	706f5f65 	rsbvc	r5, pc, r5, ror #30
 644:	765f5f00 	ldrbvc	r5, [pc], -r0, lsl #30
 648:	756f5f37 	strbvc	r5, [pc, #-3895]!	; fffff719 <__bss_end__+0xfe9dcb59>
 64c:	5f726574 	svcpl	0x00726574
 650:	68636163 	stmdavs	r3!, {r0, r1, r5, r6, r8, sp, lr}^
 654:	6e655f65 	cdpvs	15, 6, cr5, cr5, cr5, {3}
 658:	656c6261 	strbvs	r6, [ip, #-609]!	; 0x261
 65c:	765f5f00 	ldrbvc	r5, [pc], -r0, lsl #30
 660:	756f5f37 	strbvc	r5, [pc, #-3895]!	; fffff731 <__bss_end__+0xfe9dcb71>
 664:	5f726574 	svcpl	0x00726574
 668:	68636163 	stmdavs	r3!, {r0, r1, r5, r6, r8, sp, lr}^
 66c:	69645f65 	stmdbvs	r4!, {r0, r2, r5, r6, r8, r9, sl, fp, ip, lr}^
 670:	6c626173 	stfvse	f6, [r2], #-460	; 0xfffffe34
 674:	656c0065 	strbvs	r0, [ip, #-101]!	; 0x65
 678:	006c6576 	rsbeq	r6, ip, r6, ror r5
 67c:	645f3776 	ldrbvs	r3, [pc], #-1910	; 684 <_back_addr-0x160f97c>
 680:	68636163 	stmdavs	r3!, {r0, r1, r5, r6, r8, sp, lr}^
 684:	616d5f65 	cmnvs	sp, r5, ror #30
 688:	5f746e69 	svcpl	0x00746e69
 68c:	676e6172 			; <UNDEFINED> instruction: 0x676e6172
 690:	61630065 	cmnvs	r3, r5, rrx
 694:	5f656863 	svcpl	0x00656863
 698:	65707974 	ldrbvs	r7, [r0, #-2420]!	; 0x974
 69c:	74656e00 	strbtvc	r6, [r5], #-3584	; 0xe00
 6a0:	6f6f6c5f 	svcvs	0x006f6c5f
 6a4:	74735f70 	ldrbtvc	r5, [r3], #-3952	; 0xf70
 6a8:	00657461 	rsbeq	r7, r5, r1, ror #8
 6ac:	73756c66 	cmnvc	r5, #26112	; 0x6600
 6b0:	63645f68 	cmnvs	r4, #104, 30	; 0x1a0
 6b4:	65686361 	strbvs	r6, [r8, #-865]!	; 0x361
 6b8:	6c6c615f 	stfvse	f6, [ip], #-380	; 0xfffffe84
 6bc:	766e6900 	strbtvc	r6, [lr], -r0, lsl #18
 6c0:	64696c61 	strbtvs	r6, [r9], #-3169	; 0xc61
 6c4:	5f657461 	svcpl	0x00657461
 6c8:	63616364 	cmnvs	r1, #100, 6	; 0x90000001
 6cc:	615f6568 	cmpvs	pc, r8, ror #10
 6d0:	61006c6c 	tstvs	r0, ip, ror #24
 6d4:	636f6c6c 	cmnvs	pc, #108, 24	; 0x6c00
 6d8:	70636d5f 	rsbvc	r6, r3, pc, asr sp
 6dc:	7365645f 	cmnvc	r5, #1593835520	; 0x5f000000
 6e0:	70697263 	rsbvc	r7, r9, r3, ror #4
 6e4:	00726f74 	rsbseq	r6, r2, r4, ror pc
 6e8:	2e70636d 	cdpcs	3, 7, cr6, cr0, cr13, {3}
 6ec:	6c620063 	stclvs	0, cr0, [r2], #-396	; 0xfffffe74
 6f0:	5f6b636f 	svcpl	0x006b636f
 6f4:	657a6973 	ldrbvs	r6, [sl, #-2419]!	; 0x973
 6f8:	64747200 	ldrbtvs	r7, [r4], #-512	; 0x200
 6fc:	74756f5f 	ldrbtvc	r6, [r5], #-3935	; 0xf5f
 700:	6572006c 	ldrbvs	r0, [r2, #-108]!	; 0x6c
 704:	73726576 	cmnvc	r2, #494927872	; 0x1d800000
 708:	69735f65 	ldmdbvs	r3!, {r0, r2, r5, r6, r8, r9, sl, fp, ip, lr}^
 70c:	74616e67 	strbtvc	r6, [r1], #-3687	; 0xe67
 710:	00657275 	rsbeq	r7, r5, r5, ror r2
 714:	75706e69 	ldrbvc	r6, [r0, #-3689]!	; 0xe69
 718:	6f6d0074 	svcvs	0x006d0074
 71c:	64006564 	strvs	r6, [r0], #-1380	; 0x564
 720:	615f7473 	cmpvs	pc, r3, ror r4	; <UNPREDICTABLE>
 724:	00726464 	rsbseq	r6, r2, r4, ror #8
 728:	5f50544f 	svcpl	0x0050544f
 72c:	5f746547 	svcpl	0x00746547
 730:	64726f57 	ldrbtvs	r6, [r2], #-3927	; 0xf57
 734:	53454100 	movtpl	r4, #20736	; 0x5100
 738:	7361685f 	cmnvc	r1, #6225920	; 0x5f0000
 73c:	6e6f5f68 	cdpvs	15, 6, cr5, cr15, cr8, {3}
 740:	6c610065 	stclvs	0, cr0, [r1], #-404	; 0xfffffe6c
 744:	695f6f67 	ldmdbvs	pc, {r0, r1, r2, r5, r6, r8, r9, sl, fp, sp, lr}^	; <UNPREDICTABLE>
 748:	5f740064 	svcpl	0x00740064
 74c:	5f70636d 	svcpl	0x0070636d
 750:	63736564 	cmnvs	r3, #100, 10	; 0x19000000
 754:	74706972 	ldrbtvc	r6, [r0], #-2418	; 0x972
 758:	6900726f 	stmdbvs	r0, {r0, r1, r2, r3, r5, r6, r9, ip, sp, lr}
 75c:	6b5f696e 	blvs	17dad1c <__bss_end__+0x1b815c>
 760:	73007965 	movwvc	r7, #2405	; 0x965
 764:	616e6769 	cmnvs	lr, r9, ror #14
 768:	65727574 	ldrbvs	r7, [r2, #-1396]!	; 0x574
 76c:	6464615f 	strbtvs	r6, [r4], #-351	; 0x15f
 770:	53700072 	cmnpl	r0, #114	; 0x72
 774:	616e6769 	cmnvs	lr, r9, ror #14
 778:	65727574 	ldrbvs	r7, [r2, #-1396]!	; 0x574
 77c:	5f684b00 	svcpl	0x00684b00
 780:	5f79656b 	svcpl	0x0079656b
 784:	61666564 	cmnvs	r6, r4, ror #10
 788:	00746c75 	rsbseq	r6, r4, r5, ror ip
 78c:	5f637273 	svcpl	0x00637273
 790:	72646461 	rsbvc	r6, r4, #1627389952	; 0x61000000
 794:	465f5f00 	ldrbmi	r5, [pc], -r0, lsl #30
 798:	54434e55 	strbpl	r4, [r3], #-3669	; 0xe55
 79c:	5f4e4f49 	svcpl	0x004e4f49
 7a0:	6162005f 	qdsubvs	r0, pc, r2	; <UNPREDICTABLE>
 7a4:	70756b63 	rsbsvc	r6, r5, r3, ror #22
 7a8:	6c61765f 	stclvs	6, cr7, [r1], #-380	; 0xfffffe84
 7ac:	5f6f6400 	svcpl	0x006f6400
 7b0:	0070636d 	rsbseq	r6, r0, sp, ror #6
 7b4:	5f746573 	svcpl	0x00746573
 7b8:	6f6d656d 	svcvs	0x006d656d
 7bc:	41007972 	tstmi	r0, r2, ror r9
 7c0:	435f5345 	cmpmi	pc, #335544321	; 0x14000001
 7c4:	655f4342 	ldrbvs	r4, [pc, #-834]	; 48a <_back_addr-0x160fb76>
 7c8:	7972636e 	ldmdbvc	r2!, {r1, r2, r3, r5, r6, r8, r9, sp, lr}^
 7cc:	6c007470 	cfstrsvs	mvf7, [r0], {112}	; 0x70
 7d0:	74676e65 	strbtvc	r6, [r7], #-3685	; 0xe65
 7d4:	70750068 	rsbsvc	r0, r5, r8, rrx
 7d8:	65746164 	ldrbvs	r6, [r4, #-356]!	; 0x164
 7dc:	696e695f 	stmdbvs	lr!, {r0, r1, r2, r3, r4, r6, r8, fp, sp, lr}^
 7e0:	6c616974 	stclvs	9, cr6, [r1], #-464	; 0xfffffe30
 7e4:	6365765f 	cmnvs	r5, #99614720	; 0x5f00000
 7e8:	00726f74 	rsbseq	r6, r2, r4, ror pc
 7ec:	5f534541 	svcpl	0x00534541
 7f0:	68736168 	ldmdavs	r3!, {r3, r5, r6, r8, sp, lr}^
 7f4:	6e637400 	cdpvs	4, 6, cr7, cr3, cr0, {0}
 7f8:	73720074 	cmnvc	r2, #116	; 0x74
 7fc:	64615f61 	strbtvs	r5, [r1], #-3937	; 0xf61
 800:	41007264 	tstmi	r0, r4, ror #4
 804:	455f5345 	ldrbmi	r5, [pc, #-837]	; 4c7 <_back_addr-0x160fb39>
 808:	655f4243 	ldrbvs	r4, [pc, #-579]	; 5cd <_back_addr-0x160fa33>
 80c:	7972636e 	ldmdbvc	r2!, {r1, r2, r3, r5, r6, r8, r9, sp, lr}^
 810:	75007470 	strvc	r7, [r0, #-1136]	; 0x470
 814:	00746e69 	rsbseq	r6, r4, r9, ror #28
 818:	6c65646d 	cfstrdvs	mvd6, [r5], #-436	; 0xfffffe4c
 81c:	70007961 	andvc	r7, r0, r1, ror #18
 820:	696c6275 	stmdbvs	ip!, {r0, r2, r4, r5, r6, r9, sp, lr}^
 824:	70784563 	rsbsvc	r4, r8, r3, ror #10
 828:	6e656e6f 	cdpvs	14, 6, cr6, cr5, cr15, {3}
 82c:	65720074 	ldrbvs	r0, [r2, #-116]!	; 0x74
 830:	73726576 	cmnvc	r2, #494927872	; 0x1d800000
 834:	73725f65 	cmnvc	r2, #404	; 0x194
 838:	69735f61 	ldmdbvs	r3!, {r0, r5, r6, r8, r9, sl, fp, ip, lr}^
 83c:	74616e67 	strbtvc	r6, [r1], #-3687	; 0xe67
 840:	00657275 	rsbeq	r7, r5, r5, ror r2
 844:	7074756f 	rsbsvc	r7, r4, pc, ror #10
 848:	615f7475 	cmpvs	pc, r5, ror r4	; <UNPREDICTABLE>
 84c:	00726464 	rsbseq	r6, r2, r4, ror #8
 850:	79706f63 	ldmdbvc	r0!, {r0, r1, r5, r6, r8, r9, sl, fp, sp, lr}^
 854:	6d656d5f 	stclvs	13, cr6, [r5, #-380]!	; 0xfffffe84
 858:	0079726f 	rsbseq	r7, r9, pc, ror #4
 85c:	70637364 	rsbvc	r7, r3, r4, ror #6
 860:	48530074 	ldmdami	r3, {r2, r4, r5, r6}^
 864:	685f3141 	ldmdavs	pc, {r0, r6, r8, ip, sp}^	; <UNPREDICTABLE>
 868:	00687361 	rsbeq	r7, r8, r1, ror #6
 86c:	7074756f 	rsbsvc	r7, r4, pc, ror #10
 870:	72007475 	andvc	r7, r0, #1962934272	; 0x75000000
 874:	695f6474 	ldmdbvs	pc, {r2, r4, r5, r6, sl, sp, lr}^	; <UNPREDICTABLE>
 878:	5f006c6e 	svcpl	0x00006c6e
 87c:	72656b5f 	rsbvc	r6, r5, #97280	; 0x17c00
 880:	5f6c656e 	svcpl	0x006c656e
 884:	657a6973 	ldrbvs	r6, [sl, #-2419]!	; 0x973
 888:	7300745f 	movwvc	r7, #1119	; 0x45f
 88c:	705f6372 	subsvc	r6, pc, r2, ror r3	; <UNPREDICTABLE>
 890:	6c007274 	sfmvs	f7, 4, [r0], {116}	; 0x74
 894:	5f64616f 	svcpl	0x0064616f
 898:	0070746f 	rsbseq	r7, r0, pc, ror #8
 89c:	6c6f6f62 	stclvs	15, cr6, [pc], #-392	; 71c <_back_addr-0x160f8e4>
 8a0:	73795300 	cmnvc	r9, #0, 6
 8a4:	546d6574 	strbtpl	r6, [sp], #-1396	; 0x574
 8a8:	6f656d69 	svcvs	0x00656d69
 8ac:	74007475 	strvc	r7, [r0], #-1141	; 0x475
 8b0:	72656d69 	rsbvc	r6, r5, #6720	; 0x1a40
 8b4:	4400632e 	strmi	r6, [r0], #-814	; 0x32e
 8b8:	62617369 	rsbvs	r7, r1, #-1543503871	; 0xa4000001
 8bc:	6954656c 	ldmdbvs	r4, {r2, r3, r5, r6, r8, sl, sp, lr}^
 8c0:	0072656d 	rsbseq	r6, r2, sp, ror #10
 8c4:	656d6974 	strbvs	r6, [sp, #-2420]!	; 0x974
 8c8:	00444972 	subeq	r4, r4, r2, ror r9
 8cc:	6c656475 	cfstrdvs	mvd6, [r5], #-468	; 0xfffffe2c
 8d0:	64007961 	strvs	r7, [r0], #-2401	; 0x961
 8d4:	6e694d77 	mcrvs	13, 3, r4, cr9, cr7, {3}
 8d8:	63655369 	cmnvs	r5, #-1543503871	; 0xa4000001
 8dc:	00646e6f 	rsbeq	r6, r4, pc, ror #28
 8e0:	694d7764 	stmdbvs	sp, {r2, r5, r6, r8, r9, sl, ip, sp, lr}^
 8e4:	536f7263 	cmnpl	pc, #805306374	; 0x30000006
 8e8:	6e6f6365 	cdpvs	3, 6, cr6, cr15, cr5, {3}
 8ec:	65640064 	strbvs	r0, [r4, #-100]!	; 0x64
 8f0:	5479616c 	ldrbtpl	r6, [r9], #-364	; 0x16c
 8f4:	00656d69 	rsbeq	r6, r5, r9, ror #26
 8f8:	696d696c 	stmdbvs	sp!, {r2, r3, r5, r6, r8, fp, sp, lr}^
 8fc:	49620074 	stmdbmi	r2!, {r2, r4, r5, r6}^
 900:	6174536f 	cmnvs	r4, pc, ror #6
 904:	00737574 	rsbseq	r7, r3, r4, ror r5
 908:	6e497764 	cdpvs	7, 4, cr7, cr9, cr4, {3}
 90c:	49007469 	stmdbmi	r0, {r0, r3, r5, r6, sl, ip, sp, lr}
 910:	5474696e 	ldrbtpl	r6, [r4], #-2414	; 0x96e
 914:	72656d69 	rsbvc	r6, r5, #6720	; 0x1a40
 918:	4e495500 	cdpmi	5, 4, cr5, cr9, cr0, {0}
 91c:	46003854 			; <UNDEFINED> instruction: 0x46003854
 920:	646c6569 	strbtvs	r6, [ip], #-1385	; 0x569
 924:	46003173 			; <UNDEFINED> instruction: 0x46003173
 928:	646c6569 	strbtvs	r6, [ip], #-1385	; 0x569
 92c:	73003273 	movwvc	r3, #627	; 0x273
 930:	645f7379 	ldrbvs	r7, [pc], #-889	; 938 <_back_addr-0x160f6c8>
 934:	68636163 	stmdavs	r3!, {r0, r1, r5, r6, r8, sp, lr}^
 938:	6c665f65 	stclvs	15, cr5, [r6], #-404	; 0xfffffe6c
 93c:	5f687375 	svcpl	0x00687375
 940:	006c6c61 	rsbeq	r6, ip, r1, ror #24
 944:	65736552 	ldrbvs	r6, [r3, #-1362]!	; 0x552
 948:	64657672 	strbtvs	r7, [r5], #-1650	; 0x672
 94c:	414d4400 	cmpmi	sp, r0, lsl #8
 950:	6c61004d 	stclvs	0, cr0, [r1], #-308	; 0xfffffecc
 954:	5f636f6c 	svcpl	0x00636f6c
 958:	72727563 	rsbsvc	r7, r2, #415236096	; 0x18c00000
 95c:	00746e65 	rsbseq	r6, r4, r5, ror #28
 960:	74726155 	ldrbtvc	r6, [r2], #-341	; 0x155
 964:	44726549 	ldrbtmi	r6, [r2], #-1353	; 0x549
 968:	45006d6c 	strmi	r6, [r0, #-3436]	; 0xd6c
 96c:	49454254 	stmdbmi	r5, {r2, r4, r6, r9, lr}^
 970:	69747500 	ldmdbvs	r4!, {r8, sl, ip, sp, lr}^
 974:	00632e6c 	rsbeq	r2, r3, ip, ror #28
 978:	5f747570 	svcpl	0x00747570
 97c:	72616863 	rsbvc	r6, r1, #6488064	; 0x630000
 980:	414c4400 	cmpmi	ip, r0, lsl #8
 984:	61550042 	cmpvs	r5, r2, asr #32
 988:	69497472 	stmdbvs	r9, {r1, r4, r5, r6, sl, ip, sp, lr}^
 98c:	72634672 	rsbvc	r4, r3, #119537664	; 0x7200000
 990:	41555f00 	cmpmi	r5, r0, lsl #30
 994:	45525452 	ldrbmi	r5, [r2, #-1106]	; 0x452
 998:	534c5f47 	movtpl	r5, #53063	; 0xcf47
 99c:	65680052 	strbvs	r0, [r8, #-82]!	; 0x52
 9a0:	6d756478 	cfldrdvs	mvd6, [r5, #-480]!	; 0xfffffe20
 9a4:	69730070 	ldmdbvs	r3!, {r4, r5, r6}^
 9a8:	656c706d 	strbvs	r7, [ip, #-109]!	; 0x6d
 9ac:	6c616d5f 	stclvs	13, cr6, [r1], #-380	; 0xfffffe84
 9b0:	00636f6c 	rsbeq	r6, r3, ip, ror #30
 9b4:	74696177 	strbtvc	r6, [r9], #-375	; 0x177
 9b8:	6e6f645f 	mcrvs	4, 3, r6, cr15, cr15, {2}
 9bc:	555f0065 	ldrbpl	r0, [pc, #-101]	; 95f <_back_addr-0x160f6a1>
 9c0:	52545241 	subspl	r5, r4, #268435460	; 0x10000004
 9c4:	4c5f4745 	mrrcmi	7, 4, r4, pc, cr5	; <UNPREDICTABLE>
 9c8:	45005243 	strmi	r5, [r0, #-579]	; 0x243
 9cc:	0049534c 	subeq	r5, r9, ip, asr #6
 9d0:	756c6176 	strbvc	r6, [ip, #-374]!	; 0x176
 9d4:	65520065 	ldrbvs	r0, [r2, #-101]	; 0x65
 9d8:	76726573 			; <UNDEFINED> instruction: 0x76726573
 9dc:	00306465 	eorseq	r6, r0, r5, ror #8
 9e0:	65736552 	ldrbvs	r6, [r3, #-1362]!	; 0x552
 9e4:	64657672 	strbtvs	r7, [r5], #-1650	; 0x672
 9e8:	49460031 	stmdbmi	r6, {r0, r4, r5}^
 9ec:	36314f46 	ldrtcc	r4, [r1], -r6, asr #30
 9f0:	72615500 	rsbvc	r5, r1, #0, 10
 9f4:	72734d74 	rsbsvc	r4, r3, #116, 26	; 0x1d00
 9f8:	4d727500 	cfldr64mi	mvdx7, [r2, #-0]
 9fc:	61507875 	cmpvs	r0, r5, ror r8
 a00:	61765f64 	cmnvs	r6, r4, ror #30
 a04:	4854006c 	ldmdami	r4, {r2, r3, r5, r6}^
 a08:	55004552 	strpl	r4, [r0, #-1362]	; 0x552
 a0c:	53747261 	cmnpl	r4, #268435462	; 0x10000006
 a10:	44007263 	strmi	r7, [r0], #-611	; 0x263
 a14:	00535443 	subseq	r5, r3, r3, asr #8
 a18:	73786568 	cmnvc	r8, #104, 10	; 0x1a000000
 a1c:	69327274 	ldmdbvs	r2!, {r2, r4, r5, r6, r9, ip, sp, lr}
 a20:	5400746e 	strpl	r7, [r0], #-1134	; 0x46e
 a24:	00544d45 	subseq	r4, r4, r5, asr #26
 a28:	74726155 	ldrbtvc	r6, [r2], #-341	; 0x155
 a2c:	0072734c 	rsbseq	r7, r2, ip, asr #6
 a30:	47525452 			; <UNDEFINED> instruction: 0x47525452
 a34:	72756300 	rsbsvc	r6, r5, #0, 6
 a38:	746e6572 	strbtvc	r6, [lr], #-1394	; 0x572
 a3c:	74726155 	ldrbtvc	r6, [r2], #-341	; 0x155
 a40:	74726f50 	ldrbtvc	r6, [r2], #-3920	; 0xf50
 a44:	4e504900 	cdpmi	9, 5, cr4, cr0, cr0, {0}
 a48:	46520044 	ldrbmi	r0, [r2], -r4, asr #32
 a4c:	00545352 	subseq	r5, r4, r2, asr r3
 a50:	685f7369 	ldmdavs	pc, {r0, r3, r5, r6, r8, r9, ip, sp, lr}^	; <UNPREDICTABLE>
 a54:	645f7865 	ldrbvs	r7, [pc], #-2149	; a5c <_back_addr-0x160f5a4>
 a58:	74696769 	strbtvc	r6, [r9], #-1897	; 0x769
 a5c:	6c615600 	stclvs	6, cr5, [r1], #-0
 a60:	61006575 	tstvs	r0, r5, ror r5
 a64:	636f6c6c 	cmnvs	pc, #108, 24	; 0x6c00
 a68:	756f635f 	strbvc	r6, [pc, #-863]!	; 711 <_back_addr-0x160f8ef>
 a6c:	6300746e 	movwvs	r7, #1134	; 0x46e
 a70:	61706d6f 	cmnvs	r0, pc, ror #26
 a74:	735f6572 	cmpvc	pc, #478150656	; 0x1c800000
 a78:	5f007274 	svcpl	0x00007274
 a7c:	54524155 	ldrbpl	r4, [r2], #-341	; 0x155
 a80:	00474552 	subeq	r4, r7, r2, asr r5
 a84:	504f4f4c 	subpl	r4, pc, ip, asr #30
 a88:	52465400 	subpl	r5, r6, #0, 8
 a8c:	55005453 	strpl	r5, [r0, #-1107]	; 0x453
 a90:	52747261 	rsbspl	r7, r4, #268435462	; 0x10000006
 a94:	68547262 	ldmdavs	r4, {r1, r5, r6, r9, ip, sp, lr}^
 a98:	6c6c4465 	cfstrdvs	mvd4, [ip], #-404	; 0xfffffe6c
 a9c:	705f7000 	subsvc	r7, pc, r0
 aa0:	6d617261 	sfmvs	f7, 2, [r1, #-388]!	; 0xfffffe7c
 aa4:	41555f00 	cmpmi	r5, r0, lsl #30
 aa8:	45525452 	ldrbmi	r5, [r2, #-1106]	; 0x452
 aac:	49495f47 	stmdbmi	r9, {r0, r1, r2, r6, r8, r9, sl, fp, ip, lr}^
 ab0:	43465f52 	movtmi	r5, #28498	; 0x6f52
 ab4:	61770052 	cmnvs	r7, r2, asr r0
 ab8:	64686374 	strbtvs	r6, [r8], #-884	; 0x374
 abc:	725f676f 	subsvc	r6, pc, #29097984	; 0x1bc0000
 ac0:	74657365 	strbtvc	r7, [r5], #-869	; 0x365
 ac4:	69727000 	ldmdbvs	r2!, {ip, sp, lr}^
 ac8:	685f746e 	ldmdavs	pc, {r1, r2, r3, r5, r6, sl, ip, sp, lr}^	; <UNPREDICTABLE>
 acc:	5f007865 	svcpl	0x00007865
 ad0:	54524155 	ldrbpl	r4, [r2], #-341	; 0x155
 ad4:	5f474552 	svcpl	0x00474552
 ad8:	0052534d 	subseq	r5, r2, sp, asr #6
 adc:	79625f6e 	stmdbvc	r2!, {r1, r2, r3, r5, r6, r8, r9, sl, fp, ip, lr}^
 ae0:	00736574 	rsbseq	r6, r3, r4, ror r5
 ae4:	5f676572 	svcpl	0x00676572
 ae8:	006c6176 	rsbeq	r6, ip, r6, ror r1
 aec:	69726573 	ldmdbvs	r2!, {r0, r1, r4, r5, r6, r8, sl, sp, lr}^
 af0:	775f6c61 	ldrbvc	r6, [pc, -r1, ror #24]
 af4:	65746972 	ldrbvs	r6, [r4, #-2418]!	; 0x972
 af8:	645f5f00 	ldrbvs	r5, [pc], #-3840	; b00 <_back_addr-0x160f500>
 afc:	00307669 	eorseq	r7, r0, r9, ror #12
 b00:	6b73616d 	blvs	1cd90bc <__bss_end__+0x6b64fc>
 b04:	72615500 	rsbvc	r5, r1, #0, 10
 b08:	72634d74 	rsbvc	r4, r3, #116, 26	; 0x1d00
 b0c:	41555f00 	cmpmi	r5, r0, lsl #30
 b10:	45525452 	ldrbmi	r5, [r2, #-1106]	; 0x452
 b14:	45495f47 	strbmi	r5, [r9, #-3911]	; 0xf47
 b18:	4c445f52 	mcrrmi	15, 5, r5, r4, cr2
 b1c:	4445004d 	strbmi	r0, [r5], #-77	; 0x4d
 b20:	00495353 	subeq	r5, r9, r3, asr r3
 b24:	5241555f 	subpl	r5, r1, #398458880	; 0x17c00000
 b28:	47455254 	smlsldmi	r5, r5, r4, r2	; <UNPREDICTABLE>
 b2c:	52434d5f 	subpl	r4, r3, #6080	; 0x17c0
 b30:	72615500 	rsbvc	r5, r1, #0, 10
 b34:	67655274 			; <UNDEFINED> instruction: 0x67655274
 b38:	41555f00 	cmpmi	r5, r0, lsl #30
 b3c:	45525452 	ldrbmi	r5, [r2, #-1106]	; 0x452
 b40:	42525f47 	subsmi	r5, r2, #284	; 0x11c
 b44:	48545f52 	ldmdami	r4, {r1, r4, r6, r8, r9, sl, fp, ip, lr}^
 b48:	4c445f52 	mcrrmi	15, 5, r5, r4, cr2
 b4c:	6155004c 	cmpvs	r5, ip, asr #32
 b50:	634c7472 	movtvs	r7, #50290	; 0xc472
 b54:	46450072 			; <UNDEFINED> instruction: 0x46450072
 b58:	004f4649 	subeq	r4, pc, r9, asr #12
 b5c:	5241555f 	subpl	r5, r1, #398458880	; 0x17c00000
 b60:	47455254 	smlsldmi	r5, r5, r4, r2	; <UNPREDICTABLE>
 b64:	5243535f 	subpl	r5, r3, #2080374785	; 0x7c000001
 b68:	69727000 	ldmdbvs	r2!, {ip, sp, lr}^
 b6c:	765f746e 	ldrbvc	r7, [pc], -lr, ror #8
 b70:	45006c61 	strmi	r6, [r0, #-3169]	; 0xc61
 b74:	00494252 	subeq	r4, r9, r2, asr r2
 b78:	706d6f63 	rsbvc	r6, sp, r3, ror #30
 b7c:	5f657261 	svcpl	0x00657261
 b80:	6f6d656d 	svcvs	0x006d656d
 b84:	46007972 			; <UNDEFINED> instruction: 0x46007972
 b88:	646c6569 	strbtvs	r6, [ip], #-1385	; 0x569
 b8c:	69460073 	stmdbvs	r6, {r0, r1, r4, r5, r6}^
 b90:	73646c65 	cmnvc	r4, #25856	; 0x6500
 b94:	72730030 	rsbsvc	r0, r3, #48	; 0x30
 b98:	72615f63 	rsbvc	r5, r1, #396	; 0x18c
 b9c:	00796172 	rsbseq	r6, r9, r2, ror r1
 ba0:	5f70746f 	svcpl	0x0070746f
 ba4:	5f736561 	svcpl	0x00736561
 ba8:	6d756e65 	ldclvs	14, cr6, [r5, #-404]!	; 0xfffffe6c
 bac:	6100745f 	tstvs	r0, pc, asr r4
 bb0:	655f7365 	ldrbvs	r7, [pc, #-869]	; 853 <_back_addr-0x160f7ad>
 bb4:	006d756e 	rsbeq	r7, sp, lr, ror #10
 bb8:	31755f5f 	cmncc	r5, pc, asr pc
 bbc:	6f640036 	svcvs	0x00640036
 bc0:	7275625f 	rsbsvc	r6, r5, #-268435451	; 0xf0000005
 bc4:	66655f6e 	strbtvs	r5, [r5], -lr, ror #30
 bc8:	5f657375 	svcpl	0x00657375
 bcc:	7379656b 	cmnvc	r9, #448790528	; 0x1ac00000
 bd0:	64006c65 	strvs	r6, [r0], #-3173	; 0xc65
 bd4:	6e5f7669 	cdpvs	6, 5, cr7, cr15, cr9, {3}
 bd8:	74696200 	strbtvc	r6, [r9], #-512	; 0x200
 bdc:	4d430073 	stclmi	0, cr0, [r3, #-460]	; 0xfffffe34
 be0:	45525f44 	ldrbmi	r5, [r2, #-3908]	; 0xf44
 be4:	55535f54 	ldrbpl	r5, [r3, #-3924]	; 0xf54
 be8:	53454343 	movtpl	r4, #21315	; 0x5343
 bec:	69750053 	ldmdbvs	r5!, {r0, r1, r4, r6}^
 bf0:	3631746e 	ldrtcc	r7, [r1], -lr, ror #8
 bf4:	6500745f 	strvs	r7, [r0, #-1119]	; 0x45f
 bf8:	6675625f 			; <UNDEFINED> instruction: 0x6675625f
 bfc:	00726566 	rsbseq	r6, r2, r6, ror #10
 c00:	6c616572 	cfstr64vs	mvdx6, [r1], #-456	; 0xfffffe38
 c04:	7469625f 	strbtvc	r6, [r9], #-607	; 0x25f
 c08:	746f7400 	strbtvc	r7, [pc], #-1024	; c10 <_back_addr-0x160f3f0>
 c0c:	79626c61 	stmdbvc	r2!, {r0, r5, r6, sl, fp, sp, lr}^
 c10:	6c006574 	cfstr32vs	mvfx6, [r0], {116}	; 0x74
 c14:	6c656e69 	stclvs	14, cr6, [r5], #-420	; 0xfffffe5c
 c18:	64006e65 	strvs	r6, [r0], #-3685	; 0xe65
 c1c:	75625f6f 	strbvc	r5, [r2, #-3951]!	; 0xf6f
 c20:	655f6e72 	ldrbvs	r6, [pc, #-3698]	; fffffdb6 <__bss_end__+0xfe9dd1f6>
 c24:	65737566 	ldrbvs	r7, [r3, #-1382]!	; 0x566
 c28:	7465675f 	strbtvc	r6, [r5], #-1887	; 0x75f
 c2c:	6574706d 	ldrbvs	r7, [r4, #-109]!	; 0x6d
 c30:	00327473 	eorseq	r7, r2, r3, ror r4
 c34:	625f6f64 	subsvs	r6, pc, #100, 30	; 0x190
 c38:	5f6e7275 	svcpl	0x006e7275
 c3c:	73756665 	cmnvc	r5, #105906176	; 0x6500000
 c40:	69645f65 	stmdbvs	r4!, {r0, r2, r5, r6, r8, r9, sl, fp, ip, lr}^
 c44:	656e6f73 	strbvs	r6, [lr, #-3955]!	; 0xf73
 c48:	65726f63 	ldrbvs	r6, [r2, #-3939]!	; 0xf63
 c4c:	755f5f00 	ldrbvc	r5, [pc, #-3840]	; fffffd54 <__bss_end__+0xfe9dd194>
 c50:	6f640038 	svcvs	0x00640038
 c54:	7275625f 	rsbsvc	r6, r5, #-268435451	; 0xf0000005
 c58:	66655f6e 	strbtvs	r5, [r5], -lr, ror #30
 c5c:	5f657375 	svcpl	0x00657375
 c60:	75636573 	strbvc	r6, [r3, #-1395]!	; 0x573
 c64:	6f626572 	svcvs	0x00626572
 c68:	5f00746f 	svcpl	0x0000746f
 c6c:	3233755f 	eorscc	r7, r3, #398458880	; 0x17c00000
 c70:	61747300 	cmnvs	r4, r0, lsl #6
 c74:	705f7472 	subsvc	r7, pc, r2, ror r4	; <UNPREDICTABLE>
 c78:	72676f72 	rsbvc	r6, r7, #456	; 0x1c8
 c7c:	64006d61 	strvs	r6, [r0], #-3425	; 0xd61
 c80:	75625f6f 	strbvc	r5, [r2, #-3951]!	; 0xf6f
 c84:	655f6e72 	ldrbvs	r6, [pc, #-3698]	; fffffe1a <__bss_end__+0xfe9dd25a>
 c88:	65737566 	ldrbvs	r7, [r3, #-1382]!	; 0x566
 c8c:	6173725f 	cmnvs	r3, pc, asr r2
 c90:	64697700 	strbtvs	r7, [r9], #-1792	; 0x700
 c94:	64006874 	strvs	r6, [r0], #-2164	; 0x874
 c98:	00617461 	rsbeq	r7, r1, r1, ror #8
 c9c:	5f50544f 	svcpl	0x0050544f
 ca0:	4744554a 	strbmi	r5, [r4, -sl, asr #10]
 ca4:	49425f45 	stmdbmi	r2, {r0, r2, r6, r8, r9, sl, fp, ip, lr}^
 ca8:	6f6e0054 	svcvs	0x006e0054
 cac:	73755f74 	cmnvc	r5, #116, 30	; 0x1d0
 cb0:	6e003165 	adfvssz	f3, f0, f5
 cb4:	755f746f 	ldrbvc	r7, [pc, #-1135]	; 84d <_back_addr-0x160f7b3>
 cb8:	00326573 	eorseq	r6, r2, r3, ror r5
 cbc:	72617473 	rsbvc	r7, r1, #1929379840	; 0x73000000
 cc0:	74796274 	ldrbtvc	r6, [r9], #-628	; 0x274
 cc4:	74730065 	ldrbtvc	r0, [r3], #-101	; 0x65
 cc8:	62747261 	rsbsvs	r7, r4, #268435462	; 0x10000006
 ccc:	4f007469 	svcmi	0x00007469
 cd0:	505f5054 	subspl	r5, pc, r4, asr r0	; <UNPREDICTABLE>
 cd4:	72676f72 	rsbvc	r6, r7, #456	; 0x1c8
 cd8:	535f6d61 	cmppl	pc, #6208	; 0x1840
 cdc:	74726174 	ldrbtvc	r6, [r2], #-372	; 0x174
 ce0:	696c6100 	stmdbvs	ip!, {r8, sp, lr}^
 ce4:	6e5f6e67 	cdpvs	14, 5, cr6, cr15, cr7, {3}
 ce8:	72756200 	rsbsvc	r6, r5, #0, 4
 cec:	64695f6e 	strbtvs	r5, [r9], #-3950	; 0xf6e
 cf0:	7365745f 	cmnvc	r5, #1593835520	; 0x5f000000
 cf4:	65720074 	ldrbvs	r0, [r2, #-116]!	; 0x74
 cf8:	695f6461 	ldmdbvs	pc, {r0, r5, r6, sl, sp, lr}^	; <UNPREDICTABLE>
 cfc:	65745f64 	ldrbvs	r5, [r4, #-3940]!	; 0xf64
 d00:	64007473 	strvs	r7, [r0], #-1139	; 0x473
 d04:	75625f6f 	strbvc	r5, [r2, #-3951]!	; 0xf6f
 d08:	655f6e72 	ldrbvs	r6, [pc, #-3698]	; fffffe9e <__bss_end__+0xfe9dd2de>
 d0c:	65737566 	ldrbvs	r7, [r3, #-1382]!	; 0x566
 d10:	6c6c615f 	stfvse	f6, [ip], #-380	; 0xfffffe84
 d14:	6d657200 	sfmvs	f7, 2, [r5, #-0]
 d18:	6c61765f 	stclvs	6, cr7, [r1], #-380	; 0xfffffe84
 d1c:	5f6f6400 	svcpl	0x006f6400
 d20:	6e727562 	cdpvs	5, 7, cr7, cr2, cr2, {3}
 d24:	7566655f 	strbvc	r6, [r6, #-1375]!	; 0x55f
 d28:	625f6573 	subsvs	r6, pc, #482344960	; 0x1cc00000
 d2c:	65746f6f 	ldrbvs	r6, [r4, #-3951]!	; 0xf6f
 d30:	6100636e 	tstvs	r0, lr, ror #6
 d34:	6e67696c 	cdpvs	9, 6, cr6, cr7, cr12, {3}
 d38:	6d65725f 	sfmvs	f7, 2, [r5, #-380]!	; 0xfffffe84
 d3c:	65006e5f 	strvs	r6, [r0, #-3679]	; 0xe5f
 d40:	65737566 	ldrbvs	r7, [r3, #-1382]!	; 0x566
 d44:	6400632e 	strvs	r6, [r0], #-814	; 0x32e
 d48:	75625f6f 	strbvc	r5, [r2, #-3951]!	; 0xf6f
 d4c:	655f6e72 	ldrbvs	r6, [pc, #-3698]	; fffffee2 <__bss_end__+0xfe9dd322>
 d50:	65737566 	ldrbvs	r7, [r3, #-1382]!	; 0x566
 d54:	616f6c5f 	cmnvs	pc, pc, asr ip	; <UNPREDICTABLE>
 d58:	736f7364 	cmnvc	pc, #100, 6	; 0x90000001
 d5c:	5f6f6400 	svcpl	0x006f6400
 d60:	6e727562 	cdpvs	5, 7, cr7, cr2, cr2, {3}
 d64:	7566655f 	strbvc	r6, [r6, #-1375]!	; 0x55f
 d68:	6d5f6573 	cfldr64vs	mvdx6, [pc, #-460]	; ba4 <_back_addr-0x160f45c>
 d6c:	73657470 	cmnvc	r5, #112, 8	; 0x70000000
 d70:	61003274 	tstvs	r0, r4, ror r2
 d74:	79617272 	stmdbvc	r1!, {r1, r4, r5, r6, r9, ip, sp, lr}^
 d78:	72610041 	rsbvc	r0, r1, #65	; 0x41
 d7c:	42796172 	rsbsmi	r6, r9, #-2147483620	; 0x8000001c
 d80:	72726100 	rsbsvc	r6, r2, #0, 2
 d84:	00437961 	subeq	r7, r3, r1, ror #18
 d88:	61746f74 	cmnvs	r4, r4, ror pc
 d8c:	7479626c 	ldrbtvc	r6, [r9], #-620	; 0x26c
 d90:	64007365 	strvs	r7, [r0], #-869	; 0x365
 d94:	75625f6f 	strbvc	r5, [r2, #-3951]!	; 0xf6f
 d98:	655f6e72 	ldrbvs	r6, [pc, #-3698]	; ffffff2e <__bss_end__+0xfe9dd36e>
 d9c:	65737566 	ldrbvs	r7, [r3, #-1382]!	; 0x566
 da0:	7365615f 	cmnvc	r5, #-1073741801	; 0xc0000017
 da4:	61657200 	cmnvs	r5, r0, lsl #4
 da8:	66655f64 	strbtvs	r5, [r5], -r4, ror #30
 dac:	00657375 	rsbeq	r7, r5, r5, ror r3
 db0:	72617473 	rsbvc	r7, r1, #1929379840	; 0x73000000
 db4:	64615f74 	strbtvs	r5, [r1], #-3956	; 0xf74
 db8:	5f007264 	svcpl	0x00007264
 dbc:	6e75665f 	mrcvs	6, 3, r6, cr5, cr15, {2}
 dc0:	005f5f63 	subseq	r5, pc, r3, ror #30
 dc4:	5f444d43 	svcpl	0x00444d43
 dc8:	5f544552 	svcpl	0x00544552
 dcc:	4c494146 	stfmie	f4, [r9], {70}	; 0x46
 dd0:	00455255 	subeq	r5, r5, r5, asr r2
 dd4:	746e6975 	strbtvc	r6, [lr], #-2421	; 0x975
 dd8:	745f3233 	ldrbvc	r3, [pc], #-563	; de0 <_back_addr-0x160f220>
 ddc:	6d6f6300 	stclvs	3, cr6, [pc, #-0]	; de4 <_back_addr-0x160f21c>
 de0:	646e616d 	strbtvs	r6, [lr], #-365	; 0x16d
 de4:	7465725f 	strbtvc	r7, [r5], #-607	; 0x25f
 de8:	4f00745f 	svcmi	0x0000745f
 dec:	415f5054 	cmpmi	pc, r4, asr r0	; <UNPREDICTABLE>
 df0:	4b5f5345 	blmi	17d5b0c <__bss_end__+0x1b2f4c>
 df4:	544f0048 	strbpl	r0, [pc], #-72	; dfc <_back_addr-0x160f204>
 df8:	45415f50 	strbmi	r5, [r1, #-3920]	; 0xf50
 dfc:	4e4b5f53 	mcrmi	15, 2, r5, cr11, cr3, {2}
 e00:	5f6f6400 	svcpl	0x006f6400
 e04:	6e727562 	cdpvs	5, 7, cr7, cr2, cr2, {3}
 e08:	7566655f 	strbvc	r6, [r6, #-1375]!	; 0x55f
 e0c:	685f6573 	ldmdavs	pc, {r0, r1, r4, r5, r6, r8, sl, sp, lr}^	; <UNPREDICTABLE>
 e10:	6b686377 	blvs	1a19bf4 <__bss_end__+0x3f7034>
 e14:	50544f00 	subspl	r4, r4, r0, lsl #30
 e18:	5345415f 	movtpl	r4, #20831	; 0x515f
 e1c:	00534b5f 	subseq	r4, r3, pc, asr fp
 e20:	625f6f64 	subsvs	r6, pc, #100, 30	; 0x190
 e24:	5f6e7275 	svcpl	0x006e7275
 e28:	73756665 	cmnvc	r5, #105906176	; 0x6500000
 e2c:	73755f65 	cmnvc	r5, #404	; 0x194
 e30:	72733262 	rsbsvc	r3, r3, #536870918	; 0x20000006
 e34:	6f006d61 	svcvs	0x00006d61
 e38:	65736666 	ldrbvs	r6, [r3, #-1638]!	; 0x666
 e3c:	6f640074 	svcvs	0x00640074
 e40:	7275625f 	rsbsvc	r6, r5, #-268435451	; 0xf0000005
 e44:	66655f6e 	strbtvs	r5, [r5], -lr, ror #30
 e48:	5f657375 	svcpl	0x00657375
 e4c:	69766564 	ldmdbvs	r6!, {r2, r5, r6, r8, sl, sp, lr}^
 e50:	44496563 	strbmi	r6, [r9], #-1379	; 0x563
 e54:	61657200 	cmnvs	r5, r0, lsl #4
 e58:	006e5f6c 	rsbeq	r5, lr, ip, ror #30
 e5c:	6c616572 	cfstr64vs	mvdx6, [r1], #-456	; 0xfffffe38
 e60:	73666f5f 	cmnvc	r6, #380	; 0x17c
 e64:	75007465 	strvc	r7, [r0, #-1125]	; 0x465
 e68:	38746e69 	ldmdacc	r4!, {r0, r3, r5, r6, r9, sl, fp, sp, lr}^
 e6c:	4f00745f 	svcmi	0x0000745f
 e70:	475f5054 			; <UNDEFINED> instruction: 0x475f5054
 e74:	425f7465 	subsmi	r7, pc, #1694498816	; 0x65000000
 e78:	00657479 	rsbeq	r7, r5, r9, ror r4
 e7c:	5f736561 	svcpl	0x00736561
 e80:	5f79656b 	svcpl	0x0079656b
 e84:	4300686b 	movwmi	r6, #2155	; 0x86b
 e88:	525f444d 	subspl	r4, pc, #1291845632	; 0x4d000000
 e8c:	555f5445 	ldrbpl	r5, [pc, #-1093]	; a4f <_back_addr-0x160f5b1>
 e90:	45474153 	strbmi	r4, [r7, #-339]	; 0x153
 e94:	73656100 	cmnvc	r5, #0, 2
 e98:	79656b5f 	stmdbvc	r5!, {r0, r1, r2, r3, r4, r6, r8, r9, fp, sp, lr}^
 e9c:	006e6b5f 	rsbeq	r6, lr, pc, asr fp
 ea0:	656e696c 	strbvs	r6, [lr, #-2412]!	; 0x96c
 ea4:	00667562 	rsbeq	r7, r6, r2, ror #10
 ea8:	5f736561 	svcpl	0x00736561
 eac:	5f79656b 	svcpl	0x0079656b
 eb0:	4f00736b 	svcmi	0x0000736b
 eb4:	505f5054 	subspl	r5, pc, r4, asr r0	; <UNPREDICTABLE>
 eb8:	72676f72 	rsbvc	r6, r7, #456	; 0x1c8
 ebc:	455f6d61 	ldrbmi	r6, [pc, #-3425]	; 163 <_back_addr-0x160fe9d>
 ec0:	Address 0x00000ec0 is out of bounds.


Disassembly of section .debug_loc:

00000000 <.debug_loc>:
       0:	00000000 	andeq	r0, r0, r0
       4:	00000008 	andeq	r0, r0, r8
       8:	08500001 	ldmdaeq	r0, {r0}^
       c:	18000000 	stmdane	r0, {}	; <UNPREDICTABLE>
      10:	01000000 	mrseq	r0, (UNDEF: 0)
      14:	00185300 	andseq	r5, r8, r0, lsl #6
      18:	00200000 	eoreq	r0, r0, r0
      1c:	00030000 	andeq	r0, r3, r0
      20:	009f7f73 	addseq	r7, pc, r3, ror pc	; <UNPREDICTABLE>
	...
      2c:	10000000 	andne	r0, r0, r0
      30:	02000000 	andeq	r0, r0, #0
      34:	109f3000 	addsne	r3, pc, r0
      38:	14000000 	strne	r0, [r0], #-0
      3c:	07000000 	streq	r0, [r0, -r0]
      40:	20007000 	andcs	r7, r0, r0
      44:	9f220073 	svcls	0x00220073
      48:	00000014 	andeq	r0, r0, r4, lsl r0
      4c:	00000020 	andeq	r0, r0, r0, lsr #32
      50:	00510001 	subseq	r0, r1, r1
	...
      5c:	30000000 	andcc	r0, r0, r0
      60:	01000000 	mrseq	r0, (UNDEF: 0)
      64:	00305000 	eorseq	r5, r0, r0
      68:	00380000 	eorseq	r0, r8, r0
      6c:	00030000 	andeq	r0, r3, r0
      70:	389f7f70 	ldmcc	pc, {r4, r5, r6, r8, r9, sl, fp, ip, sp, lr}	; <UNPREDICTABLE>
      74:	90000000 	andls	r0, r0, r0
      78:	01000000 	mrseq	r0, (UNDEF: 0)
      7c:	00985000 	addseq	r5, r8, r0
      80:	009c0000 	addseq	r0, ip, r0
      84:	00010000 	andeq	r0, r1, r0
      88:	00009c50 	andeq	r9, r0, r0, asr ip
      8c:	0000a000 	andeq	sl, r0, r0
      90:	f3000400 	vshl.u8	d0, d0, d0
      94:	009f5001 	addseq	r5, pc, r1
      98:	00000000 	andeq	r0, r0, r0
      9c:	60000000 	andvs	r0, r0, r0
      a0:	6c000000 	stcvs	0, cr0, [r0], {-0}
      a4:	01000000 	mrseq	r0, (UNDEF: 0)
      a8:	006c5e00 	rsbeq	r5, ip, r0, lsl #28
      ac:	00740000 	rsbseq	r0, r4, r0
      b0:	00030000 	andeq	r0, r3, r0
      b4:	749f7f73 	ldrvc	r7, [pc], #3955	; bc <_back_addr-0x160ff44>
      b8:	78000000 	stmdavc	r0, {}	; <UNPREDICTABLE>
      bc:	01000000 	mrseq	r0, (UNDEF: 0)
      c0:	00785300 	rsbseq	r5, r8, r0, lsl #6
      c4:	00900000 	addseq	r0, r0, r0
      c8:	00010000 	andeq	r0, r1, r0
      cc:	0000005e 	andeq	r0, r0, lr, asr r0
      d0:	00000000 	andeq	r0, r0, r0
      d4:	00004000 	andeq	r4, r0, r0
      d8:	00006000 	andeq	r6, r0, r0
      dc:	50000100 	andpl	r0, r0, r0, lsl #2
      e0:	0000006c 	andeq	r0, r0, ip, rrx
      e4:	00000070 	andeq	r0, r0, r0, ror r0
      e8:	705c0001 	subsvc	r0, ip, r1
      ec:	74000000 	strvc	r0, [r0], #-0
      f0:	03000000 	movweq	r0, #0
      f4:	9f7f7c00 	svcls	0x007f7c00
	...
     104:	00000014 	andeq	r0, r0, r4, lsl r0
     108:	14500001 	ldrbne	r0, [r0], #-1
     10c:	50000000 	andpl	r0, r0, r0
     110:	01000001 	tsteq	r0, r1
     114:	01505800 	cmpeq	r0, r0, lsl #16
     118:	01580000 	cmpeq	r8, r0
     11c:	00040000 	andeq	r0, r4, r0
     120:	9f5001f3 	svcls	0x005001f3
     124:	00000158 	andeq	r0, r0, r8, asr r1
     128:	00000194 	muleq	r0, r4, r1
     12c:	00580001 	subseq	r0, r8, r1
	...
     138:	68000000 	stmdavs	r0, {}	; <UNPREDICTABLE>
     13c:	01000000 	mrseq	r0, (UNDEF: 0)
     140:	00685200 	rsbeq	r5, r8, r0, lsl #4
     144:	007c0000 	rsbseq	r0, ip, r0
     148:	00040000 	andeq	r0, r4, r0
     14c:	9f5201f3 	svcls	0x005201f3
     150:	0000007c 	andeq	r0, r0, ip, ror r0
     154:	00000084 	andeq	r0, r0, r4, lsl #1
     158:	84520001 	ldrbhi	r0, [r2], #-1
     15c:	a8000000 	stmdage	r0, {}	; <UNPREDICTABLE>
     160:	04000000 	streq	r0, [r0], #-0
     164:	5201f300 	andpl	pc, r1, #0, 6
     168:	0000a89f 	muleq	r0, pc, r8	; <UNPREDICTABLE>
     16c:	00017c00 	andeq	r7, r1, r0, lsl #24
     170:	52000100 	andpl	r0, r0, #0, 2
     174:	0000017c 	andeq	r0, r0, ip, ror r1
     178:	00000188 	andeq	r0, r0, r8, lsl #3
     17c:	01f30004 	mvnseq	r0, r4
     180:	01889f52 	orreq	r9, r8, r2, asr pc
     184:	01940000 	orrseq	r0, r4, r0
     188:	00020000 	andeq	r0, r2, r0
     18c:	00009f40 	andeq	r9, r0, r0, asr #30
     190:	00000000 	andeq	r0, r0, r0
     194:	00100000 	andseq	r0, r0, r0
     198:	00400000 	subeq	r0, r0, r0
     19c:	00010000 	andeq	r0, r1, r0
     1a0:	00004050 	andeq	r4, r0, r0, asr r0
     1a4:	00015800 	andeq	r5, r1, r0, lsl #16
     1a8:	53000100 	movwpl	r0, #256	; 0x100
     1ac:	00000158 	andeq	r0, r0, r8, asr r1
     1b0:	0000015c 	andeq	r0, r0, ip, asr r1
     1b4:	5c500001 	mrrcpl	0, 0, r0, r0, cr1	; <UNPREDICTABLE>
     1b8:	94000001 	strls	r0, [r0], #-1
     1bc:	01000001 	tsteq	r0, r1
     1c0:	00005300 	andeq	r5, r0, r0, lsl #6
     1c4:	00000000 	andeq	r0, r0, r0
     1c8:	00a80000 	adceq	r0, r8, r0
     1cc:	00b40000 	adcseq	r0, r4, r0
     1d0:	00020000 	andeq	r0, r2, r0
     1d4:	00b49f30 	adcseq	r9, r4, r0, lsr pc
     1d8:	00d00000 	sbcseq	r0, r0, r0
     1dc:	00010000 	andeq	r0, r1, r0
     1e0:	0000d056 	andeq	sp, r0, r6, asr r0
     1e4:	0000d400 	andeq	sp, r0, r0, lsl #8
     1e8:	7a000600 	bvc	19f0 <_back_addr-0x160e610>
     1ec:	1e007600 	cfmadd32ne	mvax0, mvfx7, mvfx0, mvfx0
     1f0:	0000d49f 	muleq	r0, pc, r4	; <UNPREDICTABLE>
     1f4:	00012400 	andeq	r2, r1, r0, lsl #8
     1f8:	56000100 	strpl	r0, [r0], -r0, lsl #2
     1fc:	00000128 	andeq	r0, r0, r8, lsr #2
     200:	00000140 	andeq	r0, r0, r0, asr #2
     204:	44560001 	ldrbmi	r0, [r6], #-1
     208:	58000001 	stmdapl	r0, {r0}
     20c:	01000001 	tsteq	r0, r1
     210:	00005000 	andeq	r5, r0, r0
     214:	00000000 	andeq	r0, r0, r0
     218:	00a80000 	adceq	r0, r8, r0
     21c:	013c0000 	teqeq	ip, r0
     220:	00010000 	andeq	r0, r1, r0
     224:	00000050 	andeq	r0, r0, r0, asr r0
     228:	00000000 	andeq	r0, r0, r0
     22c:	00001400 	andeq	r1, r0, r0, lsl #8
     230:	00001800 	andeq	r1, r0, r0, lsl #16
     234:	5e000100 	adfpls	f0, f0, f0
     238:	00000020 	andeq	r0, r0, r0, lsr #32
     23c:	0000007c 	andeq	r0, r0, ip, ror r0
     240:	7c5e0001 	mrrcvc	0, 0, r0, lr, cr1
     244:	94000000 	strls	r0, [r0], #-0
     248:	03000000 	movweq	r0, #0
     24c:	9f300800 	svcls	0x00300800
     250:	000000b4 	strheq	r0, [r0], -r4
     254:	000000e8 	andeq	r0, r0, r8, ror #1
     258:	045e0001 	ldrbeq	r0, [lr], #-1
     25c:	28000001 	stmdacs	r0, {r0}
     260:	01000001 	tsteq	r0, r1
     264:	01585e00 	cmpeq	r8, r0, lsl #28
     268:	01940000 	orrseq	r0, r4, r0
     26c:	00010000 	andeq	r0, r1, r0
     270:	0000005e 	andeq	r0, r0, lr, asr r0
     274:	00000000 	andeq	r0, r0, r0
     278:	00003800 	andeq	r3, r0, r0, lsl #16
     27c:	00004400 	andeq	r4, r0, r0, lsl #8
     280:	30000200 	andcc	r0, r0, r0, lsl #4
     284:	0001589f 	muleq	r1, pc, r8	; <UNPREDICTABLE>
     288:	00016800 	andeq	r6, r1, r0, lsl #16
     28c:	31000200 	mrscc	r0, R8_usr
     290:	0000009f 	muleq	r0, pc, r0	; <UNPREDICTABLE>
     294:	00000000 	andeq	r0, r0, r0
     298:	0000a800 	andeq	sl, r0, r0, lsl #16
     29c:	0000b400 	andeq	fp, r0, r0, lsl #8
     2a0:	30000200 	andcc	r0, r0, r0, lsl #4
     2a4:	0000b49f 	muleq	r0, pc, r4	; <UNPREDICTABLE>
     2a8:	0000d000 	andeq	sp, r0, r0
     2ac:	55000100 	strpl	r0, [r0, #-256]	; 0x100
     2b0:	000000d0 	ldrdeq	r0, [r0], -r0	; <UNPREDICTABLE>
     2b4:	000000d8 	ldrdeq	r0, [r0], -r8
     2b8:	9f310002 	svcls	0x00310002
     2bc:	000000d8 	ldrdeq	r0, [r0], -r8
     2c0:	00000120 	andeq	r0, r0, r0, lsr #2
     2c4:	28550001 	ldmdacs	r5, {r0}^
     2c8:	58000001 	stmdapl	r0, {r0}
     2cc:	01000001 	tsteq	r0, r1
     2d0:	00005500 	andeq	r5, r0, r0, lsl #10
     2d4:	00000000 	andeq	r0, r0, r0
     2d8:	00a80000 	adceq	r0, r8, r0
     2dc:	01580000 	cmpeq	r8, r0
     2e0:	00010000 	andeq	r0, r1, r0
     2e4:	00000059 	andeq	r0, r0, r9, asr r0
     2e8:	00000000 	andeq	r0, r0, r0
     2ec:	00001800 	andeq	r1, r0, r0, lsl #16
     2f0:	00002800 	andeq	r2, r0, r0, lsl #16
     2f4:	51000100 	mrspl	r0, (UNDEF: 16)
     2f8:	00000028 	andeq	r0, r0, r8, lsr #32
     2fc:	0000003c 	andeq	r0, r0, ip, lsr r0
     300:	01f30004 	mvnseq	r0, r4
     304:	00009f51 	andeq	r9, r0, r1, asr pc
     308:	00000000 	andeq	r0, r0, r0
     30c:	00180000 	andseq	r0, r8, r0
     310:	001c0000 	andseq	r0, ip, r0
     314:	00010000 	andeq	r0, r1, r0
     318:	00001c52 	andeq	r1, r0, r2, asr ip
     31c:	00002400 	andeq	r2, r0, r0, lsl #8
     320:	72000300 	andvc	r0, r0, #0, 6
     324:	00249f7f 	eoreq	r9, r4, pc, ror pc
     328:	00280000 	eoreq	r0, r8, r0
     32c:	00060000 	andeq	r0, r6, r0
     330:	315201f3 	ldrshcc	r0, [r2, #-19]	; 0xffffffed
     334:	00289f1c 	eoreq	r9, r8, ip, lsl pc
     338:	002c0000 	eoreq	r0, ip, r0
     33c:	000b0000 	andeq	r0, fp, r0
     340:	f3200071 	vqadd.u32	q0, q0, <illegal reg q8.5>
     344:	71225201 	teqvc	r2, r1, lsl #4
     348:	2c9f2200 	lfmcs	f2, 4, [pc], {0}
     34c:	3c000000 	stccc	0, cr0, [r0], {-0}
     350:	0b000000 	bleq	358 <_back_addr-0x160fca8>
     354:	20007100 	andcs	r7, r0, r0, lsl #2
     358:	f3220071 	vqadd.u32	q0, q1, <illegal reg q8.5>
     35c:	9f225201 	svcls	0x00225201
	...
     368:	0000001c 	andeq	r0, r0, ip, lsl r0
     36c:	00000028 	andeq	r0, r0, r8, lsr #32
     370:	00500001 	subseq	r0, r0, r1
     374:	00000000 	andeq	r0, r0, r0
     378:	1c000000 	stcne	0, cr0, [r0], {-0}
     37c:	2c000000 	stccs	0, cr0, [r0], {-0}
     380:	01000000 	mrseq	r0, (UNDEF: 0)
     384:	002c5100 	eoreq	r5, ip, r0, lsl #2
     388:	00300000 	eorseq	r0, r0, r0
     38c:	00030000 	andeq	r0, r3, r0
     390:	309f7f71 	addscc	r7, pc, r1, ror pc	; <UNPREDICTABLE>
     394:	3c000000 	stccc	0, cr0, [r0], {-0}
     398:	01000000 	mrseq	r0, (UNDEF: 0)
     39c:	00005100 	andeq	r5, r0, r0, lsl #2
     3a0:	00000000 	andeq	r0, r0, r0
     3a4:	003c0000 	eorseq	r0, ip, r0
     3a8:	00500000 	subseq	r0, r0, r0
     3ac:	00010000 	andeq	r0, r1, r0
     3b0:	00005050 	andeq	r5, r0, r0, asr r0
     3b4:	00006000 	andeq	r6, r0, r0
     3b8:	5c000100 	stfpls	f0, [r0], {-0}
     3bc:	00000060 	andeq	r0, r0, r0, rrx
     3c0:	00000068 	andeq	r0, r0, r8, rrx
     3c4:	7f7c0003 	svcvc	0x007c0003
     3c8:	0000689f 	muleq	r0, pc, r8	; <UNPREDICTABLE>
     3cc:	00008c00 	andeq	r8, r0, r0, lsl #24
     3d0:	f3000400 	vshl.u8	d0, d0, d0
     3d4:	8c9f5001 	ldchi	0, cr5, [pc], {1}
     3d8:	90000000 	andls	r0, r0, r0
     3dc:	01000000 	mrseq	r0, (UNDEF: 0)
     3e0:	00905000 	addseq	r5, r0, r0
     3e4:	00940000 	addseq	r0, r4, r0
     3e8:	00040000 	andeq	r0, r4, r0
     3ec:	9f5001f3 	svcls	0x005001f3
	...
     3f8:	0000003c 	andeq	r0, r0, ip, lsr r0
     3fc:	00000068 	andeq	r0, r0, r8, rrx
     400:	68510001 	ldmdavs	r1, {r0}^
     404:	8c000000 	stchi	0, cr0, [r0], {-0}
     408:	04000000 	streq	r0, [r0], #-0
     40c:	5101f300 	mrspl	pc, SP_irq	; <UNPREDICTABLE>
     410:	00008c9f 	muleq	r0, pc, ip	; <UNPREDICTABLE>
     414:	00009400 	andeq	r9, r0, r0, lsl #8
     418:	51000100 	mrspl	r0, (UNDEF: 16)
	...
     424:	0000003c 	andeq	r0, r0, ip, lsr r0
     428:	0000005c 	andeq	r0, r0, ip, asr r0
     42c:	5c520001 	mrrcpl	0, 0, r0, r2, cr1
     430:	68000000 	stmdavs	r0, {}	; <UNPREDICTABLE>
     434:	04000000 	streq	r0, [r0], #-0
     438:	5201f300 	andpl	pc, r1, #0, 6
     43c:	0000689f 	muleq	r0, pc, r8	; <UNPREDICTABLE>
     440:	00006c00 	andeq	r6, r0, r0, lsl #24
     444:	f3000b00 	vqrdmulh.s<illegal width 8>	d0, d0, d0
     448:	007c5001 	rsbseq	r5, ip, r1
     44c:	5201f31c 	andpl	pc, r1, #28, 6	; 0x70000000
     450:	006c9f22 	rsbeq	r9, ip, r2, lsr #30
     454:	00780000 	rsbseq	r0, r8, r0
     458:	000d0000 	andeq	r0, sp, r0
     45c:	f35001f3 	vbsl	q8, q8, <illegal reg q9.5>
     460:	7c225201 	sfmvc	f5, 4, [r2], #-4
     464:	01231c00 	teqeq	r3, r0, lsl #24
     468:	0000789f 	muleq	r0, pc, r8	; <UNPREDICTABLE>
     46c:	00008400 	andeq	r8, r0, r0, lsl #8
     470:	f3000b00 	vqrdmulh.s<illegal width 8>	d0, d0, d0
     474:	007c5001 	rsbseq	r5, ip, r1
     478:	5201f31c 	andpl	pc, r1, #28, 6	; 0x70000000
     47c:	00849f22 	addeq	r9, r4, r2, lsr #30
     480:	008c0000 	addeq	r0, ip, r0
     484:	000d0000 	andeq	r0, sp, r0
     488:	f35001f3 	vbsl	q8, q8, <illegal reg q9.5>
     48c:	7c225201 	sfmvc	f5, 4, [r2], #-4
     490:	01231c00 	teqeq	r3, r0, lsl #24
     494:	00008c9f 	muleq	r0, pc, ip	; <UNPREDICTABLE>
     498:	00009400 	andeq	r9, r0, r0, lsl #8
     49c:	52000100 	andpl	r0, r0, #0, 2
	...
     4a8:	00000040 	andeq	r0, r0, r0, asr #32
     4ac:	00000050 	andeq	r0, r0, r0, asr r0
     4b0:	50500001 	subspl	r0, r0, r1
     4b4:	60000000 	andvs	r0, r0, r0
     4b8:	01000000 	mrseq	r0, (UNDEF: 0)
     4bc:	00605c00 	rsbeq	r5, r0, r0, lsl #24
     4c0:	00680000 	rsbeq	r0, r8, r0
     4c4:	00030000 	andeq	r0, r3, r0
     4c8:	689f7f7c 	ldmvs	pc, {r2, r3, r4, r5, r6, r8, r9, sl, fp, ip, sp, lr}	; <UNPREDICTABLE>
     4cc:	6c000000 	stcvs	0, cr0, [r0], {-0}
     4d0:	01000000 	mrseq	r0, (UNDEF: 0)
     4d4:	006c5c00 	rsbeq	r5, ip, r0, lsl #24
     4d8:	00780000 	rsbseq	r0, r8, r0
     4dc:	00030000 	andeq	r0, r3, r0
     4e0:	789f7f7c 	ldmvc	pc, {r2, r3, r4, r5, r6, r8, r9, sl, fp, ip, sp, lr}	; <UNPREDICTABLE>
     4e4:	84000000 	strhi	r0, [r0], #-0
     4e8:	01000000 	mrseq	r0, (UNDEF: 0)
     4ec:	00845c00 	addeq	r5, r4, r0, lsl #24
     4f0:	008c0000 	addeq	r0, ip, r0
     4f4:	00030000 	andeq	r0, r3, r0
     4f8:	8c9f7f7c 	ldchi	15, cr7, [pc], {124}	; 0x7c
     4fc:	90000000 	andls	r0, r0, r0
     500:	01000000 	mrseq	r0, (UNDEF: 0)
     504:	00905000 	addseq	r5, r0, r0
     508:	00940000 	addseq	r0, r4, r0
     50c:	00040000 	andeq	r0, r4, r0
     510:	9f5001f3 	svcls	0x005001f3
	...
     51c:	00000040 	andeq	r0, r0, r0, asr #32
     520:	00000068 	andeq	r0, r0, r8, rrx
     524:	68510001 	ldmdavs	r1, {r0}^
     528:	6c000000 	stcvs	0, cr0, [r0], {-0}
     52c:	0b000000 	bleq	534 <_back_addr-0x160facc>
     530:	5101f300 	mrspl	pc, SP_irq	; <UNPREDICTABLE>
     534:	1c5001f3 	ldfnee	f0, [r0], {243}	; 0xf3
     538:	9f22007c 	svcls	0x0022007c
     53c:	0000006c 	andeq	r0, r0, ip, rrx
     540:	00000078 	andeq	r0, r0, r8, ror r0
     544:	01f3000c 	mvnseq	r0, ip
     548:	007c2050 	rsbseq	r2, ip, r0, asr r0
     54c:	5101f322 	tstpl	r1, r2, lsr #6
     550:	00789f22 	rsbseq	r9, r8, r2, lsr #30
     554:	00840000 	addeq	r0, r4, r0
     558:	000b0000 	andeq	r0, fp, r0
     55c:	f35101f3 	vbsl	q8, <illegal reg q8.5>, <illegal reg q9.5>
     560:	7c1c5001 	ldcvc	0, cr5, [ip], {1}
     564:	849f2200 	ldrhi	r2, [pc], #512	; 56c <_back_addr-0x160fa94>
     568:	8c000000 	stchi	0, cr0, [r0], {-0}
     56c:	0c000000 	stceq	0, cr0, [r0], {-0}
     570:	5001f300 	andpl	pc, r1, r0, lsl #6
     574:	22007c20 	andcs	r7, r0, #32, 24	; 0x2000
     578:	225101f3 	subscs	r0, r1, #-1073741764	; 0xc000003c
     57c:	00008c9f 	muleq	r0, pc, ip	; <UNPREDICTABLE>
     580:	00009400 	andeq	r9, r0, r0, lsl #8
     584:	51000100 	mrspl	r0, (UNDEF: 16)
	...
     590:	00000040 	andeq	r0, r0, r0, asr #32
     594:	00000050 	andeq	r0, r0, r0, asr r0
     598:	9f300002 	svcls	0x00300002
     59c:	00000050 	andeq	r0, r0, r0, asr r0
     5a0:	00000054 	andeq	r0, r0, r4, asr r0
     5a4:	00730006 	rsbseq	r0, r3, r6
     5a8:	9f1c0070 	svcls	0x001c0070
     5ac:	00000054 	andeq	r0, r0, r4, asr r0
     5b0:	00000068 	andeq	r0, r0, r8, rrx
     5b4:	68500001 	ldmdavs	r0, {r0}^
     5b8:	70000000 	andvc	r0, r0, r0
     5bc:	02000000 	andeq	r0, r0, #0
     5c0:	709f3000 	addsvc	r3, pc, r0
     5c4:	74000000 	strvc	r0, [r0], #-0
     5c8:	06000000 	streq	r0, [r0], -r0
     5cc:	7e007300 	cdpvc	3, 0, cr7, cr0, cr0, {0}
     5d0:	749f1c00 	ldrvc	r1, [pc], #3072	; 5d8 <_back_addr-0x160fa28>
     5d4:	78000000 	stmdavc	r0, {}	; <UNPREDICTABLE>
     5d8:	01000000 	mrseq	r0, (UNDEF: 0)
     5dc:	00785300 	rsbseq	r5, r8, r0, lsl #6
     5e0:	00840000 	addeq	r0, r4, r0
     5e4:	00020000 	andeq	r0, r2, r0
     5e8:	00849f30 	addeq	r9, r4, r0, lsr pc
     5ec:	00880000 	addeq	r0, r8, r0
     5f0:	00010000 	andeq	r0, r1, r0
     5f4:	00008853 	andeq	r8, r0, r3, asr r8
     5f8:	00008c00 	andeq	r8, r0, r0, lsl #24
     5fc:	50000100 	andpl	r0, r0, r0, lsl #2
     600:	0000008c 	andeq	r0, r0, ip, lsl #1
     604:	00000090 	muleq	r0, r0, r0
     608:	9f300002 	svcls	0x00300002
     60c:	00000090 	muleq	r0, r0, r0
     610:	00000094 	muleq	r0, r4, r0
     614:	00500001 	subseq	r0, r0, r1
     618:	00000000 	andeq	r0, r0, r0
     61c:	94000000 	strls	r0, [r0], #-0
     620:	b0000000 	andlt	r0, r0, r0
     624:	01000000 	mrseq	r0, (UNDEF: 0)
     628:	00b05000 	adcseq	r5, r0, r0
     62c:	03680000 	cmneq	r8, #0
     630:	00040000 	andeq	r0, r4, r0
     634:	9f5001f3 	svcls	0x005001f3
	...
     640:	00000094 	muleq	r0, r4, r0
     644:	00000348 	andeq	r0, r0, r8, asr #6
     648:	ff090003 			; <UNDEFINED> instruction: 0xff090003
     64c:	0003489f 	muleq	r3, pc, r8	; <UNPREDICTABLE>
     650:	00035000 	andeq	r5, r3, r0
     654:	50000100 	andpl	r0, r0, r0, lsl #2
     658:	00000350 	andeq	r0, r0, r0, asr r3
     65c:	0000035c 	andeq	r0, r0, ip, asr r3
     660:	ff090003 			; <UNDEFINED> instruction: 0xff090003
     664:	00035c9f 	muleq	r3, pc, ip	; <UNPREDICTABLE>
     668:	00036800 	andeq	r6, r3, r0, lsl #16
     66c:	31000200 	mrscc	r0, R8_usr
     670:	0000009f 	muleq	r0, pc, r0	; <UNPREDICTABLE>
     674:	00000000 	andeq	r0, r0, r0
     678:	00022000 	andeq	r2, r2, r0
     67c:	00034c00 	andeq	r4, r3, r0, lsl #24
     680:	5d000100 	stfpls	f0, [r0, #-0]
     684:	0000034c 	andeq	r0, r0, ip, asr #6
     688:	00000350 	andeq	r0, r0, r0, asr r3
     68c:	c0910004 	addsgt	r0, r1, r4
     690:	03509f7b 	cmpeq	r0, #492	; 0x1ec
     694:	03640000 	cmneq	r4, #0
     698:	00010000 	andeq	r0, r1, r0
     69c:	0003645d 	andeq	r6, r3, sp, asr r4
     6a0:	00036800 	andeq	r6, r3, r0, lsl #16
     6a4:	91000400 	tstls	r0, r0, lsl #8
     6a8:	009f7bc0 	addseq	r7, pc, r0, asr #23
     6ac:	00000000 	andeq	r0, r0, r0
     6b0:	20000000 	andcs	r0, r0, r0
     6b4:	c8000002 	stmdagt	r0, {r1}
     6b8:	04000002 	streq	r0, [r0], #-2
     6bc:	7be09100 	blvc	ff824ac4 <__bss_end__+0xfe201f04>
     6c0:	0002c89f 	muleq	r2, pc, r8	; <UNPREDICTABLE>
     6c4:	0002d300 	andeq	sp, r2, r0, lsl #6
     6c8:	52000100 	andpl	r0, r0, #0, 2
     6cc:	000002d3 	ldrdeq	r0, [r0], -r3
     6d0:	000002dc 	ldrdeq	r0, [r0], -ip
     6d4:	e0910004 	adds	r0, r1, r4
     6d8:	02dc9f7b 	sbcseq	r9, ip, #492	; 0x1ec
     6dc:	02df0000 	sbcseq	r0, pc, #0
     6e0:	00010000 	andeq	r0, r1, r0
     6e4:	0002df50 	andeq	sp, r2, r0, asr pc
     6e8:	00031800 	andeq	r1, r3, r0, lsl #16
     6ec:	91000400 	tstls	r0, r0, lsl #8
     6f0:	189f7be0 	ldmne	pc, {r5, r6, r7, r8, r9, fp, ip, sp, lr}	; <UNPREDICTABLE>
     6f4:	20000003 	andcs	r0, r0, r3
     6f8:	01000003 	tsteq	r0, r3
     6fc:	03205200 	teqeq	r0, #0, 4
     700:	03680000 	cmneq	r8, #0
     704:	00040000 	andeq	r0, r4, r0
     708:	9f7be091 	svcls	0x007be091
	...
     714:	00000220 	andeq	r0, r0, r0, lsr #4
     718:	00000298 	muleq	r0, r8, r2
     71c:	9f300002 	svcls	0x00300002
     720:	00000298 	muleq	r0, r8, r2
     724:	000002a8 	andeq	r0, r0, r8, lsr #5
     728:	a8550001 	ldmdage	r5, {r0}^
     72c:	b3000002 	movwlt	r0, #2
     730:	01000002 	tsteq	r0, r2
     734:	02b45000 	adcseq	r5, r4, #0
     738:	03680000 	cmneq	r8, #0
     73c:	00010000 	andeq	r0, r1, r0
     740:	00000055 	andeq	r0, r0, r5, asr r0
     744:	00000000 	andeq	r0, r0, r0
     748:	0002e400 	andeq	lr, r2, r0, lsl #8
     74c:	0002e800 	andeq	lr, r2, r0, lsl #16
     750:	91000400 	tstls	r0, r0, lsl #8
     754:	e89f7de0 	ldm	pc, {r5, r6, r7, r8, sl, fp, ip, sp, lr}	; <UNPREDICTABLE>
     758:	f7000002 			; <UNDEFINED> instruction: 0xf7000002
     75c:	01000002 	tsteq	r0, r2
     760:	02f75200 	rscseq	r5, r7, #0, 4
     764:	03140000 	tsteq	r4, #0
     768:	00040000 	andeq	r0, r4, r0
     76c:	9f7de091 	svcls	0x007de091
     770:	00000314 	andeq	r0, r0, r4, lsl r3
     774:	00000320 	andeq	r0, r0, r0, lsr #6
     778:	20530001 	subscs	r0, r3, r1
     77c:	68000003 	stmdavs	r0, {r0, r1}
     780:	04000003 	streq	r0, [r0], #-3
     784:	7de09100 	stfvcp	f1, [r0]
     788:	0000009f 	muleq	r0, pc, r0	; <UNPREDICTABLE>
     78c:	00000000 	andeq	r0, r0, r0
     790:	0002e400 	andeq	lr, r2, r0, lsl #8
     794:	0002ec00 	andeq	lr, r2, r0, lsl #24
     798:	74000600 	strvc	r0, [r0], #-1536	; 0x600
     79c:	0bc08080 	bleq	ff0209a4 <__bss_end__+0xfd9fdde4>
     7a0:	0002ec9f 	muleq	r2, pc, ip	; <UNPREDICTABLE>
     7a4:	0002f700 	andeq	pc, r2, r0, lsl #14
     7a8:	50000100 	andpl	r0, r0, r0, lsl #2
     7ac:	000002f7 	strdeq	r0, [r0], -r7
     7b0:	00000368 	andeq	r0, r0, r8, ror #6
     7b4:	80740006 	rsbshi	r0, r4, r6
     7b8:	9f0bc080 	svcls	0x000bc080
	...
     7c4:	000002fc 	strdeq	r0, [r0], -ip
     7c8:	00000320 	andeq	r0, r0, r0, lsr #6
     7cc:	000a0004 	andeq	r0, sl, r4
     7d0:	03209f01 	teqeq	r0, #1, 30
     7d4:	03380000 	teqeq	r8, #0
     7d8:	00080000 	andeq	r0, r8, r0
     7dc:	00737c91 			; <UNDEFINED> instruction: 0x00737c91
     7e0:	9f1c4d1c 	svcls	0x001c4d1c
     7e4:	00000350 	andeq	r0, r0, r0, asr r3
     7e8:	0000035b 	andeq	r0, r0, fp, asr r3
     7ec:	7c910008 	ldcvc	0, cr0, [r1], {8}
     7f0:	4d1c0073 	ldcmi	0, cr0, [ip, #-460]	; 0xfffffe34
     7f4:	00009f1c 	andeq	r9, r0, ip, lsl pc
     7f8:	00000000 	andeq	r0, r0, r0
     7fc:	02fc0000 	rscseq	r0, ip, #0
     800:	03180000 	tsteq	r8, #0
     804:	00040000 	andeq	r0, r4, r0
     808:	9f7be091 	svcls	0x007be091
     80c:	00000318 	andeq	r0, r0, r8, lsl r3
     810:	00000320 	andeq	r0, r0, r0, lsr #6
     814:	20520001 	subscs	r0, r2, r1
     818:	68000003 	stmdavs	r0, {r0, r1}
     81c:	04000003 	streq	r0, [r0], #-3
     820:	7be09100 	blvc	ff824c28 <__bss_end__+0xfe202068>
     824:	0000009f 	muleq	r0, pc, r0	; <UNPREDICTABLE>
     828:	00000000 	andeq	r0, r0, r0
     82c:	0002fc00 	andeq	pc, r2, r0, lsl #24
     830:	00031400 	andeq	r1, r3, r0, lsl #8
     834:	91000400 	tstls	r0, r0, lsl #8
     838:	149f7de0 	ldrne	r7, [pc], #3552	; 840 <_back_addr-0x160f7c0>
     83c:	20000003 	andcs	r0, r0, r3
     840:	01000003 	tsteq	r0, r3
     844:	03205300 	teqeq	r0, #0, 6
     848:	03680000 	cmneq	r8, #0
     84c:	00040000 	andeq	r0, r4, r0
     850:	9f7de091 	svcls	0x007de091
	...
     85c:	000002fc 	strdeq	r0, [r0], -ip
     860:	00000314 	andeq	r0, r0, r4, lsl r3
     864:	e0910004 	adds	r0, r1, r4
     868:	03149f7d 	tsteq	r4, #500	; 0x1f4
     86c:	03200000 	teqeq	r0, #0
     870:	00010000 	andeq	r0, r1, r0
     874:	00032053 	andeq	r2, r3, r3, asr r0
     878:	00033800 	andeq	r3, r3, r0, lsl #16
     87c:	73000300 	movwvc	r0, #768	; 0x300
     880:	03509f01 	cmpeq	r0, #1, 30
     884:	035b0000 	cmpeq	fp, #0
     888:	00030000 	andeq	r0, r3, r0
     88c:	009f0173 	addseq	r0, pc, r3, ror r1	; <UNPREDICTABLE>
     890:	00000000 	andeq	r0, r0, r0
     894:	fc000000 	stc2	0, cr0, [r0], {-0}
     898:	18000002 	stmdane	r0, {r1}
     89c:	04000003 	streq	r0, [r0], #-3
     8a0:	7be09100 	blvc	ff824ca8 <__bss_end__+0xfe2020e8>
     8a4:	0003189f 	muleq	r3, pc, r8	; <UNPREDICTABLE>
     8a8:	00032000 	andeq	r2, r3, r0
     8ac:	52000100 	andpl	r0, r0, #0, 2
     8b0:	00000320 	andeq	r0, r0, r0, lsr #6
     8b4:	00000338 	andeq	r0, r0, r8, lsr r3
     8b8:	81730004 	cmnhi	r3, r4
     8bc:	03509f7e 	cmpeq	r0, #504	; 0x1f8
     8c0:	035b0000 	cmpeq	fp, #0
     8c4:	00040000 	andeq	r0, r4, r0
     8c8:	9f7e8173 	svcls	0x007e8173
	...
     8d4:	000002fc 	strdeq	r0, [r0], -ip
     8d8:	00000300 	andeq	r0, r0, r0, lsl #6
     8dc:	e0910012 	adds	r0, r1, r2, lsl r0
     8e0:	0801947d 	stmdaeq	r1, {r0, r2, r3, r4, r5, r6, sl, ip, pc}
     8e4:	e0911aff 			; <UNDEFINED> instruction: 0xe0911aff
     8e8:	0801947b 	stmdaeq	r1, {r0, r1, r3, r4, r5, r6, sl, ip, pc}
     8ec:	9f1c1aff 	svcls	0x001c1aff
     8f0:	00000300 	andeq	r0, r0, r0, lsl #6
     8f4:	00000304 	andeq	r0, r0, r4, lsl #6
     8f8:	0072000c 	rsbseq	r0, r2, ip
     8fc:	947be091 	ldrbtls	lr, [fp], #-145	; 0x91
     900:	1aff0801 	bne	fffc290c <__bss_end__+0xfe99fd4c>
     904:	03049f1c 	movweq	r9, #20252	; 0x4f1c
     908:	03140000 	tsteq	r4, #0
     90c:	00060000 	andeq	r0, r6, r0
     910:	00730072 	rsbseq	r0, r3, r2, ror r0
     914:	03149f1c 	tsteq	r4, #28, 30	; 0x70
     918:	03180000 	tsteq	r8, #0
     91c:	000c0000 	andeq	r0, ip, r0
     920:	e0910072 	adds	r0, r1, r2, ror r0
     924:	0801947b 	stmdaeq	r1, {r0, r1, r3, r4, r5, r6, sl, ip, pc}
     928:	9f1c1aff 	svcls	0x001c1aff
     92c:	00000318 	andeq	r0, r0, r8, lsl r3
     930:	00000320 	andeq	r0, r0, r0, lsr #6
     934:	00730010 	rsbseq	r0, r3, r0, lsl r0
     938:	ff080194 			; <UNDEFINED> instruction: 0xff080194
     93c:	9400721a 	strls	r7, [r0], #-538	; 0x21a
     940:	1aff0801 	bne	fffc294c <__bss_end__+0xfe99fd8c>
     944:	03209f1c 	teqeq	r0, #28, 30	; 0x70
     948:	03280000 	teqeq	r8, #0
     94c:	00020000 	andeq	r0, r2, r0
     950:	03289f30 	teqeq	r8, #48, 30	; 0xc0
     954:	032c0000 	teqeq	ip, #0
     958:	00100000 	andseq	r0, r0, r0
     95c:	01940073 	orrseq	r0, r4, r3, ror r0
     960:	721aff08 	andsvc	pc, sl, #8, 30
     964:	08019400 	stmdaeq	r1, {sl, ip, pc}
     968:	9f1c1aff 	svcls	0x001c1aff
     96c:	0000032c 	andeq	r0, r0, ip, lsr #6
     970:	00000338 	andeq	r0, r0, r8, lsr r3
     974:	9f300002 	svcls	0x00300002
	...
     980:	00000368 	andeq	r0, r0, r8, ror #6
     984:	00000378 	andeq	r0, r0, r8, ror r3
     988:	78500001 	ldmdavc	r0, {r0}^
     98c:	7b000003 	blvc	9a0 <_back_addr-0x160f660>
     990:	01000003 	tsteq	r0, r3
     994:	037b5300 	cmneq	fp, #0, 6
     998:	037c0000 	cmneq	ip, #0
     99c:	00040000 	andeq	r0, r4, r0
     9a0:	9f5001f3 	svcls	0x005001f3
	...
     9ac:	00000368 	andeq	r0, r0, r8, ror #6
     9b0:	00000374 	andeq	r0, r0, r4, ror r3
     9b4:	74510001 	ldrbvc	r0, [r1], #-1
     9b8:	7b000003 	blvc	9cc <_back_addr-0x160f634>
     9bc:	01000003 	tsteq	r0, r3
     9c0:	037b5c00 	cmneq	fp, #0, 24
     9c4:	037c0000 	cmneq	ip, #0
     9c8:	00040000 	andeq	r0, r4, r0
     9cc:	9f5101f3 	svcls	0x005101f3
	...
     9d8:	00000368 	andeq	r0, r0, r8, ror #6
     9dc:	0000037b 	andeq	r0, r0, fp, ror r3
     9e0:	7b520001 	blvc	14809ec <_back_addr-0x18f614>
     9e4:	7c000003 	stcvc	0, cr0, [r0], {3}
     9e8:	04000003 	streq	r0, [r0], #-3
     9ec:	5201f300 	andpl	pc, r1, #0, 6
     9f0:	0000009f 	muleq	r0, pc, r0	; <UNPREDICTABLE>
     9f4:	00000000 	andeq	r0, r0, r0
     9f8:	00037c00 	andeq	r7, r3, r0, lsl #24
     9fc:	00039700 	andeq	r9, r3, r0, lsl #14
     a00:	50000100 	andpl	r0, r0, r0, lsl #2
     a04:	00000397 	muleq	r0, r7, r3
     a08:	000003c8 	andeq	r0, r0, r8, asr #7
     a0c:	01f30004 	mvnseq	r0, r4
     a10:	00009f50 	andeq	r9, r0, r0, asr pc
     a14:	00000000 	andeq	r0, r0, r0
     a18:	037c0000 	cmneq	ip, #0
     a1c:	03970000 	orrseq	r0, r7, #0
     a20:	00010000 	andeq	r0, r1, r0
     a24:	00039751 	andeq	r9, r3, r1, asr r7
     a28:	0003c800 	andeq	ip, r3, r0, lsl #16
     a2c:	55000100 	strpl	r0, [r0, #-256]	; 0x100
	...
     a38:	0000037c 	andeq	r0, r0, ip, ror r3
     a3c:	000003a8 	andeq	r0, r0, r8, lsr #7
     a40:	ff090003 			; <UNDEFINED> instruction: 0xff090003
     a44:	0003a89f 	muleq	r3, pc, r8	; <UNPREDICTABLE>
     a48:	0003b000 	andeq	fp, r3, r0
     a4c:	50000100 	andpl	r0, r0, r0, lsl #2
	...
     a58:	00000008 	andeq	r0, r0, r8
     a5c:	00000014 	andeq	r0, r0, r4, lsl r0
     a60:	9f300002 	svcls	0x00300002
     a64:	00000014 	andeq	r0, r0, r4, lsl r0
     a68:	000000e4 	andeq	r0, r0, r4, ror #1
     a6c:	00550001 	subseq	r0, r5, r1
     a70:	00000000 	andeq	r0, r0, r0
     a74:	14000000 	strne	r0, [r0], #-0
     a78:	18000000 	stmdane	r0, {}	; <UNPREDICTABLE>
     a7c:	08000000 	stmdaeq	r0, {}	; <UNPREDICTABLE>
     a80:	7e007700 	cdpvc	7, 0, cr7, cr0, cr0, {0}
     a84:	1a372500 	bne	dc9e8c <_back_addr-0x846174>
     a88:	0000189f 	muleq	r0, pc, r8	; <UNPREDICTABLE>
     a8c:	00002400 	andeq	r2, r0, r0, lsl #8
     a90:	77000800 	strvc	r0, [r0, -r0, lsl #16]
     a94:	257d7e00 	ldrbcs	r7, [sp, #-3584]!	; 0xe00
     a98:	249f1a37 	ldrcs	r1, [pc], #2615	; aa0 <_back_addr-0x160f560>
     a9c:	2c000000 	stccs	0, cr0, [r0], {-0}
     aa0:	08000000 	stmdaeq	r0, {}	; <UNPREDICTABLE>
     aa4:	7e007700 	cdpvc	7, 0, cr7, cr0, cr0, {0}
     aa8:	1a372500 	bne	dc9eb0 <_back_addr-0x846150>
     aac:	00002c9f 	muleq	r0, pc, ip	; <UNPREDICTABLE>
     ab0:	00003000 	andeq	r3, r0, r0
     ab4:	53000100 	movwpl	r0, #256	; 0x100
     ab8:	00000030 	andeq	r0, r0, r0, lsr r0
     abc:	00000058 	andeq	r0, r0, r8, asr r0
     ac0:	02730003 	rsbseq	r0, r3, #3
     ac4:	0000589f 	muleq	r0, pc, r8	; <UNPREDICTABLE>
     ac8:	0000b000 	andeq	fp, r0, r0
     acc:	77000800 	strvc	r0, [r0, -r0, lsl #16]
     ad0:	25007e00 	strcs	r7, [r0, #-3584]	; 0xe00
     ad4:	b09f1a37 	addslt	r1, pc, r7, lsr sl	; <UNPREDICTABLE>
     ad8:	bc000000 	stclt	0, cr0, [r0], {-0}
     adc:	08000000 	stmdaeq	r0, {}	; <UNPREDICTABLE>
     ae0:	7e007700 	cdpvc	7, 0, cr7, cr0, cr0, {0}
     ae4:	1a37257d 	bne	dca0e0 <_back_addr-0x845f20>
     ae8:	0000c09f 	muleq	r0, pc, r0	; <UNPREDICTABLE>
     aec:	0000e400 	andeq	lr, r0, r0, lsl #8
     af0:	77000800 	strvc	r0, [r0, -r0, lsl #16]
     af4:	25007e00 	strcs	r7, [r0, #-3584]	; 0xe00
     af8:	009f1a37 	addseq	r1, pc, r7, lsr sl	; <UNPREDICTABLE>
	...
     b04:	14000000 	strne	r0, [r0], #-0
     b08:	02000000 	andeq	r0, r0, #0
     b0c:	149f3000 	ldrne	r3, [pc], #0	; b14 <_back_addr-0x160f4ec>
     b10:	e4000000 	str	r0, [r0], #-0
     b14:	01000000 	mrseq	r0, (UNDEF: 0)
     b18:	00005e00 	andeq	r5, r0, r0, lsl #28
     b1c:	00000000 	andeq	r0, r0, r0
     b20:	00380000 	eorseq	r0, r8, r0
     b24:	00b40000 	adcseq	r0, r4, r0
     b28:	00010000 	andeq	r0, r1, r0
     b2c:	0000b455 	andeq	fp, r0, r5, asr r4
     b30:	0000bc00 	andeq	fp, r0, r0, lsl #24
     b34:	75000300 	strvc	r0, [r0, #-768]	; 0x300
     b38:	00c09f7f 	sbceq	r9, r0, pc, ror pc
     b3c:	00e40000 	rsceq	r0, r4, r0
     b40:	00010000 	andeq	r0, r1, r0
     b44:	00000055 	andeq	r0, r0, r5, asr r0
     b48:	00000000 	andeq	r0, r0, r0
     b4c:	00005c00 	andeq	r5, r0, r0, lsl #24
     b50:	0000bc00 	andeq	fp, r0, r0, lsl #24
     b54:	74000300 	strvc	r0, [r0], #-768	; 0x300
     b58:	00c09f01 	sbceq	r9, r0, r1, lsl #30
     b5c:	00e40000 	rsceq	r0, r4, r0
     b60:	00030000 	andeq	r0, r3, r0
     b64:	009f0174 	addseq	r0, pc, r4, ror r1	; <UNPREDICTABLE>
     b68:	00000000 	andeq	r0, r0, r0
     b6c:	54000000 	strpl	r0, [r0], #-0
     b70:	5c000000 	stcpl	0, cr0, [r0], {-0}
     b74:	0b000000 	bleq	b7c <_back_addr-0x160f484>
     b78:	0a007400 	beq	1db80 <_back_addr-0x15f2480>
     b7c:	331a1ff8 	tstcc	sl, #248, 30	; 0x3e0
     b80:	9f012325 	svcls	0x00012325
	...
     b8c:	00000044 	andeq	r0, r0, r4, asr #32
     b90:	00000054 	andeq	r0, r0, r4, asr r0
     b94:	00740007 	rsbseq	r0, r4, r7
     b98:	02231a37 	eoreq	r1, r3, #225280	; 0x37000
     b9c:	0000549f 	muleq	r0, pc, r4	; <UNPREDICTABLE>
     ba0:	0000bc00 	andeq	fp, r0, r0, lsl #24
     ba4:	52000100 	andpl	r0, r0, #0, 2
     ba8:	000000c0 	andeq	r0, r0, r0, asr #1
     bac:	000000e4 	andeq	r0, r0, r4, ror #1
     bb0:	00520001 	subseq	r0, r2, r1
     bb4:	00000000 	andeq	r0, r0, r0
     bb8:	74000000 	strvc	r0, [r0], #-0
     bbc:	88000000 	stmdahi	r0, {}	; <UNPREDICTABLE>
     bc0:	01000000 	mrseq	r0, (UNDEF: 0)
     bc4:	00005100 	andeq	r5, r0, r0, lsl #2
     bc8:	00000000 	andeq	r0, r0, r0
     bcc:	007c0000 	rsbseq	r0, ip, r0
     bd0:	00bc0000 	adcseq	r0, ip, r0
     bd4:	00010000 	andeq	r0, r1, r0
     bd8:	0000c058 	andeq	ip, r0, r8, asr r0
     bdc:	0000e400 	andeq	lr, r0, r0, lsl #8
     be0:	58000100 	stmdapl	r0, {r8}
	...
     bec:	00000038 	andeq	r0, r0, r8, lsr r0
     bf0:	000000bc 	strheq	r0, [r0], -ip
     bf4:	9f300002 	svcls	0x00300002
     bf8:	000000c0 	andeq	r0, r0, r0, asr #1
     bfc:	000000e4 	andeq	r0, r0, r4, ror #1
     c00:	9f300002 	svcls	0x00300002
	...
     c0c:	0000003c 	andeq	r0, r0, ip, lsr r0
     c10:	000000bc 	strheq	r0, [r0], -ip
     c14:	c0560001 	subsgt	r0, r6, r1
     c18:	e4000000 	str	r0, [r0], #-0
     c1c:	01000000 	mrseq	r0, (UNDEF: 0)
     c20:	00005600 	andeq	r5, r0, r0, lsl #12
     c24:	00000000 	andeq	r0, r0, r0
     c28:	00440000 	subeq	r0, r4, r0
     c2c:	005c0000 	subseq	r0, ip, r0
     c30:	00010000 	andeq	r0, r1, r0
     c34:	00000054 	andeq	r0, r0, r4, asr r0
     c38:	00000000 	andeq	r0, r0, r0
     c3c:	00005c00 	andeq	r5, r0, r0, lsl #24
     c40:	00006000 	andeq	r6, r0, r0
     c44:	09000300 	stmdbeq	r0, {r8, r9}
     c48:	00609fff 	strdeq	r9, [r0], #-255	; 0xffffff01	; <UNPREDICTABLE>
     c4c:	00740000 	rsbseq	r0, r4, r0
     c50:	00010000 	andeq	r0, r1, r0
     c54:	00000051 	andeq	r0, r0, r1, asr r0
     c58:	00000000 	andeq	r0, r0, r0
     c5c:	00006000 	andeq	r6, r0, r0
     c60:	00006400 	andeq	r6, r0, r0, lsl #8
     c64:	53000100 	movwpl	r0, #256	; 0x100
	...
     c70:	00000088 	andeq	r0, r0, r8, lsl #1
     c74:	000000a4 	andeq	r0, r0, r4, lsr #1
     c78:	a4590001 	ldrbge	r0, [r9], #-1
     c7c:	a8000000 	stmdage	r0, {}	; <UNPREDICTABLE>
     c80:	03000000 	movweq	r0, #0
     c84:	9f017900 	svcls	0x00017900
	...
     c90:	00000090 	muleq	r0, r0, r0
     c94:	0000009c 	muleq	r0, ip, r0
     c98:	9c530001 	mrrcls	0, 0, r0, r3, cr1
     c9c:	a8000000 	stmdage	r0, {}	; <UNPREDICTABLE>
     ca0:	03000000 	movweq	r0, #0
     ca4:	9f017300 	svcls	0x00017300
	...
     cb0:	00000090 	muleq	r0, r0, r0
     cb4:	00000094 	muleq	r0, r4, r0
     cb8:	00730009 	rsbseq	r0, r3, r9
     cbc:	7c240072 	stcvc	0, cr0, [r4], #-456	; 0xfffffe38
     cc0:	949f2100 	ldrls	r2, [pc], #256	; cc8 <_back_addr-0x160f338>
     cc4:	a8000000 	stmdage	r0, {}	; <UNPREDICTABLE>
     cc8:	01000000 	mrseq	r0, (UNDEF: 0)
     ccc:	00005100 	andeq	r5, r0, r0, lsl #2
     cd0:	00000000 	andeq	r0, r0, r0
     cd4:	00c00000 	sbceq	r0, r0, r0
     cd8:	00c40000 	sbceq	r0, r4, r0
     cdc:	00010000 	andeq	r0, r1, r0
     ce0:	0000c459 	andeq	ip, r0, r9, asr r4
     ce4:	0000c800 	andeq	ip, r0, r0, lsl #16
     ce8:	79000300 	stmdbvc	r0, {r8, r9}
     cec:	00c89f01 	sbceq	r9, r8, r1, lsl #30
     cf0:	00e40000 	rsceq	r0, r4, r0
     cf4:	00010000 	andeq	r0, r1, r0
     cf8:	00000059 	andeq	r0, r0, r9, asr r0
     cfc:	00000000 	andeq	r0, r0, r0
     d00:	0000c000 	andeq	ip, r0, r0
     d04:	0000c800 	andeq	ip, r0, r0, lsl #16
     d08:	73000300 	movwvc	r0, #768	; 0x300
     d0c:	00d09f01 	sbcseq	r9, r0, r1, lsl #30
     d10:	00dc0000 	sbcseq	r0, ip, r0
     d14:	00010000 	andeq	r0, r1, r0
     d18:	0000dc53 	andeq	sp, r0, r3, asr ip
     d1c:	0000e400 	andeq	lr, r0, r0, lsl #8
     d20:	73000300 	movwvc	r0, #768	; 0x300
     d24:	00009f01 	andeq	r9, r0, r1, lsl #30
     d28:	00000000 	andeq	r0, r0, r0
     d2c:	00c00000 	sbceq	r0, r0, r0
     d30:	00c80000 	sbceq	r0, r8, r0
     d34:	00010000 	andeq	r0, r1, r0
     d38:	0000d051 	andeq	sp, r0, r1, asr r0
     d3c:	0000d400 	andeq	sp, r0, r0, lsl #8
     d40:	73000900 	movwvc	r0, #2304	; 0x900
     d44:	24007200 	strcs	r7, [r0], #-512	; 0x200
     d48:	9f21007c 	svcls	0x0021007c
     d4c:	000000d4 	ldrdeq	r0, [r0], -r4
     d50:	000000e4 	andeq	r0, r0, r4, ror #1
     d54:	00510001 	subseq	r0, r1, r1
     d58:	00000000 	andeq	r0, r0, r0
     d5c:	68000000 	stmdavs	r0, {}	; <UNPREDICTABLE>
     d60:	a3000001 	movwge	r0, #1
     d64:	01000001 	tsteq	r0, r1
     d68:	01a35000 			; <UNDEFINED> instruction: 0x01a35000
     d6c:	01a40000 			; <UNDEFINED> instruction: 0x01a40000
     d70:	00040000 	andeq	r0, r4, r0
     d74:	9f5001f3 	svcls	0x005001f3
	...
     d80:	00000168 	andeq	r0, r0, r8, ror #2
     d84:	000001a3 	andeq	r0, r0, r3, lsr #3
     d88:	a3510001 	cmpge	r1, #1
     d8c:	a4000001 	strge	r0, [r0], #-1
     d90:	04000001 	streq	r0, [r0], #-1
     d94:	5101f300 	mrspl	pc, SP_irq	; <UNPREDICTABLE>
     d98:	0000009f 	muleq	r0, pc, r0	; <UNPREDICTABLE>
     d9c:	00000000 	andeq	r0, r0, r0
     da0:	00016c00 	andeq	r6, r1, r0, lsl #24
     da4:	00017000 	andeq	r7, r1, r0
     da8:	72000700 	andvc	r0, r0, #0, 14
     dac:	231a3700 	tstcs	sl, #0, 14
     db0:	01789f04 	cmneq	r8, r4, lsl #30
     db4:	01a30000 			; <UNDEFINED> instruction: 0x01a30000
     db8:	00010000 	andeq	r0, r1, r0
     dbc:	00000052 	andeq	r0, r0, r2, asr r0
     dc0:	00000000 	andeq	r0, r0, r0
     dc4:	00016c00 	andeq	r6, r1, r0, lsl #24
     dc8:	00017000 	andeq	r7, r1, r0
     dcc:	52000100 	andpl	r0, r0, #0, 2
	...
     dd8:	0000017c 	andeq	r0, r0, ip, ror r1
     ddc:	000001a3 	andeq	r0, r0, r3, lsr #3
     de0:	00520001 	subseq	r0, r2, r1
     de4:	00000000 	andeq	r0, r0, r0
     de8:	7c000000 	stcvc	0, cr0, [r0], {-0}
     dec:	a3000001 	movwge	r0, #1
     df0:	01000001 	tsteq	r0, r1
     df4:	01a35100 			; <UNDEFINED> instruction: 0x01a35100
     df8:	01a40000 			; <UNDEFINED> instruction: 0x01a40000
     dfc:	00040000 	andeq	r0, r4, r0
     e00:	9f5101f3 	svcls	0x005101f3
	...
     e0c:	0000017c 	andeq	r0, r0, ip, ror r1
     e10:	00000184 	andeq	r0, r0, r4, lsl #3
     e14:	84500001 	ldrbhi	r0, [r0], #-1
     e18:	8c000001 	stchi	0, cr0, [r0], {1}
     e1c:	01000001 	tsteq	r0, r1
     e20:	018c5300 	orreq	r5, ip, r0, lsl #6
     e24:	01a30000 			; <UNDEFINED> instruction: 0x01a30000
     e28:	00070000 	andeq	r0, r7, r0
     e2c:	701f0072 	andsvc	r0, pc, r2, ror r0	; <UNPREDICTABLE>
     e30:	009f1a00 	addseq	r1, pc, r0, lsl #20
     e34:	00000000 	andeq	r0, r0, r0
     e38:	84000000 	strhi	r0, [r0], #-0
     e3c:	a3000001 	movwge	r0, #1
     e40:	01000001 	tsteq	r0, r1
     e44:	00005300 	andeq	r5, r0, r0, lsl #6
     e48:	00000000 	andeq	r0, r0, r0
     e4c:	01a40000 			; <UNDEFINED> instruction: 0x01a40000
     e50:	01ab0000 			; <UNDEFINED> instruction: 0x01ab0000
     e54:	00010000 	andeq	r0, r1, r0
     e58:	0001ab50 	andeq	sl, r1, r0, asr fp
     e5c:	0001ac00 	andeq	sl, r1, r0, lsl #24
     e60:	f3000400 	vshl.u8	d0, d0, d0
     e64:	009f5001 	addseq	r5, pc, r1
     e68:	00000000 	andeq	r0, r0, r0
     e6c:	a4000000 	strge	r0, [r0], #-0
     e70:	a8000001 	stmdage	r0, {r0}
     e74:	01000001 	tsteq	r0, r1
     e78:	01a85100 			; <UNDEFINED> instruction: 0x01a85100
     e7c:	01ac0000 			; <UNDEFINED> instruction: 0x01ac0000
     e80:	00040000 	andeq	r0, r4, r0
     e84:	9f5101f3 	svcls	0x005101f3
	...
     e90:	000001b0 			; <UNDEFINED> instruction: 0x000001b0
     e94:	00000217 	andeq	r0, r0, r7, lsl r2
     e98:	17500001 	ldrbne	r0, [r0, -r1]
     e9c:	18000002 	stmdane	r0, {r1}
     ea0:	04000002 	streq	r0, [r0], #-2
     ea4:	5001f300 	andpl	pc, r1, r0, lsl #6
     ea8:	0000009f 	muleq	r0, pc, r0	; <UNPREDICTABLE>
     eac:	00000000 	andeq	r0, r0, r0
     eb0:	0001b000 	andeq	fp, r1, r0
     eb4:	00021700 	andeq	r1, r2, r0, lsl #14
     eb8:	51000100 	mrspl	r0, (UNDEF: 16)
     ebc:	00000217 	andeq	r0, r0, r7, lsl r2
     ec0:	00000218 	andeq	r0, r0, r8, lsl r2
     ec4:	01f30004 	mvnseq	r0, r4
     ec8:	00009f51 	andeq	r9, r0, r1, asr pc
     ecc:	00000000 	andeq	r0, r0, r0
     ed0:	01b80000 			; <UNDEFINED> instruction: 0x01b80000
     ed4:	01bc0000 			; <UNDEFINED> instruction: 0x01bc0000
     ed8:	00070000 	andeq	r0, r7, r0
     edc:	1a37007c 	bne	dc10d4 <_back_addr-0x84ef2c>
     ee0:	c49f0423 	ldrgt	r0, [pc], #1059	; ee8 <_back_addr-0x160f118>
     ee4:	17000001 	strne	r0, [r0, -r1]
     ee8:	01000002 	tsteq	r0, r2
     eec:	00005c00 	andeq	r5, r0, r0, lsl #24
     ef0:	00000000 	andeq	r0, r0, r0
     ef4:	01b80000 			; <UNDEFINED> instruction: 0x01b80000
     ef8:	01bc0000 			; <UNDEFINED> instruction: 0x01bc0000
     efc:	00010000 	andeq	r0, r1, r0
     f00:	0000005c 	andeq	r0, r0, ip, asr r0
     f04:	00000000 	andeq	r0, r0, r0
     f08:	0001c800 	andeq	ip, r1, r0, lsl #16
     f0c:	00021700 	andeq	r1, r2, r0, lsl #14
     f10:	5c000100 	stfpls	f0, [r0], {-0}
	...
     f1c:	000001c8 	andeq	r0, r0, r8, asr #3
     f20:	000001f4 	strdeq	r0, [r0], -r4
     f24:	f4510001 			; <UNDEFINED> instruction: 0xf4510001
     f28:	17000001 	strne	r0, [r0, -r1]
     f2c:	01000002 	tsteq	r0, r2
     f30:	00005200 	andeq	r5, r0, r0, lsl #4
     f34:	00000000 	andeq	r0, r0, r0
     f38:	01c80000 	biceq	r0, r8, r0
     f3c:	01e40000 	mvneq	r0, r0
     f40:	00010000 	andeq	r0, r1, r0
     f44:	0001e450 	andeq	lr, r1, r0, asr r4
     f48:	0001fc00 	andeq	pc, r1, r0, lsl #24
     f4c:	53000100 	movwpl	r0, #256	; 0x100
	...
     f58:	000001f4 	strdeq	r0, [r0], -r4
     f5c:	00000217 	andeq	r0, r0, r7, lsl r2
     f60:	00530001 	subseq	r0, r3, r1
     f64:	00000000 	andeq	r0, r0, r0
     f68:	88000000 	stmdahi	r0, {}	; <UNPREDICTABLE>
     f6c:	98000000 	stmdals	r0, {}	; <UNPREDICTABLE>
     f70:	09000000 	stmdbeq	r0, {}	; <UNPREDICTABLE>
     f74:	00010c00 	andeq	r0, r1, r0, lsl #24
     f78:	00730001 	rsbseq	r0, r3, r1
     f7c:	00989f1c 	addseq	r9, r8, ip, lsl pc
     f80:	00a40000 	adceq	r0, r4, r0
     f84:	00070000 	andeq	r0, r7, r0
     f88:	73243c40 	teqvc	r4, #64, 24	; 0x4000
     f8c:	009f1c00 	addseq	r1, pc, r0, lsl #24
     f90:	00000000 	andeq	r0, r0, r0
     f94:	a4000000 	strge	r0, [r0], #-0
     f98:	ef000000 	svc	0x00000000
     f9c:	01000000 	mrseq	r0, (UNDEF: 0)
     fa0:	00ef5000 	rsceq	r5, pc, r0
     fa4:	01a40000 			; <UNDEFINED> instruction: 0x01a40000
     fa8:	00040000 	andeq	r0, r4, r0
     fac:	9f5001f3 	svcls	0x005001f3
     fb0:	000001a4 	andeq	r0, r0, r4, lsr #3
     fb4:	000001a8 	andeq	r0, r0, r8, lsr #3
     fb8:	a8500001 	ldmdage	r0, {r0}^
     fbc:	ac000001 	stcge	0, cr0, [r0], {1}
     fc0:	01000001 	tsteq	r0, r1
     fc4:	00005300 	andeq	r5, r0, r0, lsl #6
     fc8:	00000000 	andeq	r0, r0, r0
     fcc:	01040000 	mrseq	r0, (UNDEF: 4)
     fd0:	01a40000 			; <UNDEFINED> instruction: 0x01a40000
     fd4:	00020000 	andeq	r0, r2, r0
     fd8:	00009f30 	andeq	r9, r0, r0, lsr pc
     fdc:	00000000 	andeq	r0, r0, r0
     fe0:	00ac0000 	adceq	r0, ip, r0
     fe4:	01a40000 			; <UNDEFINED> instruction: 0x01a40000
     fe8:	00020000 	andeq	r0, r2, r0
     fec:	00009f31 	andeq	r9, r0, r1, lsr pc
     ff0:	00000000 	andeq	r0, r0, r0
     ff4:	00ac0000 	adceq	r0, ip, r0
     ff8:	01a40000 			; <UNDEFINED> instruction: 0x01a40000
     ffc:	00060000 	andeq	r0, r6, r0
    1000:	5934049e 	ldmdbpl	r4!, {r1, r2, r3, r4, r7, sl}
    1004:	00009801 	andeq	r9, r0, r1, lsl #16
    1008:	00000000 	andeq	r0, r0, r0
    100c:	00d40000 	sbcseq	r0, r4, r0
    1010:	01a40000 			; <UNDEFINED> instruction: 0x01a40000
    1014:	00020000 	andeq	r0, r2, r0
    1018:	00009f32 	andeq	r9, r0, r2, lsr pc
    101c:	00000000 	andeq	r0, r0, r0
    1020:	00d40000 	sbcseq	r0, r4, r0
    1024:	01a40000 			; <UNDEFINED> instruction: 0x01a40000
    1028:	00060000 	andeq	r0, r6, r0
    102c:	5900049e 	stmdbpl	r0, {r1, r2, r3, r4, r7, sl}
    1030:	00009801 	andeq	r9, r0, r1, lsl #16
    1034:	00000000 	andeq	r0, r0, r0
    1038:	00cc0000 	sbceq	r0, ip, r0
    103c:	01a40000 			; <UNDEFINED> instruction: 0x01a40000
    1040:	00030000 	andeq	r0, r3, r0
    1044:	009ffe08 	addseq	pc, pc, r8, lsl #28
    1048:	00000000 	andeq	r0, r0, r0
    104c:	cc000000 	stcgt	0, cr0, [r0], {-0}
    1050:	a4000000 	strge	r0, [r0], #-0
    1054:	06000001 	streq	r0, [r0], -r1
    1058:	08049e00 	stmdaeq	r4, {r9, sl, fp, ip, pc}
    105c:	00980159 	addseq	r0, r8, r9, asr r1
    1060:	00000000 	andeq	r0, r0, r0
    1064:	dc000000 	stcle	0, cr0, [r0], {-0}
    1068:	ef000000 	svc	0x00000000
    106c:	01000000 	mrseq	r0, (UNDEF: 0)
    1070:	00ef5000 	rsceq	r5, pc, r0
    1074:	01a40000 			; <UNDEFINED> instruction: 0x01a40000
    1078:	00040000 	andeq	r0, r4, r0
    107c:	9f5001f3 	svcls	0x005001f3
	...
    1088:	000000dc 	ldrdeq	r0, [r0], -ip
    108c:	000001a4 	andeq	r0, r0, r4, lsr #3
    1090:	049e0006 	ldreq	r0, [lr], #6
    1094:	9801590c 	stmdals	r1, {r2, r3, r8, fp, ip, lr}
	...
    10a0:	000000dc 	ldrdeq	r0, [r0], -ip
    10a4:	000000ef 	andeq	r0, r0, pc, ror #1
    10a8:	ef5c0001 	svc	0x005c0001
    10ac:	a4000000 	strge	r0, [r0], #-0
    10b0:	06000001 	streq	r0, [r0], -r1
    10b4:	5001f300 	andpl	pc, r1, r0, lsl #6
    10b8:	009f7023 	addseq	r7, pc, r3, lsr #32
    10bc:	00000000 	andeq	r0, r0, r0
    10c0:	dc000000 	stcle	0, cr0, [r0], {-0}
    10c4:	a4000000 	strge	r0, [r0], #-0
    10c8:	06000001 	streq	r0, [r0], -r1
    10cc:	10049e00 	andne	r9, r4, r0, lsl #28
    10d0:	00980159 	addseq	r0, r8, r9, asr r1
    10d4:	00000000 	andeq	r0, r0, r0
    10d8:	e4000000 	str	r0, [r0], #-0
    10dc:	ef000000 	svc	0x00000000
    10e0:	01000000 	mrseq	r0, (UNDEF: 0)
    10e4:	00ef5000 	rsceq	r5, pc, r0
    10e8:	01a40000 			; <UNDEFINED> instruction: 0x01a40000
    10ec:	00040000 	andeq	r0, r4, r0
    10f0:	9f5001f3 	svcls	0x005001f3
	...
    10fc:	000000e4 	andeq	r0, r0, r4, ror #1
    1100:	000001a4 	andeq	r0, r0, r4, lsr #3
    1104:	049e0006 	ldreq	r0, [lr], #6
    1108:	98015914 	stmdals	r1, {r2, r4, r8, fp, ip, lr}
	...
    1114:	000000e4 	andeq	r0, r0, r4, ror #1
    1118:	000000ef 	andeq	r0, r0, pc, ror #1
    111c:	ef520001 	svc	0x00520001
    1120:	a4000000 	strge	r0, [r0], #-0
    1124:	06000001 	streq	r0, [r0], -r1
    1128:	5001f300 	andpl	pc, r1, r0, lsl #6
    112c:	009f3823 	addseq	r3, pc, r3, lsr #16
    1130:	00000000 	andeq	r0, r0, r0
    1134:	e4000000 	str	r0, [r0], #-0
    1138:	a4000000 	strge	r0, [r0], #-0
    113c:	06000001 	streq	r0, [r0], -r1
    1140:	18049e00 	stmdane	r4, {r9, sl, fp, ip, pc}
    1144:	00980159 	addseq	r0, r8, r9, asr r1
    1148:	00000000 	andeq	r0, r0, r0
    114c:	f8000000 			; <UNDEFINED> instruction: 0xf8000000
    1150:	a4000000 	strge	r0, [r0], #-0
    1154:	02000001 	andeq	r0, r0, #1
    1158:	009f3300 	addseq	r3, pc, r0, lsl #6
    115c:	00000000 	andeq	r0, r0, r0
    1160:	f8000000 			; <UNDEFINED> instruction: 0xf8000000
    1164:	a4000000 	strge	r0, [r0], #-0
    1168:	06000001 	streq	r0, [r0], -r1
    116c:	00049e00 	andeq	r9, r4, r0, lsl #28
    1170:	00980159 	addseq	r0, r8, r9, asr r1
    1174:	00000000 	andeq	r0, r0, r0
    1178:	04000000 	streq	r0, [r0], #-0
    117c:	a4000001 	strge	r0, [r0], #-1
    1180:	04000001 	streq	r0, [r0], #-1
    1184:	5001f300 	andpl	pc, r1, r0, lsl #6
    1188:	0000009f 	muleq	r0, pc, r0	; <UNPREDICTABLE>
    118c:	00000000 	andeq	r0, r0, r0
    1190:	00015c00 	andeq	r5, r1, r0, lsl #24
    1194:	00017800 	andeq	r7, r1, r0, lsl #16
    1198:	50000100 	andpl	r0, r0, r0, lsl #2
	...
    11a4:	00000104 	andeq	r0, r0, r4, lsl #2
    11a8:	0000011c 	andeq	r0, r0, ip, lsl r1
    11ac:	9f300002 	svcls	0x00300002
    11b0:	0000011c 	andeq	r0, r0, ip, lsl r1
    11b4:	00000120 	andeq	r0, r0, r0, lsr #2
    11b8:	43400007 	movtmi	r0, #7
    11bc:	1c007424 	cfstrsne	mvf7, [r0], {36}	; 0x24
    11c0:	0001209f 	muleq	r1, pc, r0	; <UNPREDICTABLE>
    11c4:	00012400 	andeq	r2, r1, r0, lsl #8
    11c8:	0c000900 	stceq	9, cr0, [r0], {-0}
    11cc:	007fffff 	ldrshteq	pc, [pc], #-255	; <UNPREDICTABLE>
    11d0:	9f1c0074 	svcls	0x001c0074
    11d4:	00000124 	andeq	r0, r0, r4, lsr #2
    11d8:	00000144 	andeq	r0, r0, r4, asr #2
    11dc:	43400007 	movtmi	r0, #7
    11e0:	1c007424 	cfstrsne	mvf7, [r0], {36}	; 0x24
    11e4:	00018c9f 	muleq	r1, pc, ip	; <UNPREDICTABLE>
    11e8:	0001a400 	andeq	sl, r1, r0, lsl #8
    11ec:	0c000900 	stceq	9, cr0, [r0], {-0}
    11f0:	007fffff 	ldrshteq	pc, [pc], #-255	; <UNPREDICTABLE>
    11f4:	9f1c0074 	svcls	0x001c0074
	...
    1200:	00000104 	andeq	r0, r0, r4, lsl #2
    1204:	000001a4 	andeq	r0, r0, r4, lsr #3
    1208:	049e0006 	ldreq	r0, [lr], #6
    120c:	98015904 	stmdals	r1, {r2, r8, fp, ip, lr}
	...
    1218:	00000144 	andeq	r0, r0, r4, asr #2
    121c:	0000018c 	andeq	r0, r0, ip, lsl #3
    1220:	049e0006 	ldreq	r0, [lr], #6
    1224:	98015904 	stmdals	r1, {r2, r8, fp, ip, lr}
	...
    1230:	0000015c 	andeq	r0, r0, ip, asr r1
    1234:	00000178 	andeq	r0, r0, r8, ror r1
    1238:	9f320002 	svcls	0x00320002
	...
    1244:	0000015c 	andeq	r0, r0, ip, asr r1
    1248:	00000178 	andeq	r0, r0, r8, ror r1
    124c:	049e0006 	ldreq	r0, [lr], #6
    1250:	98015900 	stmdals	r1, {r8, fp, ip, lr}
	...
    125c:	00000170 	andeq	r0, r0, r0, ror r1
    1260:	00000178 	andeq	r0, r0, r8, ror r1
    1264:	9f360002 	svcls	0x00360002
	...
    1270:	00000170 	andeq	r0, r0, r0, ror r1
    1274:	00000178 	andeq	r0, r0, r8, ror r1
    1278:	049e0006 	ldreq	r0, [lr], #6
    127c:	98015904 	stmdals	r1, {r2, r8, fp, ip, lr}
	...
    1288:	00000178 	andeq	r0, r0, r8, ror r1
    128c:	0000018c 	andeq	r0, r0, ip, lsl #3
    1290:	049e0006 	ldreq	r0, [lr], #6
    1294:	98015904 	stmdals	r1, {r2, r8, fp, ip, lr}
	...
    12a0:	0000018c 	andeq	r0, r0, ip, lsl #3
    12a4:	000001a4 	andeq	r0, r0, r4, lsr #3
    12a8:	9f320002 	svcls	0x00320002
	...
    12b4:	0000018c 	andeq	r0, r0, ip, lsl #3
    12b8:	000001a4 	andeq	r0, r0, r4, lsr #3
    12bc:	049e0006 	ldreq	r0, [lr], #6
    12c0:	98015900 	stmdals	r1, {r8, fp, ip, lr}
	...
    12cc:	00000198 	muleq	r0, r8, r1
    12d0:	000001a4 	andeq	r0, r0, r4, lsr #3
    12d4:	9f360002 	svcls	0x00360002
	...
    12e0:	00000198 	muleq	r0, r8, r1
    12e4:	000001a4 	andeq	r0, r0, r4, lsr #3
    12e8:	049e0006 	ldreq	r0, [lr], #6
    12ec:	98015904 	stmdals	r1, {r2, r8, fp, ip, lr}
	...
    12f8:	000001ac 	andeq	r0, r0, ip, lsr #3
    12fc:	000001b0 			; <UNDEFINED> instruction: 0x000001b0
    1300:	b0500001 	subslt	r0, r0, r1
    1304:	b4000001 	strlt	r0, [r0], #-1
    1308:	04000001 	streq	r0, [r0], #-1
    130c:	5001f300 	andpl	pc, r1, r0, lsl #6
    1310:	0000009f 	muleq	r0, pc, r0	; <UNPREDICTABLE>
    1314:	00000000 	andeq	r0, r0, r0
    1318:	0001ac00 	andeq	sl, r1, r0, lsl #24
    131c:	0001b000 	andeq	fp, r1, r0
    1320:	70001d00 	andvc	r1, r0, r0, lsl #26
    1324:	70244800 	eorvc	r4, r4, r0, lsl #16
    1328:	21254800 	teqcs	r5, r0, lsl #16
    132c:	ff080070 			; <UNDEFINED> instruction: 0xff080070
    1330:	381a2440 	ldmdacc	sl, {r6, sl, sp}
    1334:	00702125 	rsbseq	r2, r0, r5, lsr #2
    1338:	1aff000a 	bne	fffc1368 <__bss_end__+0xfe99e7a8>
    133c:	9f212438 	svcls	0x00212438
    1340:	000001b0 			; <UNDEFINED> instruction: 0x000001b0
    1344:	000001b4 			; <UNDEFINED> instruction: 0x000001b4
    1348:	01f30021 	mvnseq	r0, r1, lsr #32
    134c:	f3244850 	vceq.i32	q2, q2, q0
    1350:	25485001 	strbcs	r5, [r8, #-1]
    1354:	5001f321 	andpl	pc, r1, r1, lsr #6
    1358:	2440ff08 	strbcs	pc, [r0], #-3848	; 0xf08	; <UNPREDICTABLE>
    135c:	2125381a 	teqcs	r5, sl, lsl r8
    1360:	0a5001f3 	beq	1401b34 <_back_addr-0x20e4cc>
    1364:	381aff00 	ldmdacc	sl, {r8, r9, sl, fp, ip, sp, lr, pc}
    1368:	009f2124 	addseq	r2, pc, r4, lsr #2
    136c:	00000000 	andeq	r0, r0, r0
    1370:	b4000000 	strlt	r0, [r0], #-0
    1374:	d4000001 	strle	r0, [r0], #-1
    1378:	01000002 	tsteq	r0, r2
    137c:	02d45000 	sbcseq	r5, r4, #0
    1380:	02e00000 	rsceq	r0, r0, #0
    1384:	00070000 	andeq	r0, r7, r0
    1388:	ffffe874 			; <UNDEFINED> instruction: 0xffffe874
    138c:	e09f03bf 			; <UNDEFINED> instruction: 0xe09f03bf
    1390:	14000002 	strne	r0, [r0], #-2
    1394:	01000003 	tsteq	r0, r3
    1398:	03145000 	tsteq	r4, #0
    139c:	031c0000 	tsteq	ip, #0
    13a0:	00070000 	andeq	r0, r7, r0
    13a4:	ffffe874 			; <UNDEFINED> instruction: 0xffffe874
    13a8:	1c9f03bf 	ldcne	3, cr0, [pc], {191}	; 0xbf
    13ac:	24000003 	strcs	r0, [r0], #-3
    13b0:	01000004 	tsteq	r0, r4
    13b4:	00005000 	andeq	r5, r0, r0
    13b8:	00000000 	andeq	r0, r0, r0
    13bc:	01b40000 			; <UNDEFINED> instruction: 0x01b40000
    13c0:	01d40000 	bicseq	r0, r4, r0
    13c4:	00020000 	andeq	r0, r2, r0
    13c8:	00009f30 	andeq	r9, r0, r0, lsr pc
    13cc:	00000000 	andeq	r0, r0, r0
    13d0:	01d40000 	bicseq	r0, r4, r0
    13d4:	01e80000 	mvneq	r0, r0
    13d8:	00070000 	andeq	r0, r7, r0
    13dc:	80808073 	addhi	r8, r0, r3, ror r0
    13e0:	e89f7a80 	ldm	pc, {r7, r9, fp, ip, sp, lr}	; <UNPREDICTABLE>
    13e4:	fc000001 	stc2	0, cr0, [r0], {1}
    13e8:	07000001 	streq	r0, [r0, -r1]
    13ec:	fffc7300 			; <UNDEFINED> instruction: 0xfffc7300
    13f0:	9f79ffff 	svcls	0x0079ffff
    13f4:	000002e0 	andeq	r0, r0, r0, ror #5
    13f8:	000002fc 	strdeq	r0, [r0], -ip
    13fc:	80730007 	rsbshi	r0, r3, r7
    1400:	7a808080 	bvc	fe021608 <__bss_end__+0xfc9fea48>
    1404:	0000009f 	muleq	r0, pc, r0	; <UNPREDICTABLE>
    1408:	00000000 	andeq	r0, r0, r0
    140c:	0002e000 	andeq	lr, r2, r0
    1410:	0002fc00 	andeq	pc, r2, r0, lsl #24
    1414:	73000700 	movwvc	r0, #1792	; 0x700
    1418:	80808080 	addhi	r8, r0, r0, lsl #1
    141c:	00009f7a 	andeq	r9, r0, sl, ror pc
    1420:	00000000 	andeq	r0, r0, r0
    1424:	01f80000 	mvnseq	r0, r0
    1428:	02d40000 	sbcseq	r0, r4, #0
    142c:	00030000 	andeq	r0, r3, r0
    1430:	d49f1c70 	ldrle	r1, [pc], #3184	; 1438 <_back_addr-0x160ebc8>
    1434:	e0000002 	and	r0, r0, r2
    1438:	07000002 	streq	r0, [r0, -r2]
    143c:	80847400 	addhi	r7, r4, r0, lsl #8
    1440:	9f03c080 	svcls	0x0003c080
    1444:	000002fc 	strdeq	r0, [r0], -ip
    1448:	00000314 	andeq	r0, r0, r4, lsl r3
    144c:	1c700003 	ldclne	0, cr0, [r0], #-12
    1450:	0003149f 	muleq	r3, pc, r4	; <UNPREDICTABLE>
    1454:	00031c00 	andeq	r1, r3, r0, lsl #24
    1458:	74000700 	strvc	r0, [r0], #-1792	; 0x700
    145c:	c0808084 	addgt	r8, r0, r4, lsl #1
    1460:	031c9f03 	tsteq	ip, #3, 30
    1464:	03640000 	cmneq	r4, #0
    1468:	00070000 	andeq	r0, r7, r0
    146c:	80808c7c 	addhi	r8, r0, ip, ror ip
    1470:	649f03c0 	ldrvs	r0, [pc], #960	; 1478 <_back_addr-0x160eb88>
    1474:	24000003 	strcs	r0, [r0], #-3
    1478:	03000004 	movweq	r0, #4
    147c:	9f1c7000 	svcls	0x001c7000
	...
    1488:	00000214 	andeq	r0, r0, r4, lsl r2
    148c:	000002d4 	ldrdeq	r0, [r0], -r4
    1490:	d4500001 	ldrble	r0, [r0], #-1
    1494:	e0000002 	and	r0, r0, r2
    1498:	07000002 	streq	r0, [r0, -r2]
    149c:	ffe87400 			; <UNDEFINED> instruction: 0xffe87400
    14a0:	9f03bfff 	svcls	0x0003bfff
    14a4:	000002fc 	strdeq	r0, [r0], -ip
    14a8:	00000314 	andeq	r0, r0, r4, lsl r3
    14ac:	14500001 	ldrbne	r0, [r0], #-1
    14b0:	1c000003 	stcne	0, cr0, [r0], {3}
    14b4:	07000003 	streq	r0, [r0, -r3]
    14b8:	ffe87400 			; <UNDEFINED> instruction: 0xffe87400
    14bc:	9f03bfff 	svcls	0x0003bfff
    14c0:	0000031c 	andeq	r0, r0, ip, lsl r3
    14c4:	0000040c 	andeq	r0, r0, ip, lsl #8
    14c8:	00500001 	subseq	r0, r0, r1
    14cc:	00000000 	andeq	r0, r0, r0
    14d0:	f4000000 	vst4.8	{d0-d3}, [r0], r0
    14d4:	0c000003 	stceq	0, cr0, [r0], {3}
    14d8:	01000004 	tsteq	r0, r4
    14dc:	00005000 	andeq	r5, r0, r0
    14e0:	00000000 	andeq	r0, r0, r0
    14e4:	021c0000 	andseq	r0, ip, #0
    14e8:	02d40000 	sbcseq	r0, r4, #0
    14ec:	00030000 	andeq	r0, r3, r0
    14f0:	d49f1870 	ldrle	r1, [pc], #2160	; 14f8 <_back_addr-0x160eb08>
    14f4:	e0000002 	and	r0, r0, r2
    14f8:	07000002 	streq	r0, [r0, -r2]
    14fc:	80807400 	addhi	r7, r0, r0, lsl #8
    1500:	9f03c080 	svcls	0x0003c080
    1504:	000002fc 	strdeq	r0, [r0], -ip
    1508:	00000314 	andeq	r0, r0, r4, lsl r3
    150c:	18700003 	ldmdane	r0!, {r0, r1}^
    1510:	0003149f 	muleq	r3, pc, r4	; <UNPREDICTABLE>
    1514:	00031c00 	andeq	r1, r3, r0, lsl #24
    1518:	74000700 	strvc	r0, [r0], #-1792	; 0x700
    151c:	c0808080 	addgt	r8, r0, r0, lsl #1
    1520:	031c9f03 	tsteq	ip, #3, 30
    1524:	03f40000 	mvnseq	r0, #0
    1528:	00030000 	andeq	r0, r3, r0
    152c:	009f1870 	addseq	r1, pc, r0, ror r8	; <UNPREDICTABLE>
    1530:	00000000 	andeq	r0, r0, r0
    1534:	dc000000 	stcle	0, cr0, [r0], {-0}
    1538:	f4000003 	vst4.8	{d0-d3}, [r0], r3
    153c:	03000003 	movweq	r0, #3
    1540:	9f187000 	svcls	0x00187000
	...
    154c:	00000234 	andeq	r0, r0, r4, lsr r2
    1550:	000002d4 	ldrdeq	r0, [r0], -r4
    1554:	04700003 	ldrbteq	r0, [r0], #-3
    1558:	0002d49f 	muleq	r2, pc, r4	; <UNPREDICTABLE>
    155c:	0002e000 	andeq	lr, r2, r0
    1560:	74000700 	strvc	r0, [r0], #-1792	; 0x700
    1564:	bfffffec 	svclt	0x00ffffec
    1568:	02fc9f03 	rscseq	r9, ip, #3, 30
    156c:	03140000 	tsteq	r4, #0
    1570:	00030000 	andeq	r0, r3, r0
    1574:	149f0470 	ldrne	r0, [pc], #1136	; 157c <_back_addr-0x160ea84>
    1578:	1c000003 	stcne	0, cr0, [r0], {3}
    157c:	07000003 	streq	r0, [r0, -r3]
    1580:	ffec7400 			; <UNDEFINED> instruction: 0xffec7400
    1584:	9f03bfff 	svcls	0x0003bfff
    1588:	0000031c 	andeq	r0, r0, ip, lsl r3
    158c:	000003dc 	ldrdeq	r0, [r0], -ip
    1590:	04700003 	ldrbteq	r0, [r0], #-3
    1594:	0000009f 	muleq	r0, pc, r0	; <UNPREDICTABLE>
    1598:	00000000 	andeq	r0, r0, r0
    159c:	0003c400 	andeq	ip, r3, r0, lsl #8
    15a0:	0003dc00 	andeq	sp, r3, r0, lsl #24
    15a4:	70000300 	andvc	r0, r0, r0, lsl #6
    15a8:	00009f04 	andeq	r9, r0, r4, lsl #30
    15ac:	00000000 	andeq	r0, r0, r0
    15b0:	02440000 	subeq	r0, r4, #0
    15b4:	02d40000 	sbcseq	r0, r4, #0
    15b8:	00030000 	andeq	r0, r3, r0
    15bc:	d49f1470 	ldrle	r1, [pc], #1136	; 15c4 <_back_addr-0x160ea3c>
    15c0:	e0000002 	and	r0, r0, r2
    15c4:	07000002 	streq	r0, [r0, -r2]
    15c8:	fffc7400 			; <UNDEFINED> instruction: 0xfffc7400
    15cc:	9f03bfff 	svcls	0x0003bfff
    15d0:	000002fc 	strdeq	r0, [r0], -ip
    15d4:	00000314 	andeq	r0, r0, r4, lsl r3
    15d8:	14700003 	ldrbtne	r0, [r0], #-3
    15dc:	0003149f 	muleq	r3, pc, r4	; <UNPREDICTABLE>
    15e0:	00031c00 	andeq	r1, r3, r0, lsl #24
    15e4:	74000700 	strvc	r0, [r0], #-1792	; 0x700
    15e8:	bffffffc 	svclt	0x00fffffc
    15ec:	031c9f03 	tsteq	ip, #3, 30
    15f0:	03c40000 	biceq	r0, r4, #0
    15f4:	00030000 	andeq	r0, r3, r0
    15f8:	009f1470 	addseq	r1, pc, r0, ror r4	; <UNPREDICTABLE>
    15fc:	00000000 	andeq	r0, r0, r0
    1600:	ac000000 	stcge	0, cr0, [r0], {-0}
    1604:	c4000003 	strgt	r0, [r0], #-3
    1608:	03000003 	movweq	r0, #3
    160c:	9f147000 	svcls	0x00147000
	...
    1618:	0000025c 	andeq	r0, r0, ip, asr r2
    161c:	000002d4 	ldrdeq	r0, [r0], -r4
    1620:	08700003 	ldmdaeq	r0!, {r0, r1}^
    1624:	0002d49f 	muleq	r2, pc, r4	; <UNPREDICTABLE>
    1628:	0002e000 	andeq	lr, r2, r0
    162c:	74000700 	strvc	r0, [r0], #-1792	; 0x700
    1630:	bffffff0 	svclt	0x00fffff0
    1634:	02fc9f03 	rscseq	r9, ip, #3, 30
    1638:	03140000 	tsteq	r4, #0
    163c:	00030000 	andeq	r0, r3, r0
    1640:	149f0870 	ldrne	r0, [pc], #2160	; 1648 <_back_addr-0x160e9b8>
    1644:	1c000003 	stcne	0, cr0, [r0], {3}
    1648:	07000003 	streq	r0, [r0, -r3]
    164c:	fff07400 			; <UNDEFINED> instruction: 0xfff07400
    1650:	9f03bfff 	svcls	0x0003bfff
    1654:	0000031c 	andeq	r0, r0, ip, lsl r3
    1658:	000003ac 	andeq	r0, r0, ip, lsr #7
    165c:	08700003 	ldmdaeq	r0!, {r0, r1}^
    1660:	0000009f 	muleq	r0, pc, r0	; <UNPREDICTABLE>
    1664:	00000000 	andeq	r0, r0, r0
    1668:	00039400 	andeq	r9, r3, r0, lsl #8
    166c:	0003ac00 	andeq	sl, r3, r0, lsl #24
    1670:	70000300 	andvc	r0, r0, r0, lsl #6
    1674:	00009f08 	andeq	r9, r0, r8, lsl #30
    1678:	00000000 	andeq	r0, r0, r0
    167c:	026c0000 	rsbeq	r0, ip, #0
    1680:	02d40000 	sbcseq	r0, r4, #0
    1684:	00030000 	andeq	r0, r3, r0
    1688:	d49f1070 	ldrle	r1, [pc], #112	; 1690 <_back_addr-0x160e970>
    168c:	e0000002 	and	r0, r0, r2
    1690:	07000002 	streq	r0, [r0, -r2]
    1694:	fff87400 			; <UNDEFINED> instruction: 0xfff87400
    1698:	9f03bfff 	svcls	0x0003bfff
    169c:	000002fc 	strdeq	r0, [r0], -ip
    16a0:	00000314 	andeq	r0, r0, r4, lsl r3
    16a4:	10700003 	rsbsne	r0, r0, r3
    16a8:	0003149f 	muleq	r3, pc, r4	; <UNPREDICTABLE>
    16ac:	00031c00 	andeq	r1, r3, r0, lsl #24
    16b0:	74000700 	strvc	r0, [r0], #-1792	; 0x700
    16b4:	bffffff8 	svclt	0x00fffff8
    16b8:	031c9f03 	tsteq	ip, #3, 30
    16bc:	03940000 	orrseq	r0, r4, #0
    16c0:	00030000 	andeq	r0, r3, r0
    16c4:	009f1070 	addseq	r1, pc, r0, ror r0	; <UNPREDICTABLE>
    16c8:	00000000 	andeq	r0, r0, r0
    16cc:	7c000000 	stcvc	0, cr0, [r0], {-0}
    16d0:	94000003 	strls	r0, [r0], #-3
    16d4:	03000003 	movweq	r0, #3
    16d8:	9f107000 	svcls	0x00107000
	...
    16e4:	00000284 	andeq	r0, r0, r4, lsl #5
    16e8:	000002d4 	ldrdeq	r0, [r0], -r4
    16ec:	0c700003 	ldcleq	0, cr0, [r0], #-12
    16f0:	0002d49f 	muleq	r2, pc, r4	; <UNPREDICTABLE>
    16f4:	0002e000 	andeq	lr, r2, r0
    16f8:	74000700 	strvc	r0, [r0], #-1792	; 0x700
    16fc:	bffffff4 	svclt	0x00fffff4
    1700:	02fc9f03 	rscseq	r9, ip, #3, 30
    1704:	03140000 	tsteq	r4, #0
    1708:	00030000 	andeq	r0, r3, r0
    170c:	149f0c70 	ldrne	r0, [pc], #3184	; 1714 <_back_addr-0x160e8ec>
    1710:	1c000003 	stcne	0, cr0, [r0], {3}
    1714:	07000003 	streq	r0, [r0, -r3]
    1718:	fff47400 			; <UNDEFINED> instruction: 0xfff47400
    171c:	9f03bfff 	svcls	0x0003bfff
    1720:	0000031c 	andeq	r0, r0, ip, lsl r3
    1724:	0000037c 	andeq	r0, r0, ip, ror r3
    1728:	0c700003 	ldcleq	0, cr0, [r0], #-12
    172c:	0000009f 	muleq	r0, pc, r0	; <UNPREDICTABLE>
    1730:	00000000 	andeq	r0, r0, r0
    1734:	00036400 	andeq	r6, r3, r0, lsl #8
    1738:	00037c00 	andeq	r7, r3, r0, lsl #24
    173c:	70000300 	andvc	r0, r0, r0, lsl #6
    1740:	00009f0c 	andeq	r9, r0, ip, lsl #30
    1744:	00000000 	andeq	r0, r0, r0
    1748:	029c0000 	addseq	r0, ip, #0
    174c:	02ac0000 	adceq	r0, ip, #0
    1750:	00010000 	andeq	r0, r1, r0
    1754:	00034c53 	andeq	r4, r3, r3, asr ip
    1758:	00036400 	andeq	r6, r3, r0, lsl #8
    175c:	53000100 	movwpl	r0, #256	; 0x100
	...
    1768:	0000029c 	muleq	r0, ip, r2
    176c:	000002d4 	ldrdeq	r0, [r0], -r4
    1770:	10700003 	rsbsne	r0, r0, r3
    1774:	0002d49f 	muleq	r2, pc, r4	; <UNPREDICTABLE>
    1778:	0002e000 	andeq	lr, r2, r0
    177c:	74000700 	strvc	r0, [r0], #-1792	; 0x700
    1780:	bffffff8 	svclt	0x00fffff8
    1784:	02fc9f03 	rscseq	r9, ip, #3, 30
    1788:	03140000 	tsteq	r4, #0
    178c:	00030000 	andeq	r0, r3, r0
    1790:	149f1070 	ldrne	r1, [pc], #112	; 1798 <_back_addr-0x160e868>
    1794:	1c000003 	stcne	0, cr0, [r0], {3}
    1798:	07000003 	streq	r0, [r0, -r3]
    179c:	fff87400 			; <UNDEFINED> instruction: 0xfff87400
    17a0:	9f03bfff 	svcls	0x0003bfff
    17a4:	0000031c 	andeq	r0, r0, ip, lsl r3
    17a8:	00000364 	andeq	r0, r0, r4, ror #6
    17ac:	10700003 	rsbsne	r0, r0, r3
    17b0:	0000009f 	muleq	r0, pc, r0	; <UNPREDICTABLE>
    17b4:	00000000 	andeq	r0, r0, r0
    17b8:	00034c00 	andeq	r4, r3, r0, lsl #24
    17bc:	00036400 	andeq	r6, r3, r0, lsl #8
    17c0:	53000100 	movwpl	r0, #256	; 0x100
	...
    17cc:	0000034c 	andeq	r0, r0, ip, asr #6
    17d0:	00000364 	andeq	r0, r0, r4, ror #6
    17d4:	10700003 	rsbsne	r0, r0, r3
    17d8:	0000009f 	muleq	r0, pc, r0	; <UNPREDICTABLE>
    17dc:	00000000 	andeq	r0, r0, r0
    17e0:	0002ac00 	andeq	sl, r2, r0, lsl #24
    17e4:	0002bc00 	andeq	fp, r2, r0, lsl #24
    17e8:	53000100 	movwpl	r0, #256	; 0x100
    17ec:	00000334 	andeq	r0, r0, r4, lsr r3
    17f0:	0000034c 	andeq	r0, r0, ip, asr #6
    17f4:	00530001 	subseq	r0, r3, r1
    17f8:	00000000 	andeq	r0, r0, r0
    17fc:	ac000000 	stcge	0, cr0, [r0], {-0}
    1800:	d4000002 	strle	r0, [r0], #-2
    1804:	03000002 	movweq	r0, #2
    1808:	9f147000 	svcls	0x00147000
    180c:	000002d4 	ldrdeq	r0, [r0], -r4
    1810:	000002e0 	andeq	r0, r0, r0, ror #5
    1814:	fc740007 	ldc2l	0, cr0, [r4], #-28	; 0xffffffe4
    1818:	03bfffff 			; <UNDEFINED> instruction: 0x03bfffff
    181c:	0002fc9f 	muleq	r2, pc, ip	; <UNPREDICTABLE>
    1820:	00031400 	andeq	r1, r3, r0, lsl #8
    1824:	70000300 	andvc	r0, r0, r0, lsl #6
    1828:	03149f14 	tsteq	r4, #20, 30	; 0x50
    182c:	031c0000 	tsteq	ip, #0
    1830:	00070000 	andeq	r0, r7, r0
    1834:	fffffc74 			; <UNDEFINED> instruction: 0xfffffc74
    1838:	1c9f03bf 	ldcne	3, cr0, [pc], {191}	; 0xbf
    183c:	4c000003 	stcmi	0, cr0, [r0], {3}
    1840:	03000003 	movweq	r0, #3
    1844:	9f147000 	svcls	0x00147000
	...
    1850:	00000334 	andeq	r0, r0, r4, lsr r3
    1854:	0000034c 	andeq	r0, r0, ip, asr #6
    1858:	00530001 	subseq	r0, r3, r1
    185c:	00000000 	andeq	r0, r0, r0
    1860:	34000000 	strcc	r0, [r0], #-0
    1864:	4c000003 	stcmi	0, cr0, [r0], {3}
    1868:	03000003 	movweq	r0, #3
    186c:	9f147000 	svcls	0x00147000
	...
    1878:	000002bc 			; <UNDEFINED> instruction: 0x000002bc
    187c:	000002cc 	andeq	r0, r0, ip, asr #5
    1880:	1c530001 	mrrcne	0, 0, r0, r3, cr1
    1884:	34000003 	strcc	r0, [r0], #-3
    1888:	01000003 	tsteq	r0, r3
    188c:	00005300 	andeq	r5, r0, r0, lsl #6
    1890:	00000000 	andeq	r0, r0, r0
    1894:	02bc0000 	adcseq	r0, ip, #0
    1898:	02d40000 	sbcseq	r0, r4, #0
    189c:	00030000 	andeq	r0, r3, r0
    18a0:	d49f1870 	ldrle	r1, [pc], #2160	; 18a8 <_back_addr-0x160e758>
    18a4:	e0000002 	and	r0, r0, r2
    18a8:	07000002 	streq	r0, [r0, -r2]
    18ac:	80807400 	addhi	r7, r0, r0, lsl #8
    18b0:	9f03c080 	svcls	0x0003c080
    18b4:	000002fc 	strdeq	r0, [r0], -ip
    18b8:	00000314 	andeq	r0, r0, r4, lsl r3
    18bc:	18700003 	ldmdane	r0!, {r0, r1}^
    18c0:	0003149f 	muleq	r3, pc, r4	; <UNPREDICTABLE>
    18c4:	00031c00 	andeq	r1, r3, r0, lsl #24
    18c8:	74000700 	strvc	r0, [r0], #-1792	; 0x700
    18cc:	c0808080 	addgt	r8, r0, r0, lsl #1
    18d0:	031c9f03 	tsteq	ip, #3, 30
    18d4:	03340000 	teqeq	r4, #0
    18d8:	00030000 	andeq	r0, r3, r0
    18dc:	009f1870 	addseq	r1, pc, r0, ror r8	; <UNPREDICTABLE>
    18e0:	00000000 	andeq	r0, r0, r0
    18e4:	1c000000 	stcne	0, cr0, [r0], {-0}
    18e8:	34000003 	strcc	r0, [r0], #-3
    18ec:	01000003 	tsteq	r0, r3
    18f0:	00005300 	andeq	r5, r0, r0, lsl #6
    18f4:	00000000 	andeq	r0, r0, r0
    18f8:	031c0000 	tsteq	ip, #0
    18fc:	03340000 	teqeq	r4, #0
    1900:	00030000 	andeq	r0, r3, r0
    1904:	009f1870 	addseq	r1, pc, r0, ror r8	; <UNPREDICTABLE>
    1908:	00000000 	andeq	r0, r0, r0
    190c:	cc000000 	stcgt	0, cr0, [r0], {-0}
    1910:	e0000002 	and	r0, r0, r2
    1914:	01000002 	tsteq	r0, r2
    1918:	02fc5300 	rscseq	r5, ip, #0, 6
    191c:	031c0000 	tsteq	ip, #0
    1920:	00010000 	andeq	r0, r1, r0
    1924:	00000053 	andeq	r0, r0, r3, asr r0
    1928:	00000000 	andeq	r0, r0, r0
    192c:	0002cc00 	andeq	ip, r2, r0, lsl #24
    1930:	0002d400 	andeq	sp, r2, r0, lsl #8
    1934:	70000300 	andvc	r0, r0, r0, lsl #6
    1938:	02d49f1c 	sbcseq	r9, r4, #28, 30	; 0x70
    193c:	02e00000 	rsceq	r0, r0, #0
    1940:	00070000 	andeq	r0, r7, r0
    1944:	80808474 	addhi	r8, r0, r4, ror r4
    1948:	fc9f03c0 	ldc2	3, cr0, [pc], {192}	; 0xc0
    194c:	14000002 	strne	r0, [r0], #-2
    1950:	03000003 	movweq	r0, #3
    1954:	9f1c7000 	svcls	0x001c7000
    1958:	00000314 	andeq	r0, r0, r4, lsl r3
    195c:	0000031c 	andeq	r0, r0, ip, lsl r3
    1960:	84740007 	ldrbthi	r0, [r4], #-7
    1964:	03c08080 	biceq	r8, r0, #128	; 0x80
    1968:	0000009f 	muleq	r0, pc, r0	; <UNPREDICTABLE>
    196c:	00000000 	andeq	r0, r0, r0
    1970:	0002fc00 	andeq	pc, r2, r0, lsl #24
    1974:	00031c00 	andeq	r1, r3, r0, lsl #24
    1978:	53000100 	movwpl	r0, #256	; 0x100
	...
    1984:	000002fc 	strdeq	r0, [r0], -ip
    1988:	00000314 	andeq	r0, r0, r4, lsl r3
    198c:	1c700003 	ldclne	0, cr0, [r0], #-12
    1990:	0003149f 	muleq	r3, pc, r4	; <UNPREDICTABLE>
    1994:	00031c00 	andeq	r1, r3, r0, lsl #24
    1998:	74000700 	strvc	r0, [r0], #-1792	; 0x700
    199c:	c0808084 	addgt	r8, r0, r4, lsl #1
    19a0:	00009f03 	andeq	r9, r0, r3, lsl #30
    19a4:	00000000 	andeq	r0, r0, r0
    19a8:	04240000 	strteq	r0, [r4], #-0
    19ac:	043b0000 	ldrteq	r0, [fp], #-0
    19b0:	00010000 	andeq	r0, r1, r0
    19b4:	00043b50 	andeq	r3, r4, r0, asr fp
    19b8:	00048800 	andeq	r8, r4, r0, lsl #16
    19bc:	58000100 	stmdapl	r0, {r8}
    19c0:	00000488 	andeq	r0, r0, r8, lsl #9
    19c4:	0000048b 	andeq	r0, r0, fp, lsl #9
    19c8:	2c700002 	ldclcs	0, cr0, [r0], #-8
    19cc:	0000048b 	andeq	r0, r0, fp, lsl #9
    19d0:	0000048c 	andeq	r0, r0, ip, lsl #9
    19d4:	01f30004 	mvnseq	r0, r4
    19d8:	048c9f50 	streq	r9, [ip], #3920	; 0xf50
    19dc:	04b40000 	ldrteq	r0, [r4], #0
    19e0:	00010000 	andeq	r0, r1, r0
    19e4:	00000058 	andeq	r0, r0, r8, asr r0
    19e8:	00000000 	andeq	r0, r0, r0
    19ec:	00042400 	andeq	r2, r4, r0, lsl #8
    19f0:	00043b00 	andeq	r3, r4, r0, lsl #22
    19f4:	51000100 	mrspl	r0, (UNDEF: 16)
    19f8:	0000043b 	andeq	r0, r0, fp, lsr r4
    19fc:	00000488 	andeq	r0, r0, r8, lsl #9
    1a00:	88560001 	ldmdahi	r6, {r0}^
    1a04:	8b000004 	blhi	1a1c <_back_addr-0x160e5e4>
    1a08:	02000004 	andeq	r0, r0, #4
    1a0c:	8b347000 	blhi	d1da14 <_back_addr-0x8f25ec>
    1a10:	8c000004 	stchi	0, cr0, [r0], {4}
    1a14:	04000004 	streq	r0, [r0], #-4
    1a18:	5101f300 	mrspl	pc, SP_irq	; <UNPREDICTABLE>
    1a1c:	00048c9f 	muleq	r4, pc, ip	; <UNPREDICTABLE>
    1a20:	0004b400 	andeq	fp, r4, r0, lsl #8
    1a24:	56000100 	strpl	r0, [r0], -r0, lsl #2
	...
    1a30:	00000424 	andeq	r0, r0, r4, lsr #8
    1a34:	0000043b 	andeq	r0, r0, fp, lsr r4
    1a38:	3b520001 	blcc	1481a44 <_back_addr-0x18e5bc>
    1a3c:	88000004 	stmdahi	r0, {r2}
    1a40:	01000004 	tsteq	r0, r4
    1a44:	04885700 	streq	r5, [r8], #1792	; 0x700
    1a48:	048b0000 	streq	r0, [fp], #0
    1a4c:	00020000 	andeq	r0, r2, r0
    1a50:	048b3070 	streq	r3, [fp], #112	; 0x70
    1a54:	048c0000 	streq	r0, [ip], #0
    1a58:	00040000 	andeq	r0, r4, r0
    1a5c:	9f5201f3 	svcls	0x005201f3
    1a60:	0000048c 	andeq	r0, r0, ip, lsl #9
    1a64:	000004b4 			; <UNDEFINED> instruction: 0x000004b4
    1a68:	00570001 	subseq	r0, r7, r1
    1a6c:	00000000 	andeq	r0, r0, r0
    1a70:	24000000 	strcs	r0, [r0], #-0
    1a74:	3b000004 	blcc	1a8c <_back_addr-0x160e574>
    1a78:	01000004 	tsteq	r0, r4
    1a7c:	043b5300 	ldrteq	r5, [fp], #-768	; 0x300
    1a80:	04880000 	streq	r0, [r8], #0
    1a84:	00010000 	andeq	r0, r1, r0
    1a88:	00048855 	andeq	r8, r4, r5, asr r8
    1a8c:	00048c00 	andeq	r8, r4, r0, lsl #24
    1a90:	f3000400 	vshl.u8	d0, d0, d0
    1a94:	8c9f5301 	ldchi	3, cr5, [pc], {1}
    1a98:	b4000004 	strlt	r0, [r0], #-4
    1a9c:	01000004 	tsteq	r0, r4
    1aa0:	00005500 	andeq	r5, r0, r0, lsl #10
    1aa4:	00000000 	andeq	r0, r0, r0
    1aa8:	043c0000 	ldrteq	r0, [ip], #-0
    1aac:	04740000 	ldrbteq	r0, [r4], #-0
    1ab0:	00010000 	andeq	r0, r1, r0
    1ab4:	00047450 	andeq	r7, r4, r0, asr r4
    1ab8:	00048800 	andeq	r8, r4, r0, lsl #16
    1abc:	54000100 	strpl	r0, [r0], #-256	; 0x100
    1ac0:	00000488 	andeq	r0, r0, r8, lsl #9
    1ac4:	0000048b 	andeq	r0, r0, fp, lsl #9
    1ac8:	8c500001 	mrrchi	0, 0, r0, r0, cr1	; <UNPREDICTABLE>
    1acc:	8f000004 	svchi	0x00000004
    1ad0:	01000004 	tsteq	r0, r4
    1ad4:	048f5000 	streq	r5, [pc], #0	; 1adc <_back_addr-0x160e524>
    1ad8:	04a40000 	strteq	r0, [r4], #0
    1adc:	00010000 	andeq	r0, r1, r0
    1ae0:	0004a454 	andeq	sl, r4, r4, asr r4
    1ae4:	0004a800 	andeq	sl, r4, r0, lsl #16
    1ae8:	50000100 	andpl	r0, r0, r0, lsl #2
    1aec:	000004a8 	andeq	r0, r0, r8, lsr #9
    1af0:	000004b4 			; <UNDEFINED> instruction: 0x000004b4
    1af4:	00540001 	subseq	r0, r4, r1
    1af8:	00000000 	andeq	r0, r0, r0
    1afc:	b4000000 	strlt	r0, [r0], #-0
    1b00:	cb000004 	blgt	1b18 <_back_addr-0x160e4e8>
    1b04:	01000004 	tsteq	r0, r4
    1b08:	04cb5000 	strbeq	r5, [fp], #0
    1b0c:	05180000 	ldreq	r0, [r8, #-0]
    1b10:	00010000 	andeq	r0, r1, r0
    1b14:	00051858 	andeq	r1, r5, r8, asr r8
    1b18:	00051b00 	andeq	r1, r5, r0, lsl #22
    1b1c:	70000200 	andvc	r0, r0, r0, lsl #4
    1b20:	00051b2c 	andeq	r1, r5, ip, lsr #22
    1b24:	00051c00 	andeq	r1, r5, r0, lsl #24
    1b28:	f3000400 	vshl.u8	d0, d0, d0
    1b2c:	1c9f5001 	ldcne	0, cr5, [pc], {1}
    1b30:	44000005 	strmi	r0, [r0], #-5
    1b34:	01000005 	tsteq	r0, r5
    1b38:	00005800 	andeq	r5, r0, r0, lsl #16
    1b3c:	00000000 	andeq	r0, r0, r0
    1b40:	04b40000 	ldrteq	r0, [r4], #0
    1b44:	04cb0000 	strbeq	r0, [fp], #0
    1b48:	00010000 	andeq	r0, r1, r0
    1b4c:	0004cb51 	andeq	ip, r4, r1, asr fp
    1b50:	00051800 	andeq	r1, r5, r0, lsl #16
    1b54:	56000100 	strpl	r0, [r0], -r0, lsl #2
    1b58:	00000518 	andeq	r0, r0, r8, lsl r5
    1b5c:	0000051b 	andeq	r0, r0, fp, lsl r5
    1b60:	34700002 	ldrbtcc	r0, [r0], #-2
    1b64:	0000051b 	andeq	r0, r0, fp, lsl r5
    1b68:	0000051c 	andeq	r0, r0, ip, lsl r5
    1b6c:	01f30004 	mvnseq	r0, r4
    1b70:	051c9f51 	ldreq	r9, [ip, #-3921]	; 0xf51
    1b74:	05440000 	strbeq	r0, [r4, #-0]
    1b78:	00010000 	andeq	r0, r1, r0
    1b7c:	00000056 	andeq	r0, r0, r6, asr r0
    1b80:	00000000 	andeq	r0, r0, r0
    1b84:	0004b400 	andeq	fp, r4, r0, lsl #8
    1b88:	0004cb00 	andeq	ip, r4, r0, lsl #22
    1b8c:	52000100 	andpl	r0, r0, #0, 2
    1b90:	000004cb 	andeq	r0, r0, fp, asr #9
    1b94:	00000518 	andeq	r0, r0, r8, lsl r5
    1b98:	18570001 	ldmdane	r7, {r0}^
    1b9c:	1b000005 	blne	1bb8 <_back_addr-0x160e448>
    1ba0:	02000005 	andeq	r0, r0, #5
    1ba4:	1b307000 	blne	c1dbac <_back_addr-0x9f2454>
    1ba8:	1c000005 	stcne	0, cr0, [r0], {5}
    1bac:	04000005 	streq	r0, [r0], #-5
    1bb0:	5201f300 	andpl	pc, r1, #0, 6
    1bb4:	00051c9f 	muleq	r5, pc, ip	; <UNPREDICTABLE>
    1bb8:	00054400 	andeq	r4, r5, r0, lsl #8
    1bbc:	57000100 	strpl	r0, [r0, -r0, lsl #2]
	...
    1bc8:	000004b4 			; <UNDEFINED> instruction: 0x000004b4
    1bcc:	000004cb 	andeq	r0, r0, fp, asr #9
    1bd0:	cb530001 	blgt	14c1bdc <_back_addr-0x14e424>
    1bd4:	18000004 	stmdane	r0, {r2}
    1bd8:	01000005 	tsteq	r0, r5
    1bdc:	05185500 	ldreq	r5, [r8, #-1280]	; 0x500
    1be0:	051c0000 	ldreq	r0, [ip, #-0]
    1be4:	00040000 	andeq	r0, r4, r0
    1be8:	9f5301f3 	svcls	0x005301f3
    1bec:	0000051c 	andeq	r0, r0, ip, lsl r5
    1bf0:	00000544 	andeq	r0, r0, r4, asr #10
    1bf4:	00550001 	subseq	r0, r5, r1
    1bf8:	00000000 	andeq	r0, r0, r0
    1bfc:	cc000000 	stcgt	0, cr0, [r0], {-0}
    1c00:	04000004 	streq	r0, [r0], #-4
    1c04:	01000005 	tsteq	r0, r5
    1c08:	05045000 	streq	r5, [r4, #-0]
    1c0c:	05180000 	ldreq	r0, [r8, #-0]
    1c10:	00010000 	andeq	r0, r1, r0
    1c14:	00051854 	andeq	r1, r5, r4, asr r8
    1c18:	00051b00 	andeq	r1, r5, r0, lsl #22
    1c1c:	50000100 	andpl	r0, r0, r0, lsl #2
    1c20:	0000051c 	andeq	r0, r0, ip, lsl r5
    1c24:	0000051f 	andeq	r0, r0, pc, lsl r5
    1c28:	1f500001 	svcne	0x00500001
    1c2c:	34000005 	strcc	r0, [r0], #-5
    1c30:	01000005 	tsteq	r0, r5
    1c34:	05345400 	ldreq	r5, [r4, #-1024]!	; 0x400
    1c38:	05380000 	ldreq	r0, [r8, #-0]!
    1c3c:	00010000 	andeq	r0, r1, r0
    1c40:	00053850 	andeq	r3, r5, r0, asr r8
    1c44:	00054400 	andeq	r4, r5, r0, lsl #8
    1c48:	54000100 	strpl	r0, [r0], #-256	; 0x100
	...
    1c54:	00000544 	andeq	r0, r0, r4, asr #10
    1c58:	0000055b 	andeq	r0, r0, fp, asr r5
    1c5c:	5b500001 	blpl	1401c68 <_back_addr-0x20e398>
    1c60:	a8000005 	stmdage	r0, {r0, r2}
    1c64:	01000005 	tsteq	r0, r5
    1c68:	05a85800 	streq	r5, [r8, #2048]!	; 0x800
    1c6c:	05ab0000 	streq	r0, [fp, #0]!
    1c70:	00020000 	andeq	r0, r2, r0
    1c74:	05ab2c70 	streq	r2, [fp, #3184]!	; 0xc70
    1c78:	05ac0000 	streq	r0, [ip, #0]!
    1c7c:	00040000 	andeq	r0, r4, r0
    1c80:	9f5001f3 	svcls	0x005001f3
    1c84:	000005ac 	andeq	r0, r0, ip, lsr #11
    1c88:	000005d8 	ldrdeq	r0, [r0], -r8
    1c8c:	00580001 	subseq	r0, r8, r1
    1c90:	00000000 	andeq	r0, r0, r0
    1c94:	44000000 	strmi	r0, [r0], #-0
    1c98:	5b000005 	blpl	1cb4 <_back_addr-0x160e34c>
    1c9c:	01000005 	tsteq	r0, r5
    1ca0:	055b5100 	ldrbeq	r5, [fp, #-256]	; 0x100
    1ca4:	05a80000 	streq	r0, [r8, #0]!
    1ca8:	00010000 	andeq	r0, r1, r0
    1cac:	0005a856 	andeq	sl, r5, r6, asr r8
    1cb0:	0005ab00 	andeq	sl, r5, r0, lsl #22
    1cb4:	70000200 	andvc	r0, r0, r0, lsl #4
    1cb8:	0005ab34 	andeq	sl, r5, r4, lsr fp
    1cbc:	0005ac00 	andeq	sl, r5, r0, lsl #24
    1cc0:	f3000400 	vshl.u8	d0, d0, d0
    1cc4:	ac9f5101 	ldfges	f5, [pc], {1}
    1cc8:	d8000005 	stmdale	r0, {r0, r2}
    1ccc:	01000005 	tsteq	r0, r5
    1cd0:	00005600 	andeq	r5, r0, r0, lsl #12
    1cd4:	00000000 	andeq	r0, r0, r0
    1cd8:	05440000 	strbeq	r0, [r4, #-0]
    1cdc:	055b0000 	ldrbeq	r0, [fp, #-0]
    1ce0:	00010000 	andeq	r0, r1, r0
    1ce4:	00055b52 	andeq	r5, r5, r2, asr fp
    1ce8:	0005a800 	andeq	sl, r5, r0, lsl #16
    1cec:	57000100 	strpl	r0, [r0, -r0, lsl #2]
    1cf0:	000005a8 	andeq	r0, r0, r8, lsr #11
    1cf4:	000005ab 	andeq	r0, r0, fp, lsr #11
    1cf8:	30700002 	rsbscc	r0, r0, r2
    1cfc:	000005ab 	andeq	r0, r0, fp, lsr #11
    1d00:	000005ac 	andeq	r0, r0, ip, lsr #11
    1d04:	01f30004 	mvnseq	r0, r4
    1d08:	05ac9f52 	streq	r9, [ip, #3922]!	; 0xf52
    1d0c:	05d80000 	ldrbeq	r0, [r8]
    1d10:	00010000 	andeq	r0, r1, r0
    1d14:	00000057 	andeq	r0, r0, r7, asr r0
    1d18:	00000000 	andeq	r0, r0, r0
    1d1c:	00054400 	andeq	r4, r5, r0, lsl #8
    1d20:	00055b00 	andeq	r5, r5, r0, lsl #22
    1d24:	53000100 	movwpl	r0, #256	; 0x100
    1d28:	0000055b 	andeq	r0, r0, fp, asr r5
    1d2c:	000005a8 	andeq	r0, r0, r8, lsr #11
    1d30:	a8550001 	ldmdage	r5, {r0}^
    1d34:	ac000005 	stcge	0, cr0, [r0], {5}
    1d38:	04000005 	streq	r0, [r0], #-5
    1d3c:	5301f300 	movwpl	pc, #4864	; 0x1300	; <UNPREDICTABLE>
    1d40:	0005ac9f 	muleq	r5, pc, ip	; <UNPREDICTABLE>
    1d44:	0005d800 	andeq	sp, r5, r0, lsl #16
    1d48:	55000100 	strpl	r0, [r0, #-256]	; 0x100
	...
    1d54:	0000055c 	andeq	r0, r0, ip, asr r5
    1d58:	00000594 	muleq	r0, r4, r5
    1d5c:	94500001 	ldrbls	r0, [r0], #-1
    1d60:	a8000005 	stmdage	r0, {r0, r2}
    1d64:	01000005 	tsteq	r0, r5
    1d68:	05a85400 	streq	r5, [r8, #1024]!	; 0x400
    1d6c:	05ab0000 	streq	r0, [fp, #0]!
    1d70:	00010000 	andeq	r0, r1, r0
    1d74:	0005ac50 	andeq	sl, r5, r0, asr ip
    1d78:	0005af00 	andeq	sl, r5, r0, lsl #30
    1d7c:	50000100 	andpl	r0, r0, r0, lsl #2
    1d80:	000005af 	andeq	r0, r0, pc, lsr #11
    1d84:	000005c8 	andeq	r0, r0, r8, asr #11
    1d88:	c8540001 	ldmdagt	r4, {r0}^
    1d8c:	cc000005 	stcgt	0, cr0, [r0], {5}
    1d90:	01000005 	tsteq	r0, r5
    1d94:	05cc5000 	strbeq	r5, [ip]
    1d98:	05d80000 	ldrbeq	r0, [r8]
    1d9c:	00010000 	andeq	r0, r1, r0
    1da0:	00000054 	andeq	r0, r0, r4, asr r0
    1da4:	00000000 	andeq	r0, r0, r0
    1da8:	0005d800 	andeq	sp, r5, r0, lsl #16
    1dac:	0005ef00 	andeq	lr, r5, r0, lsl #30
    1db0:	50000100 	andpl	r0, r0, r0, lsl #2
    1db4:	000005ef 	andeq	r0, r0, pc, ror #11
    1db8:	000006c4 	andeq	r0, r0, r4, asr #13
    1dbc:	00580001 	subseq	r0, r8, r1
    1dc0:	00000000 	andeq	r0, r0, r0
    1dc4:	d8000000 	stmdale	r0, {}	; <UNPREDICTABLE>
    1dc8:	ef000005 	svc	0x00000005
    1dcc:	01000005 	tsteq	r0, r5
    1dd0:	05ef5100 	strbeq	r5, [pc, #256]!	; 1ed8 <_back_addr-0x160e128>
    1dd4:	06c40000 	strbeq	r0, [r4], r0
    1dd8:	00010000 	andeq	r0, r1, r0
    1ddc:	00000057 	andeq	r0, r0, r7, asr r0
    1de0:	00000000 	andeq	r0, r0, r0
    1de4:	0005d800 	andeq	sp, r5, r0, lsl #16
    1de8:	0005ef00 	andeq	lr, r5, r0, lsl #30
    1dec:	52000100 	andpl	r0, r0, #0, 2
    1df0:	000005ef 	andeq	r0, r0, pc, ror #11
    1df4:	000006c4 	andeq	r0, r0, r4, asr #13
    1df8:	00560001 	subseq	r0, r6, r1
    1dfc:	00000000 	andeq	r0, r0, r0
    1e00:	d8000000 	stmdale	r0, {}	; <UNPREDICTABLE>
    1e04:	ef000005 	svc	0x00000005
    1e08:	01000005 	tsteq	r0, r5
    1e0c:	05ef5300 	strbeq	r5, [pc, #768]!	; 2114 <_back_addr-0x160deec>
    1e10:	06c40000 	strbeq	r0, [r4], r0
    1e14:	00010000 	andeq	r0, r1, r0
    1e18:	00000055 	andeq	r0, r0, r5, asr r0
    1e1c:	00000000 	andeq	r0, r0, r0
    1e20:	0005d800 	andeq	sp, r5, r0, lsl #16
    1e24:	00063c00 	andeq	r3, r6, r0, lsl #24
    1e28:	30000200 	andcc	r0, r0, r0, lsl #4
    1e2c:	00063c9f 	muleq	r6, pc, ip	; <UNPREDICTABLE>
    1e30:	00066000 	andeq	r6, r6, r0
    1e34:	50000100 	andpl	r0, r0, r0, lsl #2
    1e38:	00000660 	andeq	r0, r0, r0, ror #12
    1e3c:	000006c4 	andeq	r0, r0, r4, asr #13
    1e40:	9f300002 	svcls	0x00300002
	...
    1e4c:	000005f0 	strdeq	r0, [r0], -r0	; <UNPREDICTABLE>
    1e50:	00000628 	andeq	r0, r0, r8, lsr #12
    1e54:	28500001 	ldmdacs	r0, {r0}^
    1e58:	40000006 	andmi	r0, r0, r6
    1e5c:	01000006 	tsteq	r0, r6
    1e60:	06605400 	strbteq	r5, [r0], -r0, lsl #8
    1e64:	06630000 	strbteq	r0, [r3], -r0
    1e68:	00010000 	andeq	r0, r1, r0
    1e6c:	00066350 	andeq	r6, r6, r0, asr r3
    1e70:	00069c00 	andeq	r9, r6, r0, lsl #24
    1e74:	54000100 	strpl	r0, [r0], #-256	; 0x100
    1e78:	0000069c 	muleq	r0, ip, r6
    1e7c:	000006b4 			; <UNDEFINED> instruction: 0x000006b4
    1e80:	b4500001 	ldrblt	r0, [r0], #-1
    1e84:	c4000006 	strgt	r0, [r0], #-6
    1e88:	01000006 	tsteq	r0, r6
    1e8c:	00005400 	andeq	r5, r0, r0, lsl #8
    1e90:	00000000 	andeq	r0, r0, r0
    1e94:	06c40000 	strbeq	r0, [r4], r0
    1e98:	06d70000 	ldrbeq	r0, [r7], r0
    1e9c:	00010000 	andeq	r0, r1, r0
    1ea0:	0006d750 	andeq	sp, r6, r0, asr r7
    1ea4:	00072800 	andeq	r2, r7, r0, lsl #16
    1ea8:	56000100 	strpl	r0, [r0], -r0, lsl #2
    1eac:	00000728 	andeq	r0, r0, r8, lsr #14
    1eb0:	0000072b 	andeq	r0, r0, fp, lsr #14
    1eb4:	2c700002 	ldclcs	0, cr0, [r0], #-8
    1eb8:	0000072b 	andeq	r0, r0, fp, lsr #14
    1ebc:	0000072c 	andeq	r0, r0, ip, lsr #14
    1ec0:	01f30004 	mvnseq	r0, r4
    1ec4:	072c9f50 			; <UNDEFINED> instruction: 0x072c9f50
    1ec8:	07340000 	ldreq	r0, [r4, -r0]!
    1ecc:	00010000 	andeq	r0, r1, r0
    1ed0:	00000056 	andeq	r0, r0, r6, asr r0
    1ed4:	00000000 	andeq	r0, r0, r0
    1ed8:	0006c400 	andeq	ip, r6, r0, lsl #8
    1edc:	0006d700 	andeq	sp, r6, r0, lsl #14
    1ee0:	51000100 	mrspl	r0, (UNDEF: 16)
    1ee4:	000006d7 	ldrdeq	r0, [r0], -r7
    1ee8:	00000728 	andeq	r0, r0, r8, lsr #14
    1eec:	28540001 	ldmdacs	r4, {r0}^
    1ef0:	2b000007 	blcs	1f14 <_back_addr-0x160e0ec>
    1ef4:	02000007 	andeq	r0, r0, #7
    1ef8:	2b347000 	blcs	d1df00 <_back_addr-0x8f2100>
    1efc:	2c000007 	stccs	0, cr0, [r0], {7}
    1f00:	04000007 	streq	r0, [r0], #-7
    1f04:	5101f300 	mrspl	pc, SP_irq	; <UNPREDICTABLE>
    1f08:	00072c9f 	muleq	r7, pc, ip	; <UNPREDICTABLE>
    1f0c:	00073400 	andeq	r3, r7, r0, lsl #8
    1f10:	54000100 	strpl	r0, [r0], #-256	; 0x100
	...
    1f1c:	000006c4 	andeq	r0, r0, r4, asr #13
    1f20:	000006d7 	ldrdeq	r0, [r0], -r7
    1f24:	d7520001 	ldrble	r0, [r2, -r1]
    1f28:	28000006 	stmdacs	r0, {r1, r2}
    1f2c:	01000007 	tsteq	r0, r7
    1f30:	07285500 	streq	r5, [r8, -r0, lsl #10]!
    1f34:	072b0000 	streq	r0, [fp, -r0]!
    1f38:	00020000 	andeq	r0, r2, r0
    1f3c:	072b3070 			; <UNDEFINED> instruction: 0x072b3070
    1f40:	072c0000 	streq	r0, [ip, -r0]!
    1f44:	00040000 	andeq	r0, r4, r0
    1f48:	9f5201f3 	svcls	0x005201f3
    1f4c:	0000072c 	andeq	r0, r0, ip, lsr #14
    1f50:	00000734 	andeq	r0, r0, r4, lsr r7
    1f54:	00550001 	subseq	r0, r5, r1
    1f58:	00000000 	andeq	r0, r0, r0
    1f5c:	d8000000 	stmdale	r0, {}	; <UNPREDICTABLE>
    1f60:	2b000006 	blcs	1f80 <_back_addr-0x160e080>
    1f64:	01000007 	tsteq	r0, r7
    1f68:	072c5000 	streq	r5, [ip, -r0]!
    1f6c:	07300000 	ldreq	r0, [r0, -r0]!
    1f70:	00010000 	andeq	r0, r1, r0
    1f74:	00073050 	andeq	r3, r7, r0, asr r0
    1f78:	00073400 	andeq	r3, r7, r0, lsl #8
    1f7c:	53000100 	movwpl	r0, #256	; 0x100
	...
    1f88:	00000734 	andeq	r0, r0, r4, lsr r7
    1f8c:	00000763 	andeq	r0, r0, r3, ror #14
    1f90:	63500001 	cmpvs	r0, #1
    1f94:	ac000007 	stcge	0, cr0, [r0], {7}
    1f98:	01000007 	tsteq	r0, r7
    1f9c:	07ac5800 	streq	r5, [ip, r0, lsl #16]!
    1fa0:	08840000 	stmeq	r4, {}	; <UNPREDICTABLE>
    1fa4:	00040000 	andeq	r0, r4, r0
    1fa8:	9f5001f3 	svcls	0x005001f3
    1fac:	00000884 	andeq	r0, r0, r4, lsl #17
    1fb0:	00000888 	andeq	r0, r0, r8, lsl #17
    1fb4:	88500001 	ldmdahi	r0, {r0}^
    1fb8:	8c000008 	stchi	0, cr0, [r0], {8}
    1fbc:	04000008 	streq	r0, [r0], #-8
    1fc0:	5001f300 	andpl	pc, r1, r0, lsl #6
    1fc4:	0000009f 	muleq	r0, pc, r0	; <UNPREDICTABLE>
    1fc8:	00000000 	andeq	r0, r0, r0
    1fcc:	00073400 	andeq	r3, r7, r0, lsl #8
    1fd0:	00076300 	andeq	r6, r7, r0, lsl #6
    1fd4:	51000100 	mrspl	r0, (UNDEF: 16)
    1fd8:	00000763 	andeq	r0, r0, r3, ror #14
    1fdc:	00000884 	andeq	r0, r0, r4, lsl #17
    1fe0:	84560001 	ldrbhi	r0, [r6], #-1
    1fe4:	8c000008 	stchi	0, cr0, [r0], {8}
    1fe8:	01000008 	tsteq	r0, r8
    1fec:	00005100 	andeq	r5, r0, r0, lsl #2
    1ff0:	00000000 	andeq	r0, r0, r0
    1ff4:	07340000 	ldreq	r0, [r4, -r0]!
    1ff8:	07630000 	strbeq	r0, [r3, -r0]!
    1ffc:	00010000 	andeq	r0, r1, r0
    2000:	00076352 	andeq	r6, r7, r2, asr r3
    2004:	00087c00 	andeq	r7, r8, r0, lsl #24
    2008:	54000100 	strpl	r0, [r0], #-256	; 0x100
    200c:	0000087c 	andeq	r0, r0, ip, ror r8
    2010:	00000884 	andeq	r0, r0, r4, lsl #17
    2014:	01f30004 	mvnseq	r0, r4
    2018:	08849f52 	stmeq	r4, {r1, r4, r6, r8, r9, sl, fp, ip, pc}
    201c:	088c0000 	stmeq	ip, {}	; <UNPREDICTABLE>
    2020:	00010000 	andeq	r0, r1, r0
    2024:	00000052 	andeq	r0, r0, r2, asr r0
    2028:	00000000 	andeq	r0, r0, r0
    202c:	00073400 	andeq	r3, r7, r0, lsl #8
    2030:	00076300 	andeq	r6, r7, r0, lsl #6
    2034:	53000100 	movwpl	r0, #256	; 0x100
    2038:	00000763 	andeq	r0, r0, r3, ror #14
    203c:	00000884 	andeq	r0, r0, r4, lsl #17
    2040:	84570001 	ldrbhi	r0, [r7], #-1
    2044:	8c000008 	stchi	0, cr0, [r0], {8}
    2048:	01000008 	tsteq	r0, r8
    204c:	00005300 	andeq	r5, r0, r0, lsl #6
    2050:	00000000 	andeq	r0, r0, r0
    2054:	07640000 	strbeq	r0, [r4, -r0]!
    2058:	07ac0000 	streq	r0, [ip, r0]!
    205c:	00010000 	andeq	r0, r1, r0
    2060:	0007ac50 	andeq	sl, r7, r0, asr ip
    2064:	00087c00 	andeq	r7, r8, r0, lsl #24
    2068:	55000100 	strpl	r0, [r0, #-256]	; 0x100
	...
    2074:	000007a4 	andeq	r0, r0, r4, lsr #15
    2078:	0000087c 	andeq	r0, r0, ip, ror r8
    207c:	00580001 	subseq	r0, r8, r1
    2080:	00000000 	andeq	r0, r0, r0
    2084:	a4000000 	strge	r0, [r0], #-0
    2088:	ac000007 	stcge	0, cr0, [r0], {7}
    208c:	02000007 	andeq	r0, r0, #7
    2090:	489f3000 	ldmmi	pc, {ip, sp}	; <UNPREDICTABLE>
    2094:	6c000008 	stcvs	0, cr0, [r0], {8}
    2098:	02000008 	andeq	r0, r0, #8
    209c:	009f3000 	addseq	r3, pc, r0
    20a0:	00000000 	andeq	r0, r0, r0
    20a4:	ac000000 	stcge	0, cr0, [r0], {-0}
    20a8:	48000007 	stmdami	r0, {r0, r1, r2}
    20ac:	01000008 	tsteq	r0, r8
    20b0:	086c5400 	stmdaeq	ip!, {sl, ip, lr}^
    20b4:	087c0000 	ldmdaeq	ip!, {}^	; <UNPREDICTABLE>
    20b8:	00010000 	andeq	r0, r1, r0
    20bc:	00000054 	andeq	r0, r0, r4, asr r0
    20c0:	00000000 	andeq	r0, r0, r0
    20c4:	0007ac00 	andeq	sl, r7, r0, lsl #24
    20c8:	00084800 	andeq	r4, r8, r0, lsl #16
    20cc:	55000100 	strpl	r0, [r0, #-256]	; 0x100
    20d0:	0000086c 	andeq	r0, r0, ip, ror #16
    20d4:	0000087c 	andeq	r0, r0, ip, ror r8
    20d8:	00550001 	subseq	r0, r5, r1
    20dc:	00000000 	andeq	r0, r0, r0
    20e0:	8c000000 	stchi	0, cr0, [r0], {-0}
    20e4:	af000008 	svcge	0x00000008
    20e8:	01000008 	tsteq	r0, r8
    20ec:	08af5000 	stmiaeq	pc!, {ip, lr}	; <UNPREDICTABLE>
    20f0:	09040000 	stmdbeq	r4, {}	; <UNPREDICTABLE>
    20f4:	00010000 	andeq	r0, r1, r0
    20f8:	00090456 	andeq	r0, r9, r6, asr r4
    20fc:	00090700 	andeq	r0, r9, r0, lsl #14
    2100:	70000200 	andvc	r0, r0, r0, lsl #4
    2104:	0009072c 	andeq	r0, r9, ip, lsr #14
    2108:	00090800 	andeq	r0, r9, r0, lsl #16
    210c:	f3000400 	vshl.u8	d0, d0, d0
    2110:	089f5001 	ldmeq	pc, {r0, ip, lr}	; <UNPREDICTABLE>
    2114:	48000009 	stmdami	r0, {r0, r3}
    2118:	01000009 	tsteq	r0, r9
    211c:	09485600 	stmdbeq	r8, {r9, sl, ip, lr}^
    2120:	094c0000 	stmdbeq	ip, {}^	; <UNPREDICTABLE>
    2124:	00010000 	andeq	r0, r1, r0
    2128:	00094c50 	andeq	r4, r9, r0, asr ip
    212c:	00095000 	andeq	r5, r9, r0
    2130:	f3000400 	vshl.u8	d0, d0, d0
    2134:	509f5001 	addspl	r5, pc, r1
    2138:	58000009 	stmdapl	r0, {r0, r3}
    213c:	01000009 	tsteq	r0, r9
    2140:	00005600 	andeq	r5, r0, r0, lsl #12
    2144:	00000000 	andeq	r0, r0, r0
    2148:	088c0000 	stmeq	ip, {}	; <UNPREDICTABLE>
    214c:	08af0000 	stmiaeq	pc!, {}	; <UNPREDICTABLE>
    2150:	00010000 	andeq	r0, r1, r0
    2154:	0008af51 	andeq	sl, r8, r1, asr pc
    2158:	00090400 	andeq	r0, r9, r0, lsl #8
    215c:	55000100 	strpl	r0, [r0, #-256]	; 0x100
    2160:	00000904 	andeq	r0, r0, r4, lsl #18
    2164:	00000907 	andeq	r0, r0, r7, lsl #18
    2168:	34700002 	ldrbtcc	r0, [r0], #-2
    216c:	00000907 	andeq	r0, r0, r7, lsl #18
    2170:	00000908 	andeq	r0, r0, r8, lsl #18
    2174:	01f30004 	mvnseq	r0, r4
    2178:	09089f51 	stmdbeq	r8, {r0, r4, r6, r8, r9, sl, fp, ip, pc}
    217c:	09480000 	stmdbeq	r8, {}^	; <UNPREDICTABLE>
    2180:	00010000 	andeq	r0, r1, r0
    2184:	00094855 	andeq	r4, r9, r5, asr r8
    2188:	00095000 	andeq	r5, r9, r0
    218c:	51000100 	mrspl	r0, (UNDEF: 16)
    2190:	00000950 	andeq	r0, r0, r0, asr r9
    2194:	00000958 	andeq	r0, r0, r8, asr r9
    2198:	00550001 	subseq	r0, r5, r1
    219c:	00000000 	andeq	r0, r0, r0
    21a0:	8c000000 	stchi	0, cr0, [r0], {-0}
    21a4:	af000008 	svcge	0x00000008
    21a8:	01000008 	tsteq	r0, r8
    21ac:	08af5200 	stmiaeq	pc!, {r9, ip, lr}	; <UNPREDICTABLE>
    21b0:	09040000 	stmdbeq	r4, {}	; <UNPREDICTABLE>
    21b4:	00010000 	andeq	r0, r1, r0
    21b8:	00090457 	andeq	r0, r9, r7, asr r4
    21bc:	00090700 	andeq	r0, r9, r0, lsl #14
    21c0:	70000200 	andvc	r0, r0, r0, lsl #4
    21c4:	00090730 	andeq	r0, r9, r0, lsr r7
    21c8:	00090800 	andeq	r0, r9, r0, lsl #16
    21cc:	f3000400 	vshl.u8	d0, d0, d0
    21d0:	089f5201 	ldmeq	pc, {r0, r9, ip, lr}	; <UNPREDICTABLE>
    21d4:	48000009 	stmdami	r0, {r0, r3}
    21d8:	01000009 	tsteq	r0, r9
    21dc:	09485700 	stmdbeq	r8, {r8, r9, sl, ip, lr}^
    21e0:	09500000 	ldmdbeq	r0, {}^	; <UNPREDICTABLE>
    21e4:	00010000 	andeq	r0, r1, r0
    21e8:	00095052 	andeq	r5, r9, r2, asr r0
    21ec:	00095800 	andeq	r5, r9, r0, lsl #16
    21f0:	57000100 	strpl	r0, [r0, -r0, lsl #2]
	...
    21fc:	0000088c 	andeq	r0, r0, ip, lsl #17
    2200:	000008af 	andeq	r0, r0, pc, lsr #17
    2204:	af530001 	svcge	0x00530001
    2208:	04000008 	streq	r0, [r0], #-8
    220c:	01000009 	tsteq	r0, r9
    2210:	09045400 	stmdbeq	r4, {sl, ip, lr}
    2214:	09080000 	stmdbeq	r8, {}	; <UNPREDICTABLE>
    2218:	00040000 	andeq	r0, r4, r0
    221c:	9f5301f3 	svcls	0x005301f3
    2220:	00000908 	andeq	r0, r0, r8, lsl #18
    2224:	00000948 	andeq	r0, r0, r8, asr #18
    2228:	48540001 	ldmdami	r4, {r0}^
    222c:	50000009 	andpl	r0, r0, r9
    2230:	01000009 	tsteq	r0, r9
    2234:	09505300 	ldmdbeq	r0, {r8, r9, ip, lr}^
    2238:	09580000 	ldmdbeq	r8, {}^	; <UNPREDICTABLE>
    223c:	00010000 	andeq	r0, r1, r0
    2240:	00000054 	andeq	r0, r0, r4, asr r0
    2244:	00000000 	andeq	r0, r0, r0
    2248:	0008b000 	andeq	fp, r8, r0
    224c:	0008f800 	andeq	pc, r8, r0, lsl #16
    2250:	50000100 	andpl	r0, r0, r0, lsl #2
    2254:	000008f8 	strdeq	r0, [r0], -r8
    2258:	00000907 	andeq	r0, r0, r7, lsl #18
    225c:	085c0001 	ldmdaeq	ip, {r0}^
    2260:	48000009 	stmdami	r0, {r0, r3}
    2264:	01000009 	tsteq	r0, r9
    2268:	09505000 	ldmdbeq	r0, {ip, lr}^
    226c:	09540000 	ldmdbeq	r4, {}^	; <UNPREDICTABLE>
    2270:	00010000 	andeq	r0, r1, r0
    2274:	00095450 	andeq	r5, r9, r0, asr r4
    2278:	00095800 	andeq	r5, r9, r0, lsl #16
    227c:	5c000100 	stfpls	f0, [r0], {-0}
	...
    2288:	00000958 	andeq	r0, r0, r8, asr r9
    228c:	00000973 	andeq	r0, r0, r3, ror r9
    2290:	73500001 	cmpvc	r0, #1
    2294:	3c000009 	stccc	0, cr0, [r0], {9}
    2298:	0100000a 	tsteq	r0, sl
    229c:	0a3c5400 	beq	f172a4 <_back_addr-0x6f8d5c>
    22a0:	0abc0000 	beq	fef022a8 <__bss_end__+0xfd8df6e8>
    22a4:	00040000 	andeq	r0, r4, r0
    22a8:	9f5001f3 	svcls	0x005001f3
    22ac:	00000abc 			; <UNDEFINED> instruction: 0x00000abc
    22b0:	00000ad4 	ldrdeq	r0, [r0], -r4
    22b4:	00540001 	subseq	r0, r4, r1
    22b8:	00000000 	andeq	r0, r0, r0
    22bc:	58000000 	stmdapl	r0, {}	; <UNPREDICTABLE>
    22c0:	73000009 	movwvc	r0, #9
    22c4:	01000009 	tsteq	r0, r9
    22c8:	09735100 	ldmdbeq	r3!, {r8, ip, lr}^
    22cc:	0a100000 	beq	4022d4 <_back_addr-0x120dd2c>
    22d0:	00010000 	andeq	r0, r1, r0
    22d4:	000a1055 	andeq	r1, sl, r5, asr r0
    22d8:	000abc00 	andeq	fp, sl, r0, lsl #24
    22dc:	f3000400 	vshl.u8	d0, d0, d0
    22e0:	bc9f5101 	ldflts	f5, [pc], {1}
    22e4:	d400000a 	strle	r0, [r0], #-10
    22e8:	0100000a 	tsteq	r0, sl
    22ec:	00005500 	andeq	r5, r0, r0, lsl #10
    22f0:	00000000 	andeq	r0, r0, r0
    22f4:	09580000 	ldmdbeq	r8, {}^	; <UNPREDICTABLE>
    22f8:	09730000 	ldmdbeq	r3!, {}^	; <UNPREDICTABLE>
    22fc:	00010000 	andeq	r0, r1, r0
    2300:	00097352 	andeq	r7, r9, r2, asr r3
    2304:	000ad400 	andeq	sp, sl, r0, lsl #8
    2308:	56000100 	strpl	r0, [r0], -r0, lsl #2
	...
    2314:	00000958 	andeq	r0, r0, r8, asr r9
    2318:	00000a44 	andeq	r0, r0, r4, asr #20
    231c:	9f300002 	svcls	0x00300002
    2320:	00000a44 	andeq	r0, r0, r4, asr #20
    2324:	00000a48 	andeq	r0, r0, r8, asr #20
    2328:	ea0a0007 	b	28234c <_back_addr-0x138dcb4>
    232c:	1c007403 	cfstrsne	mvf7, [r0], {3}
    2330:	000a489f 	muleq	sl, pc, r8	; <UNPREDICTABLE>
    2334:	000a4c00 	andeq	r4, sl, r0, lsl #24
    2338:	0a000700 	beq	3f40 <_back_addr-0x160c0c0>
    233c:	007403e9 	rsbseq	r0, r4, r9, ror #7
    2340:	0a4c9f1c 	beq	1329fb8 <_back_addr-0x2e6048>
    2344:	0a600000 	beq	180234c <__bss_end__+0x1df78c>
    2348:	00070000 	andeq	r0, r7, r0
    234c:	7403ea0a 	strvc	lr, [r3], #-2570	; 0xa0a
    2350:	a49f1c00 	ldrge	r1, [pc], #3072	; 2358 <_back_addr-0x160dca8>
    2354:	bc00000a 	stclt	0, cr0, [r0], {10}
    2358:	0700000a 	streq	r0, [r0, -sl]
    235c:	03e90a00 	mvneq	r0, #0, 20
    2360:	9f1c0074 	svcls	0x001c0074
    2364:	00000abc 			; <UNDEFINED> instruction: 0x00000abc
    2368:	00000ad4 	ldrdeq	r0, [r0], -r4
    236c:	9f300002 	svcls	0x00300002
	...
    2378:	00000a20 	andeq	r0, r0, r0, lsr #20
    237c:	00000a24 	andeq	r0, r0, r4, lsr #20
    2380:	80740025 	rsbshi	r0, r4, r5, lsr #32
    2384:	24480604 	strbcs	r0, [r8], #-1540	; 0x604
    2388:	06048074 			; <UNDEFINED> instruction: 0x06048074
    238c:	74212548 	strtvc	r2, [r1], #-1352	; 0x548
    2390:	08060480 	stmdaeq	r6, {r7, sl}
    2394:	1a2440ff 	bne	912798 <_back_addr-0xcfd868>
    2398:	74212538 	strtvc	r2, [r1], #-1336	; 0x538
    239c:	0a060480 	beq	1835a4 <_back_addr-0x148ca5c>
    23a0:	381aff00 	ldmdacc	sl, {r8, r9, sl, fp, ip, sp, lr, pc}
    23a4:	009f2124 	addseq	r2, pc, r4, lsr #2
    23a8:	00000000 	andeq	r0, r0, r0
    23ac:	20000000 	andcs	r0, r0, r0
    23b0:	bc00000a 	stclt	0, cr0, [r0], {10}
    23b4:	0600000a 	streq	r0, [r0], -sl
    23b8:	84049e00 	strhi	r9, [r4], #-3584	; 0xe00
    23bc:	009804cf 	addseq	r0, r8, pc, asr #9
    23c0:	00000000 	andeq	r0, r0, r0
    23c4:	24000000 	strcs	r0, [r0], #-0
    23c8:	bc00000a 	stclt	0, cr0, [r0], {10}
    23cc:	0600000a 	streq	r0, [r0], -sl
    23d0:	88049e00 	stmdahi	r4, {r9, sl, fp, ip, pc}
    23d4:	009804cf 	addseq	r0, r8, pc, asr #9
    23d8:	00000000 	andeq	r0, r0, r0
    23dc:	2c000000 	stccs	0, cr0, [r0], {-0}
    23e0:	3400000a 	strcc	r0, [r0], #-10
    23e4:	0100000a 	tsteq	r0, sl
    23e8:	0a345300 	beq	d16ff0 <_back_addr-0x8f9010>
    23ec:	0a440000 	beq	11023f4 <_back_addr-0x50dc0c>
    23f0:	00030000 	andeq	r0, r3, r0
    23f4:	001f8875 	andseq	r8, pc, r5, ror r8	; <UNPREDICTABLE>
    23f8:	00000000 	andeq	r0, r0, r0
    23fc:	2c000000 	stccs	0, cr0, [r0], {-0}
    2400:	bc00000a 	stclt	0, cr0, [r0], {10}
    2404:	0600000a 	streq	r0, [r0], -sl
    2408:	88049e00 	stmdahi	r4, {r9, sl, fp, ip, pc}
    240c:	009804cf 	addseq	r0, r8, pc, asr #9
    2410:	00000000 	andeq	r0, r0, r0
    2414:	30000000 	andcc	r0, r0, r0
    2418:	bc00000a 	stclt	0, cr0, [r0], {10}
    241c:	0600000a 	streq	r0, [r0], -sl
    2420:	0c049e00 	stceq	14, cr9, [r4], {-0}
    2424:	009804cf 	addseq	r0, r8, pc, asr #9
    2428:	00000000 	andeq	r0, r0, r0
    242c:	d4000000 	strle	r0, [r0], #-0
    2430:	e400000a 	str	r0, [r0], #-10
    2434:	0100000a 	tsteq	r0, sl
    2438:	0ae45000 	beq	ff916440 <__bss_end__+0xfe2f3880>
    243c:	0ae80000 	beq	ffa02444 <__bss_end__+0xfe3df884>
    2440:	00040000 	andeq	r0, r4, r0
    2444:	9f5001f3 	svcls	0x005001f3
    2448:	00000ae8 	andeq	r0, r0, r8, ror #21
    244c:	00000aff 	strdeq	r0, [r0], -pc	; <UNPREDICTABLE>
    2450:	ff500001 			; <UNDEFINED> instruction: 0xff500001
    2454:	6c00000a 	stcvs	0, cr0, [r0], {10}
    2458:	0100000b 	tsteq	r0, fp
    245c:	0b6c5600 	bleq	1b17c64 <__bss_end__+0x4f50a4>
    2460:	0b6f0000 	bleq	1bc2468 <__bss_end__+0x59f8a8>
    2464:	00020000 	andeq	r0, r2, r0
    2468:	0b6f2c70 	bleq	1bcd630 <__bss_end__+0x5aaa70>
    246c:	0b700000 	bleq	1c02474 <__bss_end__+0x5df8b4>
    2470:	00040000 	andeq	r0, r4, r0
    2474:	9f5001f3 	svcls	0x005001f3
    2478:	00000b70 	andeq	r0, r0, r0, ror fp
    247c:	00000bdc 	ldrdeq	r0, [r0], -ip
    2480:	00560001 	subseq	r0, r6, r1
    2484:	00000000 	andeq	r0, r0, r0
    2488:	d4000000 	strle	r0, [r0], #-0
    248c:	ff00000a 			; <UNDEFINED> instruction: 0xff00000a
    2490:	0100000a 	tsteq	r0, sl
    2494:	0aff5100 	beq	fffd689c <__bss_end__+0xfe9b3cdc>
    2498:	0b6c0000 	bleq	1b024a0 <__bss_end__+0x4df8e0>
    249c:	00010000 	andeq	r0, r1, r0
    24a0:	000b6c55 	andeq	r6, fp, r5, asr ip
    24a4:	000b6f00 	andeq	r6, fp, r0, lsl #30
    24a8:	70000200 	andvc	r0, r0, r0, lsl #4
    24ac:	000b6f34 	andeq	r6, fp, r4, lsr pc
    24b0:	000b7000 	andeq	r7, fp, r0
    24b4:	f3000400 	vshl.u8	d0, d0, d0
    24b8:	709f5101 	addsvc	r5, pc, r1, lsl #2
    24bc:	dc00000b 	stcle	0, cr0, [r0], {11}
    24c0:	0100000b 	tsteq	r0, fp
    24c4:	00005500 	andeq	r5, r0, r0, lsl #10
    24c8:	00000000 	andeq	r0, r0, r0
    24cc:	0ad40000 	beq	ff5024d4 <__bss_end__+0xfdedf914>
    24d0:	0aff0000 	beq	fffc24d8 <__bss_end__+0xfe99f918>
    24d4:	00010000 	andeq	r0, r1, r0
    24d8:	000aff52 	andeq	pc, sl, r2, asr pc	; <UNPREDICTABLE>
    24dc:	000b6c00 	andeq	r6, fp, r0, lsl #24
    24e0:	57000100 	strpl	r0, [r0, -r0, lsl #2]
    24e4:	00000b6c 	andeq	r0, r0, ip, ror #22
    24e8:	00000b6f 	andeq	r0, r0, pc, ror #22
    24ec:	30700002 	rsbscc	r0, r0, r2
    24f0:	00000b6f 	andeq	r0, r0, pc, ror #22
    24f4:	00000b70 	andeq	r0, r0, r0, ror fp
    24f8:	01f30004 	mvnseq	r0, r4
    24fc:	0b709f52 	bleq	1c2a24c <__bss_end__+0x60768c>
    2500:	0bdc0000 	bleq	ff702508 <__bss_end__+0xfe0df948>
    2504:	00010000 	andeq	r0, r1, r0
    2508:	00000057 	andeq	r0, r0, r7, asr r0
    250c:	00000000 	andeq	r0, r0, r0
    2510:	000ad400 	andeq	sp, sl, r0, lsl #8
    2514:	000aff00 	andeq	pc, sl, r0, lsl #30
    2518:	53000100 	movwpl	r0, #256	; 0x100
    251c:	00000aff 	strdeq	r0, [r0], -pc	; <UNPREDICTABLE>
    2520:	00000b6c 	andeq	r0, r0, ip, ror #22
    2524:	6c540001 	mrrcvs	0, 0, r0, r4, cr1
    2528:	7000000b 	andvc	r0, r0, fp
    252c:	0400000b 	streq	r0, [r0], #-11
    2530:	5301f300 	movwpl	pc, #4864	; 0x1300	; <UNPREDICTABLE>
    2534:	000b709f 	muleq	fp, pc, r0	; <UNPREDICTABLE>
    2538:	000bdc00 	andeq	sp, fp, r0, lsl #24
    253c:	54000100 	strpl	r0, [r0], #-256	; 0x100
	...
    2548:	00000b00 	andeq	r0, r0, r0, lsl #22
    254c:	00000b60 	andeq	r0, r0, r0, ror #22
    2550:	60500001 	subsvs	r0, r0, r1
    2554:	6f00000b 	svcvs	0x0000000b
    2558:	0100000b 	tsteq	r0, fp
    255c:	0b705c00 	bleq	1c19564 <__bss_end__+0x5f69a4>
    2560:	0b740000 	bleq	1d02568 <__bss_end__+0x6df9a8>
    2564:	00010000 	andeq	r0, r1, r0
    2568:	000b7450 	andeq	r7, fp, r0, asr r4
    256c:	000b7800 	andeq	r7, fp, r0, lsl #16
    2570:	5c000100 	stfpls	f0, [r0], {-0}
    2574:	00000b78 	andeq	r0, r0, r8, ror fp
    2578:	00000bdc 	ldrdeq	r0, [r0], -ip
    257c:	00500001 	subseq	r0, r0, r1
    2580:	00000000 	andeq	r0, r0, r0
    2584:	dc000000 	stcle	0, cr0, [r0], {-0}
    2588:	e800000b 	stmda	r0, {r0, r1, r3}
    258c:	0100000b 	tsteq	r0, fp
    2590:	0be85000 	bleq	ffa16598 <__bss_end__+0xfe3f39d8>
    2594:	0c040000 	stceq	0, cr0, [r4], {-0}
    2598:	00040000 	andeq	r0, r4, r0
    259c:	9f7f807c 	svcls	0x007f807c
	...
    25a8:	00000bdc 	ldrdeq	r0, [r0], -ip
    25ac:	00000be8 	andeq	r0, r0, r8, ror #23
    25b0:	9f300002 	svcls	0x00300002
    25b4:	00000be8 	andeq	r0, r0, r8, ror #23
    25b8:	00000bf0 	strdeq	r0, [r0], -r0	; <UNPREDICTABLE>
    25bc:	00720009 	rsbseq	r0, r2, r9
    25c0:	231c007c 	tstcs	ip, #124	; 0x7c
    25c4:	f09f0181 			; <UNDEFINED> instruction: 0xf09f0181
    25c8:	fc00000b 	stc2	0, cr0, [r0], {11}
    25cc:	0900000b 	stmdbeq	r0, {r0, r1, r3}
    25d0:	7c007200 	sfmvc	f7, 4, [r0], {-0}
    25d4:	80231c00 	eorhi	r1, r3, r0, lsl #24
    25d8:	0bfc9f01 	bleq	fff2a1e4 <__bss_end__+0xfe907624>
    25dc:	0c040000 	stceq	0, cr0, [r4], {-0}
    25e0:	00090000 	andeq	r0, r9, r0
    25e4:	007c0072 	rsbseq	r0, ip, r2, ror r0
    25e8:	0181231c 	orreq	r2, r1, ip, lsl r3
    25ec:	0000009f 	muleq	r0, pc, r0	; <UNPREDICTABLE>
	...
    25f8:	00000c00 	andeq	r0, r0, r0, lsl #24
    25fc:	50000100 	andpl	r0, r0, r0, lsl #2
    2600:	0000000c 	andeq	r0, r0, ip
    2604:	00000010 	andeq	r0, r0, r0, lsl r0
    2608:	01f30004 	mvnseq	r0, r4
    260c:	00109f50 	andseq	r9, r0, r0, asr pc
    2610:	002c0000 	eoreq	r0, ip, r0
    2614:	00010000 	andeq	r0, r1, r0
    2618:	00002c50 	andeq	r2, r0, r0, asr ip
    261c:	00004800 	andeq	r4, r0, r0, lsl #16
    2620:	70000300 	andvc	r0, r0, r0, lsl #6
    2624:	00489f7f 	subeq	r9, r8, pc, ror pc
    2628:	00580000 	subseq	r0, r8, r0
    262c:	00040000 	andeq	r0, r4, r0
    2630:	9f5001f3 	svcls	0x005001f3
	...
    263c:	00000010 	andeq	r0, r0, r0, lsl r0
    2640:	0000002c 	andeq	r0, r0, ip, lsr #32
    2644:	2c500001 	mrrccs	0, 0, r0, r0, cr1	; <UNPREDICTABLE>
    2648:	48000000 	stmdami	r0, {}	; <UNPREDICTABLE>
    264c:	03000000 	movweq	r0, #0
    2650:	9f7f7000 	svcls	0x007f7000
    2654:	00000048 	andeq	r0, r0, r8, asr #32
    2658:	00000058 	andeq	r0, r0, r8, asr r0
    265c:	01f30004 	mvnseq	r0, r4
    2660:	00009f50 	andeq	r9, r0, r0, asr pc
    2664:	00000000 	andeq	r0, r0, r0
    2668:	00580000 	subseq	r0, r8, r0
    266c:	00700000 	rsbseq	r0, r0, r0
    2670:	00010000 	andeq	r0, r1, r0
    2674:	00007050 	andeq	r7, r0, r0, asr r0
    2678:	00008400 	andeq	r8, r0, r0, lsl #8
    267c:	f3000400 	vshl.u8	d0, d0, d0
    2680:	009f5001 	addseq	r5, pc, r1
    2684:	00000000 	andeq	r0, r0, r0
    2688:	84000000 	strhi	r0, [r0], #-0
    268c:	90000000 	andls	r0, r0, r0
    2690:	01000000 	mrseq	r0, (UNDEF: 0)
    2694:	00905000 	addseq	r5, r0, r0
    2698:	00940000 	addseq	r0, r4, r0
    269c:	00040000 	andeq	r0, r4, r0
    26a0:	9f5001f3 	svcls	0x005001f3
    26a4:	00000094 	muleq	r0, r4, r0
    26a8:	000000a0 	andeq	r0, r0, r0, lsr #1
    26ac:	a0500001 	subsge	r0, r0, r1
    26b0:	b4000000 	strlt	r0, [r0], #-0
    26b4:	04000000 	streq	r0, [r0], #-0
    26b8:	5001f300 	andpl	pc, r1, r0, lsl #6
    26bc:	0000009f 	muleq	r0, pc, r0	; <UNPREDICTABLE>
    26c0:	00000000 	andeq	r0, r0, r0
    26c4:	00009400 	andeq	r9, r0, r0, lsl #8
    26c8:	0000a000 	andeq	sl, r0, r0
    26cc:	50000100 	andpl	r0, r0, r0, lsl #2
    26d0:	000000a0 	andeq	r0, r0, r0, lsr #1
    26d4:	000000ac 	andeq	r0, r0, ip, lsr #1
    26d8:	7f700003 	svcvc	0x00700003
    26dc:	0000ac9f 	muleq	r0, pc, ip	; <UNPREDICTABLE>
    26e0:	0000b400 	andeq	fp, r0, r0, lsl #8
    26e4:	f3000400 	vshl.u8	d0, d0, d0
    26e8:	009f5001 	addseq	r5, pc, r1
    26ec:	00000000 	andeq	r0, r0, r0
    26f0:	b4000000 	strlt	r0, [r0], #-0
    26f4:	c8000000 	stmdagt	r0, {}	; <UNPREDICTABLE>
    26f8:	01000000 	mrseq	r0, (UNDEF: 0)
    26fc:	00c85000 	sbceq	r5, r8, r0
    2700:	01100000 	tsteq	r0, r0
    2704:	00040000 	andeq	r0, r4, r0
    2708:	9f5001f3 	svcls	0x005001f3
	...
    2714:	000000b4 	strheq	r0, [r0], -r4
    2718:	000000ec 	andeq	r0, r0, ip, ror #1
    271c:	9f300002 	svcls	0x00300002
    2720:	000000ec 	andeq	r0, r0, ip, ror #1
    2724:	00000110 	andeq	r0, r0, r0, lsl r1
    2728:	00510001 	subseq	r0, r1, r1
    272c:	00000000 	andeq	r0, r0, r0
    2730:	10000000 	andne	r0, r0, r0
    2734:	20000001 	andcs	r0, r0, r1
    2738:	01000001 	tsteq	r0, r1
    273c:	01205000 	teqeq	r0, r0
    2740:	01680000 	cmneq	r8, r0
    2744:	00040000 	andeq	r0, r4, r0
    2748:	9f5001f3 	svcls	0x005001f3
	...
    2754:	00000110 	andeq	r0, r0, r0, lsl r1
    2758:	00000144 	andeq	r0, r0, r4, asr #2
    275c:	9f300002 	svcls	0x00300002
    2760:	00000144 	andeq	r0, r0, r4, asr #2
    2764:	00000168 	andeq	r0, r0, r8, ror #2
    2768:	00510001 	subseq	r0, r1, r1
    276c:	00000000 	andeq	r0, r0, r0
    2770:	2c000000 	stccs	0, cr0, [r0], {-0}
    2774:	3c000000 	stccc	0, cr0, [r0], {-0}
    2778:	09000000 	stmdbeq	r0, {}	; <UNPREDICTABLE>
    277c:	11007200 	mrsne	r7, R8_usr
    2780:	78809fff 	stmvc	r0, {r0, r1, r2, r3, r4, r5, r6, r7, r8, r9, sl, fp, ip, pc}
    2784:	00009f1a 	andeq	r9, r0, sl, lsl pc
    2788:	00000000 	andeq	r0, r0, r0
    278c:	00980000 	addseq	r0, r8, r0
    2790:	00b40000 	adcseq	r0, r4, r0
    2794:	00010000 	andeq	r0, r1, r0
    2798:	0000b450 	andeq	fp, r0, r0, asr r4
    279c:	0000d800 	andeq	sp, r0, r0, lsl #16
    27a0:	70000300 	andvc	r0, r0, r0, lsl #6
    27a4:	00d89f01 	sbcseq	r9, r8, r1, lsl #30
    27a8:	00e40000 	rsceq	r0, r4, r0
    27ac:	00010000 	andeq	r0, r1, r0
    27b0:	0000e450 	andeq	lr, r0, r0, asr r4
    27b4:	00010000 	andeq	r0, r1, r0
    27b8:	70000300 	andvc	r0, r0, r0, lsl #6
    27bc:	00009f01 	andeq	r9, r0, r1, lsl #30
    27c0:	00000000 	andeq	r0, r0, r0
    27c4:	00b40000 	adcseq	r0, r4, r0
    27c8:	00c00000 	sbceq	r0, r0, r0
    27cc:	00010000 	andeq	r0, r1, r0
    27d0:	0000f853 	andeq	pc, r0, r3, asr r8	; <UNPREDICTABLE>
    27d4:	0000fc00 	andeq	pc, r0, r0, lsl #24
    27d8:	3a000200 	bcc	2fe0 <_back_addr-0x160d020>
    27dc:	0000009f 	muleq	r0, pc, r0	; <UNPREDICTABLE>
    27e0:	00000000 	andeq	r0, r0, r0
    27e4:	00010000 	andeq	r0, r1, r0
    27e8:	00012800 	andeq	r2, r1, r0, lsl #16
    27ec:	50000100 	andpl	r0, r0, r0, lsl #2
    27f0:	00000128 	andeq	r0, r0, r8, lsr #2
    27f4:	00000158 	andeq	r0, r0, r8, asr r1
    27f8:	58550001 	ldmdapl	r5, {r0}^
    27fc:	5c000001 	stcpl	0, cr0, [r0], {1}
    2800:	04000001 	streq	r0, [r0], #-1
    2804:	5001f300 	andpl	pc, r1, r0, lsl #6
    2808:	00015c9f 	muleq	r1, pc, ip	; <UNPREDICTABLE>
    280c:	00016000 	andeq	r6, r1, r0
    2810:	50000100 	andpl	r0, r0, r0, lsl #2
	...
    281c:	00000100 	andeq	r0, r0, r0, lsl #2
    2820:	00000128 	andeq	r0, r0, r8, lsr #2
    2824:	28510001 	ldmdacs	r1, {r0}^
    2828:	58000001 	stmdapl	r0, {r0}
    282c:	01000001 	tsteq	r0, r1
    2830:	01585600 	cmpeq	r8, r0, lsl #12
    2834:	015c0000 	cmpeq	ip, r0
    2838:	00040000 	andeq	r0, r4, r0
    283c:	9f5101f3 	svcls	0x005101f3
    2840:	0000015c 	andeq	r0, r0, ip, asr r1
    2844:	00000160 	andeq	r0, r0, r0, ror #2
    2848:	00510001 	subseq	r0, r1, r1
	...
    2854:	28000001 	stmdacs	r0, {r0}
    2858:	01000001 	tsteq	r0, r1
    285c:	01285200 	teqeq	r8, r0, lsl #4
    2860:	01580000 	cmpeq	r8, r0
    2864:	00010000 	andeq	r0, r1, r0
    2868:	00015857 	andeq	r5, r1, r7, asr r8
    286c:	00015c00 	andeq	r5, r1, r0, lsl #24
    2870:	f3000400 	vshl.u8	d0, d0, d0
    2874:	5c9f5201 	lfmpl	f5, 4, [pc], {1}
    2878:	60000001 	andvs	r0, r0, r1
    287c:	01000001 	tsteq	r0, r1
    2880:	00005200 	andeq	r5, r0, r0, lsl #4
    2884:	00000000 	andeq	r0, r0, r0
    2888:	01000000 	mrseq	r0, (UNDEF: 0)
    288c:	01280000 	teqeq	r8, r0
    2890:	00020000 	andeq	r0, r2, r0
    2894:	01289f30 	teqeq	r8, r0, lsr pc
    2898:	012c0000 	teqeq	ip, r0
    289c:	00070000 	andeq	r0, r7, r0
    28a0:	740bba0a 	strvc	fp, [fp], #-2570	; 0xa0a
    28a4:	2c9f1c00 	ldccs	12, cr1, [pc], {0}
    28a8:	30000001 	andcc	r0, r0, r1
    28ac:	07000001 	streq	r0, [r0, -r1]
    28b0:	0bb90a00 	bleq	fee450b8 <__bss_end__+0xfd8224f8>
    28b4:	9f1c0074 	svcls	0x001c0074
    28b8:	00000130 	andeq	r0, r0, r0, lsr r1
    28bc:	0000014c 	andeq	r0, r0, ip, asr #2
    28c0:	ba0a0007 	blt	2828e4 <_back_addr-0x138d71c>
    28c4:	1c00740b 	cfstrsne	mvf7, [r0], {11}
    28c8:	00014c9f 	muleq	r1, pc, ip	; <UNPREDICTABLE>
    28cc:	00015800 	andeq	r5, r1, r0, lsl #16
    28d0:	0a000700 	beq	44d8 <_back_addr-0x160bb28>
    28d4:	00740bb9 	ldrhteq	r0, [r4], #-185	; 0xffffff47
    28d8:	015c9f1c 	cmpeq	ip, ip, lsl pc
    28dc:	01600000 	cmneq	r0, r0
    28e0:	00020000 	andeq	r0, r2, r0
    28e4:	00009f30 	andeq	r9, r0, r0, lsr pc
    28e8:	00000000 	andeq	r0, r0, r0
    28ec:	01600000 	cmneq	r0, r0
    28f0:	016c0000 	cmneq	ip, r0
    28f4:	00010000 	andeq	r0, r1, r0
    28f8:	00016c51 	andeq	r6, r1, r1, asr ip
    28fc:	0001b000 	andeq	fp, r1, r0
    2900:	51000100 	mrspl	r0, (UNDEF: 16)
	...
    290c:	0000017c 	andeq	r0, r0, ip, ror r1
    2910:	0000018c 	andeq	r0, r0, ip, lsl #3
    2914:	8c530001 	mrrchi	0, 0, r0, r3, cr1
    2918:	b0000001 	andlt	r0, r0, r1
    291c:	01000001 	tsteq	r0, r1
    2920:	00005c00 	andeq	r5, r0, r0, lsl #24
    2924:	00000000 	andeq	r0, r0, r0
    2928:	01b00000 	movseq	r0, r0
    292c:	01b70000 			; <UNDEFINED> instruction: 0x01b70000
    2930:	00010000 	andeq	r0, r1, r0
    2934:	0001b750 	andeq	fp, r1, r0, asr r7
    2938:	0001b800 	andeq	fp, r1, r0, lsl #16
    293c:	f3000400 	vshl.u8	d0, d0, d0
    2940:	009f5001 	addseq	r5, pc, r1
    2944:	00000000 	andeq	r0, r0, r0
    2948:	e0000000 	and	r0, r0, r0
    294c:	eb000001 	bl	2958 <_back_addr-0x160d6a8>
    2950:	01000001 	tsteq	r0, r1
    2954:	01eb5000 	mvneq	r5, r0
    2958:	01ec0000 	mvneq	r0, r0
    295c:	00040000 	andeq	r0, r4, r0
    2960:	9f5001f3 	svcls	0x005001f3
	...
    296c:	000001ec 	andeq	r0, r0, ip, ror #3
    2970:	00000220 	andeq	r0, r0, r0, lsr #4
    2974:	20500001 	subscs	r0, r0, r1
    2978:	30000002 	andcc	r0, r0, r2
    297c:	01000002 	tsteq	r0, r2
    2980:	02385000 	eorseq	r5, r8, #0
    2984:	023c0000 	eorseq	r0, ip, #0
    2988:	00010000 	andeq	r0, r1, r0
    298c:	00023c50 	andeq	r3, r2, r0, asr ip
    2990:	00024000 	andeq	r4, r2, r0
    2994:	f3000400 	vshl.u8	d0, d0, d0
    2998:	009f5001 	addseq	r5, pc, r1
    299c:	00000000 	andeq	r0, r0, r0
    29a0:	1c000000 	stcne	0, cr0, [r0], {-0}
    29a4:	38000002 	stmdacc	r0, {r1}
    29a8:	01000002 	tsteq	r0, r2
    29ac:	00005100 	andeq	r5, r0, r0, lsl #2
    29b0:	00000000 	andeq	r0, r0, r0
    29b4:	02400000 	subeq	r0, r0, #0
    29b8:	025c0000 	subseq	r0, ip, #0
    29bc:	00010000 	andeq	r0, r1, r0
    29c0:	00025c50 	andeq	r5, r2, r0, asr ip
    29c4:	00026c00 	andeq	r6, r2, r0, lsl #24
    29c8:	f3000400 	vshl.u8	d0, d0, d0
    29cc:	6c9f5001 	ldcvs	0, cr5, [pc], {1}
    29d0:	70000002 	andvc	r0, r0, r2
    29d4:	01000002 	tsteq	r0, r2
    29d8:	02705000 	rsbseq	r5, r0, #0
    29dc:	02740000 	rsbseq	r0, r4, #0
    29e0:	00040000 	andeq	r0, r4, r0
    29e4:	9f5001f3 	svcls	0x005001f3
	...
    29f0:	00000274 	andeq	r0, r0, r4, ror r2
    29f4:	0000029c 	muleq	r0, ip, r2
    29f8:	9c500001 	mrrcls	0, 0, r0, r0, cr1	; <UNPREDICTABLE>
    29fc:	14000002 	strne	r0, [r0], #-2
    2a00:	04000003 	streq	r0, [r0], #-3
    2a04:	5001f300 	andpl	pc, r1, r0, lsl #6
    2a08:	0003149f 	muleq	r3, pc, r4	; <UNPREDICTABLE>
    2a0c:	00031800 	andeq	r1, r3, r0, lsl #16
    2a10:	50000100 	andpl	r0, r0, r0, lsl #2
    2a14:	00000318 	andeq	r0, r0, r8, lsl r3
    2a18:	00000324 	andeq	r0, r0, r4, lsr #6
    2a1c:	01f30004 	mvnseq	r0, r4
    2a20:	00009f50 	andeq	r9, r0, r0, asr pc
    2a24:	00000000 	andeq	r0, r0, r0
    2a28:	02740000 	rsbseq	r0, r4, #0
    2a2c:	02a70000 	adceq	r0, r7, #0
    2a30:	00010000 	andeq	r0, r1, r0
    2a34:	0002a751 	andeq	sl, r2, r1, asr r7
    2a38:	0002c000 	andeq	ip, r2, r0
    2a3c:	55000100 	strpl	r0, [r0, #-256]	; 0x100
    2a40:	000002c0 	andeq	r0, r0, r0, asr #5
    2a44:	000002c3 	andeq	r0, r0, r3, asr #5
    2a48:	c3500001 	cmpgt	r0, #1
    2a4c:	d0000002 	andle	r0, r0, r2
    2a50:	03000002 	movweq	r0, #2
    2a54:	9f017500 	svcls	0x00017500
    2a58:	000002d0 	ldrdeq	r0, [r0], -r0	; <UNPREDICTABLE>
    2a5c:	00000314 	andeq	r0, r0, r4, lsl r3
    2a60:	01f30004 	mvnseq	r0, r4
    2a64:	03149f51 	tsteq	r4, #324	; 0x144
    2a68:	03230000 	teqeq	r3, #0
    2a6c:	00010000 	andeq	r0, r1, r0
    2a70:	00032351 	andeq	r2, r3, r1, asr r3
    2a74:	00032400 	andeq	r2, r3, r0, lsl #8
    2a78:	f3000400 	vshl.u8	d0, d0, d0
    2a7c:	009f5101 	addseq	r5, pc, r1, lsl #2
    2a80:	00000000 	andeq	r0, r0, r0
    2a84:	74000000 	strvc	r0, [r0], #-0
    2a88:	a7000002 	strge	r0, [r0, -r2]
    2a8c:	01000002 	tsteq	r0, r2
    2a90:	02a75200 	adceq	r5, r7, #0, 4
    2a94:	03100000 	tsteq	r0, #0
    2a98:	00010000 	andeq	r0, r1, r0
    2a9c:	00031056 	andeq	r1, r3, r6, asr r0
    2aa0:	00031400 	andeq	r1, r3, r0, lsl #8
    2aa4:	f3000400 	vshl.u8	d0, d0, d0
    2aa8:	149f5201 	ldrne	r5, [pc], #513	; 2ab0 <_back_addr-0x160d550>
    2aac:	23000003 	movwcs	r0, #3
    2ab0:	01000003 	tsteq	r0, r3
    2ab4:	03235200 	teqeq	r3, #0, 4
    2ab8:	03240000 	teqeq	r4, #0
    2abc:	00040000 	andeq	r0, r4, r0
    2ac0:	9f5201f3 	svcls	0x005201f3
	...
    2acc:	000002d0 	ldrdeq	r0, [r0], -r0	; <UNPREDICTABLE>
    2ad0:	000002f8 	strdeq	r0, [r0], -r8
    2ad4:	f8540001 			; <UNDEFINED> instruction: 0xf8540001
    2ad8:	fc000002 	stc2	0, cr0, [r0], {2}
    2adc:	03000002 	movweq	r0, #2
    2ae0:	9f7f7400 	svcls	0x007f7400
    2ae4:	000002fc 	strdeq	r0, [r0], -ip
    2ae8:	00000310 	andeq	r0, r0, r0, lsl r3
    2aec:	00540001 	subseq	r0, r4, r1
    2af0:	00000000 	andeq	r0, r0, r0
    2af4:	b4000000 	strlt	r0, [r0], #-0
    2af8:	c0000002 	andgt	r0, r0, r2
    2afc:	01000002 	tsteq	r0, r2
    2b00:	02c05500 	sbceq	r5, r0, #0, 10
    2b04:	02c30000 	sbceq	r0, r3, #0
    2b08:	00010000 	andeq	r0, r1, r0
    2b0c:	0002c350 	andeq	ip, r2, r0, asr r3
    2b10:	0002d000 	andeq	sp, r2, r0
    2b14:	75000300 	strvc	r0, [r0, #-768]	; 0x300
    2b18:	02d09f01 	sbcseq	r9, r0, #1, 30
    2b1c:	03140000 	tsteq	r4, #0
    2b20:	00040000 	andeq	r0, r4, r0
    2b24:	9f5101f3 	svcls	0x005101f3
	...
    2b30:	00000324 	andeq	r0, r0, r4, lsr #6
    2b34:	0000032c 	andeq	r0, r0, ip, lsr #6
    2b38:	2c510001 	mrrccs	0, 0, r0, r1, cr1
    2b3c:	48000003 	stmdami	r0, {r0, r1}
    2b40:	04000003 	streq	r0, [r0], #-3
    2b44:	5101f300 	mrspl	pc, SP_irq	; <UNPREDICTABLE>
    2b48:	0000009f 	muleq	r0, pc, r0	; <UNPREDICTABLE>
    2b4c:	00000000 	andeq	r0, r0, r0
    2b50:	00032400 	andeq	r2, r3, r0, lsl #8
    2b54:	00033400 	andeq	r3, r3, r0, lsl #8
    2b58:	52000100 	andpl	r0, r0, #0, 2
    2b5c:	00000334 	andeq	r0, r0, r4, lsr r3
    2b60:	00000348 	andeq	r0, r0, r8, asr #6
    2b64:	01f30004 	mvnseq	r0, r4
    2b68:	00009f52 	andeq	r9, r0, r2, asr pc
    2b6c:	00000000 	andeq	r0, r0, r0
    2b70:	032c0000 	teqeq	ip, #0
    2b74:	03340000 	teqeq	r4, #0
    2b78:	00010000 	andeq	r0, r1, r0
    2b7c:	00033452 	andeq	r3, r3, r2, asr r4
    2b80:	00034800 	andeq	r4, r3, r0, lsl #16
    2b84:	f3000400 	vshl.u8	d0, d0, d0
    2b88:	009f5201 	addseq	r5, pc, r1, lsl #4
    2b8c:	00000000 	andeq	r0, r0, r0
    2b90:	2c000000 	stccs	0, cr0, [r0], {-0}
    2b94:	38000003 	stmdacc	r0, {r0, r1}
    2b98:	02000003 	andeq	r0, r0, #3
    2b9c:	009f3000 	addseq	r3, pc, r0
    2ba0:	00000000 	andeq	r0, r0, r0
    2ba4:	48000000 	stmdami	r0, {}	; <UNPREDICTABLE>
    2ba8:	54000003 	strpl	r0, [r0], #-3
    2bac:	01000003 	tsteq	r0, r3
    2bb0:	03545000 	cmpeq	r4, #0
    2bb4:	03640000 	cmneq	r4, #0
    2bb8:	00040000 	andeq	r0, r4, r0
    2bbc:	9f5001f3 	svcls	0x005001f3
	...
    2bc8:	00000348 	andeq	r0, r0, r8, asr #6
    2bcc:	00000354 	andeq	r0, r0, r4, asr r3
    2bd0:	54520001 	ldrbpl	r0, [r2], #-1
    2bd4:	64000003 	strvs	r0, [r0], #-3
    2bd8:	04000003 	streq	r0, [r0], #-3
    2bdc:	5201f300 	andpl	pc, r1, #0, 6
    2be0:	0000009f 	muleq	r0, pc, r0	; <UNPREDICTABLE>
    2be4:	00000000 	andeq	r0, r0, r0
    2be8:	00034800 	andeq	r4, r3, r0, lsl #16
    2bec:	00035400 	andeq	r5, r3, r0, lsl #8
    2bf0:	30000200 	andcc	r0, r0, r0, lsl #4
    2bf4:	0003549f 	muleq	r3, pc, r4	; <UNPREDICTABLE>
    2bf8:	00035800 	andeq	r5, r3, r0, lsl #16
    2bfc:	70000700 	andvc	r0, r0, r0, lsl #14
    2c00:	5001f300 	andpl	pc, r1, r0, lsl #6
    2c04:	03589f1c 	cmpeq	r8, #28, 30	; 0x70
    2c08:	03640000 	cmneq	r4, #0
    2c0c:	00090000 	andeq	r0, r9, r0
    2c10:	01f30070 	mvnseq	r0, r0, ror r0
    2c14:	01231c50 	teqeq	r3, r0, asr ip
    2c18:	0000009f 	muleq	r0, pc, r0	; <UNPREDICTABLE>
    2c1c:	00000000 	andeq	r0, r0, r0
    2c20:	00040000 	andeq	r0, r4, r0
    2c24:	00044400 	andeq	r4, r4, r0, lsl #8
    2c28:	50000100 	andpl	r0, r0, r0, lsl #2
    2c2c:	00000444 	andeq	r0, r0, r4, asr #8
    2c30:	00000448 	andeq	r0, r0, r8, asr #8
    2c34:	01f30004 	mvnseq	r0, r4
    2c38:	04489f50 	strbeq	r9, [r8], #-3920	; 0xf50
    2c3c:	044c0000 	strbeq	r0, [ip], #-0
    2c40:	00010000 	andeq	r0, r1, r0
    2c44:	00044c50 	andeq	r4, r4, r0, asr ip
    2c48:	00045000 	andeq	r5, r4, r0
    2c4c:	f3000400 	vshl.u8	d0, d0, d0
    2c50:	509f5001 	addspl	r5, pc, r1
    2c54:	54000004 	strpl	r0, [r0], #-4
    2c58:	01000004 	tsteq	r0, r4
    2c5c:	04545000 	ldrbeq	r5, [r4], #-0
    2c60:	04580000 	ldrbeq	r0, [r8], #-0
    2c64:	00040000 	andeq	r0, r4, r0
    2c68:	9f5001f3 	svcls	0x005001f3
	...
    2c74:	00000400 	andeq	r0, r0, r0, lsl #8
    2c78:	00000428 	andeq	r0, r0, r8, lsr #8
    2c7c:	28510001 	ldmdacs	r1, {r0}^
    2c80:	50000004 	andpl	r0, r0, r4
    2c84:	04000004 	streq	r0, [r0], #-4
    2c88:	5101f300 	mrspl	pc, SP_irq	; <UNPREDICTABLE>
    2c8c:	0004509f 	muleq	r4, pc, r0	; <UNPREDICTABLE>
    2c90:	00045800 	andeq	r5, r4, r0, lsl #16
    2c94:	51000100 	mrspl	r0, (UNDEF: 16)
	...
    2ca0:	00000400 	andeq	r0, r0, r0, lsl #8
    2ca4:	0000041c 	andeq	r0, r0, ip, lsl r4
    2ca8:	1c520001 	mrrcne	0, 0, r0, r2, cr1
    2cac:	50000004 	andpl	r0, r0, r4
    2cb0:	04000004 	streq	r0, [r0], #-4
    2cb4:	5201f300 	andpl	pc, r1, #0, 6
    2cb8:	0004509f 	muleq	r4, pc, r0	; <UNPREDICTABLE>
    2cbc:	00045800 	andeq	r5, r4, r0, lsl #16
    2cc0:	52000100 	andpl	r0, r0, #0, 2
	...
    2ccc:	00000404 	andeq	r0, r0, r4, lsl #8
    2cd0:	00000428 	andeq	r0, r0, r8, lsr #8
    2cd4:	9f300002 	svcls	0x00300002
    2cd8:	00000428 	andeq	r0, r0, r8, lsr #8
    2cdc:	0000042c 	andeq	r0, r0, ip, lsr #8
    2ce0:	00730006 	rsbseq	r0, r3, r6
    2ce4:	9f1c0070 	svcls	0x001c0070
    2ce8:	0000042c 	andeq	r0, r0, ip, lsr #8
    2cec:	00000438 	andeq	r0, r0, r8, lsr r4
    2cf0:	00700007 	rsbseq	r0, r0, r7
    2cf4:	22007320 	andcs	r7, r0, #32, 6	; 0x80000000
    2cf8:	0004389f 	muleq	r4, pc, r8	; <UNPREDICTABLE>
    2cfc:	00044400 	andeq	r4, r4, r0, lsl #8
    2d00:	73000600 	movwvc	r0, #1536	; 0x600
    2d04:	1c007000 	stcne	0, cr7, [r0], {-0}
    2d08:	0004449f 	muleq	r4, pc, r4	; <UNPREDICTABLE>
    2d0c:	00044800 	andeq	r4, r4, r0, lsl #16
    2d10:	73000700 	movwvc	r0, #1792	; 0x700
    2d14:	5001f300 	andpl	pc, r1, r0, lsl #6
    2d18:	04509f1c 	ldrbeq	r9, [r0], #-3868	; 0xf1c
    2d1c:	04580000 	ldrbeq	r0, [r8], #-0
    2d20:	00020000 	andeq	r0, r2, r0
    2d24:	00009f30 	andeq	r9, r0, r0, lsr pc
    2d28:	00000000 	andeq	r0, r0, r0
    2d2c:	04040000 	streq	r0, [r4], #-0
    2d30:	04280000 	strteq	r0, [r8], #-0
    2d34:	00010000 	andeq	r0, r1, r0
    2d38:	00042851 	andeq	r2, r4, r1, asr r8
    2d3c:	00045000 	andeq	r5, r4, r0
    2d40:	f3000400 	vshl.u8	d0, d0, d0
    2d44:	509f5101 	addspl	r5, pc, r1, lsl #2
    2d48:	58000004 	stmdapl	r0, {r2}
    2d4c:	01000004 	tsteq	r0, r4
    2d50:	00005100 	andeq	r5, r0, r0, lsl #2
    2d54:	00000000 	andeq	r0, r0, r0
    2d58:	04580000 	ldrbeq	r0, [r8], #-0
    2d5c:	04740000 	ldrbteq	r0, [r4], #-0
    2d60:	00010000 	andeq	r0, r1, r0
    2d64:	00047450 	andeq	r7, r4, r0, asr r4
    2d68:	00049c00 	andeq	r9, r4, r0, lsl #24
    2d6c:	f3000400 	vshl.u8	d0, d0, d0
    2d70:	009f5001 	addseq	r5, pc, r1
    2d74:	00000000 	andeq	r0, r0, r0
    2d78:	58000000 	stmdapl	r0, {}	; <UNPREDICTABLE>
    2d7c:	74000004 	strvc	r0, [r0], #-4
    2d80:	01000004 	tsteq	r0, r4
    2d84:	04745100 	ldrbteq	r5, [r4], #-256	; 0x100
    2d88:	049c0000 	ldreq	r0, [ip], #0
    2d8c:	00040000 	andeq	r0, r4, r0
    2d90:	9f5101f3 	svcls	0x005101f3
	...
    2d9c:	00000458 	andeq	r0, r0, r8, asr r4
    2da0:	00000474 	andeq	r0, r0, r4, ror r4
    2da4:	9f300002 	svcls	0x00300002
    2da8:	00000474 	andeq	r0, r0, r4, ror r4
    2dac:	00000480 	andeq	r0, r0, r0, lsl #9
    2db0:	00700007 	rsbseq	r0, r0, r7
    2db4:	1c5001f3 	ldfnee	f0, [r0], {243}	; 0xf3
    2db8:	0004809f 	muleq	r4, pc, r0	; <UNPREDICTABLE>
    2dbc:	00048400 	andeq	r8, r4, r0, lsl #8
    2dc0:	70000900 	andvc	r0, r0, r0, lsl #18
    2dc4:	5001f300 	andpl	pc, r1, r0, lsl #6
    2dc8:	9f01231c 	svcls	0x0001231c
    2dcc:	00000484 	andeq	r0, r0, r4, lsl #9
    2dd0:	0000048c 	andeq	r0, r0, ip, lsl #9
    2dd4:	00700007 	rsbseq	r0, r0, r7
    2dd8:	1c5001f3 	ldfnee	f0, [r0], {243}	; 0xf3
    2ddc:	0000009f 	muleq	r0, pc, r0	; <UNPREDICTABLE>
	...
    2de8:	00003400 	andeq	r3, r0, r0, lsl #8
    2dec:	50000100 	andpl	r0, r0, r0, lsl #2
    2df0:	00000034 	andeq	r0, r0, r4, lsr r0
    2df4:	000001a8 	andeq	r0, r0, r8, lsr #3
    2df8:	007d0002 	rsbseq	r0, sp, r2
    2dfc:	000001a8 	andeq	r0, r0, r8, lsr #3
    2e00:	000001b4 			; <UNDEFINED> instruction: 0x000001b4
    2e04:	b4530001 	ldrblt	r0, [r3], #-1
    2e08:	bc000001 	stclt	0, cr0, [r0], {1}
    2e0c:	02000001 	andeq	r0, r0, #1
    2e10:	bc007d00 	stclt	13, cr7, [r0], {-0}
    2e14:	c0000001 	andgt	r0, r0, r1
    2e18:	03000001 	movweq	r0, #1
    2e1c:	7f809100 	svcvc	0x00809100
    2e20:	000001c0 	andeq	r0, r0, r0, asr #3
    2e24:	000001d0 	ldrdeq	r0, [r0], -r0	; <UNPREDICTABLE>
    2e28:	007d0002 	rsbseq	r0, sp, r2
    2e2c:	000001d0 	ldrdeq	r0, [r0], -r0	; <UNPREDICTABLE>
    2e30:	000001dc 	ldrdeq	r0, [r0], -ip
    2e34:	00530001 	subseq	r0, r3, r1
	...
    2e40:	34000000 	strcc	r0, [r0], #-0
    2e44:	01000000 	mrseq	r0, (UNDEF: 0)
    2e48:	00345100 	eorseq	r5, r4, r0, lsl #2
    2e4c:	00880000 	addeq	r0, r8, r0
    2e50:	00030000 	andeq	r0, r3, r0
    2e54:	887f8491 	ldmdahi	pc!, {r0, r4, r7, sl, pc}^	; <UNPREDICTABLE>
    2e58:	68000000 	stmdavs	r0, {}	; <UNPREDICTABLE>
    2e5c:	01000001 	tsteq	r0, r1
    2e60:	01ac5600 			; <UNDEFINED> instruction: 0x01ac5600
    2e64:	01c00000 	biceq	r0, r0, r0
    2e68:	00030000 	andeq	r0, r3, r0
    2e6c:	007f8491 			; <UNDEFINED> instruction: 0x007f8491
	...
    2e78:	1c000000 	stcne	0, cr0, [r0], {-0}
    2e7c:	01000000 	mrseq	r0, (UNDEF: 0)
    2e80:	001c5200 	andseq	r5, ip, r0, lsl #4
    2e84:	01dc0000 	bicseq	r0, ip, r0
    2e88:	00040000 	andeq	r0, r4, r0
    2e8c:	9f5201f3 	svcls	0x005201f3
	...
    2e9c:	00000040 	andeq	r0, r0, r0, asr #32
    2ea0:	40530001 	subsmi	r0, r3, r1
    2ea4:	dc000000 	stcle	0, cr0, [r0], {-0}
    2ea8:	01000001 	tsteq	r0, r1
    2eac:	00005b00 	andeq	r5, r0, r0, lsl #22
	...
    2eb8:	00340000 	eorseq	r0, r4, r0
    2ebc:	00020000 	andeq	r0, r2, r0
    2ec0:	00340091 	mlaseq	r4, r1, r0, r0
    2ec4:	00880000 	addeq	r0, r8, r0
    2ec8:	00010000 	andeq	r0, r1, r0
    2ecc:	0001a85a 	andeq	sl, r1, sl, asr r8
    2ed0:	0001c000 	andeq	ip, r1, r0
    2ed4:	5a000100 	bpl	32dc <_back_addr-0x160cd24>
    2ed8:	000001d0 	ldrdeq	r0, [r0], -r0	; <UNPREDICTABLE>
    2edc:	000001dc 	ldrdeq	r0, [r0], -ip
    2ee0:	005a0001 	subseq	r0, sl, r1
	...
    2eec:	28000000 	stmdacs	r0, {}	; <UNPREDICTABLE>
    2ef0:	02000000 	andeq	r0, r0, #0
    2ef4:	28089100 	stmdacs	r8, {r8, ip, pc}
    2ef8:	30000000 	andcc	r0, r0, r0
    2efc:	01000000 	mrseq	r0, (UNDEF: 0)
    2f00:	00305700 	eorseq	r5, r0, r0, lsl #14
    2f04:	00340000 	eorseq	r0, r4, r0
    2f08:	00470000 	subeq	r0, r7, r0
    2f0c:	00914008 	addseq	r4, r1, r8
    2f10:	40007206 	andmi	r7, r0, r6, lsl #4
    2f14:	0c22244b 	cfstrseq	mvf2, [r2], #-300	; 0xfffffed4
    2f18:	80000040 	andhi	r0, r0, r0, asr #32
    2f1c:	0001282b 	andeq	r2, r1, fp, lsr #16
    2f20:	25f71316 	ldrbcs	r1, [r7, #790]!	; 0x316
    2f24:	25f70073 	ldrbcs	r0, [r7, #115]!	; 0x73
    2f28:	0800f71b 	stmdaeq	r0, {r0, r1, r3, r4, r8, r9, sl, ip, sp, lr, pc}
    2f2c:	06009140 	streq	r9, [r0], -r0, asr #2
    2f30:	4b400072 	blmi	1003100 <_back_addr-0x60cf00>
    2f34:	400c2224 	andmi	r2, ip, r4, lsr #4
    2f38:	2b800000 	blcs	fe002f40 <__bss_end__+0xfc9e0380>
    2f3c:	16000128 	strne	r0, [r0], -r8, lsr #2
    2f40:	40007213 	andmi	r7, r0, r3, lsl r2
    2f44:	0c22244b 	cfstrseq	mvf2, [r2], #-300	; 0xfffffed4
    2f48:	80000040 	andhi	r0, r0, r0, asr #32
    2f4c:	0001282b 	andeq	r2, r1, fp, lsr #16
    2f50:	349f1316 	ldrcc	r1, [pc], #790	; 2f58 <_back_addr-0x160d0a8>
    2f54:	dc000000 	stcle	0, cr0, [r0], {-0}
    2f58:	01000001 	tsteq	r0, r1
    2f5c:	00005700 	andeq	r5, r0, r0, lsl #14
    2f60:	00000000 	andeq	r0, r0, r0
    2f64:	00580000 	subseq	r0, r8, r0
    2f68:	00880000 	addeq	r0, r8, r0
    2f6c:	00020000 	andeq	r0, r2, r0
    2f70:	00889f30 	addeq	r9, r8, r0, lsr pc
    2f74:	008c0000 	addeq	r0, ip, r0
    2f78:	00010000 	andeq	r0, r1, r0
    2f7c:	00008c55 	andeq	r8, r0, r5, asr ip
    2f80:	00009800 	andeq	r9, r0, r0, lsl #16
    2f84:	75000300 	strvc	r0, [r0, #-768]	; 0x300
    2f88:	00989f7f 	addseq	r9, r8, pc, ror pc
    2f8c:	00ec0000 	rsceq	r0, ip, r0
    2f90:	00010000 	andeq	r0, r1, r0
    2f94:	0000ec55 	andeq	lr, r0, r5, asr ip
    2f98:	0000f800 	andeq	pc, r0, r0, lsl #16
    2f9c:	75000300 	strvc	r0, [r0, #-768]	; 0x300
    2fa0:	00f89f7f 	rscseq	r9, r8, pc, ror pc
    2fa4:	01180000 	tsteq	r8, r0
    2fa8:	00010000 	andeq	r0, r1, r0
    2fac:	00011855 	andeq	r1, r1, r5, asr r8
    2fb0:	00013800 	andeq	r3, r1, r0, lsl #16
    2fb4:	30000200 	andcc	r0, r0, r0, lsl #4
    2fb8:	0001389f 	muleq	r1, pc, r8	; <UNPREDICTABLE>
    2fbc:	00016800 	andeq	r6, r1, r0, lsl #16
    2fc0:	72000800 	andvc	r0, r0, #0, 16
    2fc4:	1c7c9100 	ldfnep	f1, [ip], #-0
    2fc8:	009f7123 	addseq	r7, pc, r3, lsr #2
    2fcc:	00000000 	andeq	r0, r0, r0
    2fd0:	88000000 	stmdahi	r0, {}	; <UNPREDICTABLE>
    2fd4:	8f000000 	svchi	0x00000000
    2fd8:	01000000 	mrseq	r0, (UNDEF: 0)
    2fdc:	00cc5200 	sbceq	r5, ip, r0, lsl #4
    2fe0:	00ef0000 	rsceq	r0, pc, r0
    2fe4:	00010000 	andeq	r0, r1, r0
    2fe8:	00000052 	andeq	r0, r0, r2, asr r0
    2fec:	00000000 	andeq	r0, r0, r0
    2ff0:	00020400 	andeq	r0, r2, r0, lsl #8
    2ff4:	00020c00 	andeq	r0, r2, r0, lsl #24
    2ff8:	50000100 	andpl	r0, r0, r0, lsl #2
    2ffc:	0000020c 	andeq	r0, r0, ip, lsl #4
    3000:	00000217 	andeq	r0, r0, r7, lsl r2
    3004:	4c510001 	mrrcmi	0, 0, r0, r1, cr1
    3008:	54000002 	strpl	r0, [r0], #-2
    300c:	01000002 	tsteq	r0, r2
    3010:	02545000 	subseq	r5, r4, #0
    3014:	025f0000 	subseq	r0, pc, #0
    3018:	00010000 	andeq	r0, r1, r0
    301c:	00000051 	andeq	r0, r0, r1, asr r0
    3020:	00000000 	andeq	r0, r0, r0
    3024:	00021800 	andeq	r1, r2, r0, lsl #16
    3028:	00021c00 	andeq	r1, r2, r0, lsl #24
    302c:	74000900 	strvc	r0, [r0], #-2304	; 0x900
    3030:	2a530300 	bcs	14c3c38 <_back_addr-0x14c3c8>
    3034:	9f1c0162 	svcls	0x001c0162
    3038:	0000021c 	andeq	r0, r0, ip, lsl r2
    303c:	0000022c 	andeq	r0, r0, ip, lsr #4
    3040:	00740009 	rsbseq	r0, r4, r9
    3044:	622a5403 	eorvs	r5, sl, #50331648	; 0x3000000
    3048:	2c9f1c01 	ldccs	12, cr1, [pc], {1}
    304c:	48000002 	stmdami	r0, {r1}
    3050:	09000002 	stmdbeq	r0, {r1}
    3054:	03007400 	movweq	r7, #1024	; 0x400
    3058:	01622a53 	cmneq	r2, r3, asr sl
    305c:	02609f1c 	rsbeq	r9, r0, #28, 30	; 0x70
    3060:	02640000 	rsbeq	r0, r4, #0
    3064:	00090000 	andeq	r0, r9, r0
    3068:	43030075 	movwmi	r0, #12405	; 0x3075
    306c:	1c01622a 	sfmne	f6, 4, [r1], {42}	; 0x2a
    3070:	0002649f 	muleq	r2, pc, r4	; <UNPREDICTABLE>
    3074:	00027400 	andeq	r7, r2, r0, lsl #8
    3078:	75000900 	strvc	r0, [r0, #-2304]	; 0x900
    307c:	2a440300 	bcs	1103c84 <_back_addr-0x50c37c>
    3080:	9f1c0162 	svcls	0x001c0162
    3084:	00000274 	andeq	r0, r0, r4, ror r2
    3088:	0000028c 	andeq	r0, r0, ip, lsl #5
    308c:	00750009 	rsbseq	r0, r5, r9
    3090:	622a4303 	eorvs	r4, sl, #201326592	; 0xc000000
    3094:	009f1c01 	addseq	r1, pc, r1, lsl #24
    3098:	00000000 	andeq	r0, r0, r0
    309c:	8c000000 	stchi	0, cr0, [r0], {-0}
    30a0:	94000002 	strls	r0, [r0], #-2
    30a4:	01000002 	tsteq	r0, r2
    30a8:	02945000 	addseq	r5, r4, #0
    30ac:	02bc0000 	adcseq	r0, ip, #0
    30b0:	00040000 	andeq	r0, r4, r0
    30b4:	9f5001f3 	svcls	0x005001f3
	...
    30c0:	0000028c 	andeq	r0, r0, ip, lsl #5
    30c4:	00000294 	muleq	r0, r4, r2
    30c8:	9f300002 	svcls	0x00300002
    30cc:	00000294 	muleq	r0, r4, r2
    30d0:	0000029c 	muleq	r0, ip, r2
    30d4:	9c500001 	mrrcls	0, 0, r0, r0, cr1	; <UNPREDICTABLE>
    30d8:	bc000002 	stclt	0, cr0, [r0], {2}
    30dc:	06000002 	streq	r0, [r0], -r2
    30e0:	5001f300 	andpl	pc, r1, r0, lsl #6
    30e4:	009f2533 	addseq	r2, pc, r3, lsr r5	; <UNPREDICTABLE>
    30e8:	00000000 	andeq	r0, r0, r0
    30ec:	8c000000 	stchi	0, cr0, [r0], {-0}
    30f0:	90000002 	andls	r0, r0, r2
    30f4:	05000002 	streq	r0, [r0, #-2]
    30f8:	37007000 	strcc	r7, [r0, -r0]
    30fc:	02909f1a 	addseq	r9, r0, #26, 30	; 0x68
    3100:	02bc0000 	adcseq	r0, ip, #0
    3104:	00010000 	andeq	r0, r1, r0
    3108:	00000052 	andeq	r0, r0, r2, asr r0
    310c:	00000000 	andeq	r0, r0, r0
    3110:	00028c00 	andeq	r8, r2, r0, lsl #24
    3114:	00029400 	andeq	r9, r2, r0, lsl #8
    3118:	30000200 	andcc	r0, r0, r0, lsl #4
    311c:	0002949f 	muleq	r2, pc, r4	; <UNPREDICTABLE>
    3120:	00029800 	andeq	r9, r2, r0, lsl #16
    3124:	70000600 	andvc	r0, r0, r0, lsl #12
    3128:	1afc0900 	bne	fff05530 <__bss_end__+0xfe8e2970>
    312c:	0002989f 	muleq	r2, pc, r8	; <UNPREDICTABLE>
    3130:	0002a000 	andeq	sl, r2, r0
    3134:	53000100 	movwpl	r0, #256	; 0x100
    3138:	000002a0 	andeq	r0, r0, r0, lsr #5
    313c:	000002a4 	andeq	r0, r0, r4, lsr #5
    3140:	80730007 	rsbshi	r0, r3, r7
    3144:	06c08080 	strbeq	r8, [r0], r0, lsl #1
    3148:	0002a49f 	muleq	r2, pc, r4	; <UNPREDICTABLE>
    314c:	0002ac00 	andeq	sl, r2, r0, lsl #24
    3150:	73000700 	movwvc	r0, #1792	; 0x700
    3154:	bffaa080 	svclt	0x00faa080
    3158:	02ac9f06 	adceq	r9, ip, #6, 30
    315c:	02bc0000 	adcseq	r0, ip, #0
    3160:	00090000 	andeq	r0, r9, r0
    3164:	335001f3 	cmpcc	r0, #-1073741764	; 0xc000003c
    3168:	1afc0925 	bne	fff05604 <__bss_end__+0xfe8e2a44>
    316c:	0000009f 	muleq	r0, pc, r0	; <UNPREDICTABLE>
    3170:	00000000 	andeq	r0, r0, r0
    3174:	00028c00 	andeq	r8, r2, r0, lsl #24
    3178:	00029400 	andeq	r9, r2, r0, lsl #8
    317c:	30000200 	andcc	r0, r0, r0, lsl #4
    3180:	0002949f 	muleq	r2, pc, r4	; <UNPREDICTABLE>
    3184:	00029c00 	andeq	r9, r2, r0, lsl #24
    3188:	70000500 	andvc	r0, r0, r0, lsl #10
    318c:	9f1a3300 	svcls	0x001a3300
    3190:	0000029c 	muleq	r0, ip, r2
    3194:	000002a8 	andeq	r0, r0, r8, lsr #5
    3198:	a8500001 	ldmdage	r0, {r0}^
    319c:	bc000002 	stclt	0, cr0, [r0], {2}
    31a0:	08000002 	stmdaeq	r0, {r1}
    31a4:	5001f300 	andpl	pc, r1, r0, lsl #6
    31a8:	1a332533 	bne	ccc67c <_back_addr-0x943984>
    31ac:	0000009f 	muleq	r0, pc, r0	; <UNPREDICTABLE>
    31b0:	00000000 	andeq	r0, r0, r0
    31b4:	00028c00 	andeq	r8, r2, r0, lsl #24
    31b8:	0002ac00 	andeq	sl, r2, r0, lsl #24
    31bc:	30000200 	andcc	r0, r0, r0, lsl #4
    31c0:	0000009f 	muleq	r0, pc, r0	; <UNPREDICTABLE>
    31c4:	00000000 	andeq	r0, r0, r0
    31c8:	00029400 	andeq	r9, r2, r0, lsl #8
    31cc:	00029c00 	andeq	r9, r2, r0, lsl #24
    31d0:	70000c00 	andvc	r0, r0, r0, lsl #24
    31d4:	1afc0900 	bne	fff055dc <__bss_end__+0xfe8e2a1c>
    31d8:	fe90000c 	cdp2	0, 9, cr0, cr0, cr12, {0}
    31dc:	9c9f1c67 	ldcls	12, cr1, [pc], {103}	; 0x67
    31e0:	bc000002 	stclt	0, cr0, [r0], {2}
    31e4:	0f000002 	svceq	0x00000002
    31e8:	5001f300 	andpl	pc, r1, r0, lsl #6
    31ec:	fc092533 	stc2	5, cr2, [r9], {51}	; 0x33
    31f0:	90000c1a 	andls	r0, r0, sl, lsl ip
    31f4:	9f1c67fe 	svcls	0x001c67fe
	...
    3200:	000002bc 			; <UNDEFINED> instruction: 0x000002bc
    3204:	000002d8 	ldrdeq	r0, [r0], -r8
    3208:	9f300002 	svcls	0x00300002
    320c:	000002d8 	ldrdeq	r0, [r0], -r8
    3210:	000002e0 	andeq	r0, r0, r0, ror #5
    3214:	00500001 	subseq	r0, r0, r1
    3218:	00000000 	andeq	r0, r0, r0
    321c:	f8000000 			; <UNDEFINED> instruction: 0xf8000000
    3220:	f8000002 			; <UNDEFINED> instruction: 0xf8000002
    3224:	01000002 	tsteq	r0, r2
    3228:	02f85000 	rscseq	r5, r8, #0
    322c:	02fc0000 	rscseq	r0, ip, #0
    3230:	00040000 	andeq	r0, r4, r0
    3234:	9f5001f3 	svcls	0x005001f3
	...
    3240:	000002f8 	strdeq	r0, [r0], -r8
    3244:	000002f8 	strdeq	r0, [r0], -r8
    3248:	00700009 	rsbseq	r0, r0, r9
    324c:	ff0a2633 			; <UNDEFINED> instruction: 0xff0a2633
    3250:	f89f1a03 			; <UNDEFINED> instruction: 0xf89f1a03
    3254:	fc000002 	stc2	0, cr0, [r0], {2}
    3258:	0a000002 	beq	3268 <_back_addr-0x160cd98>
    325c:	5001f300 	andpl	pc, r1, r0, lsl #6
    3260:	ff0a2633 			; <UNDEFINED> instruction: 0xff0a2633
    3264:	009f1a03 	addseq	r1, pc, r3, lsl #20
    3268:	00000000 	andeq	r0, r0, r0
    326c:	f8000000 			; <UNDEFINED> instruction: 0xf8000000
    3270:	f8000002 			; <UNDEFINED> instruction: 0xf8000002
    3274:	05000002 	streq	r0, [r0, #-2]
    3278:	37007000 	strcc	r7, [r0, -r0]
    327c:	02f89f1a 	rscseq	r9, r8, #26, 30	; 0x68
    3280:	02fc0000 	rscseq	r0, ip, #0
    3284:	00060000 	andeq	r0, r6, r0
    3288:	375001f3 	smmlsrcc	r0, r3, r1, r0
    328c:	00009f1a 	andeq	r9, r0, sl, lsl pc
    3290:	00000000 	andeq	r0, r0, r0
    3294:	033c0000 	teqeq	ip, #0
    3298:	034c0000 	movteq	r0, #49152	; 0xc000
    329c:	00010000 	andeq	r0, r1, r0
    32a0:	00034c50 	andeq	r4, r3, r0, asr ip
    32a4:	00038000 	andeq	r8, r3, r0
    32a8:	54000100 	strpl	r0, [r0], #-256	; 0x100
    32ac:	00000380 	andeq	r0, r0, r0, lsl #7
    32b0:	000003e8 	andeq	r0, r0, r8, ror #7
    32b4:	01f30004 	mvnseq	r0, r4
    32b8:	00009f50 	andeq	r9, r0, r0, asr pc
    32bc:	00000000 	andeq	r0, r0, r0
    32c0:	033c0000 	teqeq	ip, #0
    32c4:	03570000 	cmpeq	r7, #0
    32c8:	00010000 	andeq	r0, r1, r0
    32cc:	00035751 	andeq	r5, r3, r1, asr r7
    32d0:	00037800 	andeq	r7, r3, r0, lsl #16
    32d4:	57000100 	strpl	r0, [r0, -r0, lsl #2]
    32d8:	00000378 	andeq	r0, r0, r8, ror r3
    32dc:	000003e8 	andeq	r0, r0, r8, ror #7
    32e0:	01f30004 	mvnseq	r0, r4
    32e4:	00009f51 	andeq	r9, r0, r1, asr pc
    32e8:	00000000 	andeq	r0, r0, r0
    32ec:	033c0000 	teqeq	ip, #0
    32f0:	03570000 	cmpeq	r7, #0
    32f4:	00010000 	andeq	r0, r1, r0
    32f8:	00035752 	andeq	r5, r3, r2, asr r7
    32fc:	0003e400 	andeq	lr, r3, r0, lsl #8
    3300:	58000100 	stmdapl	r0, {r8}
    3304:	000003e4 	andeq	r0, r0, r4, ror #7
    3308:	000003e8 	andeq	r0, r0, r8, ror #7
    330c:	01f30004 	mvnseq	r0, r4
    3310:	00009f52 	andeq	r9, r0, r2, asr pc
    3314:	00000000 	andeq	r0, r0, r0
    3318:	03740000 	cmneq	r4, #0
    331c:	03880000 	orreq	r0, r8, #0
    3320:	00020000 	andeq	r0, r2, r0
    3324:	03889f30 	orreq	r9, r8, #48, 30	; 0xc0
    3328:	03980000 	orrseq	r0, r8, #0
    332c:	00010000 	andeq	r0, r1, r0
    3330:	00039854 	andeq	r9, r3, r4, asr r8
    3334:	0003b000 	andeq	fp, r3, r0
    3338:	74000300 	strvc	r0, [r0], #-768	; 0x300
    333c:	03b09f7f 	movseq	r9, #508	; 0x1fc
    3340:	03d40000 	bicseq	r0, r4, #0
    3344:	00010000 	andeq	r0, r1, r0
    3348:	00000054 	andeq	r0, r0, r4, asr r0
    334c:	00000000 	andeq	r0, r0, r0
    3350:	00037400 	andeq	r7, r3, r0, lsl #8
    3354:	00038800 	andeq	r8, r3, r0, lsl #16
    3358:	30000200 	andcc	r0, r0, r0, lsl #4
    335c:	0003889f 	muleq	r3, pc, r8	; <UNPREDICTABLE>
    3360:	0003a400 	andeq	sl, r3, r0, lsl #8
    3364:	55000100 	strpl	r0, [r0, #-256]	; 0x100
    3368:	000003b0 			; <UNDEFINED> instruction: 0x000003b0
    336c:	000003d4 	ldrdeq	r0, [r0], -r4
    3370:	00550001 	subseq	r0, r5, r1
    3374:	00000000 	andeq	r0, r0, r0
    3378:	3c000000 	stccc	0, cr0, [r0], {-0}
    337c:	88000003 	stmdahi	r0, {r0, r1}
    3380:	02000003 	andeq	r0, r0, #3
    3384:	889f3000 	ldmhi	pc, {ip, sp}	; <UNPREDICTABLE>
    3388:	a4000003 	strge	r0, [r0], #-3
    338c:	10000003 	andne	r0, r0, r3
    3390:	75007800 	strvc	r7, [r0, #-2048]	; 0x800
    3394:	01942200 	orrseq	r2, r4, r0, lsl #4
    3398:	761aff08 	ldrvc	pc, [sl], -r8, lsl #30
    339c:	1a312600 	bne	c4cba4 <_back_addr-0x9c345c>
    33a0:	0000009f 	muleq	r0, pc, r0	; <UNPREDICTABLE>
    33a4:	00000000 	andeq	r0, r0, r0
    33a8:	00033c00 	andeq	r3, r3, r0, lsl #24
    33ac:	00038800 	andeq	r8, r3, r0, lsl #16
    33b0:	30000200 	andcc	r0, r0, r0, lsl #4
    33b4:	0003889f 	muleq	r3, pc, r8	; <UNPREDICTABLE>
    33b8:	0003b800 	andeq	fp, r3, r0, lsl #16
    33bc:	56000100 	strpl	r0, [r0], -r0, lsl #2
	...
    33c8:	0000041c 	andeq	r0, r0, ip, lsl r4
    33cc:	00000447 	andeq	r0, r0, r7, asr #8
    33d0:	47500001 	ldrbmi	r0, [r0, -r1]
    33d4:	50000004 	andpl	r0, r0, r4
    33d8:	04000004 	streq	r0, [r0], #-4
    33dc:	5001f300 	andpl	pc, r1, r0, lsl #6
    33e0:	0004509f 	muleq	r4, pc, r0	; <UNPREDICTABLE>
    33e4:	00045800 	andeq	r5, r4, r0, lsl #16
    33e8:	50000100 	andpl	r0, r0, r0, lsl #2
    33ec:	00000458 	andeq	r0, r0, r8, asr r4
    33f0:	0000045f 	andeq	r0, r0, pc, asr r4
    33f4:	807e0004 	rsbshi	r0, lr, r4
    33f8:	045f9f20 	ldrbeq	r9, [pc], #-3872	; 3400 <_back_addr-0x160cc00>
    33fc:	04680000 	strbteq	r0, [r8], #-0
    3400:	00040000 	andeq	r0, r4, r0
    3404:	9f5001f3 	svcls	0x005001f3
    3408:	00000468 	andeq	r0, r0, r8, ror #8
    340c:	00000470 	andeq	r0, r0, r0, ror r4
    3410:	70500001 	subsvc	r0, r0, r1
    3414:	77000004 	strvc	r0, [r0, -r4]
    3418:	01000004 	tsteq	r0, r4
    341c:	04775100 	ldrbteq	r5, [r7], #-256	; 0x100
    3420:	04800000 	streq	r0, [r0], #0
    3424:	00040000 	andeq	r0, r4, r0
    3428:	9f5001f3 	svcls	0x005001f3
	...
    3434:	0000041c 	andeq	r0, r0, ip, lsl r4
    3438:	00000447 	andeq	r0, r0, r7, asr #8
    343c:	47510001 	ldrbmi	r0, [r1, -r1]
    3440:	50000004 	andpl	r0, r0, r4
    3444:	01000004 	tsteq	r0, r4
    3448:	04505400 	ldrbeq	r5, [r0], #-1024	; 0x400
    344c:	04540000 	ldrbeq	r0, [r4], #-0
    3450:	00010000 	andeq	r0, r1, r0
    3454:	00045451 	andeq	r5, r4, r1, asr r4
    3458:	00046800 	andeq	r6, r4, r0, lsl #16
    345c:	54000100 	strpl	r0, [r0], #-256	; 0x100
    3460:	00000468 	andeq	r0, r0, r8, ror #8
    3464:	0000046c 	andeq	r0, r0, ip, ror #8
    3468:	6c510001 	mrrcvs	0, 0, r0, r1, cr1
    346c:	80000004 	andhi	r0, r0, r4
    3470:	04000004 	streq	r0, [r0], #-4
    3474:	5101f300 	mrspl	pc, SP_irq	; <UNPREDICTABLE>
    3478:	0000009f 	muleq	r0, pc, r0	; <UNPREDICTABLE>
    347c:	00000000 	andeq	r0, r0, r0
    3480:	00041c00 	andeq	r1, r4, r0, lsl #24
    3484:	00044700 	andeq	r4, r4, r0, lsl #14
    3488:	52000100 	andpl	r0, r0, #0, 2
    348c:	00000447 	andeq	r0, r0, r7, asr #8
    3490:	00000450 	andeq	r0, r0, r0, asr r4
    3494:	01f30004 	mvnseq	r0, r4
    3498:	04509f52 	ldrbeq	r9, [r0], #-3922	; 0xf52
    349c:	045f0000 	ldrbeq	r0, [pc], #-0	; 34a4 <_back_addr-0x160cb5c>
    34a0:	00010000 	andeq	r0, r1, r0
    34a4:	00045f52 	andeq	r5, r4, r2, asr pc
    34a8:	00046800 	andeq	r6, r4, r0, lsl #16
    34ac:	f3000400 	vshl.u8	d0, d0, d0
    34b0:	689f5201 	ldmvs	pc, {r0, r9, ip, lr}	; <UNPREDICTABLE>
    34b4:	77000004 	strvc	r0, [r0, -r4]
    34b8:	01000004 	tsteq	r0, r4
    34bc:	04775200 	ldrbteq	r5, [r7], #-512	; 0x200
    34c0:	04800000 	streq	r0, [r0], #0
    34c4:	00040000 	andeq	r0, r4, r0
    34c8:	9f5201f3 	svcls	0x005201f3
	...
    34d4:	00000480 	andeq	r0, r0, r0, lsl #9
    34d8:	000004a4 	andeq	r0, r0, r4, lsr #9
    34dc:	a4500001 	ldrbge	r0, [r0], #-1
    34e0:	b0000004 	andlt	r0, r0, r4
    34e4:	04000004 	streq	r0, [r0], #-4
    34e8:	5001f300 	andpl	pc, r1, r0, lsl #6
    34ec:	0004b09f 	muleq	r4, pc, r0	; <UNPREDICTABLE>
    34f0:	0004bc00 	andeq	fp, r4, r0, lsl #24
    34f4:	50000100 	andpl	r0, r0, r0, lsl #2
    34f8:	000004bc 			; <UNDEFINED> instruction: 0x000004bc
    34fc:	000004c8 	andeq	r0, r0, r8, asr #9
    3500:	01f30004 	mvnseq	r0, r4
    3504:	04c89f50 	strbeq	r9, [r8], #3920	; 0xf50
    3508:	04d40000 	ldrbeq	r0, [r4], #0
    350c:	00010000 	andeq	r0, r1, r0
    3510:	0004d450 	andeq	sp, r4, r0, asr r4
    3514:	0004ec00 	andeq	lr, r4, r0, lsl #24
    3518:	f3000400 	vshl.u8	d0, d0, d0
    351c:	009f5001 	addseq	r5, pc, r1
    3520:	00000000 	andeq	r0, r0, r0
    3524:	fc000000 	stc2	0, cr0, [r0], {-0}
    3528:	14000005 	strne	r0, [r0], #-5
    352c:	01000006 	tsteq	r0, r6
    3530:	06145000 	ldreq	r5, [r4], -r0
    3534:	06340000 	ldrteq	r0, [r4], -r0
    3538:	00040000 	andeq	r0, r4, r0
    353c:	9f5001f3 	svcls	0x005001f3
    3540:	00000634 	andeq	r0, r0, r4, lsr r6
    3544:	00000638 	andeq	r0, r0, r8, lsr r6
    3548:	38500001 	ldmdacc	r0, {r0}^
    354c:	78000006 	stmdavc	r0, {r1, r2}
    3550:	04000006 	streq	r0, [r0], #-6
    3554:	5001f300 	andpl	pc, r1, r0, lsl #6
    3558:	0000009f 	muleq	r0, pc, r0	; <UNPREDICTABLE>
    355c:	00000000 	andeq	r0, r0, r0
    3560:	00061000 	andeq	r1, r6, r0
    3564:	00063400 	andeq	r3, r6, r0, lsl #8
    3568:	54000100 	strpl	r0, [r0], #-256	; 0x100
    356c:	00000648 	andeq	r0, r0, r8, asr #12
    3570:	00000678 	andeq	r0, r0, r8, ror r6
    3574:	00540001 	subseq	r0, r4, r1
    3578:	00000000 	andeq	r0, r0, r0
    357c:	78000000 	stmdavc	r0, {}	; <UNPREDICTABLE>
    3580:	90000006 	andls	r0, r0, r6
    3584:	01000006 	tsteq	r0, r6
    3588:	06905000 	ldreq	r5, [r0], r0
    358c:	06b00000 	ldrteq	r0, [r0], r0
    3590:	00040000 	andeq	r0, r4, r0
    3594:	9f5001f3 	svcls	0x005001f3
    3598:	000006b0 			; <UNDEFINED> instruction: 0x000006b0
    359c:	000006b4 			; <UNDEFINED> instruction: 0x000006b4
    35a0:	b4500001 	ldrblt	r0, [r0], #-1
    35a4:	f4000006 	vst4.8	{d0-d3}, [r0], r6
    35a8:	04000006 	streq	r0, [r0], #-6
    35ac:	5001f300 	andpl	pc, r1, r0, lsl #6
    35b0:	0000009f 	muleq	r0, pc, r0	; <UNPREDICTABLE>
    35b4:	00000000 	andeq	r0, r0, r0
    35b8:	00068c00 	andeq	r8, r6, r0, lsl #24
    35bc:	0006b000 	andeq	fp, r6, r0
    35c0:	54000100 	strpl	r0, [r0], #-256	; 0x100
    35c4:	000006c4 	andeq	r0, r0, r4, asr #13
    35c8:	000006f4 	strdeq	r0, [r0], -r4
    35cc:	00540001 	subseq	r0, r4, r1
    35d0:	00000000 	andeq	r0, r0, r0
    35d4:	90000000 	andls	r0, r0, r0
    35d8:	98000007 	stmdals	r0, {r0, r1, r2}
    35dc:	01000007 	tsteq	r0, r7
    35e0:	07985000 	ldreq	r5, [r8, r0]
    35e4:	08100000 	ldmdaeq	r0, {}	; <UNPREDICTABLE>
    35e8:	00040000 	andeq	r0, r4, r0
    35ec:	9f5001f3 	svcls	0x005001f3
	...
    35f8:	00000790 	muleq	r0, r0, r7
    35fc:	000007b8 			; <UNDEFINED> instruction: 0x000007b8
    3600:	b8510001 	ldmdalt	r1, {r0}^
    3604:	08000007 	stmdaeq	r0, {r0, r1, r2}
    3608:	04000008 	streq	r0, [r0], #-8
    360c:	5101f300 	mrspl	pc, SP_irq	; <UNPREDICTABLE>
    3610:	0008089f 	muleq	r8, pc, r8	; <UNPREDICTABLE>
    3614:	00081000 	andeq	r1, r8, r0
    3618:	51000100 	mrspl	r0, (UNDEF: 16)
	...
    3624:	00000790 	muleq	r0, r0, r7
    3628:	000007b0 			; <UNDEFINED> instruction: 0x000007b0
    362c:	b0520001 	subslt	r0, r2, r1
    3630:	08000007 	stmdaeq	r0, {r0, r1, r2}
    3634:	04000008 	streq	r0, [r0], #-8
    3638:	5201f300 	andpl	pc, r1, #0, 6
    363c:	0008089f 	muleq	r8, pc, r8	; <UNPREDICTABLE>
    3640:	00081000 	andeq	r1, r8, r0
    3644:	52000100 	andpl	r0, r0, #0, 2
	...
    3650:	00000790 	muleq	r0, r0, r7
    3654:	000007b8 			; <UNDEFINED> instruction: 0x000007b8
    3658:	9f300002 	svcls	0x00300002
    365c:	00000808 	andeq	r0, r0, r8, lsl #16
    3660:	00000810 	andeq	r0, r0, r0, lsl r8
    3664:	9f300002 	svcls	0x00300002
	...
    3670:	00000798 	muleq	r0, r8, r7
    3674:	000007a0 	andeq	r0, r0, r0, lsr #15
    3678:	80700007 	rsbshi	r0, r0, r7
    367c:	79c085e0 	stmibvc	r0, {r5, r6, r7, r8, sl, pc}^
    3680:	0007a09f 	muleq	r7, pc, r0	; <UNPREDICTABLE>
    3684:	0007b400 	andeq	fp, r7, r0, lsl #8
    3688:	70000700 	andvc	r0, r0, r0, lsl #14
    368c:	8085e080 	addhi	lr, r5, r0, lsl #1
    3690:	07b49f7a 			; <UNDEFINED> instruction: 0x07b49f7a
    3694:	07b80000 	ldreq	r0, [r8, r0]!
    3698:	00070000 	andeq	r0, r7, r0
    369c:	80808070 	addhi	r8, r0, r0, ror r0
    36a0:	b89f7a80 	ldmlt	pc, {r7, r9, fp, ip, sp, lr}	; <UNPREDICTABLE>
    36a4:	08000007 	stmdaeq	r0, {r0, r1, r2}
    36a8:	0d000008 	stceq	0, cr0, [r0, #-32]	; 0xffffffe0
    36ac:	5001f300 	andpl	pc, r1, r0, lsl #6
    36b0:	0c1afc09 	ldceq	12, cr15, [sl], {9}
    36b4:	67fe9000 	ldrbvs	r9, [lr, r0]!
    36b8:	08089f1c 	stmdaeq	r8, {r2, r3, r4, r8, r9, sl, fp, ip, pc}
    36bc:	080c0000 	stmdaeq	ip, {}	; <UNPREDICTABLE>
    36c0:	00070000 	andeq	r0, r7, r0
    36c4:	85e08070 	strbhi	r8, [r0, #112]!	; 0x70
    36c8:	0c9f79c0 	ldceq	9, cr7, [pc], {192}	; 0xc0
    36cc:	10000008 	andne	r0, r0, r8
    36d0:	0d000008 	stceq	0, cr0, [r0, #-32]	; 0xffffffe0
    36d4:	5001f300 	andpl	pc, r1, r0, lsl #6
    36d8:	0c1afc09 	ldceq	12, cr15, [sl], {9}
    36dc:	67fe9000 	ldrbvs	r9, [lr, r0]!
    36e0:	00009f1c 	andeq	r9, r0, ip, lsl pc
    36e4:	00000000 	andeq	r0, r0, r0
    36e8:	07b80000 	ldreq	r0, [r8, r0]!
    36ec:	07c00000 	strbeq	r0, [r0, r0]
    36f0:	00070000 	andeq	r0, r7, r0
    36f4:	80808070 	addhi	r8, r0, r0, ror r0
    36f8:	c09f7a80 	addsgt	r7, pc, r0, lsl #21
    36fc:	cc000007 	stcgt	0, cr0, [r0], {7}
    3700:	07000007 	streq	r0, [r0, -r7]
    3704:	fffc7000 			; <UNDEFINED> instruction: 0xfffc7000
    3708:	9f79ffff 	svcls	0x0079ffff
    370c:	000007cc 	andeq	r0, r0, ip, asr #15
    3710:	000007e0 	andeq	r0, r0, r0, ror #15
    3714:	80700007 	rsbshi	r0, r0, r7
    3718:	7a808080 	bvc	fe023920 <__bss_end__+0xfca00d60>
    371c:	0007e09f 	muleq	r7, pc, r0	; <UNPREDICTABLE>
    3720:	00080000 	andeq	r0, r8, r0
    3724:	5e000100 	adfpls	f0, f0, f0
	...
    3730:	000007d8 	ldrdeq	r0, [r0], -r8
    3734:	000007e0 	andeq	r0, r0, r0, ror #15
    3738:	80700007 	rsbshi	r0, r0, r7
    373c:	7a808080 	bvc	fe023944 <__bss_end__+0xfca00d84>
    3740:	0007e09f 	muleq	r7, pc, r0	; <UNPREDICTABLE>
    3744:	00080000 	andeq	r0, r8, r0
    3748:	5e000100 	adfpls	f0, f0, f0
	...
    3754:	00000810 	andeq	r0, r0, r0, lsl r8
    3758:	00000818 	andeq	r0, r0, r8, lsl r8
    375c:	18500001 	ldmdane	r0, {r0}^
    3760:	64000008 	strvs	r0, [r0], #-8
    3764:	04000008 	streq	r0, [r0], #-8
    3768:	5001f300 	andpl	pc, r1, r0, lsl #6
    376c:	0000009f 	muleq	r0, pc, r0	; <UNPREDICTABLE>
    3770:	00000000 	andeq	r0, r0, r0
    3774:	00081000 	andeq	r1, r8, r0
    3778:	00082400 	andeq	r2, r8, r0, lsl #8
    377c:	51000100 	mrspl	r0, (UNDEF: 16)
    3780:	00000824 	andeq	r0, r0, r4, lsr #16
    3784:	0000085c 	andeq	r0, r0, ip, asr r8
    3788:	01f30004 	mvnseq	r0, r4
    378c:	085c9f51 	ldmdaeq	ip, {r0, r4, r6, r8, r9, sl, fp, ip, pc}^
    3790:	08640000 	stmdaeq	r4!, {}^	; <UNPREDICTABLE>
    3794:	00010000 	andeq	r0, r1, r0
    3798:	00000051 	andeq	r0, r0, r1, asr r0
    379c:	00000000 	andeq	r0, r0, r0
    37a0:	00081000 	andeq	r1, r8, r0
    37a4:	00082400 	andeq	r2, r8, r0, lsl #8
    37a8:	30000200 	andcc	r0, r0, r0, lsl #4
    37ac:	0008249f 	muleq	r8, pc, r4	; <UNPREDICTABLE>
    37b0:	00085c00 	andeq	r5, r8, r0, lsl #24
    37b4:	71000700 	tstvc	r0, r0, lsl #14
    37b8:	5101f300 	mrspl	pc, SP_irq	; <UNPREDICTABLE>
    37bc:	085c9f1c 	ldmdaeq	ip, {r2, r3, r4, r8, r9, sl, fp, ip, pc}^
    37c0:	08640000 	stmdaeq	r4!, {}^	; <UNPREDICTABLE>
    37c4:	00020000 	andeq	r0, r2, r0
    37c8:	00009f30 	andeq	r9, r0, r0, lsr pc
    37cc:	00000000 	andeq	r0, r0, r0
    37d0:	08100000 	ldmdaeq	r0, {}	; <UNPREDICTABLE>
    37d4:	08240000 	stmdaeq	r4!, {}	; <UNPREDICTABLE>
    37d8:	00020000 	andeq	r0, r2, r0
    37dc:	085c9f30 	ldmdaeq	ip, {r4, r5, r8, r9, sl, fp, ip, pc}^
    37e0:	08640000 	stmdaeq	r4!, {}^	; <UNPREDICTABLE>
    37e4:	00020000 	andeq	r0, r2, r0
    37e8:	00009f30 	andeq	r9, r0, r0, lsr pc
    37ec:	00000000 	andeq	r0, r0, r0
    37f0:	08100000 	ldmdaeq	r0, {}	; <UNPREDICTABLE>
    37f4:	08180000 	ldmdaeq	r8, {}	; <UNPREDICTABLE>
    37f8:	00020000 	andeq	r0, r2, r0
    37fc:	08189f30 	ldmdaeq	r8, {r4, r5, r8, r9, sl, fp, ip, pc}
    3800:	08240000 	stmdaeq	r4!, {}	; <UNPREDICTABLE>
    3804:	00010000 	andeq	r0, r1, r0
    3808:	00082450 	andeq	r2, r8, r0, asr r4
    380c:	00085c00 	andeq	r5, r8, r0, lsl #24
    3810:	f3000700 	vabd.u8	d0, d0, d0
    3814:	fc095001 	stc2	0, cr5, [r9], {1}
    3818:	085c9f1a 	ldmdaeq	ip, {r1, r3, r4, r8, r9, sl, fp, ip, pc}^
    381c:	08600000 	stmdaeq	r0!, {}^	; <UNPREDICTABLE>
    3820:	00010000 	andeq	r0, r1, r0
    3824:	00086050 	andeq	r6, r8, r0, asr r0
    3828:	00086400 	andeq	r6, r8, r0, lsl #8
    382c:	f3000700 	vabd.u8	d0, d0, d0
    3830:	fc095001 	stc2	0, cr5, [r9], {1}
    3834:	00009f1a 	andeq	r9, r0, sl, lsl pc
    3838:	00000000 	andeq	r0, r0, r0
    383c:	08640000 	stmdaeq	r4!, {}^	; <UNPREDICTABLE>
    3840:	08970000 	ldmeq	r7, {}	; <UNPREDICTABLE>
    3844:	00010000 	andeq	r0, r1, r0
    3848:	00089750 	andeq	r9, r8, r0, asr r7
    384c:	0008a000 	andeq	sl, r8, r0
    3850:	f3000400 	vshl.u8	d0, d0, d0
    3854:	a09f5001 	addsge	r5, pc, r1
    3858:	a8000008 	stmdage	r0, {r3}
    385c:	01000008 	tsteq	r0, r8
    3860:	08a85000 	stmiaeq	r8!, {ip, lr}
    3864:	08af0000 	stmiaeq	pc!, {}	; <UNPREDICTABLE>
    3868:	00040000 	andeq	r0, r4, r0
    386c:	9f20807e 	svcls	0x0020807e
    3870:	000008af 	andeq	r0, r0, pc, lsr #17
    3874:	000008b8 			; <UNDEFINED> instruction: 0x000008b8
    3878:	01f30004 	mvnseq	r0, r4
    387c:	08b89f50 	ldmeq	r8!, {r4, r6, r8, r9, sl, fp, ip, pc}
    3880:	08c00000 	stmiaeq	r0, {}^	; <UNPREDICTABLE>
    3884:	00010000 	andeq	r0, r1, r0
    3888:	0008c050 	andeq	ip, r8, r0, asr r0
    388c:	0008c700 	andeq	ip, r8, r0, lsl #14
    3890:	51000100 	mrspl	r0, (UNDEF: 16)
    3894:	000008c7 	andeq	r0, r0, r7, asr #17
    3898:	000008d0 	ldrdeq	r0, [r0], -r0	; <UNPREDICTABLE>
    389c:	01f30004 	mvnseq	r0, r4
    38a0:	00009f50 	andeq	r9, r0, r0, asr pc
    38a4:	00000000 	andeq	r0, r0, r0
    38a8:	08640000 	stmdaeq	r4!, {}^	; <UNPREDICTABLE>
    38ac:	08940000 	ldmeq	r4, {}	; <UNPREDICTABLE>
    38b0:	00010000 	andeq	r0, r1, r0
    38b4:	00089451 	andeq	r9, r8, r1, asr r4
    38b8:	00089700 	andeq	r9, r8, r0, lsl #14
    38bc:	52000100 	andpl	r0, r0, #0, 2
    38c0:	00000897 	muleq	r0, r7, r8
    38c4:	000008a0 	andeq	r0, r0, r0, lsr #17
    38c8:	01f30004 	mvnseq	r0, r4
    38cc:	08a09f51 	stmiaeq	r0!, {r0, r4, r6, r8, r9, sl, fp, ip, pc}
    38d0:	08a40000 	stmiaeq	r4!, {}	; <UNPREDICTABLE>
    38d4:	00010000 	andeq	r0, r1, r0
    38d8:	0008a451 	andeq	sl, r8, r1, asr r4
    38dc:	0008b800 	andeq	fp, r8, r0, lsl #16
    38e0:	f3000400 	vshl.u8	d0, d0, d0
    38e4:	b89f5101 	ldmlt	pc, {r0, r8, ip, lr}	; <UNPREDICTABLE>
    38e8:	bc000008 	stclt	0, cr0, [r0], {8}
    38ec:	01000008 	tsteq	r0, r8
    38f0:	08bc5100 	ldmeq	ip!, {r8, ip, lr}
    38f4:	08d00000 	ldmeq	r0, {}^	; <UNPREDICTABLE>
    38f8:	00040000 	andeq	r0, r4, r0
    38fc:	9f5101f3 	svcls	0x005101f3
	...
    3908:	00000864 	andeq	r0, r0, r4, ror #16
    390c:	00000884 	andeq	r0, r0, r4, lsl #17
    3910:	84520001 	ldrbhi	r0, [r2], #-1
    3914:	97000008 	strls	r0, [r0, -r8]
    3918:	01000008 	tsteq	r0, r8
    391c:	08975c00 	ldmeq	r7, {sl, fp, ip, lr}
    3920:	08a00000 	stmiaeq	r0!, {}	; <UNPREDICTABLE>
    3924:	00040000 	andeq	r0, r4, r0
    3928:	9f5201f3 	svcls	0x005201f3
    392c:	000008a0 	andeq	r0, r0, r0, lsr #17
    3930:	000008af 	andeq	r0, r0, pc, lsr #17
    3934:	af5c0001 	svcge	0x005c0001
    3938:	b8000008 	stmdalt	r0, {r3}
    393c:	04000008 	streq	r0, [r0], #-8
    3940:	5201f300 	andpl	pc, r1, #0, 6
    3944:	0008b89f 	muleq	r8, pc, r8	; <UNPREDICTABLE>
    3948:	0008c700 	andeq	ip, r8, r0, lsl #14
    394c:	52000100 	andpl	r0, r0, #0, 2
    3950:	000008c7 	andeq	r0, r0, r7, asr #17
    3954:	000008d0 	ldrdeq	r0, [r0], -r0	; <UNPREDICTABLE>
    3958:	01f30004 	mvnseq	r0, r4
    395c:	00009f52 	andeq	r9, r0, r2, asr pc
    3960:	00000000 	andeq	r0, r0, r0
	...

Disassembly of section .debug_ranges:

00000000 <.debug_ranges>:
   0:	000003ac 	andeq	r0, r0, ip, lsr #7
   4:	000003b0 			; <UNDEFINED> instruction: 0x000003b0
   8:	000003b4 			; <UNDEFINED> instruction: 0x000003b4
   c:	000003b8 			; <UNDEFINED> instruction: 0x000003b8
	...
  18:	00000038 	andeq	r0, r0, r8, lsr r0
  1c:	000000ac 	andeq	r0, r0, ip, lsr #1
  20:	000000c0 	andeq	r0, r0, r0, asr #1
  24:	000000e4 	andeq	r0, r0, r4, ror #1
	...
  30:	00000054 	andeq	r0, r0, r4, asr r0
  34:	00000058 	andeq	r0, r0, r8, asr r0
  38:	0000005c 	andeq	r0, r0, ip, asr r0
  3c:	00000074 	andeq	r0, r0, r4, ror r0
	...
  48:	00000070 	andeq	r0, r0, r0, ror r0
  4c:	0000007c 	andeq	r0, r0, ip, ror r0
  50:	00000080 	andeq	r0, r0, r0, lsl #1
  54:	00000088 	andeq	r0, r0, r8, lsl #1
	...
  60:	0000007c 	andeq	r0, r0, ip, ror r0
  64:	00000080 	andeq	r0, r0, r0, lsl #1
  68:	00000088 	andeq	r0, r0, r8, lsl #1
  6c:	0000008c 	andeq	r0, r0, ip, lsl #1
	...
  78:	000000b0 	strheq	r0, [r0], -r0	; <UNPREDICTABLE>
  7c:	000000b8 	strheq	r0, [r0], -r8
  80:	000000c0 	andeq	r0, r0, r0, asr #1
  84:	000000c4 	andeq	r0, r0, r4, asr #1
  88:	000000c8 	andeq	r0, r0, r8, asr #1
  8c:	000000cc 	andeq	r0, r0, ip, asr #1
	...
  98:	000000b8 	strheq	r0, [r0], -r8
  9c:	000000bc 	strheq	r0, [r0], -ip
  a0:	000000d8 	ldrdeq	r0, [r0], -r8
  a4:	000000dc 	ldrdeq	r0, [r0], -ip
	...
  b0:	000000c4 	andeq	r0, r0, r4, asr #1
  b4:	000000c8 	andeq	r0, r0, r8, asr #1
  b8:	000000d0 	ldrdeq	r0, [r0], -r0	; <UNPREDICTABLE>
  bc:	000000d4 	ldrdeq	r0, [r0], -r4
	...
  c8:	00000104 	andeq	r0, r0, r4, lsl #2
  cc:	00000108 	andeq	r0, r0, r8, lsl #2
  d0:	00000130 	andeq	r0, r0, r0, lsr r1
  d4:	0000013c 	andeq	r0, r0, ip, lsr r1
	...
  e0:	0000015c 	andeq	r0, r0, ip, asr r1
  e4:	00000168 	andeq	r0, r0, r8, ror #2
  e8:	0000016c 	andeq	r0, r0, ip, ror #2
  ec:	00000170 	andeq	r0, r0, r0, ror r1
	...
  f8:	00000168 	andeq	r0, r0, r8, ror #2
  fc:	0000016c 	andeq	r0, r0, ip, ror #2
 100:	00000170 	andeq	r0, r0, r0, ror r1
 104:	00000178 	andeq	r0, r0, r8, ror r1
	...
 110:	0000018c 	andeq	r0, r0, ip, lsl #3
 114:	00000190 	muleq	r0, r0, r1
 118:	00000194 	muleq	r0, r4, r1
 11c:	00000198 	muleq	r0, r8, r1
	...
 128:	00000190 	muleq	r0, r0, r1
 12c:	00000194 	muleq	r0, r4, r1
 130:	0000019c 	muleq	r0, ip, r1
 134:	000001a4 	andeq	r0, r0, r4, lsr #3
	...
 140:	000001bc 			; <UNDEFINED> instruction: 0x000001bc
 144:	000001c4 	andeq	r0, r0, r4, asr #3
 148:	000001d8 	ldrdeq	r0, [r0], -r8
 14c:	000001ec 	andeq	r0, r0, ip, ror #3
 150:	000002ec 	andeq	r0, r0, ip, ror #5
 154:	000002fc 	strdeq	r0, [r0], -ip
	...
 160:	000001e0 	andeq	r0, r0, r0, ror #3
 164:	000001ec 	andeq	r0, r0, ip, ror #3
 168:	000002ec 	andeq	r0, r0, ip, ror #5
 16c:	000002fc 	strdeq	r0, [r0], -ip
	...
 178:	000001f8 	strdeq	r0, [r0], -r8
 17c:	0000020c 	andeq	r0, r0, ip, lsl #4
 180:	0000040c 	andeq	r0, r0, ip, lsl #8
 184:	00000424 	andeq	r0, r0, r4, lsr #8
	...
 190:	00000208 	andeq	r0, r0, r8, lsl #4
 194:	0000020c 	andeq	r0, r0, ip, lsl #4
 198:	0000040c 	andeq	r0, r0, ip, lsl #8
 19c:	00000424 	andeq	r0, r0, r4, lsr #8
	...
 1a8:	0000020c 	andeq	r0, r0, ip, lsl #4
 1ac:	0000021c 	andeq	r0, r0, ip, lsl r2
 1b0:	000003f4 	strdeq	r0, [r0], -r4
 1b4:	0000040c 	andeq	r0, r0, ip, lsl #8
	...
 1c0:	00000218 	andeq	r0, r0, r8, lsl r2
 1c4:	0000021c 	andeq	r0, r0, ip, lsl r2
 1c8:	000003f4 	strdeq	r0, [r0], -r4
 1cc:	0000040c 	andeq	r0, r0, ip, lsl #8
	...
 1d8:	0000021c 	andeq	r0, r0, ip, lsl r2
 1dc:	0000022c 	andeq	r0, r0, ip, lsr #4
 1e0:	000003dc 	ldrdeq	r0, [r0], -ip
 1e4:	000003f4 	strdeq	r0, [r0], -r4
	...
 1f0:	00000228 	andeq	r0, r0, r8, lsr #4
 1f4:	0000022c 	andeq	r0, r0, ip, lsr #4
 1f8:	000003dc 	ldrdeq	r0, [r0], -ip
 1fc:	000003f4 	strdeq	r0, [r0], -r4
	...
 208:	0000022c 	andeq	r0, r0, ip, lsr #4
 20c:	00000244 	andeq	r0, r0, r4, asr #4
 210:	000003c4 	andeq	r0, r0, r4, asr #7
 214:	000003dc 	ldrdeq	r0, [r0], -ip
	...
 220:	0000023c 	andeq	r0, r0, ip, lsr r2
 224:	00000244 	andeq	r0, r0, r4, asr #4
 228:	000003c4 	andeq	r0, r0, r4, asr #7
 22c:	000003dc 	ldrdeq	r0, [r0], -ip
	...
 238:	00000244 	andeq	r0, r0, r4, asr #4
 23c:	00000254 	andeq	r0, r0, r4, asr r2
 240:	000003ac 	andeq	r0, r0, ip, lsr #7
 244:	000003c4 	andeq	r0, r0, r4, asr #7
	...
 250:	00000250 	andeq	r0, r0, r0, asr r2
 254:	00000254 	andeq	r0, r0, r4, asr r2
 258:	000003ac 	andeq	r0, r0, ip, lsr #7
 25c:	000003c4 	andeq	r0, r0, r4, asr #7
	...
 268:	00000254 	andeq	r0, r0, r4, asr r2
 26c:	0000026c 	andeq	r0, r0, ip, ror #4
 270:	00000394 	muleq	r0, r4, r3
 274:	000003ac 	andeq	r0, r0, ip, lsr #7
	...
 280:	00000264 	andeq	r0, r0, r4, ror #4
 284:	0000026c 	andeq	r0, r0, ip, ror #4
 288:	00000394 	muleq	r0, r4, r3
 28c:	000003ac 	andeq	r0, r0, ip, lsr #7
	...
 298:	0000026c 	andeq	r0, r0, ip, ror #4
 29c:	0000027c 	andeq	r0, r0, ip, ror r2
 2a0:	0000037c 	andeq	r0, r0, ip, ror r3
 2a4:	00000394 	muleq	r0, r4, r3
	...
 2b0:	00000278 	andeq	r0, r0, r8, ror r2
 2b4:	0000027c 	andeq	r0, r0, ip, ror r2
 2b8:	0000037c 	andeq	r0, r0, ip, ror r3
 2bc:	00000394 	muleq	r0, r4, r3
	...
 2c8:	0000027c 	andeq	r0, r0, ip, ror r2
 2cc:	00000294 	muleq	r0, r4, r2
 2d0:	00000364 	andeq	r0, r0, r4, ror #6
 2d4:	0000037c 	andeq	r0, r0, ip, ror r3
	...
 2e0:	0000028c 	andeq	r0, r0, ip, lsl #5
 2e4:	00000294 	muleq	r0, r4, r2
 2e8:	00000364 	andeq	r0, r0, r4, ror #6
 2ec:	0000037c 	andeq	r0, r0, ip, ror r3
	...
 2f8:	00000294 	muleq	r0, r4, r2
 2fc:	00000298 	muleq	r0, r8, r2
 300:	0000029c 	muleq	r0, ip, r2
 304:	000002a4 	andeq	r0, r0, r4, lsr #5
 308:	0000034c 	andeq	r0, r0, ip, asr #6
 30c:	00000364 	andeq	r0, r0, r4, ror #6
	...
 318:	000002a0 	andeq	r0, r0, r0, lsr #5
 31c:	000002a4 	andeq	r0, r0, r4, lsr #5
 320:	0000034c 	andeq	r0, r0, ip, asr #6
 324:	00000364 	andeq	r0, r0, r4, ror #6
	...
 330:	000002a4 	andeq	r0, r0, r4, lsr #5
 334:	000002a8 	andeq	r0, r0, r8, lsr #5
 338:	000002ac 	andeq	r0, r0, ip, lsr #5
 33c:	000002b4 			; <UNDEFINED> instruction: 0x000002b4
 340:	00000334 	andeq	r0, r0, r4, lsr r3
 344:	0000034c 	andeq	r0, r0, ip, asr #6
	...
 350:	000002b0 			; <UNDEFINED> instruction: 0x000002b0
 354:	000002b4 			; <UNDEFINED> instruction: 0x000002b4
 358:	00000334 	andeq	r0, r0, r4, lsr r3
 35c:	0000034c 	andeq	r0, r0, ip, asr #6
	...
 368:	000002b4 			; <UNDEFINED> instruction: 0x000002b4
 36c:	000002b8 			; <UNDEFINED> instruction: 0x000002b8
 370:	000002bc 			; <UNDEFINED> instruction: 0x000002bc
 374:	000002c4 	andeq	r0, r0, r4, asr #5
 378:	0000031c 	andeq	r0, r0, ip, lsl r3
 37c:	00000334 	andeq	r0, r0, r4, lsr r3
	...
 388:	000002c0 	andeq	r0, r0, r0, asr #5
 38c:	000002c4 	andeq	r0, r0, r4, asr #5
 390:	0000031c 	andeq	r0, r0, ip, lsl r3
 394:	00000334 	andeq	r0, r0, r4, lsr r3
	...
 3a0:	000002c4 	andeq	r0, r0, r4, asr #5
 3a4:	000002c8 	andeq	r0, r0, r8, asr #5
 3a8:	000002cc 	andeq	r0, r0, ip, asr #5
 3ac:	000002d0 	ldrdeq	r0, [r0], -r0	; <UNPREDICTABLE>
 3b0:	000002d4 	ldrdeq	r0, [r0], -r4
 3b4:	000002d8 	ldrdeq	r0, [r0], -r8
 3b8:	000002fc 	strdeq	r0, [r0], -ip
 3bc:	00000310 	andeq	r0, r0, r0, lsl r3
	...
 3c8:	000002d4 	ldrdeq	r0, [r0], -r4
 3cc:	000002d8 	ldrdeq	r0, [r0], -r8
 3d0:	000002fc 	strdeq	r0, [r0], -ip
 3d4:	00000310 	andeq	r0, r0, r0, lsl r3
	...
 3e0:	000007b4 			; <UNDEFINED> instruction: 0x000007b4
 3e4:	000007cc 	andeq	r0, r0, ip, asr #15
 3e8:	000007d4 	ldrdeq	r0, [r0], -r4
 3ec:	000007dc 	ldrdeq	r0, [r0], -ip
 3f0:	000007e0 	andeq	r0, r0, r0, ror #15
 3f4:	00000848 	andeq	r0, r0, r8, asr #16
	...
 400:	00000974 	andeq	r0, r0, r4, ror r9
 404:	0000097c 	andeq	r0, r0, ip, ror r9
 408:	00000980 	andeq	r0, r0, r0, lsl #19
 40c:	00000984 	andeq	r0, r0, r4, lsl #19
 410:	00000988 	andeq	r0, r0, r8, lsl #19
 414:	0000098c 	andeq	r0, r0, ip, lsl #19
	...
 420:	00000984 	andeq	r0, r0, r4, lsl #19
 424:	00000988 	andeq	r0, r0, r8, lsl #19
 428:	0000098c 	andeq	r0, r0, ip, lsl #19
 42c:	00000990 	muleq	r0, r0, r9
	...
 438:	00000a0c 	andeq	r0, r0, ip, lsl #20
 43c:	00000a14 	andeq	r0, r0, r4, lsl sl
 440:	00000a20 	andeq	r0, r0, r0, lsr #20
 444:	00000a24 	andeq	r0, r0, r4, lsr #20
	...
 450:	00000a30 	andeq	r0, r0, r0, lsr sl
 454:	00000a34 	andeq	r0, r0, r4, lsr sl
 458:	00000a54 	andeq	r0, r0, r4, asr sl
 45c:	00000a58 	andeq	r0, r0, r8, asr sl
	...
 468:	00000010 	andeq	r0, r0, r0, lsl r0
 46c:	0000002c 	andeq	r0, r0, ip, lsr #32
 470:	00000030 	andeq	r0, r0, r0, lsr r0
 474:	00000058 	andeq	r0, r0, r8, asr r0
	...
 480:	000000c8 	andeq	r0, r0, r8, asr #1
 484:	000000d0 	ldrdeq	r0, [r0], -r0	; <UNPREDICTABLE>
 488:	000000d8 	ldrdeq	r0, [r0], -r8
 48c:	000000e4 	andeq	r0, r0, r4, ror #1
 490:	000000ec 	andeq	r0, r0, ip, ror #1
 494:	00000100 	andeq	r0, r0, r0, lsl #2
	...
 4a0:	000000e4 	andeq	r0, r0, r4, ror #1
 4a4:	000000e8 	andeq	r0, r0, r8, ror #1
 4a8:	00000100 	andeq	r0, r0, r0, lsl #2
 4ac:	0000010c 	andeq	r0, r0, ip, lsl #2
	...
 4b8:	00000120 	andeq	r0, r0, r0, lsr #2
 4bc:	00000128 	andeq	r0, r0, r8, lsr #2
 4c0:	00000130 	andeq	r0, r0, r0, lsr r1
 4c4:	0000013c 	andeq	r0, r0, ip, lsr r1
 4c8:	00000144 	andeq	r0, r0, r4, asr #2
 4cc:	00000158 	andeq	r0, r0, r8, asr r1
	...
 4d8:	0000013c 	andeq	r0, r0, ip, lsr r1
 4dc:	00000140 	andeq	r0, r0, r0, asr #2
 4e0:	00000158 	andeq	r0, r0, r8, asr r1
 4e4:	00000164 	andeq	r0, r0, r4, ror #2
	...
 4f0:	000000ac 	andeq	r0, r0, ip, lsr #1
 4f4:	000000b4 	strheq	r0, [r0], -r4
 4f8:	000000e4 	andeq	r0, r0, r4, ror #1
 4fc:	00000100 	andeq	r0, r0, r0, lsl #2
	...
 508:	00000128 	andeq	r0, r0, r8, lsr #2
 50c:	00000138 	andeq	r0, r0, r8, lsr r1
 510:	0000014c 	andeq	r0, r0, ip, asr #2
 514:	00000154 	andeq	r0, r0, r4, asr r1
 518:	00000158 	andeq	r0, r0, r8, asr r1
 51c:	00000160 	andeq	r0, r0, r0, ror #2
	...
 528:	0000018c 	andeq	r0, r0, ip, lsl #3
 52c:	0000019c 	muleq	r0, ip, r1
 530:	000001a0 	andeq	r0, r0, r0, lsr #3
 534:	000001a4 	andeq	r0, r0, r4, lsr #3
	...
 540:	00000324 	andeq	r0, r0, r4, lsr #6
 544:	00000328 	andeq	r0, r0, r8, lsr #6
 548:	0000032c 	andeq	r0, r0, ip, lsr #6
 54c:	00000344 	andeq	r0, r0, r4, asr #6
	...
 558:	00000038 	andeq	r0, r0, r8, lsr r0
 55c:	0000003c 	andeq	r0, r0, ip, lsr r0
 560:	00000040 	andeq	r0, r0, r0, asr #32
 564:	000001ac 	andeq	r0, r0, ip, lsr #3
 568:	000001c0 	andeq	r0, r0, r0, asr #3
 56c:	000001d4 	ldrdeq	r0, [r0], -r4
	...
 578:	00000038 	andeq	r0, r0, r8, lsr r0
 57c:	0000003c 	andeq	r0, r0, ip, lsr r0
 580:	0000008c 	andeq	r0, r0, ip, lsl #1
 584:	00000090 	muleq	r0, r0, r0
 588:	00000094 	muleq	r0, r4, r0
 58c:	00000098 	muleq	r0, r8, r0
 590:	0000009c 	muleq	r0, ip, r0
 594:	000000e8 	andeq	r0, r0, r8, ror #1
 598:	000000ec 	andeq	r0, r0, ip, ror #1
 59c:	000000f0 	strdeq	r0, [r0], -r0	; <UNPREDICTABLE>
 5a0:	000000f4 	strdeq	r0, [r0], -r4
 5a4:	000000f8 	strdeq	r0, [r0], -r8
	...
 5b0:	000002fc 	strdeq	r0, [r0], -ip
 5b4:	00000304 	andeq	r0, r0, r4, lsl #6
 5b8:	00000308 	andeq	r0, r0, r8, lsl #6
 5bc:	0000030c 	andeq	r0, r0, ip, lsl #6
	...
 5c8:	00000610 	andeq	r0, r0, r0, lsl r6
 5cc:	00000630 	andeq	r0, r0, r0, lsr r6
 5d0:	00000648 	andeq	r0, r0, r8, asr #12
 5d4:	00000678 	andeq	r0, r0, r8, ror r6
	...
 5e0:	0000068c 	andeq	r0, r0, ip, lsl #13
 5e4:	000006ac 	andeq	r0, r0, ip, lsr #13
 5e8:	000006c4 	andeq	r0, r0, r4, asr #13
 5ec:	000006f4 	strdeq	r0, [r0], -r4
	...
 5f8:	000007a0 	andeq	r0, r0, r0, lsr #15
 5fc:	000007a8 	andeq	r0, r0, r8, lsr #15
 600:	000007b8 			; <UNDEFINED> instruction: 0x000007b8
 604:	000007c0 	andeq	r0, r0, r0, asr #15
 608:	000007d0 	ldrdeq	r0, [r0], -r0	; <UNPREDICTABLE>
 60c:	000007f0 	strdeq	r0, [r0], -r0	; <UNPREDICTABLE>
	...
 618:	000007b8 			; <UNDEFINED> instruction: 0x000007b8
 61c:	000007c0 	andeq	r0, r0, r0, asr #15
 620:	000007e4 	andeq	r0, r0, r4, ror #15
 624:	000007f0 	strdeq	r0, [r0], -r0	; <UNPREDICTABLE>
	...
