
efuse_programmer:     file format elf32-littlearm


Disassembly of section .text:

01500000 <_back_addr>:
 1500000:	01a00010 	lsleq	r0, r0, r0

01500004 <_stack_start>:
 1500004:	02001000 	andeq	r1, r0, #0

01500008 <_stack_start1>:
 1500008:	02500000 	subseq	r0, r0, #0

0150000c <start>:
.globl _stack_start1
_stack_start1:
        .word 0x02500000

start:
     mrc     p15, 0, r1, c0, c0, 5     @ Read Multiprocessor Affinity Register
 150000c:	ee101fb0 	mrc	15, 0, r1, cr0, cr0, {5}
     ands    r1, r1, #0x03             @ Mask off, leaving the CPU ID field
 1500010:	e2111003 	ands	r1, r1, #3
     cmp     r1,#0x00                  @ core0 : 0x00 , others 0x01 , 0x02 ...
 1500014:	e3510000 	cmp	r1, #0
     bne     run_secondary
 1500018:	1a00000c 	bne	1500050 <run_secondary>

     ldr     r8, _back_addr
 150001c:	e51f8024 	ldr	r8, [pc, #-36]	; 1500000 <_back_addr>
     str     lr, [r8]
 1500020:	e588e000 	str	lr, [r8]
     add     r8, r8,#4
 1500024:	e2888004 	add	r8, r8, #4
     str     sp, [r8]
 1500028:	e588d000 	str	sp, [r8]

     ldr     sp, _stack_start
 150002c:	e51fd030 	ldr	sp, [pc, #-48]	; 1500004 <_stack_start>
     bic     sp, sp, #7
 1500030:	e3cdd007 	bic	sp, sp, #7
     bl	     efusemain
 1500034:	eb000105 	bl	1500450 <efusemain>

     ldr     r8, _back_addr
 1500038:	e51f8040 	ldr	r8, [pc, #-64]	; 1500000 <_back_addr>
     add     r9, r8,#4
 150003c:	e2889004 	add	r9, r8, #4
     ldr     sp, [r9]
 1500040:	e599d000 	ldr	sp, [r9]
     ldr     r1, [r8]
 1500044:	e5981000 	ldr	r1, [r8]
     mov     r0, #0
 1500048:	e3a00000 	mov	r0, #0
     bx      r1
 150004c:	e12fff11 	bx	r1

01500050 <run_secondary>:

run_secondary:
     ldr   sp, _stack_start1
 1500050:	e51fd050 	ldr	sp, [pc, #-80]	; 1500008 <_stack_start1>
     MSR   CPSR_c, #0xD3 ; #MODE_SVC:OR:DIS_IRQ:OR:DIS_FIRQ
 1500054:	e321f0d3 	msr	CPSR_c, #211	; 0xd3
     MOV   r0, r0
 1500058:	e1a00000 	nop			; (mov r0, r0)
     MOV   r0, r0
 150005c:	e1a00000 	nop			; (mov r0, r0)
     MOV   r0, r0
 1500060:	e1a00000 	nop			; (mov r0, r0)
9:
     b     9b
 1500064:	eafffffe 	b	1500064 <run_secondary+0x14>
     MOV   r0, r0
 1500068:	e1a00000 	nop			; (mov r0, r0)
     MOV   r0, r0
 150006c:	e1a00000 	nop			; (mov r0, r0)
     MOV   r0, r0
 1500070:	e1a00000 	nop			; (mov r0, r0)

01500074 <strlen>:

int strlen(const char *s)
{
	int	l = 0;

	while (*s++) 
 1500074:	e5d01000 	ldrb	r1, [r0]
 1500078:	e2803001 	add	r3, r0, #1
 150007c:	e3510000 	cmp	r1, #0
 1500080:	0a000003 	beq	1500094 <strlen+0x20>
 1500084:	e0601003 	rsb	r1, r0, r3
 1500088:	e4d32001 	ldrb	r2, [r3], #1
 150008c:	e3520000 	cmp	r2, #0
 1500090:	1afffffb 	bne	1500084 <strlen+0x10>
	{
		
	 l++;
	} 
	return l;
}
 1500094:	e1a00001 	mov	r0, r1
 1500098:	e12fff1e 	bx	lr

0150009c <strstr>:
	const char 	*s2)
{
    const char *s ;
    const char *t ;

    if (!s1 || !s2)
 150009c:	e3510000 	cmp	r1, #0
 15000a0:	13500000 	cmpne	r0, #0
 15000a4:	0a000022 	beq	1500134 <strstr+0x98>
#include "dvrboot_inc/string.h"

char *strstr(
	const char 	*s1, 
	const char 	*s2)
{
 15000a8:	e92d4030 	push	{r4, r5, lr}
    const char *t ;

    if (!s1 || !s2)
	return (0);

    if (!*s2)
 15000ac:	e5d15000 	ldrb	r5, [r1]
 15000b0:	e3550000 	cmp	r5, #0
 15000b4:	08bd8030 	popeq	{r4, r5, pc}
	return ((char*)s1);

    for (; *s1; s1++) 
 15000b8:	e5d03000 	ldrb	r3, [r0]
 15000bc:	e3530000 	cmp	r3, #0
 15000c0:	1a000003 	bne	15000d4 <strstr+0x38>
 15000c4:	ea000018 	b	150012c <strstr+0x90>
 15000c8:	e5f03001 	ldrb	r3, [r0, #1]!
 15000cc:	e3530000 	cmp	r3, #0
 15000d0:	0a000015 	beq	150012c <strstr+0x90>
    {
	if (*s1 == *s2) 
 15000d4:	e1550003 	cmp	r5, r3
 15000d8:	1afffffa 	bne	15000c8 <strstr+0x2c>
        {
	    t = s1;
	    s = s2;
	    for (; *t; s++, t++) 
 15000dc:	e5d03000 	ldrb	r3, [r0]
 15000e0:	e3530000 	cmp	r3, #0
 15000e4:	0afffff7 	beq	15000c8 <strstr+0x2c>
            {
		if (*t != *s)
 15000e8:	e1550003 	cmp	r5, r3
 15000ec:	1afffff5 	bne	15000c8 <strstr+0x2c>
 15000f0:	e2813001 	add	r3, r1, #1
 15000f4:	e1a0c000 	mov	ip, r0
 15000f8:	ea000002 	b	1500108 <strstr+0x6c>
 15000fc:	e5de4000 	ldrb	r4, [lr]
 1500100:	e1540002 	cmp	r4, r2
 1500104:	1a000004 	bne	150011c <strstr+0x80>
    {
	if (*s1 == *s2) 
        {
	    t = s1;
	    s = s2;
	    for (; *t; s++, t++) 
 1500108:	e5fc2001 	ldrb	r2, [ip, #1]!
 150010c:	e1a0e003 	mov	lr, r3
 1500110:	e2833001 	add	r3, r3, #1
 1500114:	e3520000 	cmp	r2, #0
 1500118:	1afffff7 	bne	15000fc <strstr+0x60>
            {
		if (*t != *s)
		    break;
	    }
	    if (!*s)
 150011c:	e5de3000 	ldrb	r3, [lr]
 1500120:	e3530000 	cmp	r3, #0
 1500124:	1affffe7 	bne	15000c8 <strstr+0x2c>
 1500128:	e8bd8030 	pop	{r4, r5, pc}
{
    const char *s ;
    const char *t ;

    if (!s1 || !s2)
	return (0);
 150012c:	e1a00003 	mov	r0, r3
	    if (!*s)
		return ((char*)s1);
	}
    }
    return (0);
}
 1500130:	e8bd8030 	pop	{r4, r5, pc}
{
    const char *s ;
    const char *t ;

    if (!s1 || !s2)
	return (0);
 1500134:	e3a00000 	mov	r0, #0
	    if (!*s)
		return ((char*)s1);
	}
    }
    return (0);
}
 1500138:	e12fff1e 	bx	lr

0150013c <strtoul>:
unsigned long
strtoul(
	const 	char 	*str,
		char 	**endptr,
		int 	base)
{
 150013c:	e92d47f0 	push	{r4, r5, r6, r7, r8, r9, sl, lr}
 1500140:	e3027d64 	movw	r7, #11620	; 0x2d64
 1500144:	e3407150 	movt	r7, #336	; 0x150
 1500148:	e1a08000 	mov	r8, r0
 150014c:	ea000000 	b	1500154 <strtoul+0x18>
 1500150:	e1a00003 	mov	r0, r3
	/*
	 * See strtol for comments as to the logic used.
	 */
	s = str;
	do {
		c = (unsigned char) *s++;
 1500154:	e1a03000 	mov	r3, r0
 1500158:	e4d3e001 	ldrb	lr, [r3], #1
	} while (isspace(c));
 150015c:	e7d7c00e 	ldrb	ip, [r7, lr]
 1500160:	e20cc020 	and	ip, ip, #32
 1500164:	e21cc0ff 	ands	ip, ip, #255	; 0xff
 1500168:	1afffff8 	bne	1500150 <strtoul+0x14>
	if (c == '-') {
 150016c:	e35e002d 	cmp	lr, #45	; 0x2d
 1500170:	0a000047 	beq	1500294 <strtoul+0x158>
		neg = 1;
		c = *s++;
	} else {
		neg = 0;
		if (c == '+')
 1500174:	e35e002b 	cmp	lr, #43	; 0x2b
			c = *s++;
 1500178:	02803002 	addeq	r3, r0, #2
 150017c:	05d0e001 	ldrbeq	lr, [r0, #1]
	}
	if ((base == 0 || base == 16) &&
 1500180:	e3d20010 	bics	r0, r2, #16
 1500184:	1a000011 	bne	15001d0 <strtoul+0x94>
 1500188:	e16f0f12 	clz	r0, r2
 150018c:	e35e0030 	cmp	lr, #48	; 0x30
 1500190:	e1a002a0 	lsr	r0, r0, #5
 1500194:	0a000042 	beq	15002a4 <strtoul+0x168>
	    c == '0' && (*s == 'x' || *s == 'X')) {
		c = s[1];
		s += 2;
		base = 16;
	}
	if (base == 0)
 1500198:	e3500000 	cmp	r0, #0
 150019c:	0a00000b 	beq	15001d0 <strtoul+0x94>
 15001a0:	e3a0200a 	mov	r2, #10
 15001a4:	e3090999 	movw	r0, #39321	; 0x9999
 15001a8:	e3410999 	movt	r0, #6553	; 0x1999
		base = c == '0' ? 8 : 10;
 15001ac:	e1a0a002 	mov	sl, r2
 15001b0:	e3a09005 	mov	r9, #5
 15001b4:	ea00000a 	b	15001e4 <strtoul+0xa8>
	    c == '0' && (*s == 'x' || *s == 'X')) {
		c = s[1];
		s += 2;
		base = 16;
	}
	if (base == 0)
 15001b8:	e3500000 	cmp	r0, #0
 15001bc:	13a02008 	movne	r2, #8
 15001c0:	13a09007 	movne	r9, #7
		base = c == '0' ? 8 : 10;
 15001c4:	11a0a002 	movne	sl, r2
	    c == '0' && (*s == 'x' || *s == 'X')) {
		c = s[1];
		s += 2;
		base = 16;
	}
	if (base == 0)
 15001c8:	13e0020e 	mvnne	r0, #-536870912	; 0xe0000000
 15001cc:	1a000004 	bne	15001e4 <strtoul+0xa8>
 15001d0:	e3e00000 	mvn	r0, #0
 15001d4:	e1a0a002 	mov	sl, r2
 15001d8:	e730f210 	udiv	r0, r0, r2
 15001dc:	e0090092 	mul	r9, r2, r0
 15001e0:	e1e09009 	mvn	r9, r9
		base = c == '0' ? 8 : 10;

	cutoff = MAXUINT(sizeof(UINT32)) / (unsigned long)base;
	cutlim = MAXUINT(sizeof(UINT32)) % (unsigned long)base;
	for (acc = 0, any = 0;; c = (unsigned char) *s++) {
 15001e4:	e3a05000 	mov	r5, #0
 15001e8:	e1a06005 	mov	r6, r5
 15001ec:	ea000009 	b	1500218 <strtoul+0xdc>
			break;
		if (c >= base)
			break;
		if (any < 0)
			continue;
		if ((acc > cutoff) || (acc == cutoff && c > cutlim)) {
 15001f0:	e15e0009 	cmp	lr, r9
 15001f4:	d3a04000 	movle	r4, #0
 15001f8:	c3a04001 	movgt	r4, #1
 15001fc:	e1560000 	cmp	r6, r0
 1500200:	13a04000 	movne	r4, #0
 1500204:	e3540000 	cmp	r4, #0
 1500208:	1a000012 	bne	1500258 <strtoul+0x11c>
			acc = MAXUINT(sizeof(UINT32));
			//errno = ERANGE;
		} else {
			any = 1;
			acc *= (unsigned long)base;
			acc += c;
 150020c:	e026e69a 	mla	r6, sl, r6, lr
		if ((acc > cutoff) || (acc == cutoff && c > cutlim)) {
			any = -1;
			acc = MAXUINT(sizeof(UINT32));
			//errno = ERANGE;
		} else {
			any = 1;
 1500210:	e3a05001 	mov	r5, #1
	if (base == 0)
		base = c == '0' ? 8 : 10;

	cutoff = MAXUINT(sizeof(UINT32)) / (unsigned long)base;
	cutlim = MAXUINT(sizeof(UINT32)) % (unsigned long)base;
	for (acc = 0, any = 0;; c = (unsigned char) *s++) {
 1500214:	e4d3e001 	ldrb	lr, [r3], #1
		if (isdigit(c))
 1500218:	e7d7400e 	ldrb	r4, [r7, lr]
 150021c:	e3140004 	tst	r4, #4
			c -= '0';
 1500220:	124ee030 	subne	lr, lr, #48	; 0x30
		base = c == '0' ? 8 : 10;

	cutoff = MAXUINT(sizeof(UINT32)) / (unsigned long)base;
	cutlim = MAXUINT(sizeof(UINT32)) % (unsigned long)base;
	for (acc = 0, any = 0;; c = (unsigned char) *s++) {
		if (isdigit(c))
 1500224:	1a000005 	bne	1500240 <strtoul+0x104>
			c -= '0';
		else if (isalpha(c))
 1500228:	e3140003 	tst	r4, #3
 150022c:	0a00000c 	beq	1500264 <strtoul+0x128>
			c -= isupper(c) ? 'A' - 10 : 'a' - 10;
 1500230:	e3140001 	tst	r4, #1
 1500234:	13a04037 	movne	r4, #55	; 0x37
 1500238:	03a04057 	moveq	r4, #87	; 0x57
 150023c:	e064e00e 	rsb	lr, r4, lr
		else
			break;
		if (c >= base)
 1500240:	e152000e 	cmp	r2, lr
 1500244:	da000006 	ble	1500264 <strtoul+0x128>
			break;
		if (any < 0)
 1500248:	e3750001 	cmn	r5, #1
 150024c:	0afffff0 	beq	1500214 <strtoul+0xd8>
			continue;
		if ((acc > cutoff) || (acc == cutoff && c > cutlim)) {
 1500250:	e1560000 	cmp	r6, r0
 1500254:	9affffe5 	bls	15001f0 <strtoul+0xb4>
			any = -1;
 1500258:	e3e05000 	mvn	r5, #0
			acc = MAXUINT(sizeof(UINT32));
 150025c:	e1a06005 	mov	r6, r5
 1500260:	eaffffeb 	b	1500214 <strtoul+0xd8>
			any = 1;
			acc *= (unsigned long)base;
			acc += c;
		}
	}
	if (neg && any > 0)
 1500264:	e3550000 	cmp	r5, #0
 1500268:	d3a0c000 	movle	ip, #0
 150026c:	c20cc001 	andgt	ip, ip, #1
		acc = -acc;
	if (endptr != 0)
 1500270:	e3510000 	cmp	r1, #0
 1500274:	e26c0000 	rsb	r0, ip, #0
 1500278:	e0266000 	eor	r6, r6, r0
 150027c:	e086000c 	add	r0, r6, ip
 1500280:	08bd87f0 	popeq	{r4, r5, r6, r7, r8, r9, sl, pc}
		*endptr = (char *) (any ? s - 1 : (char *) str);
 1500284:	e3550000 	cmp	r5, #0
 1500288:	12438001 	subne	r8, r3, #1
 150028c:	e5818000 	str	r8, [r1]
 1500290:	e8bd87f0 	pop	{r4, r5, r6, r7, r8, r9, sl, pc}
	do {
		c = (unsigned char) *s++;
	} while (isspace(c));
	if (c == '-') {
		neg = 1;
		c = *s++;
 1500294:	e2803002 	add	r3, r0, #2
 1500298:	e5d0e001 	ldrb	lr, [r0, #1]
 150029c:	e3a0c001 	mov	ip, #1
 15002a0:	eaffffb6 	b	1500180 <strtoul+0x44>
		neg = 0;
		if (c == '+')
			c = *s++;
	}
	if ((base == 0 || base == 16) &&
	    c == '0' && (*s == 'x' || *s == 'X')) {
 15002a4:	e5d34000 	ldrb	r4, [r3]
 15002a8:	e20440df 	and	r4, r4, #223	; 0xdf
 15002ac:	e3540058 	cmp	r4, #88	; 0x58
 15002b0:	1affffc0 	bne	15001b8 <strtoul+0x7c>
		c = s[1];
		s += 2;
 15002b4:	e3a02010 	mov	r2, #16
		if (c == '+')
			c = *s++;
	}
	if ((base == 0 || base == 16) &&
	    c == '0' && (*s == 'x' || *s == 'X')) {
		c = s[1];
 15002b8:	e5d3e001 	ldrb	lr, [r3, #1]
		s += 2;
		base = 16;
 15002bc:	e1a0a002 	mov	sl, r2
			c = *s++;
	}
	if ((base == 0 || base == 16) &&
	    c == '0' && (*s == 'x' || *s == 'X')) {
		c = s[1];
		s += 2;
 15002c0:	e2833002 	add	r3, r3, #2
 15002c4:	e3a0900f 	mov	r9, #15
 15002c8:	e3e0020f 	mvn	r0, #-268435456	; 0xf0000000
 15002cc:	eaffffc4 	b	15001e4 <strtoul+0xa8>

015002d0 <ctrlc>:
 15002d0:	e3a00000 	mov	r0, #0
 15002d4:	e12fff1e 	bx	lr

015002d8 <printf>:
 15002d8:	e92d000f 	push	{r0, r1, r2, r3}
 15002dc:	e3a00001 	mov	r0, #1
 15002e0:	e28dd010 	add	sp, sp, #16
 15002e4:	e12fff1e 	bx	lr

015002e8 <memcpy>:
 15002e8:	e3520000 	cmp	r2, #0
 15002ec:	012fff1e 	bxeq	lr
 15002f0:	e0812002 	add	r2, r1, r2
 15002f4:	e2403001 	sub	r3, r0, #1
 15002f8:	e4d1c001 	ldrb	ip, [r1], #1
 15002fc:	e5e3c001 	strb	ip, [r3, #1]!
 1500300:	e1510002 	cmp	r1, r2
 1500304:	1afffffb 	bne	15002f8 <memcpy+0x10>
 1500308:	e12fff1e 	bx	lr

0150030c <memcmp>:
 150030c:	e3520000 	cmp	r2, #0
 1500310:	0a000011 	beq	150035c <memcmp+0x50>
 1500314:	e5d03000 	ldrb	r3, [r0]
 1500318:	e1a0c000 	mov	ip, r0
 150031c:	e5d10000 	ldrb	r0, [r1]
 1500320:	e0530000 	subs	r0, r3, r0
 1500324:	112fff1e 	bxne	lr
 1500328:	e08c2002 	add	r2, ip, r2
 150032c:	e28cc001 	add	ip, ip, #1
 1500330:	e52de004 	push	{lr}		; (str lr, [sp, #-4]!)
 1500334:	ea000003 	b	1500348 <memcmp+0x3c>
 1500338:	e4dc3001 	ldrb	r3, [ip], #1
 150033c:	e5f1e001 	ldrb	lr, [r1, #1]!
 1500340:	e053300e 	subs	r3, r3, lr
 1500344:	1a000002 	bne	1500354 <memcmp+0x48>
 1500348:	e15c0002 	cmp	ip, r2
 150034c:	1afffff9 	bne	1500338 <memcmp+0x2c>
 1500350:	e49df004 	pop	{pc}		; (ldr pc, [sp], #4)
 1500354:	e1a00003 	mov	r0, r3
 1500358:	e49df004 	pop	{pc}		; (ldr pc, [sp], #4)
 150035c:	e1a00002 	mov	r0, r2
 1500360:	e12fff1e 	bx	lr

01500364 <do_program>:
 1500364:	e92d4030 	push	{r4, r5, lr}
 1500368:	e3032444 	movw	r2, #13380	; 0x3444
 150036c:	e3402151 	movt	r2, #337	; 0x151
 1500370:	e24dd00c 	sub	sp, sp, #12
 1500374:	e3035444 	movw	r5, #13380	; 0x3444
 1500378:	e3405151 	movt	r5, #337	; 0x151
 150037c:	e3020e64 	movw	r0, #11876	; 0x2e64
 1500380:	e3400150 	movt	r0, #336	; 0x150
 1500384:	e0654002 	rsb	r4, r5, r2
 1500388:	eb0006c4 	bl	1501ea0 <prints>
 150038c:	e3020e88 	movw	r0, #11912	; 0x2e88
 1500390:	e3400150 	movt	r0, #336	; 0x150
 1500394:	eb0006c1 	bl	1501ea0 <prints>
 1500398:	e3540000 	cmp	r4, #0
 150039c:	0a000021 	beq	1500428 <do_program+0xc4>
 15003a0:	e3540010 	cmp	r4, #16
 15003a4:	8a000019 	bhi	1500410 <do_program+0xac>
 15003a8:	e3020ecc 	movw	r0, #11980	; 0x2ecc
 15003ac:	e3400150 	movt	r0, #336	; 0x150
 15003b0:	eb0006ba 	bl	1501ea0 <prints>
 15003b4:	e1a02004 	mov	r2, r4
 15003b8:	e1a01005 	mov	r1, r5
 15003bc:	e3020edc 	movw	r0, #11996	; 0x2edc
 15003c0:	e3400150 	movt	r0, #336	; 0x150
 15003c4:	eb00072c 	bl	150207c <hexdump>
 15003c8:	e303c5c8 	movw	ip, #13768	; 0x35c8
 15003cc:	e340c151 	movt	ip, #337	; 0x151
 15003d0:	e3a0e000 	mov	lr, #0
 15003d4:	e58d4004 	str	r4, [sp, #4]
 15003d8:	e1a01005 	mov	r1, r5
 15003dc:	e58de000 	str	lr, [sp]
 15003e0:	e1a0300e 	mov	r3, lr
 15003e4:	e1a0200e 	mov	r2, lr
 15003e8:	e1a0000e 	mov	r0, lr
 15003ec:	e5cce000 	strb	lr, [ip]
 15003f0:	eb0003d6 	bl	1501350 <obfuse_getset>
 15003f4:	e1a04000 	mov	r4, r0
 15003f8:	eb000682 	bl	1501e08 <sync>
 15003fc:	e3540000 	cmp	r4, #0
 1500400:	1a00000e 	bne	1500440 <do_program+0xdc>
 1500404:	e3a00000 	mov	r0, #0
 1500408:	e28dd00c 	add	sp, sp, #12
 150040c:	e8bd8030 	pop	{r4, r5, pc}
 1500410:	e3020eac 	movw	r0, #11948	; 0x2eac
 1500414:	e3400150 	movt	r0, #336	; 0x150
 1500418:	eb0006a0 	bl	1501ea0 <prints>
 150041c:	e3a00000 	mov	r0, #0
 1500420:	e28dd00c 	add	sp, sp, #12
 1500424:	e8bd8030 	pop	{r4, r5, pc}
 1500428:	e3020ee8 	movw	r0, #12008	; 0x2ee8
 150042c:	e3400150 	movt	r0, #336	; 0x150
 1500430:	eb00069a 	bl	1501ea0 <prints>
 1500434:	e3a00000 	mov	r0, #0
 1500438:	e28dd00c 	add	sp, sp, #12
 150043c:	e8bd8030 	pop	{r4, r5, pc}
 1500440:	eb000670 	bl	1501e08 <sync>
 1500444:	e3a00000 	mov	r0, #0
 1500448:	e28dd00c 	add	sp, sp, #12
 150044c:	e8bd8030 	pop	{r4, r5, pc}

01500450 <efusemain>:
 1500450:	e3032a10 	movw	r2, #14864	; 0x3a10
 1500454:	e3402151 	movt	r2, #337	; 0x151
 1500458:	e30335c8 	movw	r3, #13768	; 0x35c8
 150045c:	e3403151 	movt	r3, #337	; 0x151
 1500460:	e92d4010 	push	{r4, lr}
 1500464:	e3a04000 	mov	r4, #0
 1500468:	e5824000 	str	r4, [r2]
 150046c:	e5c34000 	strb	r4, [r3]
 1500470:	eb00066b 	bl	1501e24 <init_uart>
 1500474:	e1a00004 	mov	r0, r4
 1500478:	eb00067e 	bl	1501e78 <set_focus_uart>
 150047c:	ebffffb8 	bl	1500364 <do_program>
 1500480:	e1500004 	cmp	r0, r4
 1500484:	03020ef8 	movweq	r0, #12024	; 0x2ef8
 1500488:	13020f1c 	movwne	r0, #12060	; 0x2f1c
 150048c:	03400150 	movteq	r0, #336	; 0x150
 1500490:	13400150 	movtne	r0, #336	; 0x150
 1500494:	eb000681 	bl	1501ea0 <prints>
 1500498:	e3a00000 	mov	r0, #0
 150049c:	e8bd8010 	pop	{r4, pc}

015004a0 <alloc_mcp_descriptor>:
 15004a0:	e92d4070 	push	{r4, r5, r6, lr}
 15004a4:	e3034a10 	movw	r4, #14864	; 0x3a10
 15004a8:	e3404151 	movt	r4, #337	; 0x151
 15004ac:	e30f3837 	movw	r3, #63543	; 0xf837
 15004b0:	e34f3ebf 	movt	r3, #65215	; 0xfebf
 15004b4:	e30f27fe 	movw	r2, #63486	; 0xf7fe
 15004b8:	e34f2ebf 	movt	r2, #65215	; 0xfebf
 15004bc:	e5945000 	ldr	r5, [r4]
 15004c0:	e0853003 	add	r3, r5, r3
 15004c4:	e3550000 	cmp	r5, #0
 15004c8:	11530002 	cmpne	r3, r2
 15004cc:	8a000006 	bhi	15004ec <alloc_mcp_descriptor+0x4c>
 15004d0:	e3a03505 	mov	r3, #20971520	; 0x1400000
 15004d4:	e3a02b02 	mov	r2, #2048	; 0x800
 15004d8:	e1a00003 	mov	r0, r3
 15004dc:	e3a01000 	mov	r1, #0
 15004e0:	e5843000 	str	r3, [r4]
 15004e4:	eb000710 	bl	150212c <memset>
 15004e8:	e5945000 	ldr	r5, [r4]
 15004ec:	e3a02038 	mov	r2, #56	; 0x38
 15004f0:	e3a01000 	mov	r1, #0
 15004f4:	e1a00005 	mov	r0, r5
 15004f8:	eb00070b 	bl	150212c <memset>
 15004fc:	e5943000 	ldr	r3, [r4]
 1500500:	e1a00005 	mov	r0, r5
 1500504:	e2833c01 	add	r3, r3, #256	; 0x100
 1500508:	e5843000 	str	r3, [r4]
 150050c:	e8bd8070 	pop	{r4, r5, r6, pc}

01500510 <load_otp>:
 1500510:	e3a01a05 	mov	r1, #20480	; 0x5000
 1500514:	e3491801 	movt	r1, #38913	; 0x9801
 1500518:	e3a00001 	mov	r0, #1
 150051c:	e1a02001 	mov	r2, r1
 1500520:	e3a03801 	mov	r3, #65536	; 0x10000
 1500524:	e581019c 	str	r0, [r1, #412]	; 0x19c
 1500528:	e592019c 	ldr	r0, [r2, #412]	; 0x19c
 150052c:	e2100001 	ands	r0, r0, #1
 1500530:	012fff1e 	bxeq	lr
 1500534:	e2533001 	subs	r3, r3, #1
 1500538:	1afffffa 	bne	1500528 <load_otp+0x18>
 150053c:	e3e00000 	mvn	r0, #0
 1500540:	e12fff1e 	bx	lr

01500544 <do_mcp>:
 1500544:	e2503000 	subs	r3, r0, #0
 1500548:	0a00003d 	beq	1500644 <do_mcp+0x100>
 150054c:	e92d4070 	push	{r4, r5, r6, lr}
 1500550:	e3a05a05 	mov	r5, #20480	; 0x5000
 1500554:	e3495801 	movt	r5, #38913	; 0x9801
 1500558:	e3a0e002 	mov	lr, #2
 150055c:	e283c070 	add	ip, r3, #112	; 0x70
 1500560:	e3a02001 	mov	r2, #1
 1500564:	e3a010fe 	mov	r1, #254	; 0xfe
 1500568:	e5852934 	str	r2, [r5, #2356]	; 0x934
 150056c:	e2832038 	add	r2, r3, #56	; 0x38
 1500570:	e5851908 	str	r1, [r5, #2312]	; 0x908
 1500574:	e3a01038 	mov	r1, #56	; 0x38
 1500578:	e585e900 	str	lr, [r5, #2304]	; 0x900
 150057c:	e585390c 	str	r3, [r5, #2316]	; 0x90c
 1500580:	e585c910 	str	ip, [r5, #2320]	; 0x910
 1500584:	e5853914 	str	r3, [r5, #2324]	; 0x914
 1500588:	e5852918 	str	r2, [r5, #2328]	; 0x918
 150058c:	eb0007b8 	bl	1502474 <flush_cache>
 1500590:	eb00061c 	bl	1501e08 <sync>
 1500594:	f57ff06f 	isb	sy
 1500598:	e3a03003 	mov	r3, #3
 150059c:	e5853900 	str	r3, [r5, #2304]	; 0x900
 15005a0:	eb000618 	bl	1501e08 <sync>
 15005a4:	e5953904 	ldr	r3, [r5, #2308]	; 0x904
 15005a8:	e3130006 	tst	r3, #6
 15005ac:	030f4fff 	movweq	r4, #65535	; 0xffff
 15005b0:	0340407f 	movteq	r4, #127	; 0x7f
 15005b4:	0a000002 	beq	15005c4 <do_mcp+0x80>
 15005b8:	ea000009 	b	15005e4 <do_mcp+0xa0>
 15005bc:	e2544001 	subs	r4, r4, #1
 15005c0:	0a000019 	beq	150062c <do_mcp+0xe8>
 15005c4:	e3a00001 	mov	r0, #1
 15005c8:	eb0005e1 	bl	1501d54 <mdelay>
 15005cc:	eb00060d 	bl	1501e08 <sync>
 15005d0:	e5952904 	ldr	r2, [r5, #2308]	; 0x904
 15005d4:	e3a03a05 	mov	r3, #20480	; 0x5000
 15005d8:	e3493801 	movt	r3, #38913	; 0x9801
 15005dc:	e3120006 	tst	r2, #6
 15005e0:	0afffff5 	beq	15005bc <do_mcp+0x78>
 15005e4:	e3a03a05 	mov	r3, #20480	; 0x5000
 15005e8:	e3493801 	movt	r3, #38913	; 0x9801
 15005ec:	e5932904 	ldr	r2, [r3, #2308]	; 0x904
 15005f0:	e3120002 	tst	r2, #2
 15005f4:	13a00000 	movne	r0, #0
 15005f8:	0a000006 	beq	1500618 <do_mcp+0xd4>
 15005fc:	e3a03a05 	mov	r3, #20480	; 0x5000
 1500600:	e3493801 	movt	r3, #38913	; 0x9801
 1500604:	e3a01002 	mov	r1, #2
 1500608:	e3a02006 	mov	r2, #6
 150060c:	e5831900 	str	r1, [r3, #2304]	; 0x900
 1500610:	e5832904 	str	r2, [r3, #2308]	; 0x904
 1500614:	e8bd8070 	pop	{r4, r5, r6, pc}
 1500618:	e5933904 	ldr	r3, [r3, #2308]	; 0x904
 150061c:	e3130004 	tst	r3, #4
 1500620:	13e00000 	mvnne	r0, #0
 1500624:	03e00001 	mvneq	r0, #1
 1500628:	eafffff3 	b	15005fc <do_mcp+0xb8>
 150062c:	e3a01002 	mov	r1, #2
 1500630:	e3a02006 	mov	r2, #6
 1500634:	e5831900 	str	r1, [r3, #2304]	; 0x900
 1500638:	e3e00002 	mvn	r0, #2
 150063c:	e5832904 	str	r2, [r3, #2308]	; 0x904
 1500640:	e8bd8070 	pop	{r4, r5, r6, pc}
 1500644:	e3e00000 	mvn	r0, #0
 1500648:	e12fff1e 	bx	lr

0150064c <swap_endian>:
 150064c:	e6bf0f30 	rev	r0, r0
 1500650:	e12fff1e 	bx	lr

01500654 <reverse_rsa_signature>:
 1500654:	e92d4030 	push	{r4, r5, lr}
 1500658:	e2801206 	add	r1, r0, #1610612736	; 0x60000000
 150065c:	e30fefff 	movw	lr, #65535	; 0xffff
 1500660:	e340e006 	movt	lr, #6
 1500664:	e24dd014 	sub	sp, sp, #20
 1500668:	e2814010 	add	r4, r1, #16
 150066c:	e1a0c00d 	mov	ip, sp
 1500670:	e1a03001 	mov	r3, r1
 1500674:	e283231a 	add	r2, r3, #1744830464	; 0x68000000
 1500678:	e152000e 	cmp	r2, lr
 150067c:	8a00003f 	bhi	1500780 <reverse_rsa_signature+0x12c>
 1500680:	e5932000 	ldr	r2, [r3]
 1500684:	e2833004 	add	r3, r3, #4
 1500688:	e6bf2f32 	rev	r2, r2
 150068c:	e1530004 	cmp	r3, r4
 1500690:	e48c2004 	str	r2, [ip], #4
 1500694:	1afffff6 	bne	1500674 <reverse_rsa_signature+0x20>
 1500698:	e2803332 	add	r3, r0, #-939524096	; 0xc8000000
 150069c:	e283e01c 	add	lr, r3, #28
 15006a0:	e35e0807 	cmp	lr, #458752	; 0x70000
 15006a4:	2a000080 	bcs	15008ac <reverse_rsa_signature+0x258>
 15006a8:	e591201c 	ldr	r2, [r1, #28]
 15006ac:	e3530807 	cmp	r3, #458752	; 0x70000
 15006b0:	e6bf2f32 	rev	r2, r2
 15006b4:	2a000076 	bcs	1500894 <reverse_rsa_signature+0x240>
 15006b8:	e5812000 	str	r2, [r1]
 15006bc:	e2834018 	add	r4, r3, #24
 15006c0:	e3540807 	cmp	r4, #458752	; 0x70000
 15006c4:	2a00006c 	bcs	150087c <reverse_rsa_signature+0x228>
 15006c8:	e591c018 	ldr	ip, [r1, #24]
 15006cc:	e2832004 	add	r2, r3, #4
 15006d0:	e6bfcf3c 	rev	ip, ip
 15006d4:	e3520807 	cmp	r2, #458752	; 0x70000
 15006d8:	2a000061 	bcs	1500864 <reverse_rsa_signature+0x210>
 15006dc:	e2802246 	add	r2, r0, #1610612740	; 0x60000004
 15006e0:	e582c000 	str	ip, [r2]
 15006e4:	e2835014 	add	r5, r3, #20
 15006e8:	e3550807 	cmp	r5, #458752	; 0x70000
 15006ec:	2a000056 	bcs	150084c <reverse_rsa_signature+0x1f8>
 15006f0:	e591c014 	ldr	ip, [r1, #20]
 15006f4:	e2832008 	add	r2, r3, #8
 15006f8:	e6bfcf3c 	rev	ip, ip
 15006fc:	e3520807 	cmp	r2, #458752	; 0x70000
 1500700:	2a00004b 	bcs	1500834 <reverse_rsa_signature+0x1e0>
 1500704:	e2802286 	add	r2, r0, #1610612744	; 0x60000008
 1500708:	e582c000 	str	ip, [r2]
 150070c:	e283c010 	add	ip, r3, #16
 1500710:	e35c0807 	cmp	ip, #458752	; 0x70000
 1500714:	2a000040 	bcs	150081c <reverse_rsa_signature+0x1c8>
 1500718:	e5912010 	ldr	r2, [r1, #16]
 150071c:	e283300c 	add	r3, r3, #12
 1500720:	e6bf2f32 	rev	r2, r2
 1500724:	e3530807 	cmp	r3, #458752	; 0x70000
 1500728:	2a000035 	bcs	1500804 <reverse_rsa_signature+0x1b0>
 150072c:	e28032c6 	add	r3, r0, #1610612748	; 0x6000000c
 1500730:	e5832000 	str	r2, [r3]
 1500734:	e35c0807 	cmp	ip, #458752	; 0x70000
 1500738:	e59d300c 	ldr	r3, [sp, #12]
 150073c:	2a00002a 	bcs	15007ec <reverse_rsa_signature+0x198>
 1500740:	e5813010 	str	r3, [r1, #16]
 1500744:	e3550807 	cmp	r5, #458752	; 0x70000
 1500748:	e59d3008 	ldr	r3, [sp, #8]
 150074c:	2a000020 	bcs	15007d4 <reverse_rsa_signature+0x180>
 1500750:	e5813014 	str	r3, [r1, #20]
 1500754:	e3540807 	cmp	r4, #458752	; 0x70000
 1500758:	e59d3004 	ldr	r3, [sp, #4]
 150075c:	2a000016 	bcs	15007bc <reverse_rsa_signature+0x168>
 1500760:	e5813018 	str	r3, [r1, #24]
 1500764:	e35e0807 	cmp	lr, #458752	; 0x70000
 1500768:	e59d3000 	ldr	r3, [sp]
 150076c:	2a00000a 	bcs	150079c <reverse_rsa_signature+0x148>
 1500770:	e3a00000 	mov	r0, #0
 1500774:	e581301c 	str	r3, [r1, #28]
 1500778:	e28dd014 	add	sp, sp, #20
 150077c:	e8bd8030 	pop	{r4, r5, pc}
 1500780:	e2832467 	add	r2, r3, #1728053248	; 0x67000000
 1500784:	e283520a 	add	r5, r3, #-1610612736	; 0xa0000000
 1500788:	e282260f 	add	r2, r2, #15728640	; 0xf00000
 150078c:	e3520402 	cmp	r2, #33554432	; 0x2000000
 1500790:	25952000 	ldrcs	r2, [r5]
 1500794:	2affffba 	bcs	1500684 <reverse_rsa_signature+0x30>
 1500798:	eaffffb8 	b	1500680 <reverse_rsa_signature+0x2c>
 150079c:	e2802173 	add	r2, r0, #-1073741796	; 0xc000001c
 15007a0:	e282267f 	add	r2, r2, #133169152	; 0x7f00000
 15007a4:	e3520402 	cmp	r2, #33554432	; 0x2000000
 15007a8:	2580301c 	strcs	r3, [r0, #28]
 15007ac:	3affffef 	bcc	1500770 <reverse_rsa_signature+0x11c>
 15007b0:	e3a00000 	mov	r0, #0
 15007b4:	e28dd014 	add	sp, sp, #20
 15007b8:	e8bd8030 	pop	{r4, r5, pc}
 15007bc:	e2802163 	add	r2, r0, #-1073741800	; 0xc0000018
 15007c0:	e282267f 	add	r2, r2, #133169152	; 0x7f00000
 15007c4:	e3520402 	cmp	r2, #33554432	; 0x2000000
 15007c8:	25803018 	strcs	r3, [r0, #24]
 15007cc:	2affffe4 	bcs	1500764 <reverse_rsa_signature+0x110>
 15007d0:	eaffffe2 	b	1500760 <reverse_rsa_signature+0x10c>
 15007d4:	e2802153 	add	r2, r0, #-1073741804	; 0xc0000014
 15007d8:	e282267f 	add	r2, r2, #133169152	; 0x7f00000
 15007dc:	e3520402 	cmp	r2, #33554432	; 0x2000000
 15007e0:	25803014 	strcs	r3, [r0, #20]
 15007e4:	2affffda 	bcs	1500754 <reverse_rsa_signature+0x100>
 15007e8:	eaffffd8 	b	1500750 <reverse_rsa_signature+0xfc>
 15007ec:	e2802143 	add	r2, r0, #-1073741808	; 0xc0000010
 15007f0:	e282267f 	add	r2, r2, #133169152	; 0x7f00000
 15007f4:	e3520402 	cmp	r2, #33554432	; 0x2000000
 15007f8:	25803010 	strcs	r3, [r0, #16]
 15007fc:	2affffd0 	bcs	1500744 <reverse_rsa_signature+0xf0>
 1500800:	eaffffce 	b	1500740 <reverse_rsa_signature+0xec>
 1500804:	e2803133 	add	r3, r0, #-1073741812	; 0xc000000c
 1500808:	e283367f 	add	r3, r3, #133169152	; 0x7f00000
 150080c:	e3530402 	cmp	r3, #33554432	; 0x2000000
 1500810:	2580200c 	strcs	r2, [r0, #12]
 1500814:	2affffc6 	bcs	1500734 <reverse_rsa_signature+0xe0>
 1500818:	eaffffc3 	b	150072c <reverse_rsa_signature+0xd8>
 150081c:	e2802143 	add	r2, r0, #-1073741808	; 0xc0000010
 1500820:	e282267f 	add	r2, r2, #133169152	; 0x7f00000
 1500824:	e3520402 	cmp	r2, #33554432	; 0x2000000
 1500828:	25902010 	ldrcs	r2, [r0, #16]
 150082c:	2affffba 	bcs	150071c <reverse_rsa_signature+0xc8>
 1500830:	eaffffb8 	b	1500718 <reverse_rsa_signature+0xc4>
 1500834:	e2802123 	add	r2, r0, #-1073741816	; 0xc0000008
 1500838:	e282267f 	add	r2, r2, #133169152	; 0x7f00000
 150083c:	e3520402 	cmp	r2, #33554432	; 0x2000000
 1500840:	2580c008 	strcs	ip, [r0, #8]
 1500844:	2affffb0 	bcs	150070c <reverse_rsa_signature+0xb8>
 1500848:	eaffffad 	b	1500704 <reverse_rsa_signature+0xb0>
 150084c:	e2802153 	add	r2, r0, #-1073741804	; 0xc0000014
 1500850:	e282267f 	add	r2, r2, #133169152	; 0x7f00000
 1500854:	e3520402 	cmp	r2, #33554432	; 0x2000000
 1500858:	2590c014 	ldrcs	ip, [r0, #20]
 150085c:	2affffa4 	bcs	15006f4 <reverse_rsa_signature+0xa0>
 1500860:	eaffffa2 	b	15006f0 <reverse_rsa_signature+0x9c>
 1500864:	e2802113 	add	r2, r0, #-1073741820	; 0xc0000004
 1500868:	e282267f 	add	r2, r2, #133169152	; 0x7f00000
 150086c:	e3520402 	cmp	r2, #33554432	; 0x2000000
 1500870:	2580c004 	strcs	ip, [r0, #4]
 1500874:	2affff9a 	bcs	15006e4 <reverse_rsa_signature+0x90>
 1500878:	eaffff97 	b	15006dc <reverse_rsa_signature+0x88>
 150087c:	e2802163 	add	r2, r0, #-1073741800	; 0xc0000018
 1500880:	e282267f 	add	r2, r2, #133169152	; 0x7f00000
 1500884:	e3520402 	cmp	r2, #33554432	; 0x2000000
 1500888:	2590c018 	ldrcs	ip, [r0, #24]
 150088c:	2affff8e 	bcs	15006cc <reverse_rsa_signature+0x78>
 1500890:	eaffff8c 	b	15006c8 <reverse_rsa_signature+0x74>
 1500894:	e280c4c7 	add	ip, r0, #-956301312	; 0xc7000000
 1500898:	e28cc60f 	add	ip, ip, #15728640	; 0xf00000
 150089c:	e35c0402 	cmp	ip, #33554432	; 0x2000000
 15008a0:	25802000 	strcs	r2, [r0]
 15008a4:	2affff84 	bcs	15006bc <reverse_rsa_signature+0x68>
 15008a8:	eaffff82 	b	15006b8 <reverse_rsa_signature+0x64>
 15008ac:	e2802173 	add	r2, r0, #-1073741796	; 0xc000001c
 15008b0:	e282267f 	add	r2, r2, #133169152	; 0x7f00000
 15008b4:	e3520402 	cmp	r2, #33554432	; 0x2000000
 15008b8:	2590201c 	ldrcs	r2, [r0, #28]
 15008bc:	2affff7a 	bcs	15006ac <reverse_rsa_signature+0x58>
 15008c0:	eaffff78 	b	15006a8 <reverse_rsa_signature+0x54>

015008c4 <AES_CBC_decrypt>:
 15008c4:	e92d41f0 	push	{r4, r5, r6, r7, r8, lr}
 15008c8:	e1a08000 	mov	r8, r0
 15008cc:	e1a06001 	mov	r6, r1
 15008d0:	e1a07002 	mov	r7, r2
 15008d4:	e1a05003 	mov	r5, r3
 15008d8:	ebfffef0 	bl	15004a0 <alloc_mcp_descriptor>
 15008dc:	e2504000 	subs	r4, r0, #0
 15008e0:	0a000017 	beq	1500944 <AES_CBC_decrypt+0x80>
 15008e4:	e3550000 	cmp	r5, #0
 15008e8:	0a00000f 	beq	150092c <AES_CBC_decrypt+0x68>
 15008ec:	e3a03045 	mov	r3, #69	; 0x45
 15008f0:	e5843000 	str	r3, [r4]
 15008f4:	e5953000 	ldr	r3, [r5]
 15008f8:	e5843004 	str	r3, [r4, #4]
 15008fc:	e5953004 	ldr	r3, [r5, #4]
 1500900:	e5843008 	str	r3, [r4, #8]
 1500904:	e5953008 	ldr	r3, [r5, #8]
 1500908:	e584300c 	str	r3, [r4, #12]
 150090c:	e595300c 	ldr	r3, [r5, #12]
 1500910:	e5843010 	str	r3, [r4, #16]
 1500914:	e584802c 	str	r8, [r4, #44]	; 0x2c
 1500918:	e1a00004 	mov	r0, r4
 150091c:	e5847030 	str	r7, [r4, #48]	; 0x30
 1500920:	e5846034 	str	r6, [r4, #52]	; 0x34
 1500924:	e8bd41f0 	pop	{r4, r5, r6, r7, r8, lr}
 1500928:	eaffff05 	b	1500544 <do_mcp>
 150092c:	ebfffef7 	bl	1500510 <load_otp>
 1500930:	e3500000 	cmp	r0, #0
 1500934:	1a000004 	bne	150094c <AES_CBC_decrypt+0x88>
 1500938:	e3013045 	movw	r3, #4165	; 0x1045
 150093c:	e5843000 	str	r3, [r4]
 1500940:	eafffff3 	b	1500914 <AES_CBC_decrypt+0x50>
 1500944:	e3e00000 	mvn	r0, #0
 1500948:	e8bd81f0 	pop	{r4, r5, r6, r7, r8, pc}
 150094c:	e3e00001 	mvn	r0, #1
 1500950:	e8bd81f0 	pop	{r4, r5, r6, r7, r8, pc}

01500954 <AES_CBC_encrypt>:
 1500954:	e92d41f0 	push	{r4, r5, r6, r7, r8, lr}
 1500958:	e1a08000 	mov	r8, r0
 150095c:	e1a06001 	mov	r6, r1
 1500960:	e1a07002 	mov	r7, r2
 1500964:	e1a05003 	mov	r5, r3
 1500968:	ebfffecc 	bl	15004a0 <alloc_mcp_descriptor>
 150096c:	e2504000 	subs	r4, r0, #0
 1500970:	0a000017 	beq	15009d4 <AES_CBC_encrypt+0x80>
 1500974:	e3550000 	cmp	r5, #0
 1500978:	0a00000f 	beq	15009bc <AES_CBC_encrypt+0x68>
 150097c:	e3a03065 	mov	r3, #101	; 0x65
 1500980:	e5843000 	str	r3, [r4]
 1500984:	e5953000 	ldr	r3, [r5]
 1500988:	e5843004 	str	r3, [r4, #4]
 150098c:	e5953004 	ldr	r3, [r5, #4]
 1500990:	e5843008 	str	r3, [r4, #8]
 1500994:	e5953008 	ldr	r3, [r5, #8]
 1500998:	e584300c 	str	r3, [r4, #12]
 150099c:	e595300c 	ldr	r3, [r5, #12]
 15009a0:	e5843010 	str	r3, [r4, #16]
 15009a4:	e584802c 	str	r8, [r4, #44]	; 0x2c
 15009a8:	e1a00004 	mov	r0, r4
 15009ac:	e5847030 	str	r7, [r4, #48]	; 0x30
 15009b0:	e5846034 	str	r6, [r4, #52]	; 0x34
 15009b4:	e8bd41f0 	pop	{r4, r5, r6, r7, r8, lr}
 15009b8:	eafffee1 	b	1500544 <do_mcp>
 15009bc:	ebfffed3 	bl	1500510 <load_otp>
 15009c0:	e3500000 	cmp	r0, #0
 15009c4:	1a000004 	bne	15009dc <AES_CBC_encrypt+0x88>
 15009c8:	e3013065 	movw	r3, #4197	; 0x1065
 15009cc:	e5843000 	str	r3, [r4]
 15009d0:	eafffff3 	b	15009a4 <AES_CBC_encrypt+0x50>
 15009d4:	e3e00000 	mvn	r0, #0
 15009d8:	e8bd81f0 	pop	{r4, r5, r6, r7, r8, pc}
 15009dc:	e3e00001 	mvn	r0, #1
 15009e0:	e8bd81f0 	pop	{r4, r5, r6, r7, r8, pc}

015009e4 <AES_ECB_decrypt>:
 15009e4:	e92d41f0 	push	{r4, r5, r6, r7, r8, lr}
 15009e8:	e1a08000 	mov	r8, r0
 15009ec:	e1a06001 	mov	r6, r1
 15009f0:	e1a07002 	mov	r7, r2
 15009f4:	e1a05003 	mov	r5, r3
 15009f8:	ebfffea8 	bl	15004a0 <alloc_mcp_descriptor>
 15009fc:	e2504000 	subs	r4, r0, #0
 1500a00:	0a000018 	beq	1500a68 <AES_ECB_decrypt+0x84>
 1500a04:	e3550000 	cmp	r5, #0
 1500a08:	0a00000f 	beq	1500a4c <AES_ECB_decrypt+0x68>
 1500a0c:	e3a03005 	mov	r3, #5
 1500a10:	e5843000 	str	r3, [r4]
 1500a14:	e5953000 	ldr	r3, [r5]
 1500a18:	e5843004 	str	r3, [r4, #4]
 1500a1c:	e5953004 	ldr	r3, [r5, #4]
 1500a20:	e5843008 	str	r3, [r4, #8]
 1500a24:	e5953008 	ldr	r3, [r5, #8]
 1500a28:	e584300c 	str	r3, [r4, #12]
 1500a2c:	e595300c 	ldr	r3, [r5, #12]
 1500a30:	e5843010 	str	r3, [r4, #16]
 1500a34:	e584802c 	str	r8, [r4, #44]	; 0x2c
 1500a38:	e1a00004 	mov	r0, r4
 1500a3c:	e5847030 	str	r7, [r4, #48]	; 0x30
 1500a40:	e5846034 	str	r6, [r4, #52]	; 0x34
 1500a44:	e8bd41f0 	pop	{r4, r5, r6, r7, r8, lr}
 1500a48:	eafffebd 	b	1500544 <do_mcp>
 1500a4c:	ebfffeaf 	bl	1500510 <load_otp>
 1500a50:	e3500000 	cmp	r0, #0
 1500a54:	1a000005 	bne	1500a70 <AES_ECB_decrypt+0x8c>
 1500a58:	e3a03a01 	mov	r3, #4096	; 0x1000
 1500a5c:	e3403010 	movt	r3, #16
 1500a60:	e5843000 	str	r3, [r4]
 1500a64:	eafffff2 	b	1500a34 <AES_ECB_decrypt+0x50>
 1500a68:	e3e00000 	mvn	r0, #0
 1500a6c:	e8bd81f0 	pop	{r4, r5, r6, r7, r8, pc}
 1500a70:	e3e00001 	mvn	r0, #1
 1500a74:	e8bd81f0 	pop	{r4, r5, r6, r7, r8, pc}

01500a78 <AES_ECB_encrypt>:
 1500a78:	e92d41f0 	push	{r4, r5, r6, r7, r8, lr}
 1500a7c:	e1a08000 	mov	r8, r0
 1500a80:	e1a07001 	mov	r7, r1
 1500a84:	e1a06002 	mov	r6, r2
 1500a88:	e1a05003 	mov	r5, r3
 1500a8c:	ebfffe83 	bl	15004a0 <alloc_mcp_descriptor>
 1500a90:	e2504000 	subs	r4, r0, #0
 1500a94:	0a000028 	beq	1500b3c <AES_ECB_encrypt+0xc4>
 1500a98:	e3550000 	cmp	r5, #0
 1500a9c:	0a000017 	beq	1500b00 <AES_ECB_encrypt+0x88>
 1500aa0:	e3a03025 	mov	r3, #37	; 0x25
 1500aa4:	e5843000 	str	r3, [r4]
 1500aa8:	e5953000 	ldr	r3, [r5]
 1500aac:	e5843004 	str	r3, [r4, #4]
 1500ab0:	e5953004 	ldr	r3, [r5, #4]
 1500ab4:	e5843008 	str	r3, [r4, #8]
 1500ab8:	e5953008 	ldr	r3, [r5, #8]
 1500abc:	e584300c 	str	r3, [r4, #12]
 1500ac0:	e595300c 	ldr	r3, [r5, #12]
 1500ac4:	e5843010 	str	r3, [r4, #16]
 1500ac8:	e584802c 	str	r8, [r4, #44]	; 0x2c
 1500acc:	e1a00004 	mov	r0, r4
 1500ad0:	e5846030 	str	r6, [r4, #48]	; 0x30
 1500ad4:	e5847034 	str	r7, [r4, #52]	; 0x34
 1500ad8:	ebfffe99 	bl	1500544 <do_mcp>
 1500adc:	e2504000 	subs	r4, r0, #0
 1500ae0:	0a000001 	beq	1500aec <AES_ECB_encrypt+0x74>
 1500ae4:	e1a00004 	mov	r0, r4
 1500ae8:	e8bd81f0 	pop	{r4, r5, r6, r7, r8, pc}
 1500aec:	e1a00006 	mov	r0, r6
 1500af0:	e1a01007 	mov	r1, r7
 1500af4:	eb00065e 	bl	1502474 <flush_cache>
 1500af8:	e1a00004 	mov	r0, r4
 1500afc:	e8bd81f0 	pop	{r4, r5, r6, r7, r8, pc}
 1500b00:	ebfffe82 	bl	1500510 <load_otp>
 1500b04:	e3500000 	cmp	r0, #0
 1500b08:	03013025 	movweq	r3, #4133	; 0x1025
 1500b0c:	05843000 	streq	r3, [r4]
 1500b10:	0affffec 	beq	1500ac8 <AES_ECB_encrypt+0x50>
 1500b14:	e3a030c4 	mov	r3, #196	; 0xc4
 1500b18:	e3022f40 	movw	r2, #12096	; 0x2f40
 1500b1c:	e3402150 	movt	r2, #336	; 0x150
 1500b20:	e3021f60 	movw	r1, #12128	; 0x2f60
 1500b24:	e3401150 	movt	r1, #336	; 0x150
 1500b28:	e3020f68 	movw	r0, #12136	; 0x2f68
 1500b2c:	e3400150 	movt	r0, #336	; 0x150
 1500b30:	ebfffde8 	bl	15002d8 <printf>
 1500b34:	e3e00001 	mvn	r0, #1
 1500b38:	e8bd81f0 	pop	{r4, r5, r6, r7, r8, pc}
 1500b3c:	e3a030be 	mov	r3, #190	; 0xbe
 1500b40:	e3022f40 	movw	r2, #12096	; 0x2f40
 1500b44:	e3402150 	movt	r2, #336	; 0x150
 1500b48:	e3021f60 	movw	r1, #12128	; 0x2f60
 1500b4c:	e3401150 	movt	r1, #336	; 0x150
 1500b50:	e3020f68 	movw	r0, #12136	; 0x2f68
 1500b54:	e3400150 	movt	r0, #336	; 0x150
 1500b58:	ebfffdde 	bl	15002d8 <printf>
 1500b5c:	e3e00000 	mvn	r0, #0
 1500b60:	e8bd81f0 	pop	{r4, r5, r6, r7, r8, pc}

01500b64 <AES_hash_one>:
 1500b64:	e92d4070 	push	{r4, r5, r6, lr}
 1500b68:	e1a06000 	mov	r6, r0
 1500b6c:	e1a04001 	mov	r4, r1
 1500b70:	e1a05002 	mov	r5, r2
 1500b74:	ebfffe49 	bl	15004a0 <alloc_mcp_descriptor>
 1500b78:	e2503000 	subs	r3, r0, #0
 1500b7c:	0a000012 	beq	1500bcc <AES_hash_one+0x68>
 1500b80:	e583602c 	str	r6, [r3, #44]	; 0x2c
 1500b84:	e30dcf39 	movw	ip, #57145	; 0xdf39
 1500b88:	e342cdc2 	movt	ip, #11714	; 0x2dc2
 1500b8c:	e583c01c 	str	ip, [r3, #28]
 1500b90:	e5835030 	str	r5, [r3, #48]	; 0x30
 1500b94:	e30221d0 	movw	r2, #8656	; 0x21d0
 1500b98:	e3442203 	movt	r2, #16899	; 0x4203
 1500b9c:	e5832020 	str	r2, [r3, #32]
 1500ba0:	e5834034 	str	r4, [r3, #52]	; 0x34
 1500ba4:	e30f2e23 	movw	r2, #65059	; 0xfe23
 1500ba8:	e34c2ef1 	movt	r2, #52977	; 0xcef1
 1500bac:	e5832024 	str	r2, [r3, #36]	; 0x24
 1500bb0:	e3a01027 	mov	r1, #39	; 0x27
 1500bb4:	e3092d95 	movw	r2, #40341	; 0x9d95
 1500bb8:	e3472402 	movt	r2, #29698	; 0x7402
 1500bbc:	e5832028 	str	r2, [r3, #40]	; 0x28
 1500bc0:	e5831000 	str	r1, [r3]
 1500bc4:	e8bd4070 	pop	{r4, r5, r6, lr}
 1500bc8:	eafffe5d 	b	1500544 <do_mcp>
 1500bcc:	e3e00000 	mvn	r0, #0
 1500bd0:	e8bd8070 	pop	{r4, r5, r6, pc}

01500bd4 <AES_hash>:
 1500bd4:	e3520000 	cmp	r2, #0
 1500bd8:	13500000 	cmpne	r0, #0
 1500bdc:	0a000050 	beq	1500d24 <AES_hash+0x150>
 1500be0:	e3530000 	cmp	r3, #0
 1500be4:	13510000 	cmpne	r1, #0
 1500be8:	e92d41f0 	push	{r4, r5, r6, r7, r8, lr}
 1500bec:	e1a06001 	mov	r6, r1
 1500bf0:	e1a07003 	mov	r7, r3
 1500bf4:	0a000048 	beq	1500d1c <AES_hash+0x148>
 1500bf8:	e1a08000 	mov	r8, r0
 1500bfc:	e1a04002 	mov	r4, r2
 1500c00:	ebfffe26 	bl	15004a0 <alloc_mcp_descriptor>
 1500c04:	e2505000 	subs	r5, r0, #0
 1500c08:	0a000043 	beq	1500d1c <AES_hash+0x148>
 1500c0c:	e30d3f39 	movw	r3, #57145	; 0xdf39
 1500c10:	e3423dc2 	movt	r3, #11714	; 0x2dc2
 1500c14:	e30221d0 	movw	r2, #8656	; 0x21d0
 1500c18:	e3442203 	movt	r2, #16899	; 0x4203
 1500c1c:	e585301c 	str	r3, [r5, #28]
 1500c20:	e30f3e23 	movw	r3, #65059	; 0xfe23
 1500c24:	e34c3ef1 	movt	r3, #52977	; 0xcef1
 1500c28:	e5853024 	str	r3, [r5, #36]	; 0x24
 1500c2c:	e5852020 	str	r2, [r5, #32]
 1500c30:	e3a03027 	mov	r3, #39	; 0x27
 1500c34:	e3092d95 	movw	r2, #40341	; 0x9d95
 1500c38:	e3472402 	movt	r2, #29698	; 0x7402
 1500c3c:	e5854030 	str	r4, [r5, #48]	; 0x30
 1500c40:	e5852028 	str	r2, [r5, #40]	; 0x28
 1500c44:	e5853000 	str	r3, [r5]
 1500c48:	ea000026 	b	1500ce8 <AES_hash+0x114>
 1500c4c:	e3560000 	cmp	r6, #0
 1500c50:	0a00002f 	beq	1500d14 <AES_hash+0x140>
 1500c54:	e5d41001 	ldrb	r1, [r4, #1]
 1500c58:	e5d43000 	ldrb	r3, [r4]
 1500c5c:	e5d42003 	ldrb	r2, [r4, #3]
 1500c60:	e5d40002 	ldrb	r0, [r4, #2]
 1500c64:	e1a01801 	lsl	r1, r1, #16
 1500c68:	e1813c03 	orr	r3, r1, r3, lsl #24
 1500c6c:	e5951034 	ldr	r1, [r5, #52]	; 0x34
 1500c70:	e1833002 	orr	r3, r3, r2
 1500c74:	e1833400 	orr	r3, r3, r0, lsl #8
 1500c78:	e585301c 	str	r3, [r5, #28]
 1500c7c:	e0888001 	add	r8, r8, r1
 1500c80:	e5d41005 	ldrb	r1, [r4, #5]
 1500c84:	e5d43004 	ldrb	r3, [r4, #4]
 1500c88:	e5d42007 	ldrb	r2, [r4, #7]
 1500c8c:	e5d40006 	ldrb	r0, [r4, #6]
 1500c90:	e1a01801 	lsl	r1, r1, #16
 1500c94:	e1813c03 	orr	r3, r1, r3, lsl #24
 1500c98:	e1833002 	orr	r3, r3, r2
 1500c9c:	e1833400 	orr	r3, r3, r0, lsl #8
 1500ca0:	e5853020 	str	r3, [r5, #32]
 1500ca4:	e5d42009 	ldrb	r2, [r4, #9]
 1500ca8:	e5d40008 	ldrb	r0, [r4, #8]
 1500cac:	e5d4100a 	ldrb	r1, [r4, #10]
 1500cb0:	e1a03802 	lsl	r3, r2, #16
 1500cb4:	e1833c00 	orr	r3, r3, r0, lsl #24
 1500cb8:	e1832002 	orr	r2, r3, r2
 1500cbc:	e1822401 	orr	r2, r2, r1, lsl #8
 1500cc0:	e5852024 	str	r2, [r5, #36]	; 0x24
 1500cc4:	e5d4100d 	ldrb	r1, [r4, #13]
 1500cc8:	e5d4200c 	ldrb	r2, [r4, #12]
 1500ccc:	e5d4300f 	ldrb	r3, [r4, #15]
 1500cd0:	e5d4000e 	ldrb	r0, [r4, #14]
 1500cd4:	e1a01801 	lsl	r1, r1, #16
 1500cd8:	e1812c02 	orr	r2, r1, r2, lsl #24
 1500cdc:	e1822003 	orr	r2, r2, r3
 1500ce0:	e1822400 	orr	r2, r2, r0, lsl #8
 1500ce4:	e5852028 	str	r2, [r5, #40]	; 0x28
 1500ce8:	e1560007 	cmp	r6, r7
 1500cec:	e585802c 	str	r8, [r5, #44]	; 0x2c
 1500cf0:	31a03006 	movcc	r3, r6
 1500cf4:	21a03007 	movcs	r3, r7
 1500cf8:	e1a00005 	mov	r0, r5
 1500cfc:	e5853034 	str	r3, [r5, #52]	; 0x34
 1500d00:	ebfffe0f 	bl	1500544 <do_mcp>
 1500d04:	e3500000 	cmp	r0, #0
 1500d08:	e0676006 	rsb	r6, r7, r6
 1500d0c:	0affffce 	beq	1500c4c <AES_hash+0x78>
 1500d10:	e8bd81f0 	pop	{r4, r5, r6, r7, r8, pc}
 1500d14:	e1a00006 	mov	r0, r6
 1500d18:	e8bd81f0 	pop	{r4, r5, r6, r7, r8, pc}
 1500d1c:	e3e00000 	mvn	r0, #0
 1500d20:	e8bd81f0 	pop	{r4, r5, r6, r7, r8, pc}
 1500d24:	e3e00000 	mvn	r0, #0
 1500d28:	e12fff1e 	bx	lr

01500d2c <SHA1_hash>:
 1500d2c:	e3520000 	cmp	r2, #0
 1500d30:	13500000 	cmpne	r0, #0
 1500d34:	0a00002b 	beq	1500de8 <SHA1_hash+0xbc>
 1500d38:	e92d41f0 	push	{r4, r5, r6, r7, r8, lr}
 1500d3c:	e1a07002 	mov	r7, r2
 1500d40:	e1a06000 	mov	r6, r0
 1500d44:	e1a04003 	mov	r4, r3
 1500d48:	e1a05001 	mov	r5, r1
 1500d4c:	ebfffdd3 	bl	15004a0 <alloc_mcp_descriptor>
 1500d50:	e250c000 	subs	ip, r0, #0
 1500d54:	0a000025 	beq	1500df0 <SHA1_hash+0xc4>
 1500d58:	e3540000 	cmp	r4, #0
 1500d5c:	e3a03004 	mov	r3, #4
 1500d60:	e58c3000 	str	r3, [ip]
 1500d64:	0a00000f 	beq	1500da8 <SHA1_hash+0x7c>
 1500d68:	e5943000 	ldr	r3, [r4]
 1500d6c:	e58c3004 	str	r3, [ip, #4]
 1500d70:	e5943004 	ldr	r3, [r4, #4]
 1500d74:	e58c3008 	str	r3, [ip, #8]
 1500d78:	e5943008 	ldr	r3, [r4, #8]
 1500d7c:	e58c300c 	str	r3, [ip, #12]
 1500d80:	e594300c 	ldr	r3, [r4, #12]
 1500d84:	e58c3010 	str	r3, [ip, #16]
 1500d88:	e5943010 	ldr	r3, [r4, #16]
 1500d8c:	e58c3014 	str	r3, [ip, #20]
 1500d90:	e58c602c 	str	r6, [ip, #44]	; 0x2c
 1500d94:	e1a0000c 	mov	r0, ip
 1500d98:	e58c7030 	str	r7, [ip, #48]	; 0x30
 1500d9c:	e58c5034 	str	r5, [ip, #52]	; 0x34
 1500da0:	e8bd41f0 	pop	{r4, r5, r6, r7, r8, lr}
 1500da4:	eafffde6 	b	1500544 <do_mcp>
 1500da8:	e3022301 	movw	r2, #8961	; 0x2301
 1500dac:	e3462745 	movt	r2, #26437	; 0x6745
 1500db0:	e30a3b89 	movw	r3, #43913	; 0xab89
 1500db4:	e34e3fcd 	movt	r3, #61389	; 0xefcd
 1500db8:	e58c2004 	str	r2, [ip, #4]
 1500dbc:	e30d2cfe 	movw	r2, #56574	; 0xdcfe
 1500dc0:	e34928ba 	movt	r2, #39098	; 0x98ba
 1500dc4:	e58c200c 	str	r2, [ip, #12]
 1500dc8:	e58c3008 	str	r3, [ip, #8]
 1500dcc:	e3053476 	movw	r3, #21622	; 0x5476
 1500dd0:	e3413032 	movt	r3, #4146	; 0x1032
 1500dd4:	e58c3010 	str	r3, [ip, #16]
 1500dd8:	e30e31f0 	movw	r3, #57840	; 0xe1f0
 1500ddc:	e34c33d2 	movt	r3, #50130	; 0xc3d2
 1500de0:	e58c3014 	str	r3, [ip, #20]
 1500de4:	eaffffe9 	b	1500d90 <SHA1_hash+0x64>
 1500de8:	e3e00000 	mvn	r0, #0
 1500dec:	e12fff1e 	bx	lr
 1500df0:	e3e00000 	mvn	r0, #0
 1500df4:	e8bd81f0 	pop	{r4, r5, r6, r7, r8, pc}

01500df8 <do_RSA>:
 1500df8:	e92d4070 	push	{r4, r5, r6, lr}
 1500dfc:	e1a04000 	mov	r4, r0
 1500e00:	e1a05001 	mov	r5, r1
 1500e04:	e24ddc01 	sub	sp, sp, #256	; 0x100
 1500e08:	e1a06002 	mov	r6, r2
 1500e0c:	f57ff04f 	dsb	sy
 1500e10:	eb0003fc 	bl	1501e08 <sync>
 1500e14:	e3a03903 	mov	r3, #49152	; 0xc000
 1500e18:	e3493804 	movt	r3, #38916	; 0x9804
 1500e1c:	e3550000 	cmp	r5, #0
 1500e20:	e3a01002 	mov	r1, #2
 1500e24:	e3a02000 	mov	r2, #0
 1500e28:	e5831f08 	str	r1, [r3, #3848]	; 0xf08
 1500e2c:	e5832f80 	str	r2, [r3, #3968]	; 0xf80
 1500e30:	0a000049 	beq	1500f5c <do_RSA+0x164>
 1500e34:	e3a00b33 	mov	r0, #52224	; 0xcc00
 1500e38:	e3490804 	movt	r0, #38916	; 0x9804
 1500e3c:	e1a01005 	mov	r1, r5
 1500e40:	e3a02c01 	mov	r2, #256	; 0x100
 1500e44:	eb0004c8 	bl	150216c <copy_memory>
 1500e48:	e3a01c01 	mov	r1, #256	; 0x100
 1500e4c:	e3a00b33 	mov	r0, #52224	; 0xcc00
 1500e50:	e3490804 	movt	r0, #38916	; 0x9804
 1500e54:	eb000586 	bl	1502474 <flush_cache>
 1500e58:	e3a02c01 	mov	r2, #256	; 0x100
 1500e5c:	e3a01000 	mov	r1, #0
 1500e60:	e1a0000d 	mov	r0, sp
 1500e64:	eb0004b9 	bl	1502150 <set_memory>
 1500e68:	e1a0100d 	mov	r1, sp
 1500e6c:	e3a02c01 	mov	r2, #256	; 0x100
 1500e70:	e3a03001 	mov	r3, #1
 1500e74:	e30c0d80 	movw	r0, #52608	; 0xcd80
 1500e78:	e3490804 	movt	r0, #38916	; 0x9804
 1500e7c:	e7df3813 	bfi	r3, r3, #16, #16
 1500e80:	e58d3000 	str	r3, [sp]
 1500e84:	eb0004b8 	bl	150216c <copy_memory>
 1500e88:	e1a01004 	mov	r1, r4
 1500e8c:	e3a02c01 	mov	r2, #256	; 0x100
 1500e90:	e30c0780 	movw	r0, #51072	; 0xc780
 1500e94:	e3490804 	movt	r0, #38916	; 0x9804
 1500e98:	eb0004b3 	bl	150216c <copy_memory>
 1500e9c:	e3a02c01 	mov	r2, #256	; 0x100
 1500ea0:	e0841002 	add	r1, r4, r2
 1500ea4:	e3a00cc9 	mov	r0, #51456	; 0xc900
 1500ea8:	e3490804 	movt	r0, #38916	; 0x9804
 1500eac:	e3a05903 	mov	r5, #49152	; 0xc000
 1500eb0:	e3495804 	movt	r5, #38916	; 0x9804
 1500eb4:	eb0004ac 	bl	150216c <copy_memory>
 1500eb8:	e5943200 	ldr	r3, [r4, #512]	; 0x200
 1500ebc:	e6bf3f33 	rev	r3, r3
 1500ec0:	e5853f84 	str	r3, [r5, #3972]	; 0xf84
 1500ec4:	e5953f88 	ldr	r3, [r5, #3976]	; 0xf88
 1500ec8:	e3833102 	orr	r3, r3, #-2147483648	; 0x80000000
 1500ecc:	e5853f88 	str	r3, [r5, #3976]	; 0xf88
 1500ed0:	e5953f0c 	ldr	r3, [r5, #3852]	; 0xf0c
 1500ed4:	e3530023 	cmp	r3, #35	; 0x23
 1500ed8:	130043e9 	movwne	r4, #1001	; 0x3e9
 1500edc:	1a000002 	bne	1500eec <do_RSA+0xf4>
 1500ee0:	ea000006 	b	1500f00 <do_RSA+0x108>
 1500ee4:	e2544001 	subs	r4, r4, #1
 1500ee8:	0a000015 	beq	1500f44 <do_RSA+0x14c>
 1500eec:	e3a00001 	mov	r0, #1
 1500ef0:	eb000397 	bl	1501d54 <mdelay>
 1500ef4:	e5953f0c 	ldr	r3, [r5, #3852]	; 0xf0c
 1500ef8:	e3530023 	cmp	r3, #35	; 0x23
 1500efc:	1afffff8 	bne	1500ee4 <do_RSA+0xec>
 1500f00:	e3a02020 	mov	r2, #32
 1500f04:	e1a00006 	mov	r0, r6
 1500f08:	e0864002 	add	r4, r6, r2
 1500f0c:	e3a01cc9 	mov	r1, #51456	; 0xc900
 1500f10:	e3491804 	movt	r1, #38916	; 0x9804
 1500f14:	eb000494 	bl	150216c <copy_memory>
 1500f18:	e1a01004 	mov	r1, r4
 1500f1c:	e1a00006 	mov	r0, r6
 1500f20:	eb000553 	bl	1502474 <flush_cache>
 1500f24:	e1a00006 	mov	r0, r6
 1500f28:	ebfffdc9 	bl	1500654 <reverse_rsa_signature>
 1500f2c:	e1a00006 	mov	r0, r6
 1500f30:	e1a01004 	mov	r1, r4
 1500f34:	eb00054e 	bl	1502474 <flush_cache>
 1500f38:	e3a00000 	mov	r0, #0
 1500f3c:	e28ddc01 	add	sp, sp, #256	; 0x100
 1500f40:	e8bd8070 	pop	{r4, r5, r6, pc}
 1500f44:	e3020f78 	movw	r0, #12152	; 0x2f78
 1500f48:	e3400150 	movt	r0, #336	; 0x150
 1500f4c:	eb0003d3 	bl	1501ea0 <prints>
 1500f50:	e3a00001 	mov	r0, #1
 1500f54:	e28ddc01 	add	sp, sp, #256	; 0x100
 1500f58:	e8bd8070 	pop	{r4, r5, r6, pc}
 1500f5c:	e1a00005 	mov	r0, r5
 1500f60:	e3a01b33 	mov	r1, #52224	; 0xcc00
 1500f64:	e3491804 	movt	r1, #38916	; 0x9804
 1500f68:	e3a02040 	mov	r2, #64	; 0x40
 1500f6c:	eb000736 	bl	1502c4c <OTP_Get_Word>
 1500f70:	eaffffb4 	b	1500e48 <do_RSA+0x50>

01500f74 <SHA256_hash>:
 1500f74:	e3520000 	cmp	r2, #0
 1500f78:	13500000 	cmpne	r0, #0
 1500f7c:	1a000001 	bne	1500f88 <SHA256_hash+0x14>
 1500f80:	e3a00093 	mov	r0, #147	; 0x93
 1500f84:	e12fff1e 	bx	lr
 1500f88:	e92d41f0 	push	{r4, r5, r6, r7, r8, lr}
 1500f8c:	e1a07002 	mov	r7, r2
 1500f90:	e1a06000 	mov	r6, r0
 1500f94:	e1a04003 	mov	r4, r3
 1500f98:	e1a05001 	mov	r5, r1
 1500f9c:	ebfffd3f 	bl	15004a0 <alloc_mcp_descriptor>
 1500fa0:	e250c000 	subs	ip, r0, #0
 1500fa4:	0a000019 	beq	1501010 <SHA256_hash+0x9c>
 1500fa8:	e3540000 	cmp	r4, #0
 1500fac:	e3a0300b 	mov	r3, #11
 1500fb0:	e58c3000 	str	r3, [ip]
 1500fb4:	0a000017 	beq	1501018 <SHA256_hash+0xa4>
 1500fb8:	e5943000 	ldr	r3, [r4]
 1500fbc:	e58c3004 	str	r3, [ip, #4]
 1500fc0:	e5943004 	ldr	r3, [r4, #4]
 1500fc4:	e58c3008 	str	r3, [ip, #8]
 1500fc8:	e5943008 	ldr	r3, [r4, #8]
 1500fcc:	e58c300c 	str	r3, [ip, #12]
 1500fd0:	e594300c 	ldr	r3, [r4, #12]
 1500fd4:	e58c3010 	str	r3, [ip, #16]
 1500fd8:	e5943010 	ldr	r3, [r4, #16]
 1500fdc:	e58c3014 	str	r3, [ip, #20]
 1500fe0:	e5943014 	ldr	r3, [r4, #20]
 1500fe4:	e58c3018 	str	r3, [ip, #24]
 1500fe8:	e5943018 	ldr	r3, [r4, #24]
 1500fec:	e58c301c 	str	r3, [ip, #28]
 1500ff0:	e594301c 	ldr	r3, [r4, #28]
 1500ff4:	e58c3020 	str	r3, [ip, #32]
 1500ff8:	e58c602c 	str	r6, [ip, #44]	; 0x2c
 1500ffc:	e1a0000c 	mov	r0, ip
 1501000:	e58c7030 	str	r7, [ip, #48]	; 0x30
 1501004:	e58c5034 	str	r5, [ip, #52]	; 0x34
 1501008:	e8bd41f0 	pop	{r4, r5, r6, r7, r8, lr}
 150100c:	eafffd4c 	b	1500544 <do_mcp>
 1501010:	e3a00094 	mov	r0, #148	; 0x94
 1501014:	e8bd81f0 	pop	{r4, r5, r6, r7, r8, pc}
 1501018:	e30e2667 	movw	r2, #58983	; 0xe667
 150101c:	e3462a09 	movt	r2, #27145	; 0x6a09
 1501020:	e30a3e85 	movw	r3, #44677	; 0xae85
 1501024:	e34b3b67 	movt	r3, #47975	; 0xbb67
 1501028:	e58c2004 	str	r2, [ip, #4]
 150102c:	e30f2372 	movw	r2, #62322	; 0xf372
 1501030:	e3432c6e 	movt	r2, #15470	; 0x3c6e
 1501034:	e58c200c 	str	r2, [ip, #12]
 1501038:	e58c3008 	str	r3, [ip, #8]
 150103c:	e305227f 	movw	r2, #21119	; 0x527f
 1501040:	e345210e 	movt	r2, #20750	; 0x510e
 1501044:	e58c2014 	str	r2, [ip, #20]
 1501048:	e30f353a 	movw	r3, #62778	; 0xf53a
 150104c:	e34a354f 	movt	r3, #42319	; 0xa54f
 1501050:	e30d29ab 	movw	r2, #55723	; 0xd9ab
 1501054:	e3412f83 	movt	r2, #8067	; 0x1f83
 1501058:	e58c3010 	str	r3, [ip, #16]
 150105c:	e306388c 	movw	r3, #26764	; 0x688c
 1501060:	e3493b05 	movt	r3, #39685	; 0x9b05
 1501064:	e58c3018 	str	r3, [ip, #24]
 1501068:	e58c201c 	str	r2, [ip, #28]
 150106c:	e30c3d19 	movw	r3, #52505	; 0xcd19
 1501070:	e3453be0 	movt	r3, #23520	; 0x5be0
 1501074:	e58c3020 	str	r3, [ip, #32]
 1501078:	eaffffde 	b	1500ff8 <SHA256_hash+0x84>

0150107c <reverse_signature>:
 150107c:	e2402001 	sub	r2, r0, #1
 1501080:	e2803c01 	add	r3, r0, #256	; 0x100
 1501084:	e280c080 	add	ip, r0, #128	; 0x80
 1501088:	e5730001 	ldrb	r0, [r3, #-1]!
 150108c:	e5f21001 	ldrb	r1, [r2, #1]!
 1501090:	e153000c 	cmp	r3, ip
 1501094:	e5c20000 	strb	r0, [r2]
 1501098:	e5c31000 	strb	r1, [r3]
 150109c:	1afffff9 	bne	1501088 <reverse_signature+0xc>
 15010a0:	e12fff1e 	bx	lr

015010a4 <R1>:
 15010a4:	e92d40f0 	push	{r4, r5, r6, r7, lr}
 15010a8:	e1a07000 	mov	r7, r0
 15010ac:	e1a06001 	mov	r6, r1
 15010b0:	e24dd014 	sub	sp, sp, #20
 15010b4:	e3a01000 	mov	r1, #0
 15010b8:	e1a0000d 	mov	r0, sp
 15010bc:	e30345d0 	movw	r4, #13776	; 0x35d0
 15010c0:	e3404151 	movt	r4, #337	; 0x151
 15010c4:	e1a05002 	mov	r5, r2
 15010c8:	eb000417 	bl	150212c <memset>
 15010cc:	e1a00004 	mov	r0, r4
 15010d0:	e3a02b01 	mov	r2, #1024	; 0x400
 15010d4:	e3a01000 	mov	r1, #0
 15010d8:	e3a0307e 	mov	r3, #126	; 0x7e
 15010dc:	e5cd3000 	strb	r3, [sp]
 15010e0:	e3e03055 	mvn	r3, #85	; 0x55
 15010e4:	e5cd3001 	strb	r3, [sp, #1]
 15010e8:	e3a03025 	mov	r3, #37	; 0x25
 15010ec:	e5cd3002 	strb	r3, [sp, #2]
 15010f0:	e3a03047 	mov	r3, #71	; 0x47
 15010f4:	e5cd3003 	strb	r3, [sp, #3]
 15010f8:	e3a03074 	mov	r3, #116	; 0x74
 15010fc:	e5cd3004 	strb	r3, [sp, #4]
 1501100:	e3a03005 	mov	r3, #5
 1501104:	e5cd3005 	strb	r3, [sp, #5]
 1501108:	e3a03030 	mov	r3, #48	; 0x30
 150110c:	e5cd3006 	strb	r3, [sp, #6]
 1501110:	e3a03077 	mov	r3, #119	; 0x77
 1501114:	e5cd3007 	strb	r3, [sp, #7]
 1501118:	e3e0301b 	mvn	r3, #27
 150111c:	e5cd3008 	strb	r3, [sp, #8]
 1501120:	e3a03068 	mov	r3, #104	; 0x68
 1501124:	e5cd3009 	strb	r3, [sp, #9]
 1501128:	e3a0300b 	mov	r3, #11
 150112c:	e5cd300a 	strb	r3, [sp, #10]
 1501130:	e3a0302d 	mov	r3, #45	; 0x2d
 1501134:	e5cd300b 	strb	r3, [sp, #11]
 1501138:	e3e0302e 	mvn	r3, #46	; 0x2e
 150113c:	e5cd300c 	strb	r3, [sp, #12]
 1501140:	e3e03035 	mvn	r3, #53	; 0x35
 1501144:	e5cd300d 	strb	r3, [sp, #13]
 1501148:	e3e0300e 	mvn	r3, #14
 150114c:	e5cd300e 	strb	r3, [sp, #14]
 1501150:	e3a03060 	mov	r3, #96	; 0x60
 1501154:	e5cd300f 	strb	r3, [sp, #15]
 1501158:	eb0003f3 	bl	150212c <memset>
 150115c:	e3570000 	cmp	r7, #0
 1501160:	1a000025 	bne	15011fc <R1+0x158>
 1501164:	e1a0300d 	mov	r3, sp
 1501168:	e1a02004 	mov	r2, r4
 150116c:	e1a01005 	mov	r1, r5
 1501170:	e1a00006 	mov	r0, r6
 1501174:	ebfffe1a 	bl	15009e4 <AES_ECB_decrypt>
 1501178:	e1a01005 	mov	r1, r5
 150117c:	e1a00004 	mov	r0, r4
 1501180:	eb0004bb 	bl	1502474 <flush_cache>
 1501184:	e5dd3001 	ldrb	r3, [sp, #1]
 1501188:	e5d42001 	ldrb	r2, [r4, #1]
 150118c:	e1a00004 	mov	r0, r4
 1501190:	e5ddc004 	ldrb	ip, [sp, #4]
 1501194:	e1a01005 	mov	r1, r5
 1501198:	e0222003 	eor	r2, r2, r3
 150119c:	e5d43004 	ldrb	r3, [r4, #4]
 15011a0:	e5c42001 	strb	r2, [r4, #1]
 15011a4:	e023300c 	eor	r3, r3, ip
 15011a8:	e5d42008 	ldrb	r2, [r4, #8]
 15011ac:	e5dde008 	ldrb	lr, [sp, #8]
 15011b0:	e5c43004 	strb	r3, [r4, #4]
 15011b4:	e5ddc00a 	ldrb	ip, [sp, #10]
 15011b8:	e022200e 	eor	r2, r2, lr
 15011bc:	e5d4300a 	ldrb	r3, [r4, #10]
 15011c0:	e5c42008 	strb	r2, [r4, #8]
 15011c4:	e023300c 	eor	r3, r3, ip
 15011c8:	e5c4300a 	strb	r3, [r4, #10]
 15011cc:	eb0004a8 	bl	1502474 <flush_cache>
 15011d0:	e1a02005 	mov	r2, r5
 15011d4:	e3a01000 	mov	r1, #0
 15011d8:	e1a0000d 	mov	r0, sp
 15011dc:	eb0003d2 	bl	150212c <memset>
 15011e0:	e1a01005 	mov	r1, r5
 15011e4:	e1a0000d 	mov	r0, sp
 15011e8:	eb0004a1 	bl	1502474 <flush_cache>
 15011ec:	e30305d0 	movw	r0, #13776	; 0x35d0
 15011f0:	e3400151 	movt	r0, #337	; 0x151
 15011f4:	e28dd014 	add	sp, sp, #20
 15011f8:	e8bd80f0 	pop	{r4, r5, r6, r7, pc}
 15011fc:	e5d61001 	ldrb	r1, [r6, #1]
 1501200:	e1a00006 	mov	r0, r6
 1501204:	e5dd2001 	ldrb	r2, [sp, #1]
 1501208:	e1a0300d 	mov	r3, sp
 150120c:	e5d6c004 	ldrb	ip, [r6, #4]
 1501210:	e0222001 	eor	r2, r2, r1
 1501214:	e5dd1004 	ldrb	r1, [sp, #4]
 1501218:	e5d6e008 	ldrb	lr, [r6, #8]
 150121c:	e021100c 	eor	r1, r1, ip
 1501220:	e5ddc008 	ldrb	ip, [sp, #8]
 1501224:	e5d6700a 	ldrb	r7, [r6, #10]
 1501228:	e02ee00c 	eor	lr, lr, ip
 150122c:	e5ddc00a 	ldrb	ip, [sp, #10]
 1501230:	e5c62001 	strb	r2, [r6, #1]
 1501234:	e1a02004 	mov	r2, r4
 1501238:	e5c61004 	strb	r1, [r6, #4]
 150123c:	e02cc007 	eor	ip, ip, r7
 1501240:	e1a01005 	mov	r1, r5
 1501244:	e5c6e008 	strb	lr, [r6, #8]
 1501248:	e5c6c00a 	strb	ip, [r6, #10]
 150124c:	ebfffe09 	bl	1500a78 <AES_ECB_encrypt>
 1501250:	e1a01005 	mov	r1, r5
 1501254:	e1a00004 	mov	r0, r4
 1501258:	eb000485 	bl	1502474 <flush_cache>
 150125c:	eaffffdb 	b	15011d0 <R1+0x12c>

01501260 <R0>:
 1501260:	e92d41f0 	push	{r4, r5, r6, r7, r8, lr}
 1501264:	e30385d0 	movw	r8, #13776	; 0x35d0
 1501268:	e3408151 	movt	r8, #337	; 0x151
 150126c:	e2424001 	sub	r4, r2, #1
 1501270:	e1a05002 	mov	r5, r2
 1501274:	e1a06000 	mov	r6, r0
 1501278:	e1a07001 	mov	r7, r1
 150127c:	e0884004 	add	r4, r8, r4
 1501280:	eb0002e0 	bl	1501e08 <sync>
 1501284:	e1a02006 	mov	r2, r6
 1501288:	e1a01005 	mov	r1, r5
 150128c:	e1a00007 	mov	r0, r7
 1501290:	eb000572 	bl	1502860 <start_program>
 1501294:	eb0002db 	bl	1501e08 <sync>
 1501298:	e1a02005 	mov	r2, r5
 150129c:	e3a01000 	mov	r1, #0
 15012a0:	e30305d0 	movw	r0, #13776	; 0x35d0
 15012a4:	e3400151 	movt	r0, #337	; 0x151
 15012a8:	eb00039f 	bl	150212c <memset>
 15012ac:	e1a02005 	mov	r2, r5
 15012b0:	e30315d0 	movw	r1, #13776	; 0x35d0
 15012b4:	e3401151 	movt	r1, #337	; 0x151
 15012b8:	e1a00007 	mov	r0, r7
 15012bc:	eb000682 	bl	1502ccc <OTP_Get_Byte>
 15012c0:	e1a01005 	mov	r1, r5
 15012c4:	e30305d0 	movw	r0, #13776	; 0x35d0
 15012c8:	e3400151 	movt	r0, #337	; 0x151
 15012cc:	eb000468 	bl	1502474 <flush_cache>
 15012d0:	eb0002cc 	bl	1501e08 <sync>
 15012d4:	eb0002cb 	bl	1501e08 <sync>
 15012d8:	e3550000 	cmp	r5, #0
 15012dc:	0a00000d 	beq	1501318 <R0+0xb8>
 15012e0:	e5d83000 	ldrb	r3, [r8]
 15012e4:	e5d62000 	ldrb	r2, [r6]
 15012e8:	e1520003 	cmp	r2, r3
 15012ec:	030335d0 	movweq	r3, #13776	; 0x35d0
 15012f0:	01a02006 	moveq	r2, r6
 15012f4:	03403151 	movteq	r3, #337	; 0x151
 15012f8:	0a000004 	beq	1501310 <R0+0xb0>
 15012fc:	ea00000a 	b	150132c <R0+0xcc>
 1501300:	e5f20001 	ldrb	r0, [r2, #1]!
 1501304:	e5f31001 	ldrb	r1, [r3, #1]!
 1501308:	e1500001 	cmp	r0, r1
 150130c:	1a000006 	bne	150132c <R0+0xcc>
 1501310:	e1530004 	cmp	r3, r4
 1501314:	1afffff9 	bne	1501300 <R0+0xa0>
 1501318:	e3020f9c 	movw	r0, #12188	; 0x2f9c
 150131c:	e3400150 	movt	r0, #336	; 0x150
 1501320:	eb0002de 	bl	1501ea0 <prints>
 1501324:	e3a00000 	mov	r0, #0
 1501328:	e8bd81f0 	pop	{r4, r5, r6, r7, r8, pc}
 150132c:	e30325c8 	movw	r2, #13768	; 0x35c8
 1501330:	e3402151 	movt	r2, #337	; 0x151
 1501334:	e5d23000 	ldrb	r3, [r2]
 1501338:	e2833001 	add	r3, r3, #1
 150133c:	e6ef3073 	uxtb	r3, r3
 1501340:	e5c23000 	strb	r3, [r2]
 1501344:	e3530004 	cmp	r3, #4
 1501348:	9affffcc 	bls	1501280 <R0+0x20>
 150134c:	eafffff4 	b	1501324 <R0+0xc4>

01501350 <obfuse_getset>:
 1501350:	e92d4ff0 	push	{r4, r5, r6, r7, r8, r9, sl, fp, lr}
 1501354:	e303c9d0 	movw	ip, #14800	; 0x39d0
 1501358:	e340c151 	movt	ip, #337	; 0x151
 150135c:	e24ddf9b 	sub	sp, sp, #620	; 0x26c
 1501360:	e3a06000 	mov	r6, #0
 1501364:	e302ef8c 	movw	lr, #12172	; 0x2f8c
 1501368:	e340e150 	movt	lr, #336	; 0x150
 150136c:	e1a04000 	mov	r4, r0
 1501370:	e1a09001 	mov	r9, r1
 1501374:	e58d6004 	str	r6, [sp, #4]
 1501378:	e1a0a002 	mov	sl, r2
 150137c:	e58dc004 	str	ip, [sp, #4]
 1501380:	e28dc008 	add	ip, sp, #8
 1501384:	e59d5004 	ldr	r5, [sp, #4]
 1501388:	e1a0b003 	mov	fp, r3
 150138c:	e59e0000 	ldr	r0, [lr]
 1501390:	e3e08077 	mvn	r8, #119	; 0x77
 1501394:	e3c5500f 	bic	r5, r5, #15
 1501398:	e58d5004 	str	r5, [sp, #4]
 150139c:	e59d5004 	ldr	r5, [sp, #4]
 15013a0:	e3a07053 	mov	r7, #83	; 0x53
 15013a4:	e59e1004 	ldr	r1, [lr, #4]
 15013a8:	e59e2008 	ldr	r2, [lr, #8]
 15013ac:	e2855010 	add	r5, r5, #16
 15013b0:	e59e300c 	ldr	r3, [lr, #12]
 15013b4:	e8ac000f 	stmia	ip!, {r0, r1, r2, r3}
 15013b8:	e58d5004 	str	r5, [sp, #4]
 15013bc:	e1a01006 	mov	r1, r6
 15013c0:	e28d0068 	add	r0, sp, #104	; 0x68
 15013c4:	e3a02c02 	mov	r2, #512	; 0x200
 15013c8:	e3a0c023 	mov	ip, #35	; 0x23
 15013cc:	e3e0305f 	mvn	r3, #95	; 0x5f
 15013d0:	e5cdc009 	strb	ip, [sp, #9]
 15013d4:	e3a0c03e 	mov	ip, #62	; 0x3e
 15013d8:	e5cd300a 	strb	r3, [sp, #10]
 15013dc:	e3a0305f 	mov	r3, #95	; 0x5f
 15013e0:	e59d5004 	ldr	r5, [sp, #4]
 15013e4:	e5cd300c 	strb	r3, [sp, #12]
 15013e8:	e3e0305e 	mvn	r3, #94	; 0x5e
 15013ec:	e5cd8008 	strb	r8, [sp, #8]
 15013f0:	e5cd300e 	strb	r3, [sp, #14]
 15013f4:	e3e03036 	mvn	r3, #54	; 0x36
 15013f8:	e5cdc00b 	strb	ip, [sp, #11]
 15013fc:	e5cd300f 	strb	r3, [sp, #15]
 1501400:	e3e0300d 	mvn	r3, #13
 1501404:	e5cd700d 	strb	r7, [sp, #13]
 1501408:	e5cd3010 	strb	r3, [sp, #16]
 150140c:	e3a03060 	mov	r3, #96	; 0x60
 1501410:	e5cd3011 	strb	r3, [sp, #17]
 1501414:	e3e03072 	mvn	r3, #114	; 0x72
 1501418:	e5cd3012 	strb	r3, [sp, #18]
 150141c:	e3a03079 	mov	r3, #121	; 0x79
 1501420:	e5cd3013 	strb	r3, [sp, #19]
 1501424:	e3e03054 	mvn	r3, #84	; 0x54
 1501428:	e5cd3014 	strb	r3, [sp, #20]
 150142c:	e3e03057 	mvn	r3, #87	; 0x57
 1501430:	e5cd3015 	strb	r3, [sp, #21]
 1501434:	e3e03037 	mvn	r3, #55	; 0x37
 1501438:	e5cd3016 	strb	r3, [sp, #22]
 150143c:	e3e0302f 	mvn	r3, #47	; 0x2f
 1501440:	e5cd3017 	strb	r3, [sp, #23]
 1501444:	eb000338 	bl	150212c <memset>
 1501448:	e3540001 	cmp	r4, #1
 150144c:	0a00009e 	beq	15016cc <obfuse_getset+0x37c>
 1501450:	3a000095 	bcc	15016ac <obfuse_getset+0x35c>
 1501454:	e3540002 	cmp	r4, #2
 1501458:	0a000002 	beq	1501468 <obfuse_getset+0x118>
 150145c:	e3a00001 	mov	r0, #1
 1501460:	e28ddf9b 	add	sp, sp, #620	; 0x26c
 1501464:	e8bd8ff0 	pop	{r4, r5, r6, r7, r8, r9, sl, fp, pc}
 1501468:	e59d3294 	ldr	r3, [sp, #660]	; 0x294
 150146c:	e1a01009 	mov	r1, r9
 1501470:	e28d0068 	add	r0, sp, #104	; 0x68
 1501474:	e30375c8 	movw	r7, #13768	; 0x35c8
 1501478:	e3407151 	movt	r7, #337	; 0x151
 150147c:	e3c3400f 	bic	r4, r3, #15
 1501480:	e1a02004 	mov	r2, r4
 1501484:	ebfffb97 	bl	15002e8 <memcpy>
 1501488:	e28d3008 	add	r3, sp, #8
 150148c:	e1a02005 	mov	r2, r5
 1501490:	e1a01004 	mov	r1, r4
 1501494:	e28d0068 	add	r0, sp, #104	; 0x68
 1501498:	ebfffd51 	bl	15009e4 <AES_ECB_decrypt>
 150149c:	e1a01004 	mov	r1, r4
 15014a0:	e1a00005 	mov	r0, r5
 15014a4:	eb0003f2 	bl	1502474 <flush_cache>
 15014a8:	e1a02004 	mov	r2, r4
 15014ac:	e1a01005 	mov	r1, r5
 15014b0:	e28d0028 	add	r0, sp, #40	; 0x28
 15014b4:	ebfffb8b 	bl	15002e8 <memcpy>
 15014b8:	e1a01004 	mov	r1, r4
 15014bc:	e28d0028 	add	r0, sp, #40	; 0x28
 15014c0:	eb0003eb 	bl	1502474 <flush_cache>
 15014c4:	e1a01004 	mov	r1, r4
 15014c8:	e1a0000a 	mov	r0, sl
 15014cc:	eb0003e8 	bl	1502474 <flush_cache>
 15014d0:	e1a02004 	mov	r2, r4
 15014d4:	e1a0100a 	mov	r1, sl
 15014d8:	e28d0068 	add	r0, sp, #104	; 0x68
 15014dc:	ebfffb81 	bl	15002e8 <memcpy>
 15014e0:	e1a01004 	mov	r1, r4
 15014e4:	e28d0068 	add	r0, sp, #104	; 0x68
 15014e8:	eb0003e1 	bl	1502474 <flush_cache>
 15014ec:	e28d3008 	add	r3, sp, #8
 15014f0:	e1a02005 	mov	r2, r5
 15014f4:	e1a01004 	mov	r1, r4
 15014f8:	e28d0068 	add	r0, sp, #104	; 0x68
 15014fc:	ebfffd38 	bl	15009e4 <AES_ECB_decrypt>
 1501500:	e1a01004 	mov	r1, r4
 1501504:	e1a00005 	mov	r0, r5
 1501508:	eb0003d9 	bl	1502474 <flush_cache>
 150150c:	e1a02004 	mov	r2, r4
 1501510:	e1a01005 	mov	r1, r5
 1501514:	e28d0038 	add	r0, sp, #56	; 0x38
 1501518:	ebfffb72 	bl	15002e8 <memcpy>
 150151c:	e1a01004 	mov	r1, r4
 1501520:	e28d0038 	add	r0, sp, #56	; 0x38
 1501524:	eb0003d2 	bl	1502474 <flush_cache>
 1501528:	e1a01004 	mov	r1, r4
 150152c:	e1a0000b 	mov	r0, fp
 1501530:	eb0003cf 	bl	1502474 <flush_cache>
 1501534:	e1a02004 	mov	r2, r4
 1501538:	e1a0100b 	mov	r1, fp
 150153c:	e28d0068 	add	r0, sp, #104	; 0x68
 1501540:	ebfffb68 	bl	15002e8 <memcpy>
 1501544:	e1a01004 	mov	r1, r4
 1501548:	e28d0068 	add	r0, sp, #104	; 0x68
 150154c:	eb0003c8 	bl	1502474 <flush_cache>
 1501550:	e28d3008 	add	r3, sp, #8
 1501554:	e1a02005 	mov	r2, r5
 1501558:	e1a01004 	mov	r1, r4
 150155c:	e28d0068 	add	r0, sp, #104	; 0x68
 1501560:	ebfffd1f 	bl	15009e4 <AES_ECB_decrypt>
 1501564:	e1a01004 	mov	r1, r4
 1501568:	e1a00005 	mov	r0, r5
 150156c:	eb0003c0 	bl	1502474 <flush_cache>
 1501570:	e1a02004 	mov	r2, r4
 1501574:	e1a01005 	mov	r1, r5
 1501578:	e28d0048 	add	r0, sp, #72	; 0x48
 150157c:	ebfffb59 	bl	15002e8 <memcpy>
 1501580:	e1a01004 	mov	r1, r4
 1501584:	e28d0048 	add	r0, sp, #72	; 0x48
 1501588:	eb0003b9 	bl	1502474 <flush_cache>
 150158c:	e1a01004 	mov	r1, r4
 1501590:	e59d0290 	ldr	r0, [sp, #656]	; 0x290
 1501594:	eb0003b6 	bl	1502474 <flush_cache>
 1501598:	e1a02004 	mov	r2, r4
 150159c:	e59d1290 	ldr	r1, [sp, #656]	; 0x290
 15015a0:	e28d0068 	add	r0, sp, #104	; 0x68
 15015a4:	ebfffb4f 	bl	15002e8 <memcpy>
 15015a8:	e1a01004 	mov	r1, r4
 15015ac:	e28d0068 	add	r0, sp, #104	; 0x68
 15015b0:	eb0003af 	bl	1502474 <flush_cache>
 15015b4:	e28d3008 	add	r3, sp, #8
 15015b8:	e1a02005 	mov	r2, r5
 15015bc:	e1a01004 	mov	r1, r4
 15015c0:	e28d0068 	add	r0, sp, #104	; 0x68
 15015c4:	ebfffd06 	bl	15009e4 <AES_ECB_decrypt>
 15015c8:	e1a01004 	mov	r1, r4
 15015cc:	e1a00005 	mov	r0, r5
 15015d0:	eb0003a7 	bl	1502474 <flush_cache>
 15015d4:	e1a02004 	mov	r2, r4
 15015d8:	e1a01005 	mov	r1, r5
 15015dc:	e28d0058 	add	r0, sp, #88	; 0x58
 15015e0:	ebfffb40 	bl	15002e8 <memcpy>
 15015e4:	e1a01004 	mov	r1, r4
 15015e8:	e28d0058 	add	r0, sp, #88	; 0x58
 15015ec:	eb0003a0 	bl	1502474 <flush_cache>
 15015f0:	e1a01006 	mov	r1, r6
 15015f4:	e1a02004 	mov	r2, r4
 15015f8:	e28d0018 	add	r0, sp, #24
 15015fc:	eb0002ca 	bl	150212c <memset>
 1501600:	e1a02004 	mov	r2, r4
 1501604:	e28d1018 	add	r1, sp, #24
 1501608:	e3a00a01 	mov	r0, #4096	; 0x1000
 150160c:	eb0005ae 	bl	1502ccc <OTP_Get_Byte>
 1501610:	e1a01004 	mov	r1, r4
 1501614:	e28d0018 	add	r0, sp, #24
 1501618:	eb000395 	bl	1502474 <flush_cache>
 150161c:	eb0001f9 	bl	1501e08 <sync>
 1501620:	e28d3028 	add	r3, sp, #40	; 0x28
 1501624:	e28d2068 	add	r2, sp, #104	; 0x68
 1501628:	e1a01004 	mov	r1, r4
 150162c:	e28d0018 	add	r0, sp, #24
 1501630:	ebfffd10 	bl	1500a78 <AES_ECB_encrypt>
 1501634:	e1a01004 	mov	r1, r4
 1501638:	e28d0068 	add	r0, sp, #104	; 0x68
 150163c:	eb00038c 	bl	1502474 <flush_cache>
 1501640:	e1a01006 	mov	r1, r6
 1501644:	e1a02004 	mov	r2, r4
 1501648:	e28d0018 	add	r0, sp, #24
 150164c:	eb0002b6 	bl	150212c <memset>
 1501650:	e28d3068 	add	r3, sp, #104	; 0x68
 1501654:	e1a02005 	mov	r2, r5
 1501658:	e1a01004 	mov	r1, r4
 150165c:	e28d0038 	add	r0, sp, #56	; 0x38
 1501660:	ebfffd04 	bl	1500a78 <AES_ECB_encrypt>
 1501664:	e1a01004 	mov	r1, r4
 1501668:	e1a00005 	mov	r0, r5
 150166c:	eb000380 	bl	1502474 <flush_cache>
 1501670:	e1a01004 	mov	r1, r4
 1501674:	e28d0038 	add	r0, sp, #56	; 0x38
 1501678:	eb00037d 	bl	1502474 <flush_cache>
 150167c:	e1a02004 	mov	r2, r4
 1501680:	e3a01d26 	mov	r1, #2432	; 0x980
 1501684:	e1a00005 	mov	r0, r5
 1501688:	e5c76000 	strb	r6, [r7]
 150168c:	ebfffef3 	bl	1501260 <R0>
 1501690:	e1a06000 	mov	r6, r0
 1501694:	eb0001db 	bl	1501e08 <sync>
 1501698:	e3560000 	cmp	r6, #0
 150169c:	0a00008c 	beq	15018d4 <obfuse_getset+0x584>
 15016a0:	e1a00006 	mov	r0, r6
 15016a4:	e28ddf9b 	add	sp, sp, #620	; 0x26c
 15016a8:	e8bd8ff0 	pop	{r4, r5, r6, r7, r8, r9, sl, fp, pc}
 15016ac:	e59d2294 	ldr	r2, [sp, #660]	; 0x294
 15016b0:	e3a01ed2 	mov	r1, #3360	; 0xd20
 15016b4:	e1a00009 	mov	r0, r9
 15016b8:	ebfffee8 	bl	1501260 <R0>
 15016bc:	eb0001d1 	bl	1501e08 <sync>
 15016c0:	e3a00001 	mov	r0, #1
 15016c4:	e28ddf9b 	add	sp, sp, #620	; 0x26c
 15016c8:	e8bd8ff0 	pop	{r4, r5, r6, r7, r8, r9, sl, fp, pc}
 15016cc:	e59d3294 	ldr	r3, [sp, #660]	; 0x294
 15016d0:	e1a01006 	mov	r1, r6
 15016d4:	e3a02010 	mov	r2, #16
 15016d8:	e28d0018 	add	r0, sp, #24
 15016dc:	e3c3400f 	bic	r4, r3, #15
 15016e0:	eb000291 	bl	150212c <memset>
 15016e4:	e1a01009 	mov	r1, r9
 15016e8:	e1a02004 	mov	r2, r4
 15016ec:	e28d0068 	add	r0, sp, #104	; 0x68
 15016f0:	e5cd701f 	strb	r7, [sp, #31]
 15016f4:	e3a03022 	mov	r3, #34	; 0x22
 15016f8:	e5cd801d 	strb	r8, [sp, #29]
 15016fc:	e5cd3019 	strb	r3, [sp, #25]
 1501700:	e3a0c07a 	mov	ip, #122	; 0x7a
 1501704:	e5cd3024 	strb	r3, [sp, #36]	; 0x24
 1501708:	e3e0706b 	mvn	r7, #107	; 0x6b
 150170c:	e5cdc018 	strb	ip, [sp, #24]
 1501710:	e3e0e061 	mvn	lr, #97	; 0x61
 1501714:	e5cd701a 	strb	r7, [sp, #26]
 1501718:	e3a0c041 	mov	ip, #65	; 0x41
 150171c:	e5cde01b 	strb	lr, [sp, #27]
 1501720:	e3a03062 	mov	r3, #98	; 0x62
 1501724:	e5cdc01c 	strb	ip, [sp, #28]
 1501728:	e3a0e004 	mov	lr, #4
 150172c:	e5cd301e 	strb	r3, [sp, #30]
 1501730:	e3a0c002 	mov	ip, #2
 1501734:	e5cde020 	strb	lr, [sp, #32]
 1501738:	e3e0307d 	mvn	r3, #125	; 0x7d
 150173c:	e3a0e061 	mov	lr, #97	; 0x61
 1501740:	e5cdc021 	strb	ip, [sp, #33]	; 0x21
 1501744:	e5cde025 	strb	lr, [sp, #37]	; 0x25
 1501748:	e3a0c011 	mov	ip, #17
 150174c:	e5cd3023 	strb	r3, [sp, #35]	; 0x23
 1501750:	e3e0305d 	mvn	r3, #93	; 0x5d
 1501754:	e5cdc026 	strb	ip, [sp, #38]	; 0x26
 1501758:	e5cd3027 	strb	r3, [sp, #39]	; 0x27
 150175c:	e5cd6022 	strb	r6, [sp, #34]	; 0x22
 1501760:	ebfffae0 	bl	15002e8 <memcpy>
 1501764:	e28d3008 	add	r3, sp, #8
 1501768:	e1a02005 	mov	r2, r5
 150176c:	e1a01004 	mov	r1, r4
 1501770:	e28d0068 	add	r0, sp, #104	; 0x68
 1501774:	ebfffc9a 	bl	15009e4 <AES_ECB_decrypt>
 1501778:	e1a01004 	mov	r1, r4
 150177c:	e1a00005 	mov	r0, r5
 1501780:	eb00033b 	bl	1502474 <flush_cache>
 1501784:	e1a02004 	mov	r2, r4
 1501788:	e1a01005 	mov	r1, r5
 150178c:	e28d0028 	add	r0, sp, #40	; 0x28
 1501790:	ebfffad4 	bl	15002e8 <memcpy>
 1501794:	e1a01004 	mov	r1, r4
 1501798:	e28d0028 	add	r0, sp, #40	; 0x28
 150179c:	eb000334 	bl	1502474 <flush_cache>
 15017a0:	e1a02004 	mov	r2, r4
 15017a4:	e1a01006 	mov	r1, r6
 15017a8:	e1a00005 	mov	r0, r5
 15017ac:	eb00025e 	bl	150212c <memset>
 15017b0:	e1a02004 	mov	r2, r4
 15017b4:	e1a0100a 	mov	r1, sl
 15017b8:	e28d0068 	add	r0, sp, #104	; 0x68
 15017bc:	ebfffac9 	bl	15002e8 <memcpy>
 15017c0:	e28d3008 	add	r3, sp, #8
 15017c4:	e1a02005 	mov	r2, r5
 15017c8:	e1a01004 	mov	r1, r4
 15017cc:	e28d0068 	add	r0, sp, #104	; 0x68
 15017d0:	ebfffc83 	bl	15009e4 <AES_ECB_decrypt>
 15017d4:	e1a01004 	mov	r1, r4
 15017d8:	e1a00005 	mov	r0, r5
 15017dc:	eb000324 	bl	1502474 <flush_cache>
 15017e0:	e1a02004 	mov	r2, r4
 15017e4:	e1a01005 	mov	r1, r5
 15017e8:	e28d0038 	add	r0, sp, #56	; 0x38
 15017ec:	ebfffabd 	bl	15002e8 <memcpy>
 15017f0:	e1a01004 	mov	r1, r4
 15017f4:	e28d0038 	add	r0, sp, #56	; 0x38
 15017f8:	eb00031d 	bl	1502474 <flush_cache>
 15017fc:	e1a02004 	mov	r2, r4
 1501800:	e1a01006 	mov	r1, r6
 1501804:	e1a00005 	mov	r0, r5
 1501808:	eb000247 	bl	150212c <memset>
 150180c:	e28d3028 	add	r3, sp, #40	; 0x28
 1501810:	e28d2068 	add	r2, sp, #104	; 0x68
 1501814:	e1a01004 	mov	r1, r4
 1501818:	e28d0018 	add	r0, sp, #24
 150181c:	ebfffc95 	bl	1500a78 <AES_ECB_encrypt>
 1501820:	e1a01004 	mov	r1, r4
 1501824:	e28d0068 	add	r0, sp, #104	; 0x68
 1501828:	eb000311 	bl	1502474 <flush_cache>
 150182c:	e1a02004 	mov	r2, r4
 1501830:	e1a01006 	mov	r1, r6
 1501834:	e28d0018 	add	r0, sp, #24
 1501838:	eb00023b 	bl	150212c <memset>
 150183c:	e28d3068 	add	r3, sp, #104	; 0x68
 1501840:	e1a02005 	mov	r2, r5
 1501844:	e1a01004 	mov	r1, r4
 1501848:	e28d0038 	add	r0, sp, #56	; 0x38
 150184c:	ebfffc89 	bl	1500a78 <AES_ECB_encrypt>
 1501850:	e1a01004 	mov	r1, r4
 1501854:	e1a00005 	mov	r0, r5
 1501858:	eb000305 	bl	1502474 <flush_cache>
 150185c:	e1a02004 	mov	r2, r4
 1501860:	e1a01006 	mov	r1, r6
 1501864:	e28d0038 	add	r0, sp, #56	; 0x38
 1501868:	eb00022f 	bl	150212c <memset>
 150186c:	e1a02004 	mov	r2, r4
 1501870:	e1a01006 	mov	r1, r6
 1501874:	e28d0068 	add	r0, sp, #104	; 0x68
 1501878:	eb00022b 	bl	150212c <memset>
 150187c:	e1a01004 	mov	r1, r4
 1501880:	e28d0038 	add	r0, sp, #56	; 0x38
 1501884:	eb0002fa 	bl	1502474 <flush_cache>
 1501888:	e1a01004 	mov	r1, r4
 150188c:	e28d0068 	add	r0, sp, #104	; 0x68
 1501890:	eb0002f7 	bl	1502474 <flush_cache>
 1501894:	e30335c8 	movw	r3, #13768	; 0x35c8
 1501898:	e3403151 	movt	r3, #337	; 0x151
 150189c:	e1a02004 	mov	r2, r4
 15018a0:	e3a01c09 	mov	r1, #2304	; 0x900
 15018a4:	e1a00005 	mov	r0, r5
 15018a8:	e5c36000 	strb	r6, [r3]
 15018ac:	ebfffe6b 	bl	1501260 <R0>
 15018b0:	e1a02004 	mov	r2, r4
 15018b4:	e1a07000 	mov	r7, r0
 15018b8:	e1a01006 	mov	r1, r6
 15018bc:	e1a00005 	mov	r0, r5
 15018c0:	eb000219 	bl	150212c <memset>
 15018c4:	eb00014f 	bl	1501e08 <sync>
 15018c8:	e1a00007 	mov	r0, r7
 15018cc:	e28ddf9b 	add	sp, sp, #620	; 0x26c
 15018d0:	e8bd8ff0 	pop	{r4, r5, r6, r7, r8, r9, sl, fp, pc}
 15018d4:	e28d3068 	add	r3, sp, #104	; 0x68
 15018d8:	e1a02005 	mov	r2, r5
 15018dc:	e1a01004 	mov	r1, r4
 15018e0:	e28d0048 	add	r0, sp, #72	; 0x48
 15018e4:	ebfffc63 	bl	1500a78 <AES_ECB_encrypt>
 15018e8:	e1a01004 	mov	r1, r4
 15018ec:	e1a00005 	mov	r0, r5
 15018f0:	eb0002df 	bl	1502474 <flush_cache>
 15018f4:	e1a01004 	mov	r1, r4
 15018f8:	e28d0048 	add	r0, sp, #72	; 0x48
 15018fc:	eb0002dc 	bl	1502474 <flush_cache>
 1501900:	e1a02004 	mov	r2, r4
 1501904:	e3a01d46 	mov	r1, #4480	; 0x1180
 1501908:	e1a00005 	mov	r0, r5
 150190c:	e5c76000 	strb	r6, [r7]
 1501910:	ebfffe52 	bl	1501260 <R0>
 1501914:	e1a06000 	mov	r6, r0
 1501918:	eb00013a 	bl	1501e08 <sync>
 150191c:	e3560000 	cmp	r6, #0
 1501920:	1affff5e 	bne	15016a0 <obfuse_getset+0x350>
 1501924:	e28d3068 	add	r3, sp, #104	; 0x68
 1501928:	e1a02005 	mov	r2, r5
 150192c:	e1a01004 	mov	r1, r4
 1501930:	e28d0058 	add	r0, sp, #88	; 0x58
 1501934:	ebfffc4f 	bl	1500a78 <AES_ECB_encrypt>
 1501938:	e1a01004 	mov	r1, r4
 150193c:	e1a00005 	mov	r0, r5
 1501940:	eb0002cb 	bl	1502474 <flush_cache>
 1501944:	e1a01004 	mov	r1, r4
 1501948:	e28d0058 	add	r0, sp, #88	; 0x58
 150194c:	eb0002c8 	bl	1502474 <flush_cache>
 1501950:	e1a00005 	mov	r0, r5
 1501954:	e1a02004 	mov	r2, r4
 1501958:	e3a01d42 	mov	r1, #4224	; 0x1080
 150195c:	e5c76000 	strb	r6, [r7]
 1501960:	ebfffe3e 	bl	1501260 <R0>
 1501964:	e1a05000 	mov	r5, r0
 1501968:	eb000126 	bl	1501e08 <sync>
 150196c:	e3550000 	cmp	r5, #0
 1501970:	11a00005 	movne	r0, r5
 1501974:	1afffeb9 	bne	1501460 <obfuse_getset+0x110>
 1501978:	e1a01004 	mov	r1, r4
 150197c:	e28d0028 	add	r0, sp, #40	; 0x28
 1501980:	e5c75000 	strb	r5, [r7]
 1501984:	eb0002ba 	bl	1502474 <flush_cache>
 1501988:	e1a02004 	mov	r2, r4
 150198c:	e28d1028 	add	r1, sp, #40	; 0x28
 1501990:	e3a00001 	mov	r0, #1
 1501994:	ebfffdc2 	bl	15010a4 <R1>
 1501998:	e1a02004 	mov	r2, r4
 150199c:	e1a01000 	mov	r1, r0
 15019a0:	e28d0068 	add	r0, sp, #104	; 0x68
 15019a4:	ebfffa4f 	bl	15002e8 <memcpy>
 15019a8:	e1a01004 	mov	r1, r4
 15019ac:	e28d0068 	add	r0, sp, #104	; 0x68
 15019b0:	eb0002af 	bl	1502474 <flush_cache>
 15019b4:	e1a02004 	mov	r2, r4
 15019b8:	e3a01c11 	mov	r1, #4352	; 0x1100
 15019bc:	e28d0068 	add	r0, sp, #104	; 0x68
 15019c0:	ebfffe26 	bl	1501260 <R0>
 15019c4:	e1a04000 	mov	r4, r0
 15019c8:	eb00010e 	bl	1501e08 <sync>
 15019cc:	e1a00004 	mov	r0, r4
 15019d0:	eafffea2 	b	1501460 <obfuse_getset+0x110>

015019d4 <R2>:
 15019d4:	e92d4010 	push	{r4, lr}
 15019d8:	e3a02b01 	mov	r2, #1024	; 0x400
 15019dc:	e3a01000 	mov	r1, #0
 15019e0:	e24ddc06 	sub	sp, sp, #1536	; 0x600
 15019e4:	e3a04005 	mov	r4, #5
 15019e8:	e28d0c02 	add	r0, sp, #512	; 0x200
 15019ec:	eb0001ce 	bl	150212c <memset>
 15019f0:	e3a02c01 	mov	r2, #256	; 0x100
 15019f4:	e3a01000 	mov	r1, #0
 15019f8:	e1a0000d 	mov	r0, sp
 15019fc:	eb0001ca 	bl	150212c <memset>
 1501a00:	e3a02c01 	mov	r2, #256	; 0x100
 1501a04:	e3a01000 	mov	r1, #0
 1501a08:	e28d0c01 	add	r0, sp, #256	; 0x100
 1501a0c:	eb0001c6 	bl	150212c <memset>
 1501a10:	e28d1c02 	add	r1, sp, #512	; 0x200
 1501a14:	e3a02c01 	mov	r2, #256	; 0x100
 1501a18:	e3a00000 	mov	r0, #0
 1501a1c:	eb0004aa 	bl	1502ccc <OTP_Get_Byte>
 1501a20:	e3a02020 	mov	r2, #32
 1501a24:	e28d1c03 	add	r1, sp, #768	; 0x300
 1501a28:	e3a00b02 	mov	r0, #2048	; 0x800
 1501a2c:	eb0004a6 	bl	1502ccc <OTP_Get_Byte>
 1501a30:	e3a02010 	mov	r2, #16
 1501a34:	e28d1e32 	add	r1, sp, #800	; 0x320
 1501a38:	e3a00c09 	mov	r0, #2304	; 0x900
 1501a3c:	eb0004a2 	bl	1502ccc <OTP_Get_Byte>
 1501a40:	e3a02010 	mov	r2, #16
 1501a44:	e28d1e33 	add	r1, sp, #816	; 0x330
 1501a48:	e3a00d26 	mov	r0, #2432	; 0x980
 1501a4c:	eb00049e 	bl	1502ccc <OTP_Get_Byte>
 1501a50:	e3a02010 	mov	r2, #16
 1501a54:	e28d1d0d 	add	r1, sp, #832	; 0x340
 1501a58:	e3a00c0b 	mov	r0, #2816	; 0xb00
 1501a5c:	eb00049a 	bl	1502ccc <OTP_Get_Byte>
 1501a60:	e3a02010 	mov	r2, #16
 1501a64:	e28d1e35 	add	r1, sp, #848	; 0x350
 1501a68:	e3a00a01 	mov	r0, #4096	; 0x1000
 1501a6c:	eb000496 	bl	1502ccc <OTP_Get_Byte>
 1501a70:	e3a02010 	mov	r2, #16
 1501a74:	e28d1e36 	add	r1, sp, #864	; 0x360
 1501a78:	e3a00d42 	mov	r0, #4224	; 0x1080
 1501a7c:	eb000492 	bl	1502ccc <OTP_Get_Byte>
 1501a80:	e3a02010 	mov	r2, #16
 1501a84:	e28d1e37 	add	r1, sp, #880	; 0x370
 1501a88:	e3a00c11 	mov	r0, #4352	; 0x1100
 1501a8c:	eb00048e 	bl	1502ccc <OTP_Get_Byte>
 1501a90:	e3a02010 	mov	r2, #16
 1501a94:	e28d1d0e 	add	r1, sp, #896	; 0x380
 1501a98:	e3a00d46 	mov	r0, #4480	; 0x1180
 1501a9c:	eb00048a 	bl	1502ccc <OTP_Get_Byte>
 1501aa0:	e3000da2 	movw	r0, #3490	; 0xda2
 1501aa4:	eb000336 	bl	1502784 <OTP_JUDGE_BIT>
 1501aa8:	e5cd0390 	strb	r0, [sp, #912]	; 0x390
 1501aac:	e3000da4 	movw	r0, #3492	; 0xda4
 1501ab0:	eb000333 	bl	1502784 <OTP_JUDGE_BIT>
 1501ab4:	e5cd0391 	strb	r0, [sp, #913]	; 0x391
 1501ab8:	e3000da6 	movw	r0, #3494	; 0xda6
 1501abc:	eb000330 	bl	1502784 <OTP_JUDGE_BIT>
 1501ac0:	e5cd0392 	strb	r0, [sp, #914]	; 0x392
 1501ac4:	e3000daf 	movw	r0, #3503	; 0xdaf
 1501ac8:	eb00032d 	bl	1502784 <OTP_JUDGE_BIT>
 1501acc:	e5cd0393 	strb	r0, [sp, #915]	; 0x393
 1501ad0:	e3a00edb 	mov	r0, #3504	; 0xdb0
 1501ad4:	eb00032a 	bl	1502784 <OTP_JUDGE_BIT>
 1501ad8:	e5cd0394 	strb	r0, [sp, #916]	; 0x394
 1501adc:	e3000db1 	movw	r0, #3505	; 0xdb1
 1501ae0:	eb000327 	bl	1502784 <OTP_JUDGE_BIT>
 1501ae4:	e5cd0395 	strb	r0, [sp, #917]	; 0x395
 1501ae8:	e3000db2 	movw	r0, #3506	; 0xdb2
 1501aec:	eb000324 	bl	1502784 <OTP_JUDGE_BIT>
 1501af0:	e5cd0396 	strb	r0, [sp, #918]	; 0x396
 1501af4:	e3000db3 	movw	r0, #3507	; 0xdb3
 1501af8:	eb000321 	bl	1502784 <OTP_JUDGE_BIT>
 1501afc:	e5cd0397 	strb	r0, [sp, #919]	; 0x397
 1501b00:	e3000db4 	movw	r0, #3508	; 0xdb4
 1501b04:	eb00031e 	bl	1502784 <OTP_JUDGE_BIT>
 1501b08:	e5cd0398 	strb	r0, [sp, #920]	; 0x398
 1501b0c:	e3000db5 	movw	r0, #3509	; 0xdb5
 1501b10:	eb00031b 	bl	1502784 <OTP_JUDGE_BIT>
 1501b14:	e5cd0399 	strb	r0, [sp, #921]	; 0x399
 1501b18:	e3000db6 	movw	r0, #3510	; 0xdb6
 1501b1c:	eb000318 	bl	1502784 <OTP_JUDGE_BIT>
 1501b20:	e5cd039a 	strb	r0, [sp, #922]	; 0x39a
 1501b24:	e3000db7 	movw	r0, #3511	; 0xdb7
 1501b28:	eb000315 	bl	1502784 <OTP_JUDGE_BIT>
 1501b2c:	e5cd039b 	strb	r0, [sp, #923]	; 0x39b
 1501b30:	e3000db8 	movw	r0, #3512	; 0xdb8
 1501b34:	eb000312 	bl	1502784 <OTP_JUDGE_BIT>
 1501b38:	e5cd039c 	strb	r0, [sp, #924]	; 0x39c
 1501b3c:	e3000dba 	movw	r0, #3514	; 0xdba
 1501b40:	eb00030f 	bl	1502784 <OTP_JUDGE_BIT>
 1501b44:	e5cd039d 	strb	r0, [sp, #925]	; 0x39d
 1501b48:	e3000dbb 	movw	r0, #3515	; 0xdbb
 1501b4c:	eb00030c 	bl	1502784 <OTP_JUDGE_BIT>
 1501b50:	e5cd039e 	strb	r0, [sp, #926]	; 0x39e
 1501b54:	e3000dc2 	movw	r0, #3522	; 0xdc2
 1501b58:	eb000309 	bl	1502784 <OTP_JUDGE_BIT>
 1501b5c:	e5cd039f 	strb	r0, [sp, #927]	; 0x39f
 1501b60:	e3000e0b 	movw	r0, #3595	; 0xe0b
 1501b64:	eb000306 	bl	1502784 <OTP_JUDGE_BIT>
 1501b68:	e5cd03a0 	strb	r0, [sp, #928]	; 0x3a0
 1501b6c:	e3000e0c 	movw	r0, #3596	; 0xe0c
 1501b70:	eb000303 	bl	1502784 <OTP_JUDGE_BIT>
 1501b74:	e5cd03a1 	strb	r0, [sp, #929]	; 0x3a1
 1501b78:	e3000e0e 	movw	r0, #3598	; 0xe0e
 1501b7c:	eb000300 	bl	1502784 <OTP_JUDGE_BIT>
 1501b80:	e5cd03a2 	strb	r0, [sp, #930]	; 0x3a2
 1501b84:	e3000e23 	movw	r0, #3619	; 0xe23
 1501b88:	eb0002fd 	bl	1502784 <OTP_JUDGE_BIT>
 1501b8c:	e5cd03a3 	strb	r0, [sp, #931]	; 0x3a3
 1501b90:	e3000e24 	movw	r0, #3620	; 0xe24
 1501b94:	eb0002fa 	bl	1502784 <OTP_JUDGE_BIT>
 1501b98:	e3a03000 	mov	r3, #0
 1501b9c:	e1a0200d 	mov	r2, sp
 1501ba0:	e5cd03a4 	strb	r0, [sp, #932]	; 0x3a4
 1501ba4:	e30011a5 	movw	r1, #421	; 0x1a5
 1501ba8:	e28d0c02 	add	r0, sp, #512	; 0x200
 1501bac:	ebfffcf0 	bl	1500f74 <SHA256_hash>
 1501bb0:	e28d1c02 	add	r1, sp, #512	; 0x200
 1501bb4:	e30021a5 	movw	r2, #421	; 0x1a5
 1501bb8:	e3020fb0 	movw	r0, #12208	; 0x2fb0
 1501bbc:	e3400150 	movt	r0, #336	; 0x150
 1501bc0:	eb00012d 	bl	150207c <hexdump>
 1501bc4:	e1a0100d 	mov	r1, sp
 1501bc8:	e3a02020 	mov	r2, #32
 1501bcc:	e3020fbc 	movw	r0, #12220	; 0x2fbc
 1501bd0:	e3400150 	movt	r0, #336	; 0x150
 1501bd4:	eb000128 	bl	150207c <hexdump>
 1501bd8:	eb00008a 	bl	1501e08 <sync>
 1501bdc:	e1a0200d 	mov	r2, sp
 1501be0:	e3a01020 	mov	r1, #32
 1501be4:	e3a00c12 	mov	r0, #4608	; 0x1200
 1501be8:	eb00031c 	bl	1502860 <start_program>
 1501bec:	eb000085 	bl	1501e08 <sync>
 1501bf0:	e3a02020 	mov	r2, #32
 1501bf4:	e28d1c01 	add	r1, sp, #256	; 0x100
 1501bf8:	e3a00c12 	mov	r0, #4608	; 0x1200
 1501bfc:	eb000432 	bl	1502ccc <OTP_Get_Byte>
 1501c00:	eb000080 	bl	1501e08 <sync>
 1501c04:	e3a02020 	mov	r2, #32
 1501c08:	e28d1c01 	add	r1, sp, #256	; 0x100
 1501c0c:	e3020fcc 	movw	r0, #12236	; 0x2fcc
 1501c10:	e3400150 	movt	r0, #336	; 0x150
 1501c14:	eb000118 	bl	150207c <hexdump>
 1501c18:	e3a02020 	mov	r2, #32
 1501c1c:	e28d1c01 	add	r1, sp, #256	; 0x100
 1501c20:	e1a0000d 	mov	r0, sp
 1501c24:	ebfff9b8 	bl	150030c <memcmp>
 1501c28:	e3500000 	cmp	r0, #0
 1501c2c:	0a000015 	beq	1501c88 <R2+0x2b4>
 1501c30:	eb000074 	bl	1501e08 <sync>
 1501c34:	e2544001 	subs	r4, r4, #1
 1501c38:	1affffec 	bne	1501bf0 <R2+0x21c>
 1501c3c:	e3020ff0 	movw	r0, #12272	; 0x2ff0
 1501c40:	e3400150 	movt	r0, #336	; 0x150
 1501c44:	eb000095 	bl	1501ea0 <prints>
 1501c48:	eb00006e 	bl	1501e08 <sync>
 1501c4c:	e28d0c02 	add	r0, sp, #512	; 0x200
 1501c50:	e3a02b01 	mov	r2, #1024	; 0x400
 1501c54:	e3a01000 	mov	r1, #0
 1501c58:	eb000133 	bl	150212c <memset>
 1501c5c:	e1a0000d 	mov	r0, sp
 1501c60:	e3a02c01 	mov	r2, #256	; 0x100
 1501c64:	e3a01000 	mov	r1, #0
 1501c68:	eb00012f 	bl	150212c <memset>
 1501c6c:	e28d0c01 	add	r0, sp, #256	; 0x100
 1501c70:	e3a02c01 	mov	r2, #256	; 0x100
 1501c74:	e3a01000 	mov	r1, #0
 1501c78:	eb00012b 	bl	150212c <memset>
 1501c7c:	e3a00000 	mov	r0, #0
 1501c80:	e28ddc06 	add	sp, sp, #1536	; 0x600
 1501c84:	e8bd8010 	pop	{r4, pc}
 1501c88:	e3020fdc 	movw	r0, #12252	; 0x2fdc
 1501c8c:	e3400150 	movt	r0, #336	; 0x150
 1501c90:	eb000082 	bl	1501ea0 <prints>
 1501c94:	eaffffeb 	b	1501c48 <R2+0x274>

01501c98 <obfuse_judge>:
 1501c98:	e3000da6 	movw	r0, #3494	; 0xda6
 1501c9c:	ea0002b8 	b	1502784 <OTP_JUDGE_BIT>

01501ca0 <InitTimer>:
 1501ca0:	e3500001 	cmp	r0, #1
 1501ca4:	9a000001 	bls	1501cb0 <InitTimer+0x10>
 1501ca8:	e3e00000 	mvn	r0, #0
 1501cac:	e12fff1e 	bx	lr
 1501cb0:	e3062d40 	movw	r2, #27968	; 0x6d40
 1501cb4:	e3422600 	movt	r2, #9728	; 0x2600
 1501cb8:	e0802002 	add	r2, r0, r2
 1501cbc:	e3a0ca0b 	mov	ip, #45056	; 0xb000
 1501cc0:	e349c801 	movt	ip, #38913	; 0x9801
 1501cc4:	e1a02102 	lsl	r2, r2, #2
 1501cc8:	e2800001 	add	r0, r0, #1
 1501ccc:	e92d4010 	push	{r4, lr}
 1501cd0:	e1a03300 	lsl	r3, r0, #6
 1501cd4:	e5821000 	str	r1, [r2]
 1501cd8:	e3a0e000 	mov	lr, #0
 1501cdc:	e3a04103 	mov	r4, #-1073741824	; 0xc0000000
 1501ce0:	e582e024 	str	lr, [r2, #36]	; 0x24
 1501ce4:	e3a00001 	mov	r0, #1
 1501ce8:	e582e018 	str	lr, [r2, #24]
 1501cec:	e58c3008 	str	r3, [ip, #8]
 1501cf0:	e5824018 	str	r4, [r2, #24]
 1501cf4:	e8bd8010 	pop	{r4, pc}

01501cf8 <DisableTimer>:
 1501cf8:	e3500001 	cmp	r0, #1
 1501cfc:	93063d49 	movwls	r3, #27977	; 0x6d49
 1501d00:	93a02000 	movls	r2, #0
 1501d04:	93423600 	movtls	r3, #9728	; 0x2600
 1501d08:	90803003 	addls	r3, r0, r3
 1501d0c:	93a00001 	movls	r0, #1
 1501d10:	83e00000 	mvnhi	r0, #0
 1501d14:	91a03103 	lslls	r3, r3, #2
 1501d18:	95832000 	strls	r2, [r3]
 1501d1c:	9503200c 	strls	r2, [r3, #-12]
 1501d20:	e12fff1e 	bx	lr

01501d24 <SystemTimeout>:
 1501d24:	e3500001 	cmp	r0, #1
 1501d28:	9a000001 	bls	1501d34 <SystemTimeout+0x10>
 1501d2c:	e3a00000 	mov	r0, #0
 1501d30:	e12fff1e 	bx	lr
 1501d34:	e3a03a0b 	mov	r3, #45056	; 0xb000
 1501d38:	e3493801 	movt	r3, #38913	; 0x9801
 1501d3c:	e2800001 	add	r0, r0, #1
 1501d40:	e5933008 	ldr	r3, [r3, #8]
 1501d44:	e0133300 	ands	r3, r3, r0, lsl #6
 1501d48:	13a00001 	movne	r0, #1
 1501d4c:	03a00000 	moveq	r0, #0
 1501d50:	e12fff1e 	bx	lr

01501d54 <mdelay>:
 1501d54:	e3043240 	movw	r3, #16960	; 0x4240
 1501d58:	e340300f 	movt	r3, #15
 1501d5c:	e30c2ccd 	movw	r2, #52429	; 0xcccd
 1501d60:	e34c2ccc 	movt	r2, #52428	; 0xcccc
 1501d64:	e0000093 	mul	r0, r3, r0
 1501d68:	e3a03a0b 	mov	r3, #45056	; 0xb000
 1501d6c:	e3493801 	movt	r3, #38913	; 0x9801
 1501d70:	e52de004 	push	{lr}		; (str lr, [sp, #-4]!)
 1501d74:	e0810290 	umull	r0, r1, r0, r2
 1501d78:	e3a0c000 	mov	ip, #0
 1501d7c:	e3a0e040 	mov	lr, #64	; 0x40
 1501d80:	e3a00103 	mov	r0, #-1073741824	; 0xc0000000
 1501d84:	e1a02003 	mov	r2, r3
 1501d88:	e1a01221 	lsr	r1, r1, #4
 1501d8c:	e5831500 	str	r1, [r3, #1280]	; 0x500
 1501d90:	e583c524 	str	ip, [r3, #1316]	; 0x524
 1501d94:	e583c518 	str	ip, [r3, #1304]	; 0x518
 1501d98:	e583e008 	str	lr, [r3, #8]
 1501d9c:	e5830518 	str	r0, [r3, #1304]	; 0x518
 1501da0:	e5923008 	ldr	r3, [r2, #8]
 1501da4:	e3130040 	tst	r3, #64	; 0x40
 1501da8:	0afffffc 	beq	1501da0 <mdelay+0x4c>
 1501dac:	e49df004 	pop	{pc}		; (ldr pc, [sp], #4)

01501db0 <udelay>:
 1501db0:	e3a03ffa 	mov	r3, #1000	; 0x3e8
 1501db4:	e30c2ccd 	movw	r2, #52429	; 0xcccd
 1501db8:	e34c2ccc 	movt	r2, #52428	; 0xcccc
 1501dbc:	e0000093 	mul	r0, r3, r0
 1501dc0:	e3a03a0b 	mov	r3, #45056	; 0xb000
 1501dc4:	e3493801 	movt	r3, #38913	; 0x9801
 1501dc8:	e52de004 	push	{lr}		; (str lr, [sp, #-4]!)
 1501dcc:	e0810290 	umull	r0, r1, r0, r2
 1501dd0:	e3a0c000 	mov	ip, #0
 1501dd4:	e3a0e040 	mov	lr, #64	; 0x40
 1501dd8:	e3a00103 	mov	r0, #-1073741824	; 0xc0000000
 1501ddc:	e1a02003 	mov	r2, r3
 1501de0:	e1a01221 	lsr	r1, r1, #4
 1501de4:	e5831500 	str	r1, [r3, #1280]	; 0x500
 1501de8:	e583c524 	str	ip, [r3, #1316]	; 0x524
 1501dec:	e583c518 	str	ip, [r3, #1304]	; 0x518
 1501df0:	e583e008 	str	lr, [r3, #8]
 1501df4:	e5830518 	str	r0, [r3, #1304]	; 0x518
 1501df8:	e5923008 	ldr	r3, [r2, #8]
 1501dfc:	e3130040 	tst	r3, #64	; 0x40
 1501e00:	0afffffc 	beq	1501df8 <udelay+0x48>
 1501e04:	e49df004 	pop	{pc}		; (ldr pc, [sp], #4)

01501e08 <sync>:
 1501e08:	e3a03000 	mov	r3, #0
 1501e0c:	ee073fba 	mcr	15, 0, r3, cr7, cr10, {5}
 1501e10:	e3a02a0a 	mov	r2, #40960	; 0xa000
 1501e14:	e3492801 	movt	r2, #38913	; 0x9801
 1501e18:	e5823020 	str	r3, [r2, #32]
 1501e1c:	ee073fba 	mcr	15, 0, r3, cr7, cr10, {5}
 1501e20:	e12fff1e 	bx	lr

01501e24 <init_uart>:
 1501e24:	e3a03a07 	mov	r3, #28672	; 0x7000
 1501e28:	e3493800 	movt	r3, #38912	; 0x9800
 1501e2c:	e92d4010 	push	{r4, lr}
 1501e30:	e5932310 	ldr	r2, [r3, #784]	; 0x310
 1501e34:	e3a01000 	mov	r1, #0
 1501e38:	e3a04090 	mov	r4, #144	; 0x90
 1501e3c:	e3a0e00e 	mov	lr, #14
 1501e40:	e3c228ff 	bic	r2, r2, #16711680	; 0xff0000
 1501e44:	e3a0c003 	mov	ip, #3
 1501e48:	e3c22a0f 	bic	r2, r2, #61440	; 0xf000
 1501e4c:	e3a000b7 	mov	r0, #183	; 0xb7
 1501e50:	e3822855 	orr	r2, r2, #5570560	; 0x550000
 1501e54:	e3822a05 	orr	r2, r2, #20480	; 0x5000
 1501e58:	e5832310 	str	r2, [r3, #784]	; 0x310
 1501e5c:	e583480c 	str	r4, [r3, #2060]	; 0x80c
 1501e60:	e583e800 	str	lr, [r3, #2048]	; 0x800
 1501e64:	e5831804 	str	r1, [r3, #2052]	; 0x804
 1501e68:	e583c80c 	str	ip, [r3, #2060]	; 0x80c
 1501e6c:	e5830808 	str	r0, [r3, #2056]	; 0x808
 1501e70:	e5831804 	str	r1, [r3, #2052]	; 0x804
 1501e74:	e8bd8010 	pop	{r4, pc}

01501e78 <set_focus_uart>:
 1501e78:	e3032448 	movw	r2, #13384	; 0x3448
 1501e7c:	e3402151 	movt	r2, #337	; 0x151
 1501e80:	e3500000 	cmp	r0, #0
 1501e84:	e3a01cb2 	mov	r1, #45568	; 0xb200
 1501e88:	e3491801 	movt	r1, #38913	; 0x9801
 1501e8c:	e3a03b1e 	mov	r3, #30720	; 0x7800
 1501e90:	e3493800 	movt	r3, #38912	; 0x9800
 1501e94:	11a03001 	movne	r3, r1
 1501e98:	e5823000 	str	r3, [r2]
 1501e9c:	e12fff1e 	bx	lr

01501ea0 <prints>:
 1501ea0:	e5d03000 	ldrb	r3, [r0]
 1501ea4:	e3530000 	cmp	r3, #0
 1501ea8:	012fff1e 	bxeq	lr
 1501eac:	e3032448 	movw	r2, #13384	; 0x3448
 1501eb0:	e3402151 	movt	r2, #337	; 0x151
 1501eb4:	e3a0c00d 	mov	ip, #13
 1501eb8:	e5922000 	ldr	r2, [r2]
 1501ebc:	e353000a 	cmp	r3, #10
 1501ec0:	11a01003 	movne	r1, r3
 1501ec4:	0a000008 	beq	1501eec <prints+0x4c>
 1501ec8:	e5923014 	ldr	r3, [r2, #20]
 1501ecc:	e2033060 	and	r3, r3, #96	; 0x60
 1501ed0:	e3530060 	cmp	r3, #96	; 0x60
 1501ed4:	1afffffb 	bne	1501ec8 <prints+0x28>
 1501ed8:	e5821000 	str	r1, [r2]
 1501edc:	e5f03001 	ldrb	r3, [r0, #1]!
 1501ee0:	e3530000 	cmp	r3, #0
 1501ee4:	1afffff4 	bne	1501ebc <prints+0x1c>
 1501ee8:	e12fff1e 	bx	lr
 1501eec:	e5923014 	ldr	r3, [r2, #20]
 1501ef0:	e2033060 	and	r3, r3, #96	; 0x60
 1501ef4:	e3530060 	cmp	r3, #96	; 0x60
 1501ef8:	1afffffb 	bne	1501eec <prints+0x4c>
 1501efc:	e582c000 	str	ip, [r2]
 1501f00:	e3a0100a 	mov	r1, #10
 1501f04:	eaffffef 	b	1501ec8 <prints+0x28>

01501f08 <wait_done>:
 1501f08:	e5903000 	ldr	r3, [r0]
 1501f0c:	e0033001 	and	r3, r3, r1
 1501f10:	e1530002 	cmp	r3, r2
 1501f14:	0a000012 	beq	1501f64 <wait_done+0x5c>
 1501f18:	e92d41f0 	push	{r4, r5, r6, r7, r8, lr}
 1501f1c:	e1a07002 	mov	r7, r2
 1501f20:	e1a06001 	mov	r6, r1
 1501f24:	e1a05000 	mov	r5, r0
 1501f28:	e3004bb9 	movw	r4, #3001	; 0xbb9
 1501f2c:	ea000001 	b	1501f38 <wait_done+0x30>
 1501f30:	e2544001 	subs	r4, r4, #1
 1501f34:	0a000006 	beq	1501f54 <wait_done+0x4c>
 1501f38:	e3a00001 	mov	r0, #1
 1501f3c:	ebffff84 	bl	1501d54 <mdelay>
 1501f40:	e5953000 	ldr	r3, [r5]
 1501f44:	e0033006 	and	r3, r3, r6
 1501f48:	e1530007 	cmp	r3, r7
 1501f4c:	1afffff7 	bne	1501f30 <wait_done+0x28>
 1501f50:	e8bd81f0 	pop	{r4, r5, r6, r7, r8, pc}
 1501f54:	e303000c 	movw	r0, #12300	; 0x300c
 1501f58:	e3400150 	movt	r0, #336	; 0x150
 1501f5c:	e8bd41f0 	pop	{r4, r5, r6, r7, r8, lr}
 1501f60:	eaffffce 	b	1501ea0 <prints>
 1501f64:	e12fff1e 	bx	lr

01501f68 <print_val>:
 1501f68:	e3033448 	movw	r3, #13384	; 0x3448
 1501f6c:	e3403151 	movt	r3, #337	; 0x151
 1501f70:	e2411001 	sub	r1, r1, #1
 1501f74:	e5932000 	ldr	r2, [r3]
 1501f78:	e1a03101 	lsl	r3, r1, #2
 1501f7c:	e1a03330 	lsr	r3, r0, r3
 1501f80:	e203300f 	and	r3, r3, #15
 1501f84:	e353000a 	cmp	r3, #10
 1501f88:	33a0c030 	movcc	ip, #48	; 0x30
 1501f8c:	23a0c037 	movcs	ip, #55	; 0x37
 1501f90:	e08cc003 	add	ip, ip, r3
 1501f94:	e5923014 	ldr	r3, [r2, #20]
 1501f98:	e2033060 	and	r3, r3, #96	; 0x60
 1501f9c:	e3530060 	cmp	r3, #96	; 0x60
 1501fa0:	1afffffb 	bne	1501f94 <print_val+0x2c>
 1501fa4:	e2411001 	sub	r1, r1, #1
 1501fa8:	e582c000 	str	ip, [r2]
 1501fac:	e3710001 	cmn	r1, #1
 1501fb0:	1afffff0 	bne	1501f78 <print_val+0x10>
 1501fb4:	e12fff1e 	bx	lr

01501fb8 <print_hex>:
 1501fb8:	e3a01008 	mov	r1, #8
 1501fbc:	eaffffe9 	b	1501f68 <print_val>

01501fc0 <sys_dcache_flush_all>:
 1501fc0:	e12fff1e 	bx	lr

01501fc4 <put_char>:
 1501fc4:	e3033448 	movw	r3, #13384	; 0x3448
 1501fc8:	e3403151 	movt	r3, #337	; 0x151
 1501fcc:	e5932000 	ldr	r2, [r3]
 1501fd0:	e5923014 	ldr	r3, [r2, #20]
 1501fd4:	e2033060 	and	r3, r3, #96	; 0x60
 1501fd8:	e3530060 	cmp	r3, #96	; 0x60
 1501fdc:	1afffffb 	bne	1501fd0 <put_char+0xc>
 1501fe0:	e5820000 	str	r0, [r2]
 1501fe4:	e12fff1e 	bx	lr

01501fe8 <hexstr2int>:
 1501fe8:	e3a02010 	mov	r2, #16
 1501fec:	e3a01000 	mov	r1, #0
 1501ff0:	eafff851 	b	150013c <strtoul>

01501ff4 <simple_malloc>:
 1501ff4:	e3032a14 	movw	r2, #14868	; 0x3a14
 1501ff8:	e3402151 	movt	r2, #337	; 0x151
 1501ffc:	e92d4010 	push	{r4, lr}
 1502000:	e5924000 	ldr	r4, [r2]
 1502004:	e080e004 	add	lr, r0, r4
 1502008:	e35e0401 	cmp	lr, #16777216	; 0x1000000
 150200c:	8a00000b 	bhi	1502040 <simple_malloc+0x4c>
 1502010:	e303c448 	movw	ip, #13384	; 0x3448
 1502014:	e340c151 	movt	ip, #337	; 0x151
 1502018:	e3100003 	tst	r0, #3
 150201c:	13c03003 	bicne	r3, r0, #3
 1502020:	e59c1004 	ldr	r1, [ip, #4]
 1502024:	12830004 	addne	r0, r3, #4
 1502028:	1080e004 	addne	lr, r0, r4
 150202c:	e582e000 	str	lr, [r2]
 1502030:	e0803001 	add	r3, r0, r1
 1502034:	e1a00001 	mov	r0, r1
 1502038:	e58c3004 	str	r3, [ip, #4]
 150203c:	e8bd8010 	pop	{r4, pc}
 1502040:	e3a00000 	mov	r0, #0
 1502044:	e8bd8010 	pop	{r4, pc}

01502048 <is_hex_digit>:
 1502048:	e2403030 	sub	r3, r0, #48	; 0x30
 150204c:	e3530009 	cmp	r3, #9
 1502050:	9a000007 	bls	1502074 <is_hex_digit+0x2c>
 1502054:	e2403041 	sub	r3, r0, #65	; 0x41
 1502058:	e3530005 	cmp	r3, #5
 150205c:	9a000004 	bls	1502074 <is_hex_digit+0x2c>
 1502060:	e2400061 	sub	r0, r0, #97	; 0x61
 1502064:	e3500005 	cmp	r0, #5
 1502068:	93a00000 	movls	r0, #0
 150206c:	83e00000 	mvnhi	r0, #0
 1502070:	e12fff1e 	bx	lr
 1502074:	e3a00000 	mov	r0, #0
 1502078:	e12fff1e 	bx	lr

0150207c <hexdump>:
 150207c:	e3520000 	cmp	r2, #0
 1502080:	13510000 	cmpne	r1, #0
 1502084:	e92d4070 	push	{r4, r5, r6, lr}
 1502088:	03a04001 	moveq	r4, #1
 150208c:	13a04000 	movne	r4, #0
 1502090:	0a000021 	beq	150211c <hexdump+0xa0>
 1502094:	e3500000 	cmp	r0, #0
 1502098:	e3033004 	movw	r3, #12292	; 0x3004
 150209c:	e3403150 	movt	r3, #336	; 0x150
 15020a0:	01a00003 	moveq	r0, r3
 15020a4:	e1a05001 	mov	r5, r1
 15020a8:	e1a06002 	mov	r6, r2
 15020ac:	ebffff7b 	bl	1501ea0 <prints>
 15020b0:	e3030020 	movw	r0, #12320	; 0x3020
 15020b4:	e3400150 	movt	r0, #336	; 0x150
 15020b8:	ebffff78 	bl	1501ea0 <prints>
 15020bc:	e1a00005 	mov	r0, r5
 15020c0:	e3a01008 	mov	r1, #8
 15020c4:	e2455001 	sub	r5, r5, #1
 15020c8:	ebffffa6 	bl	1501f68 <print_val>
 15020cc:	e3030028 	movw	r0, #12328	; 0x3028
 15020d0:	e3400150 	movt	r0, #336	; 0x150
 15020d4:	ebffff71 	bl	1501ea0 <prints>
 15020d8:	e3a01002 	mov	r1, #2
 15020dc:	e5f50001 	ldrb	r0, [r5, #1]!
 15020e0:	ebffffa0 	bl	1501f68 <print_val>
 15020e4:	e204300f 	and	r3, r4, #15
 15020e8:	e353000f 	cmp	r3, #15
 15020ec:	e303002c 	movw	r0, #12332	; 0x302c
 15020f0:	e3400150 	movt	r0, #336	; 0x150
 15020f4:	0303001c 	movweq	r0, #12316	; 0x301c
 15020f8:	03400150 	movteq	r0, #336	; 0x150
 15020fc:	e2844001 	add	r4, r4, #1
 1502100:	ebffff66 	bl	1501ea0 <prints>
 1502104:	e1540006 	cmp	r4, r6
 1502108:	1afffff2 	bne	15020d8 <hexdump+0x5c>
 150210c:	e303001c 	movw	r0, #12316	; 0x301c
 1502110:	e3400150 	movt	r0, #336	; 0x150
 1502114:	e8bd4070 	pop	{r4, r5, r6, lr}
 1502118:	eaffff60 	b	1501ea0 <prints>
 150211c:	e3030018 	movw	r0, #12312	; 0x3018
 1502120:	e3400150 	movt	r0, #336	; 0x150
 1502124:	e8bd4070 	pop	{r4, r5, r6, lr}
 1502128:	eaffff5c 	b	1501ea0 <prints>

0150212c <memset>:
 150212c:	e3520000 	cmp	r2, #0
 1502130:	e6ef1071 	uxtb	r1, r1
 1502134:	012fff1e 	bxeq	lr
 1502138:	e0802002 	add	r2, r0, r2
 150213c:	e1a03000 	mov	r3, r0
 1502140:	e4c31001 	strb	r1, [r3], #1
 1502144:	e1530002 	cmp	r3, r2
 1502148:	1afffffc 	bne	1502140 <memset+0x14>
 150214c:	e12fff1e 	bx	lr

01502150 <set_memory>:
 1502150:	e3520000 	cmp	r2, #0
 1502154:	012fff1e 	bxeq	lr
 1502158:	e0802002 	add	r2, r0, r2
 150215c:	e4c01001 	strb	r1, [r0], #1
 1502160:	e1500002 	cmp	r0, r2
 1502164:	1afffffc 	bne	150215c <set_memory+0xc>
 1502168:	e12fff1e 	bx	lr

0150216c <copy_memory>:
 150216c:	e1813002 	orr	r3, r1, r2
 1502170:	e24dd008 	sub	sp, sp, #8
 1502174:	e1803003 	orr	r3, r0, r3
 1502178:	e2133003 	ands	r3, r3, #3
 150217c:	1a00000f 	bne	15021c0 <copy_memory+0x54>
 1502180:	e58d3004 	str	r3, [sp, #4]
 1502184:	e59d3004 	ldr	r3, [sp, #4]
 1502188:	e1520003 	cmp	r2, r3
 150218c:	9a000009 	bls	15021b8 <copy_memory+0x4c>
 1502190:	e59d3004 	ldr	r3, [sp, #4]
 1502194:	e59dc004 	ldr	ip, [sp, #4]
 1502198:	e791c00c 	ldr	ip, [r1, ip]
 150219c:	e780c003 	str	ip, [r0, r3]
 15021a0:	e59d3004 	ldr	r3, [sp, #4]
 15021a4:	e2833004 	add	r3, r3, #4
 15021a8:	e58d3004 	str	r3, [sp, #4]
 15021ac:	e59d3004 	ldr	r3, [sp, #4]
 15021b0:	e1520003 	cmp	r2, r3
 15021b4:	8afffff5 	bhi	1502190 <copy_memory+0x24>
 15021b8:	e28dd008 	add	sp, sp, #8
 15021bc:	e12fff1e 	bx	lr
 15021c0:	e3a03000 	mov	r3, #0
 15021c4:	e58d3004 	str	r3, [sp, #4]
 15021c8:	e59d3004 	ldr	r3, [sp, #4]
 15021cc:	e1520003 	cmp	r2, r3
 15021d0:	9afffff8 	bls	15021b8 <copy_memory+0x4c>
 15021d4:	e59dc004 	ldr	ip, [sp, #4]
 15021d8:	e59d3004 	ldr	r3, [sp, #4]
 15021dc:	e7d13003 	ldrb	r3, [r1, r3]
 15021e0:	e6ef3073 	uxtb	r3, r3
 15021e4:	e7c0300c 	strb	r3, [r0, ip]
 15021e8:	e59d3004 	ldr	r3, [sp, #4]
 15021ec:	e2833001 	add	r3, r3, #1
 15021f0:	e58d3004 	str	r3, [sp, #4]
 15021f4:	e59d3004 	ldr	r3, [sp, #4]
 15021f8:	e1520003 	cmp	r2, r3
 15021fc:	8afffff4 	bhi	15021d4 <copy_memory+0x68>
 1502200:	e28dd008 	add	sp, sp, #8
 1502204:	e12fff1e 	bx	lr

01502208 <compare_memory>:
 1502208:	e3520000 	cmp	r2, #0
 150220c:	0a000011 	beq	1502258 <compare_memory+0x50>
 1502210:	e52de004 	push	{lr}		; (str lr, [sp, #-4]!)
 1502214:	e5d1e000 	ldrb	lr, [r1]
 1502218:	e5d0c000 	ldrb	ip, [r0]
 150221c:	e15c000e 	cmp	ip, lr
 1502220:	00802002 	addeq	r2, r0, r2
 1502224:	02803001 	addeq	r3, r0, #1
 1502228:	0a000004 	beq	1502240 <compare_memory+0x38>
 150222c:	ea000007 	b	1502250 <compare_memory+0x48>
 1502230:	e4d3c001 	ldrb	ip, [r3], #1
 1502234:	e5f1e001 	ldrb	lr, [r1, #1]!
 1502238:	e15c000e 	cmp	ip, lr
 150223c:	1a000003 	bne	1502250 <compare_memory+0x48>
 1502240:	e1530002 	cmp	r3, r2
 1502244:	1afffff9 	bne	1502230 <compare_memory+0x28>
 1502248:	e3a00000 	mov	r0, #0
 150224c:	e49df004 	pop	{pc}		; (ldr pc, [sp], #4)
 1502250:	e06e000c 	rsb	r0, lr, ip
 1502254:	e49df004 	pop	{pc}		; (ldr pc, [sp], #4)
 1502258:	e1a00002 	mov	r0, r2
 150225c:	e12fff1e 	bx	lr

01502260 <compare_str>:
 1502260:	e5d03000 	ldrb	r3, [r0]
 1502264:	e3530000 	cmp	r3, #0
 1502268:	0a000009 	beq	1502294 <compare_str+0x34>
 150226c:	e5d12000 	ldrb	r2, [r1]
 1502270:	e1530002 	cmp	r3, r2
 1502274:	0a000003 	beq	1502288 <compare_str+0x28>
 1502278:	ea000007 	b	150229c <compare_str+0x3c>
 150227c:	e5f12001 	ldrb	r2, [r1, #1]!
 1502280:	e1530002 	cmp	r3, r2
 1502284:	1a000004 	bne	150229c <compare_str+0x3c>
 1502288:	e5f03001 	ldrb	r3, [r0, #1]!
 150228c:	e3530000 	cmp	r3, #0
 1502290:	1afffff9 	bne	150227c <compare_str+0x1c>
 1502294:	e1a00003 	mov	r0, r3
 1502298:	e12fff1e 	bx	lr
 150229c:	e0620003 	rsb	r0, r2, r3
 15022a0:	e12fff1e 	bx	lr

015022a4 <watchdog_reset>:
 15022a4:	e3a03a0b 	mov	r3, #45056	; 0xb000
 15022a8:	e3493801 	movt	r3, #38913	; 0x9801
 15022ac:	e3a02000 	mov	r2, #0
 15022b0:	e3a000a5 	mov	r0, #165	; 0xa5
 15022b4:	e3a01001 	mov	r1, #1
 15022b8:	e58305b0 	str	r0, [r3, #1456]	; 0x5b0
 15022bc:	e58315b4 	str	r1, [r3, #1460]	; 0x5b4
 15022c0:	e58325bc 	str	r2, [r3, #1468]	; 0x5bc
 15022c4:	e58325b0 	str	r2, [r3, #1456]	; 0x5b0
 15022c8:	e12fff1e 	bx	lr

015022cc <__div0>:
 15022cc:	e12fff1e 	bx	lr

015022d0 <v7_maint_dcache_all>:
 15022d0:	e92d43f0 	push	{r4, r5, r6, r7, r8, r9, lr}
 15022d4:	ee307f30 	mrc	15, 1, r7, cr0, cr0, {1}
 15022d8:	e3a0e000 	mov	lr, #0
 15022dc:	e1a0500e 	mov	r5, lr
 15022e0:	ea000003 	b	15022f4 <v7_maint_dcache_all+0x24>
 15022e4:	e28ee003 	add	lr, lr, #3
 15022e8:	e2855001 	add	r5, r5, #1
 15022ec:	e35e0015 	cmp	lr, #21
 15022f0:	0a000025 	beq	150238c <v7_maint_dcache_all+0xbc>
 15022f4:	e1a03e37 	lsr	r3, r7, lr
 15022f8:	e2033007 	and	r3, r3, #7
 15022fc:	e2433002 	sub	r3, r3, #2
 1502300:	e3530002 	cmp	r3, #2
 1502304:	8afffff6 	bhi	15022e4 <v7_maint_dcache_all+0x14>
 1502308:	e1a06085 	lsl	r6, r5, #1
 150230c:	ee406f10 	mcr	15, 2, r6, cr0, cr0, {0}
 1502310:	ee304f10 	mrc	15, 1, r4, cr0, cr0, {0}
 1502314:	e7e991d4 	ubfx	r9, r4, #3, #10
 1502318:	e2042007 	and	r2, r4, #7
 150231c:	e289c001 	add	ip, r9, #1
 1502320:	e2822004 	add	r2, r2, #4
 1502324:	e1a0300c 	mov	r3, ip
 1502328:	e7ee46d4 	ubfx	r4, r4, #13, #15
 150232c:	e3e01000 	mvn	r1, #0
 1502330:	e1b030a3 	lsrs	r3, r3, #1
 1502334:	e2811001 	add	r1, r1, #1
 1502338:	1afffffc 	bne	1502330 <v7_maint_dcache_all+0x60>
 150233c:	e11c0009 	tst	ip, r9
 1502340:	12811001 	addne	r1, r1, #1
 1502344:	e3500001 	cmp	r0, #1
 1502348:	e2618020 	rsb	r8, r1, #32
 150234c:	0a000011 	beq	1502398 <v7_maint_dcache_all+0xc8>
 1502350:	e3500002 	cmp	r0, #2
 1502354:	1affffe2 	bne	15022e4 <v7_maint_dcache_all+0x14>
 1502358:	e186c819 	orr	ip, r6, r9, lsl r8
 150235c:	e1a03004 	mov	r3, r4
 1502360:	e18c1213 	orr	r1, ip, r3, lsl r2
 1502364:	ee071f5e 	mcr	15, 0, r1, cr7, cr14, {2}
 1502368:	e2533001 	subs	r3, r3, #1
 150236c:	2afffffb 	bcs	1502360 <v7_maint_dcache_all+0x90>
 1502370:	e2599001 	subs	r9, r9, #1
 1502374:	2afffff7 	bcs	1502358 <v7_maint_dcache_all+0x88>
 1502378:	f57ff04f 	dsb	sy
 150237c:	e28ee003 	add	lr, lr, #3
 1502380:	e2855001 	add	r5, r5, #1
 1502384:	e35e0015 	cmp	lr, #21
 1502388:	1affffd9 	bne	15022f4 <v7_maint_dcache_all+0x24>
 150238c:	e8bd83f0 	pop	{r4, r5, r6, r7, r8, r9, pc}
 1502390:	e2599001 	subs	r9, r9, #1
 1502394:	3afffff7 	bcc	1502378 <v7_maint_dcache_all+0xa8>
 1502398:	e186c819 	orr	ip, r6, r9, lsl r8
 150239c:	e1a03004 	mov	r3, r4
 15023a0:	e18c1213 	orr	r1, ip, r3, lsl r2
 15023a4:	ee071f56 	mcr	15, 0, r1, cr7, cr6, {2}
 15023a8:	e2533001 	subs	r3, r3, #1
 15023ac:	2afffffb 	bcs	15023a0 <v7_maint_dcache_all+0xd0>
 15023b0:	eafffff6 	b	1502390 <v7_maint_dcache_all+0xc0>

015023b4 <invalidate_icache_all>:
 15023b4:	e3a03000 	mov	r3, #0
 15023b8:	ee073f15 	mcr	15, 0, r3, cr7, cr5, {0}
 15023bc:	ee073fd5 	mcr	15, 0, r3, cr7, cr5, {6}
 15023c0:	f57ff04f 	dsb	sy
 15023c4:	f57ff06f 	isb	sy
 15023c8:	e12fff1e 	bx	lr

015023cc <__v7_outer_cache_enable>:
 15023cc:	e12fff1e 	bx	lr

015023d0 <__v7_outer_cache_disable>:
 15023d0:	e12fff1e 	bx	lr

015023d4 <__v7_outer_cache_flush_all>:
 15023d4:	e12fff1e 	bx	lr

015023d8 <flush_dcache_all>:
 15023d8:	e92d4010 	push	{r4, lr}
 15023dc:	e3a00002 	mov	r0, #2
 15023e0:	ebffffba 	bl	15022d0 <v7_maint_dcache_all>
 15023e4:	e8bd4010 	pop	{r4, lr}
 15023e8:	eafffff9 	b	15023d4 <__v7_outer_cache_flush_all>

015023ec <__v7_outer_cache_inval_all>:
 15023ec:	e12fff1e 	bx	lr

015023f0 <invalidate_dcache_all>:
 15023f0:	e92d4010 	push	{r4, lr}
 15023f4:	e3a00001 	mov	r0, #1
 15023f8:	ebffffb4 	bl	15022d0 <v7_maint_dcache_all>
 15023fc:	e8bd4010 	pop	{r4, lr}
 1502400:	eafffff9 	b	15023ec <__v7_outer_cache_inval_all>

01502404 <arm_init_before_mmu>:
 1502404:	e92d4010 	push	{r4, lr}
 1502408:	ebffffef 	bl	15023cc <__v7_outer_cache_enable>
 150240c:	e3a00001 	mov	r0, #1
 1502410:	ebffffae 	bl	15022d0 <v7_maint_dcache_all>
 1502414:	ebfffff4 	bl	15023ec <__v7_outer_cache_inval_all>
 1502418:	e3a03000 	mov	r3, #0
 150241c:	ee083f17 	mcr	15, 0, r3, cr8, cr7, {0}
 1502420:	ee083f16 	mcr	15, 0, r3, cr8, cr6, {0}
 1502424:	ee083f15 	mcr	15, 0, r3, cr8, cr5, {0}
 1502428:	f57ff04f 	dsb	sy
 150242c:	f57ff06f 	isb	sy
 1502430:	e8bd8010 	pop	{r4, pc}

01502434 <__v7_outer_cache_flush_range>:
 1502434:	e12fff1e 	bx	lr

01502438 <flush_dcache_range>:
 1502438:	ee302f10 	mrc	15, 1, r2, cr0, cr0, {0}
 150243c:	e2022007 	and	r2, r2, #7
 1502440:	e3a03001 	mov	r3, #1
 1502444:	e2822004 	add	r2, r2, #4
 1502448:	e1a02213 	lsl	r2, r3, r2
 150244c:	e2623000 	rsb	r3, r2, #0
 1502450:	e0033000 	and	r3, r3, r0
 1502454:	e1510003 	cmp	r1, r3
 1502458:	3a000003 	bcc	150246c <flush_dcache_range+0x34>
 150245c:	ee073f3e 	mcr	15, 0, r3, cr7, cr14, {1}
 1502460:	e0833002 	add	r3, r3, r2
 1502464:	e1510003 	cmp	r1, r3
 1502468:	2afffffb 	bcs	150245c <flush_dcache_range+0x24>
 150246c:	f57ff04f 	dsb	sy
 1502470:	eaffffef 	b	1502434 <__v7_outer_cache_flush_range>

01502474 <flush_cache>:
 1502474:	e0801001 	add	r1, r0, r1
 1502478:	eaffffee 	b	1502438 <flush_dcache_range>

0150247c <__v7_outer_cache_inval_range>:
 150247c:	e12fff1e 	bx	lr

01502480 <invalidate_dcache_range>:
 1502480:	e52de004 	push	{lr}		; (str lr, [sp, #-4]!)
 1502484:	ee30cf10 	mrc	15, 1, ip, cr0, cr0, {0}
 1502488:	e20cc007 	and	ip, ip, #7
 150248c:	e3a03001 	mov	r3, #1
 1502490:	e28cc004 	add	ip, ip, #4
 1502494:	e1a0cc13 	lsl	ip, r3, ip
 1502498:	e24ce001 	sub	lr, ip, #1
 150249c:	e11e0000 	tst	lr, r0
 15024a0:	12402001 	subne	r2, r0, #1
 15024a4:	126c3000 	rsbne	r3, ip, #0
 15024a8:	1082200c 	addne	r2, r2, ip
 15024ac:	01a03000 	moveq	r3, r0
 15024b0:	10033002 	andne	r3, r3, r2
 15024b4:	e11e0001 	tst	lr, r1
 15024b8:	126c2000 	rsbne	r2, ip, #0
 15024bc:	01a02001 	moveq	r2, r1
 15024c0:	10022001 	andne	r2, r2, r1
 15024c4:	e1520003 	cmp	r2, r3
 15024c8:	3a000003 	bcc	15024dc <invalidate_dcache_range+0x5c>
 15024cc:	ee073f36 	mcr	15, 0, r3, cr7, cr6, {1}
 15024d0:	e083300c 	add	r3, r3, ip
 15024d4:	e1530002 	cmp	r3, r2
 15024d8:	9afffffb 	bls	15024cc <invalidate_dcache_range+0x4c>
 15024dc:	f57ff04f 	dsb	sy
 15024e0:	e49de004 	pop	{lr}		; (ldr lr, [sp], #4)
 15024e4:	eaffffe4 	b	150247c <__v7_outer_cache_inval_range>

015024e8 <e_buffer>:
 15024e8:	e92d4ff0 	push	{r4, r5, r6, r7, r8, r9, sl, fp, lr}
 15024ec:	e1a0b003 	mov	fp, r3
 15024f0:	e24dd054 	sub	sp, sp, #84	; 0x54
 15024f4:	e59d7080 	ldr	r7, [sp, #128]	; 0x80
 15024f8:	e88d0003 	stm	sp, {r0, r1}
 15024fc:	e59da078 	ldr	sl, [sp, #120]	; 0x78
 1502500:	e0020793 	mul	r2, r3, r7
 1502504:	e3520040 	cmp	r2, #64	; 0x40
 1502508:	83a07040 	movhi	r7, #64	; 0x40
 150250c:	8737f317 	udivhi	r7, r7, r3
 1502510:	e3570000 	cmp	r7, #0
 1502514:	03a07010 	moveq	r7, #16
 1502518:	0737f317 	udiveq	r7, r7, r3
 150251c:	e35a0000 	cmp	sl, #0
 1502520:	11a0908b 	lslne	r9, fp, #1
 1502524:	0a00005c 	beq	150269c <e_buffer+0x1b4>
 1502528:	e3030030 	movw	r0, #12336	; 0x3030
 150252c:	e3400150 	movt	r0, #336	; 0x150
 1502530:	e59d1000 	ldr	r1, [sp]
 1502534:	ebfff767 	bl	15002d8 <printf>
 1502538:	e157000a 	cmp	r7, sl
 150253c:	21a0700a 	movcs	r7, sl
 1502540:	e59d3000 	ldr	r3, [sp]
 1502544:	e3570000 	cmp	r7, #0
 1502548:	e283831a 	add	r8, r3, #1744830464	; 0x68000000
 150254c:	01a04007 	moveq	r4, r7
 1502550:	02488a17 	subeq	r8, r8, #94208	; 0x17000
 1502554:	01a0e007 	moveq	lr, r7
 1502558:	0a00003c 	beq	1502650 <e_buffer+0x168>
 150255c:	e59d6004 	ldr	r6, [sp, #4]
 1502560:	e2488a17 	sub	r8, r8, #94208	; 0x17000
 1502564:	e3a05000 	mov	r5, #0
 1502568:	e28d400c 	add	r4, sp, #12
 150256c:	ea000004 	b	1502584 <e_buffer+0x9c>
 1502570:	e2855001 	add	r5, r5, #1
 1502574:	ebfff757 	bl	15002d8 <printf>
 1502578:	e1550007 	cmp	r5, r7
 150257c:	e086600b 	add	r6, r6, fp
 1502580:	0a000017 	beq	15025e4 <e_buffer+0xfc>
 1502584:	e35b0004 	cmp	fp, #4
 1502588:	05962000 	ldreq	r2, [r6]
 150258c:	07842105 	streq	r2, [r4, r5, lsl #2]
 1502590:	0a000007 	beq	15025b4 <e_buffer+0xcc>
 1502594:	e35b0002 	cmp	fp, #2
 1502598:	01a03085 	lsleq	r3, r5, #1
 150259c:	01d620b0 	ldrheq	r2, [r6]
 15025a0:	15d62000 	ldrbne	r2, [r6]
 15025a4:	06ff2072 	uxtheq	r2, r2
 15025a8:	018420b3 	strheq	r2, [r4, r3]
 15025ac:	16ef2072 	uxtbne	r2, r2
 15025b0:	17c42005 	strbne	r2, [r4, r5]
 15025b4:	e3580b01 	cmp	r8, #1024	; 0x400
 15025b8:	e303003c 	movw	r0, #12348	; 0x303c
 15025bc:	e3400150 	movt	r0, #336	; 0x150
 15025c0:	e1a01009 	mov	r1, r9
 15025c4:	2affffe9 	bcs	1502570 <e_buffer+0x88>
 15025c8:	e3030044 	movw	r0, #12356	; 0x3044
 15025cc:	e3400150 	movt	r0, #336	; 0x150
 15025d0:	e2855001 	add	r5, r5, #1
 15025d4:	ebfff73f 	bl	15002d8 <printf>
 15025d8:	e1550007 	cmp	r5, r7
 15025dc:	e086600b 	add	r6, r6, fp
 15025e0:	1affffe7 	bne	1502584 <e_buffer+0x9c>
 15025e4:	e00e079b 	mul	lr, fp, r7
 15025e8:	e59d3004 	ldr	r3, [sp, #4]
 15025ec:	e35e0000 	cmp	lr, #0
 15025f0:	01a0400e 	moveq	r4, lr
 15025f4:	e083300e 	add	r3, r3, lr
 15025f8:	01a0e004 	moveq	lr, r4
 15025fc:	e58d3004 	str	r3, [sp, #4]
 1502600:	0a000012 	beq	1502650 <e_buffer+0x168>
 1502604:	e24e2001 	sub	r2, lr, #1
 1502608:	e302cd64 	movw	ip, #11620	; 0x2d64
 150260c:	e340c150 	movt	ip, #336	; 0x150
 1502610:	e0844002 	add	r4, r4, r2
 1502614:	e3a0502e 	mov	r5, #46	; 0x2e
 1502618:	e28d200b 	add	r2, sp, #11
 150261c:	ea000003 	b	1502630 <e_buffer+0x148>
 1502620:	e3130080 	tst	r3, #128	; 0x80
 1502624:	1a000005 	bne	1502640 <e_buffer+0x158>
 1502628:	e1520004 	cmp	r2, r4
 150262c:	0a000006 	beq	150264c <e_buffer+0x164>
 1502630:	e5f23001 	ldrb	r3, [r2, #1]!
 1502634:	e7dc1003 	ldrb	r1, [ip, r3]
 1502638:	e3110097 	tst	r1, #151	; 0x97
 150263c:	1afffff7 	bne	1502620 <e_buffer+0x138>
 1502640:	e1520004 	cmp	r2, r4
 1502644:	e5c25000 	strb	r5, [r2]
 1502648:	1afffff8 	bne	1502630 <e_buffer+0x148>
 150264c:	e1a0400e 	mov	r4, lr
 1502650:	e28d3050 	add	r3, sp, #80	; 0x50
 1502654:	e3580b01 	cmp	r8, #1024	; 0x400
 1502658:	e083e00e 	add	lr, r3, lr
 150265c:	e3a02000 	mov	r2, #0
 1502660:	e54e2044 	strb	r2, [lr, #-68]	; 0x44
 1502664:	3a00000f 	bcc	15026a8 <e_buffer+0x1c0>
 1502668:	e3030048 	movw	r0, #12360	; 0x3048
 150266c:	e3400150 	movt	r0, #336	; 0x150
 1502670:	e28d100c 	add	r1, sp, #12
 1502674:	ebfff717 	bl	15002d8 <printf>
 1502678:	ebfff714 	bl	15002d0 <ctrlc>
 150267c:	e59d3000 	ldr	r3, [sp]
 1502680:	e3500000 	cmp	r0, #0
 1502684:	e067a00a 	rsb	sl, r7, sl
 1502688:	e0833004 	add	r3, r3, r4
 150268c:	e58d3000 	str	r3, [sp]
 1502690:	1a000008 	bne	15026b8 <e_buffer+0x1d0>
 1502694:	e35a0000 	cmp	sl, #0
 1502698:	1affffa2 	bne	1502528 <e_buffer+0x40>
 150269c:	e3a00000 	mov	r0, #0
 15026a0:	e28dd054 	add	sp, sp, #84	; 0x54
 15026a4:	e8bd8ff0 	pop	{r4, r5, r6, r7, r8, r9, sl, fp, pc}
 15026a8:	e3030054 	movw	r0, #12372	; 0x3054
 15026ac:	e3400150 	movt	r0, #336	; 0x150
 15026b0:	ebfff708 	bl	15002d8 <printf>
 15026b4:	eaffffef 	b	1502678 <e_buffer+0x190>
 15026b8:	e3e00000 	mvn	r0, #0
 15026bc:	e28dd054 	add	sp, sp, #84	; 0x54
 15026c0:	e8bd8ff0 	pop	{r4, r5, r6, r7, r8, r9, sl, fp, pc}

015026c4 <do_burn_mp_efuse_bits>:
 15026c4:	e92d4010 	push	{r4, lr}
 15026c8:	ebfffcc1 	bl	15019d4 <R2>
 15026cc:	e8bd4010 	pop	{r4, lr}
 15026d0:	eafffdcc 	b	1501e08 <sync>

015026d4 <read_efuse>:
 15026d4:	e92d41f0 	push	{r4, r5, r6, r7, r8, lr}
 15026d8:	e3032450 	movw	r2, #13392	; 0x3450
 15026dc:	e3402151 	movt	r2, #337	; 0x151
 15026e0:	e59f4094 	ldr	r4, [pc, #148]	; 150277c <read_efuse+0xa8>
 15026e4:	e3a01010 	mov	r1, #16
 15026e8:	e2820010 	add	r0, r2, #16
 15026ec:	e3a03000 	mov	r3, #0
 15026f0:	e0847001 	add	r7, r4, r1
 15026f4:	e2445010 	sub	r5, r4, #16
 15026f8:	ebfff8de 	bl	1500a78 <AES_ECB_encrypt>
 15026fc:	e1a01000 	mov	r1, r0
 1502700:	e303005c 	movw	r0, #12380	; 0x305c
 1502704:	e3400150 	movt	r0, #336	; 0x150
 1502708:	e1a06005 	mov	r6, r5
 150270c:	ebfff6f1 	bl	15002d8 <printf>
 1502710:	e5f41001 	ldrb	r1, [r4, #1]!
 1502714:	e3030064 	movw	r0, #12388	; 0x3064
 1502718:	e3400150 	movt	r0, #336	; 0x150
 150271c:	e5f62001 	ldrb	r2, [r6, #1]!
 1502720:	ebfff6ec 	bl	15002d8 <printf>
 1502724:	e1540007 	cmp	r4, r7
 1502728:	1afffff8 	bne	1502710 <read_efuse+0x3c>
 150272c:	e59f204c 	ldr	r2, [pc, #76]	; 1502780 <read_efuse+0xac>
 1502730:	e3a01010 	mov	r1, #16
 1502734:	e3a03000 	mov	r3, #0
 1502738:	e2420020 	sub	r0, r2, #32
 150273c:	e2424001 	sub	r4, r2, #1
 1502740:	ebfff8a7 	bl	15009e4 <AES_ECB_decrypt>
 1502744:	e1a01000 	mov	r1, r0
 1502748:	e303005c 	movw	r0, #12380	; 0x305c
 150274c:	e3400150 	movt	r0, #336	; 0x150
 1502750:	e2446010 	sub	r6, r4, #16
 1502754:	ebfff6df 	bl	15002d8 <printf>
 1502758:	e5f51001 	ldrb	r1, [r5, #1]!
 150275c:	e3030080 	movw	r0, #12416	; 0x3080
 1502760:	e3400150 	movt	r0, #336	; 0x150
 1502764:	e5f42001 	ldrb	r2, [r4, #1]!
 1502768:	ebfff6da 	bl	15002d8 <printf>
 150276c:	e1550006 	cmp	r5, r6
 1502770:	1afffff8 	bne	1502758 <read_efuse+0x84>
 1502774:	e3a00000 	mov	r0, #0
 1502778:	e8bd81f0 	pop	{r4, r5, r6, r7, r8, pc}
 150277c:	0151345f 	cmpeq	r1, pc, asr r4
 1502780:	01513470 	cmpeq	r1, r0, ror r4

01502784 <OTP_JUDGE_BIT>:
 1502784:	e2002007 	and	r2, r0, #7
 1502788:	e1a001a0 	lsr	r0, r0, #3
 150278c:	e3c03003 	bic	r3, r0, #3
 1502790:	e2000003 	and	r0, r0, #3
 1502794:	e2833326 	add	r3, r3, #-1744830464	; 0x98000000
 1502798:	e2833a17 	add	r3, r3, #94208	; 0x17000
 150279c:	e1a00180 	lsl	r0, r0, #3
 15027a0:	e5933000 	ldr	r3, [r3]
 15027a4:	e1a00033 	lsr	r0, r3, r0
 15027a8:	e1a00230 	lsr	r0, r0, r2
 15027ac:	e2000001 	and	r0, r0, #1
 15027b0:	e12fff1e 	bx	lr

015027b4 <do_burn_efuse_getmptest2>:
 15027b4:	e92d4010 	push	{r4, lr}
 15027b8:	e3000e0a 	movw	r0, #3594	; 0xe0a
 15027bc:	ebfffff0 	bl	1502784 <OTP_JUDGE_BIT>
 15027c0:	e3500000 	cmp	r0, #0
 15027c4:	130300a0 	movwne	r0, #12448	; 0x30a0
 15027c8:	0303009c 	movweq	r0, #12444	; 0x309c
 15027cc:	13400150 	movtne	r0, #336	; 0x150
 15027d0:	03400150 	movteq	r0, #336	; 0x150
 15027d4:	ebfff6bf 	bl	15002d8 <printf>
 15027d8:	e3a00000 	mov	r0, #0
 15027dc:	e8bd8010 	pop	{r4, pc}

015027e0 <OTP_Program_Start>:
 15027e0:	e2002007 	and	r2, r0, #7
 15027e4:	e3a03a07 	mov	r3, #28672	; 0x7000
 15027e8:	e3493801 	movt	r3, #38913	; 0x9801
 15027ec:	e7e901d0 	ubfx	r0, r0, #3, #10
 15027f0:	e1a01003 	mov	r1, r3
 15027f4:	e1800502 	orr	r0, r0, r2, lsl #10
 15027f8:	e3800503 	orr	r0, r0, #12582912	; 0xc00000
 15027fc:	e3802a02 	orr	r2, r0, #8192	; 0x2000
 1502800:	e5832400 	str	r2, [r3, #1024]	; 0x400
 1502804:	e5912404 	ldr	r2, [r1, #1028]	; 0x404
 1502808:	e3a03a07 	mov	r3, #28672	; 0x7000
 150280c:	e3493801 	movt	r3, #38913	; 0x9801
 1502810:	e3120801 	tst	r2, #65536	; 0x10000
 1502814:	0afffffa 	beq	1502804 <OTP_Program_Start+0x24>
 1502818:	e3802a0e 	orr	r2, r0, #57344	; 0xe000
 150281c:	e3a00005 	mov	r0, #5
 1502820:	e92d4010 	push	{r4, lr}
 1502824:	e5832400 	str	r2, [r3, #1024]	; 0x400
 1502828:	ebfffd60 	bl	1501db0 <udelay>
 150282c:	e3a00000 	mov	r0, #0
 1502830:	e8bd8010 	pop	{r4, pc}

01502834 <OTP_Program_End>:
 1502834:	e3a03a07 	mov	r3, #28672	; 0x7000
 1502838:	e3493801 	movt	r3, #38913	; 0x9801
 150283c:	e92d4010 	push	{r4, lr}
 1502840:	e5931400 	ldr	r1, [r3, #1024]	; 0x400
 1502844:	e3a00005 	mov	r0, #5
 1502848:	e3a02a0a 	mov	r2, #40960	; 0xa000
 150284c:	e3402080 	movt	r2, #128	; 0x80
 1502850:	e5832400 	str	r2, [r3, #1024]	; 0x400
 1502854:	ebfffd55 	bl	1501db0 <udelay>
 1502858:	e3a00000 	mov	r0, #0
 150285c:	e8bd8010 	pop	{r4, pc}

01502860 <start_program>:
 1502860:	e92d41f0 	push	{r4, r5, r6, r7, r8, lr}
 1502864:	e1a05001 	mov	r5, r1
 1502868:	e1a06000 	mov	r6, r0
 150286c:	e3a00efe 	mov	r0, #4064	; 0xfe0
 1502870:	e1a07002 	mov	r7, r2
 1502874:	ebffffc2 	bl	1502784 <OTP_JUDGE_BIT>
 1502878:	e1b05185 	lsls	r5, r5, #3
 150287c:	13a03000 	movne	r3, #0
 1502880:	11a04003 	movne	r4, r3
 1502884:	1a000004 	bne	150289c <start_program+0x3c>
 1502888:	ea00000e 	b	15028c8 <start_program+0x68>
 150288c:	e2844001 	add	r4, r4, #1
 1502890:	e1540005 	cmp	r4, r5
 1502894:	e1a031a4 	lsr	r3, r4, #3
 1502898:	0a00000a 	beq	15028c8 <start_program+0x68>
 150289c:	e7d73003 	ldrb	r3, [r7, r3]
 15028a0:	e2040007 	and	r0, r4, #7
 15028a4:	e1a03053 	asr	r3, r3, r0
 15028a8:	e3130001 	tst	r3, #1
 15028ac:	0afffff6 	beq	150288c <start_program+0x2c>
 15028b0:	e0840006 	add	r0, r4, r6
 15028b4:	e2844001 	add	r4, r4, #1
 15028b8:	ebffffc8 	bl	15027e0 <OTP_Program_Start>
 15028bc:	e1540005 	cmp	r4, r5
 15028c0:	e1a031a4 	lsr	r3, r4, #3
 15028c4:	1afffff4 	bne	150289c <start_program+0x3c>
 15028c8:	e8bd41f0 	pop	{r4, r5, r6, r7, r8, lr}
 15028cc:	eaffffd8 	b	1502834 <OTP_Program_End>

015028d0 <do_burn_efuse_rsa>:
 15028d0:	e92d4010 	push	{r4, lr}
 15028d4:	e59f2010 	ldr	r2, [pc, #16]	; 15028ec <do_burn_efuse_rsa+0x1c>
 15028d8:	e3a01c01 	mov	r1, #256	; 0x100
 15028dc:	e3a00000 	mov	r0, #0
 15028e0:	ebffffde 	bl	1502860 <start_program>
 15028e4:	e3a00000 	mov	r0, #0
 15028e8:	e8bd8010 	pop	{r4, pc}
 15028ec:	01513480 	cmpeq	r1, r0, lsl #9

015028f0 <burn_id_test>:
 15028f0:	e92d4010 	push	{r4, lr}
 15028f4:	e300cff8 	movw	ip, #4088	; 0xff8
 15028f8:	e240ea01 	sub	lr, r0, #4096	; 0x1000
 15028fc:	e15e000c 	cmp	lr, ip
 1502900:	8a000004 	bhi	1502918 <burn_id_test+0x28>
 1502904:	e0803001 	add	r3, r0, r1
 1502908:	e301cff8 	movw	ip, #8184	; 0x1ff8
 150290c:	e153000c 	cmp	r3, ip
 1502910:	e1a04001 	mov	r4, r1
 1502914:	9a000001 	bls	1502920 <burn_id_test+0x30>
 1502918:	e3a00001 	mov	r0, #1
 150291c:	e8bd8010 	pop	{r4, pc}
 1502920:	ebffffce 	bl	1502860 <start_program>
 1502924:	e3a00000 	mov	r0, #0
 1502928:	e8bd8010 	pop	{r4, pc}

0150292c <do_burn_efuse_aes>:
 150292c:	e3500001 	cmp	r0, #1
 1502930:	e92d4010 	push	{r4, lr}
 1502934:	0a00000e 	beq	1502974 <do_burn_efuse_aes+0x48>
 1502938:	3a000007 	bcc	150295c <do_burn_efuse_aes+0x30>
 150293c:	e3500002 	cmp	r0, #2
 1502940:	1a000003 	bne	1502954 <do_burn_efuse_aes+0x28>
 1502944:	e59f2040 	ldr	r2, [pc, #64]	; 150298c <do_burn_efuse_aes+0x60>
 1502948:	e3a01010 	mov	r1, #16
 150294c:	e3a00c0a 	mov	r0, #2560	; 0xa00
 1502950:	ebffffc2 	bl	1502860 <start_program>
 1502954:	e3a00000 	mov	r0, #0
 1502958:	e8bd8010 	pop	{r4, pc}
 150295c:	e59f202c 	ldr	r2, [pc, #44]	; 1502990 <do_burn_efuse_aes+0x64>
 1502960:	e3a01010 	mov	r1, #16
 1502964:	e3a00b02 	mov	r0, #2048	; 0x800
 1502968:	ebffffbc 	bl	1502860 <start_program>
 150296c:	e3a00000 	mov	r0, #0
 1502970:	e8bd8010 	pop	{r4, pc}
 1502974:	e59f2018 	ldr	r2, [pc, #24]	; 1502994 <do_burn_efuse_aes+0x68>
 1502978:	e3a01010 	mov	r1, #16
 150297c:	e3a00c09 	mov	r0, #2304	; 0x900
 1502980:	ebffffb6 	bl	1502860 <start_program>
 1502984:	e3a00000 	mov	r0, #0
 1502988:	e8bd8010 	pop	{r4, pc}
 150298c:	015135a0 	cmpeq	r1, r0, lsr #11
 1502990:	01513580 	cmpeq	r1, r0, lsl #11
 1502994:	01513590 			; <UNDEFINED> instruction: 0x01513590

01502998 <do_burn_efuse_deviceID>:
 1502998:	e92d4010 	push	{r4, lr}
 150299c:	e59f2010 	ldr	r2, [pc, #16]	; 15029b4 <do_burn_efuse_deviceID+0x1c>
 15029a0:	e3a01010 	mov	r1, #16
 15029a4:	e3a00ed2 	mov	r0, #3360	; 0xd20
 15029a8:	ebffffac 	bl	1502860 <start_program>
 15029ac:	e3a00000 	mov	r0, #0
 15029b0:	e8bd8010 	pop	{r4, pc}
 15029b4:	015135b0 	ldrheq	r3, [r1, #-80]	; 0xffffffb0

015029b8 <do_burn_efuse_rsa_pgm_dis>:
 15029b8:	e92d4010 	push	{r4, lr}
 15029bc:	e3a00efe 	mov	r0, #4064	; 0xfe0
 15029c0:	ebffff6f 	bl	1502784 <OTP_JUDGE_BIT>
 15029c4:	e3000da4 	movw	r0, #3492	; 0xda4
 15029c8:	ebffff84 	bl	15027e0 <OTP_Program_Start>
 15029cc:	ebffff98 	bl	1502834 <OTP_Program_End>
 15029d0:	e3a00000 	mov	r0, #0
 15029d4:	e8bd8010 	pop	{r4, pc}

015029d8 <do_burn_efuse_secure_dbg>:
 15029d8:	e92d4010 	push	{r4, lr}
 15029dc:	e3a00efe 	mov	r0, #4064	; 0xfe0
 15029e0:	ebffff67 	bl	1502784 <OTP_JUDGE_BIT>
 15029e4:	e3000db1 	movw	r0, #3505	; 0xdb1
 15029e8:	ebffff7c 	bl	15027e0 <OTP_Program_Start>
 15029ec:	ebffff90 	bl	1502834 <OTP_Program_End>
 15029f0:	e3a00000 	mov	r0, #0
 15029f4:	e8bd8010 	pop	{r4, pc}

015029f8 <do_burn_efuse_normal_dbg>:
 15029f8:	e92d4010 	push	{r4, lr}
 15029fc:	e3a00efe 	mov	r0, #4064	; 0xfe0
 1502a00:	ebffff5f 	bl	1502784 <OTP_JUDGE_BIT>
 1502a04:	e3000db2 	movw	r0, #3506	; 0xdb2
 1502a08:	ebffff74 	bl	15027e0 <OTP_Program_Start>
 1502a0c:	ebffff88 	bl	1502834 <OTP_Program_End>
 1502a10:	e3a00000 	mov	r0, #0
 1502a14:	e8bd8010 	pop	{r4, pc}

01502a18 <do_burn_efuse_secureboot>:
 1502a18:	e92d4010 	push	{r4, lr}
 1502a1c:	e3a00efe 	mov	r0, #4064	; 0xfe0
 1502a20:	ebffff57 	bl	1502784 <OTP_JUDGE_BIT>
 1502a24:	e3000da6 	movw	r0, #3494	; 0xda6
 1502a28:	ebffff6c 	bl	15027e0 <OTP_Program_Start>
 1502a2c:	ebffff80 	bl	1502834 <OTP_Program_End>
 1502a30:	e3a00000 	mov	r0, #0
 1502a34:	e8bd8010 	pop	{r4, pc}

01502a38 <do_burn_efuse_bootenc>:
 1502a38:	e92d4010 	push	{r4, lr}
 1502a3c:	e3a00efe 	mov	r0, #4064	; 0xfe0
 1502a40:	ebffff4f 	bl	1502784 <OTP_JUDGE_BIT>
 1502a44:	e3000dbb 	movw	r0, #3515	; 0xdbb
 1502a48:	ebffff64 	bl	15027e0 <OTP_Program_Start>
 1502a4c:	ebffff78 	bl	1502834 <OTP_Program_End>
 1502a50:	e3a00000 	mov	r0, #0
 1502a54:	e8bd8010 	pop	{r4, pc}

01502a58 <do_burn_efuse_loadsos>:
 1502a58:	e92d4010 	push	{r4, lr}
 1502a5c:	e3a00efe 	mov	r0, #4064	; 0xfe0
 1502a60:	ebffff47 	bl	1502784 <OTP_JUDGE_BIT>
 1502a64:	e3000e0e 	movw	r0, #3598	; 0xe0e
 1502a68:	ebffff5c 	bl	15027e0 <OTP_Program_Start>
 1502a6c:	ebffff70 	bl	1502834 <OTP_Program_End>
 1502a70:	e3a00000 	mov	r0, #0
 1502a74:	e8bd8010 	pop	{r4, pc}

01502a78 <do_burn_efuse_disonecore>:
 1502a78:	e92d4010 	push	{r4, lr}
 1502a7c:	e3a00efe 	mov	r0, #4064	; 0xfe0
 1502a80:	ebffff3f 	bl	1502784 <OTP_JUDGE_BIT>
 1502a84:	e3000e0f 	movw	r0, #3599	; 0xe0f
 1502a88:	ebffff54 	bl	15027e0 <OTP_Program_Start>
 1502a8c:	ebffff68 	bl	1502834 <OTP_Program_End>
 1502a90:	e3a00000 	mov	r0, #0
 1502a94:	e8bd8010 	pop	{r4, pc}

01502a98 <do_burn_efuse_usb2sram>:
 1502a98:	e92d4010 	push	{r4, lr}
 1502a9c:	e3a00efe 	mov	r0, #4064	; 0xfe0
 1502aa0:	ebffff37 	bl	1502784 <OTP_JUDGE_BIT>
 1502aa4:	e3000dc2 	movw	r0, #3522	; 0xdc2
 1502aa8:	ebffff4c 	bl	15027e0 <OTP_Program_Start>
 1502aac:	ebffff60 	bl	1502834 <OTP_Program_End>
 1502ab0:	e3a00000 	mov	r0, #0
 1502ab4:	e8bd8010 	pop	{r4, pc}

01502ab8 <do_burn_efuse_mptest2>:
 1502ab8:	e92d4010 	push	{r4, lr}
 1502abc:	e3a00efe 	mov	r0, #4064	; 0xfe0
 1502ac0:	ebffff2f 	bl	1502784 <OTP_JUDGE_BIT>
 1502ac4:	e3000e0a 	movw	r0, #3594	; 0xe0a
 1502ac8:	ebffff44 	bl	15027e0 <OTP_Program_Start>
 1502acc:	ebffff58 	bl	1502834 <OTP_Program_End>
 1502ad0:	e3a00000 	mov	r0, #0
 1502ad4:	e8bd8010 	pop	{r4, pc}

01502ad8 <do_burn_efuse_keysel>:
 1502ad8:	e2403001 	sub	r3, r0, #1
 1502adc:	e3530002 	cmp	r3, #2
 1502ae0:	e92d4010 	push	{r4, lr}
 1502ae4:	e1a04000 	mov	r4, r0
 1502ae8:	8a000008 	bhi	1502b10 <do_burn_efuse_keysel+0x38>
 1502aec:	e3a00efe 	mov	r0, #4064	; 0xfe0
 1502af0:	ebffff23 	bl	1502784 <OTP_JUDGE_BIT>
 1502af4:	e3140001 	tst	r4, #1
 1502af8:	1a00000c 	bne	1502b30 <do_burn_efuse_keysel+0x58>
 1502afc:	e3140002 	tst	r4, #2
 1502b00:	1a000007 	bne	1502b24 <do_burn_efuse_keysel+0x4c>
 1502b04:	ebffff4a 	bl	1502834 <OTP_Program_End>
 1502b08:	e3a00000 	mov	r0, #0
 1502b0c:	e8bd8010 	pop	{r4, pc}
 1502b10:	e30300a8 	movw	r0, #12456	; 0x30a8
 1502b14:	e3400150 	movt	r0, #336	; 0x150
 1502b18:	ebfff5ee 	bl	15002d8 <printf>
 1502b1c:	e3a00001 	mov	r0, #1
 1502b20:	e8bd8010 	pop	{r4, pc}
 1502b24:	e3000da1 	movw	r0, #3489	; 0xda1
 1502b28:	ebffff2c 	bl	15027e0 <OTP_Program_Start>
 1502b2c:	eafffff4 	b	1502b04 <do_burn_efuse_keysel+0x2c>
 1502b30:	e3a00eda 	mov	r0, #3488	; 0xda0
 1502b34:	ebffff29 	bl	15027e0 <OTP_Program_Start>
 1502b38:	e3140002 	tst	r4, #2
 1502b3c:	0afffff0 	beq	1502b04 <do_burn_efuse_keysel+0x2c>
 1502b40:	eafffff7 	b	1502b24 <do_burn_efuse_keysel+0x4c>

01502b44 <do_burn_efuse_hwchk>:
 1502b44:	e2403001 	sub	r3, r0, #1
 1502b48:	e3530002 	cmp	r3, #2
 1502b4c:	e92d4010 	push	{r4, lr}
 1502b50:	e1a04000 	mov	r4, r0
 1502b54:	8a000008 	bhi	1502b7c <do_burn_efuse_hwchk+0x38>
 1502b58:	e3a00efe 	mov	r0, #4064	; 0xfe0
 1502b5c:	ebffff08 	bl	1502784 <OTP_JUDGE_BIT>
 1502b60:	e3140001 	tst	r4, #1
 1502b64:	1a00000c 	bne	1502b9c <do_burn_efuse_hwchk+0x58>
 1502b68:	e3140002 	tst	r4, #2
 1502b6c:	1a000007 	bne	1502b90 <do_burn_efuse_hwchk+0x4c>
 1502b70:	ebffff2f 	bl	1502834 <OTP_Program_End>
 1502b74:	e3a00000 	mov	r0, #0
 1502b78:	e8bd8010 	pop	{r4, pc}
 1502b7c:	e30300c0 	movw	r0, #12480	; 0x30c0
 1502b80:	e3400150 	movt	r0, #336	; 0x150
 1502b84:	ebfff5d3 	bl	15002d8 <printf>
 1502b88:	e3a00001 	mov	r0, #1
 1502b8c:	e8bd8010 	pop	{r4, pc}
 1502b90:	e3000e0c 	movw	r0, #3596	; 0xe0c
 1502b94:	ebffff11 	bl	15027e0 <OTP_Program_Start>
 1502b98:	eafffff4 	b	1502b70 <do_burn_efuse_hwchk+0x2c>
 1502b9c:	e3000e0b 	movw	r0, #3595	; 0xe0b
 1502ba0:	ebffff0e 	bl	15027e0 <OTP_Program_Start>
 1502ba4:	e3140002 	tst	r4, #2
 1502ba8:	0afffff0 	beq	1502b70 <do_burn_efuse_hwchk+0x2c>
 1502bac:	eafffff7 	b	1502b90 <do_burn_efuse_hwchk+0x4c>

01502bb0 <do_burn_efuse_all>:
 1502bb0:	e92d4010 	push	{r4, lr}
 1502bb4:	e3034450 	movw	r4, #13392	; 0x3450
 1502bb8:	e3404151 	movt	r4, #337	; 0x151
 1502bbc:	e2842030 	add	r2, r4, #48	; 0x30
 1502bc0:	e3a01c01 	mov	r1, #256	; 0x100
 1502bc4:	e3a00000 	mov	r0, #0
 1502bc8:	ebffff24 	bl	1502860 <start_program>
 1502bcc:	e2842e13 	add	r2, r4, #304	; 0x130
 1502bd0:	e3a01010 	mov	r1, #16
 1502bd4:	e3a00b02 	mov	r0, #2048	; 0x800
 1502bd8:	ebffff20 	bl	1502860 <start_program>
 1502bdc:	e2842d05 	add	r2, r4, #320	; 0x140
 1502be0:	e3a01010 	mov	r1, #16
 1502be4:	e3a00c09 	mov	r0, #2304	; 0x900
 1502be8:	ebffff1c 	bl	1502860 <start_program>
 1502bec:	e2842e15 	add	r2, r4, #336	; 0x150
 1502bf0:	e3a01010 	mov	r1, #16
 1502bf4:	e3a00c0a 	mov	r0, #2560	; 0xa00
 1502bf8:	ebffff18 	bl	1502860 <start_program>
 1502bfc:	e2842e16 	add	r2, r4, #352	; 0x160
 1502c00:	e3a01010 	mov	r1, #16
 1502c04:	e3a00ed2 	mov	r0, #3360	; 0xd20
 1502c08:	ebffff14 	bl	1502860 <start_program>
 1502c0c:	ebffff81 	bl	1502a18 <do_burn_efuse_secureboot>
 1502c10:	ebffff88 	bl	1502a38 <do_burn_efuse_bootenc>
 1502c14:	ebffff8f 	bl	1502a58 <do_burn_efuse_loadsos>
 1502c18:	ebffff96 	bl	1502a78 <do_burn_efuse_disonecore>
 1502c1c:	ebffff9d 	bl	1502a98 <do_burn_efuse_usb2sram>
 1502c20:	ebffffa4 	bl	1502ab8 <do_burn_efuse_mptest2>
 1502c24:	e3a00001 	mov	r0, #1
 1502c28:	ebffffaa 	bl	1502ad8 <do_burn_efuse_keysel>
 1502c2c:	e3a00002 	mov	r0, #2
 1502c30:	ebffffa8 	bl	1502ad8 <do_burn_efuse_keysel>
 1502c34:	e3a00001 	mov	r0, #1
 1502c38:	ebffffc1 	bl	1502b44 <do_burn_efuse_hwchk>
 1502c3c:	e3a00002 	mov	r0, #2
 1502c40:	ebffffbf 	bl	1502b44 <do_burn_efuse_hwchk>
 1502c44:	e3a00000 	mov	r0, #0
 1502c48:	e8bd8010 	pop	{r4, pc}

01502c4c <OTP_Get_Word>:
 1502c4c:	e3520000 	cmp	r2, #0
 1502c50:	e3c00003 	bic	r0, r0, #3
 1502c54:	0a00001a 	beq	1502cc4 <OTP_Get_Word+0x78>
 1502c58:	e280033e 	add	r0, r0, #-134217728	; 0xf8000000
 1502c5c:	e30fcfff 	movw	ip, #65535	; 0xffff
 1502c60:	e340c006 	movt	ip, #6
 1502c64:	e52de004 	push	{lr}		; (str lr, [sp, #-4]!)
 1502c68:	e0812102 	add	r2, r1, r2, lsl #2
 1502c6c:	e2800a17 	add	r0, r0, #94208	; 0x17000
 1502c70:	ea000004 	b	1502c88 <OTP_Get_Word+0x3c>
 1502c74:	e5903000 	ldr	r3, [r0]
 1502c78:	e2800004 	add	r0, r0, #4
 1502c7c:	e4813004 	str	r3, [r1], #4
 1502c80:	e1510002 	cmp	r1, r2
 1502c84:	0a00000c 	beq	1502cbc <OTP_Get_Word+0x70>
 1502c88:	e280331a 	add	r3, r0, #1744830464	; 0x68000000
 1502c8c:	e153000c 	cmp	r3, ip
 1502c90:	9afffff7 	bls	1502c74 <OTP_Get_Word+0x28>
 1502c94:	e2803467 	add	r3, r0, #1728053248	; 0x67000000
 1502c98:	e280e20a 	add	lr, r0, #-1610612736	; 0xa0000000
 1502c9c:	e283360f 	add	r3, r3, #15728640	; 0xf00000
 1502ca0:	e3530402 	cmp	r3, #33554432	; 0x2000000
 1502ca4:	259e3000 	ldrcs	r3, [lr]
 1502ca8:	3afffff1 	bcc	1502c74 <OTP_Get_Word+0x28>
 1502cac:	e4813004 	str	r3, [r1], #4
 1502cb0:	e2800004 	add	r0, r0, #4
 1502cb4:	e1510002 	cmp	r1, r2
 1502cb8:	1afffff2 	bne	1502c88 <OTP_Get_Word+0x3c>
 1502cbc:	e3a00000 	mov	r0, #0
 1502cc0:	e49df004 	pop	{pc}		; (ldr pc, [sp], #4)
 1502cc4:	e3a00000 	mov	r0, #0
 1502cc8:	e12fff1e 	bx	lr

01502ccc <OTP_Get_Byte>:
 1502ccc:	e3520000 	cmp	r2, #0
 1502cd0:	e3c00003 	bic	r0, r0, #3
 1502cd4:	0a00000f 	beq	1502d18 <OTP_Get_Byte+0x4c>
 1502cd8:	e52de004 	push	{lr}		; (str lr, [sp, #-4]!)
 1502cdc:	e081e002 	add	lr, r1, r2
 1502ce0:	e1a031a0 	lsr	r3, r0, #3
 1502ce4:	e2800008 	add	r0, r0, #8
 1502ce8:	e3c3c003 	bic	ip, r3, #3
 1502cec:	e2033003 	and	r3, r3, #3
 1502cf0:	e28cc326 	add	ip, ip, #-1744830464	; 0x98000000
 1502cf4:	e28cca17 	add	ip, ip, #94208	; 0x17000
 1502cf8:	e1a03183 	lsl	r3, r3, #3
 1502cfc:	e59cc000 	ldr	ip, [ip]
 1502d00:	e1a0333c 	lsr	r3, ip, r3
 1502d04:	e4c13001 	strb	r3, [r1], #1
 1502d08:	e151000e 	cmp	r1, lr
 1502d0c:	1afffff3 	bne	1502ce0 <OTP_Get_Byte+0x14>
 1502d10:	e1a00002 	mov	r0, r2
 1502d14:	e49df004 	pop	{pc}		; (ldr pc, [sp], #4)
 1502d18:	e1a00002 	mov	r0, r2
 1502d1c:	e12fff1e 	bx	lr

01502d20 <read_id_test>:
 1502d20:	e92d4010 	push	{r4, lr}
 1502d24:	e300cff8 	movw	ip, #4088	; 0xff8
 1502d28:	e240ea01 	sub	lr, r0, #4096	; 0x1000
 1502d2c:	e15e000c 	cmp	lr, ip
 1502d30:	8a000003 	bhi	1502d44 <read_id_test+0x24>
 1502d34:	e0803001 	add	r3, r0, r1
 1502d38:	e301cff8 	movw	ip, #8184	; 0x1ff8
 1502d3c:	e153000c 	cmp	r3, ip
 1502d40:	9a000001 	bls	1502d4c <read_id_test+0x2c>
 1502d44:	e3a00001 	mov	r0, #1
 1502d48:	e8bd8010 	pop	{r4, pc}
 1502d4c:	e1a03002 	mov	r3, r2
 1502d50:	e1a02001 	mov	r2, r1
 1502d54:	e1a01003 	mov	r1, r3
 1502d58:	ebffffdb 	bl	1502ccc <OTP_Get_Byte>
 1502d5c:	e3a00000 	mov	r0, #0
 1502d60:	e8bd8010 	pop	{r4, pc}

Disassembly of section .rodata:

01502d64 <_ctype>:
 1502d64:	08080808 	stmdaeq	r8, {r3, fp}
 1502d68:	08080808 	stmdaeq	r8, {r3, fp}
 1502d6c:	28282808 	stmdacs	r8!, {r3, fp, sp}
 1502d70:	08082828 	stmdaeq	r8, {r3, r5, fp, sp}
 1502d74:	08080808 	stmdaeq	r8, {r3, fp}
 1502d78:	08080808 	stmdaeq	r8, {r3, fp}
 1502d7c:	08080808 	stmdaeq	r8, {r3, fp}
 1502d80:	08080808 	stmdaeq	r8, {r3, fp}
 1502d84:	101010a0 	andsne	r1, r0, r0, lsr #1
 1502d88:	10101010 	andsne	r1, r0, r0, lsl r0
 1502d8c:	10101010 	andsne	r1, r0, r0, lsl r0
 1502d90:	10101010 	andsne	r1, r0, r0, lsl r0
 1502d94:	04040404 	streq	r0, [r4], #-1028	; 0x404
 1502d98:	04040404 	streq	r0, [r4], #-1028	; 0x404
 1502d9c:	10100404 	andsne	r0, r0, r4, lsl #8
 1502da0:	10101010 	andsne	r1, r0, r0, lsl r0
 1502da4:	41414110 	cmpmi	r1, r0, lsl r1
 1502da8:	01414141 	cmpeq	r1, r1, asr #2
 1502dac:	01010101 	tsteq	r1, r1, lsl #2
 1502db0:	01010101 	tsteq	r1, r1, lsl #2
 1502db4:	01010101 	tsteq	r1, r1, lsl #2
 1502db8:	01010101 	tsteq	r1, r1, lsl #2
 1502dbc:	10010101 	andne	r0, r1, r1, lsl #2
 1502dc0:	10101010 	andsne	r1, r0, r0, lsl r0
 1502dc4:	42424210 	submi	r4, r2, #16, 4
 1502dc8:	02424242 	subeq	r4, r2, #536870916	; 0x20000004
 1502dcc:	02020202 	andeq	r0, r2, #536870912	; 0x20000000
 1502dd0:	02020202 	andeq	r0, r2, #536870912	; 0x20000000
 1502dd4:	02020202 	andeq	r0, r2, #536870912	; 0x20000000
 1502dd8:	02020202 	andeq	r0, r2, #536870912	; 0x20000000
 1502ddc:	10020202 	andne	r0, r2, r2, lsl #4
 1502de0:	08101010 	ldmdaeq	r0, {r4, ip}
	...
 1502e04:	101010a0 	andsne	r1, r0, r0, lsr #1
 1502e08:	10101010 	andsne	r1, r0, r0, lsl r0
 1502e0c:	10101010 	andsne	r1, r0, r0, lsl r0
 1502e10:	10101010 	andsne	r1, r0, r0, lsl r0
 1502e14:	10101010 	andsne	r1, r0, r0, lsl r0
 1502e18:	10101010 	andsne	r1, r0, r0, lsl r0
 1502e1c:	10101010 	andsne	r1, r0, r0, lsl r0
 1502e20:	10101010 	andsne	r1, r0, r0, lsl r0
 1502e24:	01010101 	tsteq	r1, r1, lsl #2
 1502e28:	01010101 	tsteq	r1, r1, lsl #2
 1502e2c:	01010101 	tsteq	r1, r1, lsl #2
 1502e30:	01010101 	tsteq	r1, r1, lsl #2
 1502e34:	01010101 	tsteq	r1, r1, lsl #2
 1502e38:	10010101 	andne	r0, r1, r1, lsl #2
 1502e3c:	01010101 	tsteq	r1, r1, lsl #2
 1502e40:	02010101 	andeq	r0, r1, #1073741824	; 0x40000000
 1502e44:	02020202 	andeq	r0, r2, #536870912	; 0x20000000
 1502e48:	02020202 	andeq	r0, r2, #536870912	; 0x20000000
 1502e4c:	02020202 	andeq	r0, r2, #536870912	; 0x20000000
 1502e50:	02020202 	andeq	r0, r2, #536870912	; 0x20000000
 1502e54:	02020202 	andeq	r0, r2, #536870912	; 0x20000000
 1502e58:	10020202 	andne	r0, r2, r2, lsl #4
 1502e5c:	02020202 	andeq	r0, r2, #536870912	; 0x20000000
 1502e60:	02020202 	andeq	r0, r2, #536870912	; 0x20000000
 1502e64:	7566650a 	strbvc	r6, [r6, #-1290]!	; 0x50a
 1502e68:	70206573 	eorvc	r6, r0, r3, ror r5
 1502e6c:	72676f72 	rsbvc	r6, r7, #456	; 0x1c8
 1502e70:	656d6d61 	strbvs	r6, [sp, #-3425]!	; 0xd61
 1502e74:	31762072 	cmncc	r6, r2, ror r0
 1502e78:	2033302e 	eorscs	r3, r3, lr, lsr #32
 1502e7c:	72617473 	rsbvc	r7, r1, #1929379840	; 0x73000000
 1502e80:	2e2e2e74 	mcrcs	14, 1, r2, cr14, cr4, {3}
 1502e84:	00000a2e 	andeq	r0, r0, lr, lsr #20
 1502e88:	726f6609 	rsbvc	r6, pc, #9437184	; 0x900000
 1502e8c:	6e6f6e20 	cdpvs	14, 6, cr6, cr15, cr0, {1}
 1502e90:	6365732d 	cmnvs	r5, #-1275068416	; 0xb4000000
 1502e94:	20657275 	rsbcs	r7, r5, r5, ror r2
 1502e98:	746f6f62 	strbtvc	r6, [pc], #-3938	; 1502ea0 <_ctype+0x13c>
 1502e9c:	616c7020 	cmnvs	ip, r0, lsr #32
 1502ea0:	726f6674 	rsbvc	r6, pc, #116, 12	; 0x7400000
 1502ea4:	0a202c6d 	beq	1d0e060 <__bss_end__+0x7fa648>
 1502ea8:	00000000 	andeq	r0, r0, r0
 1502eac:	78616d09 	stmdavc	r1!, {r0, r3, r8, sl, fp, sp, lr}^
 1502eb0:	7563202e 	strbvc	r2, [r3, #-46]!	; 0x2e
 1502eb4:	645f7473 	ldrbvs	r7, [pc], #-1139	; 1502ebc <_ctype+0x158>
 1502eb8:	20617461 	rsbcs	r7, r1, r1, ror #8
 1502ebc:	676e656c 	strbvs	r6, [lr, -ip, ror #10]!
 1502ec0:	69206874 	stmdbvs	r0!, {r2, r4, r5, r6, fp, sp, lr}
 1502ec4:	36312073 			; <UNDEFINED> instruction: 0x36312073
 1502ec8:	00000a42 	andeq	r0, r0, r2, asr #20
 1502ecc:	20772d09 	rsbscs	r2, r7, r9, lsl #26
 1502ed0:	74737563 	ldrbtvc	r7, [r3], #-1379	; 0x563
 1502ed4:	7461645f 	strbtvc	r6, [r1], #-1119	; 0x45f
 1502ed8:	00000a61 	andeq	r0, r0, r1, ror #20
 1502edc:	74737563 	ldrbtvc	r7, [r3], #-1379	; 0x563
 1502ee0:	7461645f 	strbtvc	r6, [r1], #-1119	; 0x45f
 1502ee4:	003a2061 	eorseq	r2, sl, r1, rrx
 1502ee8:	206f6e09 	rsbcs	r6, pc, r9, lsl #28
 1502eec:	74737563 	ldrbtvc	r7, [r3], #-1379	; 0x563
 1502ef0:	7461645f 	strbtvc	r6, [r1], #-1119	; 0x45f
 1502ef4:	00000a61 	andeq	r0, r0, r1, ror #20
 1502ef8:	676f7270 			; <UNDEFINED> instruction: 0x676f7270
 1502efc:	206d6172 	rsbcs	r6, sp, r2, ror r1
 1502f00:	2050544f 	subscs	r5, r0, pc, asr #8
 1502f04:	4b4f4b4f 	blmi	28d5c48 <__bss_end__+0x13c2230>
 1502f08:	4b4f4b4f 	blmi	28d5c4c <__bss_end__+0x13c2234>
 1502f0c:	4b4f4b4f 	blmi	28d5c50 <__bss_end__+0x13c2238>
 1502f10:	21212121 	teqcs	r1, r1, lsr #2
 1502f14:	0a212121 	beq	1d4b3a0 <__bss_end__+0x837988>
 1502f18:	00000000 	andeq	r0, r0, r0
 1502f1c:	676f7270 			; <UNDEFINED> instruction: 0x676f7270
 1502f20:	206d6172 	rsbcs	r6, sp, r2, ror r1
 1502f24:	2050544f 	subscs	r5, r0, pc, asr #8
 1502f28:	6c696166 	stfvse	f6, [r9], #-408	; 0xfffffe68
 1502f2c:	6c696166 	stfvse	f6, [r9], #-408	; 0xfffffe68
 1502f30:	6c696166 	stfvse	f6, [r9], #-408	; 0xfffffe68
 1502f34:	21212121 	teqcs	r1, r1, lsr #2
 1502f38:	0a212121 	beq	1d4b3c4 <__bss_end__+0x8379ac>
 1502f3c:	00000000 	andeq	r0, r0, r0

01502f40 <__FUNCTION__.6517>:
 1502f40:	5f534541 	svcpl	0x00534541
 1502f44:	5f424345 	svcpl	0x00424345
 1502f48:	72636e65 	rsbvc	r6, r3, #1616	; 0x650
 1502f4c:	00747079 	rsbseq	r7, r4, r9, ror r0

01502f50 <Kh_key_default>:
 1502f50:	ad0d8175 	stfged	f0, [sp, #-468]	; 0xfffffe2c
 1502f54:	a0d732c0 	sbcsge	r3, r7, r0, asr #5
 1502f58:	e56ef350 	strb	pc, [lr, #-848]!	; 0x350	; <UNPREDICTABLE>
 1502f5c:	c53ce48b 	ldrgt	lr, [ip, #-1163]!	; 0x48b
 1502f60:	2e70636d 	cdpcs	3, 7, cr6, cr0, cr13, {3}
 1502f64:	00000063 	andeq	r0, r0, r3, rrx
 1502f68:	202a2a2a 	eorcs	r2, sl, sl, lsr #20
 1502f6c:	25207325 	strcs	r7, [r0, #-805]!	; 0x325
 1502f70:	64252073 	strtvs	r2, [r5], #-115	; 0x73
 1502f74:	0000000a 	andeq	r0, r0, sl
 1502f78:	483e3d3d 	ldmdami	lr!, {r0, r2, r3, r4, r5, r8, sl, fp, ip, sp}
 1502f7c:	41535257 	cmpmi	r3, r7, asr r2
 1502f80:	6d697420 	cfstrdvs	mvd7, [r9, #-128]!	; 0xffffff80
 1502f84:	74756f65 	ldrbtvc	r6, [r5], #-3941	; 0xf65
 1502f88:	000a2120 	andeq	r2, sl, r0, lsr #2

01502f8c <.LANCHOR0>:
 1502f8c:	30002008 	andcc	r2, r0, r8
 1502f90:	c001500f 	andgt	r5, r1, pc
 1502f94:	700d6002 	andvc	r6, sp, r2
 1502f98:	d008a00b 	andle	sl, r8, fp
 1502f9c:	61727261 	cmnvs	r2, r1, ror #4
 1502fa0:	6f632079 	svcvs	0x00632079
 1502fa4:	7261706d 	rsbvc	r7, r1, #109	; 0x6d
 1502fa8:	61702065 	cmnvs	r0, r5, rrx
 1502fac:	000a7373 	andeq	r7, sl, r3, ror r3
 1502fb0:	756c6176 	strbvc	r6, [ip, #-374]!	; 0x176
 1502fb4:	203a2065 	eorscs	r2, sl, r5, rrx
 1502fb8:	00000000 	andeq	r0, r0, r0
 1502fbc:	65746e69 	ldrbvs	r6, [r4, #-3689]!	; 0xe69
 1502fc0:	74697267 	strbtvc	r7, [r9], #-615	; 0x267
 1502fc4:	203a2079 	eorscs	r2, sl, r9, ror r0
 1502fc8:	00000000 	andeq	r0, r0, r0
 1502fcc:	69206472 	stmdbvs	r0!, {r1, r4, r5, r6, sl, sp, lr}
 1502fd0:	6765746e 	strbvs	r7, [r5, -lr, ror #8]!
 1502fd4:	79746972 	ldmdbvc	r4!, {r1, r4, r5, r6, r8, fp, sp, lr}^
 1502fd8:	00203a20 	eoreq	r3, r0, r0, lsr #20
 1502fdc:	69207277 	stmdbvs	r0!, {r0, r1, r2, r4, r5, r6, r9, ip, sp, lr}
 1502fe0:	6765746e 	strbvs	r7, [r5, -lr, ror #8]!
 1502fe4:	79746972 	ldmdbvc	r4!, {r1, r4, r5, r6, r8, fp, sp, lr}^
 1502fe8:	6e6f6420 	cdpvs	4, 6, cr6, cr15, cr0, {1}
 1502fec:	00000a65 	andeq	r0, r0, r5, ror #20
 1502ff0:	69207277 	stmdbvs	r0!, {r0, r1, r2, r4, r5, r6, r9, ip, sp, lr}
 1502ff4:	6765746e 	strbvs	r7, [r5, -lr, ror #8]!
 1502ff8:	79746972 	ldmdbvc	r4!, {r1, r4, r5, r6, r8, fp, sp, lr}^
 1502ffc:	69616620 	stmdbvs	r1!, {r5, r9, sl, sp, lr}^
 1503000:	00000a6c 	andeq	r0, r0, ip, ror #20

01503004 <__FUNCTION__.3994>:
 1503004:	64786568 	ldrbtvs	r6, [r8], #-1384	; 0x568
 1503008:	00706d75 	rsbseq	r6, r0, r5, ror sp
 150300c:	656d6954 	strbvs	r6, [sp, #-2388]!	; 0x954
 1503010:	74756f20 	ldrbtvc	r6, [r5], #-3872	; 0xf20
 1503014:	00000a20 	andeq	r0, r0, r0, lsr #20
 1503018:	4c4c554e 	cfstr64mi	mvdx5, [ip], {78}	; 0x4e
 150301c:	0000000a 	andeq	r0, r0, sl
 1503020:	78302820 	ldmdavc	r0!, {r5, fp, sp}
 1503024:	00000000 	andeq	r0, r0, r0
 1503028:	00000a29 	andeq	r0, r0, r9, lsr #20
 150302c:	00000020 	andeq	r0, r0, r0, lsr #32
 1503030:	30257830 	eorcc	r7, r5, r0, lsr r8
 1503034:	3a786c38 	bcc	331e11c <__bss_end__+0x1e0a704>
 1503038:	00000000 	andeq	r0, r0, r0
 150303c:	2a302520 	bcs	210c4c4 <__bss_end__+0xbf8aac>
 1503040:	00000078 	andeq	r0, r0, r8, ror r0
 1503044:	0000002a 	andeq	r0, r0, sl, lsr #32
 1503048:	20202020 	eorcs	r2, r0, r0, lsr #32
 150304c:	0a73253a 	beq	31cc53c <__bss_end__+0x1cb8b24>
 1503050:	00000000 	andeq	r0, r0, r0
 1503054:	20202020 	eorcs	r2, r0, r0, lsr #32
 1503058:	000a2a3a 	andeq	r2, sl, sl, lsr sl
 150305c:	3d746572 	cfldr64cc	mvdx6, [r4, #-456]!	; 0xfffffe38
 1503060:	000a6425 	andeq	r6, sl, r5, lsr #8
 1503064:	5b776172 	blpl	32db634 <__bss_end__+0x1dc7c1c>
 1503068:	20782520 	rsbscs	r2, r8, r0, lsr #10
 150306c:	2020205d 	eorcs	r2, r0, sp, asr r0
 1503070:	20202020 	eorcs	r2, r0, r0, lsr #32
 1503074:	20636e65 	rsbcs	r6, r3, r5, ror #28
 1503078:	7825205b 	stmdavc	r5!, {r0, r1, r3, r4, r6, sp}
 150307c:	000a5d20 	andeq	r5, sl, r0, lsr #26
 1503080:	5b636e65 	blpl	2ddea1c <__bss_end__+0x18cb004>
 1503084:	20782520 	rsbscs	r2, r8, r0, lsr #10
 1503088:	2020205d 	eorcs	r2, r0, sp, asr r0
 150308c:	20202020 	eorcs	r2, r0, r0, lsr #32
 1503090:	5b776172 	blpl	32db660 <__bss_end__+0x1dc7c48>
 1503094:	5d782520 	cfldr64pl	mvdx2, [r8, #-128]!	; 0xffffff80
 1503098:	0000000a 	andeq	r0, r0, sl
 150309c:	20746f6e 	rsbscs	r6, r4, lr, ror #30
 15030a0:	6e727562 	cdpvs	5, 7, cr7, cr2, cr2, {3}
 15030a4:	00000a21 	andeq	r0, r0, r1, lsr #20
 15030a8:	65637865 	strbvs	r7, [r3, #-2149]!	; 0x865
 15030ac:	6b206465 	blvs	1d1c248 <__bss_end__+0x808830>
 15030b0:	65737965 	ldrbvs	r7, [r3, #-2405]!	; 0x965
 15030b4:	6176206c 	cmnvs	r6, ip, rrx
 15030b8:	0a65756c 	beq	2e60670 <__bss_end__+0x194cc58>
 15030bc:	00000000 	andeq	r0, r0, r0
 15030c0:	65637865 	strbvs	r7, [r3, #-2149]!	; 0x865
 15030c4:	68206465 	stmdavs	r0!, {r0, r2, r5, r6, sl, sp, lr}
 15030c8:	6b686377 	blvs	2f1beac <__bss_end__+0x1a08494>
 15030cc:	6c617620 	stclvs	6, cr7, [r1], #-128	; 0xffffff80
 15030d0:	000a6575 	andeq	r6, sl, r5, ror r5

Disassembly of section .data:

015130d4 <rsa_pub_key>:
 15130d4:	ec39e4af 	cfldrs	mvf14, [r9], #-700	; 0xfffffd44
 15130d8:	0016e5dd 			; <UNDEFINED> instruction: 0x0016e5dd
 15130dc:	8465bb72 	strbthi	fp, [r5], #-2930	; 0xb72
 15130e0:	bd4fa5dd 	cfstr64lt	mvdx10, [pc, #-884]	; 1512d74 <__FUNCTION__.3994+0xfd70>
 15130e4:	e32ee3df 	teq	lr, #2080374787	; 0x7c000003
 15130e8:	00db5c17 	sbcseq	r5, fp, r7, lsl ip
 15130ec:	d2fe52ac 	rscsle	r5, lr, #172, 4	; 0xc000000a
 15130f0:	ec2a71c3 	stfs	f7, [sl], #-780	; 0xfffffcf4
 15130f4:	1d77452b 	cfldr64ne	mvdx4, [r7, #-172]!	; 0xffffff54
 15130f8:	304c7f48 	subcc	r7, ip, r8, asr #30
 15130fc:	7c2c34c7 	cfstrsvc	mvf3, [ip], #-796	; 0xfffffce4
 1513100:	01e5958f 	mvneq	r9, pc, lsl #11
 1513104:	1f9473d8 	svcne	0x009473d8
 1513108:	2710e662 	ldrcs	lr, [r0, -r2, ror #12]
 151310c:	acf87a98 	vldmiage	r8!, {s15-s166}
 1513110:	9f9b925a 	svcls	0x009b925a
 1513114:	1719b66e 	ldrne	fp, [r9, -lr, ror #12]
 1513118:	0c3d1971 	ldceq	9, cr1, [sp], #-452	; 0xfffffe3c
 151311c:	18f46303 	ldmne	r4!, {r0, r1, r8, r9, sp, lr}^
 1513120:	fcbfc6a4 	ldc2	6, cr12, [pc], #656	; 15133b8 <rsa_pub_tee_key+0xdc>
 1513124:	12ff9440 	rscsne	r9, pc, #64, 8	; 0x40000000
 1513128:	8ec0883f 	mcrhi	8, 6, r8, cr0, cr15, {1}
 151312c:	5481c382 	strpl	ip, [r1], #898	; 0x382
 1513130:	3dba11fa 	ldfccs	f1, [sl, #1000]!	; 0x3e8
 1513134:	9ef62b74 	vmovls.u8	r2, d6[7]
 1513138:	ffef1d46 			; <UNDEFINED> instruction: 0xffef1d46
 151313c:	894305d8 	stmdbhi	r3, {r3, r4, r6, r7, r8, sl}^
 1513140:	76ed8476 	uxtabvc	r8, sp, r6, ror #8
 1513144:	ad9060f3 	ldcge	0, cr6, [r0, #972]	; 0x3cc
 1513148:	38c2ccfa 	stmiacc	r2, {r1, r3, r4, r5, r6, r7, sl, fp, lr, pc}^
 151314c:	62c0ff88 	sbcvs	pc, r0, #136, 30	; 0x220
 1513150:	1579ec0a 	ldrbne	lr, [r9, #-3082]!	; 0xc0a
 1513154:	675e0048 	ldrbvs	r0, [lr, -r8, asr #32]
 1513158:	486be9a4 	stmdami	fp!, {r2, r5, r7, r8, fp, sp, lr, pc}^
 151315c:	0cde44d9 	cfldrdeq	mvd4, [lr], {217}	; 0xd9
 1513160:	56cf0ee8 	strbpl	r0, [pc], r8, ror #29
 1513164:	2618c91b 			; <UNDEFINED> instruction: 0x2618c91b
 1513168:	8a24e311 	bhi	1e4bdb4 <__bss_end__+0x93839c>
 151316c:	642f509c 	strtvs	r5, [pc], #-156	; 1513174 <rsa_pub_key+0xa0>
 1513170:	48d88a99 	ldmmi	r8, {r0, r3, r4, r7, r9, fp, pc}^
 1513174:	629dd425 	addsvs	sp, sp, #620756992	; 0x25000000
 1513178:	a8af95be 	stmiage	pc!, {r1, r2, r3, r4, r5, r7, r8, sl, ip, pc}	; <UNPREDICTABLE>
 151317c:	9d305a0e 	vldmdbls	r0!, {s10-s23}
 1513180:	6eeee264 	cdpvs	2, 14, cr14, cr14, cr4, {3}
 1513184:	25d2f066 	ldrbcs	pc, [r2, #102]	; 0x66	; <UNPREDICTABLE>
 1513188:	db143839 	blle	1a21274 <__bss_end__+0x50d85c>
 151318c:	a86d03d4 	stmdage	sp!, {r2, r4, r6, r7, r8, r9}^
 1513190:	fa80cb0f 	blx	ff545dd4 <__bss_end__+0xfe0323bc>
 1513194:	def72263 	cdple	2, 15, cr2, cr7, cr3, {3}
 1513198:	83944dbf 	orrshi	r4, r4, #12224	; 0x2fc0
 151319c:	2ec53a81 	vdivcs.f32	s7, s11, s2
 15131a0:	a8c593d3 	stmiage	r5, {r0, r1, r4, r6, r7, r8, r9, ip, pc}^
 15131a4:	9374b09c 	cmnls	r4, #156	; 0x9c
 15131a8:	11fd65c8 	mvnsne	r6, r8, asr #11
 15131ac:	2a5e7165 	bcs	2caf748 <__bss_end__+0x179bd30>
 15131b0:	f148b0b7 			; <UNDEFINED> instruction: 0xf148b0b7
 15131b4:	41054302 	tstmi	r5, r2, lsl #6
 15131b8:	7a64a9a8 	bvc	2e3d860 <__bss_end__+0x1929e48>
 15131bc:	ab81b7ec 	blge	ff581174 <__bss_end__+0xfe06d75c>
 15131c0:	dad35f89 	ble	9eafec <_back_addr-0xb15014>
 15131c4:	0db8b8c3 	ldceq	8, cr11, [r8, #780]!	; 0x30c
 15131c8:	3f74dba1 	svccc	0x0074dba1
 15131cc:	af3f83eb 	svcge	0x003f83eb
 15131d0:	b9975438 	ldmiblt	r7, {r3, r4, r5, sl, ip, lr}

015131d4 <rsa_pub_key_end>:
 15131d4:	00000000 	andeq	r0, r0, r0

015131d8 <rsa_pub_fw_key>:
 15131d8:	35c8bfd3 	strbcc	fp, [r8, #4051]	; 0xfd3
 15131dc:	edbbc7b0 	ldc	7, cr12, [fp, #704]!	; 0x2c0
 15131e0:	ba230033 	blt	1dd32b4 <__bss_end__+0x8bf89c>
 15131e4:	45ceb331 	strbmi	fp, [lr, #817]	; 0x331
 15131e8:	82acf39f 	adchi	pc, ip, #2080374786	; 0x7c000002
 15131ec:	98ba4376 	ldmls	sl!, {r1, r2, r4, r5, r6, r8, r9, lr}
 15131f0:	7dbf238f 	ldcvc	3, cr2, [pc, #572]!	; 1513434 <aes_seed+0x4>
 15131f4:	045292d0 	ldrbeq	r9, [r2], #-720	; 0x2d0
 15131f8:	4def37de 	stclmi	7, cr3, [pc, #888]!	; 1513578 <rsa_pub_key+0xf8>
 15131fc:	6a55d85a 	bvs	2a8936c <__bss_end__+0x1575954>
 1513200:	33b6e5b5 			; <UNDEFINED> instruction: 0x33b6e5b5
 1513204:	dbc36e4f 	blle	5eeb48 <_back_addr-0xf114b8>
 1513208:	63cd3d5d 	bicvs	r3, sp, #5952	; 0x1740
 151320c:	ee9c07ee 	cdp	7, 9, cr0, cr12, cr14, {7}
 1513210:	06e1f4b4 			; <UNDEFINED> instruction: 0x06e1f4b4
 1513214:	835a81aa 	cmphi	sl, #-2147483606	; 0x8000002a
 1513218:	1661bdb1 			; <UNDEFINED> instruction: 0x1661bdb1
 151321c:	2c2cd5cc 	cfstr32cs	mvfx13, [ip], #-816	; 0xfffffcd0
 1513220:	64afb177 	strtvs	fp, [pc], #375	; 1513228 <rsa_pub_fw_key+0x50>
 1513224:	95c681ce 	strbls	r8, [r6, #462]	; 0x1ce
 1513228:	307ff6b8 	ldrhtcc	pc, [pc], #-104	; <UNPREDICTABLE>
 151322c:	057e77d4 	ldrbeq	r7, [lr, #-2004]!	; 0x7d4
 1513230:	ad53fac7 	vldrge	s31, [r3, #-796]	; 0xfffffce4
 1513234:	9e6cd98a 	cdpls	9, 6, cr13, cr12, cr10, {4}
 1513238:	5eb83db9 	mrcpl	13, 5, r3, cr8, cr9, {5}
 151323c:	82e0e660 	rschi	lr, r0, #96, 12	; 0x6000000
 1513240:	c7c6f48a 	strbgt	pc, [r6, sl, lsl #9]	; <UNPREDICTABLE>
 1513244:	cc892978 	stcgt	9, cr2, [r9], {120}	; 0x78
 1513248:	81858d55 	orrhi	r8, r5, r5, asr sp
 151324c:	195dcfb8 	ldmdbne	sp, {r3, r4, r5, r7, r8, r9, sl, fp, lr, pc}^
 1513250:	da968380 	ble	ffab4058 <__bss_end__+0xfe5a0640>
 1513254:	51b8a7cc 			; <UNDEFINED> instruction: 0x51b8a7cc
 1513258:	09744000 	ldmdbeq	r4!, {lr}^
 151325c:	0df9c109 	ldfeqp	f4, [r9, #36]!	; 0x24
 1513260:	7299d6ae 	addsvc	sp, r9, #182452224	; 0xae00000
 1513264:	a810b832 	ldmdage	r0, {r1, r4, r5, fp, ip, sp, pc}
 1513268:	203e610b 	eorscs	r6, lr, fp, lsl #2
 151326c:	01f2bfeb 	mvnseq	fp, fp, ror #31
 1513270:	a7b2ced5 	sbfxge	ip, r5, #29, #19
 1513274:	ce5557fd 	mrcgt	7, 2, r5, cr5, cr13, {7}
 1513278:	71f2b07b 	mvnsvc	fp, fp, ror r0
 151327c:	8eec1c8d 	cdphi	12, 14, cr1, cr12, cr13, {4}
 1513280:	84d9ad1f 	ldrbhi	sl, [r9], #3359	; 0xd1f
 1513284:	c17be870 	cmngt	fp, r0, ror r8
 1513288:	494ad860 	stmdbmi	sl, {r5, r6, fp, ip, lr, pc}^
 151328c:	7bebaee7 	blvc	ffee30 <_back_addr-0x5011d0>
 1513290:	0442e1dd 	strbeq	lr, [r2], #-477	; 0x1dd
 1513294:	cfad0e27 	svcgt	0x00ad0e27
 1513298:	b1d114c7 	bicslt	r1, r1, r7, asr #9
 151329c:	3cbccbb5 	fldmiaxcc	ip!, {d12-d101}	;@ Deprecated
 15132a0:	49ac9671 	stmibmi	ip!, {r0, r4, r5, r6, r9, sl, ip, pc}
 15132a4:	d966c784 	stmdble	r6!, {r2, r7, r8, r9, sl, lr, pc}^
 15132a8:	e8a7962d 	stmia	r7!, {r0, r2, r3, r5, r9, sl, ip, pc}
 15132ac:	3c630143 	stfcce	f0, [r3], #-268	; 0xfffffef4
 15132b0:	4b1aaffe 	blmi	1bbf2b0 <__bss_end__+0x6ab898>
 15132b4:	b1aaacfd 	strdlt	sl, [sl, sp]!
 15132b8:	f937354f 			; <UNDEFINED> instruction: 0xf937354f
 15132bc:	e3f61eaf 	mvns	r1, #2800	; 0xaf0
 15132c0:	6e261ecc 	cdpvs	14, 2, cr1, cr6, cr12, {6}
 15132c4:	d2a7f5a5 	adcle	pc, r7, #692060160	; 0x29400000
 15132c8:	867b0e40 	ldrbthi	r0, [fp], -r0, asr #28
 15132cc:	09c69fe9 	stmibeq	r6, {r0, r3, r5, r6, r7, r8, r9, sl, fp, ip, pc}^
 15132d0:	d28288d9 	addle	r8, r2, #14221312	; 0xd90000
 15132d4:	95e48d81 	strbls	r8, [r4, #3457]!	; 0xd81

015132d8 <rsa_pub_fw_key_end>:
 15132d8:	00000000 	andeq	r0, r0, r0

015132dc <rsa_pub_tee_key>:
 15132dc:	e262baf3 	rsb	fp, r2, #995328	; 0xf3000
 15132e0:	e8dbd77a 	ldm	fp, {r1, r3, r4, r5, r6, r8, r9, sl, ip, lr, pc}^
 15132e4:	30cb0248 	sbccc	r0, fp, r8, asr #4
 15132e8:	f75f03fd 			; <UNDEFINED> instruction: 0xf75f03fd
 15132ec:	27f36571 			; <UNDEFINED> instruction: 0x27f36571
 15132f0:	161e23df 			; <UNDEFINED> instruction: 0x161e23df
 15132f4:	d68c6128 	strle	r6, [ip], r8, lsr #2
 15132f8:	c4827c88 	strgt	r7, [r2], #3208	; 0xc88
 15132fc:	2fd9e52a 	svccs	0x00d9e52a
 1513300:	fd90539a 	ldc2	3, cr5, [r0, #616]	; 0x268
 1513304:	83e1b31b 	mvnhi	fp, #1811939328	; 0x6c000000
 1513308:	902a0e45 	eorls	r0, sl, r5, asr #28
 151330c:	a1b0d415 	lslsge	sp, r5, r4
 1513310:	f3731b6c 	vqrdmulh.s<illegal width 64>	<illegal reg q8.5>, <illegal reg q1.5>, q14
 1513314:	f8c50bb3 			; <UNDEFINED> instruction: 0xf8c50bb3
 1513318:	6a5c8bc6 	bvs	2c36238 <__bss_end__+0x1722820>
 151331c:	e7188186 	ldr	r8, [r8, -r6, lsl #3]
 1513320:	61a0e427 	lsrvs	lr, r7, #8
 1513324:	08427029 	stmdaeq	r2, {r0, r3, r5, ip, sp, lr}^
 1513328:	8249831f 	subhi	r8, r9, #2080374784	; 0x7c000000
 151332c:	fc6f5aa5 	stc2l	10, cr5, [pc], #-660	; 15130a0 <__FUNCTION__.3994+0x1009c>
 1513330:	9971534f 	ldmdbls	r1!, {r0, r1, r2, r3, r6, r8, r9, ip, lr}^
 1513334:	200a1605 	andcs	r1, sl, r5, lsl #12
 1513338:	5a3f168a 	bpl	24d8d68 <__bss_end__+0xfc5350>
 151333c:	3d550f64 	ldclcc	15, cr0, [r5, #-400]	; 0xfffffe70
 1513340:	41ae631f 			; <UNDEFINED> instruction: 0x41ae631f
 1513344:	2312cd31 	tstcs	r2, #3136	; 0xc40
 1513348:	803dc245 	eorshi	ip, sp, r5, asr #4
 151334c:	60c5915b 	sbcvs	r9, r5, fp, asr r1
 1513350:	fa7f9f37 	blx	34fb034 <__bss_end__+0x1fe761c>
 1513354:	2abfba77 	bcs	501d38 <_back_addr-0xffe2c8>
 1513358:	4dd632ed 	lfmmi	f3, 2, [r6, #948]	; 0x3b4
 151335c:	69324acd 	ldmdbvs	r2!, {r0, r2, r3, r6, r7, r9, fp, lr}
 1513360:	8f05be10 	svchi	0x0005be10
 1513364:	97f21362 	ldrbls	r1, [r2, r2, ror #6]!
 1513368:	0f377e78 	svceq	0x00377e78
 151336c:	7e2edda6 	cdpvc	13, 2, cr13, cr14, cr6, {5}
 1513370:	9df6f4f1 	cfldrdls	mvd15, [r6, #964]!	; 0x3c4
 1513374:	146e8f6e 	strbtne	r8, [lr], #-3950	; 0xf6e
 1513378:	4d6def99 	stclmi	15, cr14, [sp, #-612]!	; 0xfffffd9c
 151337c:	4e2db967 	cdpmi	9, 2, cr11, cr13, cr7, {3}
 1513380:	f69fb74b 			; <UNDEFINED> instruction: 0xf69fb74b
 1513384:	8fa07b14 	svchi	0x00a07b14
 1513388:	d471048a 	ldrbtle	r0, [r1], #-1162	; 0x48a
 151338c:	cd1984ba 	cfldrsgt	mvf8, [r9, #-744]	; 0xfffffd18
 1513390:	dbcef46c 	blle	8d0548 <_back_addr-0xc2fab8>
 1513394:	81048ad3 	ldrdhi	r8, [r4, -r3]
 1513398:	898db497 	stmibhi	sp, {r0, r1, r2, r4, r7, sl, ip, sp, pc}
 151339c:	94010ef4 	strls	r0, [r1], #-3828	; 0xef4
 15133a0:	f718c6e1 			; <UNDEFINED> instruction: 0xf718c6e1
 15133a4:	a84f788c 	stmdage	pc, {r2, r3, r7, fp, ip, sp, lr}^	; <UNPREDICTABLE>
 15133a8:	b22ff5a6 	eorlt	pc, pc, #696254464	; 0x29800000
 15133ac:	5bad71cf 	blpl	6faf0 <_back_addr-0x1490510>
 15133b0:	4034d568 	eorsmi	sp, r4, r8, ror #10
 15133b4:	dd2d3b72 	vpushle	{d3-<overflow reg d59>}
 15133b8:	70c386f4 	strdvc	r8, [r3], #100	; 0x64
 15133bc:	c5482dce 	strbgt	r2, [r8, #-3534]	; 0xdce
 15133c0:	465c0130 			; <UNDEFINED> instruction: 0x465c0130
 15133c4:	e4afe7ed 	strt	lr, [pc], #2029	; 15133cc <rsa_pub_tee_key+0xf0>
 15133c8:	053f4719 	ldreq	r4, [pc, #-1817]!	; 1512cb7 <__FUNCTION__.3994+0xfcb3>
 15133cc:	9696b7f3 			; <UNDEFINED> instruction: 0x9696b7f3
 15133d0:	9f7f8e81 	svcls	0x007f8e81
 15133d4:	d9306deb 	ldmdble	r0!, {r0, r1, r3, r5, r6, r7, r8, sl, fp, sp, lr}
 15133d8:	a294635c 	addsge	r6, r4, #92, 6	; 0x70000001

015133dc <rsa_pub_tee_key_end>:
 15133dc:	00000000 	andeq	r0, r0, r0

015133e0 <aes_key>:
 15133e0:	fb6d158d 	blx	3058a1e <__bss_end__+0x1b45006>
 15133e4:	e0bc6b32 	adcs	r6, ip, r2, lsr fp
 15133e8:	343822ab 	ldrtcc	r2, [r8], #-683	; 0x2ab
 15133ec:	e2e1837f 	rsc	r8, r1, #-67108863	; 0xfc000001

015133f0 <aes_key_end>:
 15133f0:	00000000 	andeq	r0, r0, r0

015133f4 <aes_key1>:
 15133f4:	4bdb96d3 	blmi	bf8f48 <_back_addr-0x9070b8>
 15133f8:	44433c67 	strbmi	r3, [r3], #-3175	; 0xc67
 15133fc:	d13216c7 	teqle	r2, r7, asr #13
 1513400:	047ceb1b 	ldrbteq	lr, [ip], #-2843	; 0xb1b

01513404 <aes_key1_end>:
 1513404:	00000000 	andeq	r0, r0, r0

01513408 <aes_key2>:
 1513408:	1372fb2f 	cmnne	r2, #48128	; 0xbc00
 151340c:	4890504b 	ldmmi	r0, {r0, r1, r3, r6, ip, lr}
 1513410:	76e3cd0c 	strbtvc	ip, [r3], ip, lsl #26
 1513414:	ef2fc4bc 	svc	0x002fc4bc

01513418 <aes_key2_end>:
 1513418:	00000000 	andeq	r0, r0, r0

0151341c <aes_key3>:
 151341c:	b1b37e33 			; <UNDEFINED> instruction: 0xb1b37e33
 1513420:	8a286395 	bhi	1f2c27c <__bss_end__+0xa18864>
 1513424:	fb6497e9 	blx	2e393d2 <__bss_end__+0x19259ba>
 1513428:	0c28c865 	stceq	8, cr12, [r8], #-404	; 0xfffffe6c

0151342c <aes_key3_end>:
 151342c:	00000000 	andeq	r0, r0, r0

01513430 <aes_seed>:
 1513430:	68710f2d 	ldmdavs	r1!, {r0, r2, r3, r5, r8, r9, sl, fp}^
 1513434:	33038c17 	movwcc	r8, #15383	; 0x3c17
 1513438:	667c3ddd 			; <UNDEFINED> instruction: 0x667c3ddd
 151343c:	0ff88e5a 	svceq	0x00f88e5a

01513440 <aes_seed_end>:
 1513440:	00000000 	andeq	r0, r0, r0

01513444 <cust_data>:
 1513444:	00000000 	andeq	r0, r0, r0

01513448 <UartReg>:
 1513448:	98007800 	stmdals	r0, {fp, ip, sp, lr}

0151344c <alloc_current.3981>:
 151344c:	04000000 	streq	r0, [r0], #-0

01513450 <arrayB>:
 1513450:	ffffffff 			; <UNDEFINED> instruction: 0xffffffff
 1513454:	ffffffff 			; <UNDEFINED> instruction: 0xffffffff
 1513458:	ffffffff 			; <UNDEFINED> instruction: 0xffffffff
 151345c:	ffffffff 			; <UNDEFINED> instruction: 0xffffffff

01513460 <arrayA>:
 1513460:	07050301 	streq	r0, [r5, -r1, lsl #6]
 1513464:	23211109 	teqcs	r1, #1073741826	; 0x40000002
 1513468:	31292725 	teqcc	r9, r5, lsr #14
 151346c:	39373533 	ldmdbcc	r7!, {r0, r1, r4, r5, r8, sl, ip, sp}

01513470 <arrayC>:
 1513470:	ffffffff 			; <UNDEFINED> instruction: 0xffffffff
 1513474:	ffffffff 			; <UNDEFINED> instruction: 0xffffffff
 1513478:	ffffffff 			; <UNDEFINED> instruction: 0xffffffff
 151347c:	ffffffff 			; <UNDEFINED> instruction: 0xffffffff

01513480 <rsa_pub_key>:
 1513480:	ec39e4af 	cfldrs	mvf14, [r9], #-700	; 0xfffffd44
 1513484:	0016e5dd 			; <UNDEFINED> instruction: 0x0016e5dd
 1513488:	8465bb72 	strbthi	fp, [r5], #-2930	; 0xb72
 151348c:	bd4fa5dd 	cfstr64lt	mvdx10, [pc, #-884]	; 1513120 <rsa_pub_key+0x4c>
 1513490:	e32ee3df 	teq	lr, #2080374787	; 0x7c000003
 1513494:	00db5c17 	sbcseq	r5, fp, r7, lsl ip
 1513498:	d2fe52ac 	rscsle	r5, lr, #172, 4	; 0xc000000a
 151349c:	ec2a71c3 	stfs	f7, [sl], #-780	; 0xfffffcf4
 15134a0:	1d77452b 	cfldr64ne	mvdx4, [r7, #-172]!	; 0xffffff54
 15134a4:	304c7f48 	subcc	r7, ip, r8, asr #30
 15134a8:	7c2c34c7 	cfstrsvc	mvf3, [ip], #-796	; 0xfffffce4
 15134ac:	01e5958f 	mvneq	r9, pc, lsl #11
 15134b0:	1f9473d8 	svcne	0x009473d8
 15134b4:	2710e662 	ldrcs	lr, [r0, -r2, ror #12]
 15134b8:	acf87a98 	vldmiage	r8!, {s15-s166}
 15134bc:	9f9b925a 	svcls	0x009b925a
 15134c0:	1719b66e 	ldrne	fp, [r9, -lr, ror #12]
 15134c4:	0c3d1971 	ldceq	9, cr1, [sp], #-452	; 0xfffffe3c
 15134c8:	18f46303 	ldmne	r4!, {r0, r1, r8, r9, sp, lr}^
 15134cc:	fcbfc6a4 	ldc2	6, cr12, [pc], #656	; 1513764 <v_array+0x194>
 15134d0:	12ff9440 	rscsne	r9, pc, #64, 8	; 0x40000000
 15134d4:	8ec0883f 	mcrhi	8, 6, r8, cr0, cr15, {1}
 15134d8:	5481c382 	strpl	ip, [r1], #898	; 0x382
 15134dc:	3dba11fa 	ldfccs	f1, [sl, #1000]!	; 0x3e8
 15134e0:	9ef62b74 	vmovls.u8	r2, d6[7]
 15134e4:	ffef1d46 			; <UNDEFINED> instruction: 0xffef1d46
 15134e8:	894305d8 	stmdbhi	r3, {r3, r4, r6, r7, r8, sl}^
 15134ec:	76ed8476 	uxtabvc	r8, sp, r6, ror #8
 15134f0:	ad9060f3 	ldcge	0, cr6, [r0, #972]	; 0x3cc
 15134f4:	38c2ccfa 	stmiacc	r2, {r1, r3, r4, r5, r6, r7, sl, fp, lr, pc}^
 15134f8:	62c0ff88 	sbcvs	pc, r0, #136, 30	; 0x220
 15134fc:	1579ec0a 	ldrbne	lr, [r9, #-3082]!	; 0xc0a
 1513500:	675e0048 	ldrbvs	r0, [lr, -r8, asr #32]
 1513504:	486be9a4 	stmdami	fp!, {r2, r5, r7, r8, fp, sp, lr, pc}^
 1513508:	0cde44d9 	cfldrdeq	mvd4, [lr], {217}	; 0xd9
 151350c:	56cf0ee8 	strbpl	r0, [pc], r8, ror #29
 1513510:	2618c91b 			; <UNDEFINED> instruction: 0x2618c91b
 1513514:	8a24e311 	bhi	1e4c160 <__bss_end__+0x938748>
 1513518:	642f509c 	strtvs	r5, [pc], #-156	; 1513520 <rsa_pub_key+0xa0>
 151351c:	48d88a99 	ldmmi	r8, {r0, r3, r4, r7, r9, fp, pc}^
 1513520:	629dd425 	addsvs	sp, sp, #620756992	; 0x25000000
 1513524:	a8af95be 	stmiage	pc!, {r1, r2, r3, r4, r5, r7, r8, sl, ip, pc}	; <UNPREDICTABLE>
 1513528:	9d305a0e 	vldmdbls	r0!, {s10-s23}
 151352c:	6eeee264 	cdpvs	2, 14, cr14, cr14, cr4, {3}
 1513530:	25d2f066 	ldrbcs	pc, [r2, #102]	; 0x66	; <UNPREDICTABLE>
 1513534:	db143839 	blle	1a21620 <__bss_end__+0x50dc08>
 1513538:	a86d03d4 	stmdage	sp!, {r2, r4, r6, r7, r8, r9}^
 151353c:	fa80cb0f 	blx	ff546180 <__bss_end__+0xfe032768>
 1513540:	def72263 	cdple	2, 15, cr2, cr7, cr3, {3}
 1513544:	83944dbf 	orrshi	r4, r4, #12224	; 0x2fc0
 1513548:	2ec53a81 	vdivcs.f32	s7, s11, s2
 151354c:	a8c593d3 	stmiage	r5, {r0, r1, r4, r6, r7, r8, r9, ip, pc}^
 1513550:	9374b09c 	cmnls	r4, #156	; 0x9c
 1513554:	11fd65c8 	mvnsne	r6, r8, asr #11
 1513558:	2a5e7165 	bcs	2cafaf4 <__bss_end__+0x179c0dc>
 151355c:	f148b0b7 			; <UNDEFINED> instruction: 0xf148b0b7
 1513560:	41054302 	tstmi	r5, r2, lsl #6
 1513564:	7a64a9a8 	bvc	2e3dc0c <__bss_end__+0x192a1f4>
 1513568:	ab81b7ec 	blge	ff581520 <__bss_end__+0xfe06db08>
 151356c:	dad35f89 	ble	9eb398 <_back_addr-0xb14c68>
 1513570:	0db8b8c3 	ldceq	8, cr11, [r8, #780]!	; 0x30c
 1513574:	3f74dba1 	svccc	0x0074dba1
 1513578:	af3f83eb 	svcge	0x003f83eb
 151357c:	b9975438 	ldmiblt	r7, {r3, r4, r5, sl, ip, lr}

01513580 <aes_key_ks>:
 1513580:	12efcdab 	rscne	ip, pc, #10944	; 0x2ac0
 1513584:	68245713 	stmdavs	r4!, {r0, r1, r4, r8, r9, sl, ip, lr}
 1513588:	d4c3b2a1 	strble	fp, [r3], #673	; 0x2a1
 151358c:	beba9090 	mrclt	0, 5, r9, cr10, cr0, {4}

01513590 <aes_key_kh>:
 1513590:	12efcdab 	rscne	ip, pc, #10944	; 0x2ac0
 1513594:	68245713 	stmdavs	r4!, {r0, r1, r4, r8, r9, sl, ip, lr}
 1513598:	d4c3b2a1 	strble	fp, [r3], #673	; 0x2a1
 151359c:	beba9090 	mrclt	0, 5, r9, cr10, cr0, {4}

015135a0 <aes_key_kn>:
 15135a0:	12efcdab 	rscne	ip, pc, #10944	; 0x2ac0
 15135a4:	68245713 	stmdavs	r4!, {r0, r1, r4, r8, r9, sl, ip, lr}
 15135a8:	d4c3b2a1 	strble	fp, [r3], #673	; 0x2a1
 15135ac:	beba9090 	mrclt	0, 5, r9, cr10, cr0, {4}

015135b0 <deviceID>:
 15135b0:	31445452 	cmpcc	r4, r2, asr r4
 15135b4:	30783931 	rsbscc	r3, r8, r1, lsr r9
 15135b8:	30303030 	eorscc	r3, r0, r0, lsr r0
 15135bc:	31303030 	teqcc	r0, r0, lsr r0
 15135c0:	00000000 	andeq	r0, r0, r0

Disassembly of section .bss:

015135c8 <otp_retry_cnt>:
	...

015135d0 <v_array>:
	...

015139d0 <dec_array>:
	...

01513a10 <mcp_dscpt_addr>:
 1513a10:	00000000 	andeq	r0, r0, r0

01513a14 <alloc_count.3982>:
 1513a14:	00000000 	andeq	r0, r0, r0

Disassembly of section .comment:

00000000 <.comment>:
   0:	3a434347 	bcc	10d0d24 <_back_addr-0x42f2dc>
   4:	65522820 	ldrbvs	r2, [r2, #-2080]	; 0x820
   8:	65746c61 	ldrbvs	r6, [r4, #-3169]!	; 0xc61
   c:	5341206b 	movtpl	r2, #4203	; 0x106b
  10:	342d4b44 	strtcc	r4, [sp], #-2884	; 0xb44
  14:	332e392e 	teqcc	lr, #753664	; 0xb8000
  18:	69754220 	ldmdbvs	r5!, {r5, r9, lr}^
  1c:	3220646c 	eorcc	r6, r0, #108, 8	; 0x6c000000
  20:	29303831 	ldmdbcs	r0!, {r0, r4, r5, fp, ip, sp}
  24:	392e3420 	stmdbcc	lr!, {r5, sl, ip, sp}
  28:	3220332e 	eorcc	r3, r0, #-1207959552	; 0xb8000000
  2c:	30353130 	eorscc	r3, r5, r0, lsr r1
  30:	20333134 	eorscs	r3, r3, r4, lsr r1
  34:	65727028 	ldrbvs	r7, [r2, #-40]!	; 0x28
  38:	656c6572 	strbvs	r6, [ip, #-1394]!	; 0x572
  3c:	29657361 	stmdbcs	r5!, {r0, r5, r6, r8, r9, ip, sp, lr}^
	...

Disassembly of section .ARM.attributes:

00000000 <.ARM.attributes>:
   0:	00003241 	andeq	r3, r0, r1, asr #4
   4:	61656100 	cmnvs	r5, r0, lsl #2
   8:	01006962 	tsteq	r0, r2, ror #18
   c:	00000028 	andeq	r0, r0, r8, lsr #32
  10:	412d3805 	teqmi	sp, r5, lsl #16
  14:	070e0600 	streq	r0, [lr, -r0, lsl #12]
  18:	09010841 	stmdbeq	r1, {r0, r6, fp}
  1c:	0c030a02 	stceq	10, cr0, [r3], {2}
  20:	14041201 	strne	r1, [r4], #-513	; 0x201
  24:	17011501 	strne	r1, [r1, -r1, lsl #10]
  28:	1a011803 	bne	4603c <_back_addr-0x14b9fc4>
  2c:	2a012202 	bcs	4883c <_back_addr-0x14b77c4>
  30:	Address 0x00000030 is out of bounds.


Disassembly of section .debug_aranges:

00000000 <.debug_aranges>:
   0:	0000001c 	andeq	r0, r0, ip, lsl r0
   4:	00000002 	andeq	r0, r0, r2
   8:	00040000 	andeq	r0, r4, r0
   c:	00000000 	andeq	r0, r0, r0
  10:	01500000 	cmpeq	r0, r0
  14:	00000074 	andeq	r0, r0, r4, ror r0
	...
  20:	0000001c 	andeq	r0, r0, ip, lsl r0
  24:	007f0002 	rsbseq	r0, pc, r2
  28:	00040000 	andeq	r0, r4, r0
  2c:	00000000 	andeq	r0, r0, r0
  30:	01500074 	cmpeq	r0, r4, ror r0
  34:	00000028 	andeq	r0, r0, r8, lsr #32
	...
  40:	0000001c 	andeq	r0, r0, ip, lsl r0
  44:	012a0002 	teqeq	sl, r2
  48:	00040000 	andeq	r0, r4, r0
  4c:	00000000 	andeq	r0, r0, r0
  50:	0150009c 			; <UNDEFINED> instruction: 0x0150009c
  54:	000000a0 	andeq	r0, r0, r0, lsr #1
	...
  60:	0000001c 	andeq	r0, r0, ip, lsl r0
  64:	01f50002 	mvnseq	r0, r2
  68:	00040000 	andeq	r0, r4, r0
  6c:	00000000 	andeq	r0, r0, r0
  70:	0150013c 	cmpeq	r0, ip, lsr r1
  74:	00000194 	muleq	r0, r4, r1
	...
  80:	00000014 	andeq	r0, r0, r4, lsl r0
  84:	033d0002 	teqeq	sp, #2
  88:	00040000 	andeq	r0, r4, r0
	...
  98:	0000001c 	andeq	r0, r0, ip, lsl r0
  9c:	038f0002 	orreq	r0, pc, #2
  a0:	00040000 	andeq	r0, r4, r0
  a4:	00000000 	andeq	r0, r0, r0
  a8:	015002d0 	ldrsbeq	r0, [r0, #-32]	; 0xffffffe0
  ac:	000001d0 	ldrdeq	r0, [r0], -r0	; <UNPREDICTABLE>
	...
  b8:	0000001c 	andeq	r0, r0, ip, lsl r0
  bc:	09120002 	ldmdbeq	r2, {r1}
  c0:	00040000 	andeq	r0, r4, r0
  c4:	00000000 	andeq	r0, r0, r0
  c8:	015004a0 	cmpeq	r0, r0, lsr #9
  cc:	00000c04 	andeq	r0, r0, r4, lsl #24
	...
  d8:	0000001c 	andeq	r0, r0, ip, lsl r0
  dc:	1d490002 	stclne	0, cr0, [r9, #-8]
  e0:	00040000 	andeq	r0, r4, r0
  e4:	00000000 	andeq	r0, r0, r0
  e8:	015010a4 	cmpeq	r0, r4, lsr #1
  ec:	00000bfc 	strdeq	r0, [r0], -ip
	...
  f8:	0000001c 	andeq	r0, r0, ip, lsl r0
  fc:	34fb0002 	ldrbtcc	r0, [fp], #2
 100:	00040000 	andeq	r0, r4, r0
 104:	00000000 	andeq	r0, r0, r0
 108:	01501ca0 	cmpeq	r0, r0, lsr #25
 10c:	00000168 	andeq	r0, r0, r8, ror #2
	...
 118:	0000001c 	andeq	r0, r0, ip, lsl r0
 11c:	37ea0002 	strbcc	r0, [sl, r2]!
 120:	00040000 	andeq	r0, r4, r0
 124:	00000000 	andeq	r0, r0, r0
 128:	01501e08 	cmpeq	r0, r8, lsl #28
 12c:	000004c8 	andeq	r0, r0, r8, asr #9
	...
 138:	0000001c 	andeq	r0, r0, ip, lsl r0
 13c:	453e0002 	ldrmi	r0, [lr, #-2]!
 140:	00040000 	andeq	r0, r4, r0
 144:	00000000 	andeq	r0, r0, r0
 148:	015022d0 	ldrsbeq	r2, [r0, #-32]	; 0xffffffe0
 14c:	00000218 	andeq	r0, r0, r8, lsl r2
	...
 158:	0000001c 	andeq	r0, r0, ip, lsl r0
 15c:	4e270002 	cdpmi	0, 2, cr0, cr7, cr2, {0}
 160:	00040000 	andeq	r0, r4, r0
 164:	00000000 	andeq	r0, r0, r0
 168:	015024e8 	cmpeq	r0, r8, ror #9
 16c:	0000087c 	andeq	r0, r0, ip, ror r8
	...

Disassembly of section .debug_info:

00000000 <.debug_info>:
       0:	0000007b 	andeq	r0, r0, fp, ror r0
       4:	00000002 	andeq	r0, r0, r2
       8:	01040000 	mrseq	r0, (UNDEF: 4)
       c:	00000000 	andeq	r0, r0, r0
      10:	01500000 	cmpeq	r0, r0
      14:	01500074 	cmpeq	r0, r4, ror r0
      18:	72617473 	rsbvc	r7, r1, #1929379840	; 0x73000000
      1c:	00532e74 	subseq	r2, r3, r4, ror lr
      20:	6d6f682f 	stclvs	8, cr6, [pc, #-188]!	; ffffff6c <__bss_end__+0xfeaec554>
      24:	61662f65 	cmnvs	r6, r5, ror #30
      28:	616e2f65 	cmnvs	lr, r5, ror #30
      2c:	76732f73 	uhsub16vc	r2, r3, r3
      30:	32312f6e 	eorscc	r2, r1, #440	; 0x1b8
      34:	742f3539 	strtvc	r3, [pc], #-1337	; 3c <_back_addr-0x14fffc4>
      38:	6b6e7572 	blvs	1b9d608 <__bss_end__+0x689bf0>
      3c:	302e362d 	eorcc	r3, lr, sp, lsr #12
      40:	725f302e 	subsvc	r3, pc, #46	; 0x2e
      44:	6f622f31 	svcvs	0x00622f31
      48:	6f63746f 	svcvs	0x0063746f
      4c:	752f6564 	strvc	r6, [pc, #-1380]!	; fffffaf0 <__bss_end__+0xfeaec0d8>
      50:	746f6f62 	strbtvc	r6, [pc], #-3938	; 58 <_back_addr-0x14fffa8>
      54:	6178652f 	cmnvs	r8, pc, lsr #10
      58:	656c706d 	strbvs	r7, [ip, #-109]!	; 0x6d
      5c:	66652f73 	uqsub16vs	r2, r5, r3
      60:	5f657375 	svcpl	0x00657375
      64:	676f7270 			; <UNDEFINED> instruction: 0x676f7270
      68:	6d6d6172 	stfvse	f6, [sp, #-456]!	; 0xfffffe38
      6c:	47007265 	strmi	r7, [r0, -r5, ror #4]
      70:	4120554e 	teqmi	r0, lr, asr #10
      74:	2e322053 	mrccs	0, 1, r2, cr2, cr3, {2}
      78:	302e3432 	eorcc	r3, lr, r2, lsr r4
      7c:	a7800100 	strge	r0, [r0, r0, lsl #2]
      80:	04000000 	streq	r0, [r0], #-0
      84:	00001400 	andeq	r1, r0, r0, lsl #8
      88:	af010400 	svcge	0x00010400
      8c:	01000000 	mrseq	r0, (UNDEF: 0)
      90:	00000000 	andeq	r0, r0, r0
      94:	00000056 	andeq	r0, r0, r6, asr r0
      98:	01500074 	cmpeq	r0, r4, ror r0
      9c:	00000028 	andeq	r0, r0, r8, lsr #32
      a0:	00000050 	andeq	r0, r0, r0, asr r0
      a4:	10080102 	andne	r0, r8, r2, lsl #2
      a8:	02000000 	andeq	r0, r0, #0
      ac:	00120601 	andseq	r0, r2, r1, lsl #12
      b0:	02020000 	andeq	r0, r2, #0
      b4:	00001e07 	andeq	r1, r0, r7, lsl #28
      b8:	05020200 	streq	r0, [r2, #-512]	; 0x200
      bc:	000000a5 	andeq	r0, r0, r5, lsr #1
      c0:	3b070402 	blcc	1c10d0 <_back_addr-0x133ef30>
      c4:	03000000 	movweq	r0, #0
      c8:	6e690504 	cdpvs	5, 6, cr0, cr9, cr4, {0}
      cc:	08020074 	stmdaeq	r2, {r2, r4, r5, r6}
      d0:	00003107 	andeq	r3, r0, r7, lsl #2
      d4:	05080200 	streq	r0, [r8, #-512]	; 0x200
      d8:	00000048 	andeq	r0, r0, r8, asr #32
      dc:	36070402 	strcc	r0, [r7], -r2, lsl #8
      e0:	04000000 	streq	r0, [r0], #-0
      e4:	00000009 	andeq	r0, r0, r9
      e8:	00483c01 	subeq	r3, r8, r1, lsl #24
      ec:	00740000 	rsbseq	r0, r4, r0
      f0:	00280150 	eoreq	r0, r8, r0, asr r1
      f4:	9c010000 	stcls	0, cr0, [r1], {-0}
      f8:	00000098 	muleq	r0, r8, r0
      fc:	01007305 	tsteq	r0, r5, lsl #6
     100:	0000983c 	andeq	r9, r0, ip, lsr r8
     104:	00000000 	andeq	r0, r0, r0
     108:	006c0600 	rsbeq	r0, ip, r0, lsl #12
     10c:	00483e01 	subeq	r3, r8, r1, lsl #28
     110:	002b0000 	eoreq	r0, fp, r0
     114:	07000000 	streq	r0, [r0, -r0]
     118:	00009e04 	andeq	r9, r0, r4, lsl #28
     11c:	00a30800 	adceq	r0, r3, r0, lsl #16
     120:	01020000 	mrseq	r0, (UNDEF: 2)
     124:	00001908 	andeq	r1, r0, r8, lsl #18
     128:	00c70000 	sbceq	r0, r7, r0
     12c:	00040000 	andeq	r0, r4, r0
     130:	00000088 	andeq	r0, r0, r8, lsl #1
     134:	00af0104 	adceq	r0, pc, r4, lsl #2
     138:	c0010000 	andgt	r0, r1, r0
     13c:	56000001 	strpl	r0, [r0], -r1
     140:	9c000000 	stcls	0, cr0, [r0], {-0}
     144:	a0015000 	andge	r5, r1, r0
     148:	8a000000 	bhi	150 <_back_addr-0x14ffeb0>
     14c:	02000000 	andeq	r0, r0, #0
     150:	00100801 	andseq	r0, r0, r1, lsl #16
     154:	01020000 	mrseq	r0, (UNDEF: 2)
     158:	00001206 	andeq	r1, r0, r6, lsl #4
     15c:	07020200 	streq	r0, [r2, -r0, lsl #4]
     160:	0000001e 	andeq	r0, r0, lr, lsl r0
     164:	a5050202 	strge	r0, [r5, #-514]	; 0x202
     168:	02000000 	andeq	r0, r0, #0
     16c:	003b0704 	eorseq	r0, fp, r4, lsl #14
     170:	04030000 	streq	r0, [r3], #-0
     174:	746e6905 	strbtvc	r6, [lr], #-2309	; 0x905
     178:	07080200 	streq	r0, [r8, -r0, lsl #4]
     17c:	00000031 	andeq	r0, r0, r1, lsr r0
     180:	48050802 	stmdami	r5, {r1, fp}
     184:	02000000 	andeq	r0, r0, #0
     188:	00360704 	eorseq	r0, r6, r4, lsl #14
     18c:	c9040000 	stmdbgt	r4, {}	; <UNPREDICTABLE>
     190:	01000001 	tsteq	r0, r1
     194:	0000b23e 	andeq	fp, r0, lr, lsr r2
     198:	50009c00 	andpl	r9, r0, r0, lsl #24
     19c:	0000a001 	andeq	sl, r0, r1
     1a0:	b29c0100 	addslt	r0, ip, #0, 2
     1a4:	05000000 	streq	r0, [r0, #-0]
     1a8:	01003173 	tsteq	r0, r3, ror r1
     1ac:	0000bf3f 	andeq	fp, r0, pc, lsr pc
     1b0:	00005b00 	andeq	r5, r0, r0, lsl #22
     1b4:	32730600 	rsbscc	r0, r3, #0, 12
     1b8:	bf400100 	svclt	0x00400100
     1bc:	01000000 	mrseq	r0, (UNDEF: 0)
     1c0:	00730751 	rsbseq	r0, r3, r1, asr r7
     1c4:	00bf4201 	adcseq	r4, pc, r1, lsl #4
     1c8:	009f0000 	addseq	r0, pc, r0
     1cc:	74070000 	strvc	r0, [r7], #-0
     1d0:	bf430100 	svclt	0x00430100
     1d4:	d5000000 	strle	r0, [r0, #-0]
     1d8:	00000000 	andeq	r0, r0, r0
     1dc:	00b80408 	adcseq	r0, r8, r8, lsl #8
     1e0:	01020000 	mrseq	r0, (UNDEF: 2)
     1e4:	00001908 	andeq	r1, r0, r8, lsl #18
     1e8:	c5040800 	strgt	r0, [r4, #-2048]	; 0x800
     1ec:	09000000 	stmdbeq	r0, {}	; <UNPREDICTABLE>
     1f0:	000000b8 	strheq	r0, [r0], -r8
     1f4:	00014400 	andeq	r4, r1, r0, lsl #8
     1f8:	0b000400 	bleq	1200 <_back_addr-0x14fee00>
     1fc:	04000001 	streq	r0, [r0], #-1
     200:	0000af01 	andeq	sl, r0, r1, lsl #30
     204:	01e60100 	mvneq	r0, r0, lsl #2
     208:	00560000 	subseq	r0, r6, r0
     20c:	013c0000 	teqeq	ip, r0
     210:	01940150 	orrseq	r0, r4, r0, asr r1
     214:	00e30000 	rsceq	r0, r3, r0
     218:	01020000 	mrseq	r0, (UNDEF: 2)
     21c:	00001008 	andeq	r1, r0, r8
     220:	06010200 	streq	r0, [r1], -r0, lsl #4
     224:	00000012 	andeq	r0, r0, r2, lsl r0
     228:	1e070202 	cdpne	2, 0, cr0, cr7, cr2, {0}
     22c:	02000000 	andeq	r0, r0, #0
     230:	00a50502 	adceq	r0, r5, r2, lsl #10
     234:	04020000 	streq	r0, [r2], #-0
     238:	00003b07 	andeq	r3, r0, r7, lsl #22
     23c:	05040300 	streq	r0, [r4, #-768]	; 0x300
     240:	00746e69 	rsbseq	r6, r4, r9, ror #28
     244:	31070802 	tstcc	r7, r2, lsl #16
     248:	02000000 	andeq	r0, r0, #0
     24c:	00480508 	subeq	r0, r8, r8, lsl #10
     250:	04020000 	streq	r0, [r2], #-0
     254:	00003607 	andeq	r3, r0, r7, lsl #12
     258:	01de0400 	bicseq	r0, lr, r0, lsl #8
     25c:	41010000 	mrsmi	r0, (UNDEF: 1)
     260:	0000005d 	andeq	r0, r0, sp, asr r0
     264:	0150013c 	cmpeq	r0, ip, lsr r1
     268:	00000194 	muleq	r0, r4, r1
     26c:	010e9c01 	tsteq	lr, r1, lsl #24
     270:	73050000 	movwvc	r0, #20480	; 0x5000
     274:	01007274 	tsteq	r0, r4, ror r2
     278:	00010e42 	andeq	r0, r1, r2, asr #28
     27c:	00010000 	andeq	r0, r1, r0
     280:	01d00600 	bicseq	r0, r0, r0, lsl #12
     284:	43010000 	movwmi	r0, #4096	; 0x1000
     288:	00000120 	andeq	r0, r0, r0, lsr #2
     28c:	f0075101 			; <UNDEFINED> instruction: 0xf0075101
     290:	01000001 	tsteq	r0, r1
     294:	00004844 	andeq	r4, r0, r4, asr #16
     298:	00013700 	andeq	r3, r1, r0, lsl #14
     29c:	00730800 	rsbseq	r0, r3, r0, lsl #16
     2a0:	010e4601 	tsteq	lr, r1, lsl #12
     2a4:	01960000 	orrseq	r0, r6, r0
     2a8:	61080000 	mrsvs	r0, (UNDEF: 8)
     2ac:	01006363 	tsteq	r0, r3, ror #6
     2b0:	00005d47 	andeq	r5, r0, r7, asr #26
     2b4:	0001ca00 	andeq	ip, r1, r0, lsl #20
     2b8:	01f50900 	mvnseq	r0, r0, lsl #18
     2bc:	47010000 	strmi	r0, [r1, -r0]
     2c0:	0000005d 	andeq	r0, r0, sp, asr r0
     2c4:	0000021a 	andeq	r0, r0, sl, lsl r2
     2c8:	01006308 	tsteq	r0, r8, lsl #6
     2cc:	00004848 	andeq	r4, r0, r8, asr #16
     2d0:	00022d00 	andeq	r2, r2, r0, lsl #26
     2d4:	656e0800 	strbvs	r0, [lr, #-2048]!	; 0x800
     2d8:	49010067 	stmdbmi	r1, {r0, r1, r2, r5, r6}
     2dc:	00000048 	andeq	r0, r0, r8, asr #32
     2e0:	00000279 	andeq	r0, r0, r9, ror r2
     2e4:	796e6108 	stmdbvc	lr!, {r3, r8, sp, lr}^
     2e8:	48490100 	stmdami	r9, {r8}^
     2ec:	99000000 	stmdbls	r0, {}	; <UNPREDICTABLE>
     2f0:	09000002 	stmdbeq	r0, {r1}
     2f4:	000001d7 	ldrdeq	r0, [r0], -r7
     2f8:	00484901 	subeq	r4, r8, r1, lsl #18
     2fc:	02da0000 	sbcseq	r0, sl, #0
     300:	0a000000 	beq	308 <_back_addr-0x14ffcf8>
     304:	00011404 	andeq	r1, r1, r4, lsl #8
     308:	01190b00 	tsteq	r9, r0, lsl #22
     30c:	01020000 	mrseq	r0, (UNDEF: 2)
     310:	00001908 	andeq	r1, r0, r8, lsl #18
     314:	26040a00 	strcs	r0, [r4], -r0, lsl #20
     318:	0a000001 	beq	324 <_back_addr-0x14ffcdc>
     31c:	00011904 	andeq	r1, r1, r4, lsl #18
     320:	00250c00 	eoreq	r0, r5, r0, lsl #24
     324:	01370000 	teqeq	r7, r0
     328:	000d0000 	andeq	r0, sp, r0
     32c:	0001fc0e 	andeq	pc, r1, lr, lsl #24
     330:	42120200 	andsmi	r0, r2, #0, 4
     334:	0b000001 	bleq	340 <_back_addr-0x14ffcc0>
     338:	0000012c 	andeq	r0, r0, ip, lsr #2
     33c:	00004e00 	andeq	r4, r0, r0, lsl #28
     340:	cb000400 	blgt	1348 <_back_addr-0x14fecb8>
     344:	04000001 	streq	r0, [r0], #-1
     348:	0000af01 	andeq	sl, r0, r1, lsl #30
     34c:	02030100 	andeq	r0, r3, #0, 2
     350:	00560000 	subseq	r0, r6, r0
     354:	01ca0000 	biceq	r0, sl, r0
     358:	34020000 	strcc	r0, [r2], #-0
     35c:	2d000000 	stccs	0, cr0, [r0, #-0]
     360:	03000000 	movweq	r0, #0
     364:	0000002d 	andeq	r0, r0, sp, lsr #32
     368:	040400ff 	streq	r0, [r4], #-255	; 0xff
     36c:	00020b07 	andeq	r0, r2, r7, lsl #22
     370:	08010400 	stmdaeq	r1, {sl}
     374:	00000010 	andeq	r0, r0, r0, lsl r0
     378:	0001fc05 	andeq	pc, r1, r5, lsl #24
     37c:	4c200100 	stfmis	f0, [r0], #-0
     380:	05000000 	streq	r0, [r0, #-0]
     384:	502d6403 	eorpl	r6, sp, r3, lsl #8
     388:	001d0601 	andseq	r0, sp, r1, lsl #12
     38c:	7f000000 	svcvc	0x00000000
     390:	04000005 	streq	r0, [r0], #-5
     394:	00021000 	andeq	r1, r2, r0
     398:	af010400 	svcge	0x00010400
     39c:	01000000 	mrseq	r0, (UNDEF: 0)
     3a0:	000002a4 	andeq	r0, r0, r4, lsr #5
     3a4:	00000455 	andeq	r0, r0, r5, asr r4
     3a8:	015002d0 	ldrsbeq	r0, [r0, #-32]	; 0xffffffe0
     3ac:	000001d0 	ldrdeq	r0, [r0], -r0	; <UNPREDICTABLE>
     3b0:	000001f2 	strdeq	r0, [r0], -r2
     3b4:	10080102 	andne	r0, r8, r2, lsl #2
     3b8:	02000000 	andeq	r0, r0, #0
     3bc:	00120601 	andseq	r0, r2, r1, lsl #12
     3c0:	02020000 	andeq	r0, r2, #0
     3c4:	00001e07 	andeq	r1, r0, r7, lsl #28
     3c8:	05020200 	streq	r0, [r2, #-512]	; 0x200
     3cc:	000000a5 	andeq	r0, r0, r5, lsr #1
     3d0:	00027603 	andeq	r7, r2, r3, lsl #12
     3d4:	4cb40200 	lfmmi	f0, 4, [r4]
     3d8:	02000000 	andeq	r0, r0, #0
     3dc:	003b0704 	eorseq	r0, fp, r4, lsl #14
     3e0:	04040000 	streq	r0, [r4], #-0
     3e4:	746e6905 	strbtvc	r6, [lr], #-2309	; 0x905
     3e8:	07080200 	streq	r0, [r8, -r0, lsl #4]
     3ec:	00000031 	andeq	r0, r0, r1, lsr r0
     3f0:	48050802 	stmdami	r5, {r1, fp}
     3f4:	02000000 	andeq	r0, r0, #0
     3f8:	00360704 	eorseq	r0, r6, r4, lsl #14
     3fc:	cf030000 	svcgt	0x00030000
     400:	02000006 	andeq	r0, r0, #6
     404:	000068e5 	andeq	r6, r0, r5, ror #17
     408:	80040500 	andhi	r0, r4, r0, lsl #10
     40c:	06000000 	streq	r0, [r0], -r0
     410:	00000085 	andeq	r0, r0, r5, lsl #1
     414:	19080102 	stmdbne	r8, {r1, r8}
     418:	07000000 	streq	r0, [r0, -r0]
     41c:	b38f0304 	orrlt	r0, pc, #4, 6	; 0x10000000
     420:	08000000 	stmdaeq	r0, {}	; <UNPREDICTABLE>
     424:	00000222 	andeq	r0, r0, r2, lsr #4
     428:	03a00800 	moveq	r0, #0, 16
     42c:	08010000 	stmdaeq	r1, {}	; <UNPREDICTABLE>
     430:	000003d4 	ldrdeq	r0, [r0], -r4
     434:	02340802 	eorseq	r0, r4, #131072	; 0x20000
     438:	08030000 	stmdaeq	r3, {}	; <UNPREDICTABLE>
     43c:	000002b7 			; <UNDEFINED> instruction: 0x000002b7
     440:	75030004 	strvc	r0, [r3, #-4]
     444:	03000003 	movweq	r0, #3
     448:	00008c95 	muleq	r0, r5, ip
     44c:	03fe0900 	mvnseq	r0, #0, 18
     450:	26010000 	strcs	r0, [r1], -r0
     454:	00000053 	andeq	r0, r0, r3, asr r0
     458:	015002d0 	ldrsbeq	r0, [r0, #-32]	; 0xffffffe0
     45c:	00000008 	andeq	r0, r0, r8
     460:	dc0a9c01 	stcle	12, cr9, [sl], {1}
     464:	01000002 	tsteq	r0, r2
     468:	0000532b 	andeq	r5, r0, fp, lsr #6
     46c:	5002d800 	andpl	sp, r2, r0, lsl #16
     470:	00001001 	andeq	r1, r0, r1
     474:	fc9c0100 	ldc2	1, cr0, [ip], {0}
     478:	0b000000 	bleq	480 <_back_addr-0x14ffb80>
     47c:	00746d66 	rsbseq	r6, r4, r6, ror #26
     480:	007a2b01 	rsbseq	r2, sl, r1, lsl #22
     484:	91020000 	mrsls	r0, (UNDEF: 2)
     488:	0a000c70 	beq	3650 <_back_addr-0x14fc9b0>
     48c:	0000027d 	andeq	r0, r0, sp, ror r2
     490:	015f3001 	cmpeq	pc, r1
     494:	02e80000 	rsceq	r0, r8, #0
     498:	00240150 	eoreq	r0, r4, r0, asr r1
     49c:	9c010000 	stcls	0, cr0, [r1], {-0}
     4a0:	0000015f 	andeq	r0, r0, pc, asr r1
     4a4:	00024a0d 	andeq	r4, r2, sp, lsl #20
     4a8:	5f300100 	svcpl	0x00300100
     4ac:	01000001 	tsteq	r0, r1
     4b0:	72730e50 	rsbsvc	r0, r3, #80, 28	; 0x500
     4b4:	30010063 	andcc	r0, r1, r3, rrx
     4b8:	00000161 	andeq	r0, r0, r1, ror #2
     4bc:	000002ed 	andeq	r0, r0, sp, ror #5
     4c0:	00095e0f 	andeq	r5, r9, pc, lsl #28
     4c4:	6f300100 	svcvs	0x00300100
     4c8:	0e000000 	cdpeq	0, 0, cr0, cr0, cr0, {0}
     4cc:	10000003 	andne	r0, r0, r3
     4d0:	00000327 	andeq	r0, r0, r7, lsr #6
     4d4:	01683101 	cmneq	r8, r1, lsl #2
     4d8:	03680000 	cmneq	r8, #0
     4dc:	15100000 	ldrne	r0, [r0, #-0]
     4e0:	01000003 	tsteq	r0, r3
     4e4:	00016832 	andeq	r6, r1, r2, lsr r8
     4e8:	00037b00 	andeq	r7, r3, r0, lsl #22
     4ec:	04110000 	ldreq	r0, [r1], #-0
     4f0:	01670405 	cmneq	r7, r5, lsl #8
     4f4:	05120000 	ldreq	r0, [r2, #-0]
     4f8:	00008504 	andeq	r8, r0, r4, lsl #10
     4fc:	02b00a00 	adcseq	r0, r0, #0, 20
     500:	40010000 	andmi	r0, r1, r0
     504:	00000053 	andeq	r0, r0, r3, asr r0
     508:	0150030c 	cmpeq	r0, ip, lsl #6
     50c:	00000058 	andeq	r0, r0, r8, asr r0
     510:	01e09c01 	mvneq	r9, r1, lsl #24
     514:	630e0000 	movwvs	r0, #57344	; 0xe000
     518:	40010073 	andmi	r0, r1, r3, ror r0
     51c:	00000161 	andeq	r0, r0, r1, ror #2
     520:	000003a6 	andeq	r0, r0, r6, lsr #7
     524:	0074630e 	rsbseq	r6, r4, lr, lsl #6
     528:	01614001 	cmneq	r1, r1
     52c:	03f80000 	mvnseq	r0, #0
     530:	5e0f0000 	cdppl	0, 0, cr0, cr15, cr0, {0}
     534:	01000009 	tsteq	r0, r9
     538:	00006f40 	andeq	r6, r0, r0, asr #30
     53c:	00042400 	andeq	r2, r4, r0, lsl #8
     540:	75731300 	ldrbvc	r1, [r3, #-768]!	; 0x300
     544:	42010031 	andmi	r0, r1, #49	; 0x31
     548:	000001e0 	andeq	r0, r0, r0, ror #3
     54c:	000004a8 	andeq	r0, r0, r8, lsr #9
     550:	32757313 	rsbscc	r7, r5, #1275068416	; 0x4c000000
     554:	e0420100 	sub	r0, r2, r0, lsl #2
     558:	1c000001 	stcne	0, cr0, [r0], {1}
     55c:	13000005 	movwne	r0, #5
     560:	00736572 	rsbseq	r6, r3, r2, ror r5
     564:	00534301 	subseq	r4, r3, r1, lsl #6
     568:	05900000 	ldreq	r0, [r0]
     56c:	05000000 	streq	r0, [r0, #-0]
     570:	0001e604 	andeq	lr, r1, r4, lsl #12
     574:	00250600 	eoreq	r0, r5, r0, lsl #12
     578:	8c0a0000 	stchi	0, cr0, [sl], {-0}
     57c:	01000002 	tsteq	r0, r2
     580:	0000534b 	andeq	r5, r0, fp, asr #6
     584:	50036400 	andpl	r6, r3, r0, lsl #8
     588:	0000ec01 	andeq	lr, r0, r1, lsl #24
     58c:	4e9c0100 	fmlmie	f0, f4, f0
     590:	14000003 	strne	r0, [r0], #-3
     594:	0000041f 	andeq	r0, r0, pc, lsl r4
     598:	00414d01 	subeq	r4, r1, r1, lsl #26
     59c:	93140000 	tstls	r4, #0
     5a0:	01000003 	tsteq	r0, r3
     5a4:	0000414e 	andeq	r4, r0, lr, asr #2
     5a8:	04471400 	strbeq	r1, [r7], #-1024	; 0x400
     5ac:	4f010000 	svcmi	0x00010000
     5b0:	00000041 	andeq	r0, r0, r1, asr #32
     5b4:	00033814 	andeq	r3, r3, r4, lsl r8
     5b8:	41500100 	cmpmi	r0, r0, lsl #2
     5bc:	14000000 	strne	r0, [r0], #-0
     5c0:	00000346 	andeq	r0, r0, r6, asr #6
     5c4:	00415101 	subeq	r5, r1, r1, lsl #2
     5c8:	f2140000 	vhadd.s16	d0, d4, d0
     5cc:	01000002 	tsteq	r0, r2
     5d0:	00004152 	andeq	r4, r0, r2, asr r1
     5d4:	02e31000 	rsceq	r1, r3, #0
     5d8:	53010000 	movwpl	r0, #4096	; 0x1000
     5dc:	00000041 	andeq	r0, r0, r1, asr #32
     5e0:	0000061f 	andeq	r0, r0, pc, lsl r6
     5e4:	73657213 	cmnvc	r5, #805306369	; 0x30000001
     5e8:	53540100 	cmppl	r4, #0, 2
     5ec:	3d000000 	stccc	0, cr0, [r0, #-0]
     5f0:	15000006 	strne	r0, [r0, #-6]
     5f4:	0000030e 	andeq	r0, r0, lr, lsl #6
     5f8:	00535601 	subseq	r5, r3, r1, lsl #12
     5fc:	02750000 	rsbseq	r0, r5, #0
     600:	000c0000 	andeq	r0, ip, r0
     604:	50038c16 	andpl	r8, r3, r6, lsl ip
     608:	00050701 	andeq	r0, r5, r1, lsl #14
     60c:	00028c00 	andeq	r8, r2, r0, lsl #24
     610:	50011700 	andpl	r1, r1, r0, lsl #14
     614:	2e640305 	cdpcs	3, 6, cr0, cr4, cr5, {0}
     618:	16000150 			; <UNDEFINED> instruction: 0x16000150
     61c:	01500398 			; <UNDEFINED> instruction: 0x01500398
     620:	00000507 	andeq	r0, r0, r7, lsl #10
     624:	000002a3 	andeq	r0, r0, r3, lsr #5
     628:	05500117 	ldrbeq	r0, [r0, #-279]	; 0x117
     62c:	502e8803 	eorpl	r8, lr, r3, lsl #16
     630:	b4160001 	ldrlt	r0, [r6], #-1
     634:	07015003 	streq	r5, [r1, -r3]
     638:	ba000005 	blt	654 <_back_addr-0x14ff9ac>
     63c:	17000002 	strne	r0, [r0, -r2]
     640:	03055001 	movweq	r5, #20481	; 0x5001
     644:	01502ecc 	cmpeq	r0, ip, asr #29
     648:	03c81600 	biceq	r1, r8, #0, 12
     64c:	05180150 	ldreq	r0, [r8, #-336]	; 0x150
     650:	02dd0000 	sbcseq	r0, sp, #0
     654:	01170000 	tsteq	r7, r0
     658:	dc030550 	cfstr32le	mvfx0, [r3], {80}	; 0x50
     65c:	1701502e 	strne	r5, [r1, -lr, lsr #32]
     660:	75025101 	strvc	r5, [r2, #-257]	; 0x101
     664:	52011700 	andpl	r1, r1, #0, 14
     668:	00007402 	andeq	r7, r0, r2, lsl #8
     66c:	5003f416 	andpl	pc, r3, r6, lsl r4	; <UNPREDICTABLE>
     670:	00053301 	andeq	r3, r5, r1, lsl #6
     674:	00030d00 	andeq	r0, r3, r0, lsl #26
     678:	50011700 	andpl	r1, r1, r0, lsl #14
     67c:	01173001 	tsteq	r7, r1
     680:	00750251 	rsbseq	r0, r5, r1, asr r2
     684:	01520117 	cmpeq	r2, r7, lsl r1
     688:	53011730 	movwpl	r1, #5936	; 0x1730
     68c:	02173001 	andseq	r3, r7, #1
     690:	3001007d 	andcc	r0, r1, sp, ror r0
     694:	047d0217 	ldrbteq	r0, [sp], #-535	; 0x217
     698:	00007402 	andeq	r7, r0, r2, lsl #8
     69c:	5003fc18 	andpl	pc, r3, r8, lsl ip	; <UNPREDICTABLE>
     6a0:	00056701 	andeq	r6, r5, r1, lsl #14
     6a4:	041c1600 	ldreq	r1, [ip], #-1536	; 0x600
     6a8:	05070150 	streq	r0, [r7, #-336]	; 0x150
     6ac:	032d0000 	teqeq	sp, #0
     6b0:	01170000 	tsteq	r7, r0
     6b4:	ac030550 	cfstr32ge	mvfx0, [r3], {80}	; 0x50
     6b8:	0001502e 	andeq	r5, r1, lr, lsr #32
     6bc:	50043416 	andpl	r3, r4, r6, lsl r4
     6c0:	00050701 	andeq	r0, r5, r1, lsl #14
     6c4:	00034400 	andeq	r4, r3, r0, lsl #8
     6c8:	50011700 	andpl	r1, r1, r0, lsl #14
     6cc:	2ee80305 	cdpcs	3, 14, cr0, cr8, cr5, {0}
     6d0:	18000150 	stmdane	r0, {r4, r6, r8}
     6d4:	01500444 	cmpeq	r0, r4, asr #8
     6d8:	00000567 	andeq	r0, r0, r7, ror #10
     6dc:	04300a00 	ldrteq	r0, [r0], #-2560	; 0xa00
     6e0:	ba010000 	blt	406e8 <_back_addr-0x14bf918>
     6e4:	00000053 	andeq	r0, r0, r3, asr r0
     6e8:	01500450 	cmpeq	r0, r0, asr r4
     6ec:	00000050 	andeq	r0, r0, r0, asr r0
     6f0:	03f19c01 	mvnseq	r9, #256	; 0x100
     6f4:	540f0000 	strpl	r0, [pc], #-0	; 6fc <_back_addr-0x14ff904>
     6f8:	01000003 	tsteq	r0, r3
     6fc:	000053ba 			; <UNDEFINED> instruction: 0x000053ba
     700:	00069900 	andeq	r9, r6, r0, lsl #18
     704:	031a0f00 	tsteq	sl, #0, 30
     708:	ba010000 	blt	40710 <_back_addr-0x14bf8f0>
     70c:	000003f1 	strdeq	r0, [r0], -r1
     710:	000006ba 			; <UNDEFINED> instruction: 0x000006ba
     714:	74657213 	strbtvc	r7, [r5], #-531	; 0x213
     718:	53bc0100 			; <UNDEFINED> instruction: 0x53bc0100
     71c:	db000000 	blle	724 <_back_addr-0x14ff8dc>
     720:	19000006 	stmdbne	r0, {r1, r2}
     724:	0000025f 	andeq	r0, r0, pc, asr r2
     728:	004cbd01 	subeq	fp, ip, r1, lsl #26
     72c:	59150000 	ldmdbpl	r5, {}	; <UNPREDICTABLE>
     730:	01000003 	tsteq	r0, r3
     734:	000053c2 	andeq	r5, r0, r2, asr #7
     738:	0003b000 	andeq	fp, r3, r0
     73c:	15000c00 	strne	r0, [r0, #-3072]	; 0xc00
     740:	0000030e 	andeq	r0, r0, lr, lsl #6
     744:	00535601 	subseq	r5, r3, r1, lsl #12
     748:	03c10000 	biceq	r0, r1, #0
     74c:	000c0000 	andeq	r0, ip, r0
     750:	50047418 	andpl	r7, r4, r8, lsl r4
     754:	00056e01 	andeq	r6, r5, r1, lsl #28
     758:	047c1600 	ldrbteq	r1, [ip], #-1536	; 0x600
     75c:	05750150 	ldrbeq	r0, [r5, #-336]!	; 0x150
     760:	03de0000 	bicseq	r0, lr, #0
     764:	01170000 	tsteq	r7, r0
     768:	00740250 	rsbseq	r0, r4, r0, asr r2
     76c:	04801800 	streq	r1, [r0], #2048	; 0x800
     770:	01eb0150 	mvneq	r0, r0, asr r1
     774:	98180000 	ldmdals	r8, {}	; <UNPREDICTABLE>
     778:	07015004 	streq	r5, [r1, -r4]
     77c:	00000005 	andeq	r0, r0, r5
     780:	03f70405 	mvnseq	r0, #83886080	; 0x5000000
     784:	68060000 	stmdavs	r6, {}	; <UNPREDICTABLE>
     788:	1a000001 	bne	794 <_back_addr-0x14ff86c>
     78c:	00000025 	andeq	r0, r0, r5, lsr #32
     790:	00000407 	andeq	r0, r0, r7, lsl #8
     794:	2c19001b 	ldccs	0, cr0, [r9], {27}
     798:	01000003 	tsteq	r0, r3
     79c:	0003fc07 	andeq	pc, r3, r7, lsl #24
     7a0:	024f1900 	subeq	r1, pc, #0, 18
     7a4:	08010000 	stmdaeq	r1, {}	; <UNPREDICTABLE>
     7a8:	00000025 	andeq	r0, r0, r5, lsr #32
     7ac:	00031f19 	andeq	r1, r3, r9, lsl pc
     7b0:	fc090100 	stc2	1, cr0, [r9], {-0}
     7b4:	19000003 	stmdbne	r0, {r0, r1}
     7b8:	00000387 	andeq	r0, r0, r7, lsl #7
     7bc:	00250a01 	eoreq	r0, r5, r1, lsl #20
     7c0:	04190000 	ldreq	r0, [r9], #-0
     7c4:	01000004 	tsteq	r0, r4
     7c8:	0003fc0b 	andeq	pc, r3, fp, lsl #24
     7cc:	03681900 	cmneq	r8, #0, 18
     7d0:	0c010000 	stceq	0, cr0, [r1], {-0}
     7d4:	00000025 	andeq	r0, r0, r5, lsr #32
     7d8:	00040d19 	andeq	r0, r4, r9, lsl sp
     7dc:	fc0d0100 	stc2	1, cr0, [sp], {-0}
     7e0:	19000003 	stmdbne	r0, {r0, r1}
     7e4:	0000043a 	andeq	r0, r0, sl, lsr r4
     7e8:	00250e01 	eoreq	r0, r5, r1, lsl #28
     7ec:	16190000 	ldrne	r0, [r9], -r0
     7f0:	01000004 	tsteq	r0, r4
     7f4:	0003fc0f 	andeq	pc, r3, pc, lsl #24
     7f8:	02971900 	addseq	r1, r7, #0, 18
     7fc:	10010000 	andne	r0, r1, r0
     800:	00000025 	andeq	r0, r0, r5, lsr #32
     804:	0003cb19 	andeq	ip, r3, r9, lsl fp
     808:	fc110100 	ldc2	1, cr0, [r1], {-0}
     80c:	19000003 	stmdbne	r0, {r0, r1}
     810:	000003f1 	strdeq	r0, [r0], -r1
     814:	00251201 	eoreq	r1, r5, r1, lsl #4
     818:	e7190000 	ldr	r0, [r9, -r0]
     81c:	01000003 	tsteq	r0, r3
     820:	0003fc13 	andeq	pc, r3, r3, lsl ip	; <UNPREDICTABLE>
     824:	02ce1900 	sbceq	r1, lr, #0, 18
     828:	14010000 	strne	r0, [r1], #-0
     82c:	00000025 	andeq	r0, r0, r5, lsr #32
     830:	0000251a 	andeq	r2, r0, sl, lsl r5
     834:	0004b100 	andeq	fp, r4, r0, lsl #2
     838:	04b11c00 	ldrteq	r1, [r1], #3072	; 0xc00
     83c:	003f0000 	eorseq	r0, pc, r0
     840:	0b070402 	bleq	1c1850 <_back_addr-0x133e7b0>
     844:	1d000002 	stcne	0, cr0, [r0, #-8]
     848:	000003bc 			; <UNDEFINED> instruction: 0x000003bc
     84c:	04a11801 	strteq	r1, [r1], #2049	; 0x801
     850:	03050000 	movweq	r0, #20480	; 0x5000
     854:	015139d0 	ldrsbeq	r3, [r1, #-144]	; 0xffffff70
     858:	0000251a 	andeq	r2, r0, sl, lsl r5
     85c:	0004da00 	andeq	sp, r4, r0, lsl #20
     860:	04b11e00 	ldrteq	r1, [r1], #3584	; 0xe00
     864:	03ff0000 	mvnseq	r0, #0
     868:	026e1d00 	rsbeq	r1, lr, #0, 26
     86c:	19010000 	stmdbne	r1, {}	; <UNPREDICTABLE>
     870:	000004c9 	andeq	r0, r0, r9, asr #9
     874:	35d00305 	ldrbcc	r0, [r0, #773]	; 0x305
     878:	001d0151 	andseq	r0, sp, r1, asr r1
     87c:	01000003 	tsteq	r0, r3
     880:	0000251a 	andeq	r2, r0, sl, lsl r5
     884:	c8030500 	stmdagt	r3, {r8, sl}
     888:	19015135 	stmdbne	r1, {r0, r2, r4, r5, r8, ip, lr}
     88c:	0000025f 	andeq	r0, r0, pc, asr r2
     890:	004cbd01 	subeq	fp, ip, r1, lsl #26
     894:	0e150000 	cdpeq	0, 1, cr0, cr5, cr0, {0}
     898:	01000003 	tsteq	r0, r3
     89c:	00005356 	andeq	r5, r0, r6, asr r3
     8a0:	00051800 	andeq	r1, r5, r0, lsl #16
     8a4:	1f000c00 	svcne	0x00000c00
     8a8:	00000284 	andeq	r0, r0, r4, lsl #5
     8ac:	05338703 	ldreq	r8, [r3, #-1795]!	; 0x703
     8b0:	7a200000 	bvc	8008b8 <_back_addr-0xcff748>
     8b4:	20000000 	andcs	r0, r0, r0
     8b8:	00000161 	andeq	r0, r0, r1, ror #2
     8bc:	00004c20 	andeq	r4, r0, r0, lsr #24
     8c0:	14210000 	strtne	r0, [r1], #-0
     8c4:	01000002 	tsteq	r0, r2
     8c8:	00005321 	andeq	r5, r0, r1, lsr #6
     8cc:	00056100 	andeq	r6, r5, r0, lsl #2
     8d0:	00b32000 	adcseq	r2, r3, r0
     8d4:	61200000 	teqvs	r0, r0
     8d8:	20000005 	andcs	r0, r0, r5
     8dc:	00000561 	andeq	r0, r0, r1, ror #10
     8e0:	00056120 	andeq	r6, r5, r0, lsr #2
     8e4:	05612000 	strbeq	r2, [r1, #-0]!
     8e8:	4c200000 	stcmi	0, cr0, [r0], #-0
     8ec:	00000000 	andeq	r0, r0, r0
     8f0:	00250405 	eoreq	r0, r5, r5, lsl #8
     8f4:	c6220000 	strtgt	r0, [r2], -r0
     8f8:	03000003 	movweq	r0, #3
     8fc:	03b22273 			; <UNDEFINED> instruction: 0x03b22273
     900:	74030000 	strvc	r0, [r3], #-0
     904:	00035923 	andeq	r5, r3, r3, lsr #18
     908:	53c20100 	bicpl	r0, r2, #0, 2
     90c:	0c000000 	stceq	0, cr0, [r0], {-0}
     910:	14330000 	ldrtne	r0, [r3], #-0
     914:	00040000 	andeq	r0, r4, r0
     918:	000003e3 	andeq	r0, r0, r3, ror #7
     91c:	00af0104 	adceq	r0, pc, r4, lsl #2
     920:	a4010000 	strge	r0, [r1], #-0
     924:	55000004 	strpl	r0, [r0, #-4]
     928:	a0000004 	andge	r0, r0, r4
     92c:	04015004 	streq	r5, [r1], #-4
     930:	2100000c 	tstcs	r0, ip
     934:	02000003 	andeq	r0, r0, #3
     938:	020b0704 	andeq	r0, fp, #4, 14	; 0x100000
     93c:	04020000 	streq	r0, [r2], #-0
     940:	00003607 	andeq	r3, r0, r7, lsl #12
     944:	05040300 	streq	r0, [r4, #-768]	; 0x300
     948:	00746e69 	rsbseq	r6, r4, r9, ror #28
     94c:	1e070202 	cdpne	2, 0, cr0, cr7, cr2, {0}
     950:	02000000 	andeq	r0, r0, #0
     954:	004d0504 	subeq	r0, sp, r4, lsl #10
     958:	c6040000 	strgt	r0, [r4], -r0
     95c:	03000006 	movweq	r0, #6
     960:	0000531f 	andeq	r5, r0, pc, lsl r3
     964:	07040200 	streq	r0, [r4, -r0, lsl #4]
     968:	0000003b 	andeq	r0, r0, fp, lsr r0
     96c:	19080102 	stmdbne	r8, {r1, r8}
     970:	02000000 	andeq	r0, r0, #0
     974:	00480508 	subeq	r0, r8, r8, lsl #10
     978:	01020000 	mrseq	r0, (UNDEF: 2)
     97c:	00001206 	andeq	r1, r0, r6, lsl #4
     980:	08010200 	stmdaeq	r1, {r9}
     984:	00000010 	andeq	r0, r0, r0, lsl r0
     988:	a5050202 	strge	r0, [r5, #-514]	; 0x202
     98c:	02000000 	andeq	r0, r0, #0
     990:	00310708 	eorseq	r0, r1, r8, lsl #14
     994:	57040000 	strpl	r0, [r4, -r0]
     998:	04000006 	streq	r0, [r0], #-6
     99c:	0000535c 	andeq	r5, r0, ip, asr r3
     9a0:	06040500 	streq	r0, [r4], -r0, lsl #10
     9a4:	00009704 	andeq	r9, r0, r4, lsl #14
     9a8:	005a0700 	subseq	r0, sl, r0, lsl #14
     9ac:	5a080000 	bpl	2009b4 <_back_addr-0x12ff64c>
     9b0:	ac000000 	stcge	0, cr0, [r0], {-0}
     9b4:	09000000 	stmdbeq	r0, {}	; <UNPREDICTABLE>
     9b8:	00000025 	andeq	r0, r0, r5, lsr #32
     9bc:	de0a000f 	cdple	0, 0, cr0, cr10, cr15, {0}
     9c0:	04000006 	streq	r0, [r0], #-6
     9c4:	d201ee06 	andle	lr, r1, #6, 28	; 0x60
     9c8:	0b000000 	bleq	9d0 <_back_addr-0x14ff630>
     9cc:	0000061c 	andeq	r0, r0, ip, lsl r6
     9d0:	05960b00 	ldreq	r0, [r6, #2816]	; 0xb00
     9d4:	0b010000 	bleq	409dc <_back_addr-0x14bf624>
     9d8:	000004f8 	strdeq	r0, [r0], -r8
     9dc:	05d90b02 	ldrbeq	r0, [r9, #2818]	; 0xb02
     9e0:	00030000 	andeq	r0, r3, r0
     9e4:	0004950c 	andeq	r9, r4, ip, lsl #10
     9e8:	50053800 	andpl	r3, r5, r0, lsl #16
     9ec:	00000127 	andeq	r0, r0, r7, lsr #2
     9f0:	0005180d 	andeq	r1, r5, sp, lsl #16
     9f4:	53520500 	cmppl	r2, #0, 10
     9f8:	00000000 	andeq	r0, r0, r0
     9fc:	79656b0e 	stmdbvc	r5!, {r1, r2, r3, r8, r9, fp, sp, lr}^
     a00:	27530500 	ldrbcs	r0, [r3, -r0, lsl #10]
     a04:	04000001 	streq	r0, [r0], #-1
     a08:	0005590d 	andeq	r5, r5, sp, lsl #18
     a0c:	37540500 	ldrbcc	r0, [r4, -r0, lsl #10]
     a10:	1c000001 	stcne	0, cr0, [r0], {1}
     a14:	0005a60d 	andeq	sl, r5, sp, lsl #12
     a18:	53550500 	cmppl	r5, #0, 10
     a1c:	2c000000 	stccs	0, cr0, [r0], {-0}
     a20:	00051d0d 	andeq	r1, r5, sp, lsl #26
     a24:	53560500 	cmppl	r6, #0, 10
     a28:	30000000 	andcc	r0, r0, r0
     a2c:	0005f60d 	andeq	pc, r5, sp, lsl #12
     a30:	53570500 	cmppl	r7, #0, 10
     a34:	34000000 	strcc	r0, [r0], #-0
     a38:	00530800 	subseq	r0, r3, r0, lsl #16
     a3c:	01370000 	teqeq	r7, r0
     a40:	25090000 	strcs	r0, [r9, #-0]
     a44:	05000000 	streq	r0, [r0, #-0]
     a48:	00530800 	subseq	r0, r3, r0, lsl #16
     a4c:	01470000 	mrseq	r0, (UNDEF: 71)
     a50:	25090000 	strcs	r0, [r9, #-0]
     a54:	03000000 	movweq	r0, #0
     a58:	05480400 	strbeq	r0, [r8, #-1024]	; 0x400
     a5c:	58050000 	stmdapl	r5, {}	; <UNPREDICTABLE>
     a60:	000000d2 	ldrdeq	r0, [r0], -r2
     a64:	0006be0f 	andeq	fp, r6, pc, lsl #28
     a68:	53440200 	movtpl	r0, #16896	; 0x4200
     a6c:	03000000 	movweq	r0, #0
     a70:	0000016e 	andeq	r0, r0, lr, ror #2
     a74:	00063610 	andeq	r3, r6, r0, lsl r6
     a78:	53440200 	movtpl	r0, #16896	; 0x4200
     a7c:	00000000 	andeq	r0, r0, r0
     a80:	0004b511 	andeq	fp, r4, r1, lsl r5
     a84:	035f0200 	cmpeq	pc, #0, 4
     a88:	00000191 	muleq	r0, r1, r1
     a8c:	00063610 	andeq	r3, r6, r0, lsl r6
     a90:	535f0200 	cmppl	pc, #0, 4
     a94:	12000000 	andne	r0, r0, #0
     a98:	006c6176 	rsbeq	r6, ip, r6, ror r1
     a9c:	00535f02 	subseq	r5, r3, r2, lsl #30
     aa0:	13000000 	movwne	r0, #0
     aa4:	000005c7 	andeq	r0, r0, r7, asr #11
     aa8:	33021001 	movwcc	r1, #8193	; 0x2001
     aac:	01000000 	mrseq	r0, (UNDEF: 0)
     ab0:	000001d5 	ldrdeq	r0, [r0], -r5
     ab4:	0006a014 	andeq	sl, r6, r4, lsl r0
     ab8:	02100100 	andseq	r0, r0, #0, 2
     abc:	000001d5 	ldrdeq	r0, [r0], -r5
     ac0:	73657215 	cmnvc	r5, #1342177281	; 0x50000001
     ac4:	02150100 	andseq	r0, r5, #0, 2
     ac8:	00000033 	andeq	r0, r0, r3, lsr r0
     acc:	00095e16 	andeq	r5, r9, r6, lsl lr
     ad0:	02160100 	andseq	r0, r6, #0, 2
     ad4:	00000033 	andeq	r0, r0, r3, lsr r0
     ad8:	0003c617 	andeq	ip, r3, r7, lsl r6
     adc:	015a0100 	cmpeq	sl, r0, lsl #2
     ae0:	00000033 	andeq	r0, r0, r3, lsr r0
     ae4:	06000018 			; <UNDEFINED> instruction: 0x06000018
     ae8:	00014704 	andeq	r4, r1, r4, lsl #14
     aec:	058a1900 	streq	r1, [sl, #2304]	; 0x900
     af0:	47010000 	strmi	r0, [r1, -r0]
     af4:	00000033 	andeq	r0, r0, r3, lsr r0
     af8:	00020201 	andeq	r0, r2, r1, lsl #4
     afc:	04e61000 	strbteq	r1, [r6], #0
     b00:	47010000 	strmi	r0, [r1, -r0]
     b04:	00000053 	andeq	r0, r0, r3, asr r0
     b08:	0006b71a 	andeq	fp, r6, sl, lsl r7
     b0c:	53490100 	movtpl	r0, #37120	; 0x9100
     b10:	00000000 	andeq	r0, r0, r0
     b14:	00048f1b 	andeq	r8, r4, fp, lsl pc
     b18:	02ae0100 	adceq	r0, lr, #0, 2
     b1c:	000001d5 	ldrdeq	r0, [r0], -r5
     b20:	015004a0 	cmpeq	r0, r0, lsr #9
     b24:	00000070 	andeq	r0, r0, r0, ror r0
     b28:	02679c01 	rsbeq	r9, r7, #256	; 0x100
     b2c:	5b1c0000 	blpl	700b34 <_back_addr-0xdff4cc>
     b30:	01000008 	tsteq	r0, r8
     b34:	01d502b1 	ldrheq	r0, [r5, #33]	; 0x21
     b38:	55010000 	strpl	r0, [r1, #-0]
     b3c:	5004e81d 	andpl	lr, r4, sp, lsl r8
     b40:	00138101 	andseq	r8, r3, r1, lsl #2
     b44:	00024b00 	andeq	r4, r2, r0, lsl #22
     b48:	50011e00 	andpl	r1, r1, r0, lsl #28
     b4c:	24444403 	strbcs	r4, [r4], #-1027	; 0x403
     b50:	0151011e 	cmpeq	r1, lr, lsl r1
     b54:	52011e30 	andpl	r1, r1, #48, 28	; 0x300
     b58:	08000a03 	stmdaeq	r0, {r0, r1, r9, fp}
     b5c:	04fc1f00 	ldrbteq	r1, [ip], #3840	; 0xf00
     b60:	13810150 	orrne	r0, r1, #80, 2
     b64:	011e0000 	tsteq	lr, r0
     b68:	00750250 	rsbseq	r0, r5, r0, asr r2
     b6c:	0151011e 	cmpeq	r1, lr, lsl r1
     b70:	52011e30 	andpl	r1, r1, #48, 28	; 0x300
     b74:	00380802 	eorseq	r0, r8, r2, lsl #16
     b78:	06ed1b00 	strbteq	r1, [sp], r0, lsl #22
     b7c:	de010000 	cdple	0, 0, cr0, cr1, cr0, {0}
     b80:	00003302 	andeq	r3, r0, r2, lsl #6
     b84:	50051000 	andpl	r1, r5, r0
     b88:	00003401 	andeq	r3, r0, r1, lsl #8
     b8c:	f69c0100 			; <UNDEFINED> instruction: 0xf69c0100
     b90:	20000002 	andcs	r0, r0, r2
     b94:	e0010069 	and	r0, r1, r9, rrx
     b98:	00005302 	andeq	r5, r0, r2, lsl #6
     b9c:	0006fb00 	andeq	pc, r6, r0, lsl #22
     ba0:	016e2100 	cmneq	lr, r0, lsl #2
     ba4:	05100000 	ldreq	r0, [r0, #-0]
     ba8:	00000150 	andeq	r0, r0, r0, asr r1
     bac:	e2010000 	and	r0, r1, #0
     bb0:	0002ca02 	andeq	ip, r2, r2, lsl #20
     bb4:	01852200 	orreq	r2, r5, r0, lsl #4
     bb8:	23010000 	movwcs	r0, #4096	; 0x1000
     bbc:	0000017a 	andeq	r0, r0, sl, ror r1
     bc0:	c085a39c 	umullgt	sl, r5, ip, r3
     bc4:	00002479 	andeq	r2, r0, r9, ror r4
     bc8:	85220000 	strhi	r0, [r2, #-0]!
     bcc:	01000001 	tsteq	r0, r1
     bd0:	00017a23 	andeq	r7, r1, r3, lsr #20
     bd4:	85a39c00 	strhi	r9, [r3, #3072]!	; 0xc00
     bd8:	000079c0 	andeq	r7, r0, r0, asr #19
     bdc:	00015225 	andeq	r5, r1, r5, lsr #4
     be0:	50051c00 	andpl	r1, r5, r0, lsl #24
     be4:	00001801 	andeq	r1, r0, r1, lsl #16
     be8:	02e40100 	rsceq	r0, r4, #0, 2
     bec:	00016223 	andeq	r6, r1, r3, lsr #4
     bf0:	85a39c00 	strhi	r9, [r3, #3072]!	; 0xc00
     bf4:	182479c0 	stmdane	r4!, {r6, r7, r8, fp, ip, sp, lr}
     bf8:	23000000 	movwcs	r0, #0
     bfc:	00000162 	andeq	r0, r0, r2, ror #2
     c00:	c085a39c 	umullgt	sl, r5, ip, r3
     c04:	00000079 	andeq	r0, r0, r9, ror r0
     c08:	00019126 	andeq	r9, r1, r6, lsr #2
     c0c:	50054400 	andpl	r4, r5, r0, lsl #8
     c10:	00010801 	andeq	r0, r1, r1, lsl #16
     c14:	419c0100 	orrsmi	r0, ip, r0, lsl #2
     c18:	27000007 	strcs	r0, [r0, -r7]
     c1c:	000001a2 	andeq	r0, r0, r2, lsr #3
     c20:	00000727 	andeq	r0, r0, r7, lsr #14
     c24:	0001ae28 	andeq	sl, r1, r8, lsr #28
     c28:	01ba2900 			; <UNDEFINED> instruction: 0x01ba2900
     c2c:	075e0000 	ldrbeq	r0, [lr, -r0]
     c30:	c62a0000 	strtgt	r0, [sl], -r0
     c34:	00000001 	andeq	r0, r0, r1
     c38:	0000032d 	andeq	r0, r0, sp, lsr #6
     c3c:	21001818 	tstcs	r0, r8, lsl r8
     c40:	0000016e 	andeq	r0, r0, lr, ror #2
     c44:	01500550 	cmpeq	r0, r0, asr r5
     c48:	00000030 	andeq	r0, r0, r0, lsr r0
     c4c:	6c021e01 	stcvs	14, cr1, [r2], {1}
     c50:	27000003 	strcs	r0, [r0, -r3]
     c54:	00000185 	andeq	r0, r0, r5, lsl #3
     c58:	00000772 	andeq	r0, r0, r2, ror r7
     c5c:	00017a27 	andeq	r7, r1, r7, lsr #20
     c60:	00078600 	andeq	r8, r7, r0, lsl #12
     c64:	00302400 	eorseq	r2, r0, r0, lsl #8
     c68:	85270000 	strhi	r0, [r7, #-0]!
     c6c:	72000001 	andvc	r0, r0, #1
     c70:	27000007 	strcs	r0, [r0, -r7]
     c74:	0000017a 	andeq	r0, r0, sl, ror r1
     c78:	00000786 	andeq	r0, r0, r6, lsl #15
     c7c:	6e210000 	cdpvs	0, 2, cr0, cr1, cr0, {0}
     c80:	58000001 	stmdapl	r0, {r0}
     c84:	50015005 	andpl	r5, r1, r5
     c88:	01000000 	mrseq	r0, (UNDEF: 0)
     c8c:	03ab0222 			; <UNDEFINED> instruction: 0x03ab0222
     c90:	85270000 	strhi	r0, [r7, #-0]!
     c94:	9e000001 	cdpls	0, 0, cr0, cr0, cr1, {0}
     c98:	27000007 	strcs	r0, [r0, -r7]
     c9c:	0000017a 	andeq	r0, r0, sl, ror r1
     ca0:	000007b2 			; <UNDEFINED> instruction: 0x000007b2
     ca4:	00005024 	andeq	r5, r0, r4, lsr #32
     ca8:	01852700 	orreq	r2, r5, r0, lsl #14
     cac:	079e0000 	ldreq	r0, [lr, r0]
     cb0:	7a270000 	bvc	9c0cb8 <_back_addr-0xb3f348>
     cb4:	b2000001 	andlt	r0, r0, #1
     cb8:	00000007 	andeq	r0, r0, r7
     cbc:	016e2100 	cmneq	lr, r0, lsl #2
     cc0:	05640000 	strbeq	r0, [r4, #-0]!
     cc4:	00680150 	rsbeq	r0, r8, r0, asr r1
     cc8:	1f010000 	svcne	0x00010000
     ccc:	0003ea02 	andeq	lr, r3, r2, lsl #20
     cd0:	01852700 	orreq	r2, r5, r0, lsl #14
     cd4:	07ca0000 	strbeq	r0, [sl, r0]
     cd8:	7a270000 	bvc	9c0ce0 <_back_addr-0xb3f320>
     cdc:	df000001 	svcle	0x00000001
     ce0:	24000007 	strcs	r0, [r0], #-7
     ce4:	00000068 	andeq	r0, r0, r8, rrx
     ce8:	00018527 	andeq	r8, r1, r7, lsr #10
     cec:	0007ca00 	andeq	ip, r7, r0, lsl #20
     cf0:	017a2700 	cmneq	sl, r0, lsl #14
     cf4:	07df0000 	ldrbeq	r0, [pc, r0]
     cf8:	00000000 	andeq	r0, r0, r0
     cfc:	00016e2b 	andeq	r6, r1, fp, lsr #28
     d00:	50057c00 	andpl	r7, r5, r0, lsl #24
     d04:	00000401 	andeq	r0, r0, r1, lsl #8
     d08:	02250100 	eoreq	r0, r5, #0, 2
     d0c:	0000042d 	andeq	r0, r0, sp, lsr #8
     d10:	00018527 	andeq	r8, r1, r7, lsr #10
     d14:	0007f700 	andeq	pc, r7, r0, lsl #14
     d18:	017a2700 	cmneq	sl, r0, lsl #14
     d1c:	08180000 	ldmdaeq	r8, {}	; <UNPREDICTABLE>
     d20:	7c2c0000 	stcvc	0, cr0, [ip], #-0
     d24:	04015005 	streq	r5, [r1], #-5
     d28:	27000000 	strcs	r0, [r0, -r0]
     d2c:	00000185 	andeq	r0, r0, r5, lsl #3
     d30:	000007f7 	strdeq	r0, [r0], -r7
     d34:	00017a27 	andeq	r7, r1, r7, lsr #20
     d38:	00081800 	andeq	r1, r8, r0, lsl #16
     d3c:	2b000000 	blcs	d44 <_back_addr-0x14ff2bc>
     d40:	0000016e 	andeq	r0, r0, lr, ror #2
     d44:	01500580 	cmpeq	r0, r0, lsl #11
     d48:	00000004 	andeq	r0, r0, r4
     d4c:	70022601 	andvc	r2, r2, r1, lsl #12
     d50:	27000004 	strcs	r0, [r0, -r4]
     d54:	00000185 	andeq	r0, r0, r5, lsl #3
     d58:	00000830 	andeq	r0, r0, r0, lsr r8
     d5c:	00017a27 	andeq	r7, r1, r7, lsr #20
     d60:	00085300 	andeq	r5, r8, r0, lsl #6
     d64:	05802c00 	streq	r2, [r0, #3072]	; 0xc00
     d68:	00040150 	andeq	r0, r4, r0, asr r1
     d6c:	85270000 	strhi	r0, [r7, #-0]!
     d70:	30000001 	andcc	r0, r0, r1
     d74:	27000008 	strcs	r0, [r0, -r8]
     d78:	0000017a 	andeq	r0, r0, sl, ror r1
     d7c:	00000853 	andeq	r0, r0, r3, asr r8
     d80:	6e2b0000 	cdpvs	0, 2, cr0, cr11, cr0, {0}
     d84:	84000001 	strhi	r0, [r0], #-1
     d88:	04015005 	streq	r5, [r1], #-5
     d8c:	01000000 	mrseq	r0, (UNDEF: 0)
     d90:	04b30227 	ldrteq	r0, [r3], #551	; 0x227
     d94:	85270000 	strhi	r0, [r7, #-0]!
     d98:	6b000001 	blvs	da4 <_back_addr-0x14ff25c>
     d9c:	27000008 	strcs	r0, [r0, -r8]
     da0:	0000017a 	andeq	r0, r0, sl, ror r1
     da4:	0000088c 	andeq	r0, r0, ip, lsl #17
     da8:	5005842c 	andpl	r8, r5, ip, lsr #8
     dac:	00000401 	andeq	r0, r0, r1, lsl #8
     db0:	01852700 	orreq	r2, r5, r0, lsl #14
     db4:	086b0000 	stmdaeq	fp!, {}^	; <UNPREDICTABLE>
     db8:	7a270000 	bvc	9c0dc0 <_back_addr-0xb3f240>
     dbc:	8c000001 	stchi	0, cr0, [r0], {1}
     dc0:	00000008 	andeq	r0, r0, r8
     dc4:	016e2b00 	cmneq	lr, r0, lsl #22
     dc8:	05880000 	streq	r0, [r8]
     dcc:	00040150 	andeq	r0, r4, r0, asr r1
     dd0:	28010000 	stmdacs	r1, {}	; <UNPREDICTABLE>
     dd4:	0004f602 	andeq	pc, r4, r2, lsl #12
     dd8:	01852700 	orreq	r2, r5, r0, lsl #14
     ddc:	08a40000 	stmiaeq	r4!, {}	; <UNPREDICTABLE>
     de0:	7a270000 	bvc	9c0de8 <_back_addr-0xb3f218>
     de4:	c7000001 	strgt	r0, [r0, -r1]
     de8:	2c000008 	stccs	0, cr0, [r0], {8}
     dec:	01500588 	cmpeq	r0, r8, lsl #11
     df0:	00000004 	andeq	r0, r0, r4
     df4:	00018527 	andeq	r8, r1, r7, lsr #10
     df8:	0008a400 	andeq	sl, r8, r0, lsl #8
     dfc:	017a2700 	cmneq	sl, r0, lsl #14
     e00:	08c70000 	stmiaeq	r7, {}^	; <UNPREDICTABLE>
     e04:	00000000 	andeq	r0, r0, r0
     e08:	00016e2b 	andeq	r6, r1, fp, lsr #28
     e0c:	50059800 	andpl	r9, r5, r0, lsl #16
     e10:	00000801 	andeq	r0, r0, r1, lsl #16
     e14:	027d0100 	rsbseq	r0, sp, #0, 2
     e18:	00000539 	andeq	r0, r0, r9, lsr r5
     e1c:	00018527 	andeq	r8, r1, r7, lsr #10
     e20:	0008df00 	andeq	sp, r8, r0, lsl #30
     e24:	017a2700 	cmneq	sl, r0, lsl #14
     e28:	08f30000 	ldmeq	r3!, {}^	; <UNPREDICTABLE>
     e2c:	982c0000 	stmdals	ip!, {}	; <UNPREDICTABLE>
     e30:	08015005 	stmdaeq	r1, {r0, r2, ip, lr}
     e34:	27000000 	strcs	r0, [r0, -r0]
     e38:	00000185 	andeq	r0, r0, r5, lsl #3
     e3c:	000008df 	ldrdeq	r0, [r0], -pc	; <UNPREDICTABLE>
     e40:	00017a27 	andeq	r7, r1, r7, lsr #20
     e44:	0008f300 	andeq	pc, r8, r0, lsl #6
     e48:	2d000000 	stccs	0, cr0, [r0, #-0]
     e4c:	015005a4 	cmpeq	r0, r4, lsr #11
     e50:	000000a0 	andeq	r0, r0, r0, lsr #1
     e54:	00000713 	andeq	r0, r0, r3, lsl r7
     e58:	0001a227 	andeq	sl, r1, r7, lsr #4
     e5c:	00090b00 	andeq	r0, r9, r0, lsl #22
     e60:	05a42c00 	streq	r2, [r4, #3072]!	; 0xc00
     e64:	00a00150 	adceq	r0, r0, r0, asr r1
     e68:	ae290000 	cdpge	0, 2, cr0, cr9, cr0, {0}
     e6c:	21000001 	tstcs	r0, r1
     e70:	29000009 	stmdbcs	r0, {r0, r3}
     e74:	000001ba 			; <UNDEFINED> instruction: 0x000001ba
     e78:	00000934 	andeq	r0, r0, r4, lsr r9
     e7c:	00015221 	andeq	r5, r1, r1, lsr #4
     e80:	5005a400 	andpl	sl, r5, r0, lsl #8
     e84:	00008001 	andeq	r8, r0, r1
     e88:	02800100 	addeq	r0, r0, #0, 2
     e8c:	00000597 	muleq	r0, r7, r5
     e90:	00016227 	andeq	r6, r1, r7, lsr #4
     e94:	00099000 	andeq	r9, r9, r0
     e98:	00802400 	addeq	r2, r0, r0, lsl #8
     e9c:	62270000 	eorvs	r0, r7, #0
     ea0:	90000001 	andls	r0, r0, r1
     ea4:	00000009 	andeq	r0, r0, r9
     ea8:	01522b00 	cmpeq	r2, r0, lsl #22
     eac:	05e40000 	strbeq	r0, [r4, #0]!
     eb0:	000c0150 	andeq	r0, ip, r0, asr r1
     eb4:	9e010000 	cdpls	0, 0, cr0, cr1, cr0, {0}
     eb8:	0005c802 	andeq	ip, r5, r2, lsl #16
     ebc:	01622700 	cmneq	r2, r0, lsl #14
     ec0:	09a80000 	stmibeq	r8!, {}	; <UNPREDICTABLE>
     ec4:	e42c0000 	strt	r0, [ip], #-0
     ec8:	0c015005 	stceq	0, cr5, [r1], {5}
     ecc:	27000000 	strcs	r0, [r0, -r0]
     ed0:	00000162 	andeq	r0, r0, r2, ror #2
     ed4:	000009a8 	andeq	r0, r0, r8, lsr #19
     ed8:	6e210000 	cdpvs	0, 2, cr0, cr1, cr0, {0}
     edc:	fc000001 	stc2	0, cr0, [r0], {1}
     ee0:	98015005 	stmdals	r1, {r0, r2, ip, lr}
     ee4:	01000000 	mrseq	r0, (UNDEF: 0)
     ee8:	060702a6 	streq	r0, [r7], -r6, lsr #5
     eec:	85270000 	strhi	r0, [r7, #-0]!
     ef0:	c0000001 	andgt	r0, r0, r1
     ef4:	27000009 	strcs	r0, [r0, -r9]
     ef8:	0000017a 	andeq	r0, r0, sl, ror r1
     efc:	000009d4 	ldrdeq	r0, [r0], -r4
     f00:	00009824 	andeq	r9, r0, r4, lsr #16
     f04:	01852700 	orreq	r2, r5, r0, lsl #14
     f08:	09c00000 	stmibeq	r0, {}^	; <UNPREDICTABLE>
     f0c:	7a270000 	bvc	9c0f14 <_back_addr-0xb3f0ec>
     f10:	d4000001 	strle	r0, [r0], #-1
     f14:	00000009 	andeq	r0, r0, r9
     f18:	016e2100 	cmneq	lr, r0, lsl #2
     f1c:	06080000 	streq	r0, [r8], -r0
     f20:	00b00150 	adcseq	r0, r0, r0, asr r1
     f24:	a7010000 	strge	r0, [r1, -r0]
     f28:	00064602 	andeq	r4, r6, r2, lsl #12
     f2c:	01852700 	orreq	r2, r5, r0, lsl #14
     f30:	09ec0000 	stmibeq	ip!, {}^	; <UNPREDICTABLE>
     f34:	7a270000 	bvc	9c0f3c <_back_addr-0xb3f0c4>
     f38:	00000001 	andeq	r0, r0, r1
     f3c:	2400000a 	strcs	r0, [r0], #-10
     f40:	000000b0 	strheq	r0, [r0], -r0	; <UNPREDICTABLE>
     f44:	00018527 	andeq	r8, r1, r7, lsr #10
     f48:	0009ec00 	andeq	lr, r9, r0, lsl #24
     f4c:	017a2700 	cmneq	sl, r0, lsl #14
     f50:	0a000000 	beq	f58 <_back_addr-0x14ff0a8>
     f54:	00000000 	andeq	r0, r0, r0
     f58:	0001522b 	andeq	r5, r1, fp, lsr #4
     f5c:	50061800 	andpl	r1, r6, r0, lsl #16
     f60:	00000401 	andeq	r0, r0, r1, lsl #8
     f64:	02a00100 	adceq	r0, r0, #0, 2
     f68:	00000677 	andeq	r0, r0, r7, ror r6
     f6c:	00016227 	andeq	r6, r1, r7, lsr #4
     f70:	000a1800 	andeq	r1, sl, r0, lsl #16
     f74:	06182c00 	ldreq	r2, [r8], -r0, lsl #24
     f78:	00040150 	andeq	r0, r4, r0, asr r1
     f7c:	62270000 	eorvs	r0, r7, #0
     f80:	18000001 	stmdane	r0, {r0}
     f84:	0000000a 	andeq	r0, r0, sl
     f88:	016e2100 	cmneq	lr, r0, lsl #2
     f8c:	062c0000 	strteq	r0, [ip], -r0
     f90:	00c80150 	sbceq	r0, r8, r0, asr r1
     f94:	8c010000 	stchi	0, cr0, [r1], {-0}
     f98:	0006b602 	andeq	fp, r6, r2, lsl #12
     f9c:	01852700 	orreq	r2, r5, r0, lsl #14
     fa0:	0a300000 	beq	c00fa8 <_back_addr-0x8ff058>
     fa4:	7a270000 	bvc	9c0fac <_back_addr-0xb3f054>
     fa8:	44000001 	strmi	r0, [r0], #-1
     fac:	2400000a 	strcs	r0, [r0], #-10
     fb0:	000000c8 	andeq	r0, r0, r8, asr #1
     fb4:	00018527 	andeq	r8, r1, r7, lsr #10
     fb8:	000a3000 	andeq	r3, sl, r0
     fbc:	017a2700 	cmneq	sl, r0, lsl #14
     fc0:	0a440000 	beq	1100fc8 <_back_addr-0x3ff038>
     fc4:	00000000 	andeq	r0, r0, r0
     fc8:	00016e21 	andeq	r6, r1, r1, lsr #28
     fcc:	50063000 	andpl	r3, r6, r0
     fd0:	0000e001 	andeq	lr, r0, r1
     fd4:	028d0100 	addeq	r0, sp, #0, 2
     fd8:	000006f5 	strdeq	r0, [r0], -r5
     fdc:	00018527 	andeq	r8, r1, r7, lsr #10
     fe0:	000a5c00 	andeq	r5, sl, r0, lsl #24
     fe4:	017a2700 	cmneq	sl, r0, lsl #14
     fe8:	0a700000 	beq	1c00ff0 <__bss_end__+0x6ed5d8>
     fec:	e0240000 	eor	r0, r4, r0
     ff0:	27000000 	strcs	r0, [r0, -r0]
     ff4:	00000185 	andeq	r0, r0, r5, lsl #3
     ff8:	00000a5c 	andeq	r0, r0, ip, asr sl
     ffc:	00017a27 	andeq	r7, r1, r7, lsr #20
    1000:	000a7000 	andeq	r7, sl, r0
    1004:	1d000000 	stcne	0, cr0, [r0, #-0]
    1008:	015005cc 	cmpeq	r0, ip, asr #11
    100c:	000013a0 	andeq	r1, r0, r0, lsr #7
    1010:	00000708 	andeq	r0, r0, r8, lsl #14
    1014:	0150011e 	cmpeq	r0, lr, lsl r1
    1018:	d02e0031 	eorle	r0, lr, r1, lsr r0
    101c:	b2015005 	andlt	r5, r1, #5
    1020:	00000013 	andeq	r0, r0, r3, lsl r0
    1024:	05901d00 	ldreq	r1, [r0, #3328]	; 0xd00
    1028:	13c40150 	bicne	r0, r4, #80, 2
    102c:	072e0000 	streq	r0, [lr, -r0]!
    1030:	011e0000 	tsteq	lr, r0
    1034:	01f30350 	mvnseq	r0, r0, asr r3
    1038:	51011e50 	tstpl	r1, r0, asr lr
    103c:	00380802 	eorseq	r0, r8, r2, lsl #16
    1040:	5005942e 	andpl	r9, r5, lr, lsr #8
    1044:	0013b201 	andseq	fp, r3, r1, lsl #4
    1048:	05a42e00 	streq	r2, [r4, #3584]!	; 0xe00
    104c:	13b20150 			; <UNDEFINED> instruction: 0x13b20150
    1050:	26000000 	strcs	r0, [r0], -r0
    1054:	000001db 	ldrdeq	r0, [r0], -fp
    1058:	0150064c 	cmpeq	r0, ip, asr #12
    105c:	00000008 	andeq	r0, r0, r8
    1060:	07679c01 	strbeq	r9, [r7, -r1, lsl #24]!
    1064:	eb270000 	bl	9c106c <_back_addr-0xb3ef94>
    1068:	88000001 	stmdahi	r0, {r0}
    106c:	2900000a 	stmdbcs	r0, {r1, r3}
    1070:	000001f6 	strdeq	r0, [r0], -r6
    1074:	00000aa9 	andeq	r0, r0, r9, lsr #21
    1078:	06722f00 	ldrbteq	r2, [r2], -r0, lsl #30
    107c:	52010000 	andpl	r0, r1, #0
    1080:	00000033 	andeq	r0, r0, r3, lsr r0
    1084:	01500654 	cmpeq	r0, r4, asr r6
    1088:	00000270 	andeq	r0, r0, r0, ror r2
    108c:	0a539c01 	beq	14e8098 <_back_addr-0x17f68>
    1090:	36300000 	ldrtcc	r0, [r0], -r0
    1094:	01000006 	tsteq	r0, r6
    1098:	00005352 	andeq	r5, r0, r2, asr r3
    109c:	000b0300 	andeq	r0, fp, r0, lsl #6
    10a0:	05bc3100 	ldreq	r3, [ip, #256]!	; 0x100
    10a4:	54010000 	strpl	r0, [r1], #-0
    10a8:	00000137 	andeq	r0, r0, r7, lsr r1
    10ac:	32609102 	rsbcc	r9, r0, #-2147483648	; 0x80000000
    10b0:	54010069 	strpl	r0, [r1], #-105	; 0x69
    10b4:	00000053 	andeq	r0, r0, r3, asr r0
    10b8:	00000b4e 	andeq	r0, r0, lr, asr #22
    10bc:	00015233 	andeq	r5, r1, r3, lsr r2
    10c0:	50065c00 	andpl	r5, r6, r0, lsl #24
    10c4:	0000f801 	andeq	pc, r0, r1, lsl #16
    10c8:	d6570100 	ldrble	r0, [r7], -r0, lsl #2
    10cc:	27000007 	strcs	r0, [r0, -r7]
    10d0:	00000162 	andeq	r0, r0, r2, ror #2
    10d4:	00000b62 	andeq	r0, r0, r2, ror #22
    10d8:	00011824 	andeq	r1, r1, r4, lsr #16
    10dc:	01622700 	cmneq	r2, r0, lsl #14
    10e0:	0b9d0000 	bleq	fe7410e8 <__bss_end__+0xfd22d6d0>
    10e4:	00000000 	andeq	r0, r0, r0
    10e8:	00015233 	andeq	r5, r1, r3, lsr r2
    10ec:	50069800 	andpl	r9, r6, r0, lsl #16
    10f0:	00013001 	andeq	r3, r1, r1
    10f4:	02580100 	subseq	r0, r8, #0, 2
    10f8:	27000008 	strcs	r0, [r0, -r8]
    10fc:	00000162 	andeq	r0, r0, r2, ror #2
    1100:	00000bb6 			; <UNDEFINED> instruction: 0x00000bb6
    1104:	00014824 	andeq	r4, r1, r4, lsr #16
    1108:	01623400 	cmneq	r2, r0, lsl #8
    110c:	70030000 	andvc	r0, r3, r0
    1110:	00009f1c 	andeq	r9, r0, ip, lsl pc
    1114:	00016e33 	andeq	r6, r1, r3, lsr lr
    1118:	5006ac00 	andpl	sl, r6, r0, lsl #24
    111c:	00016001 	andeq	r6, r1, r1
    1120:	38580100 	ldmdacc	r8, {r8}^
    1124:	35000008 	strcc	r0, [r0, #-8]
    1128:	00000185 	andeq	r0, r0, r5, lsl #3
    112c:	00017a27 	andeq	r7, r1, r7, lsr #20
    1130:	000c1800 	andeq	r1, ip, r0, lsl #16
    1134:	01782400 	cmneq	r8, r0, lsl #8
    1138:	85350000 	ldrhi	r0, [r5, #-0]!
    113c:	27000001 	strcs	r0, [r0, -r1]
    1140:	0000017a 	andeq	r0, r0, sl, ror r1
    1144:	00000c63 	andeq	r0, r0, r3, ror #24
    1148:	52330000 	eorspl	r0, r3, #0
    114c:	bc000001 	stclt	0, cr0, [r0], {1}
    1150:	90015006 	andls	r5, r1, r6
    1154:	01000001 	tsteq	r0, r1
    1158:	00086459 	andeq	r6, r8, r9, asr r4
    115c:	01622700 	cmneq	r2, r0, lsl #14
    1160:	0c760000 	ldcleq	0, cr0, [r6], #-0
    1164:	a8240000 	stmdage	r4!, {}	; <UNPREDICTABLE>
    1168:	27000001 	strcs	r0, [r0, -r1]
    116c:	00000162 	andeq	r0, r0, r2, ror #2
    1170:	00000cc7 	andeq	r0, r0, r7, asr #25
    1174:	6e330000 	cdpvs	0, 3, cr0, cr3, cr0, {0}
    1178:	cc000001 	stcgt	0, cr0, [r0], {1}
    117c:	c0015006 	andgt	r5, r1, r6
    1180:	01000001 	tsteq	r0, r1
    1184:	00089a59 	andeq	r9, r8, r9, asr sl
    1188:	01853500 	orreq	r3, r5, r0, lsl #10
    118c:	7a270000 	bvc	9c1194 <_back_addr-0xb3ee6c>
    1190:	dc000001 	stcle	0, cr0, [r0], {1}
    1194:	2400000c 	strcs	r0, [r0], #-12
    1198:	000001d8 	ldrdeq	r0, [r0], -r8
    119c:	00018535 	andeq	r8, r1, r5, lsr r5
    11a0:	017a2700 	cmneq	sl, r0, lsl #14
    11a4:	0d2d0000 	stceq	0, cr0, [sp, #-0]
    11a8:	00000000 	andeq	r0, r0, r0
    11ac:	00015233 	andeq	r5, r1, r3, lsr r2
    11b0:	5006e400 	andpl	lr, r6, r0, lsl #8
    11b4:	0001f001 	andeq	pc, r1, r1
    11b8:	c65a0100 	ldrbgt	r0, [sl], -r0, lsl #2
    11bc:	27000008 	strcs	r0, [r0, -r8]
    11c0:	00000162 	andeq	r0, r0, r2, ror #2
    11c4:	00000d42 	andeq	r0, r0, r2, asr #26
    11c8:	00020824 	andeq	r0, r2, r4, lsr #16
    11cc:	01622700 	cmneq	r2, r0, lsl #14
    11d0:	0d930000 	ldceq	0, cr0, [r3]
    11d4:	00000000 	andeq	r0, r0, r0
    11d8:	00016e33 	andeq	r6, r1, r3, lsr lr
    11dc:	5006f400 	andpl	pc, r6, r0, lsl #8
    11e0:	00022001 	andeq	r2, r2, r1
    11e4:	fc5a0100 	mrrc2	1, 0, r0, sl, cr0
    11e8:	35000008 	strcc	r0, [r0, #-8]
    11ec:	00000185 	andeq	r0, r0, r5, lsl #3
    11f0:	00017a27 	andeq	r7, r1, r7, lsr #20
    11f4:	000da800 	andeq	sl, sp, r0, lsl #16
    11f8:	02382400 	eorseq	r2, r8, #0, 8
    11fc:	85350000 	ldrhi	r0, [r5, #-0]!
    1200:	27000001 	strcs	r0, [r0, -r1]
    1204:	0000017a 	andeq	r0, r0, sl, ror r1
    1208:	00000df9 	strdeq	r0, [r0], -r9
    120c:	52330000 	eorspl	r0, r3, #0
    1210:	0c000001 	stceq	0, cr0, [r0], {1}
    1214:	50015007 	andpl	r5, r1, r7
    1218:	01000002 	tsteq	r0, r2
    121c:	0009285b 	andeq	r2, r9, fp, asr r8
    1220:	01622700 	cmneq	r2, r0, lsl #14
    1224:	0e0e0000 	cdpeq	0, 0, cr0, cr14, cr0, {0}
    1228:	68240000 	stmdavs	r4!, {}	; <UNPREDICTABLE>
    122c:	27000002 	strcs	r0, [r0, -r2]
    1230:	00000162 	andeq	r0, r0, r2, ror #2
    1234:	00000e5f 	andeq	r0, r0, pc, asr lr
    1238:	6e330000 	cdpvs	0, 3, cr0, cr3, cr0, {0}
    123c:	1c000001 	stcne	0, cr0, [r0], {1}
    1240:	80015007 	andhi	r5, r1, r7
    1244:	01000002 	tsteq	r0, r2
    1248:	00095e5b 	andeq	r5, r9, fp, asr lr
    124c:	01853500 	orreq	r3, r5, r0, lsl #10
    1250:	7a270000 	bvc	9c1258 <_back_addr-0xb3eda8>
    1254:	74000001 	strvc	r0, [r0], #-1
    1258:	2400000e 	strcs	r0, [r0], #-14
    125c:	00000298 	muleq	r0, r8, r2
    1260:	00018535 	andeq	r8, r1, r5, lsr r5
    1264:	017a2700 	cmneq	sl, r0, lsl #14
    1268:	0ec50000 	cdpeq	0, 12, cr0, cr5, cr0, {0}
    126c:	00000000 	andeq	r0, r0, r0
    1270:	00016e33 	andeq	r6, r1, r3, lsr lr
    1274:	50073400 	andpl	r3, r7, r0, lsl #8
    1278:	0002b001 	andeq	fp, r2, r1
    127c:	9c5c0100 	ldflse	f0, [ip], {-0}
    1280:	27000009 	strcs	r0, [r0, -r9]
    1284:	00000185 	andeq	r0, r0, r5, lsl #3
    1288:	00000eda 	ldrdeq	r0, [r0], -sl
    128c:	00017a27 	andeq	r7, r1, r7, lsr #20
    1290:	000ef800 	andeq	pc, lr, r0, lsl #16
    1294:	02d02400 	sbcseq	r2, r0, #0, 8
    1298:	85270000 	strhi	r0, [r7, #-0]!
    129c:	49000001 	stmdbmi	r0, {r0}
    12a0:	2700000f 	strcs	r0, [r0, -pc]
    12a4:	0000017a 	andeq	r0, r0, sl, ror r1
    12a8:	00000f5c 	andeq	r0, r0, ip, asr pc
    12ac:	6e330000 	cdpvs	0, 3, cr0, cr3, cr0, {0}
    12b0:	44000001 	strmi	r0, [r0], #-1
    12b4:	e8015007 	stmda	r1, {r0, r1, r2, ip, lr}
    12b8:	01000002 	tsteq	r0, r2
    12bc:	0009da5d 	andeq	sp, r9, sp, asr sl
    12c0:	01852700 	orreq	r2, r5, r0, lsl #14
    12c4:	0f710000 	svceq	0x00710000
    12c8:	7a270000 	bvc	9c12d0 <_back_addr-0xb3ed30>
    12cc:	8f000001 	svchi	0x00000001
    12d0:	2400000f 	strcs	r0, [r0], #-15
    12d4:	00000308 	andeq	r0, r0, r8, lsl #6
    12d8:	00018527 	andeq	r8, r1, r7, lsr #10
    12dc:	000fe000 	andeq	lr, pc, r0
    12e0:	017a2700 	cmneq	sl, r0, lsl #14
    12e4:	0ff30000 	svceq	0x00f30000
    12e8:	00000000 	andeq	r0, r0, r0
    12ec:	00016e33 	andeq	r6, r1, r3, lsr lr
    12f0:	50075400 	andpl	r5, r7, r0, lsl #8
    12f4:	00032001 	andeq	r2, r3, r1
    12f8:	185e0100 	ldmdane	lr, {r8}^
    12fc:	2700000a 	strcs	r0, [r0, -sl]
    1300:	00000185 	andeq	r0, r0, r5, lsl #3
    1304:	00001008 	andeq	r1, r0, r8
    1308:	00017a27 	andeq	r7, r1, r7, lsr #20
    130c:	00102600 	andseq	r2, r0, r0, lsl #12
    1310:	03402400 	movteq	r2, #1024	; 0x400
    1314:	85270000 	strhi	r0, [r7, #-0]!
    1318:	77000001 	strvc	r0, [r0, -r1]
    131c:	27000010 	smladcs	r0, r0, r0, r0
    1320:	0000017a 	andeq	r0, r0, sl, ror r1
    1324:	0000108a 	andeq	r1, r0, sl, lsl #1
    1328:	6e360000 	cdpvs	0, 3, cr0, cr6, cr0, {0}
    132c:	64000001 	strvs	r0, [r0], #-1
    1330:	58015007 	stmdapl	r1, {r0, r1, r2, ip, lr}
    1334:	01000003 	tsteq	r0, r3
    1338:	0185275f 	orreq	r2, r5, pc, asr r7
    133c:	109f0000 	addsne	r0, pc, r0
    1340:	7a270000 	bvc	9c1348 <_back_addr-0xb3ecb8>
    1344:	bd000001 	stclt	0, cr0, [r0, #-4]
    1348:	24000010 	strcs	r0, [r0], #-16
    134c:	00000380 	andeq	r0, r0, r0, lsl #7
    1350:	00018527 	andeq	r8, r1, r7, lsr #10
    1354:	00110100 	andseq	r0, r1, r0, lsl #2
    1358:	017a2700 	cmneq	sl, r0, lsl #14
    135c:	11140000 	tstne	r4, r0
    1360:	00000000 	andeq	r0, r0, r0
    1364:	06f62f00 	ldrbteq	r2, [r6], r0, lsl #30
    1368:	64010000 	strvs	r0, [r1], #-0
    136c:	00000033 	andeq	r0, r0, r3, lsr r0
    1370:	015008c4 	cmpeq	r0, r4, asr #17
    1374:	00000090 	muleq	r0, r0, r0
    1378:	0ad39c01 	beq	ff4e8384 <__bss_end__+0xfdfd496c>
    137c:	a6300000 	ldrtge	r0, [r0], -r0
    1380:	01000005 	tsteq	r0, r5
    1384:	000ad364 	andeq	sp, sl, r4, ror #6
    1388:	00113a00 	andseq	r3, r1, r0, lsl #20
    138c:	05f63000 	ldrbeq	r3, [r6, #0]!
    1390:	64010000 	strvs	r0, [r1], #-0
    1394:	00000053 	andeq	r0, r0, r3, asr r0
    1398:	0000117d 	andeq	r1, r0, sp, ror r1
    139c:	00051d30 	andeq	r1, r5, r0, lsr sp
    13a0:	d3640100 	cmnle	r4, #0, 2
    13a4:	c000000a 	andgt	r0, r0, sl
    13a8:	37000011 	smladcc	r0, r1, r0, r0
    13ac:	0079656b 	rsbseq	r6, r9, fp, ror #10
    13b0:	0ad96401 	beq	ff65a3bc <__bss_end__+0xfe1469a4>
    13b4:	12030000 	andne	r0, r3, #0
    13b8:	a0380000 	eorsge	r0, r8, r0
    13bc:	01000006 	tsteq	r0, r6
    13c0:	0001d566 	andeq	sp, r1, r6, ror #10
    13c4:	00123a00 	andseq	r3, r2, r0, lsl #20
    13c8:	08dc2e00 	ldmeq	ip, {r9, sl, fp, sp}^
    13cc:	02020150 	andeq	r0, r2, #80, 2
    13d0:	2c390000 	ldccs	0, cr0, [r9], #-0
    13d4:	91015009 	tstls	r1, r9
    13d8:	2e000001 	cdpcs	0, 0, cr0, cr0, cr1, {0}
    13dc:	01500930 	cmpeq	r0, r0, lsr r9
    13e0:	00000267 	andeq	r0, r0, r7, ror #4
    13e4:	6f040600 	svcvs	0x00040600
    13e8:	06000000 	streq	r0, [r0], -r0
    13ec:	00005304 	andeq	r5, r0, r4, lsl #6
    13f0:	05e62f00 	strbeq	r2, [r6, #3840]!	; 0xf00
    13f4:	7f010000 	svcvc	0x00010000
    13f8:	00000033 	andeq	r0, r0, r3, lsr r0
    13fc:	01500954 	cmpeq	r0, r4, asr r9
    1400:	00000090 	muleq	r0, r0, r0
    1404:	0b5f9c01 	bleq	17e8410 <__bss_end__+0x2d49f8>
    1408:	a6300000 	ldrtge	r0, [r0], -r0
    140c:	01000005 	tsteq	r0, r5
    1410:	000ad37f 	andeq	sp, sl, pc, ror r3
    1414:	00128f00 	andseq	r8, r2, r0, lsl #30
    1418:	05f63000 	ldrbeq	r3, [r6, #0]!
    141c:	7f010000 	svcvc	0x00010000
    1420:	00000053 	andeq	r0, r0, r3, asr r0
    1424:	000012d2 	ldrdeq	r1, [r0], -r2
    1428:	00051d30 	andeq	r1, r5, r0, lsr sp
    142c:	d37f0100 	cmnle	pc, #0, 2
    1430:	1500000a 	strne	r0, [r0, #-10]
    1434:	37000013 	smladcc	r0, r3, r0, r0
    1438:	0079656b 	rsbseq	r6, r9, fp, ror #10
    143c:	0ad97f01 	beq	ff661048 <__bss_end__+0xfe14d630>
    1440:	13580000 	cmpne	r8, #0
    1444:	a0380000 	eorsge	r0, r8, r0
    1448:	01000006 	tsteq	r0, r6
    144c:	0001d581 	andeq	sp, r1, r1, lsl #11
    1450:	00138f00 	andseq	r8, r3, r0, lsl #30
    1454:	096c2e00 	stmdbeq	ip!, {r9, sl, fp, sp}^
    1458:	02020150 	andeq	r0, r2, #80, 2
    145c:	bc390000 	ldclt	0, cr0, [r9], #-0
    1460:	91015009 	tstls	r1, r9
    1464:	2e000001 	cdpcs	0, 0, cr0, cr0, cr1, {0}
    1468:	015009c0 	cmpeq	r0, r0, asr #19
    146c:	00000267 	andeq	r0, r0, r7, ror #4
    1470:	05082f00 	streq	r2, [r8, #-3840]	; 0xf00
    1474:	9a010000 	bls	4147c <_back_addr-0x14beb84>
    1478:	00000033 	andeq	r0, r0, r3, lsr r0
    147c:	015009e4 	cmpeq	r0, r4, ror #19
    1480:	00000094 	muleq	r0, r4, r0
    1484:	0bdf9c01 	bleq	ff7e8490 <__bss_end__+0xfe2d4a78>
    1488:	a6300000 	ldrtge	r0, [r0], -r0
    148c:	01000005 	tsteq	r0, r5
    1490:	000ad39a 	muleq	sl, sl, r3
    1494:	0013e400 	andseq	lr, r3, r0, lsl #8
    1498:	05f63000 	ldrbeq	r3, [r6, #0]!
    149c:	9a010000 	bls	414a4 <_back_addr-0x14beb5c>
    14a0:	00000053 	andeq	r0, r0, r3, asr r0
    14a4:	00001427 	andeq	r1, r0, r7, lsr #8
    14a8:	00051d30 	andeq	r1, r5, r0, lsr sp
    14ac:	d39a0100 	orrsle	r0, sl, #0, 2
    14b0:	6a00000a 	bvs	14e0 <_back_addr-0x14feb20>
    14b4:	37000014 	smladcc	r0, r4, r0, r0
    14b8:	0079656b 	rsbseq	r6, r9, fp, ror #10
    14bc:	0ad99a01 	beq	ff667cc8 <__bss_end__+0xfe1542b0>
    14c0:	14ad0000 	strtne	r0, [sp], #0
    14c4:	a0380000 	eorsge	r0, r8, r0
    14c8:	01000006 	tsteq	r0, r6
    14cc:	0001d59c 	muleq	r1, ip, r5
    14d0:	0014e400 	andseq	lr, r4, r0, lsl #8
    14d4:	09fc2e00 	ldmibeq	ip!, {r9, sl, fp, sp}^
    14d8:	02020150 	andeq	r0, r2, #80, 2
    14dc:	4c390000 	ldcmi	0, cr0, [r9], #-0
    14e0:	9101500a 	tstls	r1, sl
    14e4:	2e000001 	cdpcs	0, 0, cr0, cr0, cr1, {0}
    14e8:	01500a50 	cmpeq	r0, r0, asr sl
    14ec:	00000267 	andeq	r0, r0, r7, ror #4
    14f0:	063b2f00 	ldrteq	r2, [fp], -r0, lsl #30
    14f4:	b7010000 	strlt	r0, [r1, -r0]
    14f8:	00000033 	andeq	r0, r0, r3, lsr r0
    14fc:	01500a78 	cmpeq	r0, r8, ror sl
    1500:	000000ec 	andeq	r0, r0, ip, ror #1
    1504:	0cfc9c01 	ldcleq	12, cr9, [ip], #4
    1508:	a6300000 	ldrtge	r0, [r0], -r0
    150c:	01000005 	tsteq	r0, r5
    1510:	000ad3b7 			; <UNDEFINED> instruction: 0x000ad3b7
    1514:	00153900 	andseq	r3, r5, r0, lsl #18
    1518:	05f63000 	ldrbeq	r3, [r6, #0]!
    151c:	b7010000 	strlt	r0, [r1, -r0]
    1520:	00000053 	andeq	r0, r0, r3, asr r0
    1524:	00001557 	andeq	r1, r0, r7, asr r5
    1528:	00051d30 	andeq	r1, r5, r0, lsr sp
    152c:	d3b70100 			; <UNDEFINED> instruction: 0xd3b70100
    1530:	7500000a 	strvc	r0, [r0, #-10]
    1534:	37000015 	smladcc	r0, r5, r0, r0
    1538:	0079656b 	rsbseq	r6, r9, fp, ror #10
    153c:	0ad9b701 	beq	ff66f148 <__bss_end__+0xfe15b730>
    1540:	15930000 	ldrne	r0, [r3]
    1544:	72320000 	eorsvc	r0, r2, #0
    1548:	01007465 	tsteq	r0, r5, ror #8
    154c:	000033b9 			; <UNDEFINED> instruction: 0x000033b9
    1550:	0015b100 	andseq	fp, r5, r0, lsl #2
    1554:	06a03800 	strteq	r3, [r0], r0, lsl #16
    1558:	ba010000 	blt	41560 <_back_addr-0x14beaa0>
    155c:	000001d5 	ldrdeq	r0, [r0], -r5
    1560:	000015dc 	ldrdeq	r1, [r0], -ip
    1564:	0005af3a 	andeq	sl, r5, sl, lsr pc
    1568:	000cfc00 	andeq	pc, ip, r0, lsl #24
    156c:	40030500 	andmi	r0, r3, r0, lsl #10
    1570:	2e01502f 	cdpcs	0, 0, cr5, cr1, cr15, {1}
    1574:	01500a90 			; <UNDEFINED> instruction: 0x01500a90
    1578:	00000202 	andeq	r0, r0, r2, lsl #4
    157c:	500adc1d 	andpl	sp, sl, sp, lsl ip
    1580:	00019101 	andeq	r9, r1, r1, lsl #2
    1584:	000c7e00 	andeq	r7, ip, r0, lsl #28
    1588:	50011e00 	andpl	r1, r1, r0, lsl #28
    158c:	00007402 	andeq	r7, r0, r2, lsl #8
    1590:	500af81d 	andpl	pc, sl, sp, lsl r8	; <UNPREDICTABLE>
    1594:	0013c401 	andseq	ip, r3, r1, lsl #8
    1598:	000c9800 	andeq	r9, ip, r0, lsl #16
    159c:	50011e00 	andpl	r1, r1, r0, lsl #28
    15a0:	1e007602 	cfmadd32ne	mvax0, mvfx7, mvfx0, mvfx2
    15a4:	77025101 	strvc	r5, [r2, -r1, lsl #2]
    15a8:	042e0000 	strteq	r0, [lr], #-0
    15ac:	6701500b 	strvs	r5, [r1, -fp]
    15b0:	1d000002 	stcne	0, cr0, [r0, #-8]
    15b4:	01500b34 	cmpeq	r0, r4, lsr fp
    15b8:	000013db 	ldrdeq	r1, [r0], -fp
    15bc:	00000cd0 	ldrdeq	r0, [r0], -r0	; <UNPREDICTABLE>
    15c0:	0550011e 	ldrbeq	r0, [r0, #-286]	; 0x11e
    15c4:	502f6803 	eorpl	r6, pc, r3, lsl #16
    15c8:	51011e01 	tstpl	r1, r1, lsl #28
    15cc:	2f600305 	svccs	0x00600305
    15d0:	011e0150 	tsteq	lr, r0, asr r1
    15d4:	40030552 	andmi	r0, r3, r2, asr r5
    15d8:	1e01502f 	cdpne	0, 0, cr5, cr1, cr15, {1}
    15dc:	08025301 	stmdaeq	r2, {r0, r8, r9, ip, lr}
    15e0:	5c1f00c4 	ldcpl	0, cr0, [pc], {196}	; 0xc4
    15e4:	db01500b 	blle	55618 <_back_addr-0x14aa9e8>
    15e8:	1e000013 	mcrne	0, 0, r0, cr0, cr3, {0}
    15ec:	03055001 	movweq	r5, #20481	; 0x5001
    15f0:	01502f68 	cmpeq	r0, r8, ror #30
    15f4:	0551011e 	ldrbeq	r0, [r1, #-286]	; 0x11e
    15f8:	502f6003 	eorpl	r6, pc, r3
    15fc:	52011e01 	andpl	r1, r1, #1, 28
    1600:	2f400305 	svccs	0x00400305
    1604:	011e0150 	tsteq	lr, r0, asr r1
    1608:	be080253 	mcrlt	2, 0, r0, cr8, cr3, {2}
    160c:	9c070000 	stcls	0, cr0, [r7], {-0}
    1610:	2f000000 	svccs	0x00000000
    1614:	00000533 	andeq	r0, r0, r3, lsr r5
    1618:	0033e401 	eorseq	lr, r3, r1, lsl #8
    161c:	0b640000 	bleq	1901624 <__bss_end__+0x3edc0c>
    1620:	00700150 	rsbseq	r0, r0, r0, asr r1
    1624:	9c010000 	stcls	0, cr0, [r1], {-0}
    1628:	00000d69 	andeq	r0, r0, r9, ror #26
    162c:	0005a630 	andeq	sl, r5, r0, lsr r6
    1630:	d3e40100 	mvnle	r0, #0, 2
    1634:	2600000a 	strcs	r0, [r0], -sl
    1638:	30000016 	andcc	r0, r0, r6, lsl r0
    163c:	000005f6 	strdeq	r0, [r0], -r6
    1640:	0053e401 	subseq	lr, r3, r1, lsl #8
    1644:	16690000 	strbtne	r0, [r9], -r0
    1648:	1d300000 	ldcne	0, cr0, [r0, #-0]
    164c:	01000005 	tsteq	r0, r5
    1650:	000ad3e4 	andeq	sp, sl, r4, ror #7
    1654:	0016ac00 	andseq	sl, r6, r0, lsl #24
    1658:	06a03800 	strteq	r3, [r0], r0, lsl #16
    165c:	e6010000 	str	r0, [r1], -r0
    1660:	000001d5 	ldrdeq	r0, [r0], -r5
    1664:	000016ef 	andeq	r1, r0, pc, ror #13
    1668:	500b782e 	andpl	r7, fp, lr, lsr #16
    166c:	00020201 	andeq	r0, r2, r1, lsl #4
    1670:	0bcc3900 	bleq	ff30fa78 <__bss_end__+0xfddfc060>
    1674:	01910150 	orrseq	r0, r1, r0, asr r1
    1678:	3b000000 	blcc	1680 <_back_addr-0x14fe980>
    167c:	000005fd 	strdeq	r0, [r0], -sp
    1680:	0102d301 	tsteq	r2, r1, lsl #6
    1684:	00000d8f 	andeq	r0, r0, pc, lsl #27
    1688:	0006a014 	andeq	sl, r6, r4, lsl r0
    168c:	02d30100 	sbcseq	r0, r3, #0, 2
    1690:	000001d5 	ldrdeq	r0, [r0], -r5
    1694:	00060c14 	andeq	r0, r6, r4, lsl ip
    1698:	02d30100 	sbcseq	r0, r3, #0, 2
    169c:	00000ad3 	ldrdeq	r0, [r0], -r3
    16a0:	06132f00 	ldreq	r2, [r3], -r0, lsl #30
    16a4:	f9010000 			; <UNDEFINED> instruction: 0xf9010000
    16a8:	00000033 	andeq	r0, r0, r3, lsr r0
    16ac:	01500bd4 	ldrsbeq	r0, [r0, #-180]	; 0xffffff4c
    16b0:	00000158 	andeq	r0, r0, r8, asr r1
    16b4:	0e529c01 	cdpeq	12, 5, cr9, cr2, cr1, {0}
    16b8:	a6300000 	ldrtge	r0, [r0], -r0
    16bc:	01000005 	tsteq	r0, r5
    16c0:	000ad3f9 	strdeq	sp, [sl], -r9
    16c4:	00171800 	andseq	r1, r7, r0, lsl #16
    16c8:	05f63000 	ldrbeq	r3, [r6, #0]!
    16cc:	f9010000 			; <UNDEFINED> instruction: 0xf9010000
    16d0:	00000053 	andeq	r0, r0, r3, asr r0
    16d4:	0000175d 	andeq	r1, r0, sp, asr r7
    16d8:	00051d30 	andeq	r1, r5, r0, lsr sp
    16dc:	d3f90100 	mvnsle	r0, #0, 2
    16e0:	8600000a 	strhi	r0, [r0], -sl
    16e4:	30000017 	andcc	r0, r0, r7, lsl r0
    16e8:	000004aa 	andeq	r0, r0, sl, lsr #9
    16ec:	0053f901 	subseq	pc, r3, r1, lsl #18
    16f0:	17bd0000 	ldrne	r0, [sp, r0]!
    16f4:	a0380000 	eorsge	r0, r8, r0
    16f8:	01000006 	tsteq	r0, r6
    16fc:	0001d5fb 	strdeq	sp, [r1], -fp
    1700:	0017e600 	andseq	lr, r7, r0, lsl #12
    1704:	06d63800 	ldrbeq	r3, [r6], r0, lsl #16
    1708:	fc010000 	stc2	0, cr0, [r1], {-0}
    170c:	00000ad3 	ldrdeq	r0, [r0], -r3
    1710:	00001804 	andeq	r1, r0, r4, lsl #16
    1714:	73657232 	cmnvc	r5, #536870915	; 0x20000003
    1718:	33fd0100 	mvnscc	r0, #0, 2
    171c:	17000000 	strne	r0, [r0, -r0]
    1720:	21000018 	tstcs	r0, r8, lsl r0
    1724:	00000d69 	andeq	r0, r0, r9, ror #26
    1728:	01500c54 	cmpeq	r0, r4, asr ip
    172c:	00000398 	muleq	r0, r8, r3
    1730:	38011e01 	stmdacc	r1, {r0, r9, sl, fp, ip}
    1734:	2700000e 	strcs	r0, [r0, -lr]
    1738:	00000d82 	andeq	r0, r0, r2, lsl #27
    173c:	00001837 	andeq	r1, r0, r7, lsr r8
    1740:	000d7627 	andeq	r7, sp, r7, lsr #12
    1744:	00185500 	andseq	r5, r8, r0, lsl #10
    1748:	042e0000 	strteq	r0, [lr], #-0
    174c:	0201500c 	andeq	r5, r1, #12
    1750:	1f000002 	svcne	0x00000002
    1754:	01500d04 	cmpeq	r0, r4, lsl #26
    1758:	00000191 	muleq	r0, r1, r1
    175c:	0250011e 	subseq	r0, r0, #-2147483641	; 0x80000007
    1760:	00000075 	andeq	r0, r0, r5, ror r0
    1764:	0006ad3c 	andeq	sl, r6, ip, lsr sp
    1768:	01290100 	teqeq	r9, r0, lsl #2
    176c:	00000033 	andeq	r0, r0, r3, lsr r0
    1770:	01500d2c 	cmpeq	r0, ip, lsr #26
    1774:	000000cc 	andeq	r0, r0, ip, asr #1
    1778:	0ece9c01 	cdpeq	12, 12, cr9, cr14, cr1, {0}
    177c:	a63d0000 	ldrtge	r0, [sp], -r0
    1780:	01000005 	tsteq	r0, r5
    1784:	0ad30129 	beq	ff4c1c30 <__bss_end__+0xfdfae218>
    1788:	18730000 	ldmdane	r3!, {}^	; <UNPREDICTABLE>
    178c:	f63d0000 			; <UNDEFINED> instruction: 0xf63d0000
    1790:	01000005 	tsteq	r0, r5
    1794:	00530129 	subseq	r0, r3, r9, lsr #2
    1798:	18da0000 	ldmne	sl, {}^	; <UNPREDICTABLE>
    179c:	1d3d0000 	ldcne	0, cr0, [sp, #-0]
    17a0:	01000005 	tsteq	r0, r5
    17a4:	0ad30129 	beq	ff4c1c50 <__bss_end__+0xfdfae238>
    17a8:	19330000 	ldmdbne	r3!, {}	; <UNPREDICTABLE>
    17ac:	693e0000 	ldmdbvs	lr!, {}	; <UNPREDICTABLE>
    17b0:	29010076 	stmdbcs	r1, {r1, r2, r4, r5, r6}
    17b4:	000ad901 	andeq	sp, sl, r1, lsl #18
    17b8:	00198c00 	andseq	r8, r9, r0, lsl #24
    17bc:	06a03f00 	strteq	r3, [r0], r0, lsl #30
    17c0:	2b010000 	blcs	417c8 <_back_addr-0x14be838>
    17c4:	0001d501 	andeq	sp, r1, r1, lsl #10
    17c8:	0019d900 	andseq	sp, r9, r0, lsl #18
    17cc:	0d502e00 	ldcleq	14, cr2, [r0, #-0]
    17d0:	02020150 	andeq	r0, r2, #80, 2
    17d4:	a8390000 	ldmdage	r9!, {}	; <UNPREDICTABLE>
    17d8:	9101500d 	tstls	r1, sp
    17dc:	00000001 	andeq	r0, r0, r1
    17e0:	0004df3c 	andeq	sp, r4, ip, lsr pc
    17e4:	014e0100 	mrseq	r0, (UNDEF: 94)
    17e8:	00000033 	andeq	r0, r0, r3, lsr r0
    17ec:	01500df8 	ldrsheq	r0, [r0, #-216]	; 0xffffff28
    17f0:	0000017c 	andeq	r0, r0, ip, ror r1
    17f4:	126a9c01 	rsbne	r9, sl, #256	; 0x100
    17f8:	613d0000 	teqvs	sp, r0
    17fc:	01000005 	tsteq	r0, r5
    1800:	0ad3014e 	beq	ff4c1d40 <__bss_end__+0xfdfae328>
    1804:	1a180000 	bne	60180c <_back_addr-0xefe7f4>
    1808:	323d0000 	eorscc	r0, sp, #0
    180c:	01000006 	tsteq	r0, r6
    1810:	0ad3014e 	beq	ff4c1d50 <__bss_end__+0xfdfae338>
    1814:	1a4f0000 	bne	13c181c <_back_addr-0x13e7e4>
    1818:	883d0000 	ldmdahi	sp!, {}	; <UNPREDICTABLE>
    181c:	01000006 	tsteq	r0, r6
    1820:	0ad3014e 	beq	ff4c1d60 <__bss_end__+0xfdfae348>
    1824:	1a860000 	bne	fe18182c <__bss_end__+0xfcc6de14>
    1828:	69150000 	ldmdbvs	r5, {}	; <UNPREDICTABLE>
    182c:	01510100 	cmpeq	r1, r0, lsl #2
    1830:	00000033 	andeq	r0, r0, r3, lsr r0
    1834:	0006631c 	andeq	r6, r6, ip, lsl r3
    1838:	01520100 	cmpeq	r2, r0, lsl #2
    183c:	0000126a 	andeq	r1, r0, sl, ror #4
    1840:	7df09103 	ldfvcp	f1, [r0, #12]!
    1844:	00062d3f 	andeq	r2, r6, pc, lsr sp
    1848:	01530100 	cmpeq	r3, r0, lsl #2
    184c:	00000053 	andeq	r0, r0, r3, asr r0
    1850:	00001aa4 	andeq	r1, r0, r4, lsr #21
    1854:	00054040 	andeq	r4, r5, r0, asr #32
    1858:	01540100 	cmpeq	r4, r0, lsl #2
    185c:	0000128a 	andeq	r1, r0, sl, lsl #5
    1860:	30313013 	eorscc	r3, r1, r3, lsl r0
    1864:	6009060d 	andvs	r0, r9, sp, lsl #12
    1868:	65014886 	strvs	r4, [r1, #-2182]	; 0x886
    186c:	01020403 	tsteq	r2, r3, lsl #8
    1870:	20040005 	andcs	r0, r4, r5
    1874:	0003c641 	andeq	ip, r3, r1, asr #12
    1878:	015a0100 	cmpeq	sl, r0, lsl #2
    187c:	00000033 	andeq	r0, r0, r3, lsr r0
    1880:	00000f74 	andeq	r0, r0, r4, ror pc
    1884:	26410018 			; <UNDEFINED> instruction: 0x26410018
    1888:	01000005 	tsteq	r0, r5
    188c:	0033016c 	eorseq	r0, r3, ip, ror #2
    1890:	0f860000 	svceq	0x00860000
    1894:	00180000 	andseq	r0, r8, r0
    1898:	00069441 	andeq	r9, r6, r1, asr #8
    189c:	016e0100 	cmneq	lr, r0, lsl #2
    18a0:	00000033 	andeq	r0, r0, r3, lsr r0
    18a4:	00000f98 	muleq	r0, r8, pc	; <UNPREDICTABLE>
    18a8:	ce410018 	mcrgt	0, 2, r0, cr1, cr8, {0}
    18ac:	01000005 	tsteq	r0, r5
    18b0:	00330175 	eorseq	r0, r3, r5, ror r1
    18b4:	0faa0000 	svceq	0x00aa0000
    18b8:	00180000 	andseq	r0, r8, r0
    18bc:	00016e21 	andeq	r6, r1, r1, lsr #28
    18c0:	500e1400 	andpl	r1, lr, r0, lsl #8
    18c4:	0003b801 	andeq	fp, r3, r1, lsl #16
    18c8:	01620100 	cmneq	r2, r0, lsl #2
    18cc:	00000fe5 	andeq	r0, r0, r5, ror #31
    18d0:	00018522 	andeq	r8, r1, r2, lsr #10
    18d4:	7a230200 	bvc	8c20dc <_back_addr-0xc3df24>
    18d8:	88000001 	stmdahi	r0, {r0}
    18dc:	79c0939e 	stmibvc	r0, {r1, r2, r3, r4, r7, r8, r9, ip, pc}^
    18e0:	0003b824 	andeq	fp, r3, r4, lsr #16
    18e4:	01852200 	orreq	r2, r5, r0, lsl #4
    18e8:	23020000 	movwcs	r0, #8192	; 0x2000
    18ec:	0000017a 	andeq	r0, r0, sl, ror r1
    18f0:	c0939e88 	addsgt	r9, r3, r8, lsl #29
    18f4:	21000079 	tstcs	r0, r9, ror r0
    18f8:	0000016e 	andeq	r0, r0, lr, ror #2
    18fc:	01500e24 	cmpeq	r0, r4, lsr #28
    1900:	000003d8 	ldrdeq	r0, [r0], -r8
    1904:	20016301 	andcs	r6, r1, r1, lsl #6
    1908:	22000010 	andcs	r0, r0, #16
    190c:	00000185 	andeq	r0, r0, r5, lsl #3
    1910:	017a2300 	cmneq	sl, r0, lsl #6
    1914:	9f800000 	svcls	0x00800000
    1918:	2479c093 	ldrbtcs	ip, [r9], #-147	; 0x93
    191c:	000003d8 	ldrdeq	r0, [r0], -r8
    1920:	00018522 	andeq	r8, r1, r2, lsr #10
    1924:	7a230000 	bvc	8c192c <_back_addr-0xc3e6d4>
    1928:	80000001 	andhi	r0, r0, r1
    192c:	79c0939f 	stmibvc	r0, {r0, r1, r2, r3, r4, r7, r8, r9, ip, pc}^
    1930:	6e210000 	cdpvs	0, 2, cr0, cr1, cr0, {0}
    1934:	ac000001 	stcge	0, cr0, [r0], {1}
    1938:	f001500e 			; <UNDEFINED> instruction: 0xf001500e
    193c:	01000003 	tsteq	r0, r3
    1940:	105f0181 	subsne	r0, pc, r1, lsl #3
    1944:	85270000 	strhi	r0, [r7, #-0]!
    1948:	08000001 	stmdaeq	r0, {r0}
    194c:	2700001b 	smladcs	r0, fp, r0, r0
    1950:	0000017a 	andeq	r0, r0, sl, ror r1
    1954:	00001b3f 	andeq	r1, r0, pc, lsr fp
    1958:	0003f024 	andeq	pc, r3, r4, lsr #32
    195c:	01852700 	orreq	r2, r5, r0, lsl #14
    1960:	1b080000 	blne	201968 <_back_addr-0x12fe698>
    1964:	7a270000 	bvc	9c196c <_back_addr-0xb3e694>
    1968:	3f000001 	svccc	0x00000001
    196c:	0000001b 	andeq	r0, r0, fp, lsl r0
    1970:	01522b00 	cmpeq	r2, r0, lsl #22
    1974:	0ec40000 	cdpeq	0, 12, cr0, cr4, cr0, {0}
    1978:	00040150 	andeq	r0, r4, r0, asr r1
    197c:	85010000 	strhi	r0, [r1, #-0]
    1980:	00109001 	andseq	r9, r0, r1
    1984:	01622700 	cmneq	r2, r0, lsl #14
    1988:	1b570000 	blne	15c1990 <__bss_end__+0xadf78>
    198c:	c42c0000 	strtgt	r0, [ip], #-0
    1990:	0401500e 	streq	r5, [r1], #-14
    1994:	27000000 	strcs	r0, [r0, -r0]
    1998:	00000162 	andeq	r0, r0, r2, ror #2
    199c:	00001b57 	andeq	r1, r0, r7, asr fp
    19a0:	6e2b0000 	cdpvs	0, 2, cr0, cr11, cr0, {0}
    19a4:	cc000001 	stcgt	0, cr0, [r0], {1}
    19a8:	0401500e 	streq	r5, [r1], #-14
    19ac:	01000000 	mrseq	r0, (UNDEF: 0)
    19b0:	10d30185 	sbcsne	r0, r3, r5, lsl #3
    19b4:	85270000 	strhi	r0, [r7, #-0]!
    19b8:	6f000001 	svcvs	0x00000001
    19bc:	2700001b 	smladcs	r0, fp, r0, r0
    19c0:	0000017a 	andeq	r0, r0, sl, ror r1
    19c4:	00001b8f 	andeq	r1, r0, pc, lsl #23
    19c8:	500ecc2c 	andpl	ip, lr, ip, lsr #24
    19cc:	00000401 	andeq	r0, r0, r1, lsl #8
    19d0:	01852700 	orreq	r2, r5, r0, lsl #14
    19d4:	1b6f0000 	blne	1bc19dc <__bss_end__+0x6adfc4>
    19d8:	7a270000 	bvc	9c19e0 <_back_addr-0xb3e620>
    19dc:	8f000001 	svchi	0x00000001
    19e0:	0000001b 	andeq	r0, r0, fp, lsl r0
    19e4:	01522100 	cmpeq	r2, r0, lsl #2
    19e8:	0ed00000 	cdpeq	0, 13, cr0, cr0, cr0, {0}
    19ec:	04080150 	streq	r0, [r8], #-336	; 0x150
    19f0:	86010000 	strhi	r0, [r1], -r0
    19f4:	00110001 	andseq	r0, r1, r1
    19f8:	01622700 	cmneq	r2, r0, lsl #14
    19fc:	1ba70000 	blne	fe9c1a04 <__bss_end__+0xfd4adfec>
    1a00:	08240000 	stmdaeq	r4!, {}	; <UNPREDICTABLE>
    1a04:	27000004 	strcs	r0, [r0, -r4]
    1a08:	00000162 	andeq	r0, r0, r2, ror #2
    1a0c:	00001ba7 	andeq	r1, r0, r7, lsr #23
    1a10:	442d0000 	strtmi	r0, [sp], #-0
    1a14:	1001500f 	andne	r5, r1, pc
    1a18:	33000000 	movwcc	r0, #0
    1a1c:	41000011 	tstmi	r0, r1, lsl r0
    1a20:	0000030e 	andeq	r0, r0, lr, lsl #6
    1a24:	33018a01 	movwcc	r8, #6657	; 0x1a01
    1a28:	1f000000 	svcne	0x00000000
    1a2c:	18000011 	stmdane	r0, {r0, r4}
    1a30:	0f501f00 	svceq	0x00501f00
    1a34:	13f20150 	mvnsne	r0, #80, 2
    1a38:	011e0000 	tsteq	lr, r0
    1a3c:	78030550 	stmdavc	r3, {r4, r6, r8, sl}
    1a40:	0001502f 	andeq	r5, r1, pc, lsr #32
    1a44:	0e142e00 	cdpeq	14, 1, cr2, cr4, cr0, {0}
    1a48:	13b20150 			; <UNDEFINED> instruction: 0x13b20150
    1a4c:	481d0000 	ldmdami	sp, {}	; <UNPREDICTABLE>
    1a50:	0401500e 	streq	r5, [r1], #-14
    1a54:	57000014 	smladpl	r0, r4, r0, r0
    1a58:	1e000011 	mcrne	0, 0, r0, cr0, cr1, {0}
    1a5c:	75025101 	strvc	r5, [r2, #-257]	; 0x101
    1a60:	52011e00 	andpl	r1, r1, #0, 28
    1a64:	01000a03 	tsteq	r0, r3, lsl #20
    1a68:	0e581d00 	cdpeq	13, 5, cr1, cr8, cr0, {0}
    1a6c:	13c40150 	bicne	r0, r4, #80, 2
    1a70:	116c0000 	cmnne	ip, r0
    1a74:	011e0000 	tsteq	lr, r0
    1a78:	000a0351 	andeq	r0, sl, r1, asr r3
    1a7c:	681d0001 	ldmdavs	sp, {r0}
    1a80:	1601500e 	strne	r5, [r1], -lr
    1a84:	8c000014 	stchi	0, cr0, [r0], {20}
    1a88:	1e000011 	mcrne	0, 0, r0, cr0, cr1, {0}
    1a8c:	7d025001 	stcvc	0, cr5, [r2, #-4]
    1a90:	51011e00 	tstpl	r1, r0, lsl #28
    1a94:	011e3001 	tsteq	lr, r1
    1a98:	000a0352 	andeq	r0, sl, r2, asr r3
    1a9c:	881d0001 	ldmdahi	sp, {r0}
    1aa0:	0401500e 	streq	r5, [r1], #-14
    1aa4:	a7000014 	smladge	r0, r4, r0, r0
    1aa8:	1e000011 	mcrne	0, 0, r0, cr0, cr1, {0}
    1aac:	7d025101 	stfvcs	f5, [r2, #-4]
    1ab0:	52011e00 	andpl	r1, r1, #0, 28
    1ab4:	01000a03 	tsteq	r0, r3, lsl #20
    1ab8:	0e9c1d00 	cdpeq	13, 9, cr1, cr12, cr0, {0}
    1abc:	14040150 	strne	r0, [r4], #-336	; 0x150
    1ac0:	11c20000 	bicne	r0, r2, r0
    1ac4:	011e0000 	tsteq	lr, r0
    1ac8:	00740251 	rsbseq	r0, r4, r1, asr r2
    1acc:	0352011e 	cmpeq	r2, #-2147483641	; 0x80000007
    1ad0:	0001000a 	andeq	r0, r1, sl
    1ad4:	500eb81d 	andpl	fp, lr, sp, lsl r8
    1ad8:	00140401 	andseq	r0, r4, r1, lsl #8
    1adc:	0011de00 	andseq	sp, r1, r0, lsl #28
    1ae0:	51011e00 	tstpl	r1, r0, lsl #28
    1ae4:	02807403 	addeq	r7, r0, #50331648	; 0x3000000
    1ae8:	0352011e 	cmpeq	r2, #-2147483641	; 0x80000007
    1aec:	0001000a 	andeq	r0, r1, sl
    1af0:	500ef41d 	andpl	pc, lr, sp, lsl r4	; <UNPREDICTABLE>
    1af4:	0013a001 	andseq	sl, r3, r1
    1af8:	0011f100 	andseq	pc, r1, r0, lsl #2
    1afc:	50011e00 	andpl	r1, r1, r0, lsl #28
    1b00:	1d003101 	stfnes	f3, [r0, #-4]
    1b04:	01500f18 	cmpeq	r0, r8, lsl pc
    1b08:	00001404 	andeq	r1, r0, r4, lsl #8
    1b0c:	0000120b 	andeq	r1, r0, fp, lsl #4
    1b10:	0250011e 	subseq	r0, r0, #-2147483641	; 0x80000007
    1b14:	011e0076 	tsteq	lr, r6, ror r0
    1b18:	20080252 	andcs	r0, r8, r2, asr r2
    1b1c:	0f241d00 	svceq	0x00241d00
    1b20:	13c40150 	bicne	r0, r4, #80, 2
    1b24:	12250000 	eorne	r0, r5, #0
    1b28:	011e0000 	tsteq	lr, r0
    1b2c:	00760250 	rsbseq	r0, r6, r0, asr r2
    1b30:	0251011e 	subseq	r0, r1, #-2147483641	; 0x80000007
    1b34:	1d000074 	stcne	0, cr0, [r0, #-464]	; 0xfffffe30
    1b38:	01500f2c 	cmpeq	r0, ip, lsr #30
    1b3c:	00000767 	andeq	r0, r0, r7, ror #14
    1b40:	00001239 	andeq	r1, r0, r9, lsr r2
    1b44:	0250011e 	subseq	r0, r0, #-2147483641	; 0x80000007
    1b48:	1d000076 	stcne	0, cr0, [r0, #-472]	; 0xfffffe28
    1b4c:	01500f38 	cmpeq	r0, r8, lsr pc
    1b50:	000013c4 	andeq	r1, r0, r4, asr #7
    1b54:	00001253 	andeq	r1, r0, r3, asr r2
    1b58:	0250011e 	subseq	r0, r0, #-2147483641	; 0x80000007
    1b5c:	011e0076 	tsteq	lr, r6, ror r0
    1b60:	00740251 	rsbseq	r0, r4, r1, asr r2
    1b64:	0f701f00 	svceq	0x00701f00
    1b68:	14280150 	strtne	r0, [r8], #-336	; 0x150
    1b6c:	011e0000 	tsteq	lr, r0
    1b70:	00750250 	rsbseq	r0, r5, r0, asr r2
    1b74:	0252011e 	subseq	r0, r2, #-2147483641	; 0x80000007
    1b78:	00004008 	andeq	r4, r0, r8
    1b7c:	00005308 	andeq	r5, r0, r8, lsl #6
    1b80:	00127a00 	andseq	r7, r2, r0, lsl #20
    1b84:	00250900 	eoreq	r0, r5, r0, lsl #18
    1b88:	003f0000 	eorseq	r0, pc, r0
    1b8c:	00005a08 	andeq	r5, r0, r8, lsl #20
    1b90:	00128a00 	andseq	r8, r2, r0, lsl #20
    1b94:	00250900 	eoreq	r0, r5, r0, lsl #18
    1b98:	00120000 	andseq	r0, r2, r0
    1b9c:	00127a07 	andseq	r7, r2, r7, lsl #20
    1ba0:	04ec3c00 	strbteq	r3, [ip], #3072	; 0xc00
    1ba4:	96010000 	strls	r0, [r1], -r0
    1ba8:	00003301 	andeq	r3, r0, r1, lsl #6
    1bac:	500f7400 	andpl	r7, pc, r0, lsl #8
    1bb0:	00010801 	andeq	r0, r1, r1, lsl #16
    1bb4:	0b9c0100 	bleq	fe701fbc <__bss_end__+0xfd1ee5a4>
    1bb8:	3d000013 	stccc	0, cr0, [r0, #-76]	; 0xffffffb4
    1bbc:	000005a6 	andeq	r0, r0, r6, lsr #11
    1bc0:	d3019601 	movwle	r9, #5633	; 0x1601
    1bc4:	bf00000a 	svclt	0x0000000a
    1bc8:	3d00001b 	stccc	0, cr0, [r0, #-108]	; 0xffffff94
    1bcc:	000005f6 	strdeq	r0, [r0], -r6
    1bd0:	53019601 	movwpl	r9, #5633	; 0x1601
    1bd4:	1b000000 	blne	1bdc <_back_addr-0x14fe424>
    1bd8:	3d00001c 	stccc	0, cr0, [r0, #-112]	; 0xffffff90
    1bdc:	0000051d 	andeq	r0, r0, sp, lsl r5
    1be0:	d3019601 	movwle	r9, #5633	; 0x1601
    1be4:	5e00000a 	cdppl	0, 0, cr0, cr0, cr10, {0}
    1be8:	3e00001c 	mcrcc	0, 0, r0, cr0, cr12, {0}
    1bec:	01007669 	tsteq	r0, r9, ror #12
    1bf0:	0ad90196 	beq	ff642250 <__bss_end__+0xfe12e838>
    1bf4:	1ca10000 	stcne	0, cr0, [r1]
    1bf8:	a03f0000 	eorsge	r0, pc, r0
    1bfc:	01000006 	tsteq	r0, r6
    1c00:	01d50198 			; <UNDEFINED> instruction: 0x01d50198
    1c04:	1cd80000 	ldclne	0, cr0, [r8], {0}
    1c08:	a02e0000 	eorge	r0, lr, r0
    1c0c:	0201500f 	andeq	r5, r1, #15
    1c10:	39000002 	stmdbcc	r0, {r1}
    1c14:	01501010 	cmpeq	r0, r0, lsl r0
    1c18:	00000191 	muleq	r0, r1, r1
    1c1c:	04be4200 	ldrteq	r4, [lr], #512	; 0x200
    1c20:	ee010000 	cdp	0, 0, cr0, cr1, cr0, {0}
    1c24:	50107c02 	andspl	r7, r0, r2, lsl #24
    1c28:	00002801 	andeq	r2, r0, r1, lsl #16
    1c2c:	4e9c0100 	fmlmie	f0, f4, f0
    1c30:	3d000013 	stccc	0, cr0, [r0, #-76]	; 0xffffffb4
    1c34:	00000570 	andeq	r0, r0, r0, ror r5
    1c38:	d302ee01 	movwle	lr, #11777	; 0x2e01
    1c3c:	1700000a 	strne	r0, [r0, -sl]
    1c40:	1c00001d 	stcne	0, cr0, [r0], {29}
    1c44:	000004d0 	ldrdeq	r0, [r0], -r0	; <UNPREDICTABLE>
    1c48:	6f02f001 	svcvs	0x0002f001
    1c4c:	01000000 	mrseq	r0, (UNDEF: 0)
    1c50:	00692051 	rsbeq	r2, r9, r1, asr r0
    1c54:	5302f101 	movwpl	pc, #8449	; 0x2101	; <UNPREDICTABLE>
    1c58:	38000000 	stmdacc	r0, {}	; <UNPREDICTABLE>
    1c5c:	0000001d 	andeq	r0, r0, sp, lsl r0
    1c60:	0004d543 	andeq	sp, r4, r3, asr #10
    1c64:	01f60600 	mvnseq	r0, r0, lsl #12
    1c68:	000000ac 	andeq	r0, r0, ip, lsr #1
    1c6c:	00025f44 	andeq	r5, r2, r4, asr #30
    1c70:	53280100 	teqpl	r8, #0, 2
    1c74:	05000000 	streq	r0, [r0, #-0]
    1c78:	513a1003 	teqpl	sl, r3
    1c7c:	057b4401 	ldrbeq	r4, [fp, #-1025]!	; 0x401
    1c80:	29010000 	stmdbcs	r1, {}	; <UNPREDICTABLE>
    1c84:	0000137c 	andeq	r1, r0, ip, ror r3
    1c88:	2f500305 	svccs	0x00500305
    1c8c:	37070150 	smlsdcc	r7, r0, r1, r0
    1c90:	45000001 	strmi	r0, [r0, #-1]
    1c94:	000006a6 	andeq	r0, r0, r6, lsr #13
    1c98:	008f4707 	addeq	r4, pc, r7, lsl #14
    1c9c:	13a00000 	movne	r0, #0
    1ca0:	8f460000 	svchi	0x00460000
    1ca4:	46000000 	strmi	r0, [r0], -r0
    1ca8:	00000033 	andeq	r0, r0, r3, lsr r0
    1cac:	00004846 	andeq	r4, r0, r6, asr #16
    1cb0:	5c470000 	marpl	acc0, r0, r7
    1cb4:	08000006 	stmdaeq	r0, {r1, r2}
    1cb8:	13b2030d 			; <UNDEFINED> instruction: 0x13b2030d
    1cbc:	2c460000 	marcs	acc0, r0, r6
    1cc0:	00000000 	andeq	r0, r0, r0
    1cc4:	0003c641 	andeq	ip, r3, r1, asr #12
    1cc8:	015a0100 	cmpeq	sl, r0, lsl #2
    1ccc:	00000033 	andeq	r0, r0, r3, lsr r0
    1cd0:	000013c4 	andeq	r1, r0, r4, asr #7
    1cd4:	4b470018 	blmi	11c1d3c <_back_addr-0x33e2c4>
    1cd8:	08000006 	stmdaeq	r0, {r1, r2}
    1cdc:	13db02f0 	bicsne	r0, fp, #240, 4
    1ce0:	2c460000 	marcs	acc0, r0, r6
    1ce4:	46000000 	strmi	r0, [r0], -r0
    1ce8:	0000002c 	andeq	r0, r0, ip, lsr #32
    1cec:	02dc4800 	sbcseq	r4, ip, #0, 16
    1cf0:	4d080000 	stcmi	0, cr0, [r8, #-0]
    1cf4:	00003303 	andeq	r3, r0, r3, lsl #6
    1cf8:	0013f200 	andseq	pc, r3, r0, lsl #4
    1cfc:	00914600 	addseq	r4, r1, r0, lsl #12
    1d00:	00180000 	andseq	r0, r8, r0
    1d04:	00030e41 	andeq	r0, r3, r1, asr #28
    1d08:	018a0100 	orreq	r0, sl, r0, lsl #2
    1d0c:	00000033 	andeq	r0, r0, r3, lsr r0
    1d10:	00001404 	andeq	r1, r0, r4, lsl #8
    1d14:	94410018 	strbls	r0, [r1], #-24
    1d18:	01000006 	tsteq	r0, r6
    1d1c:	0033016e 	eorseq	r0, r3, lr, ror #2
    1d20:	14160000 	ldrne	r0, [r6], #-0
    1d24:	00180000 	andseq	r0, r8, r0
    1d28:	0005ce41 	andeq	ip, r5, r1, asr #28
    1d2c:	01750100 	cmneq	r5, r0, lsl #2
    1d30:	00000033 	andeq	r0, r0, r3, lsr r0
    1d34:	00001428 	andeq	r1, r0, r8, lsr #8
    1d38:	26170018 			; <UNDEFINED> instruction: 0x26170018
    1d3c:	01000005 	tsteq	r0, r5
    1d40:	0033016c 	eorseq	r0, r3, ip, ror #2
    1d44:	00180000 	andseq	r0, r8, r0
    1d48:	0017ae00 	andseq	sl, r7, r0, lsl #28
    1d4c:	e1000400 	tst	r0, r0, lsl #8
    1d50:	04000007 	streq	r0, [r0], #-7
    1d54:	0000af01 	andeq	sl, r0, r1, lsl #30
    1d58:	07620100 	strbeq	r0, [r2, -r0, lsl #2]!
    1d5c:	04550000 	ldrbeq	r0, [r5], #-0
    1d60:	10a40000 	adcne	r0, r4, r0
    1d64:	0bfc0150 	bleq	fff022ac <__bss_end__+0xfe9ee894>
    1d68:	07d70000 	ldrbeq	r0, [r7, r0]
    1d6c:	04020000 	streq	r0, [r2], #-0
    1d70:	00003b07 	andeq	r3, r0, r7, lsl #22
    1d74:	07040200 	streq	r0, [r4, -r0, lsl #4]
    1d78:	0000020b 	andeq	r0, r0, fp, lsl #4
    1d7c:	10080102 	andne	r0, r8, r2, lsl #2
    1d80:	02000000 	andeq	r0, r0, #0
    1d84:	00120601 	andseq	r0, r2, r1, lsl #12
    1d88:	02020000 	andeq	r0, r2, #0
    1d8c:	00001e07 	andeq	r1, r0, r7, lsl #28
    1d90:	05020200 	streq	r0, [r2, #-512]	; 0x200
    1d94:	000000a5 	andeq	r0, r0, r5, lsr #1
    1d98:	69050403 	stmdbvs	r5, {r0, r1, sl}
    1d9c:	0200746e 	andeq	r7, r0, #1845493760	; 0x6e000000
    1da0:	00310708 	eorseq	r0, r1, r8, lsl #14
    1da4:	08020000 	stmdaeq	r2, {}	; <UNPREDICTABLE>
    1da8:	00004805 	andeq	r4, r0, r5, lsl #16
    1dac:	07040200 	streq	r0, [r4, -r0, lsl #4]
    1db0:	00000036 	andeq	r0, r0, r6, lsr r0
    1db4:	0006cf04 	andeq	ip, r6, r4, lsl #30
    1db8:	64e50200 	strbtvs	r0, [r5], #512	; 0x200
    1dbc:	05000000 	streq	r0, [r0, #-0]
    1dc0:	00007c04 	andeq	r7, r0, r4, lsl #24
    1dc4:	00810600 	addeq	r0, r1, r0, lsl #12
    1dc8:	01020000 	mrseq	r0, (UNDEF: 2)
    1dcc:	00001908 	andeq	r1, r0, r8, lsl #18
    1dd0:	03040700 	movweq	r0, #18176	; 0x4700
    1dd4:	0000af8f 	andeq	sl, r0, pc, lsl #31
    1dd8:	02220800 	eoreq	r0, r2, #0, 16
    1ddc:	08000000 	stmdaeq	r0, {}	; <UNPREDICTABLE>
    1de0:	000003a0 	andeq	r0, r0, r0, lsr #7
    1de4:	03d40801 	bicseq	r0, r4, #65536	; 0x10000
    1de8:	08020000 	stmdaeq	r2, {}	; <UNPREDICTABLE>
    1dec:	00000234 	andeq	r0, r0, r4, lsr r2
    1df0:	02b70803 	adcseq	r0, r7, #196608	; 0x30000
    1df4:	00040000 	andeq	r0, r4, r0
    1df8:	00037504 	andeq	r7, r3, r4, lsl #10
    1dfc:	88950300 	ldmhi	r5, {r8, r9}
    1e00:	09000000 	stmdbeq	r0, {}	; <UNPREDICTABLE>
    1e04:	01003152 	tsteq	r0, r2, asr r1
    1e08:	032501f1 	teqeq	r5, #1073741884	; 0x4000003c
    1e0c:	10a40000 	adcne	r0, r4, r0
    1e10:	01bc0150 			; <UNDEFINED> instruction: 0x01bc0150
    1e14:	9c010000 	stcls	0, cr0, [r1], {-0}
    1e18:	00000325 	andeq	r0, r0, r5, lsr #6
    1e1c:	0005180a 	andeq	r1, r5, sl, lsl #16
    1e20:	01f10100 	mvnseq	r0, r0, lsl #2
    1e24:	00000033 	andeq	r0, r0, r3, lsr r0
    1e28:	00001d85 	andeq	r1, r0, r5, lsl #27
    1e2c:	0004e60a 	andeq	lr, r4, sl, lsl #12
    1e30:	01f10100 	mvnseq	r0, r0, lsl #2
    1e34:	00000325 	andeq	r0, r0, r5, lsr #6
    1e38:	00001da6 	andeq	r1, r0, r6, lsr #27
    1e3c:	6e656c0b 	cdpvs	12, 6, cr6, cr5, cr11, {0}
    1e40:	01f10100 	mvnseq	r0, r0, lsl #2
    1e44:	00000025 	andeq	r0, r0, r5, lsr #32
    1e48:	00001dc4 	andeq	r1, r0, r4, asr #27
    1e4c:	7465720c 	strbtvc	r7, [r5], #-524	; 0x20c
    1e50:	01f30100 	mvnseq	r0, r0, lsl #2
    1e54:	0000004f 	andeq	r0, r0, pc, asr #32
    1e58:	00001de2 	andeq	r1, r0, r2, ror #27
    1e5c:	0100690d 	tsteq	r0, sp, lsl #18
    1e60:	002501f4 	strdeq	r0, [r5], -r4	; <UNPREDICTABLE>
    1e64:	0e000000 	cdpeq	0, 0, cr0, cr0, cr0, {0}
    1e68:	01006b6b 	tsteq	r0, fp, ror #22
    1e6c:	032b01f6 	teqeq	fp, #-2147483587	; 0x8000003d
    1e70:	01950000 	orrseq	r0, r5, r0
    1e74:	9f320193 	svcls	0x00320193
    1e78:	9f310193 	svcls	0x00310193
    1e7c:	21080193 			; <UNDEFINED> instruction: 0x21080193
    1e80:	0801939f 	stmdaeq	r1, {r0, r1, r2, r3, r4, r7, r8, r9, ip, pc}
    1e84:	01939f4a 	orrseq	r9, r3, sl, asr #30
    1e88:	939f2c08 	orrsls	r2, pc, #8, 24	; 0x800
    1e8c:	9f850901 	svcls	0x00850901
    1e90:	82090193 	andhi	r0, r9, #-1073741788	; 0xc0000024
    1e94:	0801939f 	stmdaeq	r1, {r0, r1, r2, r3, r4, r7, r8, r9, ip, pc}
    1e98:	01939f7a 	orrseq	r9, r3, sl, ror pc
    1e9c:	939f2108 	orrsls	r2, pc, #8, 2
    1ea0:	9f340801 	svcls	0x00340801
    1ea4:	3d080193 	stfccs	f0, [r8, #-588]	; 0xfffffdb4
    1ea8:	4401939f 	strmi	r9, [r1], #-927	; 0x39f
    1eac:	9301939f 	movwls	r9, #5023	; 0x139f
    1eb0:	939f4401 	orrsls	r4, pc, #16777216	; 0x1000000
    1eb4:	9f990901 	svcls	0x00990901
    1eb8:	20080193 	mulcs	r8, r3, r1
    1ebc:	0901939f 	stmdbeq	r1, {r0, r1, r2, r3, r4, r7, r8, r9, ip, pc}
    1ec0:	01939fa2 	orrseq	r9, r3, r2, lsr #31
    1ec4:	01939f32 	orrseq	r9, r3, r2, lsr pc
    1ec8:	939f2208 	orrsls	r2, pc, #8, 4	; 0x80000000
    1ecc:	9fb50901 	svcls	0x00b50901
    1ed0:	9f4b0193 	svcls	0x004b0193
    1ed4:	21080193 			; <UNDEFINED> instruction: 0x21080193
    1ed8:	4a01939f 	bmi	66d5c <_back_addr-0x14992a4>
    1edc:	0801939f 	stmdaeq	r1, {r0, r1, r2, r3, r4, r7, r8, r9, ip, pc}
    1ee0:	01939f71 	orrseq	r9, r3, r1, ror pc
    1ee4:	939f2208 	orrsls	r2, pc, #8, 4	; 0x80000000
    1ee8:	9fa00901 	svcls	0x00a00901
    1eec:	2d080193 	stfcss	f0, [r8, #-588]	; 0xfffffdb4
    1ef0:	0801939f 	stmdaeq	r1, {r0, r1, r2, r3, r4, r7, r8, r9, ip, pc}
    1ef4:	01939f31 	orrseq	r9, r3, r1, lsr pc
    1ef8:	01939f3a 	orrseq	r9, r3, sl, lsr pc
    1efc:	939f3408 	orrsls	r3, pc, #8, 8	; 0x8000000
    1f00:	9f290801 	svcls	0x00290801
    1f04:	e0930193 	umulls	r0, r3, r3, r1
    1f08:	31720e03 	cmncc	r2, r3, lsl #28
    1f0c:	08010036 	stmdaeq	r1, {r1, r2, r4, r5}
    1f10:	00033c02 	andeq	r3, r3, r2, lsl #24
    1f14:	58910200 	ldmpl	r1, {r9}
    1f18:	00064b0f 	andeq	r4, r6, pc, lsl #22
    1f1c:	4f750100 	svcmi	0x00750100
    1f20:	e0000000 	and	r0, r0, r0
    1f24:	10000001 	andne	r0, r0, r1
    1f28:	11641100 	cmnne	r4, r0, lsl #2
    1f2c:	006c0150 	rsbeq	r0, ip, r0, asr r1
    1f30:	02550000 	subseq	r0, r5, #0
    1f34:	4b0f0000 	blmi	3c1f3c <_back_addr-0x113e0c4>
    1f38:	01000006 	tsteq	r0, r6
    1f3c:	00004f75 	andeq	r4, r0, r5, ror pc
    1f40:	0001fe00 	andeq	pc, r1, r0, lsl #28
    1f44:	12001000 	andne	r1, r0, #0
    1f48:	01501178 	cmpeq	r0, r8, ror r1
    1f4c:	0000167e 	andeq	r1, r0, lr, ror r6
    1f50:	00000224 	andeq	r0, r0, r4, lsr #4
    1f54:	02500113 	subseq	r0, r0, #-1073741820	; 0xc0000004
    1f58:	01130076 	tsteq	r3, r6, ror r0
    1f5c:	00750251 	rsbseq	r0, r5, r1, asr r2
    1f60:	02520113 	subseq	r0, r2, #-1073741820	; 0xc0000004
    1f64:	01130074 	tsteq	r3, r4, ror r0
    1f68:	007d0253 	rsbseq	r0, sp, r3, asr r2
    1f6c:	11841200 	orrne	r1, r4, r0, lsl #4
    1f70:	16a80150 	ssatne	r0, #9, r0, asr #2
    1f74:	023e0000 	eorseq	r0, lr, #0
    1f78:	01130000 	tsteq	r3, r0
    1f7c:	00740250 	rsbseq	r0, r4, r0, asr r2
    1f80:	02510113 	subseq	r0, r1, #-1073741820	; 0xc0000004
    1f84:	14000075 	strne	r0, [r0], #-117	; 0x75
    1f88:	015011d0 	ldrsbeq	r1, [r0, #-16]
    1f8c:	000016a8 	andeq	r1, r0, r8, lsr #13
    1f90:	02500113 	subseq	r0, r0, #-1073741820	; 0xc0000004
    1f94:	01130074 	tsteq	r3, r4, ror r0
    1f98:	00750251 	rsbseq	r0, r5, r1, asr r2
    1f9c:	fc110000 	ldc2	0, cr0, [r1], {-0}
    1fa0:	60015011 	andvs	r5, r1, r1, lsl r0
    1fa4:	b0000000 	andlt	r0, r0, r0
    1fa8:	0f000002 	svceq	0x00000002
    1fac:	0000064b 	andeq	r0, r0, fp, asr #12
    1fb0:	004f7501 	subeq	r7, pc, r1, lsl #10
    1fb4:	02730000 	rsbseq	r0, r3, #0
    1fb8:	00100000 	andseq	r0, r0, r0
    1fbc:	50125012 	andspl	r5, r2, r2, lsl r0
    1fc0:	0016b901 	andseq	fp, r6, r1, lsl #18
    1fc4:	00029900 	andeq	r9, r2, r0, lsl #18
    1fc8:	50011300 	andpl	r1, r1, r0, lsl #6
    1fcc:	13007602 	movwne	r7, #1538	; 0x602
    1fd0:	75025101 	strvc	r5, [r2, #-257]	; 0x101
    1fd4:	52011300 	andpl	r1, r1, #0, 6
    1fd8:	13007402 	movwne	r7, #1026	; 0x402
    1fdc:	7d025301 	stcvc	3, cr5, [r2, #-4]
    1fe0:	5c140000 	ldcpl	0, cr0, [r4], {-0}
    1fe4:	a8015012 	stmdage	r1, {r1, r4, ip, lr}
    1fe8:	13000016 	movwne	r0, #22
    1fec:	74025001 	strvc	r5, [r2], #-1
    1ff0:	51011300 	mrspl	r1, SP_irq
    1ff4:	00007502 	andeq	r7, r0, r2, lsl #10
    1ff8:	10cc1200 	sbcne	r1, ip, r0, lsl #4
    1ffc:	16dd0150 			; <UNDEFINED> instruction: 0x16dd0150
    2000:	02cf0000 	sbceq	r0, pc, #0
    2004:	01130000 	tsteq	r3, r0
    2008:	007d0250 	rsbseq	r0, sp, r0, asr r2
    200c:	01510113 	cmpeq	r1, r3, lsl r1
    2010:	52011330 	andpl	r1, r1, #48, 6	; 0xc0000000
    2014:	00007502 	andeq	r7, r0, r2, lsl #10
    2018:	50115c12 	andspl	r5, r1, r2, lsl ip
    201c:	0016dd01 	andseq	sp, r6, r1, lsl #26
    2020:	0002ef00 	andeq	lr, r2, r0, lsl #30
    2024:	50011300 	andpl	r1, r1, r0, lsl #6
    2028:	13007402 	movwne	r7, #1026	; 0x402
    202c:	30015101 	andcc	r5, r1, r1, lsl #2
    2030:	03520113 	cmpeq	r2, #-1073741820	; 0xc0000004
    2034:	0004000a 	andeq	r0, r4, sl
    2038:	5011e012 	andspl	lr, r1, r2, lsl r0
    203c:	0016dd01 	andseq	sp, r6, r1, lsl #26
    2040:	00030e00 	andeq	r0, r3, r0, lsl #28
    2044:	50011300 	andpl	r1, r1, r0, lsl #6
    2048:	13007d02 	movwne	r7, #3330	; 0xd02
    204c:	30015101 	andcc	r5, r1, r1, lsl #2
    2050:	02520113 	subseq	r0, r2, #-1073741820	; 0xc0000004
    2054:	14000075 	strne	r0, [r0], #-117	; 0x75
    2058:	015011ec 	cmpeq	r0, ip, ror #3
    205c:	000016a8 	andeq	r1, r0, r8, lsr #13
    2060:	02500113 	subseq	r0, r0, #-1073741820	; 0xc0000004
    2064:	0113007d 	tsteq	r3, sp, ror r0
    2068:	00750251 	rsbseq	r0, r5, r1, asr r2
    206c:	04050000 	streq	r0, [r5], #-0
    2070:	00000033 	andeq	r0, r0, r3, lsr r0
    2074:	00003315 	andeq	r3, r0, r5, lsl r3
    2078:	00033c00 	andeq	r3, r3, r0, lsl #24
    207c:	002c1600 	eoreq	r1, ip, r0, lsl #12
    2080:	01ff0000 	mvnseq	r0, r0
    2084:	00331500 	eorseq	r1, r3, r0, lsl #10
    2088:	034c0000 	movteq	r0, #49152	; 0xc000
    208c:	2c170000 	ldccs	0, cr0, [r7], {-0}
    2090:	0f000000 	svceq	0x00000000
    2094:	30520900 	subscc	r0, r2, r0, lsl #18
    2098:	02420100 	subeq	r0, r2, #0, 2
    209c:	00000025 	andeq	r0, r0, r5, lsr #32
    20a0:	01501260 	cmpeq	r0, r0, ror #4
    20a4:	000000f0 	strdeq	r0, [r0], -r0	; <UNPREDICTABLE>
    20a8:	04949c01 	ldreq	r9, [r4], #3073	; 0xc01
    20ac:	1a0a0000 	bne	2820b4 <_back_addr-0x127df4c>
    20b0:	01000007 	tsteq	r0, r7
    20b4:	03250242 	teqeq	r5, #536870916	; 0x20000004
    20b8:	1e020000 	cdpne	0, 0, cr0, cr2, cr0, {0}
    20bc:	0f0a0000 	svceq	0x000a0000
    20c0:	01000010 	tsteq	r0, r0, lsl r0
    20c4:	00250242 	eoreq	r0, r5, r2, asr #4
    20c8:	1e200000 	cdpne	0, 2, cr0, cr0, cr0, {0}
    20cc:	6c0b0000 	stcvs	0, cr0, [fp], {-0}
    20d0:	01006e65 	tsteq	r0, r5, ror #28
    20d4:	00250242 	eoreq	r0, r5, r2, asr #4
    20d8:	1e3e0000 	cdpne	0, 3, cr0, cr14, cr0, {0}
    20dc:	690c0000 	stmdbvs	ip, {}	; <UNPREDICTABLE>
    20e0:	02440100 	subeq	r0, r4, #0, 2
    20e4:	00000025 	andeq	r0, r0, r5, lsr #32
    20e8:	00001e5c 	andeq	r1, r0, ip, asr lr
    20ec:	00073518 	andeq	r3, r7, r8, lsl r5
    20f0:	02450100 	subeq	r0, r5, #0, 2
    20f4:	01501280 	cmpeq	r0, r0, lsl #5
    20f8:	00071f19 	andeq	r1, r7, r9, lsl pc
    20fc:	02480100 	subeq	r0, r8, #0, 2
    2100:	0000004f 	andeq	r0, r0, pc, asr #32
    2104:	000003c1 	andeq	r0, r0, r1, asr #7
    2108:	0d0f0010 	stceq	0, cr0, [pc, #-64]	; 20d0 <_back_addr-0x14fdf30>
    210c:	01000007 	tsteq	r0, r7
    2110:	00004fd7 	ldrdeq	r4, [r0], -r7
    2114:	0003d200 	andeq	sp, r3, r0, lsl #4
    2118:	0f001000 	svceq	0x00001000
    211c:	0000064b 	andeq	r0, r0, fp, asr #12
    2120:	004f7501 	subeq	r7, pc, r1, lsl #10
    2124:	03e30000 	mvneq	r0, #0
    2128:	00100000 	andseq	r0, r0, r0
    212c:	00030e19 	andeq	r0, r3, r9, lsl lr
    2130:	027a0100 	rsbseq	r0, sl, #0, 2
    2134:	0000004f 	andeq	r0, r0, pc, asr #32
    2138:	000003f5 	strdeq	r0, [r0], -r5
    213c:	841a0010 	ldrhi	r0, [sl], #-16
    2140:	fe015012 	mcr2	0, 0, r5, cr1, cr2, {0}
    2144:	12000016 	andne	r0, r0, #22
    2148:	01501294 			; <UNDEFINED> instruction: 0x01501294
    214c:	00001705 	andeq	r1, r0, r5, lsl #14
    2150:	0000041e 	andeq	r0, r0, lr, lsl r4
    2154:	02500113 	subseq	r0, r0, #-1073741820	; 0xc0000004
    2158:	01130077 	tsteq	r3, r7, ror r0
    215c:	00750251 	rsbseq	r0, r5, r1, asr r2
    2160:	02520113 	subseq	r0, r2, #-1073741820	; 0xc0000004
    2164:	1a000076 	bne	2344 <_back_addr-0x14fdcbc>
    2168:	01501298 			; <UNDEFINED> instruction: 0x01501298
    216c:	000016fe 	strdeq	r1, [r0], -lr
    2170:	5012ac12 	andspl	sl, r2, r2, lsl ip
    2174:	0016dd01 	andseq	sp, r6, r1, lsl #26
    2178:	00044000 	andeq	r4, r4, r0
    217c:	51011300 	mrspl	r1, SP_irq
    2180:	01133001 	tsteq	r3, r1
    2184:	00750252 	rsbseq	r0, r5, r2, asr r2
    2188:	12c01200 	sbcne	r1, r0, #0, 4
    218c:	17170150 			; <UNDEFINED> instruction: 0x17170150
    2190:	045a0000 	ldrbeq	r0, [sl], #-0
    2194:	01130000 	tsteq	r3, r0
    2198:	00770250 	rsbseq	r0, r7, r0, asr r2
    219c:	02520113 	subseq	r0, r2, #-1073741820	; 0xc0000004
    21a0:	12000075 	andne	r0, r0, #117	; 0x75
    21a4:	015012d0 	ldrsbeq	r1, [r0, #-32]	; 0xffffffe0
    21a8:	000016a8 	andeq	r1, r0, r8, lsr #13
    21ac:	0000046e 	andeq	r0, r0, lr, ror #8
    21b0:	02510113 	subseq	r0, r1, #-1073741820	; 0xc0000004
    21b4:	1a000075 	bne	2390 <_back_addr-0x14fdc70>
    21b8:	015012d4 	ldrsbeq	r1, [r0, #-36]	; 0xffffffdc
    21bc:	000016fe 	strdeq	r1, [r0], -lr
    21c0:	5012d81a 	andspl	sp, r2, sl, lsl r8
    21c4:	0016fe01 	andseq	pc, r6, r1, lsl #28
    21c8:	13241400 	teqne	r4, #0, 8
    21cc:	17280150 			; <UNDEFINED> instruction: 0x17280150
    21d0:	01130000 	tsteq	r3, r0
    21d4:	9c030550 	cfstr32ls	mvfx0, [r3], {80}	; 0x50
    21d8:	0001502f 	andeq	r5, r1, pc, lsr #32
    21dc:	02141b00 	andseq	r1, r4, #0, 22
    21e0:	18010000 	stmdane	r1, {}	; <UNPREDICTABLE>
    21e4:	0000004f 	andeq	r0, r0, pc, asr #32
    21e8:	01501350 	cmpeq	r0, r0, asr r3
    21ec:	00000684 	andeq	r0, r0, r4, lsl #13
    21f0:	0ffb9c01 	svceq	0x00fb9c01
    21f4:	f81c0000 			; <UNDEFINED> instruction: 0xf81c0000
    21f8:	0100000c 	tsteq	r0, ip
    21fc:	0000af18 	andeq	sl, r0, r8, lsl pc
    2200:	001e7c00 	andseq	r7, lr, r0, lsl #24
    2204:	078e1c00 	streq	r1, [lr, r0, lsl #24]
    2208:	18010000 	stmdane	r1, {}	; <UNPREDICTABLE>
    220c:	00000325 	andeq	r0, r0, r5, lsr #6
    2210:	00001eda 	ldrdeq	r1, [r0], -sl
    2214:	0007411c 	andeq	r4, r7, ip, lsl r1
    2218:	25180100 	ldrcs	r0, [r8, #-256]	; 0x100
    221c:	f8000003 			; <UNDEFINED> instruction: 0xf8000003
    2220:	1c00001e 	stcne	0, cr0, [r0], {30}
    2224:	0000074c 	andeq	r0, r0, ip, asr #14
    2228:	03251801 	teqeq	r5, #65536	; 0x10000
    222c:	1f160000 	svcne	0x00160000
    2230:	571d0000 	ldrpl	r0, [sp, -r0]
    2234:	01000007 	tsteq	r0, r7
    2238:	00032518 	andeq	r2, r3, r8, lsl r5
    223c:	00910200 	addseq	r0, r1, r0, lsl #4
    2240:	6e656c1e 	mcrvs	12, 3, r6, cr5, cr14, {0}
    2244:	25180100 	ldrcs	r0, [r8, #-256]	; 0x100
    2248:	34000000 	strcc	r0, [r0], #-0
    224c:	1f00001f 	svcne	0x0000001f
    2250:	00746572 	rsbseq	r6, r4, r2, ror r5
    2254:	004f1a01 	subeq	r1, pc, r1, lsl #20
    2258:	1f870000 	svcne	0x00870000
    225c:	6b200000 	blvs	802264 <_back_addr-0xcfdd9c>
    2260:	1b01006b 	blne	42414 <_back_addr-0x14bdbec>
    2264:	0000032b 	andeq	r0, r0, fp, lsr #6
    2268:	01930195 			; <UNDEFINED> instruction: 0x01930195
    226c:	01939f32 	orrseq	r9, r3, r2, lsr pc
    2270:	01939f31 	orrseq	r9, r3, r1, lsr pc
    2274:	939f2108 	orrsls	r2, pc, #8, 2
    2278:	9f4a0801 	svcls	0x004a0801
    227c:	2c080193 	stfcss	f0, [r8], {147}	; 0x93
    2280:	0901939f 	stmdbeq	r1, {r0, r1, r2, r3, r4, r7, r8, r9, ip, pc}
    2284:	01939f85 	orrseq	r9, r3, r5, lsl #31
    2288:	939f8209 	orrsls	r8, pc, #-1879048192	; 0x90000000
    228c:	9f7a0801 	svcls	0x007a0801
    2290:	21080193 			; <UNDEFINED> instruction: 0x21080193
    2294:	0801939f 	stmdaeq	r1, {r0, r1, r2, r3, r4, r7, r8, r9, ip, pc}
    2298:	01939f34 	orrseq	r9, r3, r4, lsr pc
    229c:	939f3d08 	orrsls	r3, pc, #8, 26	; 0x200
    22a0:	939f4401 	orrsls	r4, pc, #16777216	; 0x1000000
    22a4:	44019301 	strmi	r9, [r1], #-769	; 0x301
    22a8:	0901939f 	stmdbeq	r1, {r0, r1, r2, r3, r4, r7, r8, r9, ip, pc}
    22ac:	01939f99 			; <UNDEFINED> instruction: 0x01939f99
    22b0:	939f2008 	orrsls	r2, pc, #8
    22b4:	9fa20901 	svcls	0x00a20901
    22b8:	9f320193 	svcls	0x00320193
    22bc:	22080193 	andcs	r0, r8, #-1073741788	; 0xc0000024
    22c0:	0901939f 	stmdbeq	r1, {r0, r1, r2, r3, r4, r7, r8, r9, ip, pc}
    22c4:	01939fb5 			; <UNDEFINED> instruction: 0x01939fb5
    22c8:	01939f4b 	orrseq	r9, r3, fp, asr #30
    22cc:	939f2108 	orrsls	r2, pc, #8, 2
    22d0:	939f4a01 	orrsls	r4, pc, #4096	; 0x1000
    22d4:	9f710801 	svcls	0x00710801
    22d8:	22080193 	andcs	r0, r8, #-1073741788	; 0xc0000024
    22dc:	0901939f 	stmdbeq	r1, {r0, r1, r2, r3, r4, r7, r8, r9, ip, pc}
    22e0:	01939fa0 	orrseq	r9, r3, r0, lsr #31
    22e4:	939f2d08 	orrsls	r2, pc, #8, 26	; 0x200
    22e8:	9f310801 	svcls	0x00310801
    22ec:	9f3a0193 	svcls	0x003a0193
    22f0:	34080193 	strcc	r0, [r8], #-403	; 0x193
    22f4:	0801939f 	stmdaeq	r1, {r0, r1, r2, r3, r4, r7, r8, r9, ip, pc}
    22f8:	01939f29 	orrseq	r9, r3, r9, lsr #30
    22fc:	2003e093 	mulcs	r3, r3, r0
    2300:	00303172 	eorseq	r3, r0, r2, ror r1
    2304:	033c2d01 	teqeq	ip, #1, 26	; 0x40
    2308:	91030000 	mrsls	r0, (UNDEF: 3)
    230c:	72207af8 	eorvc	r7, r0, #248, 20	; 0xf8000
    2310:	01003131 	tsteq	r0, r1, lsr r1
    2314:	00032b33 	andeq	r2, r3, r3, lsr fp
    2318:	d8910300 	ldmle	r1, {r8, r9}
    231c:	3172207b 	cmncc	r2, fp, ror r0
    2320:	34010032 	strcc	r0, [r1], #-50	; 0x32
    2324:	0000033c 	andeq	r0, r0, ip, lsr r3
    2328:	7b889103 	blvc	fe22673c <__bss_end__+0xfcd12d24>
    232c:	33317220 	teqcc	r1, #32, 4
    2330:	3c350100 	ldfccs	f0, [r5], #-0
    2334:	03000003 	movweq	r0, #3
    2338:	207b9891 			; <UNDEFINED> instruction: 0x207b9891
    233c:	00343172 	eorseq	r3, r4, r2, ror r1
    2340:	033c3601 	teqeq	ip, #1048576	; 0x100000
    2344:	91030000 	mrsls	r0, (UNDEF: 3)
    2348:	72207ba8 	eorvc	r7, r0, #168, 22	; 0x2a000
    234c:	01003531 	tsteq	r0, r1, lsr r5
    2350:	00033c37 	andeq	r3, r3, r7, lsr ip
    2354:	b8910300 	ldmlt	r1, {r8, r9}
    2358:	3172207b 	cmncc	r2, fp, ror r0
    235c:	38010036 	stmdacc	r1, {r1, r2, r4, r5}
    2360:	0000033c 	andeq	r0, r0, ip, lsr r3
    2364:	7bc89103 	blvc	ff226778 <__bss_end__+0xfdd12d60>
    2368:	01006921 	tsteq	r0, r1, lsr #18
    236c:	00002539 	andeq	r2, r0, r9, lsr r5
    2370:	2d220000 	stccs	0, cr0, [r2, #-0]
    2374:	01000007 	tsteq	r0, r7
    2378:	000ffb3a 	andeq	pc, pc, sl, lsr fp	; <UNPREDICTABLE>
    237c:	f4910300 			; <UNDEFINED> instruction: 0xf4910300
    2380:	071a237a 			; <UNDEFINED> instruction: 0x071a237a
    2384:	3b010000 	blcc	4238c <_back_addr-0x14bdc74>
    2388:	00001000 	andeq	r1, r0, r0
    238c:	0000202c 	andeq	r2, r0, ip, lsr #32
    2390:	00100f24 	andseq	r0, r0, r4, lsr #30
    2394:	4f3c0100 	svcmi	0x003c0100
    2398:	00000000 	andeq	r0, r0, r0
    239c:	00042025 	andeq	r2, r4, r5, lsr #32
    23a0:	000fdc00 	andeq	sp, pc, r0, lsl #24
    23a4:	027d0f00 	rsbseq	r0, sp, #0, 30
    23a8:	73010000 	movwvc	r0, #4096	; 0x1000
    23ac:	0000004f 	andeq	r0, r0, pc, asr #32
    23b0:	0000066d 	andeq	r0, r0, sp, ror #12
    23b4:	4b0f0010 	blmi	3c23fc <_back_addr-0x113dc04>
    23b8:	01000006 	tsteq	r0, r6
    23bc:	00004f75 	andeq	r4, r0, r5, ror pc
    23c0:	00067e00 	andeq	r7, r6, r0, lsl #28
    23c4:	0f001000 	svceq	0x00001000
    23c8:	0000070d 	andeq	r0, r0, sp, lsl #14
    23cc:	004fd701 	subeq	sp, pc, r1, lsl #14
    23d0:	068f0000 	streq	r0, [pc], r0
    23d4:	00100000 	andseq	r0, r0, r0
    23d8:	50148812 	andspl	r8, r4, r2, lsl r8
    23dc:	00173a01 	andseq	r3, r7, r1, lsl #20
    23e0:	0006b000 	andeq	fp, r6, r0
    23e4:	50011300 	andpl	r1, r1, r0, lsl #6
    23e8:	7bd09103 	blvc	ff4267fc <__bss_end__+0xfdf12de4>
    23ec:	02510113 	subseq	r0, r1, #-1073741820	; 0xc0000004
    23f0:	01130079 	tsteq	r3, r9, ror r0
    23f4:	00740252 	rsbseq	r0, r4, r2, asr r2
    23f8:	149c1200 	ldrne	r1, [ip], #512	; 0x200
    23fc:	167e0150 			; <UNDEFINED> instruction: 0x167e0150
    2400:	06d80000 	ldrbeq	r0, [r8], r0
    2404:	01130000 	tsteq	r3, r0
    2408:	d0910350 	addsle	r0, r1, r0, asr r3
    240c:	5101137b 	tstpl	r1, fp, ror r3
    2410:	13007402 	movwne	r7, #1026	; 0x402
    2414:	75025201 	strvc	r5, [r2, #-513]	; 0x201
    2418:	53011300 	movwpl	r1, #4864	; 0x1300
    241c:	7af09103 	bvc	ffc26830 <__bss_end__+0xfe712e18>
    2420:	14a81200 	strtne	r1, [r8], #512	; 0x200
    2424:	16a80150 	ssatne	r0, #9, r0, asr #2
    2428:	06f20000 	ldrbteq	r0, [r2], r0
    242c:	01130000 	tsteq	r3, r0
    2430:	00750250 	rsbseq	r0, r5, r0, asr r2
    2434:	02510113 	subseq	r0, r1, #-1073741820	; 0xc0000004
    2438:	12000074 	andne	r0, r0, #116	; 0x74
    243c:	015014b8 	ldrheq	r1, [r0, #-72]	; 0xffffffb8
    2440:	0000173a 	andeq	r1, r0, sl, lsr r7
    2444:	00000713 	andeq	r0, r0, r3, lsl r7
    2448:	03500113 	cmpeq	r0, #-1073741820	; 0xc0000004
    244c:	137b9091 	cmnne	fp, #145	; 0x91
    2450:	75025101 	strvc	r5, [r2, #-257]	; 0x101
    2454:	52011300 	andpl	r1, r1, #0, 6
    2458:	00007402 	andeq	r7, r0, r2, lsl #8
    245c:	5014c412 	andspl	ip, r4, r2, lsl r4
    2460:	0016a801 	andseq	sl, r6, r1, lsl #16
    2464:	00072e00 	andeq	r2, r7, r0, lsl #28
    2468:	50011300 	andpl	r1, r1, r0, lsl #6
    246c:	7b909103 	blvc	fe426880 <__bss_end__+0xfcf12e68>
    2470:	02510113 	subseq	r0, r1, #-1073741820	; 0xc0000004
    2474:	12000074 	andne	r0, r0, #116	; 0x74
    2478:	015014d0 	ldrsbeq	r1, [r0, #-64]	; 0xffffffc0
    247c:	000016a8 	andeq	r1, r0, r8, lsr #13
    2480:	00000748 	andeq	r0, r0, r8, asr #14
    2484:	02500113 	subseq	r0, r0, #-1073741820	; 0xc0000004
    2488:	0113007a 	tsteq	r3, sl, ror r0
    248c:	00740251 	rsbseq	r0, r4, r1, asr r2
    2490:	14e01200 	strbtne	r1, [r0], #512	; 0x200
    2494:	173a0150 			; <UNDEFINED> instruction: 0x173a0150
    2498:	07690000 	strbeq	r0, [r9, -r0]!
    249c:	01130000 	tsteq	r3, r0
    24a0:	d0910350 	addsle	r0, r1, r0, asr r3
    24a4:	5101137b 	tstpl	r1, fp, ror r3
    24a8:	13007a02 	movwne	r7, #2562	; 0xa02
    24ac:	74025201 	strvc	r5, [r2], #-513	; 0x201
    24b0:	ec120000 	ldc	0, cr0, [r2], {-0}
    24b4:	a8015014 	stmdage	r1, {r2, r4, ip, lr}
    24b8:	84000016 	strhi	r0, [r0], #-22
    24bc:	13000007 	movwne	r0, #7
    24c0:	91035001 	tstls	r3, r1
    24c4:	01137bd0 			; <UNDEFINED> instruction: 0x01137bd0
    24c8:	00740251 	rsbseq	r0, r4, r1, asr r2
    24cc:	15001200 	strne	r1, [r0, #-512]	; 0x200
    24d0:	167e0150 			; <UNDEFINED> instruction: 0x167e0150
    24d4:	07ac0000 	streq	r0, [ip, r0]!
    24d8:	01130000 	tsteq	r3, r0
    24dc:	d0910350 	addsle	r0, r1, r0, asr r3
    24e0:	5101137b 	tstpl	r1, fp, ror r3
    24e4:	13007402 	movwne	r7, #1026	; 0x402
    24e8:	75025201 	strvc	r5, [r2, #-513]	; 0x201
    24ec:	53011300 	movwpl	r1, #4864	; 0x1300
    24f0:	7af09103 	bvc	ffc26904 <__bss_end__+0xfe712eec>
    24f4:	150c1200 	strne	r1, [ip, #-512]	; 0x200
    24f8:	16a80150 	ssatne	r0, #9, r0, asr #2
    24fc:	07c60000 	strbeq	r0, [r6, r0]
    2500:	01130000 	tsteq	r3, r0
    2504:	00750250 	rsbseq	r0, r5, r0, asr r2
    2508:	02510113 	subseq	r0, r1, #-1073741820	; 0xc0000004
    250c:	12000074 	andne	r0, r0, #116	; 0x74
    2510:	0150151c 	cmpeq	r0, ip, lsl r5
    2514:	0000173a 	andeq	r1, r0, sl, lsr r7
    2518:	000007e7 	andeq	r0, r0, r7, ror #15
    251c:	03500113 	cmpeq	r0, #-1073741820	; 0xc0000004
    2520:	137ba091 	cmnne	fp, #145	; 0x91
    2524:	75025101 	strvc	r5, [r2, #-257]	; 0x101
    2528:	52011300 	andpl	r1, r1, #0, 6
    252c:	00007402 	andeq	r7, r0, r2, lsl #8
    2530:	50152812 	andspl	r2, r5, r2, lsl r8
    2534:	0016a801 	andseq	sl, r6, r1, lsl #16
    2538:	00080200 	andeq	r0, r8, r0, lsl #4
    253c:	50011300 	andpl	r1, r1, r0, lsl #6
    2540:	7ba09103 	blvc	fe826954 <__bss_end__+0xfd312f3c>
    2544:	02510113 	subseq	r0, r1, #-1073741820	; 0xc0000004
    2548:	12000074 	andne	r0, r0, #116	; 0x74
    254c:	01501534 	cmpeq	r0, r4, lsr r5
    2550:	000016a8 	andeq	r1, r0, r8, lsr #13
    2554:	0000081c 	andeq	r0, r0, ip, lsl r8
    2558:	02500113 	subseq	r0, r0, #-1073741820	; 0xc0000004
    255c:	0113007b 	tsteq	r3, fp, ror r0
    2560:	00740251 	rsbseq	r0, r4, r1, asr r2
    2564:	15441200 	strbne	r1, [r4, #-512]	; 0x200
    2568:	173a0150 			; <UNDEFINED> instruction: 0x173a0150
    256c:	083d0000 	ldmdaeq	sp!, {}	; <UNPREDICTABLE>
    2570:	01130000 	tsteq	r3, r0
    2574:	d0910350 	addsle	r0, r1, r0, asr r3
    2578:	5101137b 	tstpl	r1, fp, ror r3
    257c:	13007b02 	movwne	r7, #2818	; 0xb02
    2580:	74025201 	strvc	r5, [r2], #-513	; 0x201
    2584:	50120000 	andspl	r0, r2, r0
    2588:	a8015015 	stmdage	r1, {r0, r2, r4, ip, lr}
    258c:	58000016 	stmdapl	r0, {r1, r2, r4}
    2590:	13000008 	movwne	r0, #8
    2594:	91035001 	tstls	r3, r1
    2598:	01137bd0 			; <UNDEFINED> instruction: 0x01137bd0
    259c:	00740251 	rsbseq	r0, r4, r1, asr r2
    25a0:	15641200 	strbne	r1, [r4, #-512]!	; 0x200
    25a4:	167e0150 			; <UNDEFINED> instruction: 0x167e0150
    25a8:	08800000 	stmeq	r0, {}	; <UNPREDICTABLE>
    25ac:	01130000 	tsteq	r3, r0
    25b0:	d0910350 	addsle	r0, r1, r0, asr r3
    25b4:	5101137b 	tstpl	r1, fp, ror r3
    25b8:	13007402 	movwne	r7, #1026	; 0x402
    25bc:	75025201 	strvc	r5, [r2, #-513]	; 0x201
    25c0:	53011300 	movwpl	r1, #4864	; 0x1300
    25c4:	7af09103 	bvc	ffc269d8 <__bss_end__+0xfe712fc0>
    25c8:	15701200 	ldrbne	r1, [r0, #-512]!	; 0x200
    25cc:	16a80150 	ssatne	r0, #9, r0, asr #2
    25d0:	089a0000 	ldmeq	sl, {}	; <UNPREDICTABLE>
    25d4:	01130000 	tsteq	r3, r0
    25d8:	00750250 	rsbseq	r0, r5, r0, asr r2
    25dc:	02510113 	subseq	r0, r1, #-1073741820	; 0xc0000004
    25e0:	12000074 	andne	r0, r0, #116	; 0x74
    25e4:	01501580 	cmpeq	r0, r0, lsl #11
    25e8:	0000173a 	andeq	r1, r0, sl, lsr r7
    25ec:	000008bb 			; <UNDEFINED> instruction: 0x000008bb
    25f0:	03500113 	cmpeq	r0, #-1073741820	; 0xc0000004
    25f4:	137bb091 	cmnne	fp, #145	; 0x91
    25f8:	75025101 	strvc	r5, [r2, #-257]	; 0x101
    25fc:	52011300 	andpl	r1, r1, #0, 6
    2600:	00007402 	andeq	r7, r0, r2, lsl #8
    2604:	50158c12 	andspl	r8, r5, r2, lsl ip
    2608:	0016a801 	andseq	sl, r6, r1, lsl #16
    260c:	0008d600 	andeq	sp, r8, r0, lsl #12
    2610:	50011300 	andpl	r1, r1, r0, lsl #6
    2614:	7bb09103 	blvc	fec26a28 <__bss_end__+0xfd713010>
    2618:	02510113 	subseq	r0, r1, #-1073741820	; 0xc0000004
    261c:	12000074 	andne	r0, r0, #116	; 0x74
    2620:	01501598 			; <UNDEFINED> instruction: 0x01501598
    2624:	000016a8 	andeq	r1, r0, r8, lsr #13
    2628:	000008f1 	strdeq	r0, [r0], -r1
    262c:	03500113 	cmpeq	r0, #-1073741820	; 0xc0000004
    2630:	13067891 	movwne	r7, #26769	; 0x6891
    2634:	74025101 	strvc	r5, [r2], #-257	; 0x101
    2638:	a8120000 	ldmdage	r2, {}	; <UNPREDICTABLE>
    263c:	3a015015 	bcc	56698 <_back_addr-0x14a9968>
    2640:	13000017 	movwne	r0, #23
    2644:	13000009 	movwne	r0, #9
    2648:	91035001 	tstls	r3, r1
    264c:	01137bd0 			; <UNDEFINED> instruction: 0x01137bd0
    2650:	78910351 	ldmvc	r1, {r0, r4, r6, r8, r9}
    2654:	52011306 	andpl	r1, r1, #402653184	; 0x18000000
    2658:	00007402 	andeq	r7, r0, r2, lsl #8
    265c:	5015b412 	andspl	fp, r5, r2, lsl r4
    2660:	0016a801 	andseq	sl, r6, r1, lsl #16
    2664:	00092e00 	andeq	r2, r9, r0, lsl #28
    2668:	50011300 	andpl	r1, r1, r0, lsl #6
    266c:	7bd09103 	blvc	ff426a80 <__bss_end__+0xfdf13068>
    2670:	02510113 	subseq	r0, r1, #-1073741820	; 0xc0000004
    2674:	12000074 	andne	r0, r0, #116	; 0x74
    2678:	015015c8 	cmpeq	r0, r8, asr #11
    267c:	0000167e 	andeq	r1, r0, lr, ror r6
    2680:	00000956 	andeq	r0, r0, r6, asr r9
    2684:	03500113 	cmpeq	r0, #-1073741820	; 0xc0000004
    2688:	137bd091 	cmnne	fp, #145	; 0x91
    268c:	74025101 	strvc	r5, [r2], #-257	; 0x101
    2690:	52011300 	andpl	r1, r1, #0, 6
    2694:	13007502 	movwne	r7, #1282	; 0x502
    2698:	91035301 	tstls	r3, r1, lsl #6
    269c:	12007af0 	andne	r7, r0, #240, 20	; 0xf0000
    26a0:	015015d4 	ldrsbeq	r1, [r0, #-84]	; 0xffffffac
    26a4:	000016a8 	andeq	r1, r0, r8, lsr #13
    26a8:	00000970 	andeq	r0, r0, r0, ror r9
    26ac:	02500113 	subseq	r0, r0, #-1073741820	; 0xc0000004
    26b0:	01130075 	tsteq	r3, r5, ror r0
    26b4:	00740251 	rsbseq	r0, r4, r1, asr r2
    26b8:	15e41200 	strbne	r1, [r4, #512]!	; 0x200
    26bc:	173a0150 			; <UNDEFINED> instruction: 0x173a0150
    26c0:	09910000 	ldmibeq	r1, {}	; <UNPREDICTABLE>
    26c4:	01130000 	tsteq	r3, r0
    26c8:	c0910350 	addsgt	r0, r1, r0, asr r3
    26cc:	5101137b 	tstpl	r1, fp, ror r3
    26d0:	13007502 	movwne	r7, #1282	; 0x502
    26d4:	74025201 	strvc	r5, [r2], #-513	; 0x201
    26d8:	f0120000 			; <UNDEFINED> instruction: 0xf0120000
    26dc:	a8015015 	stmdage	r1, {r0, r2, r4, ip, lr}
    26e0:	ac000016 	stcge	0, cr0, [r0], {22}
    26e4:	13000009 	movwne	r0, #9
    26e8:	91035001 	tstls	r3, r1
    26ec:	01137bc0 	tsteq	r3, r0, asr #23
    26f0:	00740251 	rsbseq	r0, r4, r1, asr r2
    26f4:	16001200 	strne	r1, [r0], -r0, lsl #4
    26f8:	16dd0150 			; <UNDEFINED> instruction: 0x16dd0150
    26fc:	09cd0000 	stmibeq	sp, {}^	; <UNPREDICTABLE>
    2700:	01130000 	tsteq	r3, r0
    2704:	80910350 	addshi	r0, r1, r0, asr r3
    2708:	5101137b 	tstpl	r1, fp, ror r3
    270c:	13007602 	movwne	r7, #1538	; 0x602
    2710:	74025201 	strvc	r5, [r2], #-513	; 0x201
    2714:	10120000 	andsne	r0, r2, r0
    2718:	17015016 	smladne	r1, r6, r0, r5
    271c:	ef000017 	svc	0x00000017
    2720:	13000009 	movwne	r0, #9
    2724:	0a035001 	beq	d6730 <_back_addr-0x14298d0>
    2728:	01131000 	tsteq	r3, r0
    272c:	80910351 	addshi	r0, r1, r1, asr r3
    2730:	5201137b 	andpl	r1, r1, #-335544319	; 0xec000001
    2734:	00007402 	andeq	r7, r0, r2, lsl #8
    2738:	50161c12 	andspl	r1, r6, r2, lsl ip
    273c:	0016a801 	andseq	sl, r6, r1, lsl #16
    2740:	000a0a00 	andeq	r0, sl, r0, lsl #20
    2744:	50011300 	andpl	r1, r1, r0, lsl #6
    2748:	7b809103 	blvc	fe026b5c <__bss_end__+0xfcb13144>
    274c:	02510113 	subseq	r0, r1, #-1073741820	; 0xc0000004
    2750:	1a000074 	bne	2928 <_back_addr-0x14fd6d8>
    2754:	01501620 	cmpeq	r0, r0, lsr #12
    2758:	000016fe 	strdeq	r1, [r0], -lr
    275c:	50163412 	andspl	r3, r6, r2, lsl r4
    2760:	0016b901 	andseq	fp, r6, r1, lsl #18
    2764:	000a3c00 	andeq	r3, sl, r0, lsl #24
    2768:	50011300 	andpl	r1, r1, r0, lsl #6
    276c:	7b809103 	blvc	fe026b80 <__bss_end__+0xfcb13168>
    2770:	02510113 	subseq	r0, r1, #-1073741820	; 0xc0000004
    2774:	01130074 	tsteq	r3, r4, ror r0
    2778:	d0910352 	addsle	r0, r1, r2, asr r3
    277c:	5301137b 	movwpl	r1, #4987	; 0x137b
    2780:	7b909103 	blvc	fe426b94 <__bss_end__+0xfcf1317c>
    2784:	16401200 	strbne	r1, [r0], -r0, lsl #4
    2788:	16a80150 	ssatne	r0, #9, r0, asr #2
    278c:	0a570000 	beq	15c2794 <__bss_end__+0xaed7c>
    2790:	01130000 	tsteq	r3, r0
    2794:	d0910350 	addsle	r0, r1, r0, asr r3
    2798:	5101137b 	tstpl	r1, fp, ror r3
    279c:	00007402 	andeq	r7, r0, r2, lsl #8
    27a0:	50165012 	andspl	r5, r6, r2, lsl r0
    27a4:	0016dd01 	andseq	sp, r6, r1, lsl #26
    27a8:	000a7800 	andeq	r7, sl, r0, lsl #16
    27ac:	50011300 	andpl	r1, r1, r0, lsl #6
    27b0:	7b809103 	blvc	fe026bc4 <__bss_end__+0xfcb131ac>
    27b4:	02510113 	subseq	r0, r1, #-1073741820	; 0xc0000004
    27b8:	01130076 	tsteq	r3, r6, ror r0
    27bc:	00740252 	rsbseq	r0, r4, r2, asr r2
    27c0:	16641200 	strbtne	r1, [r4], -r0, lsl #4
    27c4:	16b90150 	ssatne	r0, #26, r0, asr #2
    27c8:	0aa00000 	beq	fe8027d0 <__bss_end__+0xfd2eedb8>
    27cc:	01130000 	tsteq	r3, r0
    27d0:	a0910350 	addsge	r0, r1, r0, asr r3
    27d4:	5101137b 	tstpl	r1, fp, ror r3
    27d8:	13007402 	movwne	r7, #1026	; 0x402
    27dc:	75025201 	strvc	r5, [r2, #-513]	; 0x201
    27e0:	53011300 	movwpl	r1, #4864	; 0x1300
    27e4:	7bd09103 	blvc	ff426bf8 <__bss_end__+0xfdf131e0>
    27e8:	16701200 	ldrbtne	r1, [r0], -r0, lsl #4
    27ec:	16a80150 	ssatne	r0, #9, r0, asr #2
    27f0:	0aba0000 	beq	fee827f8 <__bss_end__+0xfd96ede0>
    27f4:	01130000 	tsteq	r3, r0
    27f8:	00750250 	rsbseq	r0, r5, r0, asr r2
    27fc:	02510113 	subseq	r0, r1, #-1073741820	; 0xc0000004
    2800:	12000074 	andne	r0, r0, #116	; 0x74
    2804:	0150167c 	cmpeq	r0, ip, ror r6
    2808:	000016a8 	andeq	r1, r0, r8, lsr #13
    280c:	00000ad5 	ldrdeq	r0, [r0], -r5
    2810:	03500113 	cmpeq	r0, #-1073741820	; 0xc0000004
    2814:	137ba091 	cmnne	fp, #145	; 0x91
    2818:	74025101 	strvc	r5, [r2], #-257	; 0x101
    281c:	90120000 	andsls	r0, r2, r0
    2820:	4c015016 	stcmi	0, cr5, [r1], {22}
    2824:	f6000003 			; <UNDEFINED> instruction: 0xf6000003
    2828:	1300000a 	movwne	r0, #10
    282c:	75025001 	strvc	r5, [r2, #-1]
    2830:	51011300 	mrspl	r1, SP_irq
    2834:	09800a03 	stmibeq	r0, {r0, r1, r9, fp}
    2838:	02520113 	subseq	r0, r2, #-1073741820	; 0xc0000004
    283c:	1a000074 	bne	2a14 <_back_addr-0x14fd5ec>
    2840:	01501698 			; <UNDEFINED> instruction: 0x01501698
    2844:	000016fe 	strdeq	r1, [r0], -lr
    2848:	5016bc12 	andspl	fp, r6, r2, lsl ip
    284c:	00034c01 	andeq	r4, r3, r1, lsl #24
    2850:	000b2100 	andeq	r2, fp, r0, lsl #2
    2854:	50011300 	andpl	r1, r1, r0, lsl #6
    2858:	13007902 	movwne	r7, #2306	; 0x902
    285c:	0a035101 	beq	d6c68 <_back_addr-0x1429398>
    2860:	01130d20 	tsteq	r3, r0, lsr #26
    2864:	7c910352 	ldcvc	3, cr0, [r1], {82}	; 0x52
    2868:	c01a0006 	andsgt	r0, sl, r6
    286c:	fe015016 	mcr2	0, 0, r5, cr1, cr6, {0}
    2870:	12000016 	andne	r0, r0, #22
    2874:	015016e4 	cmpeq	r0, r4, ror #13
    2878:	000016dd 	ldrdeq	r1, [r0], -sp
    287c:	00000b4a 	andeq	r0, r0, sl, asr #22
    2880:	03500113 	cmpeq	r0, #-1073741820	; 0xc0000004
    2884:	137b8091 	cmnne	fp, #145	; 0x91
    2888:	76025101 	strvc	r5, [r2], -r1, lsl #2
    288c:	52011300 	andpl	r1, r1, #0, 6
    2890:	12004001 	andne	r4, r0, #1
    2894:	01501764 	cmpeq	r0, r4, ror #14
    2898:	0000173a 	andeq	r1, r0, sl, lsr r7
    289c:	00000b6b 	andeq	r0, r0, fp, ror #22
    28a0:	03500113 	cmpeq	r0, #-1073741820	; 0xc0000004
    28a4:	137bd091 	cmnne	fp, #145	; 0x91
    28a8:	79025101 	stmdbvc	r2, {r0, r8, ip, lr}
    28ac:	52011300 	andpl	r1, r1, #0, 6
    28b0:	00007402 	andeq	r7, r0, r2, lsl #8
    28b4:	50177812 	andspl	r7, r7, r2, lsl r8
    28b8:	00167e01 	andseq	r7, r6, r1, lsl #28
    28bc:	000b9300 	andeq	r9, fp, r0, lsl #6
    28c0:	50011300 	andpl	r1, r1, r0, lsl #6
    28c4:	7bd09103 	blvc	ff426cd8 <__bss_end__+0xfdf132c0>
    28c8:	02510113 	subseq	r0, r1, #-1073741820	; 0xc0000004
    28cc:	01130074 	tsteq	r3, r4, ror r0
    28d0:	00750252 	rsbseq	r0, r5, r2, asr r2
    28d4:	03530113 	cmpeq	r3, #-1073741820	; 0xc0000004
    28d8:	007af091 			; <UNDEFINED> instruction: 0x007af091
    28dc:	50178412 	andspl	r8, r7, r2, lsl r4
    28e0:	0016a801 	andseq	sl, r6, r1, lsl #16
    28e4:	000bad00 	andeq	sl, fp, r0, lsl #26
    28e8:	50011300 	andpl	r1, r1, r0, lsl #6
    28ec:	13007502 	movwne	r7, #1282	; 0x502
    28f0:	74025101 	strvc	r5, [r2], #-257	; 0x101
    28f4:	94120000 	ldrls	r0, [r2], #-0
    28f8:	3a015017 	bcc	5695c <_back_addr-0x14a96a4>
    28fc:	ce000017 	mcrgt	0, 0, r0, cr0, cr7, {0}
    2900:	1300000b 	movwne	r0, #11
    2904:	91035001 	tstls	r3, r1
    2908:	01137b90 			; <UNDEFINED> instruction: 0x01137b90
    290c:	00750251 	rsbseq	r0, r5, r1, asr r2
    2910:	02520113 	subseq	r0, r2, #-1073741820	; 0xc0000004
    2914:	12000074 	andne	r0, r0, #116	; 0x74
    2918:	015017a0 	cmpeq	r0, r0, lsr #15
    291c:	000016a8 	andeq	r1, r0, r8, lsr #13
    2920:	00000be9 	andeq	r0, r0, r9, ror #23
    2924:	03500113 	cmpeq	r0, #-1073741820	; 0xc0000004
    2928:	137b9091 	cmnne	fp, #145	; 0x91
    292c:	74025101 	strvc	r5, [r2], #-257	; 0x101
    2930:	b0120000 	andslt	r0, r2, r0
    2934:	dd015017 	stcle	0, cr5, [r1, #-92]	; 0xffffffa4
    2938:	09000016 	stmdbeq	r0, {r1, r2, r4}
    293c:	1300000c 	movwne	r0, #12
    2940:	75025001 	strvc	r5, [r2, #-1]
    2944:	51011300 	mrspl	r1, SP_irq
    2948:	13007602 	movwne	r7, #1538	; 0x602
    294c:	74025201 	strvc	r5, [r2], #-513	; 0x201
    2950:	c0120000 	andsgt	r0, r2, r0
    2954:	3a015017 	bcc	569b8 <_back_addr-0x14a9648>
    2958:	2a000017 	bcs	29bc <_back_addr-0x14fd644>
    295c:	1300000c 	movwne	r0, #12
    2960:	91035001 	tstls	r3, r1
    2964:	01137bd0 			; <UNDEFINED> instruction: 0x01137bd0
    2968:	007a0251 	rsbseq	r0, sl, r1, asr r2
    296c:	02520113 	subseq	r0, r2, #-1073741820	; 0xc0000004
    2970:	12000074 	andne	r0, r0, #116	; 0x74
    2974:	015017d4 	ldrsbeq	r1, [r0, #-116]	; 0xffffff8c
    2978:	0000167e 	andeq	r1, r0, lr, ror r6
    297c:	00000c52 	andeq	r0, r0, r2, asr ip
    2980:	03500113 	cmpeq	r0, #-1073741820	; 0xc0000004
    2984:	137bd091 	cmnne	fp, #145	; 0x91
    2988:	74025101 	strvc	r5, [r2], #-257	; 0x101
    298c:	52011300 	andpl	r1, r1, #0, 6
    2990:	13007502 	movwne	r7, #1282	; 0x502
    2994:	91035301 	tstls	r3, r1, lsl #6
    2998:	12007af0 	andne	r7, r0, #240, 20	; 0xf0000
    299c:	015017e0 	cmpeq	r0, r0, ror #15
    29a0:	000016a8 	andeq	r1, r0, r8, lsr #13
    29a4:	00000c6c 	andeq	r0, r0, ip, ror #24
    29a8:	02500113 	subseq	r0, r0, #-1073741820	; 0xc0000004
    29ac:	01130075 	tsteq	r3, r5, ror r0
    29b0:	00740251 	rsbseq	r0, r4, r1, asr r2
    29b4:	17f01200 	ldrbne	r1, [r0, r0, lsl #4]!
    29b8:	173a0150 			; <UNDEFINED> instruction: 0x173a0150
    29bc:	0c8d0000 	stceq	0, cr0, [sp], {0}
    29c0:	01130000 	tsteq	r3, r0
    29c4:	a0910350 	addsge	r0, r1, r0, asr r3
    29c8:	5101137b 	tstpl	r1, fp, ror r3
    29cc:	13007502 	movwne	r7, #1282	; 0x502
    29d0:	74025201 	strvc	r5, [r2], #-513	; 0x201
    29d4:	fc120000 	ldc2	0, cr0, [r2], {-0}
    29d8:	a8015017 	stmdage	r1, {r0, r1, r2, r4, ip, lr}
    29dc:	a8000016 	stmdage	r0, {r1, r2, r4}
    29e0:	1300000c 	movwne	r0, #12
    29e4:	91035001 	tstls	r3, r1
    29e8:	01137ba0 	tsteq	r3, r0, lsr #23
    29ec:	00740251 	rsbseq	r0, r4, r1, asr r2
    29f0:	180c1200 	stmdane	ip, {r9, ip}
    29f4:	16dd0150 			; <UNDEFINED> instruction: 0x16dd0150
    29f8:	0cc80000 	stcleq	0, cr0, [r8], {0}
    29fc:	01130000 	tsteq	r3, r0
    2a00:	00750250 	rsbseq	r0, r5, r0, asr r2
    2a04:	02510113 	subseq	r0, r1, #-1073741820	; 0xc0000004
    2a08:	01130076 	tsteq	r3, r6, ror r0
    2a0c:	00740252 	rsbseq	r0, r4, r2, asr r2
    2a10:	18201200 	stmdane	r0!, {r9, ip}
    2a14:	16b90150 	ssatne	r0, #26, r0, asr #2
    2a18:	0cf10000 	ldcleq	0, cr0, [r1]
    2a1c:	01130000 	tsteq	r3, r0
    2a20:	80910350 	addshi	r0, r1, r0, asr r3
    2a24:	5101137b 	tstpl	r1, fp, ror r3
    2a28:	13007402 	movwne	r7, #1026	; 0x402
    2a2c:	91035201 	tstls	r3, r1, lsl #4
    2a30:	01137bd0 			; <UNDEFINED> instruction: 0x01137bd0
    2a34:	90910353 	addsls	r0, r1, r3, asr r3
    2a38:	2c12007b 	ldccs	0, cr0, [r2], {123}	; 0x7b
    2a3c:	a8015018 	stmdage	r1, {r3, r4, ip, lr}
    2a40:	0c000016 	stceq	0, cr0, [r0], {22}
    2a44:	1300000d 	movwne	r0, #13
    2a48:	91035001 	tstls	r3, r1
    2a4c:	01137bd0 			; <UNDEFINED> instruction: 0x01137bd0
    2a50:	00740251 	rsbseq	r0, r4, r1, asr r2
    2a54:	183c1200 	ldmdane	ip!, {r9, ip}
    2a58:	16dd0150 			; <UNDEFINED> instruction: 0x16dd0150
    2a5c:	0d2d0000 	stceq	0, cr0, [sp, #-0]
    2a60:	01130000 	tsteq	r3, r0
    2a64:	80910350 	addshi	r0, r1, r0, asr r3
    2a68:	5101137b 	tstpl	r1, fp, ror r3
    2a6c:	13007602 	movwne	r7, #1538	; 0x602
    2a70:	74025201 	strvc	r5, [r2], #-513	; 0x201
    2a74:	50120000 	andspl	r0, r2, r0
    2a78:	b9015018 	stmdblt	r1, {r3, r4, ip, lr}
    2a7c:	55000016 	strpl	r0, [r0, #-22]
    2a80:	1300000d 	movwne	r0, #13
    2a84:	91035001 	tstls	r3, r1
    2a88:	01137ba0 	tsteq	r3, r0, lsr #23
    2a8c:	00740251 	rsbseq	r0, r4, r1, asr r2
    2a90:	02520113 	subseq	r0, r2, #-1073741820	; 0xc0000004
    2a94:	01130075 	tsteq	r3, r5, ror r0
    2a98:	d0910353 	addsle	r0, r1, r3, asr r3
    2a9c:	5c12007b 	ldcpl	0, cr0, [r2], {123}	; 0x7b
    2aa0:	a8015018 	stmdage	r1, {r3, r4, ip, lr}
    2aa4:	6f000016 	svcvs	0x00000016
    2aa8:	1300000d 	movwne	r0, #13
    2aac:	75025001 	strvc	r5, [r2, #-1]
    2ab0:	51011300 	mrspl	r1, SP_irq
    2ab4:	00007402 	andeq	r7, r0, r2, lsl #8
    2ab8:	50186c12 	andspl	r6, r8, r2, lsl ip
    2abc:	0016dd01 	andseq	sp, r6, r1, lsl #26
    2ac0:	000d9000 	andeq	r9, sp, r0
    2ac4:	50011300 	andpl	r1, r1, r0, lsl #6
    2ac8:	7ba09103 	blvc	fe826edc <__bss_end__+0xfd3134c4>
    2acc:	02510113 	subseq	r0, r1, #-1073741820	; 0xc0000004
    2ad0:	01130076 	tsteq	r3, r6, ror r0
    2ad4:	00740252 	rsbseq	r0, r4, r2, asr r2
    2ad8:	187c1200 	ldmdane	ip!, {r9, ip}^
    2adc:	16dd0150 			; <UNDEFINED> instruction: 0x16dd0150
    2ae0:	0db10000 	ldceq	0, cr0, [r1]
    2ae4:	01130000 	tsteq	r3, r0
    2ae8:	d0910350 	addsle	r0, r1, r0, asr r3
    2aec:	5101137b 	tstpl	r1, fp, ror r3
    2af0:	13007602 	movwne	r7, #1538	; 0x602
    2af4:	74025201 	strvc	r5, [r2], #-513	; 0x201
    2af8:	88120000 	ldmdahi	r2, {}	; <UNPREDICTABLE>
    2afc:	a8015018 	stmdage	r1, {r3, r4, ip, lr}
    2b00:	cc000016 	stcgt	0, cr0, [r0], {22}
    2b04:	1300000d 	movwne	r0, #13
    2b08:	91035001 	tstls	r3, r1
    2b0c:	01137ba0 	tsteq	r3, r0, lsr #23
    2b10:	00740251 	rsbseq	r0, r4, r1, asr r2
    2b14:	18941200 	ldmne	r4, {r9, ip}
    2b18:	16a80150 	ssatne	r0, #9, r0, asr #2
    2b1c:	0de70000 	stcleq	0, cr0, [r7]
    2b20:	01130000 	tsteq	r3, r0
    2b24:	d0910350 	addsle	r0, r1, r0, asr r3
    2b28:	5101137b 	tstpl	r1, fp, ror r3
    2b2c:	00007402 	andeq	r7, r0, r2, lsl #8
    2b30:	5018b012 	andspl	fp, r8, r2, lsl r0
    2b34:	00034c01 	andeq	r4, r3, r1, lsl #24
    2b38:	000e0800 	andeq	r0, lr, r0, lsl #16
    2b3c:	50011300 	andpl	r1, r1, r0, lsl #6
    2b40:	13007502 	movwne	r7, #1282	; 0x502
    2b44:	0a035101 	beq	d6f50 <_back_addr-0x14290b0>
    2b48:	01130900 	tsteq	r3, r0, lsl #18
    2b4c:	00740252 	rsbseq	r0, r4, r2, asr r2
    2b50:	18c41200 	stmiane	r4, {r9, ip}^
    2b54:	16dd0150 			; <UNDEFINED> instruction: 0x16dd0150
    2b58:	0e280000 	cdpeq	0, 2, cr0, cr8, cr0, {0}
    2b5c:	01130000 	tsteq	r3, r0
    2b60:	00750250 	rsbseq	r0, r5, r0, asr r2
    2b64:	02510113 	subseq	r0, r1, #-1073741820	; 0xc0000004
    2b68:	01130076 	tsteq	r3, r6, ror r0
    2b6c:	00740252 	rsbseq	r0, r4, r2, asr r2
    2b70:	18c81a00 	stmiane	r8, {r9, fp, ip}^
    2b74:	16fe0150 	usatne	r0, #30, r0, asr #2
    2b78:	e8120000 	ldmda	r2, {}	; <UNPREDICTABLE>
    2b7c:	b9015018 	stmdblt	r1, {r3, r4, ip, lr}
    2b80:	59000016 	stmdbpl	r0, {r1, r2, r4}
    2b84:	1300000e 	movwne	r0, #14
    2b88:	91035001 	tstls	r3, r1
    2b8c:	01137bb0 			; <UNDEFINED> instruction: 0x01137bb0
    2b90:	00740251 	rsbseq	r0, r4, r1, asr r2
    2b94:	02520113 	subseq	r0, r2, #-1073741820	; 0xc0000004
    2b98:	01130075 	tsteq	r3, r5, ror r0
    2b9c:	d0910353 	addsle	r0, r1, r3, asr r3
    2ba0:	f412007b 			; <UNDEFINED> instruction: 0xf412007b
    2ba4:	a8015018 	stmdage	r1, {r3, r4, ip, lr}
    2ba8:	73000016 	movwvc	r0, #22
    2bac:	1300000e 	movwne	r0, #14
    2bb0:	75025001 	strvc	r5, [r2, #-1]
    2bb4:	51011300 	mrspl	r1, SP_irq
    2bb8:	00007402 	andeq	r7, r0, r2, lsl #8
    2bbc:	50190012 	andspl	r0, r9, r2, lsl r0
    2bc0:	0016a801 	andseq	sl, r6, r1, lsl #16
    2bc4:	000e8e00 	andeq	r8, lr, r0, lsl #28
    2bc8:	50011300 	andpl	r1, r1, r0, lsl #6
    2bcc:	7bb09103 	blvc	fec26fe0 <__bss_end__+0xfd7135c8>
    2bd0:	02510113 	subseq	r0, r1, #-1073741820	; 0xc0000004
    2bd4:	12000074 	andne	r0, r0, #116	; 0x74
    2bd8:	01501914 	cmpeq	r0, r4, lsl r9
    2bdc:	0000034c 	andeq	r0, r0, ip, asr #6
    2be0:	00000eaf 	andeq	r0, r0, pc, lsr #29
    2be4:	02500113 	subseq	r0, r0, #-1073741820	; 0xc0000004
    2be8:	01130075 	tsteq	r3, r5, ror r0
    2bec:	800a0351 	andhi	r0, sl, r1, asr r3
    2bf0:	52011311 	andpl	r1, r1, #1140850688	; 0x44000000
    2bf4:	00007402 	andeq	r7, r0, r2, lsl #8
    2bf8:	50191c1a 	andspl	r1, r9, sl, lsl ip
    2bfc:	0016fe01 	andseq	pc, r6, r1, lsl #28
    2c00:	19381200 	ldmdbne	r8!, {r9, ip}
    2c04:	16b90150 	ssatne	r0, #26, r0, asr #2
    2c08:	0ee00000 	cdpeq	0, 14, cr0, cr0, cr0, {0}
    2c0c:	01130000 	tsteq	r3, r0
    2c10:	c0910350 	addsgt	r0, r1, r0, asr r3
    2c14:	5101137b 	tstpl	r1, fp, ror r3
    2c18:	13007402 	movwne	r7, #1026	; 0x402
    2c1c:	75025201 	strvc	r5, [r2, #-513]	; 0x201
    2c20:	53011300 	movwpl	r1, #4864	; 0x1300
    2c24:	7bd09103 	blvc	ff427038 <__bss_end__+0xfdf13620>
    2c28:	19441200 	stmdbne	r4, {r9, ip}^
    2c2c:	16a80150 	ssatne	r0, #9, r0, asr #2
    2c30:	0efa0000 	cdpeq	0, 15, cr0, cr10, cr0, {0}
    2c34:	01130000 	tsteq	r3, r0
    2c38:	00750250 	rsbseq	r0, r5, r0, asr r2
    2c3c:	02510113 	subseq	r0, r1, #-1073741820	; 0xc0000004
    2c40:	12000074 	andne	r0, r0, #116	; 0x74
    2c44:	01501950 	cmpeq	r0, r0, asr r9
    2c48:	000016a8 	andeq	r1, r0, r8, lsr #13
    2c4c:	00000f15 	andeq	r0, r0, r5, lsl pc
    2c50:	03500113 	cmpeq	r0, #-1073741820	; 0xc0000004
    2c54:	137bc091 	cmnne	fp, #145	; 0x91
    2c58:	74025101 	strvc	r5, [r2], #-257	; 0x101
    2c5c:	64120000 	ldrvs	r0, [r2], #-0
    2c60:	4c015019 	stcmi	0, cr5, [r1], {25}
    2c64:	36000003 	strcc	r0, [r0], -r3
    2c68:	1300000f 	movwne	r0, #15
    2c6c:	75025001 	strvc	r5, [r2, #-1]
    2c70:	51011300 	mrspl	r1, SP_irq
    2c74:	10800a03 	addne	r0, r0, r3, lsl #20
    2c78:	02520113 	subseq	r0, r2, #-1073741820	; 0xc0000004
    2c7c:	1a000074 	bne	2e54 <_back_addr-0x14fd1ac>
    2c80:	0150196c 	cmpeq	r0, ip, ror #18
    2c84:	000016fe 	strdeq	r1, [r0], -lr
    2c88:	50198812 	andspl	r8, r9, r2, lsl r8
    2c8c:	0016a801 	andseq	sl, r6, r1, lsl #16
    2c90:	000f5a00 	andeq	r5, pc, r0, lsl #20
    2c94:	50011300 	andpl	r1, r1, r0, lsl #6
    2c98:	7b909103 	blvc	fe4270ac <__bss_end__+0xfcf13694>
    2c9c:	02510113 	subseq	r0, r1, #-1073741820	; 0xc0000004
    2ca0:	12000074 	andne	r0, r0, #116	; 0x74
    2ca4:	01501998 			; <UNDEFINED> instruction: 0x01501998
    2ca8:	000000ba 	strheq	r0, [r0], -sl
    2cac:	00000f7a 	andeq	r0, r0, sl, ror pc
    2cb0:	01500113 	cmpeq	r0, r3, lsl r1
    2cb4:	51011331 	tstpl	r1, r1, lsr r3
    2cb8:	7b909103 	blvc	fe4270cc <__bss_end__+0xfcf136b4>
    2cbc:	02520113 	subseq	r0, r2, #-1073741820	; 0xc0000004
    2cc0:	12000074 	andne	r0, r0, #116	; 0x74
    2cc4:	015019a8 	cmpeq	r0, r8, lsr #19
    2cc8:	0000173a 	andeq	r1, r0, sl, lsr r7
    2ccc:	00000f95 	muleq	r0, r5, pc	; <UNPREDICTABLE>
    2cd0:	03500113 	cmpeq	r0, #-1073741820	; 0xc0000004
    2cd4:	137bd091 	cmnne	fp, #145	; 0x91
    2cd8:	74025201 	strvc	r5, [r2], #-513	; 0x201
    2cdc:	b4120000 	ldrlt	r0, [r2], #-0
    2ce0:	a8015019 	stmdage	r1, {r0, r3, r4, ip, lr}
    2ce4:	b0000016 	andlt	r0, r0, r6, lsl r0
    2ce8:	1300000f 	movwne	r0, #15
    2cec:	91035001 	tstls	r3, r1
    2cf0:	01137bd0 			; <UNDEFINED> instruction: 0x01137bd0
    2cf4:	00740251 	rsbseq	r0, r4, r1, asr r2
    2cf8:	19c41200 	stmibne	r4, {r9, ip}^
    2cfc:	034c0150 	movteq	r0, #49488	; 0xc150
    2d00:	0fd20000 	svceq	0x00d20000
    2d04:	01130000 	tsteq	r3, r0
    2d08:	d0910350 	addsle	r0, r1, r0, asr r3
    2d0c:	5101137b 	tstpl	r1, fp, ror r3
    2d10:	11000a03 	tstne	r0, r3, lsl #20
    2d14:	02520113 	subseq	r0, r2, #-1073741820	; 0xc0000004
    2d18:	1a000074 	bne	2ef0 <_back_addr-0x14fd110>
    2d1c:	015019cc 	cmpeq	r0, ip, asr #19
    2d20:	000016fe 	strdeq	r1, [r0], -lr
    2d24:	14481400 	strbne	r1, [r8], #-1024	; 0x400
    2d28:	16dd0150 			; <UNDEFINED> instruction: 0x16dd0150
    2d2c:	01130000 	tsteq	r3, r0
    2d30:	d0910350 	addsle	r0, r1, r0, asr r3
    2d34:	5101137b 	tstpl	r1, fp, ror r3
    2d38:	13007602 	movwne	r7, #1538	; 0x602
    2d3c:	0a035201 	beq	d7548 <_back_addr-0x1428ab8>
    2d40:	00000200 	andeq	r0, r0, r0, lsl #4
    2d44:	00002526 	andeq	r2, r0, r6, lsr #10
    2d48:	06040500 	streq	r0, [r4], -r0, lsl #10
    2d4c:	26000010 			; <UNDEFINED> instruction: 0x26000010
    2d50:	00000033 	andeq	r0, r0, r3, lsr r0
    2d54:	00325227 	eorseq	r5, r2, r7, lsr #4
    2d58:	4f027e01 	svcmi	0x00027e01
    2d5c:	d4000000 	strle	r0, [r0], #-0
    2d60:	c4015019 	strgt	r5, [r1], #-25
    2d64:	01000002 	tsteq	r0, r2
    2d68:	0015ee9c 	mulseq	r5, ip, lr
    2d6c:	00690c00 	rsbeq	r0, r9, r0, lsl #24
    2d70:	4f028001 	svcmi	0x00028001
    2d74:	6c000000 	stcvs	0, cr0, [r0], {-0}
    2d78:	28000020 	stmdacs	r0, {r5}
    2d7c:	00000706 	andeq	r0, r0, r6, lsl #14
    2d80:	ee028101 	mvfs	f0, f1
    2d84:	03000015 	movweq	r0, #21
    2d88:	2977f891 	ldmdbcs	r7!, {r0, r4, r7, fp, ip, sp, lr, pc}^
    2d8c:	0000076e 	andeq	r0, r0, lr, ror #14
    2d90:	33028201 	movwcc	r8, #8705	; 0x2201
    2d94:	00000000 	andeq	r0, r0, r0
    2d98:	6769730e 	strbvs	r7, [r9, -lr, lsl #6]!
    2d9c:	02830100 	addeq	r0, r3, #0, 2
    2da0:	000015ff 	strdeq	r1, [r0], -pc	; <UNPREDICTABLE>
    2da4:	73f89103 	mvnsvc	r9, #-1073741824	; 0xc0000000
    2da8:	00079828 	andeq	r9, r7, r8, lsr #16
    2dac:	02840100 	addeq	r0, r4, #0, 2
    2db0:	000015ff 	strdeq	r1, [r0], -pc	; <UNPREDICTABLE>
    2db4:	75f89103 	ldrbvc	r9, [r8, #259]!	; 0x103
    2db8:	00070d0f 	andeq	r0, r7, pc, lsl #26
    2dbc:	4fd70100 	svcmi	0x00d70100
    2dc0:	80000000 	andhi	r0, r0, r0
    2dc4:	10000010 	andne	r0, r0, r0, lsl r0
    2dc8:	07801900 	streq	r1, [r0, r0, lsl #18]
    2dcc:	93010000 	movwls	r0, #4096	; 0x1000
    2dd0:	00004f02 	andeq	r4, r0, r2, lsl #30
    2dd4:	00109200 	andseq	r9, r0, r0, lsl #4
    2dd8:	19001000 	stmdbne	r0, {ip}
    2ddc:	0000071f 	andeq	r0, r0, pc, lsl r7
    2de0:	4f024801 	svcmi	0x00024801
    2de4:	a4000000 	strge	r0, [r0], #-0
    2de8:	10000010 	andne	r0, r0, r0, lsl r0
    2dec:	04482500 	strbeq	r2, [r8], #-1280	; 0x500
    2df0:	116c0000 	cmnne	ip, r0
    2df4:	b0190000 	andslt	r0, r9, r0
    2df8:	01000002 	tsteq	r0, r2
    2dfc:	004f02b5 	strheq	r0, [pc], #-37	; <UNPREDICTABLE>
    2e00:	10bf0000 	adcsne	r0, pc, r0
    2e04:	00100000 	andseq	r0, r0, r0
    2e08:	501c8811 	andspl	r8, ip, r1, lsl r8
    2e0c:	00001001 	andeq	r1, r0, r1
    2e10:	0010f200 	andseq	pc, r0, r0, lsl #4
    2e14:	030e1900 	movweq	r1, #59648	; 0xe900
    2e18:	7a010000 	bvc	42e20 <_back_addr-0x14bd1e0>
    2e1c:	00004f02 	andeq	r4, r0, r2, lsl #30
    2e20:	0010de00 	andseq	sp, r0, r0, lsl #28
    2e24:	14001000 	strne	r1, [r0], #-0
    2e28:	01501c94 			; <UNDEFINED> instruction: 0x01501c94
    2e2c:	00001728 	andeq	r1, r0, r8, lsr #14
    2e30:	05500113 	ldrbeq	r0, [r0, #-275]	; 0x113
    2e34:	502fdc03 	eorpl	sp, pc, r3, lsl #24
    2e38:	12000001 	andne	r0, r0, #1
    2e3c:	01501c00 	cmpeq	r0, r0, lsl #24
    2e40:	00001717 	andeq	r1, r0, r7, lsl r7
    2e44:	00001114 	andeq	r1, r0, r4, lsl r1
    2e48:	03500113 	cmpeq	r0, #-1073741820	; 0xc0000004
    2e4c:	1312000a 	tstne	r2, #10
    2e50:	91035101 	tstls	r3, r1, lsl #2
    2e54:	011375f0 			; <UNDEFINED> instruction: 0x011375f0
    2e58:	20080252 	andcs	r0, r8, r2, asr r2
    2e5c:	1c041a00 	stcne	10, cr1, [r4], {-0}
    2e60:	16fe0150 	usatne	r0, #30, r0, asr #2
    2e64:	18120000 	ldmdane	r2, {}	; <UNPREDICTABLE>
    2e68:	4b01501c 	blmi	56ee0 <_back_addr-0x14a9120>
    2e6c:	41000017 	tstmi	r0, r7, lsl r0
    2e70:	13000011 	movwne	r0, #17
    2e74:	03055001 	movweq	r5, #20481	; 0x5001
    2e78:	01502fcc 	cmpeq	r0, ip, asr #31
    2e7c:	03510113 	cmpeq	r1, #-1073741820	; 0xc0000004
    2e80:	1375f091 	cmnne	r5, #145	; 0x91
    2e84:	08025201 	stmdaeq	r2, {r0, r9, ip, lr}
    2e88:	28120020 	ldmdacs	r2, {r5}
    2e8c:	6d01501c 	stcvs	0, cr5, [r1, #-112]	; 0xffffff90
    2e90:	62000017 	andvs	r0, r0, #23
    2e94:	13000011 	movwne	r0, #17
    2e98:	7d025001 	stcvc	0, cr5, [r2, #-4]
    2e9c:	51011300 	mrspl	r1, SP_irq
    2ea0:	75f09103 	ldrbvc	r9, [r0, #259]!	; 0x103
    2ea4:	02520113 	subseq	r0, r2, #-1073741820	; 0xc0000004
    2ea8:	1a002008 	bne	aed0 <_back_addr-0x14f5130>
    2eac:	01501c34 	cmpeq	r0, r4, lsr ip
    2eb0:	000016fe 	strdeq	r1, [r0], -lr
    2eb4:	1c3c1100 	ldfnes	f1, [ip], #-0
    2eb8:	000c0150 	andeq	r0, ip, r0, asr r1
    2ebc:	119f0000 	orrsne	r0, pc, r0
    2ec0:	0e190000 	cdpeq	0, 1, cr0, cr9, cr0, {0}
    2ec4:	01000003 	tsteq	r0, r3
    2ec8:	004f027a 	subeq	r0, pc, sl, ror r2	; <UNPREDICTABLE>
    2ecc:	118b0000 	orrne	r0, fp, r0
    2ed0:	00100000 	andseq	r0, r0, r0
    2ed4:	501c4814 	andspl	r4, ip, r4, lsl r8
    2ed8:	00172801 	andseq	r2, r7, r1, lsl #16
    2edc:	50011300 	andpl	r1, r1, r0, lsl #6
    2ee0:	2ff00305 	svccs	0x00f00305
    2ee4:	00000150 	andeq	r0, r0, r0, asr r1
    2ee8:	5019f012 	andspl	pc, r9, r2, lsl r0	; <UNPREDICTABLE>
    2eec:	0016dd01 	andseq	sp, r6, r1, lsl #26
    2ef0:	0011c000 	andseq	ip, r1, r0
    2ef4:	50011300 	andpl	r1, r1, r0, lsl #6
    2ef8:	77f09103 	ldrbvc	r9, [r0, r3, lsl #2]!
    2efc:	01510113 	cmpeq	r1, r3, lsl r1
    2f00:	52011330 	andpl	r1, r1, #48, 6	; 0xc0000000
    2f04:	04000a03 	streq	r0, [r0], #-2563	; 0xa03
    2f08:	1a001200 	bne	7710 <_back_addr-0x14f88f0>
    2f0c:	16dd0150 			; <UNDEFINED> instruction: 0x16dd0150
    2f10:	11e00000 	mvnne	r0, r0
    2f14:	01130000 	tsteq	r3, r0
    2f18:	007d0250 	rsbseq	r0, sp, r0, asr r2
    2f1c:	01510113 	cmpeq	r1, r3, lsl r1
    2f20:	52011330 	andpl	r1, r1, #48, 6	; 0xc0000000
    2f24:	01000a03 	tsteq	r0, r3, lsl #20
    2f28:	1a101200 	bne	407730 <_back_addr-0x10f88d0>
    2f2c:	16dd0150 			; <UNDEFINED> instruction: 0x16dd0150
    2f30:	12010000 	andne	r0, r1, #0
    2f34:	01130000 	tsteq	r3, r0
    2f38:	f0910350 			; <UNDEFINED> instruction: 0xf0910350
    2f3c:	51011375 	tstpl	r1, r5, ror r3
    2f40:	01133001 	tsteq	r3, r1
    2f44:	000a0352 	andeq	r0, sl, r2, asr r3
    2f48:	20120001 	andscs	r0, r2, r1
    2f4c:	1701501a 	smladne	r1, sl, r0, r5
    2f50:	22000017 	andcs	r0, r0, #23
    2f54:	13000012 	movwne	r0, #18
    2f58:	30015001 	andcc	r5, r1, r1
    2f5c:	03510113 	cmpeq	r1, #-1073741820	; 0xc0000004
    2f60:	1377f091 	cmnne	r7, #145	; 0x91
    2f64:	0a035201 	beq	d7770 <_back_addr-0x1428890>
    2f68:	12000100 	andne	r0, r0, #0, 2
    2f6c:	01501a30 	cmpeq	r0, r0, lsr sl
    2f70:	00001717 	andeq	r1, r0, r7, lsl r7
    2f74:	00001244 	andeq	r1, r0, r4, asr #4
    2f78:	03500113 	cmpeq	r0, #-1073741820	; 0xc0000004
    2f7c:	1308000a 	movwne	r0, #32778	; 0x800a
    2f80:	91035101 	tstls	r3, r1, lsl #2
    2f84:	011379f0 			; <UNDEFINED> instruction: 0x011379f0
    2f88:	20080252 	andcs	r0, r8, r2, asr r2
    2f8c:	1a401200 	bne	1007794 <_back_addr-0x4f886c>
    2f90:	17170150 			; <UNDEFINED> instruction: 0x17170150
    2f94:	12650000 	rsbne	r0, r5, #0
    2f98:	01130000 	tsteq	r3, r0
    2f9c:	000a0350 	andeq	r0, sl, r0, asr r3
    2fa0:	51011309 	tstpl	r1, r9, lsl #6
    2fa4:	7a909103 	bvc	fe4273b8 <__bss_end__+0xfcf139a0>
    2fa8:	01520113 	cmpeq	r2, r3, lsl r1
    2fac:	50120040 	andspl	r0, r2, r0, asr #32
    2fb0:	1701501a 	smladne	r1, sl, r0, r5
    2fb4:	86000017 			; <UNDEFINED> instruction: 0x86000017
    2fb8:	13000012 	movwne	r0, #18
    2fbc:	0a035001 	beq	d6fc8 <_back_addr-0x1429038>
    2fc0:	01130980 	tsteq	r3, r0, lsl #19
    2fc4:	a0910351 	addsge	r0, r1, r1, asr r3
    2fc8:	5201137a 	andpl	r1, r1, #-402653183	; 0xe8000001
    2fcc:	12004001 	andne	r4, r0, #1
    2fd0:	01501a60 	cmpeq	r0, r0, ror #20
    2fd4:	00001717 	andeq	r1, r0, r7, lsl r7
    2fd8:	000012a7 	andeq	r1, r0, r7, lsr #5
    2fdc:	03500113 	cmpeq	r0, #-1073741820	; 0xc0000004
    2fe0:	130b000a 	movwne	r0, #45066	; 0xb00a
    2fe4:	91035101 	tstls	r3, r1, lsl #2
    2fe8:	01137ab0 			; <UNDEFINED> instruction: 0x01137ab0
    2fec:	00400152 	subeq	r0, r0, r2, asr r1
    2ff0:	501a7012 	andspl	r7, sl, r2, lsl r0
    2ff4:	00171701 	andseq	r1, r7, r1, lsl #14
    2ff8:	0012c800 	andseq	ip, r2, r0, lsl #16
    2ffc:	50011300 	andpl	r1, r1, r0, lsl #6
    3000:	10000a03 	andne	r0, r0, r3, lsl #20
    3004:	03510113 	cmpeq	r1, #-1073741820	; 0xc0000004
    3008:	137ac091 	cmnne	sl, #145	; 0x91
    300c:	40015201 	andmi	r5, r1, r1, lsl #4
    3010:	1a801200 	bne	fe007818 <__bss_end__+0xfcaf3e00>
    3014:	17170150 			; <UNDEFINED> instruction: 0x17170150
    3018:	12e90000 	rscne	r0, r9, #0
    301c:	01130000 	tsteq	r3, r0
    3020:	800a0350 	andhi	r0, sl, r0, asr r3
    3024:	51011310 	tstpl	r1, r0, lsl r3
    3028:	7ad09103 	bvc	ff42743c <__bss_end__+0xfdf13a24>
    302c:	01520113 	cmpeq	r2, r3, lsl r1
    3030:	90120040 	andsls	r0, r2, r0, asr #32
    3034:	1701501a 	smladne	r1, sl, r0, r5
    3038:	0a000017 	beq	309c <_back_addr-0x14fcf64>
    303c:	13000013 	movwne	r0, #19
    3040:	0a035001 	beq	d704c <_back_addr-0x1428fb4>
    3044:	01131100 	tsteq	r3, r0, lsl #2
    3048:	e0910351 	adds	r0, r1, r1, asr r3
    304c:	5201137a 	andpl	r1, r1, #-402653183	; 0xe8000001
    3050:	12004001 	andne	r4, r0, #1
    3054:	01501aa0 	cmpeq	r0, r0, lsr #21
    3058:	00001717 	andeq	r1, r0, r7, lsl r7
    305c:	0000132b 	andeq	r1, r0, fp, lsr #6
    3060:	03500113 	cmpeq	r0, #-1073741820	; 0xc0000004
    3064:	1311800a 	tstne	r1, #10
    3068:	91035101 	tstls	r3, r1, lsl #2
    306c:	01137af0 			; <UNDEFINED> instruction: 0x01137af0
    3070:	00400152 	subeq	r0, r0, r2, asr r1
    3074:	501aa812 	andspl	sl, sl, r2, lsl r8
    3078:	00177f01 	andseq	r7, r7, r1, lsl #30
    307c:	00134000 	andseq	r4, r3, r0
    3080:	50011300 	andpl	r1, r1, r0, lsl #6
    3084:	0da20a03 	stceq	10, cr0, [r2, #12]!
    3088:	1ab41200 	bne	fed07890 <__bss_end__+0xfd7f3e78>
    308c:	177f0150 			; <UNDEFINED> instruction: 0x177f0150
    3090:	13550000 	cmpne	r5, #0
    3094:	01130000 	tsteq	r3, r0
    3098:	a40a0350 	strge	r0, [sl], #-848	; 0x350
    309c:	c012000d 	andsgt	r0, r2, sp
    30a0:	7f01501a 	svcvc	0x0001501a
    30a4:	6a000017 	bvs	3108 <_back_addr-0x14fcef8>
    30a8:	13000013 	movwne	r0, #19
    30ac:	0a035001 	beq	d70b8 <_back_addr-0x1428f48>
    30b0:	12000da6 	andne	r0, r0, #10624	; 0x2980
    30b4:	01501acc 	cmpeq	r0, ip, asr #21
    30b8:	0000177f 	andeq	r1, r0, pc, ror r7
    30bc:	0000137f 	andeq	r1, r0, pc, ror r3
    30c0:	03500113 	cmpeq	r0, #-1073741820	; 0xc0000004
    30c4:	000daf0a 	andeq	sl, sp, sl, lsl #30
    30c8:	501ad812 	andspl	sp, sl, r2, lsl r8
    30cc:	00177f01 	andseq	r7, r7, r1, lsl #30
    30d0:	00139400 	andseq	r9, r3, r0, lsl #8
    30d4:	50011300 	andpl	r1, r1, r0, lsl #6
    30d8:	0db00a03 	ldceq	10, cr0, [r0, #12]!
    30dc:	1ae41200 	bne	ff9078e4 <__bss_end__+0xfe3f3ecc>
    30e0:	177f0150 			; <UNDEFINED> instruction: 0x177f0150
    30e4:	13a90000 			; <UNDEFINED> instruction: 0x13a90000
    30e8:	01130000 	tsteq	r3, r0
    30ec:	b10a0350 	tstlt	sl, r0, asr r3
    30f0:	f012000d 			; <UNDEFINED> instruction: 0xf012000d
    30f4:	7f01501a 	svcvc	0x0001501a
    30f8:	be000017 	mcrlt	0, 0, r0, cr0, cr7, {0}
    30fc:	13000013 	movwne	r0, #19
    3100:	0a035001 	beq	d710c <_back_addr-0x1428ef4>
    3104:	12000db2 	andne	r0, r0, #11392	; 0x2c80
    3108:	01501afc 	ldrsheq	r1, [r0, #-172]	; 0xffffff54
    310c:	0000177f 	andeq	r1, r0, pc, ror r7
    3110:	000013d3 	ldrdeq	r1, [r0], -r3
    3114:	03500113 	cmpeq	r0, #-1073741820	; 0xc0000004
    3118:	000db30a 	andeq	fp, sp, sl, lsl #6
    311c:	501b0812 	andspl	r0, fp, r2, lsl r8
    3120:	00177f01 	andseq	r7, r7, r1, lsl #30
    3124:	0013e800 	andseq	lr, r3, r0, lsl #16
    3128:	50011300 	andpl	r1, r1, r0, lsl #6
    312c:	0db40a03 	ldceq	10, cr0, [r4, #12]!
    3130:	1b141200 	blne	507938 <_back_addr-0xff86c8>
    3134:	177f0150 			; <UNDEFINED> instruction: 0x177f0150
    3138:	13fd0000 	mvnsne	r0, #0
    313c:	01130000 	tsteq	r3, r0
    3140:	b50a0350 	strlt	r0, [sl, #-848]	; 0x350
    3144:	2012000d 	andscs	r0, r2, sp
    3148:	7f01501b 	svcvc	0x0001501b
    314c:	12000017 	andne	r0, r0, #23
    3150:	13000014 	movwne	r0, #20
    3154:	0a035001 	beq	d7160 <_back_addr-0x1428ea0>
    3158:	12000db6 	andne	r0, r0, #11648	; 0x2d80
    315c:	01501b2c 	cmpeq	r0, ip, lsr #22
    3160:	0000177f 	andeq	r1, r0, pc, ror r7
    3164:	00001427 	andeq	r1, r0, r7, lsr #8
    3168:	03500113 	cmpeq	r0, #-1073741820	; 0xc0000004
    316c:	000db70a 	andeq	fp, sp, sl, lsl #14
    3170:	501b3812 	andspl	r3, fp, r2, lsl r8
    3174:	00177f01 	andseq	r7, r7, r1, lsl #30
    3178:	00143c00 	andseq	r3, r4, r0, lsl #24
    317c:	50011300 	andpl	r1, r1, r0, lsl #6
    3180:	0db80a03 	ldceq	10, cr0, [r8, #12]!
    3184:	1b441200 	blne	110798c <_back_addr-0x3f8674>
    3188:	177f0150 			; <UNDEFINED> instruction: 0x177f0150
    318c:	14510000 	ldrbne	r0, [r1], #-0
    3190:	01130000 	tsteq	r3, r0
    3194:	ba0a0350 	blt	283edc <_back_addr-0x127c124>
    3198:	5012000d 	andspl	r0, r2, sp
    319c:	7f01501b 	svcvc	0x0001501b
    31a0:	66000017 			; <UNDEFINED> instruction: 0x66000017
    31a4:	13000014 	movwne	r0, #20
    31a8:	0a035001 	beq	d71b4 <_back_addr-0x1428e4c>
    31ac:	12000dbb 	andne	r0, r0, #11968	; 0x2ec0
    31b0:	01501b5c 	cmpeq	r0, ip, asr fp
    31b4:	0000177f 	andeq	r1, r0, pc, ror r7
    31b8:	0000147b 	andeq	r1, r0, fp, ror r4
    31bc:	03500113 	cmpeq	r0, #-1073741820	; 0xc0000004
    31c0:	000dc20a 	andeq	ip, sp, sl, lsl #4
    31c4:	501b6812 	andspl	r6, fp, r2, lsl r8
    31c8:	00177f01 	andseq	r7, r7, r1, lsl #30
    31cc:	00149000 	andseq	r9, r4, r0
    31d0:	50011300 	andpl	r1, r1, r0, lsl #6
    31d4:	0e0b0a03 	vmlaeq.f32	s0, s22, s6
    31d8:	1b741200 	blne	1d079e0 <__bss_end__+0x7f3fc8>
    31dc:	177f0150 			; <UNDEFINED> instruction: 0x177f0150
    31e0:	14a50000 	strtne	r0, [r5], #0
    31e4:	01130000 	tsteq	r3, r0
    31e8:	0c0a0350 	stceq	3, cr0, [sl], {80}	; 0x50
    31ec:	8012000e 	andshi	r0, r2, lr
    31f0:	7f01501b 	svcvc	0x0001501b
    31f4:	ba000017 	blt	3258 <_back_addr-0x14fcda8>
    31f8:	13000014 	movwne	r0, #20
    31fc:	0a035001 	beq	d7208 <_back_addr-0x1428df8>
    3200:	12000e0e 	andne	r0, r0, #14, 28	; 0xe0
    3204:	01501b8c 	cmpeq	r0, ip, lsl #23
    3208:	0000177f 	andeq	r1, r0, pc, ror r7
    320c:	000014cf 	andeq	r1, r0, pc, asr #9
    3210:	03500113 	cmpeq	r0, #-1073741820	; 0xc0000004
    3214:	000e230a 	andeq	r2, lr, sl, lsl #6
    3218:	501b9812 	andspl	r9, fp, r2, lsl r8
    321c:	00177f01 	andseq	r7, r7, r1, lsl #30
    3220:	0014e400 	andseq	lr, r4, r0, lsl #8
    3224:	50011300 	andpl	r1, r1, r0, lsl #6
    3228:	0e240a03 	vmuleq.f32	s0, s8, s6
    322c:	1bb01200 	blne	fec07a34 <__bss_end__+0xfd6f401c>
    3230:	17910150 			; <UNDEFINED> instruction: 0x17910150
    3234:	150b0000 	strne	r0, [fp, #-0]
    3238:	01130000 	tsteq	r3, r0
    323c:	f0910350 			; <UNDEFINED> instruction: 0xf0910350
    3240:	51011377 	tstpl	r1, r7, ror r3
    3244:	01a50a03 			; <UNDEFINED> instruction: 0x01a50a03
    3248:	02520113 	subseq	r0, r2, #-1073741820	; 0xc0000004
    324c:	0113007d 	tsteq	r3, sp, ror r0
    3250:	00300153 	eorseq	r0, r0, r3, asr r1
    3254:	501bc412 	andspl	ip, fp, r2, lsl r4
    3258:	00174b01 	andseq	r4, r7, r1, lsl #22
    325c:	00153000 	andseq	r3, r5, r0
    3260:	50011300 	andpl	r1, r1, r0, lsl #6
    3264:	2fb00305 	svccs	0x00b00305
    3268:	01130150 	tsteq	r3, r0, asr r1
    326c:	f0910351 			; <UNDEFINED> instruction: 0xf0910351
    3270:	52011377 	andpl	r1, r1, #-603979775	; 0xdc000001
    3274:	01a50a03 			; <UNDEFINED> instruction: 0x01a50a03
    3278:	1bd81200 	blne	ff607a80 <__bss_end__+0xfe0f4068>
    327c:	174b0150 	smlsldne	r0, fp, r0, r1
    3280:	15530000 	ldrbne	r0, [r3, #-0]
    3284:	01130000 	tsteq	r3, r0
    3288:	bc030550 	cfstr32lt	mvfx0, [r3], {80}	; 0x50
    328c:	1301502f 	movwne	r5, #4143	; 0x102f
    3290:	7d025101 	stfvcs	f5, [r2, #-4]
    3294:	52011300 	andpl	r1, r1, #0, 6
    3298:	00200802 	eoreq	r0, r0, r2, lsl #16
    329c:	501bdc1a 	andspl	sp, fp, sl, lsl ip
    32a0:	0016fe01 	andseq	pc, r6, r1, lsl #28
    32a4:	1bec1200 	blne	ffb07aac <__bss_end__+0xfe5f4094>
    32a8:	17050150 	smlsdne	r5, r0, r1, r0
    32ac:	157d0000 	ldrbne	r0, [sp, #-0]!
    32b0:	01130000 	tsteq	r3, r0
    32b4:	000a0350 	andeq	r0, sl, r0, asr r3
    32b8:	51011312 	tstpl	r1, r2, lsl r3
    32bc:	13200802 	teqne	r0, #131072	; 0x20000
    32c0:	7d025201 	sfmvc	f5, 4, [r2, #-4]
    32c4:	f01a0000 			; <UNDEFINED> instruction: 0xf01a0000
    32c8:	fe01501b 	mcr2	0, 0, r5, cr1, cr11, {0}
    32cc:	1a000016 	bne	332c <_back_addr-0x14fccd4>
    32d0:	01501c4c 	cmpeq	r0, ip, asr #24
    32d4:	000016fe 	strdeq	r1, [r0], -lr
    32d8:	501c5c12 	andspl	r5, ip, r2, lsl ip
    32dc:	0016dd01 	andseq	sp, r6, r1, lsl #26
    32e0:	0015b000 	andseq	fp, r5, r0
    32e4:	50011300 	andpl	r1, r1, r0, lsl #6
    32e8:	77f09103 	ldrbvc	r9, [r0, r3, lsl #2]!
    32ec:	01510113 	cmpeq	r1, r3, lsl r1
    32f0:	52011330 	andpl	r1, r1, #48, 6	; 0xc0000000
    32f4:	04000a03 	streq	r0, [r0], #-2563	; 0xa03
    32f8:	1c6c1200 	sfmne	f1, 2, [ip], #-0
    32fc:	16dd0150 			; <UNDEFINED> instruction: 0x16dd0150
    3300:	15d00000 	ldrbne	r0, [r0]
    3304:	01130000 	tsteq	r3, r0
    3308:	007d0250 	rsbseq	r0, sp, r0, asr r2
    330c:	01510113 	cmpeq	r1, r3, lsl r1
    3310:	52011330 	andpl	r1, r1, #48, 6	; 0xc0000000
    3314:	01000a03 	tsteq	r0, r3, lsl #20
    3318:	1c7c1400 	cfldrdne	mvd1, [ip], #-0
    331c:	16dd0150 			; <UNDEFINED> instruction: 0x16dd0150
    3320:	01130000 	tsteq	r3, r0
    3324:	f0910350 			; <UNDEFINED> instruction: 0xf0910350
    3328:	51011375 	tstpl	r1, r5, ror r3
    332c:	01133001 	tsteq	r3, r1
    3330:	000a0352 	andeq	r0, sl, r2, asr r3
    3334:	15000001 	strne	r0, [r0, #-1]
    3338:	00000033 	andeq	r0, r0, r3, lsr r0
    333c:	000015ff 	strdeq	r1, [r0], -pc	; <UNPREDICTABLE>
    3340:	00002c16 	andeq	r2, r0, r6, lsl ip
    3344:	0003ff00 	andeq	pc, r3, r0, lsl #30
    3348:	00003315 	andeq	r3, r0, r5, lsl r3
    334c:	00160f00 	andseq	r0, r6, r0, lsl #30
    3350:	002c1700 	eoreq	r1, ip, r0, lsl #14
    3354:	00ff0000 	rscseq	r0, pc, r0
    3358:	0007732a 	andeq	r7, r7, sl, lsr #6
    335c:	02c70100 	sbceq	r0, r7, #0, 2
    3360:	0000004f 	andeq	r0, r0, pc, asr #32
    3364:	01501c98 			; <UNDEFINED> instruction: 0x01501c98
    3368:	00000008 	andeq	r0, r0, r8
    336c:	164d9c01 	strbne	r9, [sp], -r1, lsl #24
    3370:	80190000 	andshi	r0, r9, r0
    3374:	01000007 	tsteq	r0, r7
    3378:	004f0293 	umaaleq	r0, pc, r3, r2	; <UNPREDICTABLE>
    337c:	163b0000 	ldrtne	r0, [fp], -r0
    3380:	00100000 	andseq	r0, r0, r0
    3384:	501ca02b 	andspl	sl, ip, fp, lsr #32
    3388:	00177f01 	andseq	r7, r7, r1, lsl #30
    338c:	50011300 	andpl	r1, r1, r0, lsl #6
    3390:	0da60a03 	stceq	10, cr0, [r6, #12]!
    3394:	33150000 	tstcc	r5, #0
    3398:	5d000000 	stcpl	0, cr0, [r0, #-0]
    339c:	17000016 	smladne	r0, r6, r0, r0
    33a0:	0000002c 	andeq	r0, r0, ip, lsr #32
    33a4:	bc2c003f 	stclt	0, cr0, [ip], #-252	; 0xffffff04
    33a8:	01000003 	tsteq	r0, r3
    33ac:	00164d04 	andseq	r4, r6, r4, lsl #26
    33b0:	026e2c00 	rsbeq	r2, lr, #0, 24
    33b4:	05010000 	streq	r0, [r1, #-0]
    33b8:	000015ee 	andeq	r1, r0, lr, ror #11
    33bc:	0003002c 	andeq	r0, r3, ip, lsr #32
    33c0:	33060100 	movwcc	r0, #24832	; 0x6100
    33c4:	2d000000 	stccs	0, cr0, [r0, #-0]
    33c8:	00000508 	andeq	r0, r0, r8, lsl #10
    33cc:	004f8804 	subeq	r8, pc, r4, lsl #16
    33d0:	16a20000 	strtne	r0, [r2], r0
    33d4:	252e0000 	strcs	r0, [lr, #-0]!
    33d8:	2e000003 	cdpcs	0, 0, cr0, cr0, cr3, {0}
    33dc:	00000025 	andeq	r0, r0, r5, lsr #32
    33e0:	0003252e 	andeq	r2, r3, lr, lsr #10
    33e4:	16a22e00 	strtne	r2, [r2], r0, lsl #28
    33e8:	05000000 	streq	r0, [r0, #-0]
    33ec:	00002504 	andeq	r2, r0, r4, lsl #10
    33f0:	064b0f00 	strbeq	r0, [fp], -r0, lsl #30
    33f4:	75010000 	strvc	r0, [r1, #-0]
    33f8:	0000004f 	andeq	r0, r0, pc, asr #32
    33fc:	000016b9 			; <UNDEFINED> instruction: 0x000016b9
    3400:	3b2d0010 	blcc	b43448 <_back_addr-0x9bcbb8>
    3404:	04000006 	streq	r0, [r0], #-6
    3408:	00004f89 	andeq	r4, r0, r9, lsl #31
    340c:	0016dd00 	andseq	sp, r6, r0, lsl #26
    3410:	03252e00 	teqeq	r5, #0, 28
    3414:	252e0000 	strcs	r0, [lr, #-0]!
    3418:	2e000000 	cdpcs	0, 0, cr0, cr0, cr0, {0}
    341c:	00000325 	andeq	r0, r0, r5, lsr #6
    3420:	0016a22e 	andseq	sl, r6, lr, lsr #4
    3424:	a62d0000 	strtge	r0, [sp], -r0
    3428:	03000006 	movweq	r0, #6
    342c:	0016fc88 	andseq	pc, r6, r8, lsl #25
    3430:	0016fc00 	andseq	pc, r6, r0, lsl #24
    3434:	16fc2e00 	ldrbtne	r2, [ip], r0, lsl #28
    3438:	4f2e0000 	svcmi	0x002e0000
    343c:	2e000000 	cdpcs	0, 0, cr0, cr0, cr0, {0}
    3440:	0000006b 	andeq	r0, r0, fp, rrx
    3444:	30042f00 	andcc	r2, r4, r0, lsl #30
    3448:	000003c6 	andeq	r0, r0, r6, asr #7
    344c:	1f197303 	svcne	0x00197303
    3450:	01000007 	tsteq	r0, r7
    3454:	004f0248 	subeq	r0, pc, r8, asr #4
    3458:	17170000 	ldrne	r0, [r7, -r0]
    345c:	00100000 	andseq	r0, r0, r0
    3460:	00070d0f 	andeq	r0, r7, pc, lsl #26
    3464:	4fd70100 	svcmi	0x00d70100
    3468:	28000000 	stmdacs	r0, {}	; <UNPREDICTABLE>
    346c:	10000017 	andne	r0, r0, r7, lsl r0
    3470:	030e1900 	movweq	r1, #59648	; 0xe900
    3474:	7a010000 	bvc	4347c <_back_addr-0x14bcb84>
    3478:	00004f02 	andeq	r4, r0, r2, lsl #30
    347c:	00173a00 	andseq	r3, r7, r0, lsl #20
    3480:	0f001000 	svceq	0x00001000
    3484:	0000027d 	andeq	r0, r0, sp, ror r2
    3488:	004f7301 	subeq	r7, pc, r1, lsl #6
    348c:	174b0000 	strbne	r0, [fp, -r0]
    3490:	00100000 	andseq	r0, r0, r0
    3494:	00028431 	andeq	r8, r2, r1, lsr r4
    3498:	66870300 	strvs	r0, [r7], r0, lsl #6
    349c:	2e000017 	mcrcs	0, 0, r0, cr0, cr7, {0}
    34a0:	00000076 	andeq	r0, r0, r6, ror r0
    34a4:	0017662e 	andseq	r6, r7, lr, lsr #12
    34a8:	00252e00 	eoreq	r2, r5, r0, lsl #28
    34ac:	05000000 	streq	r0, [r0, #-0]
    34b0:	00176c04 	andseq	r6, r7, r4, lsl #24
    34b4:	b0193200 	andslt	r3, r9, r0, lsl #4
    34b8:	01000002 	tsteq	r0, r2
    34bc:	004f02b5 	strheq	r0, [pc], #-37	; <UNPREDICTABLE>
    34c0:	177f0000 	ldrbne	r0, [pc, -r0]!
    34c4:	00100000 	andseq	r0, r0, r0
    34c8:	00078019 	andeq	r8, r7, r9, lsl r0
    34cc:	02930100 	addseq	r0, r3, #0, 2
    34d0:	0000004f 	andeq	r0, r0, pc, asr #32
    34d4:	00001791 	muleq	r0, r1, r7
    34d8:	ec330010 	ldc	0, cr0, [r3], #-64	; 0xffffffc0
    34dc:	04000004 	streq	r0, [r0], #-4
    34e0:	00004f8d 	andeq	r4, r0, sp, lsl #31
    34e4:	03252e00 	teqeq	r5, #0, 28
    34e8:	252e0000 	strcs	r0, [lr, #-0]!
    34ec:	2e000000 	cdpcs	0, 0, cr0, cr0, cr0, {0}
    34f0:	00000325 	andeq	r0, r0, r5, lsr #6
    34f4:	0016a22e 	andseq	sl, r6, lr, lsr #4
    34f8:	eb000000 	bl	3500 <_back_addr-0x14fcb00>
    34fc:	04000002 	streq	r0, [r0], #-2
    3500:	000ab500 	andeq	fp, sl, r0, lsl #10
    3504:	af010400 	svcge	0x00010400
    3508:	01000000 	mrseq	r0, (UNDEF: 0)
    350c:	000007b2 			; <UNDEFINED> instruction: 0x000007b2
    3510:	00000455 	andeq	r0, r0, r5, asr r4
    3514:	01501ca0 	cmpeq	r0, r0, lsr #25
    3518:	00000168 	andeq	r0, r0, r8, ror #2
    351c:	00000aad 	andeq	r0, r0, sp, lsr #21
    3520:	00081c02 	andeq	r1, r8, r2, lsl #24
    3524:	30b00200 	adcscc	r0, r0, r0, lsl #4
    3528:	03000000 	movweq	r0, #0
    352c:	00100801 	andseq	r0, r0, r1, lsl #16
    3530:	01030000 	mrseq	r0, (UNDEF: 3)
    3534:	00001206 	andeq	r1, r0, r6, lsl #4
    3538:	07020300 	streq	r0, [r2, -r0, lsl #6]
    353c:	0000001e 	andeq	r0, r0, lr, lsl r0
    3540:	a5050203 	strge	r0, [r5, #-515]	; 0x203
    3544:	02000000 	andeq	r0, r0, #0
    3548:	00000276 	andeq	r0, r0, r6, ror r2
    354c:	0057b402 	subseq	fp, r7, r2, lsl #8
    3550:	04030000 	streq	r0, [r3], #-0
    3554:	00003b07 	andeq	r3, r0, r7, lsl #22
    3558:	05040400 	streq	r0, [r4, #-1024]	; 0x400
    355c:	00746e69 	rsbseq	r6, r4, r9, ror #28
    3560:	31070803 	tstcc	r7, r3, lsl #16
    3564:	03000000 	movweq	r0, #0
    3568:	00480508 	subeq	r0, r8, r8, lsl #10
    356c:	9f020000 	svcls	0x00020000
    3570:	02000007 	andeq	r0, r0, #7
    3574:	000025b8 			; <UNDEFINED> instruction: 0x000025b8
    3578:	07040300 	streq	r0, [r4, -r0, lsl #6]
    357c:	00000036 	andeq	r0, r0, r6, lsr r0
    3580:	00081205 	andeq	r1, r8, r5, lsl #4
    3584:	4c130100 	ldfmis	f0, [r3], {-0}
    3588:	01000000 	mrseq	r0, (UNDEF: 0)
    358c:	000000ac 	andeq	r0, r0, ip, lsr #1
    3590:	0007c706 	andeq	ip, r7, r6, lsl #14
    3594:	57130100 	ldrpl	r0, [r3, -r0, lsl #2]
    3598:	06000000 	streq	r0, [r0], -r0
    359c:	0000080b 	andeq	r0, r0, fp, lsl #16
    35a0:	00571301 	subseq	r1, r7, r1, lsl #6
    35a4:	05000000 	streq	r0, [r0, #-0]
    35a8:	000007a4 	andeq	r0, r0, r4, lsr #15
    35ac:	00733d01 	rsbseq	r3, r3, r1, lsl #26
    35b0:	de010000 	cdple	0, 0, cr0, cr1, cr0, {0}
    35b4:	06000000 	streq	r0, [r0], -r0
    35b8:	000007c7 	andeq	r0, r0, r7, asr #15
    35bc:	004c3d01 	subeq	r3, ip, r1, lsl #26
    35c0:	fb060000 	blx	1835ca <_back_addr-0x137ca36>
    35c4:	01000007 	tsteq	r0, r7
    35c8:	00004c3d 	andeq	r4, r0, sp, lsr ip
    35cc:	08010700 	stmdaeq	r1, {r8, r9, sl}
    35d0:	3f010000 	svccc	0x00010000
    35d4:	00000073 	andeq	r0, r0, r3, ror r0
    35d8:	00850800 	addeq	r0, r5, r0, lsl #16
    35dc:	1ca00000 	stcne	0, cr0, [r0]
    35e0:	00580150 	subseq	r0, r8, r0, asr r1
    35e4:	9c010000 	stcls	0, cr0, [r1], {-0}
    35e8:	00000118 	andeq	r0, r0, r8, lsl r1
    35ec:	00009509 	andeq	r9, r0, r9, lsl #10
    35f0:	0020bc00 	eoreq	fp, r0, r0, lsl #24
    35f4:	00a00a00 	adceq	r0, r0, r0, lsl #20
    35f8:	51010000 	mrspl	r0, (UNDEF: 1)
    35fc:	0004600b 	andeq	r6, r4, fp
    3600:	00a00a00 	adceq	r0, r0, r0, lsl #20
    3604:	51010000 	mrspl	r0, (UNDEF: 1)
    3608:	00009509 	andeq	r9, r0, r9, lsl #10
    360c:	00210300 	eoreq	r0, r1, r0, lsl #6
    3610:	0c000000 	stceq	0, cr0, [r0], {-0}
    3614:	000007ba 			; <UNDEFINED> instruction: 0x000007ba
    3618:	004c2e01 	subeq	r2, ip, r1, lsl #28
    361c:	1cf80000 	ldclne	0, cr0, [r8]
    3620:	002c0150 	eoreq	r0, ip, r0, asr r1
    3624:	9c010000 	stcls	0, cr0, [r1], {-0}
    3628:	00000141 	andeq	r0, r0, r1, asr #2
    362c:	0007c70d 	andeq	ip, r7, sp, lsl #14
    3630:	4c2e0100 	stfmis	f0, [lr], #-0
    3634:	31000000 	mrscc	r0, (UNDEF: 0)
    3638:	00000021 	andeq	r0, r0, r1, lsr #32
    363c:	0000ac08 	andeq	sl, r0, r8, lsl #24
    3640:	501d2400 	andspl	r2, sp, r0, lsl #8
    3644:	00003001 	andeq	r3, r0, r1
    3648:	949c0100 	ldrls	r0, [ip], #256	; 0x100
    364c:	09000001 	stmdbeq	r0, {r0}
    3650:	000000bc 	strheq	r0, [r0], -ip
    3654:	00002152 	andeq	r2, r0, r2, asr r1
    3658:	0000c70a 	andeq	ip, r0, sl, lsl #14
    365c:	0e510100 	rdfeqs	f0, f1, f0
    3660:	000000d2 	ldrdeq	r0, [r0], -r2
    3664:	1d340f00 	ldcne	15, cr0, [r4, #-0]
    3668:	00140150 	andseq	r0, r4, r0, asr r1
    366c:	c70a0000 	strgt	r0, [sl, -r0]
    3670:	01000000 	mrseq	r0, (UNDEF: 0)
    3674:	00bc0951 	adcseq	r0, ip, r1, asr r9
    3678:	218c0000 	orrcs	r0, ip, r0
    367c:	340f0000 	strcc	r0, [pc], #-0	; 3684 <_back_addr-0x14fc97c>
    3680:	1401501d 	strne	r5, [r1], #-29
    3684:	10000000 	andne	r0, r0, r0
    3688:	000000d2 	ldrdeq	r0, [r0], -r2
    368c:	11000000 	mrsne	r0, (UNDEF: 0)
    3690:	0000065c 	andeq	r0, r0, ip, asr r6
    3694:	1d545e01 	ldclne	14, cr5, [r4, #-4]
    3698:	005c0150 	subseq	r0, ip, r0, asr r1
    369c:	9c010000 	stcls	0, cr0, [r1], {-0}
    36a0:	00000243 	andeq	r0, r0, r3, asr #4
    36a4:	0007d60d 	andeq	sp, r7, sp, lsl #12
    36a8:	575e0100 	ldrbpl	r0, [lr, -r0, lsl #2]
    36ac:	ba000000 	blt	36b4 <_back_addr-0x14fc94c>
    36b0:	12000021 	andne	r0, r0, #33	; 0x21
    36b4:	000007f1 	strdeq	r0, [r0], -r1
    36b8:	004c6001 	subeq	r6, ip, r1
    36bc:	21db0000 	bicscs	r0, fp, r0
    36c0:	85130000 	ldrhi	r0, [r3, #-0]
    36c4:	68000000 	stmdavs	r0, {}	; <UNPREDICTABLE>
    36c8:	7801501d 	stmdavc	r1, {r0, r2, r3, r4, ip, lr}
    36cc:	01000004 	tsteq	r0, r4
    36d0:	0001fb68 	andeq	pc, r1, r8, ror #22
    36d4:	00a00a00 	adceq	r0, r0, r0, lsl #20
    36d8:	51010000 	mrspl	r0, (UNDEF: 1)
    36dc:	00009514 	andeq	r9, r0, r4, lsl r5
    36e0:	780b0000 	stmdavc	fp, {}	; <UNPREDICTABLE>
    36e4:	0a000004 	beq	36fc <_back_addr-0x14fc904>
    36e8:	000000a0 	andeq	r0, r0, r0, lsr #1
    36ec:	95145101 	ldrls	r5, [r4, #-257]	; 0x101
    36f0:	00000000 	andeq	r0, r0, r0
    36f4:	ac150000 	ldcge	0, cr0, [r5], {-0}
    36f8:	84000000 	strhi	r0, [r0], #-0
    36fc:	9801501d 	stmdals	r1, {r0, r2, r3, r4, ip, lr}
    3700:	01000004 	tsteq	r0, r4
    3704:	00c70a6b 	sbceq	r0, r7, fp, ror #20
    3708:	51010000 	mrspl	r0, (UNDEF: 1)
    370c:	0000bc14 	andeq	fp, r0, r4, lsl ip
    3710:	980b0000 	stmdals	fp, {}	; <UNPREDICTABLE>
    3714:	0e000004 	cdpeq	0, 0, cr0, cr0, cr4, {0}
    3718:	000000d2 	ldrdeq	r0, [r0], -r2
    371c:	04980b00 	ldreq	r0, [r8], #2816	; 0xb00
    3720:	c70a0000 	strgt	r0, [sl, -r0]
    3724:	01000000 	mrseq	r0, (UNDEF: 0)
    3728:	00bc1451 	adcseq	r1, ip, r1, asr r4
    372c:	0b000000 	bleq	3734 <_back_addr-0x14fc8cc>
    3730:	00000498 	muleq	r0, r8, r4
    3734:	0000d210 	andeq	sp, r0, r0, lsl r2
    3738:	00000000 	andeq	r0, r0, r0
    373c:	cf160000 	svcgt	0x00160000
    3740:	01000007 	tsteq	r0, r7
    3744:	501db06d 	andspl	fp, sp, sp, rrx
    3748:	00005801 	andeq	r5, r0, r1, lsl #16
    374c:	0d9c0100 	ldfeqs	f0, [ip]
    3750:	000007e3 	andeq	r0, r0, r3, ror #15
    3754:	00576d01 	subseq	r6, r7, r1, lsl #26
    3758:	21fa0000 	mvnscs	r0, r0
    375c:	f1120000 			; <UNDEFINED> instruction: 0xf1120000
    3760:	01000007 	tsteq	r0, r7
    3764:	00004c6f 	andeq	r4, r0, pc, ror #24
    3768:	00221b00 	eoreq	r1, r2, r0, lsl #22
    376c:	00851300 	addeq	r1, r5, r0, lsl #6
    3770:	1dc00000 	stclne	0, cr0, [r0]
    3774:	04b00150 	ldrteq	r0, [r0], #336	; 0x150
    3778:	75010000 	strvc	r0, [r1, #-0]
    377c:	000002a6 	andeq	r0, r0, r6, lsr #5
    3780:	0000a00a 	andeq	sl, r0, sl
    3784:	14510100 	ldrbne	r0, [r1], #-256	; 0x100
    3788:	00000095 	muleq	r0, r5, r0
    378c:	04b00b00 	ldrteq	r0, [r0], #2816	; 0xb00
    3790:	a00a0000 	andge	r0, sl, r0
    3794:	01000000 	mrseq	r0, (UNDEF: 0)
    3798:	00951451 	addseq	r1, r5, r1, asr r4
    379c:	00000000 	andeq	r0, r0, r0
    37a0:	00ac1500 	adceq	r1, ip, r0, lsl #10
    37a4:	1ddc0000 	ldclne	0, cr0, [ip]
    37a8:	04d00150 	ldrbeq	r0, [r0], #336	; 0x150
    37ac:	78010000 	stmdavc	r1, {}	; <UNPREDICTABLE>
    37b0:	0000c70a 	andeq	ip, r0, sl, lsl #14
    37b4:	14510100 	ldrbne	r0, [r1], #-256	; 0x100
    37b8:	000000bc 	strheq	r0, [r0], -ip
    37bc:	04d00b00 	ldrbeq	r0, [r0], #2816	; 0xb00
    37c0:	d20e0000 	andle	r0, lr, #0
    37c4:	00000000 	andeq	r0, r0, r0
    37c8:	0004d00b 	andeq	sp, r4, fp
    37cc:	00c70a00 	sbceq	r0, r7, r0, lsl #20
    37d0:	51010000 	mrspl	r0, (UNDEF: 1)
    37d4:	0000bc14 	andeq	fp, r0, r4, lsl ip
    37d8:	d00b0000 	andle	r0, fp, r0
    37dc:	10000004 	andne	r0, r0, r4
    37e0:	000000d2 	ldrdeq	r0, [r0], -r2
    37e4:	00000000 	andeq	r0, r0, r0
    37e8:	0d500000 	ldcleq	0, cr0, [r0, #-0]
    37ec:	00040000 	andeq	r0, r4, r0
    37f0:	00000bf4 	strdeq	r0, [r0], -r4
    37f4:	00af0104 	adceq	r0, pc, r4, lsl #2
    37f8:	74010000 	strvc	r0, [r1], #-0
    37fc:	55000008 	strpl	r0, [r0, #-8]
    3800:	08000004 	stmdaeq	r0, {r2}
    3804:	c801501e 	stmdagt	r1, {r1, r2, r3, r4, ip, lr}
    3808:	c4000004 	strgt	r0, [r0], #-4
    380c:	0200000b 	andeq	r0, r0, #11
    3810:	0000081c 	andeq	r0, r0, ip, lsl r8
    3814:	0030b002 	eorseq	fp, r0, r2
    3818:	01030000 	mrseq	r0, (UNDEF: 3)
    381c:	00001008 	andeq	r1, r0, r8
    3820:	06010300 	streq	r0, [r1], -r0, lsl #6
    3824:	00000012 	andeq	r0, r0, r2, lsl r0
    3828:	1e070203 	cdpne	2, 0, cr0, cr7, cr3, {0}
    382c:	03000000 	movweq	r0, #0
    3830:	00a50502 	adceq	r0, r5, r2, lsl #10
    3834:	76020000 	strvc	r0, [r2], -r0
    3838:	02000002 	andeq	r0, r0, #2
    383c:	000057b4 			; <UNDEFINED> instruction: 0x000057b4
    3840:	07040300 	streq	r0, [r4, -r0, lsl #6]
    3844:	0000003b 	andeq	r0, r0, fp, lsr r0
    3848:	69050404 	stmdbvs	r5, {r2, sl}
    384c:	0300746e 	movweq	r7, #1134	; 0x46e
    3850:	00310708 	eorseq	r0, r1, r8, lsl #14
    3854:	08030000 	stmdaeq	r3, {}	; <UNPREDICTABLE>
    3858:	00004805 	andeq	r4, r0, r5, lsl #16
    385c:	07040300 	streq	r0, [r4, -r0, lsl #6]
    3860:	00000036 	andeq	r0, r0, r6, lsr r0
    3864:	0006cf02 	andeq	ip, r6, r2, lsl #30
    3868:	73e50200 	mvnvc	r0, #0, 4
    386c:	05000000 	streq	r0, [r0, #-0]
    3870:	00008b04 	andeq	r8, r0, r4, lsl #22
    3874:	00900600 	addseq	r0, r0, r0, lsl #12
    3878:	01030000 	mrseq	r0, (UNDEF: 3)
    387c:	00001908 	andeq	r1, r0, r8, lsl #18
    3880:	03040700 	movweq	r0, #18176	; 0x4700
    3884:	0000be2f 	andeq	fp, r0, pc, lsr #28
    3888:	4c440800 	mcrrmi	8, 0, r0, r4, cr0
    388c:	3203004c 	andcc	r0, r3, #76	; 0x4c
    3890:	0000004c 	andeq	r0, r0, ip, asr #32
    3894:	00180804 	andseq	r0, r8, r4, lsl #16
    3898:	00084709 	andeq	r4, r8, r9, lsl #14
    389c:	4c330300 	ldcmi	3, cr0, [r3], #-0
    38a0:	04000000 	streq	r0, [r0], #-0
    38a4:	00000018 	andeq	r0, r0, r8, lsl r0
    38a8:	37030407 	strcc	r0, [r3, -r7, lsl #8]
    38ac:	000000e5 	andeq	r0, r0, r5, ror #1
    38b0:	44425208 	strbmi	r5, [r2], #-520	; 0x208
    38b4:	4c3a0300 	ldcmi	3, cr0, [sl], #-0
    38b8:	04000000 	streq	r0, [r0], #-0
    38bc:	09001808 	stmdbeq	r0, {r3, fp, ip}
    38c0:	00000847 	andeq	r0, r0, r7, asr #16
    38c4:	004c3b03 	subeq	r3, ip, r3, lsl #22
    38c8:	18040000 	stmdane	r4, {}	; <UNPREDICTABLE>
    38cc:	07000000 	streq	r0, [r0, -r0]
    38d0:	0c3f0304 	ldceq	3, cr0, [pc], #-16	; 38c8 <_back_addr-0x14fc738>
    38d4:	08000001 	stmdaeq	r0, {r0}
    38d8:	00444854 	subeq	r4, r4, r4, asr r8
    38dc:	004c4203 	subeq	r4, ip, r3, lsl #4
    38e0:	08040000 	stmdaeq	r4, {}	; <UNPREDICTABLE>
    38e4:	47090018 	smladmi	r9, r8, r0, r0
    38e8:	03000008 	movweq	r0, #8
    38ec:	00004c43 	andeq	r4, r0, r3, asr #24
    38f0:	00180400 	andseq	r0, r8, r0, lsl #8
    38f4:	2e0a0000 	cdpcs	0, 0, cr0, cr10, cr0, {0}
    38f8:	0400000a 	streq	r0, [r0], #-10
    38fc:	01452c03 	cmpeq	r5, r3, lsl #24
    3900:	520b0000 	andpl	r0, fp, #0
    3904:	03000009 	movweq	r0, #9
    3908:	00004c2e 	andeq	r4, r0, lr, lsr #24
    390c:	0a890b00 	beq	fe246514 <__bss_end__+0xfcd32afc>
    3910:	35030000 	strcc	r0, [r3, #-0]
    3914:	00000097 	muleq	r0, r7, r0
    3918:	0008220b 	andeq	r2, r8, fp, lsl #4
    391c:	be3d0300 	cdplt	3, 3, cr0, cr13, cr0, {0}
    3920:	0b000000 	bleq	3928 <_back_addr-0x14fc6d8>
    3924:	0000082a 	andeq	r0, r0, sl, lsr #16
    3928:	00e54503 	rsceq	r4, r5, r3, lsl #10
    392c:	02000000 	andeq	r0, r0, #0
    3930:	00000a2f 	andeq	r0, r0, pc, lsr #20
    3934:	010c4703 	tsteq	ip, r3, lsl #14
    3938:	04070000 	streq	r0, [r7], #-0
    393c:	01774c03 	cmneq	r7, r3, lsl #24
    3940:	44080000 	strmi	r0, [r8], #-0
    3944:	03004d4c 	movweq	r4, #3404	; 0xd4c
    3948:	00004c4f 	andeq	r4, r0, pc, asr #24
    394c:	18080400 	stmdane	r8, {sl}
    3950:	08470900 	stmdaeq	r7, {r8, fp}^
    3954:	50030000 	andpl	r0, r3, r0
    3958:	0000004c 	andeq	r0, r0, ip, asr #32
    395c:	00001804 	andeq	r1, r0, r4, lsl #16
    3960:	03040700 	movweq	r0, #18176	; 0x4700
    3964:	0001cb53 	andeq	ip, r1, r3, asr fp
    3968:	0a6e0900 	beq	1b85d70 <__bss_end__+0x672358>
    396c:	56030000 	strpl	r0, [r3], -r0
    3970:	0000004c 	andeq	r0, r0, ip, asr #32
    3974:	001f0104 	andseq	r0, pc, r4, lsl #2
    3978:	00086e09 	andeq	r6, r8, r9, lsl #28
    397c:	4c570300 	mrrcmi	3, 0, r0, r7, cr0
    3980:	04000000 	streq	r0, [r0], #-0
    3984:	09001e01 	stmdbeq	r0, {r0, r9, sl, fp, ip}
    3988:	000008c6 	andeq	r0, r0, r6, asr #17
    398c:	004c5803 	subeq	r5, ip, r3, lsl #16
    3990:	01040000 	mrseq	r0, (UNDEF: 4)
    3994:	1309001d 	movwne	r0, #36893	; 0x901d
    3998:	0300000a 	movweq	r0, #10
    399c:	00004c59 	andeq	r4, r0, r9, asr ip
    39a0:	1c010400 	cfstrsne	mvf0, [r1], {-0}
    39a4:	08470900 	stmdaeq	r7, {r8, fp}^
    39a8:	5a030000 	bpl	c39b0 <_back_addr-0x143c650>
    39ac:	0000004c 	andeq	r0, r0, ip, asr #32
    39b0:	00001c04 	andeq	r1, r0, r4, lsl #24
    39b4:	0a020a00 	beq	861bc <_back_addr-0x1479e44>
    39b8:	03040000 	movweq	r0, #16384	; 0x4000
    39bc:	0001f949 	andeq	pc, r1, r9, asr #18
    39c0:	09520b00 	ldmdbeq	r2, {r8, r9, fp}^
    39c4:	4b030000 	blmi	c39cc <_back_addr-0x143c634>
    39c8:	0000004c 	andeq	r0, r0, ip, asr #32
    39cc:	000a890b 	andeq	r8, sl, fp, lsl #18
    39d0:	50510300 	subspl	r0, r1, r0, lsl #6
    39d4:	0b000001 	bleq	39e0 <_back_addr-0x14fc620>
    39d8:	00000822 	andeq	r0, r0, r2, lsr #16
    39dc:	01775b03 	cmneq	r7, r3, lsl #22
    39e0:	02000000 	andeq	r0, r0, #0
    39e4:	00000a03 	andeq	r0, r0, r3, lsl #20
    39e8:	01cb5d03 	biceq	r5, fp, r3, lsl #26
    39ec:	04070000 	streq	r0, [r7], #-0
    39f0:	02586203 	subseq	r6, r8, #805306368	; 0x30000000
    39f4:	40090000 	andmi	r0, r9, r0
    39f8:	03000009 	movweq	r0, #9
    39fc:	00004c65 	andeq	r4, r0, r5, ror #24
    3a00:	1f010400 	svcne	0x00010400
    3a04:	49490800 	stmdbmi	r9, {fp}^
    3a08:	67030044 	strvs	r0, [r3, -r4, asr #32]
    3a0c:	0000004c 	andeq	r0, r0, ip, asr #32
    3a10:	001c0304 	andseq	r0, ip, r4, lsl #6
    3a14:	0008d109 	andeq	sp, r8, r9, lsl #2
    3a18:	4c6d0300 	stclmi	3, cr0, [sp], #-0
    3a1c:	04000000 	streq	r0, [r0], #-0
    3a20:	09001a02 	stmdbeq	r0, {r1, r9, fp, ip}
    3a24:	000008e5 	andeq	r0, r0, r5, ror #17
    3a28:	004c6e03 	subeq	r6, ip, r3, lsl #28
    3a2c:	02040000 	andeq	r0, r4, #0
    3a30:	db090018 	blle	243a98 <_back_addr-0x12bc568>
    3a34:	03000008 	movweq	r0, #8
    3a38:	00004c71 	andeq	r4, r0, r1, ror ip
    3a3c:	00180400 	andseq	r0, r8, r0, lsl #8
    3a40:	04070000 	streq	r0, [r7], #-0
    3a44:	02ca7403 	sbceq	r7, sl, #50331648	; 0x3000000
    3a48:	4b090000 	blmi	243a50 <_back_addr-0x12bc5b0>
    3a4c:	0300000a 	movweq	r0, #10
    3a50:	00004c77 	andeq	r4, r0, r7, ror ip
    3a54:	1f010400 	svcne	0x00010400
    3a58:	0a510900 	beq	1445e60 <_back_addr-0xba1a0>
    3a5c:	7c030000 	stcvc	0, cr0, [r3], {-0}
    3a60:	0000004c 	andeq	r0, r0, ip, asr #32
    3a64:	001e0104 	andseq	r0, lr, r4, lsl #2
    3a68:	00097e09 	andeq	r7, r9, r9, lsl #28
    3a6c:	4c7e0300 	ldclmi	3, cr0, [lr], #-0
    3a70:	04000000 	streq	r0, [r0], #-0
    3a74:	09001d01 	stmdbeq	r0, {r0, r8, sl, fp, ip}
    3a78:	00000850 	andeq	r0, r0, r0, asr r8
    3a7c:	004c8003 	subeq	r8, ip, r3
    3a80:	01040000 	mrseq	r0, (UNDEF: 4)
    3a84:	d109001c 	tstle	r9, ip, lsl r0
    3a88:	03000008 	movweq	r0, #8
    3a8c:	00004c81 	andeq	r4, r0, r1, lsl #25
    3a90:	1a020400 	bne	84a98 <_back_addr-0x147b568>
    3a94:	092b0900 	stmdbeq	fp!, {r8, fp}
    3a98:	82030000 	andhi	r0, r3, #0
    3a9c:	0000004c 	andeq	r0, r0, ip, asr #32
    3aa0:	00180204 	andseq	r0, r8, r4, lsl #4
    3aa4:	0008db09 	andeq	sp, r8, r9, lsl #22
    3aa8:	4c880300 	stcmi	3, cr0, [r8], {0}
    3aac:	04000000 	streq	r0, [r0], #-0
    3ab0:	00000018 	andeq	r0, r0, r8, lsl r0
    3ab4:	00099a0a 	andeq	r9, r9, sl, lsl #20
    3ab8:	5f030400 	svcpl	0x00030400
    3abc:	000002f8 	strdeq	r0, [r0], -r8
    3ac0:	0009520b 	andeq	r5, r9, fp, lsl #4
    3ac4:	4c610300 	stclmi	3, cr0, [r1], #-0
    3ac8:	0b000000 	bleq	3ad0 <_back_addr-0x14fc530>
    3acc:	00000a89 	andeq	r0, r0, r9, lsl #21
    3ad0:	02047203 	andeq	r7, r4, #805306368	; 0x30000000
    3ad4:	220b0000 	andcs	r0, fp, #0
    3ad8:	03000008 	movweq	r0, #8
    3adc:	00025889 	andeq	r5, r2, r9, lsl #17
    3ae0:	9b020000 	blls	83ae8 <_back_addr-0x147c518>
    3ae4:	03000009 	movweq	r0, #9
    3ae8:	0002ca8b 	andeq	ip, r2, fp, lsl #21
    3aec:	03040700 	movweq	r0, #18176	; 0x4700
    3af0:	00037590 	muleq	r3, r0, r5
    3af4:	4c570800 	mrrcmi	8, 0, r0, r7, cr0
    3af8:	93030053 	movwls	r0, #12371	; 0x3053
    3afc:	0000004c 	andeq	r0, r0, ip, asr #32
    3b00:	001e0204 	andseq	r0, lr, r4, lsl #4
    3b04:	50545308 	subspl	r5, r4, r8, lsl #6
    3b08:	4c980300 	ldcmi	3, cr0, [r8], {0}
    3b0c:	04000000 	streq	r0, [r0], #-0
    3b10:	08001d01 	stmdaeq	r0, {r0, r8, sl, fp, ip}
    3b14:	004e4550 	subeq	r4, lr, r0, asr r5
    3b18:	004c9b03 	subeq	r9, ip, r3, lsl #22
    3b1c:	01040000 	mrseq	r0, (UNDEF: 4)
    3b20:	4508001c 	strmi	r0, [r8, #-28]
    3b24:	03005350 	movweq	r5, #848	; 0x350
    3b28:	00004c9c 	muleq	r0, ip, ip
    3b2c:	1a020400 	bne	84b34 <_back_addr-0x147b4cc>
    3b30:	52420800 	subpl	r0, r2, #0, 16
    3b34:	a103004b 	tstge	r3, fp, asr #32
    3b38:	0000004c 	andeq	r0, r0, ip, asr #32
    3b3c:	00190104 	andseq	r0, r9, r4, lsl #2
    3b40:	00088409 	andeq	r8, r8, r9, lsl #8
    3b44:	4ca40300 	stcmi	3, cr0, [r4]
    3b48:	04000000 	streq	r0, [r0], #-0
    3b4c:	09001801 	stmdbeq	r0, {r0, fp, ip}
    3b50:	00000847 	andeq	r0, r0, r7, asr #16
    3b54:	004ca503 	subeq	sl, ip, r3, lsl #10
    3b58:	18040000 	stmdane	r4, {}	; <UNPREDICTABLE>
    3b5c:	0a000000 	beq	3b64 <_back_addr-0x14fc49c>
    3b60:	000008b9 			; <UNDEFINED> instruction: 0x000008b9
    3b64:	988d0304 	stmls	sp, {r2, r8, r9}
    3b68:	0b000003 	bleq	3b7c <_back_addr-0x14fc484>
    3b6c:	00000952 	andeq	r0, r0, r2, asr r9
    3b70:	004c8f03 	subeq	r8, ip, r3, lsl #30
    3b74:	820b0000 	andhi	r0, fp, #0
    3b78:	0300000a 	movweq	r0, #10
    3b7c:	000303a6 	andeq	r0, r3, r6, lsr #7
    3b80:	ba020000 	blt	83b88 <_back_addr-0x147c478>
    3b84:	03000008 	movweq	r0, #8
    3b88:	000375a8 	andeq	r7, r3, r8, lsr #11
    3b8c:	03040700 	movweq	r0, #18176	; 0x4700
    3b90:	0003f7ad 	andeq	pc, r3, sp, lsr #15
    3b94:	54440800 	strbpl	r0, [r4], #-2048	; 0x800
    3b98:	b0030052 	andlt	r0, r3, r2, asr r0
    3b9c:	0000004c 	andeq	r0, r0, ip, asr #32
    3ba0:	001f0104 	andseq	r0, pc, r4, lsl #2
    3ba4:	53545208 	cmppl	r4, #8, 4	; 0x80000000
    3ba8:	4cb30300 	ldcmi	3, cr0, [r3]
    3bac:	04000000 	streq	r0, [r0], #-0
    3bb0:	09001e01 	stmdbeq	r0, {r0, r9, sl, fp, ip}
    3bb4:	000008d1 	ldrdeq	r0, [r0], -r1
    3bb8:	004cb603 	subeq	fp, ip, r3, lsl #12
    3bbc:	02040000 	andeq	r0, r4, #0
    3bc0:	db09001c 	blle	243c38 <_back_addr-0x12bc3c8>
    3bc4:	03000008 	movweq	r0, #8
    3bc8:	00004cb7 			; <UNDEFINED> instruction: 0x00004cb7
    3bcc:	011b0400 	tsteq	fp, r0, lsl #8
    3bd0:	09790900 	ldmdbeq	r9!, {r8, fp}^
    3bd4:	b8030000 	stmdalt	r3, {}	; <UNPREDICTABLE>
    3bd8:	0000004c 	andeq	r0, r0, ip, asr #32
    3bdc:	00000104 	andeq	r0, r0, r4, lsl #2
    3be0:	0a190a00 	beq	6463e8 <_back_addr-0xeb9c18>
    3be4:	03040000 	movweq	r0, #16384	; 0x4000
    3be8:	00041aaa 	andeq	r1, r4, sl, lsr #21
    3bec:	09520b00 	ldmdbeq	r2, {r8, r9, fp}^
    3bf0:	ac030000 	stcge	0, cr0, [r3], {-0}
    3bf4:	0000004c 	andeq	r0, r0, ip, asr #32
    3bf8:	000a820b 	andeq	r8, sl, fp, lsl #4
    3bfc:	a3b90300 			; <UNDEFINED> instruction: 0xa3b90300
    3c00:	00000003 	andeq	r0, r0, r3
    3c04:	000a1a02 	andeq	r1, sl, r2, lsl #20
    3c08:	f7bb0300 			; <UNDEFINED> instruction: 0xf7bb0300
    3c0c:	07000003 	streq	r0, [r0, -r3]
    3c10:	b0c00304 	sbclt	r0, r0, r4, lsl #6
    3c14:	08000004 	stmdaeq	r0, {r2}
    3c18:	03005244 	movweq	r5, #580	; 0x244
    3c1c:	00004cc3 	andeq	r4, r0, r3, asr #25
    3c20:	1f010400 	svcne	0x00010400
    3c24:	454f0800 	strbmi	r0, [pc, #-2048]	; 342c <_back_addr-0x14fcbd4>
    3c28:	4cc70300 	stclmi	3, cr0, [r7], {0}
    3c2c:	04000000 	streq	r0, [r0], #-0
    3c30:	08001e01 	stmdaeq	r0, {r0, r9, sl, fp, ip}
    3c34:	03004550 	movweq	r4, #1360	; 0x550
    3c38:	00004ccc 	andeq	r4, r0, ip, asr #25
    3c3c:	1d010400 	cfstrsne	mvf0, [r1, #-0]
    3c40:	45460800 	strbmi	r0, [r6, #-2048]	; 0x800
    3c44:	4ccd0300 	stclmi	3, cr0, [sp], {0}
    3c48:	04000000 	streq	r0, [r0], #-0
    3c4c:	08001c01 	stmdaeq	r0, {r0, sl, fp, ip}
    3c50:	03004942 	movweq	r4, #2370	; 0x942
    3c54:	00004cce 	andeq	r4, r0, lr, asr #25
    3c58:	1b010400 	blne	44c60 <_back_addr-0x14bb3a0>
    3c5c:	09010900 	stmdbeq	r1, {r8, fp}
    3c60:	cf030000 	svcgt	0x00030000
    3c64:	0000004c 	andeq	r0, r0, ip, asr #32
    3c68:	001a0104 	andseq	r0, sl, r4, lsl #2
    3c6c:	00091e09 	andeq	r1, r9, r9, lsl #28
    3c70:	4cd20300 	ldclmi	3, cr0, [r2], {0}
    3c74:	04000000 	streq	r0, [r0], #-0
    3c78:	08001901 	stmdaeq	r0, {r0, r8, fp, ip}
    3c7c:	00454652 	subeq	r4, r5, r2, asr r6
    3c80:	004cd503 	subeq	sp, ip, r3, lsl #10
    3c84:	01040000 	mrseq	r0, (UNDEF: 4)
    3c88:	47090018 	smladmi	r9, r8, r0, r0
    3c8c:	03000008 	movweq	r0, #8
    3c90:	00004cd7 	ldrdeq	r4, [r0], -r7
    3c94:	00180400 	andseq	r0, r8, r0, lsl #8
    3c98:	940a0000 	strls	r0, [sl], #-0
    3c9c:	04000008 	streq	r0, [r0], #-8
    3ca0:	04d3bd03 	ldrbeq	fp, [r3], #3331	; 0xd03
    3ca4:	520b0000 	andpl	r0, fp, #0
    3ca8:	03000009 	movweq	r0, #9
    3cac:	00004cbf 			; <UNDEFINED> instruction: 0x00004cbf
    3cb0:	0a820b00 	beq	fe0868b8 <__bss_end__+0xfcb72ea0>
    3cb4:	d8030000 	stmdale	r3, {}	; <UNPREDICTABLE>
    3cb8:	00000425 	andeq	r0, r0, r5, lsr #8
    3cbc:	08950200 	ldmeq	r5, {r9}
    3cc0:	da030000 	ble	c3cc8 <_back_addr-0x143c338>
    3cc4:	000004b0 			; <UNDEFINED> instruction: 0x000004b0
    3cc8:	df030407 	svcle	0x00030407
    3ccc:	0000054f 	andeq	r0, r0, pc, asr #10
    3cd0:	00090e09 	andeq	r0, r9, r9, lsl #28
    3cd4:	4ce30300 	stclmi	3, cr0, [r3]
    3cd8:	04000000 	streq	r0, [r0], #-0
    3cdc:	09001f01 	stmdbeq	r0, {r0, r8, r9, sl, fp, ip}
    3ce0:	000008d1 	ldrdeq	r0, [r0], -r1
    3ce4:	004ce503 	subeq	lr, ip, r3, lsl #10
    3ce8:	03040000 	movweq	r0, #16384	; 0x4000
    3cec:	4308001c 	movwmi	r0, #32796	; 0x801c
    3cf0:	03005354 	movweq	r5, #852	; 0x354
    3cf4:	00004ce6 	andeq	r4, r0, r6, ror #25
    3cf8:	1b010400 	blne	44d00 <_back_addr-0x14bb300>
    3cfc:	53440800 	movtpl	r0, #18432	; 0x4800
    3d00:	e9030052 	stmdb	r3, {r1, r4, r6}
    3d04:	0000004c 	andeq	r0, r0, ip, asr #32
    3d08:	001a0104 	andseq	r0, sl, r4, lsl #2
    3d0c:	00495208 	subeq	r5, r9, r8, lsl #4
    3d10:	004cec03 	subeq	lr, ip, r3, lsl #24
    3d14:	01040000 	mrseq	r0, (UNDEF: 4)
    3d18:	44080019 	strmi	r0, [r8], #-25
    3d1c:	03004443 	movweq	r4, #1091	; 0x443
    3d20:	00004cef 	andeq	r4, r0, pc, ror #25
    3d24:	18010400 	stmdane	r1, {sl}
    3d28:	08db0900 	ldmeq	fp, {r8, fp}^
    3d2c:	f2030000 	vhadd.s8	d0, d3, d0
    3d30:	0000004c 	andeq	r0, r0, ip, asr #32
    3d34:	00001804 	andeq	r1, r0, r4, lsl #16
    3d38:	09c40a00 	stmibeq	r4, {r9, fp}^
    3d3c:	03040000 	movweq	r0, #16384	; 0x4000
    3d40:	000572dc 	ldrdeq	r7, [r5], -ip
    3d44:	09520b00 	ldmdbeq	r2, {r8, r9, fp}^
    3d48:	de030000 	cdple	0, 0, cr0, cr3, cr0, {0}
    3d4c:	0000004c 	andeq	r0, r0, ip, asr #32
    3d50:	000a820b 	andeq	r8, sl, fp, lsl #4
    3d54:	def40300 	cdple	3, 15, cr0, cr4, cr0, {0}
    3d58:	00000004 	andeq	r0, r0, r4
    3d5c:	0009c502 	andeq	ip, r9, r2, lsl #10
    3d60:	4ff60300 	svcmi	0x00f60300
    3d64:	07000005 	streq	r0, [r0, -r5]
    3d68:	a4fb0304 	ldrbtge	r0, [fp], #772	; 0x304
    3d6c:	08000005 	stmdaeq	r0, {r0, r2}
    3d70:	00524353 	subseq	r4, r2, r3, asr r3
    3d74:	004cfe03 	subeq	pc, ip, r3, lsl #28
    3d78:	08040000 	stmdaeq	r4, {}	; <UNPREDICTABLE>
    3d7c:	47090018 	smladmi	r9, r8, r0, r0
    3d80:	03000008 	movweq	r0, #8
    3d84:	00004cff 	strdeq	r4, [r0], -pc	; <UNPREDICTABLE>
    3d88:	00180400 	andseq	r0, r8, r0, lsl #8
    3d8c:	570a0000 	strpl	r0, [sl, -r0]
    3d90:	0400000a 	streq	r0, [r0], #-10
    3d94:	05c8f803 	strbeq	pc, [r8, #2051]	; 0x803	; <UNPREDICTABLE>
    3d98:	520b0000 	andpl	r0, fp, #0
    3d9c:	03000009 	movweq	r0, #9
    3da0:	00004cfa 	strdeq	r4, [r0], -sl
    3da4:	0a820c00 	beq	fe086dac <__bss_end__+0xfcb73394>
    3da8:	00030000 	andeq	r0, r3, r0
    3dac:	00057d01 	andeq	r7, r5, r1, lsl #26
    3db0:	580d0000 	stmdapl	sp, {}	; <UNPREDICTABLE>
    3db4:	0300000a 	movweq	r0, #10
    3db8:	05a40102 	streq	r0, [r4, #258]!	; 0x102
    3dbc:	700e0000 	andvc	r0, lr, r0
    3dc0:	20000009 	andcs	r0, r0, r9
    3dc4:	4a010503 	bmi	451d8 <_back_addr-0x14bae28>
    3dc8:	0f000006 	svceq	0x00000006
    3dcc:	00000984 	andeq	r0, r0, r4, lsl #19
    3dd0:	45010703 	strmi	r0, [r1, #-1795]	; 0x703
    3dd4:	00000001 	andeq	r0, r0, r1
    3dd8:	0008630f 	andeq	r6, r8, pc, lsl #6
    3ddc:	01080300 	mrseq	r0, (UNDEF: 56)
    3de0:	000001f9 	strdeq	r0, [r0], -r9
    3de4:	08890f04 	stmeq	r9, {r2, r8, r9, sl, fp}
    3de8:	09030000 	stmdbeq	r3, {}	; <UNPREDICTABLE>
    3dec:	0002f801 	andeq	pc, r2, r1, lsl #16
    3df0:	430f0800 	movwmi	r0, #63488	; 0xf800
    3df4:	0300000a 	movweq	r0, #10
    3df8:	0398010a 	orrseq	r0, r8, #-2147483646	; 0x80000002
    3dfc:	0f0c0000 	svceq	0x000c0000
    3e00:	000009fa 	strdeq	r0, [r0], -sl
    3e04:	1a010b03 	bne	46a18 <_back_addr-0x14b95e8>
    3e08:	10000004 	andne	r0, r0, r4
    3e0c:	0009230f 	andeq	r2, r9, pc, lsl #6
    3e10:	010c0300 	mrseq	r0, LR_mon
    3e14:	000004d3 	ldrdeq	r0, [r0], -r3
    3e18:	08ec0f14 	stmiaeq	ip!, {r2, r4, r8, r9, sl, fp}^
    3e1c:	0d030000 	stceq	0, cr0, [r3, #-0]
    3e20:	00057201 	andeq	r7, r5, r1, lsl #4
    3e24:	060f1800 	streq	r1, [pc], -r0, lsl #16
    3e28:	03000009 	movweq	r0, #9
    3e2c:	05c8010e 	strbeq	r0, [r8, #270]	; 0x10e
    3e30:	001c0000 	andseq	r0, ip, r0
    3e34:	0009710d 	andeq	r7, r9, sp, lsl #2
    3e38:	01100300 	tsteq	r0, r0, lsl #6
    3e3c:	000005d4 	ldrdeq	r0, [r0], -r4
    3e40:	0009e110 	andeq	lr, r9, r0, lsl r1
    3e44:	01670100 	cmneq	r7, r0, lsl #2
    3e48:	0000066e 	andeq	r0, r0, lr, ror #12
    3e4c:	00099211 	andeq	r9, r9, r1, lsl r2
    3e50:	6e670100 	powvss	f0, f7, f0
    3e54:	00000006 	andeq	r0, r0, r6
    3e58:	00300405 	eorseq	r0, r0, r5, lsl #8
    3e5c:	ba120000 	blt	483e64 <_back_addr-0x107c19c>
    3e60:	01000009 	tsteq	r0, r9
    3e64:	068c018e 	streq	r0, [ip], lr, lsl #3
    3e68:	cb110000 	blgt	443e70 <_back_addr-0x10bc190>
    3e6c:	01000008 	tsteq	r0, r8
    3e70:	0000578e 	andeq	r5, r0, lr, lsl #15
    3e74:	ce120000 	cdpgt	0, 1, cr0, cr2, cr0, {0}
    3e78:	01000005 	tsteq	r0, r5
    3e7c:	06c301f6 			; <UNDEFINED> instruction: 0x06c301f6
    3e80:	64130000 	ldrvs	r0, [r3], #-0
    3e84:	01007473 	tsteq	r0, r3, ror r4
    3e88:	0006c3f6 	strdeq	ip, [r6], -r6
    3e8c:	08cb1100 	stmiaeq	fp, {r8, ip}^
    3e90:	f6010000 			; <UNDEFINED> instruction: 0xf6010000
    3e94:	00000025 	andeq	r0, r0, r5, lsr #32
    3e98:	00045011 	andeq	r5, r4, r1, lsl r0
    3e9c:	4cf60100 	ldfmie	f0, [r6]
    3ea0:	14000000 	strne	r0, [r0], #-0
    3ea4:	f8010069 			; <UNDEFINED> instruction: 0xf8010069
    3ea8:	0000004c 	andeq	r0, r0, ip, asr #32
    3eac:	16041500 	strne	r1, [r4], -r0, lsl #10
    3eb0:	000003c6 	andeq	r0, r0, r6, asr #7
    3eb4:	1e083301 	cdpne	3, 0, cr3, cr8, cr1, {0}
    3eb8:	001c0150 	andseq	r0, ip, r0, asr r1
    3ebc:	9c010000 	stcls	0, cr0, [r1], {-0}
    3ec0:	0003b217 	andeq	fp, r3, r7, lsl r2
    3ec4:	24480100 	strbcs	r0, [r8], #-256	; 0x100
    3ec8:	5401501e 	strpl	r5, [r1], #-30
    3ecc:	01000000 	mrseq	r0, (UNDEF: 0)
    3ed0:	00070a9c 	muleq	r7, ip, sl
    3ed4:	09d91800 	ldmibeq	r9, {fp, ip}^
    3ed8:	4a010000 	bmi	43ee0 <_back_addr-0x14bc120>
    3edc:	00000057 	andeq	r0, r0, r7, asr r0
    3ee0:	0000223a 	andeq	r2, r0, sl, lsr r2
    3ee4:	0008f419 	andeq	pc, r8, r9, lsl r4	; <UNPREDICTABLE>
    3ee8:	574b0100 	strbpl	r0, [fp, -r0, lsl #2]
    3eec:	00000000 	andeq	r0, r0, r0
    3ef0:	00005550 	andeq	r5, r0, r0, asr r5
    3ef4:	00035917 	andeq	r5, r3, r7, lsl r9
    3ef8:	78620100 	stmdavc	r2!, {r8}^
    3efc:	2801501e 	stmdacs	r1, {r1, r2, r3, r4, ip, lr}
    3f00:	01000000 	mrseq	r0, (UNDEF: 0)
    3f04:	00072d9c 	muleq	r7, ip, sp
    3f08:	09301a00 	ldmdbeq	r0!, {r9, fp, ip}
    3f0c:	62010000 	andvs	r0, r1, #0
    3f10:	0000005e 	andeq	r0, r0, lr, asr r0
    3f14:	17005001 	strne	r5, [r0, -r1]
    3f18:	0000030e 	andeq	r0, r0, lr, lsl #6
    3f1c:	1ea06e01 	cdpne	14, 10, cr6, cr0, cr1, {0}
    3f20:	00680150 	rsbeq	r0, r8, r0, asr r1
    3f24:	9c010000 	stcls	0, cr0, [r1], {-0}
    3f28:	00000795 	muleq	r0, r5, r7
    3f2c:	0068631b 	rsbeq	r6, r8, fp, lsl r3
    3f30:	00856e01 	addeq	r6, r5, r1, lsl #28
    3f34:	22550000 	subscs	r0, r5, #0
    3f38:	631c0000 	tstvs	ip, #0
    3f3c:	01003868 	tsteq	r0, r8, ror #16
    3f40:	00003072 	andeq	r3, r0, r2, ror r0
    3f44:	00228d00 	eoreq	r8, r2, r0, lsl #26
    3f48:	06561d00 	ldrbeq	r1, [r6], -r0, lsl #26
    3f4c:	1eb40000 	cdpne	0, 11, cr0, cr4, cr0, {0}
    3f50:	04e80150 	strbteq	r0, [r8], #336	; 0x150
    3f54:	78010000 	stmdavc	r1, {}	; <UNPREDICTABLE>
    3f58:	00000778 	andeq	r0, r0, r8, ror r7
    3f5c:	0006621e 	andeq	r6, r6, lr, lsl r2
    3f60:	561f0000 	ldrpl	r0, [pc], -r0
    3f64:	c8000006 	stmdagt	r0, {r1, r2}
    3f68:	1401501e 	strne	r5, [r1], #-30
    3f6c:	01000000 	mrseq	r0, (UNDEF: 0)
    3f70:	0662207b 			; <UNDEFINED> instruction: 0x0662207b
    3f74:	f2060000 	vhadd.s8	d0, d6, d0
    3f78:	00003f3a 	andeq	r3, r0, sl, lsr pc
    3f7c:	17000000 	strne	r0, [r0, -r0]
    3f80:	000008af 	andeq	r0, r0, pc, lsr #17
    3f84:	1f083a01 	svcne	0x00083a01
    3f88:	00600150 	rsbeq	r0, r0, r0, asr r1
    3f8c:	9c010000 	stcls	0, cr0, [r1], {-0}
    3f90:	00000822 	andeq	r0, r0, r2, lsr #16
    3f94:	00063621 	andeq	r3, r6, r1, lsr #12
    3f98:	223a0100 	eorscs	r0, sl, #0, 2
    3f9c:	ac000008 	stcge	0, cr0, [r0], {8}
    3fa0:	21000022 	tstcs	r0, r2, lsr #32
    3fa4:	000009f5 	strdeq	r0, [r0], -r5
    3fa8:	004c3a01 	subeq	r3, ip, r1, lsl #20
    3fac:	22e30000 	rsccs	r0, r3, #0
    3fb0:	cb210000 	blgt	843fb8 <_back_addr-0xcbc048>
    3fb4:	01000008 	tsteq	r0, r8
    3fb8:	00004c3a 	andeq	r4, r0, sl, lsr ip
    3fbc:	00231a00 	eoreq	r1, r3, r0, lsl #20
    3fc0:	006e1c00 	rsbeq	r1, lr, r0, lsl #24
    3fc4:	005e3b01 	subseq	r3, lr, r1, lsl #22
    3fc8:	23510000 	cmpcs	r1, #0
    3fcc:	00220000 	eoreq	r0, r2, r0
    3fd0:	23000005 	movwcs	r0, #5
    3fd4:	0000065c 	andeq	r0, r0, ip, asr r6
    3fd8:	005e4301 	subseq	r4, lr, r1, lsl #6
    3fdc:	07fa0000 	ldrbeq	r0, [sl, r0]!
    3fe0:	00240000 	eoreq	r0, r4, r0
    3fe4:	501f4025 	andspl	r4, pc, r5, lsr #32
    3fe8:	000d3501 	andeq	r3, sp, r1, lsl #10
    3fec:	00080d00 	andeq	r0, r8, r0, lsl #26
    3ff0:	50012600 	andpl	r2, r1, r0, lsl #12
    3ff4:	27003101 	strcs	r3, [r0, -r1, lsl #2]
    3ff8:	01501f64 	cmpeq	r0, r4, ror #30
    3ffc:	0000072d 	andeq	r0, r0, sp, lsr #14
    4000:	05500126 	ldrbeq	r0, [r0, #-294]	; 0x126
    4004:	50300c03 	eorspl	r0, r0, r3, lsl #24
    4008:	00000001 	andeq	r0, r0, r1
    400c:	08280405 	stmdaeq	r8!, {r0, r2, sl}
    4010:	4c280000 	stcmi	0, cr0, [r8], #-0
    4014:	17000000 	strne	r0, [r0, -r0]
    4018:	00000a64 	andeq	r0, r0, r4, ror #20
    401c:	1f688001 	svcne	0x00688001
    4020:	00500150 	subseq	r0, r0, r0, asr r1
    4024:	9c010000 	stcls	0, cr0, [r1], {-0}
    4028:	00000889 	andeq	r0, r0, r9, lsl #17
    402c:	6c617629 	stclvs	6, cr7, [r1], #-164	; 0xffffff5c
    4030:	4c800100 	stfmis	f0, [r0], {0}
    4034:	01000000 	mrseq	r0, (UNDEF: 0)
    4038:	656c1b50 	strbvs	r1, [ip, #-2896]!	; 0xb50
    403c:	8001006e 	andhi	r0, r1, lr, rrx
    4040:	0000004c 	andeq	r0, r0, ip, asr #32
    4044:	000023b5 			; <UNDEFINED> instruction: 0x000023b5
    4048:	0068631c 	rsbeq	r6, r8, ip, lsl r3
    404c:	00308301 	eorseq	r8, r0, r1, lsl #6
    4050:	23d30000 	bicscs	r0, r3, #0
    4054:	562a0000 	strtpl	r0, [sl], -r0
    4058:	94000006 	strls	r0, [r0], #-6
    405c:	2001501f 	andcs	r5, r1, pc, lsl r0
    4060:	01000005 	tsteq	r0, r5
    4064:	06622089 	strbteq	r2, [r2], -r9, lsl #1
    4068:	f2060000 	vhadd.s8	d0, d6, d0
    406c:	00004048 	andeq	r4, r0, r8, asr #32
    4070:	2b000000 	blcs	4078 <_back_addr-0x14fbf88>
    4074:	00000674 	andeq	r0, r0, r4, ror r6
    4078:	01501fb8 	ldrheq	r1, [r0, #-248]	; 0xffffff08
    407c:	00000008 	andeq	r0, r0, r8
    4080:	08bc9c01 	ldmeq	ip!, {r0, sl, fp, ip, pc}
    4084:	802c0000 	eorhi	r0, ip, r0
    4088:	f1000006 	cps	#6
    408c:	27000023 	strcs	r0, [r0, -r3, lsr #32]
    4090:	01501fc0 	cmpeq	r0, r0, asr #31
    4094:	0000082d 	andeq	r0, r0, sp, lsr #16
    4098:	03500126 	cmpeq	r0, #-2147483639	; 0x80000009
    409c:	265001f3 			; <UNDEFINED> instruction: 0x265001f3
    40a0:	38015101 	stmdacc	r1, {r0, r8, ip, lr}
    40a4:	32160000 	andscc	r0, r6, #0
    40a8:	01000008 	tsteq	r0, r8
    40ac:	501fc09a 	mulspl	pc, sl, r0	; <UNPREDICTABLE>
    40b0:	00000401 	andeq	r0, r0, r1, lsl #8
    40b4:	179c0100 	ldrne	r0, [ip, r0, lsl #2]
    40b8:	0000087b 	andeq	r0, r0, fp, ror r8
    40bc:	1fc4a001 	svcne	0x00c4a001
    40c0:	00240150 	eoreq	r0, r4, r0, asr r1
    40c4:	9c010000 	stcls	0, cr0, [r1], {-0}
    40c8:	0000090b 	andeq	r0, r0, fp, lsl #18
    40cc:	00686329 	rsbeq	r6, r8, r9, lsr #6
    40d0:	0090a001 	addseq	sl, r0, r1
    40d4:	50010000 	andpl	r0, r1, r0
    40d8:	0006561f 	andeq	r5, r6, pc, lsl r6
    40dc:	501fd000 	andspl	sp, pc, r0
    40e0:	00001801 	andeq	r1, r0, r1, lsl #16
    40e4:	20a40100 	adccs	r0, r4, r0, lsl #2
    40e8:	00000662 	andeq	r0, r0, r2, ror #12
    40ec:	40ccf206 	sbcmi	pc, ip, r6, lsl #4
    40f0:	00000000 	andeq	r0, r0, r0
    40f4:	09132d00 	ldmdbeq	r3, {r8, sl, fp, sp}
    40f8:	a8010000 	stmdage	r1, {}	; <UNPREDICTABLE>
    40fc:	00000057 	andeq	r0, r0, r7, asr r0
    4100:	01501fe8 	cmpeq	r0, r8, ror #31
    4104:	0000000c 	andeq	r0, r0, ip
    4108:	095e9c01 	ldmdbeq	lr, {r0, sl, fp, ip, pc}^
    410c:	731b0000 	tstvc	fp, #0
    4110:	5ea80100 	fdvple	f0, f0, f0
    4114:	12000009 	andne	r0, r0, #9
    4118:	23000024 	movwcs	r0, #36	; 0x24
    411c:	000001de 	ldrdeq	r0, [r0], -lr
    4120:	005eaa01 	subseq	sl, lr, r1, lsl #20
    4124:	09420000 	stmdbeq	r2, {}^	; <UNPREDICTABLE>
    4128:	00240000 	eoreq	r0, r4, r0
    412c:	501ff427 	andspl	pc, pc, r7, lsr #8
    4130:	000d4601 	andeq	r4, sp, r1, lsl #12
    4134:	50012600 	andpl	r2, r1, r0, lsl #12
    4138:	5001f303 	andpl	pc, r1, r3, lsl #6
    413c:	01510126 	cmpeq	r1, r6, lsr #2
    4140:	52012630 	andpl	r2, r1, #48, 12	; 0x3000000
    4144:	00004001 	andeq	r4, r0, r1
    4148:	00900405 	addseq	r0, r0, r5, lsl #8
    414c:	a12d0000 	teqge	sp, r0
    4150:	01000008 	tsteq	r0, r8
    4154:	0006c3ad 	andeq	ip, r6, sp, lsr #7
    4158:	501ff400 	andspl	pc, pc, r0, lsl #8
    415c:	00005401 	andeq	r5, r0, r1, lsl #8
    4160:	bc9c0100 	ldflts	f0, [ip], {0}
    4164:	21000009 	tstcs	r0, r9
    4168:	000009d1 	ldrdeq	r0, [r0], -r1
    416c:	0057ad01 	subseq	sl, r7, r1, lsl #26
    4170:	24330000 	ldrtcs	r0, [r3], #-0
    4174:	552e0000 	strpl	r0, [lr, #-0]!
    4178:	01000008 	tsteq	r0, r8
    417c:	000057af 	andeq	r5, r0, pc, lsr #15
    4180:	4c030500 	cfstr32mi	mvfx0, [r3], {-0}
    4184:	2e015134 	mcrcs	1, 0, r5, cr1, cr4, {1}
    4188:	00000958 	andeq	r0, r0, r8, asr r9
    418c:	0057b001 	subseq	fp, r7, r1
    4190:	03050000 	movweq	r0, #20480	; 0x5000
    4194:	01513a14 	cmpeq	r1, r4, lsl sl
    4198:	0100701c 	tsteq	r0, ip, lsl r0
    419c:	0006c3b1 			; <UNDEFINED> instruction: 0x0006c3b1
    41a0:	00246a00 	eoreq	r6, r4, r0, lsl #20
    41a4:	452d0000 	strmi	r0, [sp, #-0]!
    41a8:	01000009 	tsteq	r0, r9
    41ac:	00005ec2 	andeq	r5, r0, r2, asr #29
    41b0:	50204800 	eorpl	r4, r0, r0, lsl #16
    41b4:	00003401 	andeq	r3, r0, r1, lsl #8
    41b8:	e39c0100 	orrs	r0, ip, #0, 2
    41bc:	1b000009 	blne	41e8 <_back_addr-0x14fbe18>
    41c0:	c2010063 	andgt	r0, r1, #99	; 0x63
    41c4:	00000090 	muleq	r0, r0, r0
    41c8:	0000247d 	andeq	r2, r0, sp, ror r4
    41cc:	02841700 	addeq	r1, r4, #0, 14
    41d0:	ce010000 	cdpgt	0, 0, cr0, cr1, cr0, {0}
    41d4:	0150207c 	cmpeq	r0, ip, ror r0
    41d8:	000000b0 	strheq	r0, [r0], -r0	; <UNPREDICTABLE>
    41dc:	0b1b9c01 	bleq	6eb1e8 <_back_addr-0xe14e18>
    41e0:	731b0000 	tstvc	fp, #0
    41e4:	01007274 	tsteq	r0, r4, ror r2
    41e8:	000085ce 	andeq	r8, r0, lr, asr #11
    41ec:	0024b700 	eoreq	fp, r4, r0, lsl #14
    41f0:	75621b00 	strbvc	r1, [r2, #-2816]!	; 0xb00
    41f4:	ce010066 	cdpgt	0, 0, cr0, cr1, cr6, {3}
    41f8:	00000b1b 	andeq	r0, r0, fp, lsl fp
    41fc:	000024f1 	strdeq	r2, [r0], -r1
    4200:	0005f621 	andeq	pc, r5, r1, lsr #12
    4204:	57ce0100 	strbpl	r0, [lr, r0, lsl #2]
    4208:	4e000000 	cdpmi	0, 0, cr0, cr0, cr0, {0}
    420c:	1c000025 	stcne	0, cr0, [r0], {37}	; 0x25
    4210:	d0010069 	andle	r0, r1, r9, rrx
    4214:	00000057 	andeq	r0, r0, r7, asr r0
    4218:	00002593 	muleq	r0, r3, r5
    421c:	7274701c 	rsbsvc	r7, r4, #28
    4220:	5ed10100 	cdppl	1, 13, cr0, cr1, cr0, {0}
    4224:	f1000009 	cps	#9
    4228:	2f000024 	svccs	0x00000024
    422c:	000005af 	andeq	r0, r0, pc, lsr #11
    4230:	00000b39 	andeq	r0, r0, r9, lsr fp
    4234:	30040305 	andcc	r0, r4, r5, lsl #6
    4238:	74300150 	ldrtvc	r0, [r0], #-336	; 0x150
    423c:	bc000006 	stclt	0, cr0, [r0], {6}
    4240:	10015020 	andne	r5, r1, r0, lsr #32
    4244:	01000000 	mrseq	r0, (UNDEF: 0)
    4248:	000a82da 	ldrdeq	r8, [sl], -sl
    424c:	06802c00 	streq	r2, [r0], r0, lsl #24
    4250:	25be0000 	ldrcs	r0, [lr, #0]!
    4254:	cc310000 	ldcgt	0, cr0, [r1], #-0
    4258:	2d015020 	stccs	0, cr5, [r1, #-128]	; 0xffffff80
    425c:	26000008 	strcs	r0, [r0], -r8
    4260:	75025001 	strvc	r5, [r2, #-1]
    4264:	51012601 	tstpl	r1, r1, lsl #12
    4268:	00003801 	andeq	r3, r0, r1, lsl #16
    426c:	5020b025 	eorpl	fp, r0, r5, lsr #32
    4270:	00072d01 	andeq	r2, r7, r1, lsl #26
    4274:	000aa600 	andeq	sl, sl, r0, lsl #12
    4278:	50012600 	andpl	r2, r1, r0, lsl #12
    427c:	30040312 	andcc	r0, r4, r2, lsl r3
    4280:	01f30150 	mvnseq	r0, r0, asr r1
    4284:	5001f350 	andpl	pc, r1, r0, asr r3	; <UNPREDICTABLE>
    4288:	01282930 	teqeq	r8, r0, lsr r9
    428c:	00131600 	andseq	r1, r3, r0, lsl #12
    4290:	5020bc25 	eorpl	fp, r0, r5, lsr #24
    4294:	00072d01 	andeq	r2, r7, r1, lsl #26
    4298:	000abd00 	andeq	fp, sl, r0, lsl #26
    429c:	50012600 	andpl	r2, r1, r0, lsl #12
    42a0:	30200305 	eorcc	r0, r0, r5, lsl #6
    42a4:	25000150 	strcs	r0, [r0, #-336]	; 0x150
    42a8:	015020d8 	ldrsbeq	r2, [r0, #-8]
    42ac:	0000072d 	andeq	r0, r0, sp, lsr #14
    42b0:	00000ad4 	ldrdeq	r0, [r0], -r4
    42b4:	05500126 	ldrbeq	r0, [r0, #-294]	; 0x126
    42b8:	50302803 	eorspl	r2, r0, r3, lsl #16
    42bc:	e4250001 	strt	r0, [r5], #-1
    42c0:	2d015020 	stccs	0, cr5, [r1, #-128]	; 0xffffff80
    42c4:	e7000008 	str	r0, [r0, -r8]
    42c8:	2600000a 	strcs	r0, [r0], -sl
    42cc:	32015101 	andcc	r5, r1, #1073741824	; 0x40000000
    42d0:	21043200 	mrscs	r3, R12_usr
    42d4:	072d0150 			; <UNDEFINED> instruction: 0x072d0150
    42d8:	1c330000 	ldcne	0, cr0, [r3], #-0
    42dc:	2d015021 	stccs	0, cr5, [r1, #-132]	; 0xffffff7c
    42e0:	07000007 	streq	r0, [r0, -r7]
    42e4:	2600000b 	strcs	r0, [r0], -fp
    42e8:	03055001 	movweq	r5, #20481	; 0x5001
    42ec:	0150301c 	cmpeq	r0, ip, lsl r0
    42f0:	212c2700 	teqcs	ip, r0, lsl #14
    42f4:	072d0150 			; <UNDEFINED> instruction: 0x072d0150
    42f8:	01260000 	teqeq	r6, r0
    42fc:	18030550 	stmdane	r3, {r4, r6, r8, sl}
    4300:	00015030 	andeq	r5, r1, r0, lsr r0
    4304:	21040500 	tstcs	r4, r0, lsl #10
    4308:	3400000b 	strcc	r0, [r0], #-11
    430c:	00009035 	andeq	r9, r0, r5, lsr r0
    4310:	000b3200 	andeq	r3, fp, r0, lsl #4
    4314:	0b323600 	bleq	c91b1c <_back_addr-0x86e4e4>
    4318:	00070000 	andeq	r0, r7, r0
    431c:	0b070403 	bleq	1c5330 <_back_addr-0x133acd0>
    4320:	06000002 	streq	r0, [r0], -r2
    4324:	00000b22 	andeq	r0, r0, r2, lsr #22
    4328:	0006a62d 	andeq	sl, r6, sp, lsr #12
    432c:	c3f00100 	mvnsgt	r0, #0, 2
    4330:	2c000006 	stccs	0, cr0, [r0], {6}
    4334:	24015021 	strcs	r5, [r1], #-33	; 0x21
    4338:	01000000 	mrseq	r0, (UNDEF: 0)
    433c:	000bb59c 	muleq	fp, ip, r5
    4340:	00732900 	rsbseq	r2, r3, r0, lsl #18
    4344:	06c3f001 	strbeq	pc, [r3], r1	; <UNPREDICTABLE>
    4348:	50010000 	andpl	r0, r1, r0
    434c:	0100631b 	tsteq	r0, fp, lsl r3
    4350:	00005ef0 	strdeq	r5, [r0], -r0
    4354:	0025f700 	eoreq	pc, r5, r0, lsl #14
    4358:	095e2100 	ldmdbeq	lr, {r8, sp}^
    435c:	f0010000 			; <UNDEFINED> instruction: 0xf0010000
    4360:	0000007a 	andeq	r0, r0, sl, ror r0
    4364:	00002618 	andeq	r2, r0, r8, lsl r6
    4368:	00068c2a 	andeq	r8, r6, sl, lsr #24
    436c:	50212c00 	eorpl	r2, r1, r0, lsl #24
    4370:	00053801 	andeq	r3, r5, r1, lsl #16
    4374:	2cf20100 	ldfcse	f0, [r2]
    4378:	000006ae 	andeq	r0, r0, lr, lsr #13
    437c:	00002639 	andeq	r2, r0, r9, lsr r6
    4380:	0006a320 	andeq	sl, r6, r0, lsr #6
    4384:	20510100 	subscs	r0, r1, r0, lsl #2
    4388:	00000698 	muleq	r0, r8, r6
    438c:	38225001 	stmdacc	r2!, {r0, ip, lr}
    4390:	37000005 	strcc	r0, [r0, -r5]
    4394:	000006b9 			; <UNDEFINED> instruction: 0x000006b9
    4398:	0000265a 	andeq	r2, r0, sl, asr r6
    439c:	2b000000 	blcs	43a4 <_back_addr-0x14fbc5c>
    43a0:	0000068c 	andeq	r0, r0, ip, lsl #13
    43a4:	01502150 	cmpeq	r0, r0, asr r1
    43a8:	0000001c 	andeq	r0, r0, ip, lsl r0
    43ac:	0beb9c01 	bleq	ffaeb3b8 <__bss_end__+0xfe5d79a0>
    43b0:	982c0000 	stmdals	ip!, {}	; <UNPREDICTABLE>
    43b4:	6e000006 	cdpvs	0, 0, cr0, cr0, cr6, {0}
    43b8:	20000026 	andcs	r0, r0, r6, lsr #32
    43bc:	000006a3 	andeq	r0, r0, r3, lsr #13
    43c0:	ae2c5101 	sufgee	f5, f4, f1
    43c4:	8f000006 	svchi	0x00000006
    43c8:	37000026 	strcc	r0, [r0, -r6, lsr #32]
    43cc:	000006b9 			; <UNDEFINED> instruction: 0x000006b9
    43d0:	000026b0 			; <UNDEFINED> instruction: 0x000026b0
    43d4:	06941700 	ldreq	r1, [r4], r0, lsl #14
    43d8:	fd010000 	stc2	0, cr0, [r1, #-0]
    43dc:	0150216c 	cmpeq	r0, ip, ror #2
    43e0:	0000009c 	muleq	r0, ip, r0
    43e4:	0c349c01 	ldceq	12, cr9, [r4], #-4
    43e8:	64290000 	strtvs	r0, [r9], #-0
    43ec:	01007473 	tsteq	r0, r3, ror r4
    43f0:	0006c3fd 	strdeq	ip, [r6], -sp
    43f4:	29500100 	ldmdbcs	r0, {r8}^
    43f8:	00637273 	rsbeq	r7, r3, r3, ror r2
    43fc:	06c3fd01 	strbeq	pc, [r3], r1, lsl #26	; <UNPREDICTABLE>
    4400:	51010000 	mrspl	r0, (UNDEF: 1)
    4404:	0004501a 	andeq	r5, r4, sl, lsl r0
    4408:	57fd0100 	ldrbpl	r0, [sp, r0, lsl #2]!
    440c:	01000000 	mrseq	r0, (UNDEF: 0)
    4410:	00693852 	rsbeq	r3, r9, r2, asr r8
    4414:	0c34ff01 	ldceq	15, cr15, [r4], #-4
    4418:	91020000 	mrsls	r0, (UNDEF: 2)
    441c:	5728007c 			; <UNDEFINED> instruction: 0x5728007c
    4420:	39000000 	stmdbcc	r0, {}	; <UNPREDICTABLE>
    4424:	00000a73 	andeq	r0, r0, r3, ror sl
    4428:	5e010c01 	cdppl	12, 0, cr0, cr1, cr1, {0}
    442c:	08000000 	stmdaeq	r0, {}	; <UNPREDICTABLE>
    4430:	58015022 	stmdapl	r1, {r1, r5, ip, lr}
    4434:	01000000 	mrseq	r0, (UNDEF: 0)
    4438:	000cae9c 	muleq	ip, ip, lr
    443c:	31733a00 	cmncc	r3, r0, lsl #20
    4440:	010c0100 	mrseq	r0, (UNDEF: 28)
    4444:	000006c3 	andeq	r0, r0, r3, asr #13
    4448:	000026e8 	andeq	r2, r0, r8, ror #13
    444c:	0032733a 	eorseq	r7, r2, sl, lsr r3
    4450:	c3010c01 	movwgt	r0, #7169	; 0x1c01
    4454:	3b000006 	blcc	4474 <_back_addr-0x14fbb8c>
    4458:	3b000027 	blcc	44fc <_back_addr-0x14fbb04>
    445c:	00000450 	andeq	r0, r0, r0, asr r4
    4460:	4c010c01 	stcmi	12, cr0, [r1], {1}
    4464:	67000000 	strvs	r0, [r0, -r0]
    4468:	3c000027 	stccc	0, cr0, [r0], {39}	; 0x27
    446c:	0e010069 	cdpeq	0, 0, cr0, cr1, cr9, {3}
    4470:	00004c01 	andeq	r4, r0, r1, lsl #24
    4474:	00279300 	eoreq	r9, r7, r0, lsl #6
    4478:	31703c00 	cmncc	r0, r0, lsl #24
    447c:	010f0100 	mrseq	r0, (UNDEF: 31)
    4480:	0000095e 	andeq	r0, r0, lr, asr r9
    4484:	000026e8 	andeq	r2, r0, r8, ror #13
    4488:	0032703c 	eorseq	r7, r2, ip, lsr r0
    448c:	5e010f01 	cdppl	15, 0, cr0, cr1, cr1, {0}
    4490:	f5000009 			; <UNDEFINED> instruction: 0xf5000009
    4494:	00000027 	andeq	r0, r0, r7, lsr #32
    4498:	00096439 	andeq	r6, r9, r9, lsr r4
    449c:	011c0100 	tsteq	ip, r0, lsl #2
    44a0:	0000005e 	andeq	r0, r0, lr, asr r0
    44a4:	01502260 	cmpeq	r0, r0, ror #4
    44a8:	00000044 	andeq	r0, r0, r4, asr #32
    44ac:	0cf59c01 	ldcleq	12, cr9, [r5], #4
    44b0:	733a0000 	teqvc	sl, #0
    44b4:	1c010031 	stcne	0, cr0, [r1], {49}	; 0x31
    44b8:	00008501 	andeq	r8, r0, r1, lsl #10
    44bc:	00282100 	eoreq	r2, r8, r0, lsl #2
    44c0:	32733a00 	rsbscc	r3, r3, #0, 20
    44c4:	011c0100 	tsteq	ip, r0, lsl #2
    44c8:	00000085 	andeq	r0, r0, r5, lsl #1
    44cc:	00002842 	andeq	r2, r0, r2, asr #16
    44d0:	0100693c 	tsteq	r0, ip, lsr r9
    44d4:	004c011e 	subeq	r0, ip, lr, lsl r1
    44d8:	28630000 	stmdacs	r3!, {}^	; <UNPREDICTABLE>
    44dc:	3d000000 	stccc	0, cr0, [r0, #-0]
    44e0:	000009ab 	andeq	r0, r0, fp, lsr #19
    44e4:	a4012a01 	strge	r2, [r1], #-2561	; 0xa01
    44e8:	28015022 	stmdacs	r1, {r1, r5, ip, lr}
    44ec:	01000000 	mrseq	r0, (UNDEF: 0)
    44f0:	09ee3d9c 	stmibeq	lr!, {r2, r3, r4, r7, r8, sl, fp, ip, sp}^
    44f4:	47010000 	strmi	r0, [r1, -r0]
    44f8:	5022cc01 	eorpl	ip, r2, r1, lsl #24
    44fc:	00000401 	andeq	r0, r0, r1, lsl #8
    4500:	2e9c0100 	fmlcse	f0, f4, f0
    4504:	00000a26 	andeq	r0, r0, r6, lsr #20
    4508:	0d2a1501 	cfstr32eq	mvfx1, [sl, #-4]!
    450c:	03050000 	movweq	r0, #20480	; 0x5000
    4510:	01513448 	cmpeq	r1, r8, asr #8
    4514:	0d300405 	cfldrseq	mvf0, [r0, #-20]!	; 0xffffffec
    4518:	4a280000 	bmi	a04520 <_back_addr-0xafbae0>
    451c:	23000006 	movwcs	r0, #6
    4520:	0000065c 	andeq	r0, r0, ip, asr r6
    4524:	005e4301 	subseq	r4, lr, r1, lsl #6
    4528:	0d460000 	stcleq	0, cr0, [r6, #-0]
    452c:	00240000 	eoreq	r0, r4, r0
    4530:	0001de3e 	andeq	sp, r1, lr, lsr lr
    4534:	5eaa0100 	fdvple	f0, f2, f0
    4538:	24000000 	strcs	r0, [r0], #-0
    453c:	08e50000 	stmiaeq	r5!, {}^	; <UNPREDICTABLE>
    4540:	00040000 	andeq	r0, r4, r0
    4544:	00000f6a 	andeq	r0, r0, sl, ror #30
    4548:	00af0104 	adceq	r0, pc, r4, lsl #2
    454c:	8b010000 	blhi	44554 <_back_addr-0x14bbaac>
    4550:	5500000b 	strpl	r0, [r0, #-11]
    4554:	d0000004 	andle	r0, r0, r4
    4558:	18015022 	stmdane	r1, {r1, r5, ip, lr}
    455c:	50000002 	andpl	r0, r0, r2
    4560:	0200000d 	andeq	r0, r0, #13
    4564:	020b0704 	andeq	r0, fp, #4, 14	; 0x100000
    4568:	04020000 	streq	r0, [r2], #-0
    456c:	00003607 	andeq	r3, r0, r7, lsl #12
    4570:	05040300 	streq	r0, [r4, #-768]	; 0x300
    4574:	00746e69 	rsbseq	r6, r4, r9, ror #28
    4578:	1e070202 	cdpne	2, 0, cr0, cr7, cr2, {0}
    457c:	02000000 	andeq	r0, r0, #0
    4580:	004d0504 	subeq	r0, sp, r4, lsl #10
    4584:	04020000 	streq	r0, [r2], #-0
    4588:	00003b07 	andeq	r3, r0, r7, lsl #22
    458c:	08010200 	stmdaeq	r1, {r9}
    4590:	00000019 	andeq	r0, r0, r9, lsl r0
    4594:	48050802 	stmdami	r5, {r1, fp}
    4598:	02000000 	andeq	r0, r0, #0
    459c:	00120601 	andseq	r0, r2, r1, lsl #12
    45a0:	01020000 	mrseq	r0, (UNDEF: 2)
    45a4:	00001008 	andeq	r1, r0, r8
    45a8:	05020200 	streq	r0, [r2, #-512]	; 0x200
    45ac:	000000a5 	andeq	r0, r0, r5, lsr #1
    45b0:	31070802 	tstcc	r7, r2, lsl #16
    45b4:	04000000 	streq	r0, [r0], #-0
    45b8:	00323373 	eorseq	r3, r2, r3, ror r3
    45bc:	00332403 	eorseq	r2, r3, r3, lsl #8
    45c0:	75040000 	strvc	r0, [r4, #-0]
    45c4:	03003233 	movweq	r3, #563	; 0x233
    45c8:	00004825 	andeq	r4, r0, r5, lsr #16
    45cc:	06de0500 	ldrbeq	r0, [lr], r0, lsl #10
    45d0:	04040000 	streq	r0, [r4], #-0
    45d4:	00b501ee 	adcseq	r0, r5, lr, ror #3
    45d8:	1c060000 	stcne	0, cr0, [r6], {-0}
    45dc:	00000006 	andeq	r0, r0, r6
    45e0:	00059606 	andeq	r9, r5, r6, lsl #12
    45e4:	f8060100 			; <UNDEFINED> instruction: 0xf8060100
    45e8:	02000004 	andeq	r0, r0, #4
    45ec:	0005d906 	andeq	sp, r5, r6, lsl #18
    45f0:	07000300 	streq	r0, [r0, -r0, lsl #6]
    45f4:	00000a91 	muleq	r0, r1, sl
    45f8:	e3012701 	movw	r2, #5889	; 0x1701
    45fc:	08000000 	stmdaeq	r0, {}	; <UNPREDICTABLE>
    4600:	00000cd6 	ldrdeq	r0, [r0], -r6
    4604:	00842701 	addeq	r2, r4, r1, lsl #14
    4608:	f8080000 			; <UNDEFINED> instruction: 0xf8080000
    460c:	0100000c 	tsteq	r0, ip
    4610:	00008427 	andeq	r8, r0, r7, lsr #8
    4614:	0a950900 	beq	fe546a1c <__bss_end__+0xfd033004>
    4618:	28010000 	stmdacs	r1, {}	; <UNPREDICTABLE>
    461c:	00000084 	andeq	r0, r0, r4, lsl #1
    4620:	0c600a00 	stcleq	10, cr0, [r0], #-0
    4624:	2e010000 	cdpcs	0, 0, cr0, cr1, cr0, {0}
    4628:	00000084 	andeq	r0, r0, r4, lsl #1
    462c:	0000ff01 	andeq	pc, r0, r1, lsl #30
    4630:	0c640900 	stcleq	9, cr0, [r4], #-0
    4634:	30010000 	andcc	r0, r1, r0
    4638:	00000084 	andeq	r0, r0, r4, lsl #1
    463c:	0b7a0a00 	bleq	1e86e44 <__bss_end__+0x97342c>
    4640:	1b020000 	blne	84648 <_back_addr-0x147b9b8>
    4644:	00000079 	andeq	r0, r0, r9, ror r0
    4648:	00012f03 	andeq	r2, r1, r3, lsl #30
    464c:	006e0b00 	rsbeq	r0, lr, r0, lsl #22
    4650:	00841b02 	addeq	r1, r4, r2, lsl #22
    4654:	e5090000 	str	r0, [r9, #-0]
    4658:	0200000b 	andeq	r0, r0, #11
    465c:	0000791d 	andeq	r7, r0, sp, lsl r9
    4660:	04d00900 	ldrbeq	r0, [r0], #2304	; 0x900
    4664:	1e020000 	cdpne	0, 0, cr0, cr2, cr0, {0}
    4668:	00000084 	andeq	r0, r0, r4, lsl #1
    466c:	0acf0700 	beq	ff3c6274 <__bss_end__+0xfdeb285c>
    4670:	40010000 	andmi	r0, r1, r0
    4674:	00019401 	andeq	r9, r1, r1, lsl #8
    4678:	0cd60800 	ldcleq	8, cr0, [r6], {0}
    467c:	40010000 	andmi	r0, r1, r0
    4680:	00000084 	andeq	r0, r0, r4, lsl #1
    4684:	000beb08 	andeq	lr, fp, r8, lsl #22
    4688:	84400100 	strbhi	r0, [r0], #-256	; 0x100
    468c:	08000000 	stmdaeq	r0, {}	; <UNPREDICTABLE>
    4690:	00000bb7 			; <UNDEFINED> instruction: 0x00000bb7
    4694:	00844101 	addeq	r4, r4, r1, lsl #2
    4698:	c0080000 	andgt	r0, r8, r0
    469c:	0100000b 	tsteq	r0, fp
    46a0:	00008441 	andeq	r8, r0, r1, asr #8
    46a4:	0c040800 	stceq	8, cr0, [r4], {-0}
    46a8:	42010000 	andmi	r0, r1, #0
    46ac:	00000084 	andeq	r0, r0, r4, lsl #1
    46b0:	7961770c 	stmdbvc	r1!, {r2, r3, r8, r9, sl, ip, sp, lr}^
    46b4:	33440100 	movtcc	r0, #16640	; 0x4100
    46b8:	0c000000 	stceq	0, cr0, [r0], {-0}
    46bc:	00746573 	rsbseq	r6, r4, r3, ror r5
    46c0:	00334401 	eorseq	r4, r3, r1, lsl #8
    46c4:	e5090000 	str	r0, [r9, #-0]
    46c8:	0100000a 	tsteq	r0, sl
    46cc:	00003344 	andeq	r3, r0, r4, asr #6
    46d0:	22070000 	andcs	r0, r7, #0
    46d4:	0100000c 	tsteq	r0, ip
    46d8:	01f90158 	mvnseq	r0, r8, asr r1
    46dc:	d6080000 	strle	r0, [r8], -r0
    46e0:	0100000c 	tsteq	r0, ip
    46e4:	00008458 	andeq	r8, r0, r8, asr r4
    46e8:	0beb0800 	bleq	ffac66f0 <__bss_end__+0xfe5b2cd8>
    46ec:	58010000 	stmdapl	r1, {}	; <UNPREDICTABLE>
    46f0:	00000084 	andeq	r0, r0, r4, lsl #1
    46f4:	000bb708 	andeq	fp, fp, r8, lsl #14
    46f8:	84590100 	ldrbhi	r0, [r9], #-256	; 0x100
    46fc:	08000000 	stmdaeq	r0, {}	; <UNPREDICTABLE>
    4700:	00000bc0 	andeq	r0, r0, r0, asr #23
    4704:	00845901 	addeq	r5, r4, r1, lsl #18
    4708:	04080000 	streq	r0, [r8], #-0
    470c:	0100000c 	tsteq	r0, ip
    4710:	0000845a 	andeq	r8, r0, sl, asr r4
    4714:	61770c00 	cmnvs	r7, r0, lsl #24
    4718:	5c010079 	stcpl	0, cr0, [r1], {121}	; 0x79
    471c:	00000033 	andeq	r0, r0, r3, lsr r0
    4720:	7465730c 	strbtvc	r7, [r5], #-780	; 0x30c
    4724:	335c0100 	cmpcc	ip, #0, 2
    4728:	09000000 	stmdbeq	r0, {}	; <UNPREDICTABLE>
    472c:	00000ae5 	andeq	r0, r0, r5, ror #21
    4730:	00335c01 	eorseq	r5, r3, r1, lsl #24
    4734:	0a000000 	beq	473c <_back_addr-0x14fb8c4>
    4738:	00000ab2 			; <UNDEFINED> instruction: 0x00000ab2
    473c:	00843701 	addeq	r3, r4, r1, lsl #14
    4740:	15010000 	strne	r0, [r1, #-0]
    4744:	09000002 	stmdbeq	r0, {r1}
    4748:	00000ab6 			; <UNDEFINED> instruction: 0x00000ab6
    474c:	00843901 	addeq	r3, r4, r1, lsl #18
    4750:	07000000 	streq	r0, [r0, -r0]
    4754:	00000b96 	muleq	r0, r6, fp
    4758:	4e01a601 	cfmadd32mi	mvax0, mvfx10, mvfx1, mvfx1
    475c:	08000002 	stmdaeq	r0, {r1}
    4760:	00000c12 	andeq	r0, r0, r2, lsl ip
    4764:	0084a601 	addeq	sl, r4, r1, lsl #12
    4768:	45080000 	strmi	r0, [r8, #-0]
    476c:	0100000c 	tsteq	r0, ip
    4770:	000084a7 	andeq	r8, r0, r7, lsr #9
    4774:	0c090800 	stceq	8, cr0, [r9], {-0}
    4778:	a7010000 	strge	r0, [r1, -r0]
    477c:	00000084 	andeq	r0, r0, r4, lsl #1
    4780:	61766d0c 	cmnvs	r6, ip, lsl #26
    4784:	84a90100 	strthi	r0, [r9], #256	; 0x100
    4788:	00000000 	andeq	r0, r0, r0
    478c:	000d0e0d 	andeq	r0, sp, sp, lsl #28
    4790:	01fb0100 	mvnseq	r0, r0, lsl #2
    4794:	000b520e 	andeq	r5, fp, lr, lsl #4
    4798:	01ed0100 	mvneq	r0, r0, lsl #2
    479c:	000b3507 	andeq	r3, fp, r7, lsl #10
    47a0:	01730100 	cmneq	r3, r0, lsl #2
    47a4:	000002c3 	andeq	r0, r0, r3, asr #5
    47a8:	000cd608 	andeq	sp, ip, r8, lsl #12
    47ac:	84730100 	ldrbthi	r0, [r3], #-256	; 0x100
    47b0:	08000000 	stmdaeq	r0, {}	; <UNPREDICTABLE>
    47b4:	00000c18 	andeq	r0, r0, r8, lsl ip
    47b8:	00847301 	addeq	r7, r4, r1, lsl #6
    47bc:	64090000 	strvs	r0, [r9], #-0
    47c0:	0100000c 	tsteq	r0, ip
    47c4:	00008475 	andeq	r8, r0, r5, ror r4
    47c8:	0beb0900 	bleq	ffac6bd0 <__bss_end__+0xfe5b31b8>
    47cc:	76010000 	strvc	r0, [r1], -r0
    47d0:	00000084 	andeq	r0, r0, r4, lsl #1
    47d4:	000bb709 	andeq	fp, fp, r9, lsl #14
    47d8:	84760100 	ldrbthi	r0, [r6], #-256	; 0x100
    47dc:	09000000 	stmdbeq	r0, {}	; <UNPREDICTABLE>
    47e0:	00000c04 	andeq	r0, r0, r4, lsl #24
    47e4:	00847601 	addeq	r7, r4, r1, lsl #12
    47e8:	b2090000 	andlt	r0, r9, #0
    47ec:	0100000b 	tsteq	r0, fp
    47f0:	00008476 	andeq	r8, r0, r6, ror r4
    47f4:	0bc00900 	bleq	ff006bfc <__bss_end__+0xfdaf31e4>
    47f8:	77010000 	strvc	r0, [r1, -r0]
    47fc:	00000084 	andeq	r0, r0, r4, lsl #1
    4800:	0b210f00 	bleq	848408 <_back_addr-0xcb7bf8>
    4804:	96010000 	strls	r0, [r1], -r0
    4808:	015022d0 	ldrsbeq	r2, [r0, #-32]	; 0xffffffe0
    480c:	000000e4 	andeq	r0, r0, r4, ror #1
    4810:	04cc9c01 	strbeq	r9, [ip], #3073	; 0xc01
    4814:	18100000 	ldmdane	r0, {}	; <UNPREDICTABLE>
    4818:	0100000c 	tsteq	r0, ip
    481c:	00008496 	muleq	r0, r6, r4
    4820:	11500100 	cmpne	r0, r0, lsl #2
    4824:	00000cd6 	ldrdeq	r0, [r0], -r6
    4828:	00849801 	addeq	r9, r4, r1, lsl #16
    482c:	28ac0000 	stmiacs	ip!, {}	; <UNPREDICTABLE>
    4830:	f2110000 	vhadd.s16	d0, d1, d0
    4834:	0100000c 	tsteq	r0, ip
    4838:	00008498 	muleq	r0, r8, r4
    483c:	0028cb00 	eoreq	ip, r8, r0, lsl #22
    4840:	0bf41100 	bleq	ffd08c48 <__bss_end__+0xfe7f5230>
    4844:	98010000 	stmdals	r1, {}	; <UNPREDICTABLE>
    4848:	00000084 	andeq	r0, r0, r4, lsl #1
    484c:	00002957 	andeq	r2, r0, r7, asr r9
    4850:	000ab612 	andeq	fp, sl, r2, lsl r6
    4854:	849a0100 	ldrhi	r0, [sl], #256	; 0x100
    4858:	01000000 	mrseq	r0, (UNDEF: 0)
    485c:	01f91357 	mvnseq	r1, r7, asr r3
    4860:	22d40000 	sbcscs	r0, r4, #0
    4864:	00040150 	andeq	r0, r4, r0, asr r1
    4868:	9a010000 	bls	44870 <_back_addr-0x14bb790>
    486c:	00000344 	andeq	r0, r0, r4, asr #6
    4870:	5022d414 	eorpl	sp, r2, r4, lsl r4
    4874:	00000401 	andeq	r0, r0, r1, lsl #8
    4878:	02091500 	andeq	r1, r9, #0, 10
    487c:	57010000 	strpl	r0, [r1, -r0]
    4880:	5e160000 	cdppl	0, 1, cr0, cr6, cr0, {0}
    4884:	08000002 	stmdaeq	r0, {r1}
    4888:	50015023 	andpl	r5, r1, r3, lsr #32
    488c:	01000005 	tsteq	r0, r5
    4890:	027517a1 	rsbseq	r1, r5, #42205184	; 0x2840000
    4894:	6a180000 	bvs	60489c <_back_addr-0xefb764>
    4898:	76000002 	strvc	r0, [r0], -r2
    489c:	19000029 	stmdbne	r0, {r0, r3, r5}
    48a0:	00000550 	andeq	r0, r0, r0, asr r5
    48a4:	0002801a 	andeq	r8, r2, sl, lsl r0
    48a8:	028b1b00 	addeq	r1, fp, #0, 22
    48ac:	29a10000 	stmibcs	r1!, {}	; <UNPREDICTABLE>
    48b0:	961b0000 	ldrls	r0, [fp], -r0
    48b4:	c3000002 	movwgt	r0, #2
    48b8:	1b000029 	blne	4964 <_back_addr-0x14fb69c>
    48bc:	000002a1 	andeq	r0, r0, r1, lsr #5
    48c0:	000029e0 	andeq	r2, r0, r0, ror #19
    48c4:	0002ac1b 	andeq	sl, r2, fp, lsl ip
    48c8:	002a0f00 	eoreq	r0, sl, r0, lsl #30
    48cc:	02b71b00 	adcseq	r1, r7, #0, 22
    48d0:	2a220000 	bcs	8848d8 <_back_addr-0xc7b728>
    48d4:	b5130000 	ldrlt	r0, [r3, #-0]
    48d8:	08000000 	stmdaeq	r0, {}	; <UNPREDICTABLE>
    48dc:	08015023 	stmdaeq	r1, {r0, r1, r5, ip, lr}
    48e0:	01000000 	mrseq	r0, (UNDEF: 0)
    48e4:	0003d179 	andeq	sp, r3, r9, ror r1
    48e8:	00cc1800 	sbceq	r1, ip, r0, lsl #16
    48ec:	2a400000 	bcs	10048f4 <_back_addr-0x4fb70c>
    48f0:	c1180000 	tstgt	r8, r0
    48f4:	76000000 	strvc	r0, [r0], -r0
    48f8:	14000029 	strne	r0, [r0], #-41	; 0x29
    48fc:	01502308 	cmpeq	r0, r8, lsl #6
    4900:	00000008 	andeq	r0, r0, r8
    4904:	0000d71b 	andeq	sp, r0, fp, lsl r7
    4908:	002a6000 	eoreq	r6, sl, r0
    490c:	13000000 	movwne	r0, #0
    4910:	000000e3 	andeq	r0, r0, r3, ror #1
    4914:	01502310 	cmpeq	r0, r0, lsl r3
    4918:	00000004 	andeq	r0, r0, r4
    491c:	03f87b01 	mvnseq	r7, #1024	; 0x400
    4920:	10140000 	andsne	r0, r4, r0
    4924:	04015023 	streq	r5, [r1], #-35	; 0x23
    4928:	1b000000 	blne	4930 <_back_addr-0x14fb6d0>
    492c:	000000f3 	strdeq	r0, [r0], -r3
    4930:	00002a7e 	andeq	r2, r0, lr, ror sl
    4934:	ff1c0000 			; <UNDEFINED> instruction: 0xff1c0000
    4938:	24000000 	strcs	r0, [r0], #-0
    493c:	68015023 	stmdavs	r1, {r0, r1, r5, ip, lr}
    4940:	01000005 	tsteq	r0, r5
    4944:	0004298a 	andeq	r2, r4, sl, lsl #19
    4948:	010f1700 	tsteq	pc, r0, lsl #14
    494c:	68190000 	ldmdavs	r9, {}	; <UNPREDICTABLE>
    4950:	1b000005 	blne	496c <_back_addr-0x14fb694>
    4954:	00000118 	andeq	r0, r0, r8, lsl r1
    4958:	00002a91 	muleq	r0, r1, sl
    495c:	0001231b 	andeq	r2, r1, fp, lsl r3
    4960:	002ab100 	eoreq	fp, sl, r0, lsl #2
    4964:	13000000 	movwne	r0, #0
    4968:	00000194 	muleq	r0, r4, r1
    496c:	0150235c 	cmpeq	r0, ip, asr r3
    4970:	00000020 	andeq	r0, r0, r0, lsr #32
    4974:	047b9101 	ldrbteq	r9, [fp], #-257	; 0x101
    4978:	cc170000 	ldcgt	0, cr0, [r7], {-0}
    497c:	17000001 	strne	r0, [r0, -r1]
    4980:	000001c1 	andeq	r0, r0, r1, asr #3
    4984:	0001b617 	andeq	fp, r1, r7, lsl r6
    4988:	01ab1700 			; <UNDEFINED> instruction: 0x01ab1700
    498c:	a0170000 	andsge	r0, r7, r0
    4990:	14000001 	strne	r0, [r0], #-1
    4994:	0150235c 	cmpeq	r0, ip, asr r3
    4998:	00000020 	andeq	r0, r0, r0, lsr #32
    499c:	0001d71b 	andeq	sp, r1, fp, lsl r7
    49a0:	002ac400 	eoreq	ip, sl, r0, lsl #8
    49a4:	01e21b00 	mvneq	r1, r0, lsl #22
    49a8:	2ae40000 	bcs	ff9049b0 <__bss_end__+0xfe3f0f98>
    49ac:	ed1b0000 	ldc	0, cr0, [fp, #-0]
    49b0:	04000001 	streq	r0, [r0], #-1
    49b4:	0000002b 	andeq	r0, r0, fp, lsr #32
    49b8:	012f1d00 	teqeq	pc, r0, lsl #26
    49bc:	23900000 	orrscs	r0, r0, #0
    49c0:	00240150 	eoreq	r0, r4, r0, asr r1
    49c4:	8e010000 	cdphi	0, 0, cr0, cr1, cr0, {0}
    49c8:	00016717 	andeq	r6, r1, r7, lsl r7
    49cc:	015c1700 	cmpeq	ip, r0, lsl #14
    49d0:	51170000 	tstpl	r7, r0
    49d4:	17000001 	strne	r0, [r0, -r1]
    49d8:	00000146 	andeq	r0, r0, r6, asr #2
    49dc:	00013b17 	andeq	r3, r1, r7, lsl fp
    49e0:	23901400 	orrscs	r1, r0, #0, 8
    49e4:	00240150 	eoreq	r0, r4, r0, asr r1
    49e8:	721b0000 	andsvc	r0, fp, #0
    49ec:	2a000001 	bcs	49f8 <_back_addr-0x14fb608>
    49f0:	1b00002b 	blne	4aa4 <_back_addr-0x14fb55c>
    49f4:	0000017d 	andeq	r0, r0, sp, ror r1
    49f8:	00002b55 	andeq	r2, r0, r5, asr fp
    49fc:	0001881b 	andeq	r8, r1, fp, lsl r8
    4a00:	002b8200 	eoreq	r8, fp, r0, lsl #4
    4a04:	00000000 	andeq	r0, r0, r0
    4a08:	9c1e0000 	ldcls	0, cr0, [lr], {-0}
    4a0c:	0100000a 	tsteq	r0, sl
    4a10:	23b40150 			; <UNDEFINED> instruction: 0x23b40150
    4a14:	00180150 	andseq	r0, r8, r0, asr r1
    4a18:	9c010000 	stcls	0, cr0, [r1], {-0}
    4a1c:	000ca51e 	andeq	sl, ip, lr, lsl r5
    4a20:	016a0100 	cmneq	sl, r0, lsl #2
    4a24:	015023cc 	cmpeq	r0, ip, asr #7
    4a28:	00000004 	andeq	r0, r0, r4
    4a2c:	bd1e9c01 	ldclt	12, cr9, [lr, #-4]
    4a30:	0100000c 	tsteq	r0, ip
    4a34:	23d00170 	bicscs	r0, r0, #112, 2
    4a38:	00040150 	andeq	r0, r4, r0, asr r1
    4a3c:	9c010000 	stcls	0, cr0, [r1], {-0}
    4a40:	000bca1e 	andeq	ip, fp, lr, lsl sl
    4a44:	01760100 	cmneq	r6, r0, lsl #2
    4a48:	015023d4 	ldrsbeq	r2, [r0, #-52]	; 0xffffffcc
    4a4c:	00000004 	andeq	r0, r0, r4
    4a50:	fd1f9c01 	ldc2	12, cr9, [pc, #-4]	; 4a54 <_back_addr-0x14fb5ac>
    4a54:	0100000c 	tsteq	r0, ip
    4a58:	23d80106 	bicscs	r0, r8, #-2147483647	; 0x80000001
    4a5c:	00140150 	andseq	r0, r4, r0, asr r1
    4a60:	9c010000 	stcls	0, cr0, [r1], {-0}
    4a64:	00000543 	andeq	r0, r0, r3, asr #10
    4a68:	5023e420 	eorpl	lr, r3, r0, lsr #8
    4a6c:	0002c301 	andeq	ip, r2, r1, lsl #6
    4a70:	00053d00 	andeq	r3, r5, r0, lsl #26
    4a74:	50012100 	andpl	r2, r1, r0, lsl #2
    4a78:	22003201 	andcs	r3, r0, #268435456	; 0x10000000
    4a7c:	015023ec 	cmpeq	r0, ip, ror #7
    4a80:	0b5f1e00 	bleq	17cc288 <__bss_end__+0x2b8870>
    4a84:	7c010000 	stcvc	0, cr0, [r1], {-0}
    4a88:	5023ec01 	eorpl	lr, r3, r1, lsl #24
    4a8c:	00000401 	andeq	r0, r0, r1, lsl #8
    4a90:	239c0100 	orrscs	r0, ip, #0, 2
    4a94:	0000024e 	andeq	r0, r0, lr, asr #4
    4a98:	015023f0 	ldrsheq	r2, [r0, #-48]	; 0xffffffd0
    4a9c:	00000014 	andeq	r0, r0, r4, lsl r0
    4aa0:	05819c01 	streq	r9, [r1, #3073]	; 0xc01
    4aa4:	fc200000 	stc2	0, cr0, [r0], #-0
    4aa8:	c3015023 	movwgt	r5, #4131	; 0x1023
    4aac:	7b000002 	blvc	4abc <_back_addr-0x14fb544>
    4ab0:	21000005 	tstcs	r0, r5
    4ab4:	31015001 	tstcc	r1, r1
    4ab8:	24042200 	strcs	r2, [r4], #-512	; 0x200
    4abc:	1f000150 	svcne	0x00000150
    4ac0:	00000c88 	andeq	r0, r0, r8, lsl #25
    4ac4:	04012501 	streq	r2, [r1], #-1281	; 0x501
    4ac8:	30015024 	andcc	r5, r1, r4, lsr #32
    4acc:	01000000 	mrseq	r0, (UNDEF: 0)
    4ad0:	0005da9c 	muleq	r5, ip, sl
    4ad4:	024e2400 	subeq	r2, lr, #0, 8
    4ad8:	240c0000 	strcs	r0, [ip], #-0
    4adc:	000c0150 	andeq	r0, ip, r0, asr r1
    4ae0:	28010000 	stmdacs	r1, {}	; <UNPREDICTABLE>
    4ae4:	0005c401 	andeq	ip, r5, r1, lsl #8
    4ae8:	24142000 	ldrcs	r2, [r4], #-0
    4aec:	02c30150 	sbceq	r0, r3, #80, 2
    4af0:	05be0000 	ldreq	r0, [lr, #0]!
    4af4:	01210000 	teqeq	r1, r0
    4af8:	00310150 	eorseq	r0, r1, r0, asr r1
    4afc:	50241825 	eorpl	r1, r4, r5, lsr #16
    4b00:	56260001 	strtpl	r0, [r6], -r1
    4b04:	18000002 	stmdane	r0, {r1}
    4b08:	1c015024 	stcne	0, cr5, [r1], {36}	; 0x24
    4b0c:	01000000 	mrseq	r0, (UNDEF: 0)
    4b10:	0c250129 	stfeqs	f0, [r5], #-164	; 0xffffff5c
    4b14:	00015024 	andeq	r5, r1, r4, lsr #32
    4b18:	000b041f 	andeq	r0, fp, pc, lsl r4
    4b1c:	01820100 	orreq	r0, r2, r0, lsl #2
    4b20:	01502434 	cmpeq	r0, r4, lsr r4
    4b24:	00000004 	andeq	r0, r0, r4
    4b28:	060d9c01 	streq	r9, [sp], -r1, lsl #24
    4b2c:	12270000 	eorne	r0, r7, #0
    4b30:	0100000c 	tsteq	r0, ip
    4b34:	00840182 	addeq	r0, r4, r2, lsl #3
    4b38:	50010000 	andpl	r0, r1, r0
    4b3c:	646e6528 	strbtvs	r6, [lr], #-1320	; 0x528
    4b40:	01820100 	orreq	r0, r2, r0, lsl #2
    4b44:	00000084 	andeq	r0, r0, r4, lsl #1
    4b48:	07005101 	streq	r5, [r0, -r1, lsl #2]
    4b4c:	00000cdc 	ldrdeq	r0, [r0], -ip
    4b50:	5101d301 	tstpl	r1, r1, lsl #6
    4b54:	08000006 	stmdaeq	r0, {r1, r2}
    4b58:	00000c12 	andeq	r0, r0, r2, lsl ip
    4b5c:	0084d301 	addeq	sp, r4, r1, lsl #6
    4b60:	45080000 	strmi	r0, [r8, #-0]
    4b64:	0100000c 	tsteq	r0, ip
    4b68:	000084d3 	ldrdeq	r8, [r0], -r3
    4b6c:	0c9c0800 	ldceq	8, cr0, [ip], {0}
    4b70:	d3010000 	movwle	r0, #4096	; 0x1000
    4b74:	00000084 	andeq	r0, r0, r4, lsl #1
    4b78:	000c0909 	andeq	r0, ip, r9, lsl #18
    4b7c:	84d50100 	ldrbhi	r0, [r5], #256	; 0x100
    4b80:	09000000 	stmdbeq	r0, {}	; <UNPREDICTABLE>
    4b84:	00000c64 	andeq	r0, r0, r4, ror #24
    4b88:	0084d501 	addeq	sp, r4, r1, lsl #10
    4b8c:	1f000000 	svcne	0x00000000
    4b90:	00000abc 			; <UNDEFINED> instruction: 0x00000abc
    4b94:	38011e01 	stmdacc	r1, {r0, r9, sl, fp, ip}
    4b98:	3c015024 	stccc	0, cr5, [r1], {36}	; 0x24
    4b9c:	01000000 	mrseq	r0, (UNDEF: 0)
    4ba0:	0007379c 	muleq	r7, ip, r7
    4ba4:	0c122900 	ldceq	9, cr2, [r2], {-0}
    4ba8:	1e010000 	cdpne	0, 0, cr0, cr1, cr0, {0}
    4bac:	00002c01 	andeq	r2, r0, r1, lsl #24
    4bb0:	002bb300 	eoreq	fp, fp, r0, lsl #6
    4bb4:	0c452900 	mcrreq	9, 0, r2, r5, cr0
    4bb8:	1e010000 	cdpne	0, 0, cr0, cr1, cr0, {0}
    4bbc:	00002c01 	andeq	r2, r0, r1, lsl #24
    4bc0:	002bd400 	eoreq	sp, fp, r0, lsl #8
    4bc4:	060d2400 	streq	r2, [sp], -r0, lsl #8
    4bc8:	24380000 	ldrtcs	r0, [r8], #-0
    4bcc:	00380150 	eorseq	r0, r8, r0, asr r1
    4bd0:	20010000 	andcs	r0, r1, r0
    4bd4:	00073101 	andeq	r3, r7, r1, lsl #2
    4bd8:	062f2a00 	strteq	r2, [pc], -r0, lsl #20
    4bdc:	18040000 	stmdane	r4, {}	; <UNPREDICTABLE>
    4be0:	00000624 	andeq	r0, r0, r4, lsr #12
    4be4:	00002bd4 	ldrdeq	r2, [r0], -r4
    4be8:	00061918 	andeq	r1, r6, r8, lsl r9
    4bec:	002bb300 	eoreq	fp, fp, r0, lsl #6
    4bf0:	24381400 	ldrtcs	r1, [r8], #-1024	; 0x400
    4bf4:	00380150 	eorseq	r0, r8, r0, asr r1
    4bf8:	3a1b0000 	bcc	6c4c00 <_back_addr-0xe3b400>
    4bfc:	f5000006 			; <UNDEFINED> instruction: 0xf5000006
    4c00:	1a00002b 	bne	4cb4 <_back_addr-0x14fb34c>
    4c04:	00000645 	andeq	r0, r0, r5, asr #12
    4c08:	0000e313 	andeq	lr, r0, r3, lsl r3
    4c0c:	50243800 	eorpl	r3, r4, r0, lsl #16
    4c10:	00000401 	andeq	r0, r0, r1, lsl #8
    4c14:	f1d70100 			; <UNDEFINED> instruction: 0xf1d70100
    4c18:	14000006 	strne	r0, [r0], #-6
    4c1c:	01502438 	cmpeq	r0, r8, lsr r4
    4c20:	00000004 	andeq	r0, r0, r4
    4c24:	0000f31b 	andeq	pc, r0, fp, lsl r3	; <UNPREDICTABLE>
    4c28:	002c1900 	eoreq	r1, ip, r0, lsl #18
    4c2c:	1d000000 	stcne	0, cr0, [r0, #-0]
    4c30:	00000215 	andeq	r0, r0, r5, lsl r2
    4c34:	0150244c 	cmpeq	r0, ip, asr #8
    4c38:	00000020 	andeq	r0, r0, r0, lsr #32
    4c3c:	3718e101 	ldrcc	lr, [r8, -r1, lsl #2]
    4c40:	2c000002 	stccs	0, cr0, [r0], {2}
    4c44:	1800002c 	stmdane	r0, {r2, r3, r5}
    4c48:	0000022c 	andeq	r0, r0, ip, lsr #4
    4c4c:	00002c3f 	andeq	r2, r0, pc, lsr ip
    4c50:	00022118 	andeq	r2, r2, r8, lsl r1
    4c54:	002c6000 	eoreq	r6, ip, r0
    4c58:	244c1400 	strbcs	r1, [ip], #-1024	; 0x400
    4c5c:	00200150 	eoreq	r0, r0, r0, asr r1
    4c60:	421b0000 	andsmi	r0, fp, #0
    4c64:	8f000002 	svchi	0x00000002
    4c68:	0000002c 	andeq	r0, r0, ip, lsr #32
    4c6c:	22000000 	andcs	r0, r0, #0
    4c70:	01502474 	cmpeq	r0, r4, ror r4
    4c74:	064b1f00 	strbeq	r1, [fp], -r0, lsl #30
    4c78:	30010000 	andcc	r0, r1, r0
    4c7c:	50247401 	eorpl	r7, r4, r1, lsl #8
    4c80:	00000801 	andeq	r0, r0, r1, lsl #16
    4c84:	8a9c0100 	bhi	fe70508c <__bss_end__+0xfd1f1674>
    4c88:	29000007 	stmdbcs	r0, {r0, r1, r2}
    4c8c:	00000c12 	andeq	r0, r0, r2, lsl ip
    4c90:	2c013001 	stccs	0, cr3, [r1], {1}
    4c94:	a2000000 	andge	r0, r0, #0
    4c98:	2900002c 	stmdbcs	r0, {r2, r3, r5}
    4c9c:	00000450 	andeq	r0, r0, r0, asr r4
    4ca0:	2c013001 	stccs	0, cr3, [r1], {1}
    4ca4:	c3000000 	movwgt	r0, #0
    4ca8:	2b00002c 	blcs	4d60 <_back_addr-0x14fb2a0>
    4cac:	0150247c 	cmpeq	r0, ip, ror r4
    4cb0:	00000651 	andeq	r0, r0, r1, asr r6
    4cb4:	03500121 	cmpeq	r0, #1073741832	; 0x40000008
    4cb8:	215001f3 	ldrshcs	r0, [r0, #-19]	; 0xffffffed
    4cbc:	f3075101 	vrhadd.u8	d5, d7, d1
    4cc0:	01f35001 	mvnseq	r5, r1
    4cc4:	00002251 	andeq	r2, r0, r1, asr r2
    4cc8:	000c6b1f 	andeq	r6, ip, pc, lsl fp
    4ccc:	01880100 	orreq	r0, r8, r0, lsl #2
    4cd0:	0150247c 	cmpeq	r0, ip, ror r4
    4cd4:	00000004 	andeq	r0, r0, r4
    4cd8:	07bd9c01 	ldreq	r9, [sp, r1, lsl #24]!
    4cdc:	12270000 	eorne	r0, r7, #0
    4ce0:	0100000c 	tsteq	r0, ip
    4ce4:	00840188 	addeq	r0, r4, r8, lsl #3
    4ce8:	50010000 	andpl	r0, r1, r0
    4cec:	646e6528 	strbtvs	r6, [lr], #-1320	; 0x528
    4cf0:	01880100 	orreq	r0, r8, r0, lsl #2
    4cf4:	00000084 	andeq	r0, r0, r4, lsl #1
    4cf8:	07005101 	streq	r5, [r0, -r1, lsl #2]
    4cfc:	00000c4a 	andeq	r0, r0, sl, asr #24
    4d00:	f601b301 			; <UNDEFINED> instruction: 0xf601b301
    4d04:	08000007 	stmdaeq	r0, {r0, r1, r2}
    4d08:	00000c12 	andeq	r0, r0, r2, lsl ip
    4d0c:	0084b301 	addeq	fp, r4, r1, lsl #6
    4d10:	45080000 	strmi	r0, [r8, #-0]
    4d14:	0100000c 	tsteq	r0, ip
    4d18:	000084b3 			; <UNDEFINED> instruction: 0x000084b3
    4d1c:	0c090800 	stceq	8, cr0, [r9], {-0}
    4d20:	b3010000 	movwlt	r0, #4096	; 0x1000
    4d24:	00000084 	andeq	r0, r0, r4, lsl #1
    4d28:	61766d0c 	cmnvs	r6, ip, lsl #26
    4d2c:	84b50100 	ldrthi	r0, [r5], #256	; 0x100
    4d30:	00000000 	andeq	r0, r0, r0
    4d34:	000aec1f 	andeq	lr, sl, pc, lsl ip
    4d38:	01110100 	tsteq	r1, r0, lsl #2
    4d3c:	01502480 	cmpeq	r0, r0, lsl #9
    4d40:	00000068 	andeq	r0, r0, r8, rrx
    4d44:	08dc9c01 	ldmeq	ip, {r0, sl, fp, ip, pc}^
    4d48:	12290000 	eorne	r0, r9, #0
    4d4c:	0100000c 	tsteq	r0, ip
    4d50:	002c0111 	eoreq	r0, ip, r1, lsl r1
    4d54:	2ce40000 	stclcs	0, cr0, [r4]
    4d58:	45290000 	strmi	r0, [r9, #-0]!
    4d5c:	0100000c 	tsteq	r0, ip
    4d60:	002c0111 	eoreq	r0, ip, r1, lsl r1
    4d64:	2d050000 	stccs	0, cr0, [r5, #-0]
    4d68:	0d240000 	stceq	0, cr0, [r4, #-0]
    4d6c:	84000006 	strhi	r0, [r0], #-6
    4d70:	5c015024 	stcpl	0, cr5, [r1], {36}	; 0x24
    4d74:	01000000 	mrseq	r0, (UNDEF: 0)
    4d78:	08d60114 	ldmeq	r6, {r2, r4, r8}^
    4d7c:	2f2a0000 	svccs	0x002a0000
    4d80:	03000006 	movweq	r0, #6
    4d84:	00062418 	andeq	r2, r6, r8, lsl r4
    4d88:	002d0500 	eoreq	r0, sp, r0, lsl #10
    4d8c:	06191800 	ldreq	r1, [r9], -r0, lsl #16
    4d90:	2ce40000 	stclcs	0, cr0, [r4]
    4d94:	84140000 	ldrhi	r0, [r4], #-0
    4d98:	5c015024 	stcpl	0, cr5, [r1], {36}	; 0x24
    4d9c:	1b000000 	blne	4da4 <_back_addr-0x14fb25c>
    4da0:	0000063a 	andeq	r0, r0, sl, lsr r6
    4da4:	00002d26 	andeq	r2, r0, r6, lsr #26
    4da8:	0006451a 	andeq	r4, r6, sl, lsl r5
    4dac:	00e31300 	rsceq	r1, r3, r0, lsl #6
    4db0:	24840000 	strcs	r0, [r4], #0
    4db4:	00040150 	andeq	r0, r4, r0, asr r1
    4db8:	d7010000 	strle	r0, [r1, -r0]
    4dbc:	00000896 	muleq	r0, r6, r8
    4dc0:	50248414 	eorpl	r8, r4, r4, lsl r4
    4dc4:	00000401 	andeq	r0, r0, r1, lsl #8
    4dc8:	00f31b00 	rscseq	r1, r3, r0, lsl #22
    4dcc:	2d4a0000 	stclcs	0, cr0, [sl, #-0]
    4dd0:	00000000 	andeq	r0, r0, r0
    4dd4:	0007bd1d 	andeq	fp, r7, sp, lsl sp
    4dd8:	50249800 	eorpl	r9, r4, r0, lsl #16
    4ddc:	00004401 	andeq	r4, r0, r1, lsl #8
    4de0:	18e40100 	stmiane	r4!, {r8}^
    4de4:	000007df 	ldrdeq	r0, [r0], -pc	; <UNPREDICTABLE>
    4de8:	00002d5d 	andeq	r2, r0, sp, asr sp
    4dec:	0007d418 	andeq	sp, r7, r8, lsl r4
    4df0:	002d7000 	eoreq	r7, sp, r0
    4df4:	07c91800 	strbeq	r1, [r9, r0, lsl #16]
    4df8:	2d8e0000 	stccs	0, cr0, [lr]
    4dfc:	98140000 	ldmdals	r4, {}	; <UNPREDICTABLE>
    4e00:	44015024 	strmi	r5, [r1], #-36	; 0x24
    4e04:	1b000000 	blne	4e0c <_back_addr-0x14fb1f4>
    4e08:	000007ea 	andeq	r0, r0, sl, ror #15
    4e0c:	00002dac 	andeq	r2, r0, ip, lsr #27
    4e10:	00000000 	andeq	r0, r0, r0
    4e14:	5024e822 	eorpl	lr, r4, r2, lsr #16
    4e18:	d52c0001 	strle	r0, [ip, #-1]!
    4e1c:	04000004 	streq	r0, [r0], #-4
    4e20:	008f01f6 	strdeq	r0, [pc], r6
    4e24:	60000000 	andvs	r0, r0, r0
    4e28:	04000014 	streq	r0, [r0], #-20
    4e2c:	0011d600 	andseq	sp, r1, r0, lsl #12
    4e30:	af010400 	svcge	0x00010400
    4e34:	01000000 	mrseq	r0, (UNDEF: 0)
    4e38:	00000ef6 	strdeq	r0, [r0], -r6
    4e3c:	00000455 	andeq	r0, r0, r5, asr r4
    4e40:	015024e8 	cmpeq	r0, r8, ror #9
    4e44:	0000087c 	andeq	r0, r0, ip, ror r8
    4e48:	00000f19 	andeq	r0, r0, r9, lsl pc
    4e4c:	3b070402 	blcc	1c5e5c <_back_addr-0x133a1a4>
    4e50:	03000000 	movweq	r0, #0
    4e54:	470f0304 	strmi	r0, [pc, -r4, lsl #6]
    4e58:	04000000 	streq	r0, [r0], #-0
    4e5c:	00000fc3 	andeq	r0, r0, r3, asr #31
    4e60:	0f990400 	svceq	0x00990400
    4e64:	04010000 	streq	r0, [r1], #-0
    4e68:	00000fa4 	andeq	r0, r0, r4, lsr #31
    4e6c:	34050002 	strcc	r0, [r5], #-2
    4e70:	0300000d 	movweq	r0, #13
    4e74:	00002c13 	andeq	r2, r0, r3, lsl ip
    4e78:	08010200 	stmdaeq	r1, {r9}
    4e7c:	00000019 	andeq	r0, r0, r9, lsl r0
    4e80:	69050406 	stmdbvs	r5, {r1, r2, sl}
    4e84:	0700746e 	streq	r7, [r0, -lr, ror #8]
    4e88:	00000f8b 	andeq	r0, r0, fp, lsl #31
    4e8c:	7f7f0804 	svcvc	0x007f0804
    4e90:	04000000 	streq	r0, [r0], #-0
    4e94:	00000da5 	andeq	r0, r0, r5, lsr #27
    4e98:	0f720400 	svceq	0x00720400
    4e9c:	04010000 	streq	r0, [r1], #-0
    4ea0:	00001041 	andeq	r1, r0, r1, asr #32
    4ea4:	0402007f 	streq	r0, [r2], #-127	; 0x7f
    4ea8:	00020b07 	andeq	r0, r2, r7, lsl #22
    4eac:	07040200 	streq	r0, [r4, -r0, lsl #4]
    4eb0:	00000036 	andeq	r0, r0, r6, lsr r0
    4eb4:	1e070202 	cdpne	2, 0, cr0, cr7, cr2, {0}
    4eb8:	02000000 	andeq	r0, r0, #0
    4ebc:	004d0504 	subeq	r0, sp, r4, lsl #10
    4ec0:	08020000 	stmdaeq	r2, {}	; <UNPREDICTABLE>
    4ec4:	00004805 	andeq	r4, r0, r5, lsl #16
    4ec8:	06010200 	streq	r0, [r1], -r0, lsl #4
    4ecc:	00000012 	andeq	r0, r0, r2, lsl r0
    4ed0:	000e2505 	andeq	r2, lr, r5, lsl #10
    4ed4:	b40c0400 	strlt	r0, [ip], #-1024	; 0x400
    4ed8:	02000000 	andeq	r0, r0, #0
    4edc:	00100801 	andseq	r0, r0, r1, lsl #16
    4ee0:	02020000 	andeq	r0, r2, #0
    4ee4:	0000a505 	andeq	sl, r0, r5, lsl #10
    4ee8:	0d4c0500 	cfstr64eq	mvdx0, [ip, #-0]
    4eec:	0f040000 	svceq	0x00040000
    4ef0:	0000008d 	andeq	r0, r0, sp, lsl #1
    4ef4:	000e4305 	andeq	r4, lr, r5, lsl #6
    4ef8:	25120400 	ldrcs	r0, [r2, #-1024]	; 0x400
    4efc:	02000000 	andeq	r0, r0, #0
    4f00:	00310708 	eorseq	r0, r1, r8, lsl #14
    4f04:	57050000 	strpl	r0, [r5, -r0]
    4f08:	05000006 	streq	r0, [r0, #-6]
    4f0c:	0000255c 	andeq	r2, r0, ip, asr r5
    4f10:	0d240500 	cfstr32eq	mvfx0, [r4, #-0]
    4f14:	5d050000 	stcpl	0, cr0, [r5, #-0]
    4f18:	00000086 	andeq	r0, r0, r6, lsl #1
    4f1c:	00101505 	andseq	r1, r0, r5, lsl #10
    4f20:	a96b0500 	stmdbge	fp!, {r8, sl}^
    4f24:	05000000 	streq	r0, [r0, #-0]
    4f28:	00000db5 			; <UNDEFINED> instruction: 0x00000db5
    4f2c:	00c26c05 	sbceq	r6, r2, r5, lsl #24
    4f30:	82050000 	andhi	r0, r5, #0
    4f34:	0500000f 	streq	r0, [r0, #-15]
    4f38:	0000cd6d 	andeq	ip, r0, sp, ror #26
    4f3c:	081c0500 	ldmdaeq	ip, {r8, sl}
    4f40:	0b010000 	bleq	44f48 <_back_addr-0x14bb0b8>
    4f44:	000000b4 	strheq	r0, [r0], -r4
    4f48:	0006be08 	andeq	fp, r6, r8, lsl #28
    4f4c:	25440200 	strbcs	r0, [r4, #-512]	; 0x200
    4f50:	03000000 	movweq	r0, #0
    4f54:	0000013d 	andeq	r0, r0, sp, lsr r1
    4f58:	00063609 	andeq	r3, r6, r9, lsl #12
    4f5c:	25440200 	strbcs	r0, [r4, #-512]	; 0x200
    4f60:	00000000 	andeq	r0, r0, r0
    4f64:	0004b50a 	andeq	fp, r4, sl, lsl #10
    4f68:	035f0200 	cmpeq	pc, #0, 4
    4f6c:	00000160 	andeq	r0, r0, r0, ror #2
    4f70:	00063609 	andeq	r3, r6, r9, lsl #12
    4f74:	255f0200 	ldrbcs	r0, [pc, #-512]	; 4d7c <_back_addr-0x14fb284>
    4f78:	0b000000 	bleq	4f80 <_back_addr-0x14fb080>
    4f7c:	006c6176 	rsbeq	r6, ip, r6, ror r1
    4f80:	00255f02 	eoreq	r5, r5, r2, lsl #30
    4f84:	0c000000 	stceq	0, cr0, [r0], {-0}
    4f88:	00000d71 	andeq	r0, r0, r1, ror sp
    4f8c:	59018601 	stmdbpl	r1, {r0, r9, sl, pc}
    4f90:	01000000 	mrseq	r0, (UNDEF: 0)
    4f94:	000001c8 	andeq	r0, r0, r8, asr #3
    4f98:	000d7f0d 	andeq	r7, sp, sp, lsl #30
    4f9c:	01860100 	orreq	r0, r6, r0, lsl #2
    4fa0:	000000b4 	strheq	r0, [r0], -r4
    4fa4:	00106d0e 	andseq	r6, r0, lr, lsl #26
    4fa8:	59df0100 	ldmibpl	pc, {r8}^	; <UNPREDICTABLE>
    4fac:	8e000000 	cdphi	0, 0, cr0, cr0, cr0, {0}
    4fb0:	0f000001 	svceq	0x00000001
    4fb4:	01a11000 			; <UNDEFINED> instruction: 0x01a11000
    4fb8:	dc110000 	ldcle	0, cr0, [r1], {-0}
    4fbc:	01000002 	tsteq	r0, r2
    4fc0:	00005984 	andeq	r5, r0, r4, lsl #19
    4fc4:	00000f00 	andeq	r0, r0, r0, lsl #30
    4fc8:	0001b610 	andeq	fp, r1, r0, lsl r6
    4fcc:	0e861200 	cdpeq	2, 8, cr1, cr6, cr0, {0}
    4fd0:	d3010000 	movwle	r0, #4096	; 0x1000
    4fd4:	00000059 	andeq	r0, r0, r9, asr r0
    4fd8:	000f0f00 	andeq	r0, pc, r0, lsl #30
    4fdc:	86121300 	ldrhi	r1, [r2], -r0, lsl #6
    4fe0:	0100000e 	tsteq	r0, lr
    4fe4:	000059d3 	ldrdeq	r5, [r0], -r3
    4fe8:	0f0f0000 	svceq	0x000f0000
    4fec:	0c000000 	stceq	0, cr0, [r0], {-0}
    4ff0:	00000faf 	andeq	r0, r0, pc, lsr #31
    4ff4:	5901a301 	stmdbpl	r1, {r0, r8, r9, sp, pc}
    4ff8:	01000000 	mrseq	r0, (UNDEF: 0)
    4ffc:	00000230 	andeq	r0, r0, r0, lsr r2
    5000:	000fbd0d 	andeq	fp, pc, sp, lsl #26
    5004:	01a30100 			; <UNDEFINED> instruction: 0x01a30100
    5008:	000000b4 	strheq	r0, [r0], -r4
    500c:	00106d0e 	andseq	r6, r0, lr, lsl #26
    5010:	59df0100 	ldmibpl	pc, {r8}^	; <UNPREDICTABLE>
    5014:	f6000000 			; <UNDEFINED> instruction: 0xf6000000
    5018:	0f000001 	svceq	0x00000001
    501c:	02091000 	andeq	r1, r9, #0
    5020:	dc110000 	ldcle	0, cr0, [r1], {-0}
    5024:	01000002 	tsteq	r0, r2
    5028:	00005984 	andeq	r5, r0, r4, lsl #19
    502c:	00000f00 	andeq	r0, r0, r0, lsl #30
    5030:	00021e10 	andeq	r1, r2, r0, lsl lr
    5034:	0e861200 	cdpeq	2, 8, cr1, cr6, cr0, {0}
    5038:	d3010000 	movwle	r0, #4096	; 0x1000
    503c:	00000059 	andeq	r0, r0, r9, asr r0
    5040:	000f0f00 	andeq	r0, pc, r0, lsl #30
    5044:	86121300 	ldrhi	r1, [r2], -r0, lsl #6
    5048:	0100000e 	tsteq	r0, lr
    504c:	000059d3 	ldrdeq	r5, [r0], -r3
    5050:	0f0f0000 	svceq	0x000f0000
    5054:	14000000 	strne	r0, [r0], #-0
    5058:	00000dbe 			; <UNDEFINED> instruction: 0x00000dbe
    505c:	00597401 	subseq	r7, r9, r1, lsl #8
    5060:	24e80000 	strbtcs	r0, [r8], #0
    5064:	01dc0150 	bicseq	r0, ip, r0, asr r1
    5068:	9c010000 	stcls	0, cr0, [r1], {-0}
    506c:	000003ab 	andeq	r0, r0, fp, lsr #7
    5070:	00063615 	andeq	r3, r6, r5, lsl r6
    5074:	ea740100 	b	1d0547c <__bss_end__+0x7f1a64>
    5078:	bf000000 	svclt	0x00000000
    507c:	1500002d 	strne	r0, [r0, #-45]	; 0x2d
    5080:	000003ec 	andeq	r0, r0, ip, ror #7
    5084:	03ab7401 			; <UNDEFINED> instruction: 0x03ab7401
    5088:	2e190000 	cdpcs	0, 1, cr0, cr9, cr0, {0}
    508c:	61150000 	tstvs	r5, r0
    5090:	0100000e 	tsteq	r0, lr
    5094:	0000df74 	andeq	sp, r0, r4, ror pc
    5098:	002e5100 	eoreq	r5, lr, r0, lsl #2
    509c:	0e5b1500 	cdpeq	5, 5, cr1, cr11, cr0, {0}
    50a0:	74010000 	strvc	r0, [r1], #-0
    50a4:	000000df 	ldrdeq	r0, [r0], -pc	; <UNPREDICTABLE>
    50a8:	00002e72 	andeq	r2, r0, r2, ror lr
    50ac:	00095e15 	andeq	r5, r9, r5, lsl lr
    50b0:	df740100 	svcle	0x00740100
    50b4:	90000000 	andls	r0, r0, r0
    50b8:	1600002e 	strne	r0, [r0], -lr, lsr #32
    50bc:	00000e6a 	andeq	r0, r0, sl, ror #28
    50c0:	00df7401 	sbcseq	r7, pc, r1, lsl #8
    50c4:	91020000 	mrsls	r0, (UNDEF: 2)
    50c8:	0dd11504 	cfldr64eq	mvdx1, [r1, #16]
    50cc:	74010000 	strvc	r0, [r1], #-0
    50d0:	000000df 	ldrdeq	r0, [r0], -pc	; <UNPREDICTABLE>
    50d4:	00002ec5 	andeq	r2, r0, r5, asr #29
    50d8:	00105a17 	andseq	r5, r0, r7, lsl sl
    50dc:	77014400 	strvc	r4, [r1, -r0, lsl #8]
    50e0:	000002dc 	ldrdeq	r0, [r0], -ip
    50e4:	00697518 	rsbeq	r7, r9, r8, lsl r5
    50e8:	03ad7801 			; <UNDEFINED> instruction: 0x03ad7801
    50ec:	75180000 	ldrvc	r0, [r8, #-0]
    50f0:	79010073 	stmdbvc	r1, {r0, r1, r4, r5, r6}
    50f4:	000003bd 			; <UNDEFINED> instruction: 0x000003bd
    50f8:	00637518 	rsbeq	r7, r3, r8, lsl r5
    50fc:	03cd7a01 	biceq	r7, sp, #4096	; 0x1000
    5100:	19000000 	stmdbne	r0, {}	; <UNPREDICTABLE>
    5104:	0100626c 	tsteq	r0, ip, ror #4
    5108:	0002b17b 	andeq	fp, r2, fp, ror r1
    510c:	94910300 	ldrls	r0, [r1], #768	; 0x300
    5110:	00691a7f 	rsbeq	r1, r9, pc, ror sl
    5114:	00597c01 	subseq	r7, r9, r1, lsl #24
    5118:	2f400000 	svccs	0x00400000
    511c:	801b0000 	andshi	r0, fp, r0
    5120:	0e000005 	cdpeq	0, 0, cr0, cr0, cr5, {0}
    5124:	000002dc 	ldrdeq	r0, [r0], -ip
    5128:	00598401 	subseq	r8, r9, r1, lsl #8
    512c:	030d0000 	movweq	r0, #53248	; 0xd000
    5130:	000f0000 	andeq	r0, pc, r0
    5134:	0003fe0e 	andeq	pc, r3, lr, lsl #28
    5138:	59aa0100 	stmibpl	sl!, {r8}
    513c:	1e000000 	cdpne	0, 0, cr0, cr0, cr0, {0}
    5140:	0f000003 	svceq	0x00000003
    5144:	05a01c00 	streq	r1, [r0, #3072]!	; 0xc00
    5148:	03510000 	cmpeq	r1, #0
    514c:	781a0000 	ldmdavc	sl, {}	; <UNPREDICTABLE>
    5150:	0b8c0100 	bleq	fe305558 <__bss_end__+0xfcdf1b40>
    5154:	ad000001 	stcge	0, cr0, [r0, #-4]
    5158:	1d00002f 	stcne	0, cr0, [r0, #-188]	; 0xffffff44
    515c:	01502578 	cmpeq	r0, r8, ror r5
    5160:	000013ed 	andeq	r1, r0, sp, ror #7
    5164:	5025d81e 	eorpl	sp, r5, lr, lsl r8
    5168:	0013ed01 	andseq	lr, r3, r1, lsl #26
    516c:	50011f00 	andpl	r1, r1, r0, lsl #30
    5170:	30440305 	subcc	r0, r4, r5, lsl #6
    5174:	00000150 	andeq	r0, r0, r0, asr r1
    5178:	50253820 	eorpl	r3, r5, r0, lsr #16
    517c:	0013ed01 	andseq	lr, r3, r1, lsl #26
    5180:	00036f00 	andeq	r6, r3, r0, lsl #30
    5184:	50011f00 	andpl	r1, r1, r0, lsl #30
    5188:	30300305 	eorscc	r0, r0, r5, lsl #6
    518c:	011f0150 	tsteq	pc, r0, asr r1	; <UNPREDICTABLE>
    5190:	007d0351 	rsbseq	r0, sp, r1, asr r3
    5194:	78200006 	stmdavc	r0!, {r1, r2}
    5198:	ed015026 	stc	0, cr5, [r1, #-152]	; 0xffffff68
    519c:	8d000013 	stchi	0, cr0, [r0, #-76]	; 0xffffffb4
    51a0:	1f000003 	svcne	0x00000003
    51a4:	03055001 	movweq	r5, #20481	; 0x5001
    51a8:	01503048 	cmpeq	r0, r8, asr #32
    51ac:	0351011f 	cmpeq	r1, #-1073741817	; 0xc0000007
    51b0:	007f8c91 			; <UNDEFINED> instruction: 0x007f8c91
    51b4:	50267c1d 	eorpl	r7, r6, sp, lsl ip
    51b8:	0013fe01 	andseq	pc, r3, r1, lsl #28
    51bc:	26b41e00 	ldrtcs	r1, [r4], r0, lsl #28
    51c0:	13ed0150 	mvnne	r0, #80, 2
    51c4:	011f0000 	tsteq	pc, r0
    51c8:	54030550 	strpl	r0, [r3], #-1360	; 0x550
    51cc:	00015030 	andeq	r5, r1, r0, lsr r0
    51d0:	04210000 	strteq	r0, [r1], #-0
    51d4:	00010b22 	andeq	r0, r1, r2, lsr #22
    51d8:	0003bd00 	andeq	fp, r3, r0, lsl #26
    51dc:	007f2300 	rsbseq	r2, pc, r0, lsl #6
    51e0:	00100000 	andseq	r0, r0, r0
    51e4:	00010022 	andeq	r0, r1, r2, lsr #32
    51e8:	0003cd00 	andeq	ip, r3, r0, lsl #26
    51ec:	007f2300 	rsbseq	r2, pc, r0, lsl #6
    51f0:	00200000 	eoreq	r0, r0, r0
    51f4:	0000f522 	andeq	pc, r0, r2, lsr #10
    51f8:	0003dd00 	andeq	sp, r3, r0, lsl #26
    51fc:	007f2300 	rsbseq	r2, pc, r0, lsl #6
    5200:	00400000 	subeq	r0, r0, r0
    5204:	000d5b24 	andeq	r5, sp, r4, lsr #22
    5208:	01d80100 	bicseq	r0, r8, r0, lsl #2
    520c:	00000059 	andeq	r0, r0, r9, asr r0
    5210:	015026c4 	cmpeq	r0, r4, asr #13
    5214:	00000010 	andeq	r0, r0, r0, lsl r0
    5218:	042d9c01 	strteq	r9, [sp], #-3073	; 0xc01
    521c:	52250000 	eorpl	r0, r5, #0
    5220:	e3010032 	movw	r0, #4146	; 0x1032
    5224:	00005901 	andeq	r5, r0, r1, lsl #18
    5228:	00040800 	andeq	r0, r4, r0, lsl #16
    522c:	26000f00 	strcs	r0, [r0], -r0, lsl #30
    5230:	000003c6 	andeq	r0, r0, r6, asr #7
    5234:	5901e401 	stmdbpl	r1, {r0, sl, sp, lr, pc}
    5238:	1a000000 	bne	5240 <_back_addr-0x14fadc0>
    523c:	0f000004 	svceq	0x00000004
    5240:	26cc1d00 	strbcs	r1, [ip], r0, lsl #26
    5244:	140f0150 	strne	r0, [pc], #-336	; 524c <_back_addr-0x14fadb4>
    5248:	d4270000 	strtle	r0, [r7], #-0
    524c:	20015026 	andcs	r5, r1, r6, lsr #32
    5250:	00000014 	andeq	r0, r0, r4, lsl r0
    5254:	000f5c24 	andeq	r5, pc, r4, lsr #24
    5258:	02000100 	andeq	r0, r0, #0, 2
    525c:	00000059 	andeq	r0, r0, r9, asr r0
    5260:	015026d4 	ldrsbeq	r2, [r0, #-100]	; 0xffffff9c
    5264:	000000b0 	strheq	r0, [r0], -r0	; <UNPREDICTABLE>
    5268:	05539c01 	ldrbeq	r9, [r3, #-3073]	; 0xc01
    526c:	6b280000 	blvs	a05274 <_back_addr-0xafad8c>
    5270:	01007965 	tsteq	r0, r5, ror #18
    5274:	0553020a 	ldrbeq	r0, [r3, #-522]	; 0x20a
    5278:	72290000 	eorvc	r0, r9, #0
    527c:	01007465 	tsteq	r0, r5, ror #8
    5280:	0059020b 	subseq	r0, r9, fp, lsl #4
    5284:	2fcb0000 	svccs	0x00cb0000
    5288:	3b260000 	blcc	985290 <_back_addr-0xb7ad70>
    528c:	01000006 	tsteq	r0, r6
    5290:	0059020d 	subseq	r0, r9, sp, lsl #4
    5294:	04750000 	ldrbteq	r0, [r5], #-0
    5298:	000f0000 	andeq	r0, pc, r0
    529c:	0002dc0e 	andeq	sp, r2, lr, lsl #24
    52a0:	59840100 	stmibpl	r4, {r8}
    52a4:	86000000 	strhi	r0, [r0], -r0
    52a8:	0f000004 	svceq	0x00000004
    52ac:	00692900 	rsbeq	r2, r9, r0, lsl #18
    52b0:	59021001 	stmdbpl	r2, {r0, ip}
    52b4:	ff000000 			; <UNDEFINED> instruction: 0xff000000
    52b8:	2600002f 	strcs	r0, [r0], -pc, lsr #32
    52bc:	00000508 	andeq	r0, r0, r8, lsl #10
    52c0:	59021701 	stmdbpl	r2, {r0, r8, r9, sl, ip}
    52c4:	a6000000 	strge	r0, [r0], -r0
    52c8:	0f000004 	svceq	0x00000004
    52cc:	26fc2000 	ldrbtcs	r2, [ip], r0
    52d0:	14320150 	ldrtne	r0, [r2], #-336	; 0x150
    52d4:	04d00000 	ldrbeq	r0, [r0], #0
    52d8:	011f0000 	tsteq	pc, r0
    52dc:	60030550 	andvs	r0, r3, r0, asr r5
    52e0:	1f015134 	svcne	0x00015134
    52e4:	40015101 	andmi	r5, r1, r1, lsl #2
    52e8:	0552011f 	ldrbeq	r0, [r2, #-287]	; 0x11f
    52ec:	51345003 	teqpl	r4, r3
    52f0:	53011f01 	movwpl	r1, #7937	; 0x1f01
    52f4:	20003001 	andcs	r3, r0, r1
    52f8:	01502710 	cmpeq	r0, r0, lsl r7
    52fc:	000013ed 	andeq	r1, r0, sp, ror #7
    5300:	000004e7 	andeq	r0, r0, r7, ror #9
    5304:	0550011f 	ldrbeq	r0, [r0, #-287]	; 0x11f
    5308:	50305c03 	eorspl	r5, r0, r3, lsl #24
    530c:	24200001 	strtcs	r0, [r0], #-1
    5310:	ed015027 	stc	0, cr5, [r1, #-156]	; 0xffffff64
    5314:	fe000013 	mcr2	0, 0, r0, cr0, cr3, {0}
    5318:	1f000004 	svcne	0x00000004
    531c:	03055001 	movweq	r5, #20481	; 0x5001
    5320:	01503064 	cmpeq	r0, r4, rrx
    5324:	27442000 	strbcs	r2, [r4, -r0]
    5328:	14440150 	strbne	r0, [r4], #-336	; 0x150
    532c:	05280000 	streq	r0, [r8, #-0]!
    5330:	011f0000 	tsteq	pc, r0
    5334:	50030550 	andpl	r0, r3, r0, asr r5
    5338:	1f015134 	svcne	0x00015134
    533c:	40015101 	andmi	r5, r1, r1, lsl #2
    5340:	0552011f 	ldrbeq	r0, [r2, #-287]	; 0x11f
    5344:	51347003 	teqpl	r4, r3
    5348:	53011f01 	movwpl	r1, #7937	; 0x1f01
    534c:	20003001 	andcs	r3, r0, r1
    5350:	01502758 	cmpeq	r0, r8, asr r7
    5354:	000013ed 	andeq	r1, r0, sp, ror #7
    5358:	0000053f 	andeq	r0, r0, pc, lsr r5
    535c:	0550011f 	ldrbeq	r0, [r0, #-287]	; 0x11f
    5360:	50305c03 	eorspl	r5, r0, r3, lsl #24
    5364:	6c1e0001 	ldcvs	0, cr0, [lr], {1}
    5368:	ed015027 	stc	0, cr5, [r1, #-156]	; 0xffffff64
    536c:	1f000013 	svcne	0x00000013
    5370:	03055001 	movweq	r5, #20481	; 0x5001
    5374:	01503080 	cmpeq	r0, r0, lsl #1
    5378:	25220000 	strcs	r0, [r2, #-0]!
    537c:	63000000 	movwvs	r0, #0
    5380:	23000005 	movwcs	r0, #5
    5384:	0000007f 	andeq	r0, r0, pc, ror r0
    5388:	80240003 	eorhi	r0, r4, r3
    538c:	01000007 	tsteq	r0, r7
    5390:	00250221 	eoreq	r0, r5, r1, lsr #4
    5394:	27840000 	strcs	r0, [r4, r0]
    5398:	00300150 	eorseq	r0, r0, r0, asr r1
    539c:	9c010000 	stcls	0, cr0, [r1], {-0}
    53a0:	0000060b 	andeq	r0, r0, fp, lsl #12
    53a4:	000fe52a 	andeq	lr, pc, sl, lsr #10
    53a8:	02210100 	eoreq	r0, r1, #0, 2
    53ac:	00000025 	andeq	r0, r0, r5, lsr #32
    53b0:	00003079 	andeq	r3, r0, r9, ror r0
    53b4:	000d862b 	andeq	r8, sp, fp, lsr #12
    53b8:	02230100 	eoreq	r0, r3, #0, 2
    53bc:	00000025 	andeq	r0, r0, r5, lsr #32
    53c0:	0000309a 	muleq	r0, sl, r0
    53c4:	000ef02b 	andeq	pc, lr, fp, lsr #32
    53c8:	02230100 	eoreq	r0, r3, #0, 2
    53cc:	00000025 	andeq	r0, r0, r5, lsr #32
    53d0:	000030c9 	andeq	r3, r0, r9, asr #1
    53d4:	000e982b 	andeq	r9, lr, fp, lsr #16
    53d8:	02240100 	eoreq	r0, r4, #0, 2
    53dc:	00000025 	andeq	r0, r0, r5, lsr #32
    53e0:	000030eb 	andeq	r3, r0, fp, ror #1
    53e4:	000eea2b 	andeq	lr, lr, fp, lsr #20
    53e8:	02240100 	eoreq	r0, r4, #0, 2
    53ec:	00000025 	andeq	r0, r0, r5, lsr #32
    53f0:	0000314f 	andeq	r3, r0, pc, asr #2
    53f4:	0010032b 	andseq	r0, r0, fp, lsr #6
    53f8:	02240100 	eoreq	r0, r4, #0, 2
    53fc:	00000025 	andeq	r0, r0, r5, lsr #32
    5400:	0000318f 	andeq	r3, r0, pc, lsl #3
    5404:	0001212c 	andeq	r2, r1, ip, lsr #2
    5408:	5027a000 	eorpl	sl, r7, r0
    540c:	00000401 	andeq	r0, r0, r1, lsl #8
    5410:	022c0100 	eoreq	r0, ip, #0, 2
    5414:	0001312d 	andeq	r3, r1, sp, lsr #2
    5418:	0031a300 	eorseq	sl, r1, r0, lsl #6
    541c:	27a02e00 	strcs	r2, [r0, r0, lsl #28]!
    5420:	00040150 	andeq	r0, r4, r0, asr r1
    5424:	312d0000 	teqcc	sp, r0
    5428:	a3000001 	movwge	r0, #1
    542c:	00000031 	andeq	r0, r0, r1, lsr r0
    5430:	d9240000 	stmdble	r4!, {}	; <UNPREDICTABLE>
    5434:	0100000d 	tsteq	r0, sp
    5438:	00590177 	subseq	r0, r9, r7, ror r1
    543c:	27b40000 	ldrcs	r0, [r4, r0]!
    5440:	002c0150 	eoreq	r0, ip, r0, asr r1
    5444:	9c010000 	stcls	0, cr0, [r1], {-0}
    5448:	00000665 	andeq	r0, r0, r5, ror #12
    544c:	74657229 	strbtvc	r7, [r5], #-553	; 0x229
    5450:	01790100 	cmneq	r9, r0, lsl #2
    5454:	00000025 	andeq	r0, r0, r5, lsr #32
    5458:	000031da 	ldrdeq	r3, [r0], -sl
    545c:	0002dc0e 	andeq	sp, r2, lr, lsl #24
    5460:	59840100 	stmibpl	r4, {r8}
    5464:	46000000 	strmi	r0, [r0], -r0
    5468:	0f000006 	svceq	0x00000006
    546c:	27c02000 	strbcs	r2, [r0, r0]
    5470:	05630150 	strbeq	r0, [r3, #-336]!	; 0x150
    5474:	065b0000 	ldrbeq	r0, [fp], -r0
    5478:	011f0000 	tsteq	pc, r0
    547c:	0a0a0350 	beq	2861c4 <_back_addr-0x1279e3c>
    5480:	d81d000e 	ldmdale	sp, {r1, r2, r3}
    5484:	ed015027 	stc	0, cr5, [r1, #-156]	; 0xffffff64
    5488:	00000013 	andeq	r0, r0, r3, lsl r0
    548c:	000e8624 	andeq	r8, lr, r4, lsr #12
    5490:	02300100 	eorseq	r0, r0, #0, 2
    5494:	00000059 	andeq	r0, r0, r9, asr r0
    5498:	015027e0 	cmpeq	r0, r0, ror #15
    549c:	00000054 	andeq	r0, r0, r4, asr r0
    54a0:	07749c01 	ldrbeq	r9, [r4, -r1, lsl #24]!
    54a4:	6c2a0000 	stcvs	0, cr0, [sl], #-0
    54a8:	0100000d 	tsteq	r0, sp
    54ac:	00590230 	subseq	r0, r9, r0, lsr r2
    54b0:	31f90000 	mvnscc	r0, r0
    54b4:	362b0000 	strtcc	r0, [fp], -r0
    54b8:	01000006 	tsteq	r0, r6
    54bc:	00590232 	subseq	r0, r9, r2, lsr r2
    54c0:	321a0000 	andscc	r0, sl, #0
    54c4:	e52b0000 	str	r0, [fp, #-0]!
    54c8:	0100000f 	tsteq	r0, pc
    54cc:	00590232 	subseq	r0, r9, r2, lsr r2
    54d0:	32490000 	subcc	r0, r9, #0
    54d4:	3d2f0000 	stccc	0, cr0, [pc, #-0]	; 54dc <_back_addr-0x14fab24>
    54d8:	e4000001 	str	r0, [r0], #-1
    54dc:	d8015027 	stmdale	r1, {r0, r1, r2, r5, ip, lr}
    54e0:	01000005 	tsteq	r0, r5
    54e4:	06f0023c 			; <UNDEFINED> instruction: 0x06f0023c
    54e8:	542d0000 	strtpl	r0, [sp], #-0
    54ec:	7b000001 	blvc	54f8 <_back_addr-0x14fab08>
    54f0:	30000032 	andcc	r0, r0, r2, lsr r0
    54f4:	00000149 	andeq	r0, r0, r9, asr #2
    54f8:	c085e880 	addgt	lr, r5, r0, lsl #17
    54fc:	05d81b79 	ldrbeq	r1, [r8, #2937]	; 0xb79
    5500:	49300000 	ldmdbmi	r0!, {}	; <UNPREDICTABLE>
    5504:	80000001 	andhi	r0, r0, r1
    5508:	79c085e8 	stmibvc	r0, {r3, r5, r6, r7, r8, sl, pc}^
    550c:	0001542d 	andeq	r5, r1, sp, lsr #8
    5510:	00327b00 	eorseq	r7, r2, r0, lsl #22
    5514:	2f000000 	svccs	0x00000000
    5518:	00000121 	andeq	r0, r0, r1, lsr #2
    551c:	015027f0 	ldrsheq	r2, [r0, #-112]	; 0xffffff90
    5520:	000005f0 	strdeq	r0, [r0], -r0	; <UNPREDICTABLE>
    5524:	1f023e01 	svcne	0x00023e01
    5528:	30000007 	andcc	r0, r0, r7
    552c:	00000131 	andeq	r0, r0, r1, lsr r1
    5530:	c085e884 	addgt	lr, r5, r4, lsl #17
    5534:	05f01b79 	ldrbeq	r1, [r0, #2937]!	; 0xb79
    5538:	31300000 	teqcc	r0, r0
    553c:	84000001 	strhi	r0, [r0], #-1
    5540:	79c085e8 	stmibvc	r0, {r3, r5, r6, r7, r8, sl, pc}^
    5544:	3d310000 	ldccc	0, cr0, [r1, #-0]
    5548:	24000001 	strcs	r0, [r0], #-1
    554c:	04015028 	streq	r5, [r1], #-40	; 0x28
    5550:	01000000 	mrseq	r0, (UNDEF: 0)
    5554:	07640240 	strbeq	r0, [r4, -r0, asr #4]!
    5558:	542d0000 	strtpl	r0, [sp], #-0
    555c:	bd000001 	stclt	0, cr0, [r0, #-4]
    5560:	30000032 	andcc	r0, r0, r2, lsr r0
    5564:	00000149 	andeq	r0, r0, r9, asr #2
    5568:	c085e880 	addgt	lr, r5, r0, lsl #17
    556c:	28242e79 	stmdacs	r4!, {r0, r3, r4, r5, r6, r9, sl, fp, sp}
    5570:	00040150 	andeq	r0, r4, r0, asr r1
    5574:	49300000 	ldmdbmi	r0!, {}	; <UNPREDICTABLE>
    5578:	80000001 	andhi	r0, r0, r1
    557c:	79c085e8 	stmibvc	r0, {r3, r5, r6, r7, r8, sl, pc}^
    5580:	0001542d 	andeq	r5, r1, sp, lsr #8
    5584:	0032bd00 	eorseq	fp, r2, r0, lsl #26
    5588:	1e000000 	cdpne	0, 0, cr0, cr0, cr0, {0}
    558c:	0150282c 	cmpeq	r0, ip, lsr #16
    5590:	00001456 	andeq	r1, r0, r6, asr r4
    5594:	0150011f 	cmpeq	r0, pc, lsl r1
    5598:	32000035 	andcc	r0, r0, #53	; 0x35
    559c:	0000106d 	andeq	r1, r0, sp, rrx
    55a0:	59024b01 	stmdbpl	r2, {r0, r8, r9, fp, lr}
    55a4:	34000000 	strcc	r0, [r0], #-0
    55a8:	2c015028 	stccs	0, cr5, [r1], {40}	; 0x28
    55ac:	01000000 	mrseq	r0, (UNDEF: 0)
    55b0:	0008229c 	muleq	r8, ip, r2
    55b4:	09d93300 	ldmibeq	r9, {r8, r9, ip, sp}^
    55b8:	4d010000 	stcmi	0, cr0, [r1, #-0]
    55bc:	00002502 	andeq	r2, r0, r2, lsl #10
    55c0:	80a00000 	adchi	r0, r0, r0
    55c4:	01212f00 	teqeq	r1, r0, lsl #30
    55c8:	28340000 	ldmdacs	r4!, {}	; <UNPREDICTABLE>
    55cc:	06080150 			; <UNDEFINED> instruction: 0x06080150
    55d0:	54010000 	strpl	r0, [r1], #-0
    55d4:	0007cd02 	andeq	ip, r7, r2, lsl #26
    55d8:	01313000 	teqeq	r1, r0
    55dc:	e8800000 	stm	r0, {}	; <UNPREDICTABLE>
    55e0:	1b79c085 	blne	1e757fc <__bss_end__+0x961de4>
    55e4:	00000608 	andeq	r0, r0, r8, lsl #12
    55e8:	00013130 	andeq	r3, r1, r0, lsr r1
    55ec:	85e88000 	strbhi	r8, [r8, #0]!
    55f0:	000079c0 	andeq	r7, r0, r0, asr #19
    55f4:	00013d31 	andeq	r3, r1, r1, lsr sp
    55f8:	50284800 	eorpl	r4, r8, r0, lsl #16
    55fc:	00000c01 	andeq	r0, r0, r1, lsl #24
    5600:	02560100 	subseq	r0, r6, #0, 2
    5604:	00000812 	andeq	r0, r0, r2, lsl r8
    5608:	00015434 	andeq	r5, r1, r4, lsr r4
    560c:	80a00000 	adchi	r0, r0, r0
    5610:	01493000 	mrseq	r3, (UNDEF: 73)
    5614:	e8800000 	stm	r0, {}	; <UNPREDICTABLE>
    5618:	2e79c085 	cdpcs	0, 7, cr12, cr9, cr5, {4}
    561c:	01502848 	cmpeq	r0, r8, asr #16
    5620:	0000000c 	andeq	r0, r0, ip
    5624:	00014930 	andeq	r4, r1, r0, lsr r9
    5628:	85e88000 	strbhi	r8, [r8, #0]!
    562c:	543479c0 	ldrtpl	r7, [r4], #-2496	; 0x9c0
    5630:	00000001 	andeq	r0, r0, r1
    5634:	000080a0 	andeq	r8, r0, r0, lsr #1
    5638:	28581e00 	ldmdacs	r8, {r9, sl, fp, ip}^
    563c:	14560150 	ldrbne	r0, [r6], #-336	; 0x150
    5640:	011f0000 	tsteq	pc, r0
    5644:	00350150 	eorseq	r0, r5, r0, asr r1
    5648:	071f1400 	ldreq	r1, [pc, -r0, lsl #8]
    564c:	b9010000 	stmdblt	r1, {}	; <UNPREDICTABLE>
    5650:	00000059 	andeq	r0, r0, r9, asr r0
    5654:	01502860 	cmpeq	r0, r0, ror #16
    5658:	00000070 	andeq	r0, r0, r0, ror r0
    565c:	09009c01 	stmdbeq	r0, {r0, sl, fp, ip, pc}
    5660:	7d150000 	ldcvc	0, cr0, [r5, #-0]
    5664:	0100000e 	tsteq	r0, lr
    5668:	000025b9 			; <UNDEFINED> instruction: 0x000025b9
    566c:	0032f200 	eorseq	pc, r2, r0, lsl #4
    5670:	0f3f1500 	svceq	0x003f1500
    5674:	b9010000 	stmdblt	r1, {}	; <UNPREDICTABLE>
    5678:	00000025 	andeq	r0, r0, r5, lsr #32
    567c:	0000331e 	andeq	r3, r0, lr, lsl r3
    5680:	000d2a15 	andeq	r2, sp, r5, lsl sl
    5684:	00b90100 	adcseq	r0, r9, r0, lsl #2
    5688:	4a000009 	bmi	56b4 <_back_addr-0x14fa94c>
    568c:	1a000033 	bne	5760 <_back_addr-0x14fa8a0>
    5690:	bb010069 	bllt	4583c <_back_addr-0x14ba7c4>
    5694:	00000025 	andeq	r0, r0, r5, lsr #32
    5698:	00003376 	andeq	r3, r0, r6, ror r3
    569c:	01006a1a 	tsteq	r0, sl, lsl sl
    56a0:	000025bb 			; <UNDEFINED> instruction: 0x000025bb
    56a4:	0033ad00 	eorseq	sl, r3, r0, lsl #26
    56a8:	0d523500 	cfldr64eq	mvdx3, [r2, #-0]
    56ac:	bc010000 	stclt	0, cr0, [r1], {-0}
    56b0:	00000025 	andeq	r0, r0, r5, lsr #32
    56b4:	000033d7 	ldrdeq	r3, [r0], -r7
    56b8:	000ecc35 	andeq	ip, lr, r5, lsr ip
    56bc:	25bc0100 	ldrcs	r0, [ip, #256]!	; 0x100
    56c0:	07000000 	streq	r0, [r0, -r0]
    56c4:	0e000034 	mcreq	0, 0, r0, cr0, cr4, {1}
    56c8:	0000106d 	andeq	r1, r0, sp, rrx
    56cc:	0059df01 	subseq	sp, r9, r1, lsl #30
    56d0:	08b10000 	ldmeq	r1!, {}	; <UNPREDICTABLE>
    56d4:	000f0000 	andeq	r0, pc, r0
    56d8:	0006201c 	andeq	r2, r6, ip, lsl r0
    56dc:	0008e100 	andeq	lr, r8, r0, lsl #2
    56e0:	0e860e00 	cdpeq	14, 8, cr0, cr6, cr0, {0}
    56e4:	d3010000 	movwle	r0, #4096	; 0x1000
    56e8:	00000059 	andeq	r0, r0, r9, asr r0
    56ec:	000008cb 	andeq	r0, r0, fp, asr #17
    56f0:	bc1e000f 	ldclt	0, cr0, [lr], {15}
    56f4:	65015028 	strvs	r5, [r1, #-40]	; 0x28
    56f8:	1f000006 	svcne	0x00000006
    56fc:	74075001 	strvc	r5, [r7], #-1
    5700:	22007600 	andcs	r7, r0, #0, 12
    5704:	00001c31 	andeq	r1, r0, r1, lsr ip
    5708:	50287820 	eorpl	r7, r8, r0, lsr #16
    570c:	00056301 	andeq	r6, r5, r1, lsl #6
    5710:	0008f600 	andeq	pc, r8, r0, lsl #12
    5714:	50011f00 	andpl	r1, r1, r0, lsl #30
    5718:	0fe00a03 	svceq	0x00e00a03
    571c:	28d02700 	ldmcs	r0, {r8, r9, sl, sp}^
    5720:	07740150 			; <UNDEFINED> instruction: 0x07740150
    5724:	36000000 	strcc	r0, [r0], -r0
    5728:	00011604 	andeq	r1, r1, r4, lsl #12
    572c:	0e491400 	cdpeq	4, 4, cr1, cr9, cr0, {0}
    5730:	e5010000 	str	r0, [r1, #-0]
    5734:	00000059 	andeq	r0, r0, r9, asr r0
    5738:	015028d0 	ldrsbeq	r2, [r0, #-128]	; 0xffffff80
    573c:	00000020 	andeq	r0, r0, r0, lsr #32
    5740:	093f9c01 	ldmdbeq	pc!, {r0, sl, fp, ip, pc}	; <UNPREDICTABLE>
    5744:	e41e0000 	ldr	r0, [lr], #-0
    5748:	22015028 	andcs	r5, r1, #40	; 0x28
    574c:	1f000008 	svcne	0x00000008
    5750:	30015001 	andcc	r5, r1, r1
    5754:	0351011f 	cmpeq	r1, #-1073741817	; 0xc0000007
    5758:	1f01000a 	svcne	0x0001000a
    575c:	03055201 	movweq	r5, #20993	; 0x5201
    5760:	01513480 	cmpeq	r1, r0, lsl #9
    5764:	a0140000 	andsge	r0, r4, r0
    5768:	0100000e 	tsteq	r0, lr
    576c:	000059ee 	andeq	r5, r0, lr, ror #19
    5770:	5028f000 	eorpl	pc, r8, r0
    5774:	00003c01 	andeq	r3, r0, r1, lsl #24
    5778:	8f9c0100 	svchi	0x009c0100
    577c:	15000009 	strne	r0, [r0, #-9]
    5780:	00000e73 	andeq	r0, r0, r3, ror lr
    5784:	0025ee01 	eoreq	lr, r5, r1, lsl #28
    5788:	345e0000 	ldrbcc	r0, [lr], #-0
    578c:	c7150000 	ldrgt	r0, [r5, -r0]
    5790:	0100000d 	tsteq	r0, sp
    5794:	000025ee 	andeq	r2, r0, lr, ror #11
    5798:	00349800 	eorseq	r9, r4, r0, lsl #16
    579c:	0d2a1500 	cfstr32eq	mvfx1, [sl, #-0]
    57a0:	ee010000 	cdp	0, 0, cr0, cr1, cr0, {0}
    57a4:	00000900 	andeq	r0, r0, r0, lsl #18
    57a8:	000034b6 			; <UNDEFINED> instruction: 0x000034b6
    57ac:	5029241d 	eorpl	r2, r9, sp, lsl r4
    57b0:	00082201 	andeq	r2, r8, r1, lsl #4
    57b4:	4a240000 	bmi	9057bc <_back_addr-0xbfa844>
    57b8:	0100000f 	tsteq	r0, pc
    57bc:	005901c0 	subseq	r0, r9, r0, asr #3
    57c0:	292c0000 	stmdbcs	ip!, {}	; <UNPREDICTABLE>
    57c4:	006c0150 	rsbeq	r0, ip, r0, asr r1
    57c8:	9c010000 	stcls	0, cr0, [r1], {-0}
    57cc:	00000a1f 	andeq	r0, r0, pc, lsl sl
    57d0:	000d432a 	andeq	r4, sp, sl, lsr #6
    57d4:	01c00100 	biceq	r0, r0, r0, lsl #2
    57d8:	00000047 	andeq	r0, r0, r7, asr #32
    57dc:	000034d7 	ldrdeq	r3, [r0], -r7
    57e0:	50295420 	eorpl	r5, r9, r0, lsr #8
    57e4:	00082201 	andeq	r2, r8, r1, lsl #4
    57e8:	0009dc00 	andeq	sp, r9, r0, lsl #24
    57ec:	50011f00 	andpl	r1, r1, r0, lsl #30
    57f0:	0a000a03 	beq	8004 <_back_addr-0x14f7ffc>
    57f4:	0151011f 	cmpeq	r1, pc, lsl r1
    57f8:	52011f40 	andpl	r1, r1, #64, 30	; 0x100
    57fc:	35a00305 	strcc	r0, [r0, #773]!	; 0x305
    5800:	20000151 	andcs	r0, r0, r1, asr r1
    5804:	0150296c 	cmpeq	r0, ip, ror #18
    5808:	00000822 	andeq	r0, r0, r2, lsr #16
    580c:	000009ff 	strdeq	r0, [r0], -pc	; <UNPREDICTABLE>
    5810:	0350011f 	cmpeq	r0, #-1073741817	; 0xc0000007
    5814:	1f08000a 	svcne	0x0008000a
    5818:	40015101 	andmi	r5, r1, r1, lsl #2
    581c:	0552011f 	ldrbeq	r0, [r2, #-287]	; 0x11f
    5820:	51358003 	teqpl	r5, r3
    5824:	841e0001 	ldrhi	r0, [lr], #-1
    5828:	22015029 	andcs	r5, r1, #41	; 0x29
    582c:	1f000008 	svcne	0x00000008
    5830:	0a035001 	beq	d983c <_back_addr-0x14267c4>
    5834:	011f0900 	tsteq	pc, r0, lsl #18
    5838:	1f400151 	svcne	0x00400151
    583c:	03055201 	movweq	r5, #20993	; 0x5201
    5840:	01513590 			; <UNDEFINED> instruction: 0x01513590
    5844:	ec240000 	stc	0, cr0, [r4], #-0
    5848:	0100000f 	tsteq	r0, pc
    584c:	005901d2 	ldrsbeq	r0, [r9], #-18	; 0xffffffee
    5850:	29980000 	ldmibcs	r8, {}	; <UNPREDICTABLE>
    5854:	00200150 	eoreq	r0, r0, r0, asr r1
    5858:	9c010000 	stcls	0, cr0, [r1], {-0}
    585c:	00000a59 	andeq	r0, r0, r9, asr sl
    5860:	5029ac1e 	eorpl	sl, r9, lr, lsl ip
    5864:	00082201 	andeq	r2, r8, r1, lsl #4
    5868:	50011f00 	andpl	r1, r1, r0, lsl #30
    586c:	0d200a03 	vstmdbeq	r0!, {s0-s2}
    5870:	0151011f 	cmpeq	r1, pc, lsl r1
    5874:	52011f40 	andpl	r1, r1, #64, 30	; 0x100
    5878:	35b00305 	ldrcc	r0, [r0, #773]!	; 0x305
    587c:	00000151 	andeq	r0, r0, r1, asr r1
    5880:	000df224 	andeq	pc, sp, r4, lsr #4
    5884:	01180100 	tsteq	r8, r0, lsl #2
    5888:	00000059 	andeq	r0, r0, r9, asr r0
    588c:	015029b8 	ldrheq	r2, [r0, #-152]	; 0xffffff68
    5890:	00000020 	andeq	r0, r0, r0, lsr #32
    5894:	0ac99c01 	beq	ff26c8a0 <__bss_end__+0xfdd58e88>
    5898:	860e0000 	strhi	r0, [lr], -r0
    589c:	0100000e 	tsteq	r0, lr
    58a0:	000059d3 	ldrdeq	r5, [r0], -r3
    58a4:	000a8400 	andeq	r8, sl, r0, lsl #8
    58a8:	0e000f00 	cdpeq	15, 0, cr0, cr0, cr0, {0}
    58ac:	0000106d 	andeq	r1, r0, sp, rrx
    58b0:	0059df01 	subseq	sp, r9, r1, lsl #30
    58b4:	0a950000 	beq	fe5458bc <__bss_end__+0xfd031ea4>
    58b8:	000f0000 	andeq	r0, pc, r0
    58bc:	5029c420 	eorpl	ip, r9, r0, lsr #8
    58c0:	00056301 	andeq	r6, r5, r1, lsl #6
    58c4:	000aaa00 	andeq	sl, sl, r0, lsl #20
    58c8:	50011f00 	andpl	r1, r1, r0, lsl #30
    58cc:	0fe00a03 	svceq	0x00e00a03
    58d0:	29cc2000 	stmibcs	ip, {sp}^
    58d4:	06650150 			; <UNDEFINED> instruction: 0x06650150
    58d8:	0abf0000 	beq	fefc58e0 <__bss_end__+0xfdab1ec8>
    58dc:	011f0000 	tsteq	pc, r0
    58e0:	a40a0350 	strge	r0, [sl], #-848	; 0x350
    58e4:	d01d000d 	andsle	r0, sp, sp
    58e8:	74015029 	strvc	r5, [r1], #-41	; 0x29
    58ec:	00000007 	andeq	r0, r0, r7
    58f0:	00101d24 	andseq	r1, r0, r4, lsr #26
    58f4:	01220100 	teqeq	r2, r0, lsl #2
    58f8:	00000059 	andeq	r0, r0, r9, asr r0
    58fc:	015029d8 	ldrsbeq	r2, [r0, #-152]	; 0xffffff68
    5900:	00000020 	andeq	r0, r0, r0, lsr #32
    5904:	0b399c01 	bleq	e6c910 <_back_addr-0x6936f0>
    5908:	860e0000 	strhi	r0, [lr], -r0
    590c:	0100000e 	tsteq	r0, lr
    5910:	000059d3 	ldrdeq	r5, [r0], -r3
    5914:	000af400 	andeq	pc, sl, r0, lsl #8
    5918:	0e000f00 	cdpeq	15, 0, cr0, cr0, cr0, {0}
    591c:	0000106d 	andeq	r1, r0, sp, rrx
    5920:	0059df01 	subseq	sp, r9, r1, lsl #30
    5924:	0b050000 	bleq	14592c <_back_addr-0x13ba6d4>
    5928:	000f0000 	andeq	r0, pc, r0
    592c:	5029e420 	eorpl	lr, r9, r0, lsr #8
    5930:	00056301 	andeq	r6, r5, r1, lsl #6
    5934:	000b1a00 	andeq	r1, fp, r0, lsl #20
    5938:	50011f00 	andpl	r1, r1, r0, lsl #30
    593c:	0fe00a03 	svceq	0x00e00a03
    5940:	29ec2000 	stmibcs	ip!, {sp}^
    5944:	06650150 			; <UNDEFINED> instruction: 0x06650150
    5948:	0b2f0000 	bleq	bc5950 <_back_addr-0x93a6b0>
    594c:	011f0000 	tsteq	pc, r0
    5950:	b10a0350 	tstlt	sl, r0, asr r3
    5954:	f01d000d 			; <UNDEFINED> instruction: 0xf01d000d
    5958:	74015029 	strvc	r5, [r1], #-41	; 0x29
    595c:	00000007 	andeq	r0, r0, r7
    5960:	000d8c24 	andeq	r8, sp, r4, lsr #24
    5964:	012c0100 	teqeq	ip, r0, lsl #2
    5968:	00000059 	andeq	r0, r0, r9, asr r0
    596c:	015029f8 	ldrsheq	r2, [r0, #-152]	; 0xffffff68
    5970:	00000020 	andeq	r0, r0, r0, lsr #32
    5974:	0ba99c01 	bleq	fea6c980 <__bss_end__+0xfd558f68>
    5978:	860e0000 	strhi	r0, [lr], -r0
    597c:	0100000e 	tsteq	r0, lr
    5980:	000059d3 	ldrdeq	r5, [r0], -r3
    5984:	000b6400 	andeq	r6, fp, r0, lsl #8
    5988:	0e000f00 	cdpeq	15, 0, cr0, cr0, cr0, {0}
    598c:	0000106d 	andeq	r1, r0, sp, rrx
    5990:	0059df01 	subseq	sp, r9, r1, lsl #30
    5994:	0b750000 	bleq	1d4599c <__bss_end__+0x831f84>
    5998:	000f0000 	andeq	r0, pc, r0
    599c:	502a0420 	eorpl	r0, sl, r0, lsr #8
    59a0:	00056301 	andeq	r6, r5, r1, lsl #6
    59a4:	000b8a00 	andeq	r8, fp, r0, lsl #20
    59a8:	50011f00 	andpl	r1, r1, r0, lsl #30
    59ac:	0fe00a03 	svceq	0x00e00a03
    59b0:	2a0c2000 	bcs	30d9b8 <_back_addr-0x11f2648>
    59b4:	06650150 			; <UNDEFINED> instruction: 0x06650150
    59b8:	0b9f0000 	bleq	fe7c59c0 <__bss_end__+0xfd2b1fa8>
    59bc:	011f0000 	tsteq	pc, r0
    59c0:	b20a0350 	andlt	r0, sl, #80, 6	; 0x40000001
    59c4:	101d000d 	andsne	r0, sp, sp
    59c8:	7401502a 	strvc	r5, [r1], #-42	; 0x2a
    59cc:	00000007 	andeq	r0, r0, r7
    59d0:	000e2a24 	andeq	r2, lr, r4, lsr #20
    59d4:	01370100 	teqeq	r7, r0, lsl #2
    59d8:	00000059 	andeq	r0, r0, r9, asr r0
    59dc:	01502a18 	cmpeq	r0, r8, lsl sl
    59e0:	00000020 	andeq	r0, r0, r0, lsr #32
    59e4:	0c199c01 	ldceq	12, cr9, [r9], {1}
    59e8:	860e0000 	strhi	r0, [lr], -r0
    59ec:	0100000e 	tsteq	r0, lr
    59f0:	000059d3 	ldrdeq	r5, [r0], -r3
    59f4:	000bd400 	andeq	sp, fp, r0, lsl #8
    59f8:	0e000f00 	cdpeq	15, 0, cr0, cr0, cr0, {0}
    59fc:	0000106d 	andeq	r1, r0, sp, rrx
    5a00:	0059df01 	subseq	sp, r9, r1, lsl #30
    5a04:	0be50000 	bleq	ff945a0c <__bss_end__+0xfe431ff4>
    5a08:	000f0000 	andeq	r0, pc, r0
    5a0c:	502a2420 	eorpl	r2, sl, r0, lsr #8
    5a10:	00056301 	andeq	r6, r5, r1, lsl #6
    5a14:	000bfa00 	andeq	pc, fp, r0, lsl #20
    5a18:	50011f00 	andpl	r1, r1, r0, lsl #30
    5a1c:	0fe00a03 	svceq	0x00e00a03
    5a20:	2a2c2000 	bcs	b0da28 <_back_addr-0x9f25d8>
    5a24:	06650150 			; <UNDEFINED> instruction: 0x06650150
    5a28:	0c0f0000 	stceq	0, cr0, [pc], {-0}
    5a2c:	011f0000 	tsteq	pc, r0
    5a30:	a60a0350 			; <UNDEFINED> instruction: 0xa60a0350
    5a34:	301d000d 	andscc	r0, sp, sp
    5a38:	7401502a 	strvc	r5, [r1], #-42	; 0x2a
    5a3c:	00000007 	andeq	r0, r0, r7
    5a40:	000ed424 	andeq	sp, lr, r4, lsr #8
    5a44:	01420100 	mrseq	r0, (UNDEF: 82)
    5a48:	00000059 	andeq	r0, r0, r9, asr r0
    5a4c:	01502a38 	cmpeq	r0, r8, lsr sl
    5a50:	00000020 	andeq	r0, r0, r0, lsr #32
    5a54:	0c899c01 	stceq	12, cr9, [r9], {1}
    5a58:	860e0000 	strhi	r0, [lr], -r0
    5a5c:	0100000e 	tsteq	r0, lr
    5a60:	000059d3 	ldrdeq	r5, [r0], -r3
    5a64:	000c4400 	andeq	r4, ip, r0, lsl #8
    5a68:	0e000f00 	cdpeq	15, 0, cr0, cr0, cr0, {0}
    5a6c:	0000106d 	andeq	r1, r0, sp, rrx
    5a70:	0059df01 	subseq	sp, r9, r1, lsl #30
    5a74:	0c550000 	mraeq	r0, r5, acc0
    5a78:	000f0000 	andeq	r0, pc, r0
    5a7c:	502a4420 	eorpl	r4, sl, r0, lsr #8
    5a80:	00056301 	andeq	r6, r5, r1, lsl #6
    5a84:	000c6a00 	andeq	r6, ip, r0, lsl #20
    5a88:	50011f00 	andpl	r1, r1, r0, lsl #30
    5a8c:	0fe00a03 	svceq	0x00e00a03
    5a90:	2a4c2000 	bcs	130da98 <_back_addr-0x1f2568>
    5a94:	06650150 			; <UNDEFINED> instruction: 0x06650150
    5a98:	0c7f0000 	ldcleq	0, cr0, [pc], #-0	; 5aa0 <_back_addr-0x14fa560>
    5a9c:	011f0000 	tsteq	pc, r0
    5aa0:	bb0a0350 	bllt	2867e8 <_back_addr-0x1279818>
    5aa4:	501d000d 	andspl	r0, sp, sp
    5aa8:	7401502a 	strvc	r5, [r1], #-42	; 0x2a
    5aac:	00000007 	andeq	r0, r0, r7
    5ab0:	000efe24 	andeq	pc, lr, r4, lsr #28
    5ab4:	014d0100 	mrseq	r0, (UNDEF: 93)
    5ab8:	00000059 	andeq	r0, r0, r9, asr r0
    5abc:	01502a58 	cmpeq	r0, r8, asr sl
    5ac0:	00000020 	andeq	r0, r0, r0, lsr #32
    5ac4:	0cf99c01 	ldcleq	12, cr9, [r9], #4
    5ac8:	860e0000 	strhi	r0, [lr], -r0
    5acc:	0100000e 	tsteq	r0, lr
    5ad0:	000059d3 	ldrdeq	r5, [r0], -r3
    5ad4:	000cb400 	andeq	fp, ip, r0, lsl #8
    5ad8:	0e000f00 	cdpeq	15, 0, cr0, cr0, cr0, {0}
    5adc:	0000106d 	andeq	r1, r0, sp, rrx
    5ae0:	0059df01 	subseq	sp, r9, r1, lsl #30
    5ae4:	0cc50000 	stcleq	0, cr0, [r5], {0}
    5ae8:	000f0000 	andeq	r0, pc, r0
    5aec:	502a6420 	eorpl	r6, sl, r0, lsr #8
    5af0:	00056301 	andeq	r6, r5, r1, lsl #6
    5af4:	000cda00 	andeq	sp, ip, r0, lsl #20
    5af8:	50011f00 	andpl	r1, r1, r0, lsl #30
    5afc:	0fe00a03 	svceq	0x00e00a03
    5b00:	2a6c2000 	bcs	1b0db08 <__bss_end__+0x5fa0f0>
    5b04:	06650150 			; <UNDEFINED> instruction: 0x06650150
    5b08:	0cef0000 	stcleq	0, cr0, [pc]	; 5b10 <_back_addr-0x14fa4f0>
    5b0c:	011f0000 	tsteq	pc, r0
    5b10:	0e0a0350 	mcreq	3, 0, r0, cr10, cr0, {2}
    5b14:	701d000e 	andsvc	r0, sp, lr
    5b18:	7401502a 	strvc	r5, [r1], #-42	; 0x2a
    5b1c:	00000007 	andeq	r0, r0, r7
    5b20:	000e0c24 	andeq	r0, lr, r4, lsr #24
    5b24:	01580100 	cmpeq	r8, r0, lsl #2
    5b28:	00000059 	andeq	r0, r0, r9, asr r0
    5b2c:	01502a78 	cmpeq	r0, r8, ror sl
    5b30:	00000020 	andeq	r0, r0, r0, lsr #32
    5b34:	0d699c01 	stcleq	12, cr9, [r9, #-4]!
    5b38:	860e0000 	strhi	r0, [lr], -r0
    5b3c:	0100000e 	tsteq	r0, lr
    5b40:	000059d3 	ldrdeq	r5, [r0], -r3
    5b44:	000d2400 	andeq	r2, sp, r0, lsl #8
    5b48:	0e000f00 	cdpeq	15, 0, cr0, cr0, cr0, {0}
    5b4c:	0000106d 	andeq	r1, r0, sp, rrx
    5b50:	0059df01 	subseq	sp, r9, r1, lsl #30
    5b54:	0d350000 	ldceq	0, cr0, [r5, #-0]
    5b58:	000f0000 	andeq	r0, pc, r0
    5b5c:	502a8420 	eorpl	r8, sl, r0, lsr #8
    5b60:	00056301 	andeq	r6, r5, r1, lsl #6
    5b64:	000d4a00 	andeq	r4, sp, r0, lsl #20
    5b68:	50011f00 	andpl	r1, r1, r0, lsl #30
    5b6c:	0fe00a03 	svceq	0x00e00a03
    5b70:	2a8c2000 	bcs	fe30db78 <__bss_end__+0xfcdfa160>
    5b74:	06650150 			; <UNDEFINED> instruction: 0x06650150
    5b78:	0d5f0000 	ldcleq	0, cr0, [pc, #-0]	; 5b80 <_back_addr-0x14fa480>
    5b7c:	011f0000 	tsteq	pc, r0
    5b80:	0f0a0350 	svceq	0x000a0350
    5b84:	901d000e 	andsls	r0, sp, lr
    5b88:	7401502a 	strvc	r5, [r1], #-42	; 0x2a
    5b8c:	00000007 	andeq	r0, r0, r7
    5b90:	000fce24 	andeq	ip, pc, r4, lsr #28
    5b94:	01630100 	cmneq	r3, r0, lsl #2
    5b98:	00000059 	andeq	r0, r0, r9, asr r0
    5b9c:	01502a98 			; <UNDEFINED> instruction: 0x01502a98
    5ba0:	00000020 	andeq	r0, r0, r0, lsr #32
    5ba4:	0dd99c01 	ldcleq	12, cr9, [r9, #4]
    5ba8:	860e0000 	strhi	r0, [lr], -r0
    5bac:	0100000e 	tsteq	r0, lr
    5bb0:	000059d3 	ldrdeq	r5, [r0], -r3
    5bb4:	000d9400 	andeq	r9, sp, r0, lsl #8
    5bb8:	0e000f00 	cdpeq	15, 0, cr0, cr0, cr0, {0}
    5bbc:	0000106d 	andeq	r1, r0, sp, rrx
    5bc0:	0059df01 	subseq	sp, r9, r1, lsl #30
    5bc4:	0da50000 	stceq	0, cr0, [r5]
    5bc8:	000f0000 	andeq	r0, pc, r0
    5bcc:	502aa420 	eorpl	sl, sl, r0, lsr #8
    5bd0:	00056301 	andeq	r6, r5, r1, lsl #6
    5bd4:	000dba00 	andeq	fp, sp, r0, lsl #20
    5bd8:	50011f00 	andpl	r1, r1, r0, lsl #30
    5bdc:	0fe00a03 	svceq	0x00e00a03
    5be0:	2aac2000 	bcs	feb0dbe8 <__bss_end__+0xfd5fa1d0>
    5be4:	06650150 			; <UNDEFINED> instruction: 0x06650150
    5be8:	0dcf0000 	stcleq	0, cr0, [pc]	; 5bf0 <_back_addr-0x14fa410>
    5bec:	011f0000 	tsteq	pc, r0
    5bf0:	c20a0350 	andgt	r0, sl, #80, 6	; 0x40000001
    5bf4:	b01d000d 	andslt	r0, sp, sp
    5bf8:	7401502a 	strvc	r5, [r1], #-42	; 0x2a
    5bfc:	00000007 	andeq	r0, r0, r7
    5c00:	000f1424 	andeq	r1, pc, r4, lsr #8
    5c04:	016d0100 	cmneq	sp, r0, lsl #2
    5c08:	00000059 	andeq	r0, r0, r9, asr r0
    5c0c:	01502ab8 	ldrheq	r2, [r0, #-168]	; 0xffffff58
    5c10:	00000020 	andeq	r0, r0, r0, lsr #32
    5c14:	0e499c01 	cdpeq	12, 4, cr9, cr9, cr1, {0}
    5c18:	860e0000 	strhi	r0, [lr], -r0
    5c1c:	0100000e 	tsteq	r0, lr
    5c20:	000059d3 	ldrdeq	r5, [r0], -r3
    5c24:	000e0400 	andeq	r0, lr, r0, lsl #8
    5c28:	0e000f00 	cdpeq	15, 0, cr0, cr0, cr0, {0}
    5c2c:	0000106d 	andeq	r1, r0, sp, rrx
    5c30:	0059df01 	subseq	sp, r9, r1, lsl #30
    5c34:	0e150000 	cdpeq	0, 1, cr0, cr5, cr0, {0}
    5c38:	000f0000 	andeq	r0, pc, r0
    5c3c:	502ac420 	eorpl	ip, sl, r0, lsr #8
    5c40:	00056301 	andeq	r6, r5, r1, lsl #6
    5c44:	000e2a00 	andeq	r2, lr, r0, lsl #20
    5c48:	50011f00 	andpl	r1, r1, r0, lsl #30
    5c4c:	0fe00a03 	svceq	0x00e00a03
    5c50:	2acc2000 	bcs	ff30dc58 <__bss_end__+0xfddfa240>
    5c54:	06650150 			; <UNDEFINED> instruction: 0x06650150
    5c58:	0e3f0000 	cdpeq	0, 3, cr0, cr15, cr0, {0}
    5c5c:	011f0000 	tsteq	pc, r0
    5c60:	0a0a0350 	beq	2869a8 <_back_addr-0x1279658>
    5c64:	d01d000e 	andsle	r0, sp, lr
    5c68:	7401502a 	strvc	r5, [r1], #-42	; 0x2a
    5c6c:	00000007 	andeq	r0, r0, r7
    5c70:	00016037 	andeq	r6, r1, r7, lsr r0
    5c74:	502ad800 	eorpl	sp, sl, r0, lsl #16
    5c78:	00006c01 	andeq	r6, r0, r1, lsl #24
    5c7c:	109c0100 	addsne	r0, ip, r0, lsl #2
    5c80:	2d00000f 	stccs	0, cr0, [r0, #-60]	; 0xffffffc4
    5c84:	00000171 	andeq	r0, r0, r1, ror r1
    5c88:	0000352a 	andeq	r3, r0, sl, lsr #10
    5c8c:	00017d38 	andeq	r7, r1, r8, lsr sp
    5c90:	0e720000 	cdpeq	0, 7, cr0, cr2, cr0, {0}
    5c94:	0f0f0000 	svceq	0x000f0000
    5c98:	06381c00 	ldrteq	r1, [r8], -r0, lsl #24
    5c9c:	0ee70000 	cdpeq	0, 14, cr0, cr7, cr0, {0}
    5ca0:	712d0000 	teqvc	sp, r0
    5ca4:	64000001 	strvs	r0, [r0], #-1
    5ca8:	1b000035 	blne	5d84 <_back_addr-0x14fa27c>
    5cac:	00000638 	andeq	r0, r0, r8, lsr r6
    5cb0:	502b2439 	eorpl	r2, fp, r9, lsr r4
    5cb4:	00000c01 	andeq	r0, r0, r1, lsl #24
    5cb8:	000ea800 	andeq	sl, lr, r0, lsl #16
    5cbc:	2b2c1e00 	blcs	b0d4c4 <_back_addr-0x9f2b3c>
    5cc0:	06650150 			; <UNDEFINED> instruction: 0x06650150
    5cc4:	011f0000 	tsteq	pc, r0
    5cc8:	a10a0350 	tstge	sl, r0, asr r3
    5ccc:	3900000d 	stmdbcc	r0, {r0, r2, r3}
    5cd0:	01502b30 	cmpeq	r0, r0, lsr fp
    5cd4:	00000008 	andeq	r0, r0, r8
    5cd8:	00000ec7 	andeq	r0, r0, r7, asr #29
    5cdc:	502b381e 	eorpl	r3, fp, lr, lsl r8
    5ce0:	00066501 	andeq	r6, r6, r1, lsl #10
    5ce4:	50011f00 	andpl	r1, r1, r0, lsl #30
    5ce8:	0da00a03 	stceq	10, cr0, [r0, #12]!
    5cec:	f4200000 	vld4.8	{d0-d3}, [r0], r0
    5cf0:	6301502a 	movwvs	r5, #4138	; 0x102a
    5cf4:	dc000005 	stcle	0, cr0, [r0], {5}
    5cf8:	1f00000e 	svcne	0x0000000e
    5cfc:	0a035001 	beq	d9d08 <_back_addr-0x14262f8>
    5d00:	1d000fe0 	stcne	15, cr0, [r0, #-896]	; 0xfffffc80
    5d04:	01502b08 	cmpeq	r0, r8, lsl #22
    5d08:	00000774 	andeq	r0, r0, r4, ror r7
    5d0c:	102e0000 	eorne	r0, lr, r0
    5d10:	1401502b 	strne	r5, [r1], #-43	; 0x2b
    5d14:	3a000000 	bcc	5d1c <_back_addr-0x14fa2e4>
    5d18:	00000193 	muleq	r0, r3, r1
    5d1c:	00000efb 	strdeq	r0, [r0], -fp
    5d20:	1c1e000f 	ldcne	0, cr0, [lr], {15}
    5d24:	ed01502b 	stc	0, cr5, [r1, #-172]	; 0xffffff54
    5d28:	1f000013 	svcne	0x00000013
    5d2c:	03055001 	movweq	r5, #20481	; 0x5001
    5d30:	015030a8 	cmpeq	r0, r8, lsr #1
    5d34:	37000000 	strcc	r0, [r0, -r0]
    5d38:	000001c8 	andeq	r0, r0, r8, asr #3
    5d3c:	01502b44 	cmpeq	r0, r4, asr #22
    5d40:	0000006c 	andeq	r0, r0, ip, rrx
    5d44:	0fd79c01 	svceq	0x00d79c01
    5d48:	d92d0000 	pushle	{}	; <UNPREDICTABLE>
    5d4c:	82000001 	andhi	r0, r0, #1
    5d50:	38000035 	stmdacc	r0, {r0, r2, r4, r5}
    5d54:	000001e5 	andeq	r0, r0, r5, ror #3
    5d58:	000f3900 	andeq	r3, pc, r0, lsl #18
    5d5c:	000f0f00 	andeq	r0, pc, r0, lsl #30
    5d60:	0006501c 	andeq	r5, r6, ip, lsl r0
    5d64:	000fae00 	andeq	sl, pc, r0, lsl #28
    5d68:	01d92d00 	bicseq	r2, r9, r0, lsl #26
    5d6c:	35bc0000 	ldrcc	r0, [ip, #0]!
    5d70:	501b0000 	andspl	r0, fp, r0
    5d74:	39000006 	stmdbcc	r0, {r1, r2}
    5d78:	01502b90 			; <UNDEFINED> instruction: 0x01502b90
    5d7c:	0000000c 	andeq	r0, r0, ip
    5d80:	00000f6f 	andeq	r0, r0, pc, ror #30
    5d84:	502b981e 	eorpl	r9, fp, lr, lsl r8
    5d88:	00066501 	andeq	r6, r6, r1, lsl #10
    5d8c:	50011f00 	andpl	r1, r1, r0, lsl #30
    5d90:	0e0c0a03 	vmlaeq.f32	s0, s24, s6
    5d94:	9c390000 	ldcls	0, cr0, [r9], #-0
    5d98:	0801502b 	stmdaeq	r1, {r0, r1, r3, r5, ip, lr}
    5d9c:	8e000000 	cdphi	0, 0, cr0, cr0, cr0, {0}
    5da0:	1e00000f 	cdpne	0, 0, cr0, cr0, cr15, {0}
    5da4:	01502ba4 	cmpeq	r0, r4, lsr #23
    5da8:	00000665 	andeq	r0, r0, r5, ror #12
    5dac:	0350011f 	cmpeq	r0, #-1073741817	; 0xc0000007
    5db0:	000e0b0a 	andeq	r0, lr, sl, lsl #22
    5db4:	2b602000 	blcs	180ddbc <__bss_end__+0x2fa3a4>
    5db8:	05630150 	strbeq	r0, [r3, #-336]!	; 0x150
    5dbc:	0fa30000 	svceq	0x00a30000
    5dc0:	011f0000 	tsteq	pc, r0
    5dc4:	e00a0350 	and	r0, sl, r0, asr r3
    5dc8:	741d000f 	ldrvc	r0, [sp], #-15
    5dcc:	7401502b 	strvc	r5, [r1], #-43	; 0x2b
    5dd0:	00000007 	andeq	r0, r0, r7
    5dd4:	2b7c2e00 	blcs	1f115dc <__bss_end__+0x9fdbc4>
    5dd8:	00140150 	andseq	r0, r4, r0, asr r1
    5ddc:	fb3a0000 	blx	e85de6 <_back_addr-0x67a21a>
    5de0:	c2000001 	andgt	r0, r0, #1
    5de4:	0f00000f 	svceq	0x0000000f
    5de8:	2b881e00 	blcs	fe20d5f0 <__bss_end__+0xfccf9bd8>
    5dec:	13ed0150 	mvnne	r0, #80, 2
    5df0:	011f0000 	tsteq	pc, r0
    5df4:	c0030550 	andgt	r0, r3, r0, asr r5
    5df8:	00015030 	andeq	r5, r1, r0, lsr r0
    5dfc:	ba240000 	blt	905e04 <_back_addr-0xbfa1fc>
    5e00:	0100000e 	tsteq	r0, lr
    5e04:	005901e7 	subseq	r0, r9, r7, ror #3
    5e08:	2bb00000 	blcs	fec05e10 <__bss_end__+0xfd6f23f8>
    5e0c:	009c0150 	addseq	r0, ip, r0, asr r1
    5e10:	9c010000 	stcls	0, cr0, [r1], {-0}
    5e14:	00001114 	andeq	r1, r0, r4, lsl r1
    5e18:	502bcc20 	eorpl	ip, fp, r0, lsr #24
    5e1c:	00082201 	andeq	r2, r8, r1, lsl #4
    5e20:	00101100 	andseq	r1, r0, r0, lsl #2
    5e24:	50011f00 	andpl	r1, r1, r0, lsl #30
    5e28:	011f3001 	tsteq	pc, r1
    5e2c:	000a0351 	andeq	r0, sl, r1, asr r3
    5e30:	52011f01 	andpl	r1, r1, #1, 30
    5e34:	00307402 	eorseq	r7, r0, r2, lsl #8
    5e38:	502bdc20 	eorpl	sp, fp, r0, lsr #24
    5e3c:	00082201 	andeq	r2, r8, r1, lsl #4
    5e40:	00103200 	andseq	r3, r0, r0, lsl #4
    5e44:	50011f00 	andpl	r1, r1, r0, lsl #30
    5e48:	08000a03 	stmdaeq	r0, {r0, r1, r9, fp}
    5e4c:	0151011f 	cmpeq	r1, pc, lsl r1
    5e50:	52011f40 	andpl	r1, r1, #64, 30	; 0x100
    5e54:	02b07403 	adcseq	r7, r0, #50331648	; 0x3000000
    5e58:	2bec2000 	blcs	ffb0de60 <__bss_end__+0xfe5fa448>
    5e5c:	08220150 	stmdaeq	r2!, {r4, r6, r8}
    5e60:	10530000 	subsne	r0, r3, r0
    5e64:	011f0000 	tsteq	pc, r0
    5e68:	000a0350 	andeq	r0, sl, r0, asr r3
    5e6c:	51011f09 	tstpl	r1, r9, lsl #30
    5e70:	011f4001 	tsteq	pc, r1
    5e74:	c0740352 	rsbsgt	r0, r4, r2, asr r3
    5e78:	fc200002 	stc2	0, cr0, [r0], #-8
    5e7c:	2201502b 	andcs	r5, r1, #43	; 0x2b
    5e80:	74000008 	strvc	r0, [r0], #-8
    5e84:	1f000010 	svcne	0x00000010
    5e88:	0a035001 	beq	d9e94 <_back_addr-0x142616c>
    5e8c:	011f0a00 	tsteq	pc, r0, lsl #20
    5e90:	1f400151 	svcne	0x00400151
    5e94:	74035201 	strvc	r5, [r3], #-513	; 0x201
    5e98:	200002d0 	ldrdcs	r0, [r0], -r0	; <UNPREDICTABLE>
    5e9c:	01502c0c 	cmpeq	r0, ip, lsl #24
    5ea0:	00000822 	andeq	r0, r0, r2, lsr #16
    5ea4:	00001095 	muleq	r0, r5, r0
    5ea8:	0350011f 	cmpeq	r0, #-1073741817	; 0xc0000007
    5eac:	1f0d200a 	svcne	0x000d200a
    5eb0:	40015101 	andmi	r5, r1, r1, lsl #2
    5eb4:	0352011f 	cmpeq	r2, #-1073741817	; 0xc0000007
    5eb8:	0002e074 	andeq	lr, r2, r4, ror r0
    5ebc:	502c101d 	eorpl	r1, ip, sp, lsl r0
    5ec0:	000ba901 	andeq	sl, fp, r1, lsl #18
    5ec4:	2c141d00 	ldccs	13, cr1, [r4], {-0}
    5ec8:	0c190150 	ldfeqs	f0, [r9], {80}	; 0x50
    5ecc:	181d0000 	ldmdane	sp, {}	; <UNPREDICTABLE>
    5ed0:	8901502c 	stmdbhi	r1, {r2, r3, r5, ip, lr}
    5ed4:	1d00000c 	stcne	0, cr0, [r0, #-48]	; 0xffffffd0
    5ed8:	01502c1c 	cmpeq	r0, ip, lsl ip
    5edc:	00000cf9 	strdeq	r0, [r0], -r9
    5ee0:	502c201d 	eorpl	r2, ip, sp, lsl r0
    5ee4:	000d6901 	andeq	r6, sp, r1, lsl #18
    5ee8:	2c241d00 	stccs	13, cr1, [r4], #-0
    5eec:	0dd90150 	ldfeqe	f0, [r9, #320]	; 0x140
    5ef0:	2c200000 	stccs	0, cr0, [r0], #-0
    5ef4:	6001502c 	andvs	r5, r1, ip, lsr #32
    5ef8:	de000001 	cdple	0, 0, cr0, cr0, cr1, {0}
    5efc:	1f000010 	svcne	0x00000010
    5f00:	31015001 	tstcc	r1, r1
    5f04:	2c342000 	ldccs	0, cr2, [r4], #-0
    5f08:	01600150 	cmneq	r0, r0, asr r1
    5f0c:	10f10000 	rscsne	r0, r1, r0
    5f10:	011f0000 	tsteq	pc, r0
    5f14:	00320150 	eorseq	r0, r2, r0, asr r1
    5f18:	502c3c20 	eorpl	r3, ip, r0, lsr #24
    5f1c:	0001c801 	andeq	ip, r1, r1, lsl #16
    5f20:	00110400 	andseq	r0, r1, r0, lsl #8
    5f24:	50011f00 	andpl	r1, r1, r0, lsl #30
    5f28:	1e003101 	adfnes	f3, f0, f1
    5f2c:	01502c44 	cmpeq	r0, r4, asr #24
    5f30:	000001c8 	andeq	r0, r0, r8, asr #3
    5f34:	0150011f 	cmpeq	r0, pc, lsl r1
    5f38:	24000032 	strcs	r0, [r0], #-50	; 0x32
    5f3c:	00000526 	andeq	r0, r0, r6, lsr #10
    5f40:	25026101 	strcs	r6, [r2, #-257]	; 0x101
    5f44:	4c000000 	stcmi	0, cr0, [r0], {-0}
    5f48:	8001502c 	andhi	r5, r1, ip, lsr #32
    5f4c:	01000000 	mrseq	r0, (UNDEF: 0)
    5f50:	0011b39c 	mulseq	r1, ip, r3
    5f54:	0fe52a00 	svceq	0x00e52a00
    5f58:	61010000 	mrsvs	r0, (UNDEF: 1)
    5f5c:	00002502 	andeq	r2, r0, r2, lsl #10
    5f60:	0035da00 	eorseq	sp, r5, r0, lsl #20
    5f64:	74703b00 	ldrbtvc	r3, [r0], #-2816	; 0xb00
    5f68:	61010072 	tstvs	r1, r2, ror r0
    5f6c:	0011b302 	andseq	fp, r1, r2, lsl #6
    5f70:	0035fb00 	eorseq	pc, r5, r0, lsl #22
    5f74:	6e633b00 	vmulvs.f64	d19, d3, d0
    5f78:	61010074 	tstvs	r1, r4, ror r0
    5f7c:	00002502 	andeq	r2, r0, r2, lsl #10
    5f80:	00362700 	eorseq	r2, r6, r0, lsl #14
    5f84:	65723c00 	ldrbvs	r3, [r2, #-3072]!	; 0xc00
    5f88:	63010074 	movwvs	r0, #4212	; 0x1074
    5f8c:	00002502 	andeq	r2, r0, r2, lsl #10
    5f90:	69290000 	stmdbvs	r9!, {}	; <UNPREDICTABLE>
    5f94:	02640100 	rsbeq	r0, r4, #0, 2
    5f98:	00000025 	andeq	r0, r0, r5, lsr #32
    5f9c:	00003653 	andeq	r3, r0, r3, asr r6
    5fa0:	000f672b 	andeq	r6, pc, fp, lsr #14
    5fa4:	02650100 	rsbeq	r0, r5, #0, 2
    5fa8:	00000025 	andeq	r0, r0, r5, lsr #32
    5fac:	00003673 	andeq	r3, r0, r3, ror r6
    5fb0:	0001213d 	andeq	r2, r1, sp, lsr r1
    5fb4:	502c5c00 	eorpl	r5, ip, r0, lsl #24
    5fb8:	00066801 	andeq	r6, r6, r1, lsl #16
    5fbc:	02690100 	rsbeq	r0, r9, #0, 2
    5fc0:	0001312d 	andeq	r3, r1, sp, lsr #2
    5fc4:	0036ed00 	eorseq	lr, r6, r0, lsl #26
    5fc8:	06881b00 	streq	r1, [r8], r0, lsl #22
    5fcc:	312d0000 	teqcc	sp, r0
    5fd0:	33000001 	movwcc	r0, #1
    5fd4:	00000037 	andeq	r0, r0, r7, lsr r0
    5fd8:	04360000 	ldrteq	r0, [r6], #-0
    5fdc:	00000025 	andeq	r0, r0, r5, lsr #32
    5fe0:	00070d24 	andeq	r0, r7, r4, lsr #26
    5fe4:	026e0100 	rsbeq	r0, lr, #0, 2
    5fe8:	00000059 	andeq	r0, r0, r9, asr r0
    5fec:	01502ccc 	cmpeq	r0, ip, asr #25
    5ff0:	00000054 	andeq	r0, r0, r4, asr r0
    5ff4:	129c9c01 	addsne	r9, ip, #256	; 0x100
    5ff8:	e52a0000 	str	r0, [sl, #-0]!
    5ffc:	0100000f 	tsteq	r0, pc
    6000:	0059026e 	subseq	r0, r9, lr, ror #4
    6004:	37570000 	ldrbcc	r0, [r7, -r0]
    6008:	703b0000 	eorsvc	r0, fp, r0
    600c:	01007274 	tsteq	r0, r4, ror r2
    6010:	129c026e 	addsne	r0, ip, #-536870906	; 0xe0000006
    6014:	37780000 	ldrbcc	r0, [r8, -r0]!
    6018:	633e0000 	teqvs	lr, #0
    601c:	0100746e 	tsteq	r0, lr, ror #8
    6020:	0025026e 	eoreq	r0, r5, lr, ror #4
    6024:	52010000 	andpl	r0, r1, #0
    6028:	7465723f 	strbtvc	r7, [r5], #-575	; 0x23f
    602c:	02700100 	rsbseq	r0, r0, #0, 2
    6030:	00000025 	andeq	r0, r0, r5, lsr #32
    6034:	0069297f 	rsbeq	r2, r9, pc, ror r9
    6038:	25027101 	strcs	r7, [r2, #-257]	; 0x101
    603c:	a4000000 	strge	r0, [r0], #-0
    6040:	2b000037 	blcs	6124 <_back_addr-0x14f9edc>
    6044:	00000d86 	andeq	r0, r0, r6, lsl #27
    6048:	25027201 	strcs	r7, [r2, #-513]	; 0x201
    604c:	d5000000 	strle	r0, [r0, #-0]
    6050:	40000037 	andmi	r0, r0, r7, lsr r0
    6054:	00000ef0 	strdeq	r0, [r0], -r0	; <UNPREDICTABLE>
    6058:	25027201 	strcs	r7, [r2, #-513]	; 0x201
    605c:	00000000 	andeq	r0, r0, r0
    6060:	000e982b 	andeq	r9, lr, fp, lsr #16
    6064:	02730100 	rsbseq	r0, r3, #0, 2
    6068:	00000025 	andeq	r0, r0, r5, lsr #32
    606c:	000037d5 	ldrdeq	r3, [r0], -r5
    6070:	000eea2b 	andeq	lr, lr, fp, lsr #20
    6074:	02730100 	rsbseq	r0, r3, #0, 2
    6078:	00000025 	andeq	r0, r0, r5, lsr #32
    607c:	000037d5 	ldrdeq	r3, [r0], -r5
    6080:	00100340 	andseq	r0, r0, r0, asr #6
    6084:	02730100 	rsbseq	r0, r3, #0, 2
    6088:	00000025 	andeq	r0, r0, r5, lsr #32
    608c:	100a2b00 	andne	r2, sl, r0, lsl #22
    6090:	74010000 	strvc	r0, [r1], #-0
    6094:	00002502 	andeq	r2, r0, r2, lsl #10
    6098:	0037f500 	eorseq	pc, r7, r0, lsl #10
    609c:	01212c00 	teqeq	r1, r0, lsl #24
    60a0:	2cfc0000 	ldclcs	0, cr0, [ip]
    60a4:	00040150 	andeq	r0, r4, r0, asr r1
    60a8:	7c010000 	stcvc	0, cr0, [r1], {-0}
    60ac:	01314102 	teqeq	r1, r2, lsl #2
    60b0:	fc2e0000 	stc2	0, cr0, [lr], #-0
    60b4:	0401502c 	streq	r5, [r1], #-44	; 0x2c
    60b8:	41000000 	mrsmi	r0, (UNDEF: 0)
    60bc:	00000131 	andeq	r0, r0, r1, lsr r1
    60c0:	36000000 	strcc	r0, [r0], -r0
    60c4:	0000b404 	andeq	fp, r0, r4, lsl #8
    60c8:	0ead2400 	cdpeq	4, 10, cr2, cr13, cr0, {0}
    60cc:	03010000 	movweq	r0, #4096	; 0x1000
    60d0:	00005901 	andeq	r5, r0, r1, lsl #18
    60d4:	502d2000 	eorpl	r2, sp, r0
    60d8:	00004401 	andeq	r4, r0, r1, lsl #8
    60dc:	179c0100 	ldrne	r0, [ip, r0, lsl #2]
    60e0:	2a000013 	bcs	6134 <_back_addr-0x14f9ecc>
    60e4:	00000e73 	andeq	r0, r0, r3, ror lr
    60e8:	25010301 	strcs	r0, [r1, #-769]	; 0x301
    60ec:	41000000 	mrsmi	r0, (UNDEF: 0)
    60f0:	2a000038 	bcs	61d8 <_back_addr-0x14f9e28>
    60f4:	00000dc7 	andeq	r0, r0, r7, asr #27
    60f8:	25010301 	strcs	r0, [r1, #-769]	; 0x301
    60fc:	7b000000 	blvc	6104 <_back_addr-0x14f9efc>
    6100:	2a000038 	bcs	61e8 <_back_addr-0x14f9e18>
    6104:	00000d2a 	andeq	r0, r0, sl, lsr #26
    6108:	00010301 	andeq	r0, r1, r1, lsl #6
    610c:	a7000009 	strge	r0, [r0, -r9]
    6110:	26000038 			; <UNDEFINED> instruction: 0x26000038
    6114:	0000070d 	andeq	r0, r0, sp, lsl #14
    6118:	59011401 	stmdbpl	r1, {r0, sl, ip}
    611c:	fe000000 	cdp2	0, 0, cr0, cr0, cr0, {0}
    6120:	0f000012 	svceq	0x00000012
    6124:	2d5c1e00 	ldclcs	14, cr1, [ip, #-0]
    6128:	11b90150 			; <UNDEFINED> instruction: 0x11b90150
    612c:	011f0000 	tsteq	pc, r0
    6130:	01f30351 	mvnseq	r0, r1, asr r3
    6134:	52011f52 	andpl	r1, r1, #328	; 0x148
    6138:	5101f303 	tstpl	r1, r3, lsl #6
    613c:	25220000 	strcs	r0, [r2, #-0]!
    6140:	27000000 	strcs	r0, [r0, -r0]
    6144:	23000013 	movwcs	r0, #19
    6148:	0000007f 	andeq	r0, r0, pc, ror r0
    614c:	2c42003f 	mcrrcs	0, 3, r0, r2, cr15
    6150:	01000003 	tsteq	r0, r3
    6154:	0013173e 	andseq	r1, r3, lr, lsr r7
    6158:	80030500 	andhi	r0, r3, r0, lsl #10
    615c:	42015134 	andmi	r5, r1, #52, 2
    6160:	0000104f 	andeq	r1, r0, pc, asr #32
    6164:	05535201 	ldrbeq	r5, [r3, #-513]	; 0x201
    6168:	03050000 	movweq	r0, #20480	; 0x5000
    616c:	015135a0 	cmpeq	r1, r0, lsr #11
    6170:	00103642 	andseq	r3, r0, r2, asr #12
    6174:	53570100 	cmppl	r7, #0, 2
    6178:	05000005 	streq	r0, [r0, #-5]
    617c:	51359003 	teqpl	r5, r3
    6180:	10624201 	rsbne	r4, r2, r1, lsl #4
    6184:	5c010000 	stcpl	0, cr0, [r1], {-0}
    6188:	00000553 	andeq	r0, r0, r3, asr r5
    618c:	35800305 	strcc	r0, [r0, #773]	; 0x305
    6190:	b4220151 	strtlt	r0, [r2], #-337	; 0x151
    6194:	7b000000 	blvc	619c <_back_addr-0x14f9e64>
    6198:	23000013 	movwcs	r0, #19
    619c:	0000007f 	andeq	r0, r0, pc, ror r0
    61a0:	fa420010 	blx	10861e8 <_back_addr-0x479e18>
    61a4:	0100000f 	tsteq	r0, pc
    61a8:	00136b61 	andseq	r6, r3, r1, ror #22
    61ac:	b0030500 	andlt	r0, r3, r0, lsl #10
    61b0:	22015135 	andcs	r5, r1, #1073741837	; 0x4000000d
    61b4:	000000b4 	strheq	r0, [r0], -r4
    61b8:	00001397 	muleq	r0, r7, r3
    61bc:	fc440043 	mcrr2	0, 4, r0, r4, cr3
    61c0:	06000001 	streq	r0, [r0], -r1
    61c4:	0013a212 	andseq	sl, r3, r2, lsl r2
    61c8:	138c4500 	orrne	r4, ip, #0, 10
    61cc:	b4220000 	strtlt	r0, [r2], #-0
    61d0:	b7000000 	strlt	r0, [r0, -r0]
    61d4:	23000013 	movwcs	r0, #19
    61d8:	0000007f 	andeq	r0, r0, pc, ror r0
    61dc:	2a46000f 	bcs	1186220 <_back_addr-0x379de0>
    61e0:	0100000f 	tsteq	r0, pc
    61e4:	13a701fd 			; <UNDEFINED> instruction: 0x13a701fd
    61e8:	03050000 	movweq	r0, #20480	; 0x5000
    61ec:	01513460 	cmpeq	r1, r0, ror #8
    61f0:	000f3146 	andeq	r3, pc, r6, asr #2
    61f4:	01fe0100 	mvnseq	r0, r0, lsl #2
    61f8:	000013a7 	andeq	r1, r0, r7, lsr #7
    61fc:	34500305 	ldrbcc	r0, [r0], #-773	; 0x305
    6200:	38460151 	stmdacc	r6, {r0, r4, r6, r8}^
    6204:	0100000f 	tsteq	r0, pc
    6208:	13a701ff 			; <UNDEFINED> instruction: 0x13a701ff
    620c:	03050000 	movweq	r0, #20480	; 0x5000
    6210:	01513470 	cmpeq	r1, r0, ror r4
    6214:	0002dc0e 	andeq	sp, r2, lr, lsl #24
    6218:	59840100 	stmibpl	r4, {r8}
    621c:	fe000000 	cdp2	0, 0, cr0, cr0, cr0, {0}
    6220:	0f000013 	svceq	0x00000013
    6224:	03fe0e00 	mvnseq	r0, #0, 28
    6228:	aa010000 	bge	46230 <_back_addr-0x14b9dd0>
    622c:	00000059 	andeq	r0, r0, r9, asr r0
    6230:	0000140f 	andeq	r1, r0, pc, lsl #8
    6234:	5225000f 	eorpl	r0, r5, #15
    6238:	e3010032 	movw	r0, #4146	; 0x1032
    623c:	00005901 	andeq	r5, r0, r1, lsl #18
    6240:	00142000 	andseq	r2, r4, r0
    6244:	26000f00 	strcs	r0, [r0], -r0, lsl #30
    6248:	000003c6 	andeq	r0, r0, r6, asr #7
    624c:	5901e401 	stmdbpl	r1, {r0, sl, sp, lr, pc}
    6250:	32000000 	andcc	r0, r0, #0
    6254:	0f000014 	svceq	0x00000014
    6258:	063b2600 	ldrteq	r2, [fp], -r0, lsl #12
    625c:	0d010000 	stceq	0, cr0, [r1, #-0]
    6260:	00005902 	andeq	r5, r0, r2, lsl #18
    6264:	00144400 	andseq	r4, r4, r0, lsl #8
    6268:	26000f00 	strcs	r0, [r0], -r0, lsl #30
    626c:	00000508 	andeq	r0, r0, r8, lsl #10
    6270:	59021701 	stmdbpl	r2, {r0, r8, r9, sl, ip}
    6274:	56000000 	strpl	r0, [r0], -r0
    6278:	0f000014 	svceq	0x00000014
    627c:	07cf4700 	strbeq	r4, [pc, r0, lsl #14]
    6280:	2f070000 	svccs	0x00070000
    6284:	00002548 	andeq	r2, r0, r8, asr #10
    6288:	Address 0x00006288 is out of bounds.


Disassembly of section .debug_abbrev:

00000000 <.debug_abbrev>:
       0:	10001101 	andne	r1, r0, r1, lsl #2
       4:	12011106 	andne	r1, r1, #-2147483647	; 0x80000001
       8:	1b080301 	blne	200c14 <_back_addr-0x12ff3ec>
       c:	13082508 	movwne	r2, #34056	; 0x8508
      10:	00000005 	andeq	r0, r0, r5
      14:	25011101 	strcs	r1, [r1, #-257]	; 0x101
      18:	030b130e 	movweq	r1, #45838	; 0xb30e
      1c:	110e1b0e 	tstne	lr, lr, lsl #22
      20:	10061201 	andne	r1, r6, r1, lsl #4
      24:	02000017 	andeq	r0, r0, #23
      28:	0b0b0024 	bleq	2c00c0 <_back_addr-0x123ff40>
      2c:	0e030b3e 	vmoveq.16	d3[0], r0
      30:	24030000 	strcs	r0, [r3], #-0
      34:	3e0b0b00 	vmlacc.f64	d0, d11, d0
      38:	0008030b 	andeq	r0, r8, fp, lsl #6
      3c:	012e0400 	teqeq	lr, r0, lsl #8
      40:	0e03193f 	mcreq	9, 0, r1, cr3, cr15, {1}
      44:	0b3b0b3a 	bleq	ec2d34 <_back_addr-0x63d2cc>
      48:	13491927 	movtne	r1, #39207	; 0x9927
      4c:	06120111 			; <UNDEFINED> instruction: 0x06120111
      50:	42971840 	addsmi	r1, r7, #64, 16	; 0x400000
      54:	00130119 	andseq	r0, r3, r9, lsl r1
      58:	00050500 	andeq	r0, r5, r0, lsl #10
      5c:	0b3a0803 	bleq	e82070 <_back_addr-0x67df90>
      60:	13490b3b 	movtne	r0, #39739	; 0x9b3b
      64:	00001702 	andeq	r1, r0, r2, lsl #14
      68:	03003406 	movweq	r3, #1030	; 0x406
      6c:	3b0b3a08 	blcc	2ce894 <_back_addr-0x123176c>
      70:	0213490b 	andseq	r4, r3, #180224	; 0x2c000
      74:	07000017 	smladeq	r0, r7, r0, r0
      78:	0b0b000f 	bleq	2c00bc <_back_addr-0x123ff44>
      7c:	00001349 	andeq	r1, r0, r9, asr #6
      80:	49002608 	stmdbmi	r0, {r3, r9, sl, sp}
      84:	00000013 	andeq	r0, r0, r3, lsl r0
      88:	25011101 	strcs	r1, [r1, #-257]	; 0x101
      8c:	030b130e 	movweq	r1, #45838	; 0xb30e
      90:	110e1b0e 	tstne	lr, lr, lsl #22
      94:	10061201 	andne	r1, r6, r1, lsl #4
      98:	02000017 	andeq	r0, r0, #23
      9c:	0b0b0024 	bleq	2c0134 <_back_addr-0x123fecc>
      a0:	0e030b3e 	vmoveq.16	d3[0], r0
      a4:	24030000 	strcs	r0, [r3], #-0
      a8:	3e0b0b00 	vmlacc.f64	d0, d11, d0
      ac:	0008030b 	andeq	r0, r8, fp, lsl #6
      b0:	012e0400 	teqeq	lr, r0, lsl #8
      b4:	0e03193f 	mcreq	9, 0, r1, cr3, cr15, {1}
      b8:	0b3b0b3a 	bleq	ec2da8 <_back_addr-0x63d258>
      bc:	13491927 	movtne	r1, #39207	; 0x9927
      c0:	06120111 			; <UNDEFINED> instruction: 0x06120111
      c4:	42971840 	addsmi	r1, r7, #64, 16	; 0x400000
      c8:	00130119 	andseq	r0, r3, r9, lsl r1
      cc:	00050500 	andeq	r0, r5, r0, lsl #10
      d0:	0b3a0803 	bleq	e820e4 <_back_addr-0x67df1c>
      d4:	13490b3b 	movtne	r0, #39739	; 0x9b3b
      d8:	00001702 	andeq	r1, r0, r2, lsl #14
      dc:	03000506 	movweq	r0, #1286	; 0x506
      e0:	3b0b3a08 	blcc	2ce908 <_back_addr-0x12316f8>
      e4:	0213490b 	andseq	r4, r3, #180224	; 0x2c000
      e8:	07000018 	smladeq	r0, r8, r0, r0
      ec:	08030034 	stmdaeq	r3, {r2, r4, r5}
      f0:	0b3b0b3a 	bleq	ec2de0 <_back_addr-0x63d220>
      f4:	17021349 	strne	r1, [r2, -r9, asr #6]
      f8:	0f080000 	svceq	0x00080000
      fc:	490b0b00 	stmdbmi	fp, {r8, r9, fp}
     100:	09000013 	stmdbeq	r0, {r0, r1, r4}
     104:	13490026 	movtne	r0, #36902	; 0x9026
     108:	01000000 	mrseq	r0, (UNDEF: 0)
     10c:	0e250111 	mcreq	1, 1, r0, cr5, cr1, {0}
     110:	0e030b13 	vmoveq.32	d3[0], r0
     114:	01110e1b 	tsteq	r1, fp, lsl lr
     118:	17100612 			; <UNDEFINED> instruction: 0x17100612
     11c:	24020000 	strcs	r0, [r2], #-0
     120:	3e0b0b00 	vmlacc.f64	d0, d11, d0
     124:	000e030b 	andeq	r0, lr, fp, lsl #6
     128:	00240300 	eoreq	r0, r4, r0, lsl #6
     12c:	0b3e0b0b 	bleq	f82d60 <_back_addr-0x57d2a0>
     130:	00000803 	andeq	r0, r0, r3, lsl #16
     134:	3f012e04 	svccc	0x00012e04
     138:	3a0e0319 	bcc	380da4 <_back_addr-0x117f25c>
     13c:	270b3b0b 	strcs	r3, [fp, -fp, lsl #22]
     140:	11134919 	tstne	r3, r9, lsl r9
     144:	40061201 	andmi	r1, r6, r1, lsl #4
     148:	19429718 	stmdbne	r2, {r3, r4, r8, r9, sl, ip, pc}^
     14c:	00001301 	andeq	r1, r0, r1, lsl #6
     150:	03000505 	movweq	r0, #1285	; 0x505
     154:	3b0b3a08 	blcc	2ce97c <_back_addr-0x1231684>
     158:	0213490b 	andseq	r4, r3, #180224	; 0x2c000
     15c:	06000017 			; <UNDEFINED> instruction: 0x06000017
     160:	0e030005 	cdpeq	0, 0, cr0, cr3, cr5, {0}
     164:	0b3b0b3a 	bleq	ec2e54 <_back_addr-0x63d1ac>
     168:	18021349 	stmdane	r2, {r0, r3, r6, r8, r9, ip}
     16c:	05070000 	streq	r0, [r7, #-0]
     170:	3a0e0300 	bcc	380d78 <_back_addr-0x117f288>
     174:	490b3b0b 	stmdbmi	fp, {r0, r1, r3, r8, r9, fp, ip, sp}
     178:	00170213 	andseq	r0, r7, r3, lsl r2
     17c:	00340800 	eorseq	r0, r4, r0, lsl #16
     180:	0b3a0803 	bleq	e82194 <_back_addr-0x67de6c>
     184:	13490b3b 	movtne	r0, #39739	; 0x9b3b
     188:	00001702 	andeq	r1, r0, r2, lsl #14
     18c:	03003409 	movweq	r3, #1033	; 0x409
     190:	3b0b3a0e 	blcc	2ce9d0 <_back_addr-0x1231630>
     194:	0213490b 	andseq	r4, r3, #180224	; 0x2c000
     198:	0a000017 	beq	1fc <_back_addr-0x14ffe04>
     19c:	0b0b000f 	bleq	2c01e0 <_back_addr-0x123fe20>
     1a0:	00001349 	andeq	r1, r0, r9, asr #6
     1a4:	4900260b 	stmdbmi	r0, {r0, r1, r3, r9, sl, sp}
     1a8:	0c000013 	stceq	0, cr0, [r0], {19}
     1ac:	13490101 	movtne	r0, #37121	; 0x9101
     1b0:	00001301 	andeq	r1, r0, r1, lsl #6
     1b4:	0000210d 	andeq	r2, r0, sp, lsl #2
     1b8:	00340e00 	eorseq	r0, r4, r0, lsl #28
     1bc:	0b3a0e03 	bleq	e839d0 <_back_addr-0x67c630>
     1c0:	13490b3b 	movtne	r0, #39739	; 0x9b3b
     1c4:	193c193f 	ldmdbne	ip!, {r0, r1, r2, r3, r4, r5, r8, fp, ip}
     1c8:	01000000 	mrseq	r0, (UNDEF: 0)
     1cc:	0e250111 	mcreq	1, 1, r0, cr5, cr1, {0}
     1d0:	0e030b13 	vmoveq.32	d3[0], r0
     1d4:	17100e1b 			; <UNDEFINED> instruction: 0x17100e1b
     1d8:	01020000 	mrseq	r0, (UNDEF: 2)
     1dc:	01134901 	tsteq	r3, r1, lsl #18
     1e0:	03000013 	movweq	r0, #19
     1e4:	13490021 	movtne	r0, #36897	; 0x9021
     1e8:	00000b2f 	andeq	r0, r0, pc, lsr #22
     1ec:	0b002404 	bleq	9204 <_back_addr-0x14f6dfc>
     1f0:	030b3e0b 	movweq	r3, #48651	; 0xbe0b
     1f4:	0500000e 	streq	r0, [r0, #-14]
     1f8:	0e030034 	mcreq	0, 0, r0, cr3, cr4, {1}
     1fc:	0b3b0b3a 	bleq	ec2eec <_back_addr-0x63d114>
     200:	193f1349 	ldmdbne	pc!, {r0, r3, r6, r8, r9, ip}	; <UNPREDICTABLE>
     204:	00001802 	andeq	r1, r0, r2, lsl #16
     208:	49002606 	stmdbmi	r0, {r1, r2, r9, sl, sp}
     20c:	00000013 	andeq	r0, r0, r3, lsl r0
     210:	25011101 	strcs	r1, [r1, #-257]	; 0x101
     214:	030b130e 	movweq	r1, #45838	; 0xb30e
     218:	110e1b0e 	tstne	lr, lr, lsl #22
     21c:	10061201 	andne	r1, r6, r1, lsl #4
     220:	02000017 	andeq	r0, r0, #23
     224:	0b0b0024 	bleq	2c02bc <_back_addr-0x123fd44>
     228:	0e030b3e 	vmoveq.16	d3[0], r0
     22c:	16030000 	strne	r0, [r3], -r0
     230:	3a0e0300 	bcc	380e38 <_back_addr-0x117f1c8>
     234:	490b3b0b 	stmdbmi	fp, {r0, r1, r3, r8, r9, fp, ip, sp}
     238:	04000013 	streq	r0, [r0], #-19
     23c:	0b0b0024 	bleq	2c02d4 <_back_addr-0x123fd2c>
     240:	08030b3e 	stmdaeq	r3, {r1, r2, r3, r4, r5, r8, r9, fp}
     244:	0f050000 	svceq	0x00050000
     248:	490b0b00 	stmdbmi	fp, {r8, r9, fp}
     24c:	06000013 			; <UNDEFINED> instruction: 0x06000013
     250:	13490026 	movtne	r0, #36902	; 0x9026
     254:	04070000 	streq	r0, [r7], #-0
     258:	3a0b0b01 	bcc	2c2e64 <_back_addr-0x123d19c>
     25c:	010b3b0b 	tsteq	fp, fp, lsl #22
     260:	08000013 	stmdaeq	r0, {r0, r1, r4}
     264:	0e030028 	cdpeq	0, 0, cr0, cr3, cr8, {1}
     268:	00000d1c 	andeq	r0, r0, ip, lsl sp
     26c:	3f002e09 	svccc	0x00002e09
     270:	3a0e0319 	bcc	380edc <_back_addr-0x117f124>
     274:	490b3b0b 	stmdbmi	fp, {r0, r1, r3, r8, r9, fp, ip, sp}
     278:	12011113 	andne	r1, r1, #-1073741820	; 0xc0000004
     27c:	97184006 	ldrls	r4, [r8, -r6]
     280:	00001942 	andeq	r1, r0, r2, asr #18
     284:	3f012e0a 	svccc	0x00012e0a
     288:	3a0e0319 	bcc	380ef4 <_back_addr-0x117f10c>
     28c:	270b3b0b 	strcs	r3, [fp, -fp, lsl #22]
     290:	11134919 	tstne	r3, r9, lsl r9
     294:	40061201 	andmi	r1, r6, r1, lsl #4
     298:	19429718 	stmdbne	r2, {r3, r4, r8, r9, sl, ip, pc}^
     29c:	00001301 	andeq	r1, r0, r1, lsl #6
     2a0:	0300050b 	movweq	r0, #1291	; 0x50b
     2a4:	3b0b3a08 	blcc	2ceacc <_back_addr-0x1231534>
     2a8:	0213490b 	andseq	r4, r3, #180224	; 0x2c000
     2ac:	0c000018 	stceq	0, cr0, [r0], {24}
     2b0:	00000018 	andeq	r0, r0, r8, lsl r0
     2b4:	0300050d 	movweq	r0, #1293	; 0x50d
     2b8:	3b0b3a0e 	blcc	2ceaf8 <_back_addr-0x1231508>
     2bc:	0213490b 	andseq	r4, r3, #180224	; 0x2c000
     2c0:	0e000018 	mcreq	0, 0, r0, cr0, cr8, {0}
     2c4:	08030005 	stmdaeq	r3, {r0, r2}
     2c8:	0b3b0b3a 	bleq	ec2fb8 <_back_addr-0x63d048>
     2cc:	17021349 	strne	r1, [r2, -r9, asr #6]
     2d0:	050f0000 	streq	r0, [pc, #-0]	; 2d8 <_back_addr-0x14ffd28>
     2d4:	3a0e0300 	bcc	380edc <_back_addr-0x117f124>
     2d8:	490b3b0b 	stmdbmi	fp, {r0, r1, r3, r8, r9, fp, ip, sp}
     2dc:	00170213 	andseq	r0, r7, r3, lsl r2
     2e0:	00341000 	eorseq	r1, r4, r0
     2e4:	0b3a0e03 	bleq	e83af8 <_back_addr-0x67c508>
     2e8:	13490b3b 	movtne	r0, #39739	; 0x9b3b
     2ec:	00001702 	andeq	r1, r0, r2, lsl #14
     2f0:	0b000f11 	bleq	3f3c <_back_addr-0x14fc0c4>
     2f4:	1200000b 	andne	r0, r0, #11
     2f8:	00000026 	andeq	r0, r0, r6, lsr #32
     2fc:	03003413 	movweq	r3, #1043	; 0x413
     300:	3b0b3a08 	blcc	2ceb28 <_back_addr-0x12314d8>
     304:	0213490b 	andseq	r4, r3, #180224	; 0x2c000
     308:	14000017 	strne	r0, [r0], #-23
     30c:	0e030034 	mcreq	0, 0, r0, cr3, cr4, {1}
     310:	0b3b0b3a 	bleq	ec3000 <_back_addr-0x63d000>
     314:	00001349 	andeq	r1, r0, r9, asr #6
     318:	3f012e15 	svccc	0x00012e15
     31c:	3a0e0319 	bcc	380f88 <_back_addr-0x117f078>
     320:	490b3b0b 	stmdbmi	fp, {r0, r1, r3, r8, r9, fp, ip, sp}
     324:	01193c13 	tsteq	r9, r3, lsl ip
     328:	16000013 			; <UNDEFINED> instruction: 0x16000013
     32c:	01018289 	smlabbeq	r1, r9, r2, r8
     330:	13310111 	teqne	r1, #1073741828	; 0x40000004
     334:	00001301 	andeq	r1, r0, r1, lsl #6
     338:	01828a17 	orreq	r8, r2, r7, lsl sl
     33c:	91180200 	tstls	r8, r0, lsl #4
     340:	00001842 	andeq	r1, r0, r2, asr #16
     344:	01828918 	orreq	r8, r2, r8, lsl r9
     348:	31011100 	mrscc	r1, (UNDEF: 17)
     34c:	19000013 	stmdbne	r0, {r0, r1, r4}
     350:	0e030034 	mcreq	0, 0, r0, cr3, cr4, {1}
     354:	0b3b0b3a 	bleq	ec3044 <_back_addr-0x63cfbc>
     358:	193f1349 	ldmdbne	pc!, {r0, r3, r6, r8, r9, ip}	; <UNPREDICTABLE>
     35c:	0000193c 	andeq	r1, r0, ip, lsr r9
     360:	4901011a 	stmdbmi	r1, {r1, r3, r4, r8}
     364:	00130113 	andseq	r0, r3, r3, lsl r1
     368:	00211b00 	eoreq	r1, r1, r0, lsl #22
     36c:	211c0000 	tstcs	ip, r0
     370:	2f134900 	svccs	0x00134900
     374:	1d00000b 	stcne	0, cr0, [r0, #-44]	; 0xffffffd4
     378:	0e030034 	mcreq	0, 0, r0, cr3, cr4, {1}
     37c:	0b3b0b3a 	bleq	ec306c <_back_addr-0x63cf94>
     380:	193f1349 	ldmdbne	pc!, {r0, r3, r6, r8, r9, ip}	; <UNPREDICTABLE>
     384:	00001802 	andeq	r1, r0, r2, lsl #16
     388:	4900211e 	stmdbmi	r0, {r1, r2, r3, r4, r8, sp}
     38c:	00052f13 	andeq	r2, r5, r3, lsl pc
     390:	012e1f00 	teqeq	lr, r0, lsl #30
     394:	0e03193f 	mcreq	9, 0, r1, cr3, cr15, {1}
     398:	0b3b0b3a 	bleq	ec3088 <_back_addr-0x63cf78>
     39c:	193c1927 	ldmdbne	ip!, {r0, r1, r2, r5, r8, fp, ip}
     3a0:	00001301 	andeq	r1, r0, r1, lsl #6
     3a4:	49000520 	stmdbmi	r0, {r5, r8, sl}
     3a8:	21000013 	tstcs	r0, r3, lsl r0
     3ac:	193f012e 	ldmdbne	pc!, {r1, r2, r3, r5, r8}	; <UNPREDICTABLE>
     3b0:	0b3a0e03 	bleq	e83bc4 <_back_addr-0x67c43c>
     3b4:	19270b3b 	stmdbne	r7!, {r0, r1, r3, r4, r5, r8, r9, fp}
     3b8:	193c1349 	ldmdbne	ip!, {r0, r3, r6, r8, r9, ip}
     3bc:	00001301 	andeq	r1, r0, r1, lsl #6
     3c0:	3f002e22 	svccc	0x00002e22
     3c4:	3a0e0319 	bcc	381030 <_back_addr-0x117efd0>
     3c8:	270b3b0b 	strcs	r3, [fp, -fp, lsl #22]
     3cc:	00193c19 	andseq	r3, r9, r9, lsl ip
     3d0:	012e2300 	teqeq	lr, r0, lsl #6
     3d4:	0e03193f 	mcreq	9, 0, r1, cr3, cr15, {1}
     3d8:	0b3b0b3a 	bleq	ec30c8 <_back_addr-0x63cf38>
     3dc:	193c1349 	ldmdbne	ip!, {r0, r3, r6, r8, r9, ip}
     3e0:	01000000 	mrseq	r0, (UNDEF: 0)
     3e4:	0e250111 	mcreq	1, 1, r0, cr5, cr1, {0}
     3e8:	0e030b13 	vmoveq.32	d3[0], r0
     3ec:	01110e1b 	tsteq	r1, fp, lsl lr
     3f0:	17100612 			; <UNDEFINED> instruction: 0x17100612
     3f4:	24020000 	strcs	r0, [r2], #-0
     3f8:	3e0b0b00 	vmlacc.f64	d0, d11, d0
     3fc:	000e030b 	andeq	r0, lr, fp, lsl #6
     400:	00240300 	eoreq	r0, r4, r0, lsl #6
     404:	0b3e0b0b 	bleq	f83038 <_back_addr-0x57cfc8>
     408:	00000803 	andeq	r0, r0, r3, lsl #16
     40c:	03001604 	movweq	r1, #1540	; 0x604
     410:	3b0b3a0e 	blcc	2cec50 <_back_addr-0x12313b0>
     414:	0013490b 	andseq	r4, r3, fp, lsl #18
     418:	000f0500 	andeq	r0, pc, r0, lsl #10
     41c:	00000b0b 	andeq	r0, r0, fp, lsl #22
     420:	0b000f06 	bleq	4040 <_back_addr-0x14fbfc0>
     424:	0013490b 	andseq	r4, r3, fp, lsl #18
     428:	00260700 	eoreq	r0, r6, r0, lsl #14
     42c:	00001349 	andeq	r1, r0, r9, asr #6
     430:	49010108 	stmdbmi	r1, {r3, r8}
     434:	00130113 	andseq	r0, r3, r3, lsl r1
     438:	00210900 	eoreq	r0, r1, r0, lsl #18
     43c:	0b2f1349 	bleq	bc5168 <_back_addr-0x93ae98>
     440:	040a0000 	streq	r0, [sl], #-0
     444:	0b0e0301 	bleq	381050 <_back_addr-0x117efb0>
     448:	3b0b3a0b 	blcc	2cec7c <_back_addr-0x1231384>
     44c:	00130105 	andseq	r0, r3, r5, lsl #2
     450:	00280b00 	eoreq	r0, r8, r0, lsl #22
     454:	0d1c0e03 	ldceq	14, cr0, [ip, #-12]
     458:	130c0000 	movwne	r0, #49152	; 0xc000
     45c:	0b0e0301 	bleq	381068 <_back_addr-0x117ef98>
     460:	3b0b3a0b 	blcc	2cec94 <_back_addr-0x123136c>
     464:	0013010b 	andseq	r0, r3, fp, lsl #2
     468:	000d0d00 	andeq	r0, sp, r0, lsl #26
     46c:	0b3a0e03 	bleq	e83c80 <_back_addr-0x67c380>
     470:	13490b3b 	movtne	r0, #39739	; 0x9b3b
     474:	00000b38 	andeq	r0, r0, r8, lsr fp
     478:	03000d0e 	movweq	r0, #3342	; 0xd0e
     47c:	3b0b3a08 	blcc	2ceca4 <_back_addr-0x123135c>
     480:	3813490b 	ldmdacc	r3, {r0, r1, r3, r8, fp, lr}
     484:	0f00000b 	svceq	0x0000000b
     488:	0e03012e 	adfeqsp	f0, f3, #0.5
     48c:	0b3b0b3a 	bleq	ec317c <_back_addr-0x63ce84>
     490:	13491927 	movtne	r1, #39207	; 0x9927
     494:	13010b20 	movwne	r0, #6944	; 0x1b20
     498:	05100000 	ldreq	r0, [r0, #-0]
     49c:	3a0e0300 	bcc	3810a4 <_back_addr-0x117ef5c>
     4a0:	490b3b0b 	stmdbmi	fp, {r0, r1, r3, r8, r9, fp, ip, sp}
     4a4:	11000013 	tstne	r0, r3, lsl r0
     4a8:	0e03012e 	adfeqsp	f0, f3, #0.5
     4ac:	0b3b0b3a 	bleq	ec319c <_back_addr-0x63ce64>
     4b0:	0b201927 	bleq	806954 <_back_addr-0xcf96ac>
     4b4:	00001301 	andeq	r1, r0, r1, lsl #6
     4b8:	03000512 	movweq	r0, #1298	; 0x512
     4bc:	3b0b3a08 	blcc	2cece4 <_back_addr-0x123131c>
     4c0:	0013490b 	andseq	r4, r3, fp, lsl #18
     4c4:	012e1300 	teqeq	lr, r0, lsl #6
     4c8:	0b3a0e03 	bleq	e83cdc <_back_addr-0x67c324>
     4cc:	1927053b 	stmdbne	r7!, {r0, r1, r3, r4, r5, r8, sl}
     4d0:	0b201349 	bleq	8051fc <_back_addr-0xcfae04>
     4d4:	00001301 	andeq	r1, r0, r1, lsl #6
     4d8:	03000514 	movweq	r0, #1300	; 0x514
     4dc:	3b0b3a0e 	blcc	2ced1c <_back_addr-0x12312e4>
     4e0:	00134905 	andseq	r4, r3, r5, lsl #18
     4e4:	00341500 	eorseq	r1, r4, r0, lsl #10
     4e8:	0b3a0803 	bleq	e824fc <_back_addr-0x67db04>
     4ec:	1349053b 	movtne	r0, #38203	; 0x953b
     4f0:	34160000 	ldrcc	r0, [r6], #-0
     4f4:	3a0e0300 	bcc	3810fc <_back_addr-0x117ef04>
     4f8:	49053b0b 	stmdbmi	r5, {r0, r1, r3, r8, r9, fp, ip, sp}
     4fc:	17000013 	smladne	r0, r3, r0, r0
     500:	193f012e 	ldmdbne	pc!, {r1, r2, r3, r5, r8}	; <UNPREDICTABLE>
     504:	0b3a0e03 	bleq	e83d18 <_back_addr-0x67c2e8>
     508:	1349053b 	movtne	r0, #38203	; 0x953b
     50c:	0000193c 	andeq	r1, r0, ip, lsr r9
     510:	00001818 	andeq	r1, r0, r8, lsl r8
     514:	012e1900 	teqeq	lr, r0, lsl #18
     518:	0e03193f 	mcreq	9, 0, r1, cr3, cr15, {1}
     51c:	0b3b0b3a 	bleq	ec320c <_back_addr-0x63cdf4>
     520:	13491927 	movtne	r1, #39207	; 0x9927
     524:	13010b20 	movwne	r0, #6944	; 0x1b20
     528:	341a0000 	ldrcc	r0, [sl], #-0
     52c:	3a0e0300 	bcc	381134 <_back_addr-0x117eecc>
     530:	490b3b0b 	stmdbmi	fp, {r0, r1, r3, r8, r9, fp, ip, sp}
     534:	1b000013 	blne	588 <_back_addr-0x14ffa78>
     538:	0e03012e 	adfeqsp	f0, f3, #0.5
     53c:	053b0b3a 	ldreq	r0, [fp, #-2874]!	; 0xb3a
     540:	13491927 	movtne	r1, #39207	; 0x9927
     544:	06120111 			; <UNDEFINED> instruction: 0x06120111
     548:	42971840 	addsmi	r1, r7, #64, 16	; 0x400000
     54c:	00130119 	andseq	r0, r3, r9, lsl r1
     550:	00341c00 	eorseq	r1, r4, r0, lsl #24
     554:	0b3a0e03 	bleq	e83d68 <_back_addr-0x67c298>
     558:	1349053b 	movtne	r0, #38203	; 0x953b
     55c:	00001802 	andeq	r1, r0, r2, lsl #16
     560:	0182891d 	orreq	r8, r2, sp, lsl r9
     564:	31011101 	tstcc	r1, r1, lsl #2
     568:	00130113 	andseq	r0, r3, r3, lsl r1
     56c:	828a1e00 	addhi	r1, sl, #0, 28
     570:	18020001 	stmdane	r2, {r0}
     574:	00184291 	mulseq	r8, r1, r2
     578:	82891f00 	addhi	r1, r9, #0, 30
     57c:	01110101 	tsteq	r1, r1, lsl #2
     580:	00001331 	andeq	r1, r0, r1, lsr r3
     584:	03003420 	movweq	r3, #1056	; 0x420
     588:	3b0b3a08 	blcc	2cedb0 <_back_addr-0x1231250>
     58c:	02134905 	andseq	r4, r3, #81920	; 0x14000
     590:	21000017 	tstcs	r0, r7, lsl r0
     594:	1331011d 	teqne	r1, #1073741831	; 0x40000007
     598:	17550152 			; <UNDEFINED> instruction: 0x17550152
     59c:	05590b58 	ldrbeq	r0, [r9, #-2904]	; 0xb58
     5a0:	00001301 	andeq	r1, r0, r1, lsl #6
     5a4:	31000522 	tstcc	r0, r2, lsr #10
     5a8:	000b1c13 	andeq	r1, fp, r3, lsl ip
     5ac:	00052300 	andeq	r2, r5, r0, lsl #6
     5b0:	0d1c1331 	ldceq	3, cr1, [ip, #-196]	; 0xffffff3c
     5b4:	0b240000 	bleq	9005bc <_back_addr-0xbffa44>
     5b8:	00175501 	andseq	r5, r7, r1, lsl #10
     5bc:	011d2500 	tsteq	sp, r0, lsl #10
     5c0:	01521331 	cmpeq	r2, r1, lsr r3
     5c4:	0b581755 	bleq	1606320 <__bss_end__+0xf2908>
     5c8:	00000559 	andeq	r0, r0, r9, asr r5
     5cc:	31012e26 	tstcc	r1, r6, lsr #28
     5d0:	12011113 	andne	r1, r1, #-1073741820	; 0xc0000004
     5d4:	97184006 	ldrls	r4, [r8, -r6]
     5d8:	13011942 	movwne	r1, #6466	; 0x1942
     5dc:	05270000 	streq	r0, [r7, #-0]!
     5e0:	02133100 	andseq	r3, r3, #0, 2
     5e4:	28000017 	stmdacs	r0, {r0, r1, r2, r4}
     5e8:	13310034 	teqne	r1, #52	; 0x34
     5ec:	34290000 	strtcc	r0, [r9], #-0
     5f0:	02133100 	andseq	r3, r3, #0, 2
     5f4:	2a000017 	bcs	658 <_back_addr-0x14ff9a8>
     5f8:	1347012e 	movtne	r0, #28974	; 0x712e
     5fc:	13010b20 	movwne	r0, #6944	; 0x1b20
     600:	1d2b0000 	stcne	0, cr0, [fp, #-0]
     604:	11133101 	tstne	r3, r1, lsl #2
     608:	58061201 	stmdapl	r6, {r0, r9, ip}
     60c:	0105590b 	tsteq	r5, fp, lsl #18
     610:	2c000013 	stccs	0, cr0, [r0], {19}
     614:	0111010b 	tsteq	r1, fp, lsl #2
     618:	00000612 	andeq	r0, r0, r2, lsl r6
     61c:	11010b2d 	tstne	r1, sp, lsr #22
     620:	01061201 	tsteq	r6, r1, lsl #4
     624:	2e000013 	mcrcs	0, 0, r0, cr0, cr3, {0}
     628:	00018289 	andeq	r8, r1, r9, lsl #5
     62c:	13310111 	teqne	r1, #1073741828	; 0x40000004
     630:	2e2f0000 	cdpcs	0, 2, cr0, cr15, cr0, {0}
     634:	03193f01 	tsteq	r9, #1, 30
     638:	3b0b3a0e 	blcc	2cee78 <_back_addr-0x1231188>
     63c:	4919270b 	ldmdbmi	r9, {r0, r1, r3, r8, r9, sl, sp}
     640:	12011113 	andne	r1, r1, #-1073741820	; 0xc0000004
     644:	97184006 	ldrls	r4, [r8, -r6]
     648:	13011942 	movwne	r1, #6466	; 0x1942
     64c:	05300000 	ldreq	r0, [r0, #-0]!
     650:	3a0e0300 	bcc	381258 <_back_addr-0x117eda8>
     654:	490b3b0b 	stmdbmi	fp, {r0, r1, r3, r8, r9, fp, ip, sp}
     658:	00170213 	andseq	r0, r7, r3, lsl r2
     65c:	00343100 	eorseq	r3, r4, r0, lsl #2
     660:	0b3a0e03 	bleq	e83e74 <_back_addr-0x67c18c>
     664:	13490b3b 	movtne	r0, #39739	; 0x9b3b
     668:	00001802 	andeq	r1, r0, r2, lsl #16
     66c:	03003432 	movweq	r3, #1074	; 0x432
     670:	3b0b3a08 	blcc	2cee98 <_back_addr-0x1231168>
     674:	0213490b 	andseq	r4, r3, #180224	; 0x2c000
     678:	33000017 	movwcc	r0, #23
     67c:	1331011d 	teqne	r1, #1073741831	; 0x40000007
     680:	17550152 			; <UNDEFINED> instruction: 0x17550152
     684:	0b590b58 	bleq	16433ec <__bss_end__+0x12f9d4>
     688:	00001301 	andeq	r1, r0, r1, lsl #6
     68c:	31000534 	tstcc	r0, r4, lsr r5
     690:	00180213 	andseq	r0, r8, r3, lsl r2
     694:	00053500 	andeq	r3, r5, r0, lsl #10
     698:	00001331 	andeq	r1, r0, r1, lsr r3
     69c:	31011d36 	tstcc	r1, r6, lsr sp
     6a0:	55015213 	strpl	r5, [r1, #-531]	; 0x213
     6a4:	590b5817 	stmdbpl	fp, {r0, r1, r2, r4, fp, ip, lr}
     6a8:	3700000b 	strcc	r0, [r0, -fp]
     6ac:	08030005 	stmdaeq	r3, {r0, r2}
     6b0:	0b3b0b3a 	bleq	ec33a0 <_back_addr-0x63cc60>
     6b4:	17021349 	strne	r1, [r2, -r9, asr #6]
     6b8:	34380000 	ldrtcc	r0, [r8], #-0
     6bc:	3a0e0300 	bcc	3812c4 <_back_addr-0x117ed3c>
     6c0:	490b3b0b 	stmdbmi	fp, {r0, r1, r3, r8, r9, fp, ip, sp}
     6c4:	00170213 	andseq	r0, r7, r3, lsl r2
     6c8:	82893900 	addhi	r3, r9, #0, 18
     6cc:	01110001 	tsteq	r1, r1
     6d0:	31194295 			; <UNDEFINED> instruction: 0x31194295
     6d4:	3a000013 	bcc	728 <_back_addr-0x14ff8d8>
     6d8:	0e030034 	mcreq	0, 0, r0, cr3, cr4, {1}
     6dc:	19341349 	ldmdbne	r4!, {r0, r3, r6, r8, r9, ip}
     6e0:	00001802 	andeq	r1, r0, r2, lsl #16
     6e4:	03012e3b 	movweq	r2, #7739	; 0x1e3b
     6e8:	3b0b3a0e 	blcc	2cef28 <_back_addr-0x12310d8>
     6ec:	20192705 	andscs	r2, r9, r5, lsl #14
     6f0:	0013010b 	andseq	r0, r3, fp, lsl #2
     6f4:	012e3c00 	teqeq	lr, r0, lsl #24
     6f8:	0e03193f 	mcreq	9, 0, r1, cr3, cr15, {1}
     6fc:	053b0b3a 	ldreq	r0, [fp, #-2874]!	; 0xb3a
     700:	13491927 	movtne	r1, #39207	; 0x9927
     704:	06120111 			; <UNDEFINED> instruction: 0x06120111
     708:	42971840 	addsmi	r1, r7, #64, 16	; 0x400000
     70c:	00130119 	andseq	r0, r3, r9, lsl r1
     710:	00053d00 	andeq	r3, r5, r0, lsl #26
     714:	0b3a0e03 	bleq	e83f28 <_back_addr-0x67c0d8>
     718:	1349053b 	movtne	r0, #38203	; 0x953b
     71c:	00001702 	andeq	r1, r0, r2, lsl #14
     720:	0300053e 	movweq	r0, #1342	; 0x53e
     724:	3b0b3a08 	blcc	2cef4c <_back_addr-0x12310b4>
     728:	02134905 	andseq	r4, r3, #81920	; 0x14000
     72c:	3f000017 	svccc	0x00000017
     730:	0e030034 	mcreq	0, 0, r0, cr3, cr4, {1}
     734:	053b0b3a 	ldreq	r0, [fp, #-2874]!	; 0xb3a
     738:	17021349 	strne	r1, [r2, -r9, asr #6]
     73c:	34400000 	strbcc	r0, [r0], #-0
     740:	3a0e0300 	bcc	381348 <_back_addr-0x117ecb8>
     744:	49053b0b 	stmdbmi	r5, {r0, r1, r3, r8, r9, fp, ip, sp}
     748:	000a1c13 	andeq	r1, sl, r3, lsl ip
     74c:	012e4100 	teqeq	lr, r0, lsl #2
     750:	0e03193f 	mcreq	9, 0, r1, cr3, cr15, {1}
     754:	053b0b3a 	ldreq	r0, [fp, #-2874]!	; 0xb3a
     758:	193c1349 	ldmdbne	ip!, {r0, r3, r6, r8, r9, ip}
     75c:	00001301 	andeq	r1, r0, r1, lsl #6
     760:	3f012e42 	svccc	0x00012e42
     764:	3a0e0319 	bcc	3813d0 <_back_addr-0x117ec30>
     768:	27053b0b 	strcs	r3, [r5, -fp, lsl #22]
     76c:	12011119 	andne	r1, r1, #1073741830	; 0x40000006
     770:	97184006 	ldrls	r4, [r8, -r6]
     774:	13011942 	movwne	r1, #6466	; 0x1942
     778:	34430000 	strbcc	r0, [r3], #-0
     77c:	3a0e0300 	bcc	381384 <_back_addr-0x117ec7c>
     780:	49053b0b 	stmdbmi	r5, {r0, r1, r3, r8, r9, fp, ip, sp}
     784:	3c193f13 	ldccc	15, cr3, [r9], {19}
     788:	44000019 	strmi	r0, [r0], #-25
     78c:	0e030034 	mcreq	0, 0, r0, cr3, cr4, {1}
     790:	0b3b0b3a 	bleq	ec3480 <_back_addr-0x63cb80>
     794:	193f1349 	ldmdbne	pc!, {r0, r3, r6, r8, r9, ip}	; <UNPREDICTABLE>
     798:	00001802 	andeq	r1, r0, r2, lsl #16
     79c:	3f012e45 	svccc	0x00012e45
     7a0:	3a0e0319 	bcc	38140c <_back_addr-0x117ebf4>
     7a4:	270b3b0b 	strcs	r3, [fp, -fp, lsl #22]
     7a8:	3c134919 	ldccc	9, cr4, [r3], {25}
     7ac:	00130119 	andseq	r0, r3, r9, lsl r1
     7b0:	00054600 	andeq	r4, r5, r0, lsl #12
     7b4:	00001349 	andeq	r1, r0, r9, asr #6
     7b8:	3f012e47 	svccc	0x00012e47
     7bc:	3a0e0319 	bcc	381428 <_back_addr-0x117ebd8>
     7c0:	27053b0b 	strcs	r3, [r5, -fp, lsl #22]
     7c4:	01193c19 	tsteq	r9, r9, lsl ip
     7c8:	48000013 	stmdami	r0, {r0, r1, r4}
     7cc:	193f012e 	ldmdbne	pc!, {r1, r2, r3, r5, r8}	; <UNPREDICTABLE>
     7d0:	0b3a0e03 	bleq	e83fe4 <_back_addr-0x67c01c>
     7d4:	1927053b 	stmdbne	r7!, {r0, r1, r3, r4, r5, r8, sl}
     7d8:	193c1349 	ldmdbne	ip!, {r0, r3, r6, r8, r9, ip}
     7dc:	00001301 	andeq	r1, r0, r1, lsl #6
     7e0:	01110100 	tsteq	r1, r0, lsl #2
     7e4:	0b130e25 	bleq	4c4080 <_back_addr-0x103bf80>
     7e8:	0e1b0e03 	cdpeq	14, 1, cr0, cr11, cr3, {0}
     7ec:	06120111 			; <UNDEFINED> instruction: 0x06120111
     7f0:	00001710 	andeq	r1, r0, r0, lsl r7
     7f4:	0b002402 	bleq	9804 <_back_addr-0x14f67fc>
     7f8:	030b3e0b 	movweq	r3, #48651	; 0xbe0b
     7fc:	0300000e 	movweq	r0, #14
     800:	0b0b0024 	bleq	2c0898 <_back_addr-0x123f768>
     804:	08030b3e 	stmdaeq	r3, {r1, r2, r3, r4, r5, r8, r9, fp}
     808:	16040000 	strne	r0, [r4], -r0
     80c:	3a0e0300 	bcc	381414 <_back_addr-0x117ebec>
     810:	490b3b0b 	stmdbmi	fp, {r0, r1, r3, r8, r9, fp, ip, sp}
     814:	05000013 	streq	r0, [r0, #-19]
     818:	0b0b000f 	bleq	2c085c <_back_addr-0x123f7a4>
     81c:	00001349 	andeq	r1, r0, r9, asr #6
     820:	49002606 	stmdbmi	r0, {r1, r2, r9, sl, sp}
     824:	07000013 	smladeq	r0, r3, r0, r0
     828:	0b0b0104 	bleq	2c0c40 <_back_addr-0x123f3c0>
     82c:	0b3b0b3a 	bleq	ec351c <_back_addr-0x63cae4>
     830:	00001301 	andeq	r1, r0, r1, lsl #6
     834:	03002808 	movweq	r2, #2056	; 0x808
     838:	000d1c0e 	andeq	r1, sp, lr, lsl #24
     83c:	012e0900 	teqeq	lr, r0, lsl #18
     840:	0803193f 	stmdaeq	r3, {r0, r1, r2, r3, r4, r5, r8, fp, ip}
     844:	053b0b3a 	ldreq	r0, [fp, #-2874]!	; 0xb3a
     848:	13491927 	movtne	r1, #39207	; 0x9927
     84c:	06120111 			; <UNDEFINED> instruction: 0x06120111
     850:	42971840 	addsmi	r1, r7, #64, 16	; 0x400000
     854:	00130119 	andseq	r0, r3, r9, lsl r1
     858:	00050a00 	andeq	r0, r5, r0, lsl #20
     85c:	0b3a0e03 	bleq	e84070 <_back_addr-0x67bf90>
     860:	1349053b 	movtne	r0, #38203	; 0x953b
     864:	00001702 	andeq	r1, r0, r2, lsl #14
     868:	0300050b 	movweq	r0, #1291	; 0x50b
     86c:	3b0b3a08 	blcc	2cf094 <_back_addr-0x1230f6c>
     870:	02134905 	andseq	r4, r3, #81920	; 0x14000
     874:	0c000017 	stceq	0, cr0, [r0], {23}
     878:	08030034 	stmdaeq	r3, {r2, r4, r5}
     87c:	053b0b3a 	ldreq	r0, [fp, #-2874]!	; 0xb3a
     880:	17021349 	strne	r1, [r2, -r9, asr #6]
     884:	340d0000 	strcc	r0, [sp], #-0
     888:	3a080300 	bcc	201490 <_back_addr-0x12feb70>
     88c:	49053b0b 	stmdbmi	r5, {r0, r1, r3, r8, r9, fp, ip, sp}
     890:	000b1c13 	andeq	r1, fp, r3, lsl ip
     894:	00340e00 	eorseq	r0, r4, r0, lsl #28
     898:	0b3a0803 	bleq	e828ac <_back_addr-0x67d754>
     89c:	1349053b 	movtne	r0, #38203	; 0x953b
     8a0:	00001802 	andeq	r1, r0, r2, lsl #16
     8a4:	3f012e0f 	svccc	0x00012e0f
     8a8:	3a0e0319 	bcc	381514 <_back_addr-0x117eaec>
     8ac:	490b3b0b 	stmdbmi	fp, {r0, r1, r3, r8, r9, fp, ip, sp}
     8b0:	01193c13 	tsteq	r9, r3, lsl ip
     8b4:	10000013 	andne	r0, r0, r3, lsl r0
     8b8:	00000018 	andeq	r0, r0, r8, lsl r0
     8bc:	11010b11 	tstne	r1, r1, lsl fp
     8c0:	01061201 	tsteq	r6, r1, lsl #4
     8c4:	12000013 	andne	r0, r0, #19
     8c8:	01018289 	smlabbeq	r1, r9, r2, r8
     8cc:	13310111 	teqne	r1, #1073741828	; 0x40000004
     8d0:	00001301 	andeq	r1, r0, r1, lsl #6
     8d4:	01828a13 	orreq	r8, r2, r3, lsl sl
     8d8:	91180200 	tstls	r8, r0, lsl #4
     8dc:	00001842 	andeq	r1, r0, r2, asr #16
     8e0:	01828914 	orreq	r8, r2, r4, lsl r9
     8e4:	31011101 	tstcc	r1, r1, lsl #2
     8e8:	15000013 	strne	r0, [r0, #-19]
     8ec:	13490101 	movtne	r0, #37121	; 0x9101
     8f0:	00001301 	andeq	r1, r0, r1, lsl #6
     8f4:	49002116 	stmdbmi	r0, {r1, r2, r4, r8, sp}
     8f8:	00052f13 	andeq	r2, r5, r3, lsl pc
     8fc:	00211700 	eoreq	r1, r1, r0, lsl #14
     900:	0b2f1349 	bleq	bc562c <_back_addr-0x93a9d4>
     904:	0a180000 	beq	60090c <_back_addr-0xeff6f4>
     908:	3a0e0300 	bcc	381510 <_back_addr-0x117eaf0>
     90c:	11053b0b 	tstne	r5, fp, lsl #22
     910:	19000001 	stmdbne	r0, {r0}
     914:	193f012e 	ldmdbne	pc!, {r1, r2, r3, r5, r8}	; <UNPREDICTABLE>
     918:	0b3a0e03 	bleq	e8412c <_back_addr-0x67bed4>
     91c:	1349053b 	movtne	r0, #38203	; 0x953b
     920:	1301193c 	movwne	r1, #6460	; 0x193c
     924:	891a0000 	ldmdbhi	sl, {}	; <UNPREDICTABLE>
     928:	11000182 	smlabbne	r0, r2, r1, r0
     92c:	00133101 	andseq	r3, r3, r1, lsl #2
     930:	012e1b00 	teqeq	lr, r0, lsl #22
     934:	0e03193f 	mcreq	9, 0, r1, cr3, cr15, {1}
     938:	0b3b0b3a 	bleq	ec3628 <_back_addr-0x63c9d8>
     93c:	13491927 	movtne	r1, #39207	; 0x9927
     940:	06120111 			; <UNDEFINED> instruction: 0x06120111
     944:	42971840 	addsmi	r1, r7, #64, 16	; 0x400000
     948:	00130119 	andseq	r0, r3, r9, lsl r1
     94c:	00051c00 	andeq	r1, r5, r0, lsl #24
     950:	0b3a0e03 	bleq	e84164 <_back_addr-0x67be9c>
     954:	13490b3b 	movtne	r0, #39739	; 0x9b3b
     958:	00001702 	andeq	r1, r0, r2, lsl #14
     95c:	0300051d 	movweq	r0, #1309	; 0x51d
     960:	3b0b3a0e 	blcc	2cf1a0 <_back_addr-0x1230e60>
     964:	0213490b 	andseq	r4, r3, #180224	; 0x2c000
     968:	1e000018 	mcrne	0, 0, r0, cr0, cr8, {0}
     96c:	08030005 	stmdaeq	r3, {r0, r2}
     970:	0b3b0b3a 	bleq	ec3660 <_back_addr-0x63c9a0>
     974:	17021349 	strne	r1, [r2, -r9, asr #6]
     978:	341f0000 	ldrcc	r0, [pc], #-0	; 980 <_back_addr-0x14ff680>
     97c:	3a080300 	bcc	201584 <_back_addr-0x12fea7c>
     980:	490b3b0b 	stmdbmi	fp, {r0, r1, r3, r8, r9, fp, ip, sp}
     984:	00170213 	andseq	r0, r7, r3, lsl r2
     988:	00342000 	eorseq	r2, r4, r0
     98c:	0b3a0803 	bleq	e829a0 <_back_addr-0x67d660>
     990:	13490b3b 	movtne	r0, #39739	; 0x9b3b
     994:	00001802 	andeq	r1, r0, r2, lsl #16
     998:	03003421 	movweq	r3, #1057	; 0x421
     99c:	3b0b3a08 	blcc	2cf1c4 <_back_addr-0x1230e3c>
     9a0:	1c13490b 	ldcne	9, cr4, [r3], {11}
     9a4:	2200000b 	andcs	r0, r0, #11
     9a8:	0e030034 	mcreq	0, 0, r0, cr3, cr4, {1}
     9ac:	0b3b0b3a 	bleq	ec369c <_back_addr-0x63c964>
     9b0:	18021349 	stmdane	r2, {r0, r3, r6, r8, r9, ip}
     9b4:	34230000 	strtcc	r0, [r3], #-0
     9b8:	3a0e0300 	bcc	3815c0 <_back_addr-0x117ea40>
     9bc:	490b3b0b 	stmdbmi	fp, {r0, r1, r3, r8, r9, fp, ip, sp}
     9c0:	00170213 	andseq	r0, r7, r3, lsl r2
     9c4:	00342400 	eorseq	r2, r4, r0, lsl #8
     9c8:	0b3a0e03 	bleq	e841dc <_back_addr-0x67be24>
     9cc:	13490b3b 	movtne	r0, #39739	; 0x9b3b
     9d0:	00000b1c 	andeq	r0, r0, ip, lsl fp
     9d4:	55010b25 	strpl	r0, [r1, #-2853]	; 0xb25
     9d8:	00130117 	andseq	r0, r3, r7, lsl r1
     9dc:	00352600 	eorseq	r2, r5, r0, lsl #12
     9e0:	00001349 	andeq	r1, r0, r9, asr #6
     9e4:	3f012e27 	svccc	0x00012e27
     9e8:	3a080319 	bcc	201654 <_back_addr-0x12fe9ac>
     9ec:	49053b0b 	stmdbmi	r5, {r0, r1, r3, r8, r9, fp, ip, sp}
     9f0:	12011113 	andne	r1, r1, #-1073741820	; 0xc0000004
     9f4:	97184006 	ldrls	r4, [r8, -r6]
     9f8:	13011942 	movwne	r1, #6466	; 0x1942
     9fc:	34280000 	strtcc	r0, [r8], #-0
     a00:	3a0e0300 	bcc	381608 <_back_addr-0x117e9f8>
     a04:	49053b0b 	stmdbmi	r5, {r0, r1, r3, r8, r9, fp, ip, sp}
     a08:	00180213 	andseq	r0, r8, r3, lsl r2
     a0c:	00342900 	eorseq	r2, r4, r0, lsl #18
     a10:	0b3a0e03 	bleq	e84224 <_back_addr-0x67bddc>
     a14:	1349053b 	movtne	r0, #38203	; 0x953b
     a18:	00000b1c 	andeq	r0, r0, ip, lsl fp
     a1c:	3f012e2a 	svccc	0x00012e2a
     a20:	3a0e0319 	bcc	38168c <_back_addr-0x117e974>
     a24:	49053b0b 	stmdbmi	r5, {r0, r1, r3, r8, r9, fp, ip, sp}
     a28:	12011113 	andne	r1, r1, #-1073741820	; 0xc0000004
     a2c:	97184006 	ldrls	r4, [r8, -r6]
     a30:	13011942 	movwne	r1, #6466	; 0x1942
     a34:	892b0000 	stmdbhi	fp!, {}	; <UNPREDICTABLE>
     a38:	11010182 	smlabbne	r1, r2, r1, r0
     a3c:	19429501 	stmdbne	r2, {r0, r8, sl, ip, pc}^
     a40:	00001331 	andeq	r1, r0, r1, lsr r3
     a44:	0300342c 	movweq	r3, #1068	; 0x42c
     a48:	3b0b3a0e 	blcc	2cf288 <_back_addr-0x1230d78>
     a4c:	3f13490b 	svccc	0x0013490b
     a50:	00193c19 	andseq	r3, r9, r9, lsl ip
     a54:	012e2d00 	teqeq	lr, r0, lsl #26
     a58:	0e03193f 	mcreq	9, 0, r1, cr3, cr15, {1}
     a5c:	0b3b0b3a 	bleq	ec374c <_back_addr-0x63c8b4>
     a60:	13491927 	movtne	r1, #39207	; 0x9927
     a64:	1301193c 	movwne	r1, #6460	; 0x193c
     a68:	052e0000 	streq	r0, [lr, #-0]!
     a6c:	00134900 	andseq	r4, r3, r0, lsl #18
     a70:	000f2f00 	andeq	r2, pc, r0, lsl #30
     a74:	00000b0b 	andeq	r0, r0, fp, lsl #22
     a78:	3f002e30 	svccc	0x00002e30
     a7c:	3a0e0319 	bcc	3816e8 <_back_addr-0x117e918>
     a80:	270b3b0b 	strcs	r3, [fp, -fp, lsl #22]
     a84:	00193c19 	andseq	r3, r9, r9, lsl ip
     a88:	012e3100 	teqeq	lr, r0, lsl #2
     a8c:	0e03193f 	mcreq	9, 0, r1, cr3, cr15, {1}
     a90:	0b3b0b3a 	bleq	ec3780 <_back_addr-0x63c880>
     a94:	193c1927 	ldmdbne	ip!, {r0, r1, r2, r5, r8, fp, ip}
     a98:	00001301 	andeq	r1, r0, r1, lsl #6
     a9c:	00002632 	andeq	r2, r0, r2, lsr r6
     aa0:	012e3300 	teqeq	lr, r0, lsl #6
     aa4:	0e03193f 	mcreq	9, 0, r1, cr3, cr15, {1}
     aa8:	0b3b0b3a 	bleq	ec3798 <_back_addr-0x63c868>
     aac:	13491927 	movtne	r1, #39207	; 0x9927
     ab0:	0000193c 	andeq	r1, r0, ip, lsr r9
     ab4:	01110100 	tsteq	r1, r0, lsl #2
     ab8:	0b130e25 	bleq	4c4354 <_back_addr-0x103bcac>
     abc:	0e1b0e03 	cdpeq	14, 1, cr0, cr11, cr3, {0}
     ac0:	06120111 			; <UNDEFINED> instruction: 0x06120111
     ac4:	00001710 	andeq	r1, r0, r0, lsl r7
     ac8:	03001602 	movweq	r1, #1538	; 0x602
     acc:	3b0b3a0e 	blcc	2cf30c <_back_addr-0x1230cf4>
     ad0:	0013490b 	andseq	r4, r3, fp, lsl #18
     ad4:	00240300 	eoreq	r0, r4, r0, lsl #6
     ad8:	0b3e0b0b 	bleq	f8370c <_back_addr-0x57c8f4>
     adc:	00000e03 	andeq	r0, r0, r3, lsl #28
     ae0:	0b002404 	bleq	9af8 <_back_addr-0x14f6508>
     ae4:	030b3e0b 	movweq	r3, #48651	; 0xbe0b
     ae8:	05000008 	streq	r0, [r0, #-8]
     aec:	193f012e 	ldmdbne	pc!, {r1, r2, r3, r5, r8}	; <UNPREDICTABLE>
     af0:	0b3a0e03 	bleq	e84304 <_back_addr-0x67bcfc>
     af4:	19270b3b 	stmdbne	r7!, {r0, r1, r3, r4, r5, r8, r9, fp}
     af8:	0b201349 	bleq	805824 <_back_addr-0xcfa7dc>
     afc:	00001301 	andeq	r1, r0, r1, lsl #6
     b00:	03000506 	movweq	r0, #1286	; 0x506
     b04:	3b0b3a0e 	blcc	2cf344 <_back_addr-0x1230cbc>
     b08:	0013490b 	andseq	r4, r3, fp, lsl #18
     b0c:	00340700 	eorseq	r0, r4, r0, lsl #14
     b10:	0b3a0e03 	bleq	e84324 <_back_addr-0x67bcdc>
     b14:	13490b3b 	movtne	r0, #39739	; 0x9b3b
     b18:	2e080000 	cdpcs	0, 0, cr0, cr8, cr0, {0}
     b1c:	11133101 	tstne	r3, r1, lsl #2
     b20:	40061201 	andmi	r1, r6, r1, lsl #4
     b24:	19429718 	stmdbne	r2, {r3, r4, r8, r9, sl, ip, pc}^
     b28:	00001301 	andeq	r1, r0, r1, lsl #6
     b2c:	31000509 	tstcc	r0, r9, lsl #10
     b30:	00170213 	andseq	r0, r7, r3, lsl r2
     b34:	00050a00 	andeq	r0, r5, r0, lsl #20
     b38:	18021331 	stmdane	r2, {r0, r4, r5, r8, r9, ip}
     b3c:	0b0b0000 	bleq	2c0b44 <_back_addr-0x123f4bc>
     b40:	00175501 	andseq	r5, r7, r1, lsl #10
     b44:	012e0c00 	teqeq	lr, r0, lsl #24
     b48:	0e03193f 	mcreq	9, 0, r1, cr3, cr15, {1}
     b4c:	0b3b0b3a 	bleq	ec383c <_back_addr-0x63c7c4>
     b50:	13491927 	movtne	r1, #39207	; 0x9927
     b54:	06120111 			; <UNDEFINED> instruction: 0x06120111
     b58:	42971840 	addsmi	r1, r7, #64, 16	; 0x400000
     b5c:	00130119 	andseq	r0, r3, r9, lsl r1
     b60:	00050d00 	andeq	r0, r5, r0, lsl #26
     b64:	0b3a0e03 	bleq	e84378 <_back_addr-0x67bc88>
     b68:	13490b3b 	movtne	r0, #39739	; 0x9b3b
     b6c:	00001702 	andeq	r1, r0, r2, lsl #14
     b70:	3100340e 	tstcc	r0, lr, lsl #8
     b74:	000b1c13 	andeq	r1, fp, r3, lsl ip
     b78:	010b0f00 	tsteq	fp, r0, lsl #30
     b7c:	06120111 			; <UNDEFINED> instruction: 0x06120111
     b80:	34100000 	ldrcc	r0, [r0], #-0
     b84:	00133100 	andseq	r3, r3, r0, lsl #2
     b88:	012e1100 	teqeq	lr, r0, lsl #2
     b8c:	0e03193f 	mcreq	9, 0, r1, cr3, cr15, {1}
     b90:	0b3b0b3a 	bleq	ec3880 <_back_addr-0x63c780>
     b94:	01111927 	tsteq	r1, r7, lsr #18
     b98:	18400612 	stmdane	r0, {r1, r4, r9, sl}^
     b9c:	01194297 			; <UNDEFINED> instruction: 0x01194297
     ba0:	12000013 	andne	r0, r0, #19
     ba4:	0e030034 	mcreq	0, 0, r0, cr3, cr4, {1}
     ba8:	0b3b0b3a 	bleq	ec3898 <_back_addr-0x63c768>
     bac:	17021349 	strne	r1, [r2, -r9, asr #6]
     bb0:	1d130000 	ldcne	0, cr0, [r3, #-0]
     bb4:	52133101 	andspl	r3, r3, #1073741824	; 0x40000000
     bb8:	58175501 	ldmdapl	r7, {r0, r8, sl, ip, lr}
     bbc:	010b590b 	tsteq	fp, fp, lsl #18
     bc0:	14000013 	strne	r0, [r0], #-19
     bc4:	13310005 	teqne	r1, #5
     bc8:	00000b1c 	andeq	r0, r0, ip, lsl fp
     bcc:	31011d15 	tstcc	r1, r5, lsl sp
     bd0:	55015213 	strpl	r5, [r1, #-531]	; 0x213
     bd4:	590b5817 	stmdbpl	fp, {r0, r1, r2, r4, fp, ip, lr}
     bd8:	1600000b 	strne	r0, [r0], -fp
     bdc:	193f012e 	ldmdbne	pc!, {r1, r2, r3, r5, r8}	; <UNPREDICTABLE>
     be0:	0b3a0e03 	bleq	e843f4 <_back_addr-0x67bc0c>
     be4:	19270b3b 	stmdbne	r7!, {r0, r1, r3, r4, r5, r8, r9, fp}
     be8:	06120111 			; <UNDEFINED> instruction: 0x06120111
     bec:	42971840 	addsmi	r1, r7, #64, 16	; 0x400000
     bf0:	00000019 	andeq	r0, r0, r9, lsl r0
     bf4:	25011101 	strcs	r1, [r1, #-257]	; 0x101
     bf8:	030b130e 	movweq	r1, #45838	; 0xb30e
     bfc:	110e1b0e 	tstne	lr, lr, lsl #22
     c00:	10061201 	andne	r1, r6, r1, lsl #4
     c04:	02000017 	andeq	r0, r0, #23
     c08:	0e030016 	mcreq	0, 0, r0, cr3, cr6, {0}
     c0c:	0b3b0b3a 	bleq	ec38fc <_back_addr-0x63c704>
     c10:	00001349 	andeq	r1, r0, r9, asr #6
     c14:	0b002403 	bleq	9c28 <_back_addr-0x14f63d8>
     c18:	030b3e0b 	movweq	r3, #48651	; 0xbe0b
     c1c:	0400000e 	streq	r0, [r0], #-14
     c20:	0b0b0024 	bleq	2c0cb8 <_back_addr-0x123f348>
     c24:	08030b3e 	stmdaeq	r3, {r1, r2, r3, r4, r5, r8, r9, fp}
     c28:	0f050000 	svceq	0x00050000
     c2c:	490b0b00 	stmdbmi	fp, {r8, r9, fp}
     c30:	06000013 			; <UNDEFINED> instruction: 0x06000013
     c34:	13490026 	movtne	r0, #36902	; 0x9026
     c38:	13070000 	movwne	r0, #28672	; 0x7000
     c3c:	3a0b0b01 	bcc	2c3848 <_back_addr-0x123c7b8>
     c40:	010b3b0b 	tsteq	fp, fp, lsl #22
     c44:	08000013 	stmdaeq	r0, {r0, r1, r4}
     c48:	0803000d 	stmdaeq	r3, {r0, r2, r3}
     c4c:	0b3b0b3a 	bleq	ec393c <_back_addr-0x63c6c4>
     c50:	0b0b1349 	bleq	2c597c <_back_addr-0x123a684>
     c54:	0b0c0b0d 	bleq	303890 <_back_addr-0x11fc770>
     c58:	00000b38 	andeq	r0, r0, r8, lsr fp
     c5c:	03000d09 	movweq	r0, #3337	; 0xd09
     c60:	3b0b3a0e 	blcc	2cf4a0 <_back_addr-0x1230b60>
     c64:	0b13490b 	bleq	4d3098 <_back_addr-0x102cf68>
     c68:	0c0b0d0b 	stceq	13, cr0, [fp], {11}
     c6c:	000b380b 	andeq	r3, fp, fp, lsl #16
     c70:	01170a00 	tsteq	r7, r0, lsl #20
     c74:	0b0b0e03 	bleq	2c4488 <_back_addr-0x123bb78>
     c78:	0b3b0b3a 	bleq	ec3968 <_back_addr-0x63c698>
     c7c:	00001301 	andeq	r1, r0, r1, lsl #6
     c80:	03000d0b 	movweq	r0, #3339	; 0xd0b
     c84:	3b0b3a0e 	blcc	2cf4c4 <_back_addr-0x1230b3c>
     c88:	0013490b 	andseq	r4, r3, fp, lsl #18
     c8c:	000d0c00 	andeq	r0, sp, r0, lsl #24
     c90:	0b3a0e03 	bleq	e844a4 <_back_addr-0x67bb5c>
     c94:	1349053b 	movtne	r0, #38203	; 0x953b
     c98:	160d0000 	strne	r0, [sp], -r0
     c9c:	3a0e0300 	bcc	3818a4 <_back_addr-0x117e75c>
     ca0:	49053b0b 	stmdbmi	r5, {r0, r1, r3, r8, r9, fp, ip, sp}
     ca4:	0e000013 	mcreq	0, 0, r0, cr0, cr3, {0}
     ca8:	0e030113 	mcreq	1, 0, r0, cr3, cr3, {0}
     cac:	0b3a0b0b 	bleq	e838e0 <_back_addr-0x67c720>
     cb0:	1301053b 	movwne	r0, #5435	; 0x153b
     cb4:	0d0f0000 	stceq	0, cr0, [pc, #-0]	; cbc <_back_addr-0x14ff344>
     cb8:	3a0e0300 	bcc	3818c0 <_back_addr-0x117e740>
     cbc:	49053b0b 	stmdbmi	r5, {r0, r1, r3, r8, r9, fp, ip, sp}
     cc0:	000b3813 	andeq	r3, fp, r3, lsl r8
     cc4:	012e1000 	teqeq	lr, r0
     cc8:	0b3a0e03 	bleq	e844dc <_back_addr-0x67bb24>
     ccc:	19270b3b 	stmdbne	r7!, {r0, r1, r3, r4, r5, r8, r9, fp}
     cd0:	13010b20 	movwne	r0, #6944	; 0x1b20
     cd4:	05110000 	ldreq	r0, [r1, #-0]
     cd8:	3a0e0300 	bcc	3818e0 <_back_addr-0x117e720>
     cdc:	490b3b0b 	stmdbmi	fp, {r0, r1, r3, r8, r9, fp, ip, sp}
     ce0:	12000013 	andne	r0, r0, #19
     ce4:	193f012e 	ldmdbne	pc!, {r1, r2, r3, r5, r8}	; <UNPREDICTABLE>
     ce8:	0b3a0e03 	bleq	e844fc <_back_addr-0x67bb04>
     cec:	19270b3b 	stmdbne	r7!, {r0, r1, r3, r4, r5, r8, r9, fp}
     cf0:	13010b20 	movwne	r0, #6944	; 0x1b20
     cf4:	05130000 	ldreq	r0, [r3, #-0]
     cf8:	3a080300 	bcc	201900 <_back_addr-0x12fe700>
     cfc:	490b3b0b 	stmdbmi	fp, {r0, r1, r3, r8, r9, fp, ip, sp}
     d00:	14000013 	strne	r0, [r0], #-19
     d04:	08030034 	stmdaeq	r3, {r2, r4, r5}
     d08:	0b3b0b3a 	bleq	ec39f8 <_back_addr-0x63c608>
     d0c:	00001349 	andeq	r1, r0, r9, asr #6
     d10:	0b000f15 	bleq	496c <_back_addr-0x14fb694>
     d14:	1600000b 	strne	r0, [r0], -fp
     d18:	193f002e 	ldmdbne	pc!, {r1, r2, r3, r5}	; <UNPREDICTABLE>
     d1c:	0b3a0e03 	bleq	e84530 <_back_addr-0x67bad0>
     d20:	19270b3b 	stmdbne	r7!, {r0, r1, r3, r4, r5, r8, r9, fp}
     d24:	06120111 			; <UNDEFINED> instruction: 0x06120111
     d28:	42971840 	addsmi	r1, r7, #64, 16	; 0x400000
     d2c:	17000019 	smladne	r0, r9, r0, r0
     d30:	193f012e 	ldmdbne	pc!, {r1, r2, r3, r5, r8}	; <UNPREDICTABLE>
     d34:	0b3a0e03 	bleq	e84548 <_back_addr-0x67bab8>
     d38:	19270b3b 	stmdbne	r7!, {r0, r1, r3, r4, r5, r8, r9, fp}
     d3c:	06120111 			; <UNDEFINED> instruction: 0x06120111
     d40:	42971840 	addsmi	r1, r7, #64, 16	; 0x400000
     d44:	00130119 	andseq	r0, r3, r9, lsl r1
     d48:	00341800 	eorseq	r1, r4, r0, lsl #16
     d4c:	0b3a0e03 	bleq	e84560 <_back_addr-0x67baa0>
     d50:	13490b3b 	movtne	r0, #39739	; 0x9b3b
     d54:	00001702 	andeq	r1, r0, r2, lsl #14
     d58:	03003419 	movweq	r3, #1049	; 0x419
     d5c:	3b0b3a0e 	blcc	2cf59c <_back_addr-0x1230a64>
     d60:	1c13490b 	ldcne	9, cr4, [r3], {11}
     d64:	1a000006 	bne	d84 <_back_addr-0x14ff27c>
     d68:	0e030005 	cdpeq	0, 0, cr0, cr3, cr5, {0}
     d6c:	0b3b0b3a 	bleq	ec3a5c <_back_addr-0x63c5a4>
     d70:	18021349 	stmdane	r2, {r0, r3, r6, r8, r9, ip}
     d74:	051b0000 	ldreq	r0, [fp, #-0]
     d78:	3a080300 	bcc	201980 <_back_addr-0x12fe680>
     d7c:	490b3b0b 	stmdbmi	fp, {r0, r1, r3, r8, r9, fp, ip, sp}
     d80:	00170213 	andseq	r0, r7, r3, lsl r2
     d84:	00341c00 	eorseq	r1, r4, r0, lsl #24
     d88:	0b3a0803 	bleq	e82d9c <_back_addr-0x67d264>
     d8c:	13490b3b 	movtne	r0, #39739	; 0x9b3b
     d90:	00001702 	andeq	r1, r0, r2, lsl #14
     d94:	31011d1d 	tstcc	r1, sp, lsl sp
     d98:	55015213 	strpl	r5, [r1, #-531]	; 0x213
     d9c:	590b5817 	stmdbpl	fp, {r0, r1, r2, r4, fp, ip, lr}
     da0:	0013010b 	andseq	r0, r3, fp, lsl #2
     da4:	00051e00 	andeq	r1, r5, r0, lsl #28
     da8:	00001331 	andeq	r1, r0, r1, lsr r3
     dac:	31011d1f 	tstcc	r1, pc, lsl sp
     db0:	12011113 	andne	r1, r1, #-1073741820	; 0xc0000004
     db4:	590b5806 	stmdbpl	fp, {r1, r2, fp, ip, lr}
     db8:	2000000b 	andcs	r0, r0, fp
     dbc:	13310005 	teqne	r1, #5
     dc0:	00001802 	andeq	r1, r0, r2, lsl #16
     dc4:	03000521 	movweq	r0, #1313	; 0x521
     dc8:	3b0b3a0e 	blcc	2cf608 <_back_addr-0x12309f8>
     dcc:	0213490b 	andseq	r4, r3, #180224	; 0x2c000
     dd0:	22000017 	andcs	r0, r0, #23
     dd4:	1755010b 	ldrbne	r0, [r5, -fp, lsl #2]
     dd8:	2e230000 	cdpcs	0, 2, cr0, cr3, cr0, {0}
     ddc:	03193f01 	tsteq	r9, #1, 30
     de0:	3b0b3a0e 	blcc	2cf620 <_back_addr-0x12309e0>
     de4:	3c13490b 	ldccc	9, cr4, [r3], {11}
     de8:	00130119 	andseq	r0, r3, r9, lsl r1
     dec:	00182400 	andseq	r2, r8, r0, lsl #8
     df0:	89250000 	stmdbhi	r5!, {}	; <UNPREDICTABLE>
     df4:	11010182 	smlabbne	r1, r2, r1, r0
     df8:	01133101 	tsteq	r3, r1, lsl #2
     dfc:	26000013 			; <UNDEFINED> instruction: 0x26000013
     e00:	0001828a 	andeq	r8, r1, sl, lsl #5
     e04:	42911802 	addsmi	r1, r1, #131072	; 0x20000
     e08:	27000018 	smladcs	r0, r8, r0, r0
     e0c:	01018289 	smlabbeq	r1, r9, r2, r8
     e10:	42950111 	addsmi	r0, r5, #1073741828	; 0x40000004
     e14:	00133119 	andseq	r3, r3, r9, lsl r1
     e18:	00352800 	eorseq	r2, r5, r0, lsl #16
     e1c:	00001349 	andeq	r1, r0, r9, asr #6
     e20:	03000529 	movweq	r0, #1321	; 0x529
     e24:	3b0b3a08 	blcc	2cf64c <_back_addr-0x12309b4>
     e28:	0213490b 	andseq	r4, r3, #180224	; 0x2c000
     e2c:	2a000018 	bcs	e94 <_back_addr-0x14ff16c>
     e30:	1331011d 	teqne	r1, #1073741831	; 0x40000007
     e34:	17550152 			; <UNDEFINED> instruction: 0x17550152
     e38:	0b590b58 	bleq	1643ba0 <__bss_end__+0x130188>
     e3c:	2e2b0000 	cdpcs	0, 2, cr0, cr11, cr0, {0}
     e40:	11133101 	tstne	r3, r1, lsl #2
     e44:	40061201 	andmi	r1, r6, r1, lsl #4
     e48:	19429718 	stmdbne	r2, {r3, r4, r8, r9, sl, ip, pc}^
     e4c:	00001301 	andeq	r1, r0, r1, lsl #6
     e50:	3100052c 	tstcc	r0, ip, lsr #10
     e54:	00170213 	andseq	r0, r7, r3, lsl r2
     e58:	012e2d00 	teqeq	lr, r0, lsl #26
     e5c:	0e03193f 	mcreq	9, 0, r1, cr3, cr15, {1}
     e60:	0b3b0b3a 	bleq	ec3b50 <_back_addr-0x63c4b0>
     e64:	13491927 	movtne	r1, #39207	; 0x9927
     e68:	06120111 			; <UNDEFINED> instruction: 0x06120111
     e6c:	42971840 	addsmi	r1, r7, #64, 16	; 0x400000
     e70:	00130119 	andseq	r0, r3, r9, lsl r1
     e74:	00342e00 	eorseq	r2, r4, r0, lsl #28
     e78:	0b3a0e03 	bleq	e8468c <_back_addr-0x67b974>
     e7c:	13490b3b 	movtne	r0, #39739	; 0x9b3b
     e80:	00001802 	andeq	r1, r0, r2, lsl #16
     e84:	0300342f 	movweq	r3, #1071	; 0x42f
     e88:	3413490e 	ldrcc	r4, [r3], #-2318	; 0x90e
     e8c:	00180219 	andseq	r0, r8, r9, lsl r2
     e90:	011d3000 	tsteq	sp, r0
     e94:	01111331 	tsteq	r1, r1, lsr r3
     e98:	0b580612 	bleq	16026e8 <__bss_end__+0xeecd0>
     e9c:	13010b59 	movwne	r0, #7001	; 0x1b59
     ea0:	89310000 	ldmdbhi	r1!, {}	; <UNPREDICTABLE>
     ea4:	11010182 	smlabbne	r1, r2, r1, r0
     ea8:	00133101 	andseq	r3, r3, r1, lsl #2
     eac:	82893200 	addhi	r3, r9, #0, 4
     eb0:	01110001 	tsteq	r1, r1
     eb4:	00001331 	andeq	r1, r0, r1, lsr r3
     eb8:	01828933 	orreq	r8, r2, r3, lsr r9
     ebc:	95011101 	strls	r1, [r1, #-257]	; 0x101
     ec0:	13311942 	teqne	r1, #1081344	; 0x108000
     ec4:	00001301 	andeq	r1, r0, r1, lsl #6
     ec8:	00002634 	andeq	r2, r0, r4, lsr r6
     ecc:	01013500 	tsteq	r1, r0, lsl #10
     ed0:	13011349 	movwne	r1, #4937	; 0x1349
     ed4:	21360000 	teqcs	r6, r0
     ed8:	2f134900 	svccs	0x00134900
     edc:	3700000b 	strcc	r0, [r0, -fp]
     ee0:	13310034 	teqne	r1, #52	; 0x34
     ee4:	00001702 	andeq	r1, r0, r2, lsl #14
     ee8:	03003438 	movweq	r3, #1080	; 0x438
     eec:	3b0b3a08 	blcc	2cf714 <_back_addr-0x12308ec>
     ef0:	0213490b 	andseq	r4, r3, #180224	; 0x2c000
     ef4:	39000018 	stmdbcc	r0, {r3, r4}
     ef8:	193f012e 	ldmdbne	pc!, {r1, r2, r3, r5, r8}	; <UNPREDICTABLE>
     efc:	0b3a0e03 	bleq	e84710 <_back_addr-0x67b8f0>
     f00:	1927053b 	stmdbne	r7!, {r0, r1, r3, r4, r5, r8, sl}
     f04:	01111349 	tsteq	r1, r9, asr #6
     f08:	18400612 	stmdane	r0, {r1, r4, r9, sl}^
     f0c:	01194297 			; <UNDEFINED> instruction: 0x01194297
     f10:	3a000013 	bcc	f64 <_back_addr-0x14ff09c>
     f14:	08030005 	stmdaeq	r3, {r0, r2}
     f18:	053b0b3a 	ldreq	r0, [fp, #-2874]!	; 0xb3a
     f1c:	17021349 	strne	r1, [r2, -r9, asr #6]
     f20:	053b0000 	ldreq	r0, [fp, #-0]!
     f24:	3a0e0300 	bcc	381b2c <_back_addr-0x117e4d4>
     f28:	49053b0b 	stmdbmi	r5, {r0, r1, r3, r8, r9, fp, ip, sp}
     f2c:	00170213 	andseq	r0, r7, r3, lsl r2
     f30:	00343c00 	eorseq	r3, r4, r0, lsl #24
     f34:	0b3a0803 	bleq	e82f48 <_back_addr-0x67d0b8>
     f38:	1349053b 	movtne	r0, #38203	; 0x953b
     f3c:	00001702 	andeq	r1, r0, r2, lsl #14
     f40:	3f002e3d 	svccc	0x00002e3d
     f44:	3a0e0319 	bcc	381bb0 <_back_addr-0x117e450>
     f48:	27053b0b 	strcs	r3, [r5, -fp, lsl #22]
     f4c:	12011119 	andne	r1, r1, #1073741830	; 0x40000006
     f50:	97184006 	ldrls	r4, [r8, -r6]
     f54:	00001942 	andeq	r1, r0, r2, asr #18
     f58:	3f012e3e 	svccc	0x00012e3e
     f5c:	3a0e0319 	bcc	381bc8 <_back_addr-0x117e438>
     f60:	490b3b0b 	stmdbmi	fp, {r0, r1, r3, r8, r9, fp, ip, sp}
     f64:	00193c13 	andseq	r3, r9, r3, lsl ip
     f68:	11010000 	mrsne	r0, (UNDEF: 1)
     f6c:	130e2501 	movwne	r2, #58625	; 0xe501
     f70:	1b0e030b 	blne	381ba4 <_back_addr-0x117e45c>
     f74:	1201110e 	andne	r1, r1, #-2147483645	; 0x80000003
     f78:	00171006 	andseq	r1, r7, r6
     f7c:	00240200 	eoreq	r0, r4, r0, lsl #4
     f80:	0b3e0b0b 	bleq	f83bb4 <_back_addr-0x57c44c>
     f84:	00000e03 	andeq	r0, r0, r3, lsl #28
     f88:	0b002403 	bleq	9f9c <_back_addr-0x14f6064>
     f8c:	030b3e0b 	movweq	r3, #48651	; 0xbe0b
     f90:	04000008 	streq	r0, [r0], #-8
     f94:	08030016 	stmdaeq	r3, {r1, r2, r4}
     f98:	0b3b0b3a 	bleq	ec3c88 <_back_addr-0x63c378>
     f9c:	00001349 	andeq	r1, r0, r9, asr #6
     fa0:	03010405 	movweq	r0, #5125	; 0x1405
     fa4:	3a0b0b0e 	bcc	2c3be4 <_back_addr-0x123c41c>
     fa8:	01053b0b 	tsteq	r5, fp, lsl #22
     fac:	06000013 			; <UNDEFINED> instruction: 0x06000013
     fb0:	0e030028 	cdpeq	0, 0, cr0, cr3, cr8, {1}
     fb4:	00000d1c 	andeq	r0, r0, ip, lsl sp
     fb8:	03012e07 	movweq	r2, #7687	; 0x1e07
     fbc:	3b0b3a0e 	blcc	2cf7fc <_back_addr-0x1230804>
     fc0:	2019270b 	andscs	r2, r9, fp, lsl #14
     fc4:	0013010b 	andseq	r0, r3, fp, lsl #2
     fc8:	00050800 	andeq	r0, r5, r0, lsl #16
     fcc:	0b3a0e03 	bleq	e847e0 <_back_addr-0x67b820>
     fd0:	13490b3b 	movtne	r0, #39739	; 0x9b3b
     fd4:	34090000 	strcc	r0, [r9], #-0
     fd8:	3a0e0300 	bcc	381be0 <_back_addr-0x117e420>
     fdc:	490b3b0b 	stmdbmi	fp, {r0, r1, r3, r8, r9, fp, ip, sp}
     fe0:	0a000013 	beq	1034 <_back_addr-0x14fefcc>
     fe4:	0e03012e 	adfeqsp	f0, f3, #0.5
     fe8:	0b3b0b3a 	bleq	ec3cd8 <_back_addr-0x63c328>
     fec:	13491927 	movtne	r1, #39207	; 0x9927
     ff0:	13010b20 	movwne	r0, #6944	; 0x1b20
     ff4:	050b0000 	streq	r0, [fp, #-0]
     ff8:	3a080300 	bcc	201c00 <_back_addr-0x12fe400>
     ffc:	490b3b0b 	stmdbmi	fp, {r0, r1, r3, r8, r9, fp, ip, sp}
    1000:	0c000013 	stceq	0, cr0, [r0], {19}
    1004:	08030034 	stmdaeq	r3, {r2, r4, r5}
    1008:	0b3b0b3a 	bleq	ec3cf8 <_back_addr-0x63c308>
    100c:	00001349 	andeq	r1, r0, r9, asr #6
    1010:	3f002e0d 	svccc	0x00002e0d
    1014:	3a0e0319 	bcc	381c80 <_back_addr-0x117e380>
    1018:	270b3b0b 	strcs	r3, [fp, -fp, lsl #22]
    101c:	000b2019 	andeq	r2, fp, r9, lsl r0
    1020:	002e0e00 	eoreq	r0, lr, r0, lsl #28
    1024:	0b3a0e03 	bleq	e84838 <_back_addr-0x67b7c8>
    1028:	19270b3b 	stmdbne	r7!, {r0, r1, r3, r4, r5, r8, r9, fp}
    102c:	00000b20 	andeq	r0, r0, r0, lsr #22
    1030:	03012e0f 	movweq	r2, #7695	; 0x1e0f
    1034:	3b0b3a0e 	blcc	2cf874 <_back_addr-0x123078c>
    1038:	1119270b 	tstne	r9, fp, lsl #14
    103c:	40061201 	andmi	r1, r6, r1, lsl #4
    1040:	19429718 	stmdbne	r2, {r3, r4, r8, r9, sl, ip, pc}^
    1044:	00001301 	andeq	r1, r0, r1, lsl #6
    1048:	03000510 	movweq	r0, #1296	; 0x510
    104c:	3b0b3a0e 	blcc	2cf88c <_back_addr-0x1230774>
    1050:	0213490b 	andseq	r4, r3, #180224	; 0x2c000
    1054:	11000018 	tstne	r0, r8, lsl r0
    1058:	0e030034 	mcreq	0, 0, r0, cr3, cr4, {1}
    105c:	0b3b0b3a 	bleq	ec3d4c <_back_addr-0x63c2b4>
    1060:	17021349 	strne	r1, [r2, -r9, asr #6]
    1064:	34120000 	ldrcc	r0, [r2], #-0
    1068:	3a0e0300 	bcc	381c70 <_back_addr-0x117e390>
    106c:	490b3b0b 	stmdbmi	fp, {r0, r1, r3, r8, r9, fp, ip, sp}
    1070:	00180213 	andseq	r0, r8, r3, lsl r2
    1074:	011d1300 	tsteq	sp, r0, lsl #6
    1078:	01111331 	tsteq	r1, r1, lsr r3
    107c:	0b580612 	bleq	16028cc <__bss_end__+0xeeeb4>
    1080:	13010b59 	movwne	r0, #7001	; 0x1b59
    1084:	0b140000 	bleq	50108c <_back_addr-0xffef74>
    1088:	12011101 	andne	r1, r1, #1073741824	; 0x40000000
    108c:	15000006 	strne	r0, [r0, #-6]
    1090:	13310034 	teqne	r1, #52	; 0x34
    1094:	00001802 	andeq	r1, r0, r2, lsl #16
    1098:	31011d16 	tstcc	r1, r6, lsl sp
    109c:	55015213 	strpl	r5, [r1, #-531]	; 0x213
    10a0:	590b5817 	stmdbpl	fp, {r0, r1, r2, r4, fp, ip, lr}
    10a4:	1700000b 	strne	r0, [r0, -fp]
    10a8:	13310005 	teqne	r1, #5
    10ac:	05180000 	ldreq	r0, [r8, #-0]
    10b0:	02133100 	andseq	r3, r3, #0, 2
    10b4:	19000017 	stmdbne	r0, {r0, r1, r2, r4}
    10b8:	1755010b 	ldrbne	r0, [r5, -fp, lsl #2]
    10bc:	341a0000 	ldrcc	r0, [sl], #-0
    10c0:	00133100 	andseq	r3, r3, r0, lsl #2
    10c4:	00341b00 	eorseq	r1, r4, r0, lsl #22
    10c8:	17021331 	smladxne	r2, r1, r3, r1
    10cc:	1d1c0000 	ldcne	0, cr0, [ip, #-0]
    10d0:	52133101 	andspl	r3, r3, #1073741824	; 0x40000000
    10d4:	58175501 	ldmdapl	r7, {r0, r8, sl, ip, lr}
    10d8:	010b590b 	tsteq	fp, fp, lsl #18
    10dc:	1d000013 	stcne	0, cr0, [r0, #-76]	; 0xffffffb4
    10e0:	1331011d 	teqne	r1, #1073741831	; 0x40000007
    10e4:	06120111 			; <UNDEFINED> instruction: 0x06120111
    10e8:	0b590b58 	bleq	1643e50 <__bss_end__+0x130438>
    10ec:	2e1e0000 	cdpcs	0, 1, cr0, cr14, cr0, {0}
    10f0:	03193f00 	tsteq	r9, #0, 30
    10f4:	3b0b3a0e 	blcc	2cf934 <_back_addr-0x12306cc>
    10f8:	11192705 	tstne	r9, r5, lsl #14
    10fc:	40061201 	andmi	r1, r6, r1, lsl #4
    1100:	19429718 	stmdbne	r2, {r3, r4, r8, r9, sl, ip, pc}^
    1104:	2e1f0000 	cdpcs	0, 1, cr0, cr15, cr0, {0}
    1108:	03193f01 	tsteq	r9, #1, 30
    110c:	3b0b3a0e 	blcc	2cf94c <_back_addr-0x12306b4>
    1110:	11192705 	tstne	r9, r5, lsl #14
    1114:	40061201 	andmi	r1, r6, r1, lsl #4
    1118:	19429718 	stmdbne	r2, {r3, r4, r8, r9, sl, ip, pc}^
    111c:	00001301 	andeq	r1, r0, r1, lsl #6
    1120:	01828920 	orreq	r8, r2, r0, lsr #18
    1124:	31011101 	tstcc	r1, r1, lsl #2
    1128:	00130113 	andseq	r0, r3, r3, lsl r1
    112c:	828a2100 	addhi	r2, sl, #0, 2
    1130:	18020001 	stmdane	r2, {r0}
    1134:	00184291 	mulseq	r8, r1, r2
    1138:	82892200 	addhi	r2, r9, #0, 4
    113c:	01110001 	tsteq	r1, r1
    1140:	00194295 	mulseq	r9, r5, r2
    1144:	012e2300 	teqeq	lr, r0, lsl #6
    1148:	01111331 	tsteq	r1, r1, lsr r3
    114c:	18400612 	stmdane	r0, {r1, r4, r9, sl}^
    1150:	01194297 			; <UNDEFINED> instruction: 0x01194297
    1154:	24000013 	strcs	r0, [r0], #-19
    1158:	1331011d 	teqne	r1, #1073741831	; 0x40000007
    115c:	06120111 			; <UNDEFINED> instruction: 0x06120111
    1160:	05590b58 	ldrbeq	r0, [r9, #-2904]	; 0xb58
    1164:	00001301 	andeq	r1, r0, r1, lsl #6
    1168:	01828925 	orreq	r8, r2, r5, lsr #18
    116c:	00011100 	andeq	r1, r1, r0, lsl #2
    1170:	001d2600 	andseq	r2, sp, r0, lsl #12
    1174:	01111331 	tsteq	r1, r1, lsr r3
    1178:	0b580612 	bleq	16029c8 <__bss_end__+0xeefb0>
    117c:	00000559 	andeq	r0, r0, r9, asr r5
    1180:	03000527 	movweq	r0, #1319	; 0x527
    1184:	3b0b3a0e 	blcc	2cf9c4 <_back_addr-0x123063c>
    1188:	02134905 	andseq	r4, r3, #81920	; 0x14000
    118c:	28000018 	stmdacs	r0, {r3, r4}
    1190:	08030005 	stmdaeq	r3, {r0, r2}
    1194:	053b0b3a 	ldreq	r0, [fp, #-2874]!	; 0xb3a
    1198:	18021349 	stmdane	r2, {r0, r3, r6, r8, r9, ip}
    119c:	05290000 	streq	r0, [r9, #-0]!
    11a0:	3a0e0300 	bcc	381da8 <_back_addr-0x117e258>
    11a4:	49053b0b 	stmdbmi	r5, {r0, r1, r3, r8, r9, fp, ip, sp}
    11a8:	00170213 	andseq	r0, r7, r3, lsl r2
    11ac:	00052a00 	andeq	r2, r5, r0, lsl #20
    11b0:	0b1c1331 	bleq	705e7c <_back_addr-0xdfa184>
    11b4:	892b0000 	stmdbhi	fp!, {}	; <UNPREDICTABLE>
    11b8:	11010182 	smlabbne	r1, r2, r1, r0
    11bc:	19429501 	stmdbne	r2, {r0, r8, sl, ip, pc}^
    11c0:	00001331 	andeq	r1, r0, r1, lsr r3
    11c4:	0300342c 	movweq	r3, #1068	; 0x42c
    11c8:	3b0b3a0e 	blcc	2cfa08 <_back_addr-0x12305f8>
    11cc:	3f134905 	svccc	0x00134905
    11d0:	00193c19 	andseq	r3, r9, r9, lsl ip
    11d4:	11010000 	mrsne	r0, (UNDEF: 1)
    11d8:	130e2501 	movwne	r2, #58625	; 0xe501
    11dc:	1b0e030b 	blne	381e10 <_back_addr-0x117e1f0>
    11e0:	1201110e 	andne	r1, r1, #-2147483645	; 0x80000003
    11e4:	00171006 	andseq	r1, r7, r6
    11e8:	00240200 	eoreq	r0, r4, r0, lsl #4
    11ec:	0b3e0b0b 	bleq	f83e20 <_back_addr-0x57c1e0>
    11f0:	00000e03 	andeq	r0, r0, r3, lsl #28
    11f4:	0b010403 	bleq	42208 <_back_addr-0x14bddf8>
    11f8:	3b0b3a0b 	blcc	2cfa2c <_back_addr-0x12305d4>
    11fc:	0013010b 	andseq	r0, r3, fp, lsl #2
    1200:	00280400 	eoreq	r0, r8, r0, lsl #8
    1204:	0d1c0e03 	ldceq	14, cr0, [ip, #-12]
    1208:	16050000 	strne	r0, [r5], -r0
    120c:	3a0e0300 	bcc	381e14 <_back_addr-0x117e1ec>
    1210:	490b3b0b 	stmdbmi	fp, {r0, r1, r3, r8, r9, fp, ip, sp}
    1214:	06000013 			; <UNDEFINED> instruction: 0x06000013
    1218:	0b0b0024 	bleq	2c12b0 <_back_addr-0x123ed50>
    121c:	08030b3e 	stmdaeq	r3, {r1, r2, r3, r4, r5, r8, r9, fp}
    1220:	04070000 	streq	r0, [r7], #-0
    1224:	0b0e0301 	bleq	381e30 <_back_addr-0x117e1d0>
    1228:	3b0b3a0b 	blcc	2cfa5c <_back_addr-0x12305a4>
    122c:	0013010b 	andseq	r0, r3, fp, lsl #2
    1230:	012e0800 	teqeq	lr, r0, lsl #16
    1234:	0b3a0e03 	bleq	e84a48 <_back_addr-0x67b5b8>
    1238:	19270b3b 	stmdbne	r7!, {r0, r1, r3, r4, r5, r8, r9, fp}
    123c:	0b201349 	bleq	805f68 <_back_addr-0xcfa098>
    1240:	00001301 	andeq	r1, r0, r1, lsl #6
    1244:	03000509 	movweq	r0, #1289	; 0x509
    1248:	3b0b3a0e 	blcc	2cfa88 <_back_addr-0x1230578>
    124c:	0013490b 	andseq	r4, r3, fp, lsl #18
    1250:	012e0a00 	teqeq	lr, r0, lsl #20
    1254:	0b3a0e03 	bleq	e84a68 <_back_addr-0x67b598>
    1258:	19270b3b 	stmdbne	r7!, {r0, r1, r3, r4, r5, r8, r9, fp}
    125c:	13010b20 	movwne	r0, #6944	; 0x1b20
    1260:	050b0000 	streq	r0, [fp, #-0]
    1264:	3a080300 	bcc	201e6c <_back_addr-0x12fe194>
    1268:	490b3b0b 	stmdbmi	fp, {r0, r1, r3, r8, r9, fp, ip, sp}
    126c:	0c000013 	stceq	0, cr0, [r0], {19}
    1270:	193f012e 	ldmdbne	pc!, {r1, r2, r3, r5, r8}	; <UNPREDICTABLE>
    1274:	0b3a0e03 	bleq	e84a88 <_back_addr-0x67b578>
    1278:	1927053b 	stmdbne	r7!, {r0, r1, r3, r4, r5, r8, sl}
    127c:	0b201349 	bleq	805fa8 <_back_addr-0xcfa058>
    1280:	00001301 	andeq	r1, r0, r1, lsl #6
    1284:	0300050d 	movweq	r0, #1293	; 0x50d
    1288:	3b0b3a0e 	blcc	2cfac8 <_back_addr-0x1230538>
    128c:	00134905 	andseq	r4, r3, r5, lsl #18
    1290:	012e0e00 	teqeq	lr, r0, lsl #28
    1294:	0e03193f 	mcreq	9, 0, r1, cr3, cr15, {1}
    1298:	0b3b0b3a 	bleq	ec3f88 <_back_addr-0x63c078>
    129c:	193c1349 	ldmdbne	ip!, {r0, r3, r6, r8, r9, ip}
    12a0:	00001301 	andeq	r1, r0, r1, lsl #6
    12a4:	0000180f 	andeq	r1, r0, pc, lsl #16
    12a8:	010b1000 	mrseq	r1, (UNDEF: 11)
    12ac:	00001301 	andeq	r1, r0, r1, lsl #6
    12b0:	3f012e11 	svccc	0x00012e11
    12b4:	3a0e0319 	bcc	381f20 <_back_addr-0x117e0e0>
    12b8:	490b3b0b 	stmdbmi	fp, {r0, r1, r3, r8, r9, fp, ip, sp}
    12bc:	00193c13 	andseq	r3, r9, r3, lsl ip
    12c0:	012e1200 	teqeq	lr, r0, lsl #4
    12c4:	0e03193f 	mcreq	9, 0, r1, cr3, cr15, {1}
    12c8:	0b3b0b3a 	bleq	ec3fb8 <_back_addr-0x63c048>
    12cc:	0b201349 	bleq	805ff8 <_back_addr-0xcfa008>
    12d0:	0b130000 	bleq	4c12d8 <_back_addr-0x103ed28>
    12d4:	14000001 	strne	r0, [r0], #-1
    12d8:	193f012e 	ldmdbne	pc!, {r1, r2, r3, r5, r8}	; <UNPREDICTABLE>
    12dc:	0b3a0e03 	bleq	e84af0 <_back_addr-0x67b510>
    12e0:	19270b3b 	stmdbne	r7!, {r0, r1, r3, r4, r5, r8, r9, fp}
    12e4:	01111349 	tsteq	r1, r9, asr #6
    12e8:	18400612 	stmdane	r0, {r1, r4, r9, sl}^
    12ec:	01194297 			; <UNDEFINED> instruction: 0x01194297
    12f0:	15000013 	strne	r0, [r0, #-19]
    12f4:	0e030005 	cdpeq	0, 0, cr0, cr3, cr5, {0}
    12f8:	0b3b0b3a 	bleq	ec3fe8 <_back_addr-0x63c018>
    12fc:	17021349 	strne	r1, [r2, -r9, asr #6]
    1300:	05160000 	ldreq	r0, [r6, #-0]
    1304:	3a0e0300 	bcc	381f0c <_back_addr-0x117e0f4>
    1308:	490b3b0b 	stmdbmi	fp, {r0, r1, r3, r8, r9, fp, ip, sp}
    130c:	00180213 	andseq	r0, r8, r3, lsl r2
    1310:	01171700 	tsteq	r7, r0, lsl #14
    1314:	0b0b0e03 	bleq	2c4b28 <_back_addr-0x123b4d8>
    1318:	0b3b0b3a 	bleq	ec4008 <_back_addr-0x63bff8>
    131c:	00001301 	andeq	r1, r0, r1, lsl #6
    1320:	03000d18 	movweq	r0, #3352	; 0xd18
    1324:	3b0b3a08 	blcc	2cfb4c <_back_addr-0x12304b4>
    1328:	0013490b 	andseq	r4, r3, fp, lsl #18
    132c:	00341900 	eorseq	r1, r4, r0, lsl #18
    1330:	0b3a0803 	bleq	e83344 <_back_addr-0x67ccbc>
    1334:	13490b3b 	movtne	r0, #39739	; 0x9b3b
    1338:	00001802 	andeq	r1, r0, r2, lsl #16
    133c:	0300341a 	movweq	r3, #1050	; 0x41a
    1340:	3b0b3a08 	blcc	2cfb68 <_back_addr-0x1230498>
    1344:	0213490b 	andseq	r4, r3, #180224	; 0x2c000
    1348:	1b000017 	blne	13ac <_back_addr-0x14fec54>
    134c:	1755010b 	ldrbne	r0, [r5, -fp, lsl #2]
    1350:	0b1c0000 	bleq	701358 <_back_addr-0xdfeca8>
    1354:	01175501 	tsteq	r7, r1, lsl #10
    1358:	1d000013 	stcne	0, cr0, [r0, #-76]	; 0xffffffb4
    135c:	00018289 	andeq	r8, r1, r9, lsl #5
    1360:	13310111 	teqne	r1, #1073741828	; 0x40000004
    1364:	891e0000 	ldmdbhi	lr, {}	; <UNPREDICTABLE>
    1368:	11010182 	smlabbne	r1, r2, r1, r0
    136c:	00133101 	andseq	r3, r3, r1, lsl #2
    1370:	828a1f00 	addhi	r1, sl, #0, 30
    1374:	18020001 	stmdane	r2, {r0}
    1378:	00184291 	mulseq	r8, r1, r2
    137c:	82892000 	addhi	r2, r9, #0
    1380:	01110101 	tsteq	r1, r1, lsl #2
    1384:	13011331 	movwne	r1, #4913	; 0x1331
    1388:	0f210000 	svceq	0x00210000
    138c:	000b0b00 	andeq	r0, fp, r0, lsl #22
    1390:	01012200 	mrseq	r2, R9_usr
    1394:	13011349 	movwne	r1, #4937	; 0x1349
    1398:	21230000 	teqcs	r3, r0
    139c:	2f134900 	svccs	0x00134900
    13a0:	2400000b 	strcs	r0, [r0], #-11
    13a4:	193f012e 	ldmdbne	pc!, {r1, r2, r3, r5, r8}	; <UNPREDICTABLE>
    13a8:	0b3a0e03 	bleq	e84bbc <_back_addr-0x67b444>
    13ac:	1927053b 	stmdbne	r7!, {r0, r1, r3, r4, r5, r8, sl}
    13b0:	01111349 	tsteq	r1, r9, asr #6
    13b4:	18400612 	stmdane	r0, {r1, r4, r9, sl}^
    13b8:	01194297 			; <UNDEFINED> instruction: 0x01194297
    13bc:	25000013 	strcs	r0, [r0, #-19]
    13c0:	193f012e 	ldmdbne	pc!, {r1, r2, r3, r5, r8}	; <UNPREDICTABLE>
    13c4:	0b3a0803 	bleq	e833d8 <_back_addr-0x67cc28>
    13c8:	1349053b 	movtne	r0, #38203	; 0x953b
    13cc:	1301193c 	movwne	r1, #6460	; 0x193c
    13d0:	2e260000 	cdpcs	0, 2, cr0, cr6, cr0, {0}
    13d4:	03193f01 	tsteq	r9, #1, 30
    13d8:	3b0b3a0e 	blcc	2cfc18 <_back_addr-0x12303e8>
    13dc:	3c134905 	ldccc	9, cr4, [r3], {5}
    13e0:	00130119 	andseq	r0, r3, r9, lsl r1
    13e4:	82892700 	addhi	r2, r9, #0, 14
    13e8:	01110001 	tsteq	r1, r1
    13ec:	31194295 			; <UNDEFINED> instruction: 0x31194295
    13f0:	28000013 	stmdacs	r0, {r0, r1, r4}
    13f4:	08030034 	stmdaeq	r3, {r2, r4, r5}
    13f8:	053b0b3a 	ldreq	r0, [fp, #-2874]!	; 0xb3a
    13fc:	00001349 	andeq	r1, r0, r9, asr #6
    1400:	03003429 	movweq	r3, #1065	; 0x429
    1404:	3b0b3a08 	blcc	2cfc2c <_back_addr-0x12303d4>
    1408:	02134905 	andseq	r4, r3, #81920	; 0x14000
    140c:	2a000017 	bcs	1470 <_back_addr-0x14feb90>
    1410:	0e030005 	cdpeq	0, 0, cr0, cr3, cr5, {0}
    1414:	053b0b3a 	ldreq	r0, [fp, #-2874]!	; 0xb3a
    1418:	17021349 	strne	r1, [r2, -r9, asr #6]
    141c:	342b0000 	strtcc	r0, [fp], #-0
    1420:	3a0e0300 	bcc	382028 <_back_addr-0x117dfd8>
    1424:	49053b0b 	stmdbmi	r5, {r0, r1, r3, r8, r9, fp, ip, sp}
    1428:	00170213 	andseq	r0, r7, r3, lsl r2
    142c:	011d2c00 	tsteq	sp, r0, lsl #24
    1430:	01111331 	tsteq	r1, r1, lsr r3
    1434:	0b580612 	bleq	1602c84 <__bss_end__+0xef26c>
    1438:	00000559 	andeq	r0, r0, r9, asr r5
    143c:	3100052d 	tstcc	r0, sp, lsr #10
    1440:	00170213 	andseq	r0, r7, r3, lsl r2
    1444:	010b2e00 	tsteq	fp, r0, lsl #28
    1448:	06120111 			; <UNDEFINED> instruction: 0x06120111
    144c:	1d2f0000 	stcne	0, cr0, [pc, #-0]	; 1454 <_back_addr-0x14febac>
    1450:	52133101 	andspl	r3, r3, #1073741824	; 0x40000000
    1454:	58175501 	ldmdapl	r7, {r0, r8, sl, ip, lr}
    1458:	0105590b 	tsteq	r5, fp, lsl #18
    145c:	30000013 	andcc	r0, r0, r3, lsl r0
    1460:	13310005 	teqne	r1, #5
    1464:	00000d1c 	andeq	r0, r0, ip, lsl sp
    1468:	31011d31 	tstcc	r1, r1, lsr sp
    146c:	12011113 	andne	r1, r1, #-1073741820	; 0xc0000004
    1470:	590b5806 	stmdbpl	fp, {r1, r2, fp, ip, lr}
    1474:	00130105 	andseq	r0, r3, r5, lsl #2
    1478:	012e3200 	teqeq	lr, r0, lsl #4
    147c:	0e03193f 	mcreq	9, 0, r1, cr3, cr15, {1}
    1480:	053b0b3a 	ldreq	r0, [fp, #-2874]!	; 0xb3a
    1484:	01111349 	tsteq	r1, r9, asr #6
    1488:	18400612 	stmdane	r0, {r1, r4, r9, sl}^
    148c:	01194297 			; <UNDEFINED> instruction: 0x01194297
    1490:	33000013 	movwcc	r0, #19
    1494:	0e030034 	mcreq	0, 0, r0, cr3, cr4, {1}
    1498:	053b0b3a 	ldreq	r0, [fp, #-2874]!	; 0xb3a
    149c:	061c1349 	ldreq	r1, [ip], -r9, asr #6
    14a0:	05340000 	ldreq	r0, [r4, #-0]!
    14a4:	1c133100 	ldfnes	f3, [r3], {-0}
    14a8:	35000006 	strcc	r0, [r0, #-6]
    14ac:	0e030034 	mcreq	0, 0, r0, cr3, cr4, {1}
    14b0:	0b3b0b3a 	bleq	ec41a0 <_back_addr-0x63be60>
    14b4:	17021349 	strne	r1, [r2, -r9, asr #6]
    14b8:	0f360000 	svceq	0x00360000
    14bc:	490b0b00 	stmdbmi	fp, {r8, r9, fp}
    14c0:	37000013 	smladcc	r0, r3, r0, r0
    14c4:	1331012e 	teqne	r1, #-2147483637	; 0x8000000b
    14c8:	06120111 			; <UNDEFINED> instruction: 0x06120111
    14cc:	42971840 	addsmi	r1, r7, #64, 16	; 0x400000
    14d0:	00130119 	andseq	r0, r3, r9, lsl r1
    14d4:	012e3800 	teqeq	lr, r0, lsl #16
    14d8:	0b201347 	bleq	8061fc <_back_addr-0xcf9e04>
    14dc:	00001301 	andeq	r1, r0, r1, lsl #6
    14e0:	11010b39 	tstne	r1, r9, lsr fp
    14e4:	01061201 	tsteq	r6, r1, lsl #4
    14e8:	3a000013 	bcc	153c <_back_addr-0x14feac4>
    14ec:	1347012e 	movtne	r0, #28974	; 0x712e
    14f0:	1301193c 	movwne	r1, #6460	; 0x193c
    14f4:	053b0000 	ldreq	r0, [fp, #-0]!
    14f8:	3a080300 	bcc	202100 <_back_addr-0x12fdf00>
    14fc:	49053b0b 	stmdbmi	r5, {r0, r1, r3, r8, r9, fp, ip, sp}
    1500:	00170213 	andseq	r0, r7, r3, lsl r2
    1504:	00343c00 	eorseq	r3, r4, r0, lsl #24
    1508:	0b3a0803 	bleq	e8351c <_back_addr-0x67cae4>
    150c:	1349053b 	movtne	r0, #38203	; 0x953b
    1510:	00000b1c 	andeq	r0, r0, ip, lsl fp
    1514:	31011d3d 	tstcc	r1, sp, lsr sp
    1518:	55015213 	strpl	r5, [r1, #-531]	; 0x213
    151c:	590b5817 	stmdbpl	fp, {r0, r1, r2, r4, fp, ip, lr}
    1520:	3e000005 	cdpcc	0, 0, cr0, cr0, cr5, {0}
    1524:	08030005 	stmdaeq	r3, {r0, r2}
    1528:	053b0b3a 	ldreq	r0, [fp, #-2874]!	; 0xb3a
    152c:	18021349 	stmdane	r2, {r0, r3, r6, r8, r9, ip}
    1530:	343f0000 	ldrtcc	r0, [pc], #-0	; 1538 <_back_addr-0x14feac8>
    1534:	3a080300 	bcc	20213c <_back_addr-0x12fdec4>
    1538:	49053b0b 	stmdbmi	r5, {r0, r1, r3, r8, r9, fp, ip, sp}
    153c:	000d1c13 	andeq	r1, sp, r3, lsl ip
    1540:	00344000 	eorseq	r4, r4, r0
    1544:	0b3a0e03 	bleq	e84d58 <_back_addr-0x67b2a8>
    1548:	1349053b 	movtne	r0, #38203	; 0x953b
    154c:	00000b1c 	andeq	r0, r0, ip, lsl fp
    1550:	31000541 	tstcc	r0, r1, asr #10
    1554:	42000013 	andmi	r0, r0, #19
    1558:	0e030034 	mcreq	0, 0, r0, cr3, cr4, {1}
    155c:	0b3b0b3a 	bleq	ec424c <_back_addr-0x63bdb4>
    1560:	18021349 	stmdane	r2, {r0, r3, r6, r8, r9, ip}
    1564:	21430000 	mrscs	r0, (UNDEF: 67)
    1568:	44000000 	strmi	r0, [r0], #-0
    156c:	0e030034 	mcreq	0, 0, r0, cr3, cr4, {1}
    1570:	0b3b0b3a 	bleq	ec4260 <_back_addr-0x63bda0>
    1574:	193f1349 	ldmdbne	pc!, {r0, r3, r6, r8, r9, ip}	; <UNPREDICTABLE>
    1578:	0000193c 	andeq	r1, r0, ip, lsr r9
    157c:	49002645 	stmdbmi	r0, {r0, r2, r6, r9, sl, sp}
    1580:	46000013 			; <UNDEFINED> instruction: 0x46000013
    1584:	0e030034 	mcreq	0, 0, r0, cr3, cr4, {1}
    1588:	053b0b3a 	ldreq	r0, [fp, #-2874]!	; 0xb3a
    158c:	193f1349 	ldmdbne	pc!, {r0, r3, r6, r8, r9, ip}	; <UNPREDICTABLE>
    1590:	00001802 	andeq	r1, r0, r2, lsl #16
    1594:	3f012e47 	svccc	0x00012e47
    1598:	3a0e0319 	bcc	382204 <_back_addr-0x117ddfc>
    159c:	270b3b0b 	strcs	r3, [fp, -fp, lsl #22]
    15a0:	00193c19 	andseq	r3, r9, r9, lsl ip
    15a4:	00054800 	andeq	r4, r5, r0, lsl #16
    15a8:	00001349 	andeq	r1, r0, r9, asr #6
	...

Disassembly of section .debug_line:

00000000 <.debug_line>:
       0:	0000004c 	andeq	r0, r0, ip, asr #32
       4:	001e0002 	andseq	r0, lr, r2
       8:	01020000 	mrseq	r0, (UNDEF: 2)
       c:	000d0efb 	strdeq	r0, [sp], -fp
      10:	01010101 	tsteq	r1, r1, lsl #2
      14:	01000000 	mrseq	r0, (UNDEF: 0)
      18:	00010000 	andeq	r0, r1, r0
      1c:	72617473 	rsbvc	r7, r1, #1929379840	; 0x73000000
      20:	00532e74 	subseq	r2, r3, r4, ror lr
      24:	00000000 	andeq	r0, r0, r0
      28:	0c020500 	cfstr32eq	mvfx0, [r2], {-0}
      2c:	03015000 	movweq	r5, #4096	; 0x1000
      30:	2f2f010e 	svccs	0x002f010e
      34:	2f2f302f 	svccs	0x002f302f
      38:	2f2f302f 	svccs	0x002f302f
      3c:	2f2f2f30 	svccs	0x002f2f30
      40:	2f312f2f 	svccs	0x00312f2f
      44:	302f2f2f 	eorcc	r2, pc, pc, lsr #30
      48:	022f2f2f 	eoreq	r2, pc, #47, 30	; 0xbc
      4c:	01010002 	tsteq	r1, r2
      50:	00000036 	andeq	r0, r0, r6, lsr r0
      54:	001f0002 	andseq	r0, pc, r2
      58:	01020000 	mrseq	r0, (UNDEF: 2)
      5c:	000d0efb 	strdeq	r0, [sp], -fp
      60:	01010101 	tsteq	r1, r1, lsl #2
      64:	01000000 	mrseq	r0, (UNDEF: 0)
      68:	00010000 	andeq	r0, r1, r0
      6c:	6c727473 	cfldrdvs	mvd7, [r2], #-460	; 0xfffffe34
      70:	632e6e65 	teqvs	lr, #1616	; 0x650
      74:	00000000 	andeq	r0, r0, r0
      78:	02050000 	andeq	r0, r5, #0
      7c:	01500074 	cmpeq	r0, r4, ror r0
      80:	15013c03 	strne	r3, [r1, #-3075]	; 0xc03
      84:	000402f8 	strdeq	r0, [r4], -r8
      88:	00550101 	subseq	r0, r5, r1, lsl #2
      8c:	00020000 	andeq	r0, r2, r0
      90:	0000001f 	andeq	r0, r0, pc, lsl r0
      94:	0efb0102 	cdpeq	1, 15, cr0, cr11, cr2, {0}
      98:	0101000d 	tsteq	r1, sp
      9c:	00000101 	andeq	r0, r0, r1, lsl #2
      a0:	00000100 	andeq	r0, r0, r0, lsl #2
      a4:	74730001 	ldrbtvc	r0, [r3], #-1
      a8:	72747372 	rsbsvc	r7, r4, #-939524095	; 0xc8000001
      ac:	0000632e 	andeq	r6, r0, lr, lsr #6
      b0:	00000000 	andeq	r0, r0, r0
      b4:	009c0205 	addseq	r0, ip, r5, lsl #4
      b8:	c0030150 	andgt	r0, r3, r0, asr r1
      bc:	62160100 	andsvs	r0, r6, #0, 2
      c0:	04020035 	streq	r0, [r2], #-53	; 0x35
      c4:	82066901 	andhi	r6, r6, #16384	; 0x4000
      c8:	02006806 	andeq	r6, r0, #393216	; 0x60000
      cc:	684e0104 	stmdavs	lr, {r2, r8}^
      d0:	7003a3f0 	strdvc	sl, [r3], -r0
      d4:	2e150382 	cdpcs	3, 1, cr0, cr5, cr2, {4}
      d8:	032e6b03 	teqeq	lr, #3072	; 0xc00
      dc:	02022e15 	andeq	r2, r2, #336	; 0x150
      e0:	e3010100 	movw	r0, #4352	; 0x1100
      e4:	02000000 	andeq	r0, r0, #0
      e8:	00008e00 	andeq	r8, r0, r0, lsl #28
      ec:	fb010200 	blx	408f6 <_back_addr-0x14bf70a>
      f0:	01000d0e 	tsteq	r0, lr, lsl #26
      f4:	00010101 	andeq	r0, r1, r1, lsl #2
      f8:	00010000 	andeq	r0, r1, r0
      fc:	682f0100 	stmdavs	pc!, {r8}	; <UNPREDICTABLE>
     100:	2f656d6f 	svccs	0x00656d6f
     104:	2f656166 	svccs	0x00656166
     108:	2f73616e 	svccs	0x0073616e
     10c:	2f6e7673 	svccs	0x006e7673
     110:	35393231 	ldrcc	r3, [r9, #-561]!	; 0x231
     114:	7572742f 	ldrbvc	r7, [r2, #-1071]!	; 0x42f
     118:	362d6b6e 	strtcc	r6, [sp], -lr, ror #22
     11c:	302e302e 	eorcc	r3, lr, lr, lsr #32
     120:	2f31725f 	svccs	0x0031725f
     124:	746f6f62 	strbtvc	r6, [pc], #-3938	; 12c <_back_addr-0x14ffed4>
     128:	65646f63 	strbvs	r6, [r4, #-3939]!	; 0xf63
     12c:	6f62752f 	svcvs	0x0062752f
     130:	652f746f 	strvs	r7, [pc, #-1135]!	; fffffcc9 <__bss_end__+0xfeaec2b1>
     134:	706d6178 	rsbvc	r6, sp, r8, ror r1
     138:	2f73656c 	svccs	0x0073656c
     13c:	73756665 	cmnvc	r5, #105906176	; 0x6500000
     140:	72705f65 	rsbsvc	r5, r0, #404	; 0x194
     144:	6172676f 	cmnvs	r2, pc, ror #14
     148:	72656d6d 	rsbvc	r6, r5, #6976	; 0x1b40
     14c:	636e692f 	cmnvs	lr, #770048	; 0xbc000
     150:	6564756c 	strbvs	r7, [r4, #-1388]!	; 0x56c
     154:	7276642f 	rsbsvc	r6, r6, #788529152	; 0x2f000000
     158:	746f6f62 	strbtvc	r6, [pc], #-3938	; 160 <_back_addr-0x14ffea0>
     15c:	636e695f 	cmnvs	lr, #1556480	; 0x17c000
     160:	74730000 	ldrbtvc	r0, [r3], #-0
     164:	756f7472 	strbvc	r7, [pc, #-1138]!	; fffffcfa <__bss_end__+0xfeaec2e2>
     168:	00632e6c 	rsbeq	r2, r3, ip, ror #28
     16c:	63000000 	movwvs	r0, #0
     170:	65707974 	ldrbvs	r7, [r0, #-2420]!	; 0x974
     174:	0100682e 	tsteq	r0, lr, lsr #16
     178:	00000000 	andeq	r0, r0, r0
     17c:	013c0205 	teqeq	ip, r5, lsl #4
     180:	c4030150 	strgt	r0, [r3], #-336	; 0x150
     184:	00660100 	rsbeq	r0, r6, r0, lsl #2
     188:	03010402 	movweq	r0, #5122	; 0x1402
     18c:	0200660b 	andeq	r6, r0, #11534336	; 0xb00000
     190:	834b0104 	movthi	r0, #45316	; 0xb104
     194:	004c2f4f 	subeq	r2, ip, pc, asr #30
     198:	06010402 	streq	r0, [r1], -r2, lsl #8
     19c:	9f88064a 	svcls	0x0088064a
     1a0:	db2d6765 	blle	b59f3c <_back_addr-0x9a60c4>
     1a4:	01040200 	mrseq	r0, R12_usr
     1a8:	dd660b03 	fstmdbxle	r6!, {d16}	;@ Deprecated
     1ac:	2e70032c 	cdpcs	3, 7, cr0, cr0, cr12, {1}
     1b0:	302d4b2f 	eorcc	r4, sp, pc, lsr #22
     1b4:	4c4c854b 	cfstr64mi	mvdx8, [ip], {75}	; 0x4b
     1b8:	68522f4b 	ldmdavs	r2, {r0, r1, r3, r6, r8, r9, sl, fp, sp}^
     1bc:	8257039f 	subshi	r0, r7, #2080374786	; 0x7c000002
     1c0:	302d8489 	eorcc	r8, sp, r9, lsl #9
     1c4:	0008022d 	andeq	r0, r8, sp, lsr #4
     1c8:	00240101 	eoreq	r0, r4, r1, lsl #2
     1cc:	00020000 	andeq	r0, r2, r0
     1d0:	0000001e 	andeq	r0, r0, lr, lsl r0
     1d4:	0efb0102 	cdpeq	1, 15, cr0, cr11, cr2, {0}
     1d8:	0101000d 	tsteq	r1, sp
     1dc:	00000101 	andeq	r0, r0, r1, lsl #2
     1e0:	00000100 	andeq	r0, r0, r0, lsl #2
     1e4:	74630001 	strbtvc	r0, [r3], #-1
     1e8:	2e657079 	mcrcs	0, 3, r7, cr5, cr9, {3}
     1ec:	00000063 	andeq	r0, r0, r3, rrx
     1f0:	012b0000 	teqeq	fp, r0
     1f4:	00020000 	andeq	r0, r2, r0
     1f8:	000000c9 	andeq	r0, r0, r9, asr #1
     1fc:	0efb0102 	cdpeq	1, 15, cr0, cr11, cr2, {0}
     200:	0101000d 	tsteq	r1, sp
     204:	00000101 	andeq	r0, r0, r1, lsl #2
     208:	00000100 	andeq	r0, r0, r0, lsl #2
     20c:	6f682f01 	svcvs	0x00682f01
     210:	6c2f656d 	cfstr32vs	mvfx6, [pc], #-436	; 64 <_back_addr-0x14fff9c>
     214:	7369756f 	cmnvc	r9, #465567744	; 0x1bc00000
     218:	3932312f 	ldmdbcc	r2!, {r0, r1, r2, r3, r5, r8, ip, sp}
     21c:	6f622f35 	svcvs	0x00622f35
     220:	6f63746f 	svcvs	0x0063746f
     224:	752f6564 	strvc	r6, [pc, #-1380]!	; fffffcc8 <__bss_end__+0xfeaec2b0>
     228:	746f6f62 	strbtvc	r6, [pc], #-3938	; 230 <_back_addr-0x14ffdd0>
     22c:	6178652f 	cmnvs	r8, pc, lsr #10
     230:	656c706d 	strbvs	r7, [ip, #-109]!	; 0x6d
     234:	66652f73 	uqsub16vs	r2, r5, r3
     238:	5f657375 	svcpl	0x00657375
     23c:	676f7270 			; <UNDEFINED> instruction: 0x676f7270
     240:	6d6d6172 	stfvse	f6, [sp, #-456]!	; 0xfffffe38
     244:	692f7265 	stmdbvs	pc!, {r0, r2, r5, r6, r9, ip, sp, lr}	; <UNPREDICTABLE>
     248:	756c636e 	strbvc	r6, [ip, #-878]!	; 0x36e
     24c:	2f006564 	svccs	0x00006564
     250:	656d6f68 	strbvs	r6, [sp, #-3944]!	; 0xf68
     254:	756f6c2f 	strbvc	r6, [pc, #-3119]!	; fffff62d <__bss_end__+0xfeaebc15>
     258:	312f7369 	teqcc	pc, r9, ror #6
     25c:	2f353932 	svccs	0x00353932
     260:	746f6f62 	strbtvc	r6, [pc], #-3938	; 268 <_back_addr-0x14ffd98>
     264:	65646f63 	strbvs	r6, [r4, #-3939]!	; 0xf63
     268:	6f62752f 	svcvs	0x0062752f
     26c:	652f746f 	strvs	r7, [pc, #-1135]!	; fffffe05 <__bss_end__+0xfeaec3ed>
     270:	706d6178 	rsbvc	r6, sp, r8, ror r1
     274:	2f73656c 	svccs	0x0073656c
     278:	73756665 	cmnvc	r5, #105906176	; 0x6500000
     27c:	72705f65 	rsbsvc	r5, r0, #404	; 0x194
     280:	6172676f 	cmnvs	r2, pc, ror #14
     284:	72656d6d 	rsbvc	r6, r5, #6976	; 0x1b40
     288:	636e692f 	cmnvs	lr, #770048	; 0xbc000
     28c:	6564756c 	strbvs	r7, [r4, #-1388]!	; 0x56c
     290:	7276642f 	rsbsvc	r6, r6, #788529152	; 0x2f000000
     294:	746f6f62 	strbtvc	r6, [pc], #-3938	; 29c <_back_addr-0x14ffd64>
     298:	636e695f 	cmnvs	lr, #1556480	; 0x17c000
     29c:	66650000 	strbtvs	r0, [r5], -r0
     2a0:	6d657375 	stclvs	3, cr7, [r5, #-468]!	; 0xfffffe2c
     2a4:	2e6e6961 	cdpcs	9, 6, cr6, cr14, cr1, {3}
     2a8:	00000063 	andeq	r0, r0, r3, rrx
     2ac:	73797300 	cmnvc	r9, #0, 6
     2b0:	73666564 	cmnvc	r6, #100, 10	; 0x19000000
     2b4:	0100682e 	tsteq	r0, lr, lsr #16
     2b8:	74750000 	ldrbtvc	r0, [r5], #-0
     2bc:	682e6c69 	stmdavs	lr!, {r0, r3, r5, r6, sl, fp, sp, lr}
     2c0:	00000200 	andeq	r0, r0, r0, lsl #4
     2c4:	02050000 	andeq	r0, r5, #0
     2c8:	015002d0 	ldrsbeq	r0, [r0, #-32]	; 0xffffffe0
     2cc:	14012603 	strne	r2, [r1], #-1539	; 0x603
     2d0:	1668304d 	strbtne	r3, [r8], -sp, asr #32
     2d4:	034e4983 	movteq	r4, #59779	; 0xe983
     2d8:	4b162e09 	blmi	58bb04 <_back_addr-0xf744fc>
     2dc:	02004fd1 	andeq	r4, r0, #836	; 0x344
     2e0:	86810204 	strhi	r0, [r1], r4, lsl #4
     2e4:	3531322a 	ldrcc	r3, [r1, #-554]!	; 0x22a
     2e8:	354a7903 	strbcc	r7, [sl, #-2307]	; 0x903
     2ec:	0331474d 	teqeq	r1, #20185088	; 0x1340000
     2f0:	4c682e34 	stclmi	14, cr2, [r8], #-208	; 0xffffff30
     2f4:	67a06850 	sbfxvs	r6, r0, #16, #1
     2f8:	2f4b2fb9 	svccs	0x004b2fb9
     2fc:	034a0a03 	movteq	r0, #43523	; 0xaa03
     300:	1503666b 	strne	r6, [r3, #-1643]	; 0x66b
     304:	036b6166 	cmneq	fp, #-2147483623	; 0x80000019
     308:	03366678 	teqeq	r6, #120, 12	; 0x7800000
     30c:	4b166616 	blmi	599b6c <_back_addr-0xf66494>
     310:	2f4b3245 	svccs	0x004b3245
     314:	2f304b2f 	svccs	0x00304b2f
     318:	4c302c30 	ldcmi	12, cr2, [r0], #-192	; 0xffffff40
     31c:	01000402 	tsteq	r0, r2, lsl #8
     320:	0004b201 	andeq	fp, r4, r1, lsl #4
     324:	60000200 	andvs	r0, r0, r0, lsl #4
     328:	02000001 	andeq	r0, r0, #1
     32c:	0d0efb01 	vstreq	d15, [lr, #-4]
     330:	01010100 	mrseq	r0, (UNDEF: 17)
     334:	00000001 	andeq	r0, r0, r1
     338:	01000001 	tsteq	r0, r1
     33c:	6c636e69 	stclvs	14, cr6, [r3], #-420	; 0xfffffe5c
     340:	2f656475 	svccs	0x00656475
     344:	62727664 	rsbsvs	r7, r2, #100, 12	; 0x6400000
     348:	5f746f6f 	svcpl	0x00746f6f
     34c:	00636e69 	rsbeq	r6, r3, r9, ror #28
     350:	6d6f682f 	stclvs	8, cr6, [pc, #-188]!	; 29c <_back_addr-0x14ffd64>
     354:	6f6c2f65 	svcvs	0x006c2f65
     358:	2f736975 	svccs	0x00736975
     35c:	35393231 	ldrcc	r3, [r9, #-561]!	; 0x231
     360:	6f6f622f 	svcvs	0x006f622f
     364:	646f6374 	strbtvs	r6, [pc], #-884	; 36c <_back_addr-0x14ffc94>
     368:	62752f65 	rsbsvs	r2, r5, #404	; 0x194
     36c:	2f746f6f 	svccs	0x00746f6f
     370:	6d617865 	stclvs	8, cr7, [r1, #-404]!	; 0xfffffe6c
     374:	73656c70 	cmnvc	r5, #112, 24	; 0x7000
     378:	7566652f 	strbvc	r6, [r6, #-1327]!	; 0x52f
     37c:	705f6573 	subsvc	r6, pc, r3, ror r5	; <UNPREDICTABLE>
     380:	72676f72 	rsbvc	r6, r7, #456	; 0x1c8
     384:	656d6d61 	strbvs	r6, [sp, #-3425]!	; 0xd61
     388:	2e2e2f72 	mcrcs	15, 1, r2, cr14, cr2, {3}
     38c:	2f2e2e2f 	svccs	0x002e2e2f
     390:	6c636e69 	stclvs	14, cr6, [r3], #-420	; 0xfffffe5c
     394:	2f656475 	svccs	0x00656475
     398:	006d7361 	rsbeq	r7, sp, r1, ror #6
     39c:	6d6f682f 	stclvs	8, cr6, [pc, #-188]!	; 2e8 <_back_addr-0x14ffd18>
     3a0:	6f6c2f65 	svcvs	0x006c2f65
     3a4:	2f736975 	svccs	0x00736975
     3a8:	35393231 	ldrcc	r3, [r9, #-561]!	; 0x231
     3ac:	6f6f622f 	svcvs	0x006f622f
     3b0:	646f6374 	strbtvs	r6, [pc], #-884	; 3b8 <_back_addr-0x14ffc48>
     3b4:	62752f65 	rsbsvs	r2, r5, #404	; 0x194
     3b8:	2f746f6f 	svccs	0x00746f6f
     3bc:	6d617865 	stclvs	8, cr7, [r1, #-404]!	; 0xfffffe6c
     3c0:	73656c70 	cmnvc	r5, #112, 24	; 0x7000
     3c4:	7566652f 	strbvc	r6, [r6, #-1327]!	; 0x52f
     3c8:	705f6573 	subsvc	r6, pc, r3, ror r5	; <UNPREDICTABLE>
     3cc:	72676f72 	rsbvc	r6, r7, #456	; 0x1c8
     3d0:	656d6d61 	strbvs	r6, [sp, #-3425]!	; 0xd61
     3d4:	2e2e2f72 	mcrcs	15, 1, r2, cr14, cr2, {3}
     3d8:	2f2e2e2f 	svccs	0x002e2e2f
     3dc:	6c636e69 	stclvs	14, cr6, [r3], #-420	; 0xfffffe5c
     3e0:	2f656475 	svccs	0x00656475
     3e4:	756e696c 	strbvc	r6, [lr, #-2412]!	; 0x96c
     3e8:	682f0078 	stmdavs	pc!, {r3, r4, r5, r6}	; <UNPREDICTABLE>
     3ec:	2f656d6f 	svccs	0x00656d6f
     3f0:	69756f6c 	ldmdbvs	r5!, {r2, r3, r5, r6, r8, r9, sl, fp, sp, lr}^
     3f4:	32312f73 	eorscc	r2, r1, #460	; 0x1cc
     3f8:	622f3539 	eorvs	r3, pc, #239075328	; 0xe400000
     3fc:	63746f6f 	cmnvs	r4, #444	; 0x1bc
     400:	2f65646f 	svccs	0x0065646f
     404:	6f6f6275 	svcvs	0x006f6275
     408:	78652f74 	stmdavc	r5!, {r2, r4, r5, r6, r8, r9, sl, fp, sp}^
     40c:	6c706d61 	ldclvs	13, cr6, [r0], #-388	; 0xfffffe7c
     410:	652f7365 	strvs	r7, [pc, #-869]!	; b3 <_back_addr-0x14fff4d>
     414:	65737566 	ldrbvs	r7, [r3, #-1382]!	; 0x566
     418:	6f72705f 	svcvs	0x0072705f
     41c:	6d617267 	sfmvs	f7, 2, [r1, #-412]!	; 0xfffffe64
     420:	2f72656d 	svccs	0x0072656d
     424:	2e2f2e2e 	cdpcs	14, 2, cr2, cr15, cr14, {1}
     428:	6e692f2e 	cdpvs	15, 6, cr2, cr9, cr14, {1}
     42c:	64756c63 	ldrbtvs	r6, [r5], #-3171	; 0xc63
     430:	6d000065 	stcvs	0, cr0, [r0, #-404]	; 0xfffffe6c
     434:	632e7063 	teqvs	lr, #99	; 0x63
     438:	00000000 	andeq	r0, r0, r0
     43c:	682e6f69 	stmdavs	lr!, {r0, r3, r5, r6, r8, r9, sl, fp, sp, lr}
     440:	00000100 	andeq	r0, r0, r0, lsl #2
     444:	69736f70 	ldmdbvs	r3!, {r4, r5, r6, r8, r9, sl, fp, sp, lr}^
     448:	79745f78 	ldmdbvc	r4!, {r3, r4, r5, r6, r8, r9, sl, fp, ip, lr}^
     44c:	2e736570 	mrccs	5, 3, r6, cr3, cr0, {3}
     450:	00020068 	andeq	r0, r2, r8, rrx
     454:	70797400 	rsbsvc	r7, r9, r0, lsl #8
     458:	682e7365 	stmdavs	lr!, {r0, r2, r5, r6, r8, r9, ip, sp, lr}
     45c:	00000300 	andeq	r0, r0, r0, lsl #6
     460:	2e70636d 	cdpcs	3, 7, cr6, cr0, cr13, {3}
     464:	00000068 	andeq	r0, r0, r8, rrx
     468:	74656e00 	strbtvc	r6, [r5], #-3584	; 0xe00
     46c:	0400682e 	streq	r6, [r0], #-2094	; 0x82e
     470:	74730000 	ldrbtvc	r0, [r3], #-0
     474:	676e6972 			; <UNDEFINED> instruction: 0x676e6972
     478:	0300682e 	movweq	r6, #2094	; 0x82e
     47c:	6f630000 	svcvs	0x00630000
     480:	6e6f6d6d 	cdpvs	13, 6, cr6, cr15, cr13, {3}
     484:	0400682e 	streq	r6, [r0], #-2094	; 0x82e
     488:	00000000 	andeq	r0, r0, r0
     48c:	04a00205 	strteq	r0, [r0], #517	; 0x205
     490:	ae030150 	fltgesm	f3, r0
     494:	0b030105 	bleq	c08b0 <_back_addr-0x143f750>
     498:	305a082e 	subscc	r0, sl, lr, lsr #16
     49c:	834e3064 	movthi	r3, #57444	; 0xe064
     4a0:	032e0d03 	teqeq	lr, #3, 26	; 0xc0
     4a4:	0d032e73 	stceq	14, cr2, [r3, #-460]	; 0xfffffe34
     4a8:	2e0f034a 	cdpcs	3, 0, cr0, cr15, cr10, {2}
     4ac:	87030204 	strhi	r0, [r3, -r4, lsl #4]
     4b0:	6503017b 	strvs	r0, [r3, #-379]	; 0x17b
     4b4:	2e1b0366 	cdpcs	3, 1, cr0, cr11, cr6, {3}
     4b8:	044a6503 	strbeq	r6, [sl], #-1283	; 0x503
     4bc:	05990301 	ldreq	r0, [r9, #769]	; 0x301
     4c0:	0402002e 	streq	r0, [r2], #-46	; 0x2e
     4c4:	2f524902 	svccs	0x00524902
     4c8:	2e7ea503 	cdpcs	5, 7, cr10, cr14, cr3, {0}
     4cc:	4a790319 	bmi	1e41138 <__bss_end__+0x92d720>
     4d0:	d5030204 	strle	r0, [r3, #-516]	; 0x204
     4d4:	01042e7c 	tsteq	r4, ip, ror lr
     4d8:	6603c003 	strvs	ip, [r3], -r3
     4dc:	c0030204 	andgt	r0, r3, r4, lsl #4
     4e0:	01042e7c 	tsteq	r4, ip, ror lr
     4e4:	6603c203 	strvs	ip, [r3], -r3, lsl #4
     4e8:	be030204 	cdplt	2, 0, cr0, cr3, cr4, {0}
     4ec:	01042e7c 	tsteq	r4, ip, ror lr
     4f0:	2e03c403 	cdpcs	4, 0, cr12, cr3, cr3, {0}
     4f4:	bc030204 	sfmlt	f0, 4, [r3], {4}
     4f8:	01042e7c 	tsteq	r4, ip, ror lr
     4fc:	9e03c403 	cdpls	4, 0, cr12, cr3, cr3, {0}
     500:	2e00cf03 	cdpcs	15, 0, cr12, cr0, cr3, {0}
     504:	0302042f 	movweq	r0, #9263	; 0x242f
     508:	042e7bec 	strteq	r7, [lr], #-3052	; 0xbec
     50c:	04980301 	ldreq	r0, [r8], #769	; 0x301
     510:	0302044a 	movweq	r0, #9290	; 0x244a
     514:	042e7bcd 	strteq	r7, [lr], #-3021	; 0xbcd
     518:	04b50301 	ldrteq	r0, [r5], #769	; 0x301
     51c:	0e03a02e 	cdpeq	0, 0, cr10, cr3, cr14, {1}
     520:	02044b4a 	andeq	r4, r4, #75776	; 0x12800
     524:	2e7bba03 	vaddcs.f32	s23, s22, s6
     528:	b5030104 	strlt	r0, [r3, #-260]	; 0x104
     52c:	02046604 	andeq	r6, r4, #4, 12	; 0x400000
     530:	4a7bcb03 	bmi	1ef3144 <__bss_end__+0x9df72c>
     534:	d3030104 	movwle	r0, #12548	; 0x3104
     538:	2d2f6604 	stccs	6, cr6, [pc, #-16]!	; 530 <_back_addr-0x14ffad0>
     53c:	c8030204 	stmdagt	r3, {r2, r9}
     540:	65032e7b 	strvs	r2, [r3, #-3707]	; 0xe7b
     544:	030104d6 	movweq	r0, #5334	; 0x14d6
     548:	042e04d8 	strteq	r0, [lr], #-1240	; 0x4d8
     54c:	7bc30302 	blvc	ff0c115c <__bss_end__+0xfdbad744>
     550:	03010482 	movweq	r0, #5250	; 0x1482
     554:	046604a8 	strbteq	r0, [r6], #-1192	; 0x4a8
     558:	7bd80302 	blvc	ff601168 <__bss_end__+0xfe0ed750>
     55c:	0301042e 	movweq	r0, #5166	; 0x142e
     560:	034a03b3 	movteq	r0, #41907	; 0xa3b3
     564:	1a4a7caf 	bne	129f828 <_back_addr-0x2607d8>
     568:	0302044d 	movweq	r0, #9293	; 0x244d
     56c:	01044a73 	tsteq	r4, r3, ror sl
     570:	664a0d03 	strbvs	r0, [sl], -r3, lsl #26
     574:	02000204 	andeq	r0, r0, #4, 4	; 0x40000000
     578:	73030304 	movwvc	r0, #13060	; 0x3304
     57c:	01044d4a 	tsteq	r4, sl, asr #26
     580:	2f660d03 	svccs	0x00660d03
     584:	0302042d 	movweq	r0, #9261	; 0x242d
     588:	03852e70 	orreq	r2, r5, #112, 28	; 0x700
     58c:	03692e18 	cmneq	r9, #24, 28	; 0x180
     590:	03692e62 	cmneq	r9, #1568	; 0x620
     594:	03852e18 	orreq	r2, r5, #24, 28	; 0x180
     598:	03694a62 	cmneq	r9, #401408	; 0x62000
     59c:	03852e18 	orreq	r2, r5, #24, 28	; 0x180
     5a0:	03694a62 	cmneq	r9, #401408	; 0x62000
     5a4:	47852e18 	usada8mi	r5, r8, lr, r2
     5a8:	04290104 	strteq	r0, [r9], #-260	; 0x104
     5ac:	2b313302 	blcs	c4d1bc <_back_addr-0x8b2e44>
     5b0:	042a0104 	strteq	r0, [sl], #-260	; 0x104
     5b4:	2b313202 	blcs	c4cdc4 <_back_addr-0x8b323c>
     5b8:	042b0104 	strteq	r0, [fp], #-260	; 0x104
     5bc:	2b313102 	blcs	c4c9cc <_back_addr-0x8b3634>
     5c0:	042c0104 	strteq	r0, [ip], #-260	; 0x104
     5c4:	01043002 	tsteq	r4, r2
     5c8:	3002042f 	andcc	r0, r2, pc, lsr #8
     5cc:	042c0104 	strteq	r0, [ip], #-260	; 0x104
     5d0:	9e660302 	cdpls	3, 6, cr0, cr6, cr2, {0}
     5d4:	1b032b31 	blne	cb2a0 <_back_addr-0x1434d60>
     5d8:	042b694a 	strteq	r6, [fp], #-2378	; 0x94a
     5dc:	02042d01 	andeq	r2, r4, #1, 26	; 0x40
     5e0:	a12b6967 	teqge	fp, r7, ror #18
     5e4:	a12ba12b 	teqge	fp, fp, lsr #2
     5e8:	4a65032b 	bmi	194129c <__bss_end__+0x42d884>
     5ec:	1b032b69 	blne	cb398 <_back_addr-0x1434c68>
     5f0:	032b694a 	teqeq	fp, #1212416	; 0x128000
     5f4:	2b694a65 	blcs	1a52f90 <__bss_end__+0x53f578>
     5f8:	694a1b03 	stmdbvs	sl, {r0, r1, r8, r9, fp, ip}^
     5fc:	4a65032b 	bmi	19412b0 <__bss_end__+0x42d898>
     600:	1b032b69 	blne	cb3ac <_back_addr-0x1434c54>
     604:	032b694a 	teqeq	fp, #1212416	; 0x128000
     608:	2b694a65 	blcs	1a52fa4 <__bss_end__+0x53f58c>
     60c:	1d030104 	stfnes	f0, [r3, #-16]
     610:	2f852e4a 	svccs	0x00852e4a
     614:	4b4b514d 	blmi	12d4b50 <_back_addr-0x22b4b0>
     618:	314c4b4b 	cmpcc	ip, fp, asr #22
     61c:	2d302f2c 	ldccs	15, cr2, [r0, #-176]!	; 0xffffff50
     620:	692e7103 	stmdbvs	lr!, {r0, r1, r8, ip, sp, lr}
     624:	4e667a03 	vmulmi.f32	s15, s12, s6
     628:	312e0f03 	teqcc	lr, r3, lsl #30
     62c:	4d2f852e 	cfstr32mi	mvfx8, [pc, #-184]!	; 57c <_back_addr-0x14ffa84>
     630:	4b4b4b51 	blmi	12d337c <_back_addr-0x22cc84>
     634:	2c314c4b 	ldccs	12, cr4, [r1], #-300	; 0xfffffed4
     638:	032d302f 	teqeq	sp, #47	; 0x2f
     63c:	03692e71 	cmneq	r9, #1808	; 0x710
     640:	034e667a 	movteq	r6, #59002	; 0xe67a
     644:	2e312e0f 	cdpcs	14, 3, cr2, cr1, cr15, {0}
     648:	524d2f85 	subpl	r2, sp, #532	; 0x214
     64c:	4b4b4b4b 	blmi	12d3380 <_back_addr-0x22cc80>
     650:	2f2c314c 	svccs	0x002c314c
     654:	71032d30 	tstvc	r3, r0, lsr sp
     658:	7903692e 	stmdbvc	r3, {r1, r2, r3, r5, r8, fp, sp, lr}
     65c:	0f034f82 	svceq	0x00034f82
     660:	862e322e 	strthi	r3, [lr], -lr, lsr #4
     664:	09034f2f 	stmdbeq	r3, {r0, r1, r2, r3, r5, r8, r9, sl, fp, lr}
     668:	4b4b4b4a 	blmi	12d3398 <_back_addr-0x22cc68>
     66c:	2c31504b 	ldccs	0, cr5, [r1], #-300	; 0xfffffed4
     670:	032f2f2f 	teqeq	pc, #47, 30	; 0xbc
     674:	79036609 	stmdbvc	r3, {r0, r3, r9, sl, sp, lr}
     678:	9e68032e 	cdpls	3, 6, cr0, cr8, cr14, {1}
     67c:	f32f454f 	vrshl.u32	q2, <illegal reg q7.5>, <illegal reg q7.5>
     680:	f34a7903 	vmls.i8	d23, d10, d3
     684:	2e4a2603 	cdpcs	6, 4, cr2, cr10, cr3, {0}
     688:	09032f69 	stmdbeq	r3, {r0, r3, r5, r6, r8, r9, sl, fp, sp}
     68c:	2a6b2a4a 	bcs	1acafbc <__bss_end__+0x5b75a4>
     690:	32632a6b 	rsbcc	r2, r3, #438272	; 0x6b000
     694:	2e090362 	cdpcs	3, 0, cr0, cr9, cr2, {3}
     698:	174e2f2d 	strbne	r2, [lr, -sp, lsr #30]
     69c:	4a780369 	bmi	1e01448 <__bss_end__+0x8eda30>
     6a0:	4f2f696e 	svcmi	0x002f696e
     6a4:	6530494b 	ldrvs	r4, [r0, #-2379]!	; 0x94b
     6a8:	2c4c322c 	sfmcs	f3, 2, [ip], {44}	; 0x2c
     6ac:	2e09032a 	cdpcs	3, 0, cr0, cr9, cr10, {1}
     6b0:	032e0903 	teqeq	lr, #49152	; 0xc000
     6b4:	034a03bc 	movteq	r0, #41916	; 0xa3bc
     6b8:	03ba7cc7 			; <UNDEFINED> instruction: 0x03ba7cc7
     6bc:	034a03b9 	movteq	r0, #41913	; 0xa3b9
     6c0:	034a7cc7 	movteq	r7, #44231	; 0xacc7
     6c4:	082e03ba 	stmdaeq	lr!, {r1, r3, r4, r5, r7, r8, r9}
     6c8:	ba03f321 	blt	fd354 <_back_addr-0x1402cac>
     6cc:	2d20087c 	stccs	8, cr0, [r0, #-496]!	; 0xfffffe10
     6d0:	312b4d2f 	teqcc	fp, pc, lsr #26
     6d4:	03312b2f 	teqeq	r1, #48128	; 0xbc00
     6d8:	5a03660d 	bpl	d9f14 <_back_addr-0x14260ec>
     6dc:	6626032e 	strtvs	r0, [r6], -lr, lsr #6
     6e0:	a4631532 	strbtge	r1, [r3], #-1330	; 0x532
     6e4:	4c2c4f2f 	stcmi	15, cr4, [ip], #-188	; 0xffffff44
     6e8:	4b2e0903 	blmi	b82afc <_back_addr-0x97d504>
     6ec:	4d4b4b4b 	vstrmi	d20, [fp, #-300]	; 0xfffffed4
     6f0:	322f2a33 	eorcc	r2, pc, #208896	; 0x33000
     6f4:	2e6d032d 	cdpcs	3, 6, cr0, cr13, cr13, {1}
     6f8:	6530494b 	ldrvs	r4, [r0, #-2379]!	; 0x94b
     6fc:	10036730 	andne	r6, r3, r0, lsr r7
     700:	03828582 	orreq	r8, r2, #545259520	; 0x20800000
     704:	042f2e0a 	strteq	r2, [pc], #-3594	; 70c <_back_addr-0x14ff8f4>
     708:	7e8c0302 	cdpvc	3, 8, cr0, cr12, cr2, {0}
     70c:	0301042e 	movweq	r0, #5166	; 0x142e
     710:	044a0285 	strbeq	r0, [sl], #-645	; 0x285
     714:	7dfb0302 	ldclvc	3, cr0, [fp, #8]!
     718:	0301042e 	movweq	r0, #5166	; 0x142e
     71c:	31820285 	orrcc	r0, r2, r5, lsl #5
     720:	498486a1 	stmibmi	r4, {r0, r5, r7, r9, sl, pc}
     724:	2f4b492f 	svccs	0x004b492f
     728:	030204a2 	movweq	r0, #9378	; 0x24a2
     72c:	04827dea 	streq	r7, [r2], #3562	; 0xdea
     730:	02960301 	addseq	r0, r6, #67108864	; 0x4000000
     734:	0302044a 	movweq	r0, #9290	; 0x244a
     738:	03667dea 	cmneq	r6, #14976	; 0x3a80
     73c:	01042e65 	tsteq	r4, r5, ror #28
     740:	2e02ba03 	vmlacs.f32	s22, s4, s6
     744:	e1030204 	tst	r3, r4, lsl #4
     748:	65032e7d 	strvs	r2, [r3, #-3709]	; 0xe7d
     74c:	0301042e 	movweq	r0, #5166	; 0x142e
     750:	852e02bb 	strhi	r0, [lr, #-699]!	; 0x2bb
     754:	0302044e 	movweq	r0, #9294	; 0x244e
     758:	044a7dbe 	strbeq	r7, [sl], #-3518	; 0xdbe
     75c:	02bb0301 	adcseq	r0, fp, #67108864	; 0x4000000
     760:	4a0a032e 	bmi	281420 <_back_addr-0x127ebe0>
     764:	67672d4b 	strbvs	r2, [r7, -fp, asr #26]!
     768:	032f674b 	teqeq	pc, #19660800	; 0x12c0000
     76c:	03674a75 	cmneq	r7, #479232	; 0x75000
     770:	57032e0a 	strpl	r2, [r3, -sl, lsl #28]
     774:	ba2b034a 	blt	ac14a4 <_back_addr-0xa3eb5c>
     778:	2b036715 	blcs	da3d4 <_back_addr-0x1425c2c>
     77c:	2e51032e 	cdpcs	3, 5, cr0, cr1, cr14, {1}
     780:	2c502fa5 	mrrccs	15, 10, r2, r0, cr5
     784:	2e0b034c 	cdpcs	3, 0, cr0, cr11, cr12, {2}
     788:	4b4b4b4b 	blmi	12d34bc <_back_addr-0x22cb44>
     78c:	4d4b4b4b 	vstrmi	d20, [fp, #-300]	; 0xfffffed4
     790:	032e0b03 	teqeq	lr, #3072	; 0xc00
     794:	09032e76 	stmdbeq	r3, {r1, r2, r4, r5, r6, r9, sl, fp, sp}
     798:	032d302e 	teqeq	sp, #46	; 0x2e
     79c:	26032e5b 			; <UNDEFINED> instruction: 0x26032e5b
     7a0:	2e60032e 	cdpcs	3, 6, cr0, cr0, cr14, {1}
     7a4:	6530494b 	ldrvs	r4, [r0, #-2379]!	; 0x94b
     7a8:	474d6531 	smlaldxmi	r6, sp, r1, r5
     7ac:	032f6730 	teqeq	pc, #48, 14	; 0xc00000
     7b0:	008202c2 	addeq	r0, r2, r2, asr #5
     7b4:	6c030402 	cfstrsvs	mvf0, [r3], {2}
     7b8:	03040200 	movweq	r0, #16896	; 0x4200
     7bc:	0402002d 	streq	r0, [r2], #-45	; 0x2d
     7c0:	02002d03 	andeq	r2, r0, #3, 26	; 0xc0
     7c4:	00300304 	eorseq	r0, r0, r4, lsl #6
     7c8:	2f030402 	svccs	0x00030402
     7cc:	03040200 	movweq	r0, #16896	; 0x4200
     7d0:	0202332b 	andeq	r3, r2, #-1409286144	; 0xac000000
     7d4:	d2010100 	andle	r0, r1, #0, 2
     7d8:	02000002 	andeq	r0, r0, #2
     7dc:	0000d200 	andeq	sp, r0, r0, lsl #4
     7e0:	fb010200 	blx	40fea <_back_addr-0x14bf016>
     7e4:	01000d0e 	tsteq	r0, lr, lsl #26
     7e8:	00010101 	andeq	r0, r1, r1, lsl #2
     7ec:	00010000 	andeq	r0, r1, r0
     7f0:	682f0100 	stmdavs	pc!, {r8}	; <UNPREDICTABLE>
     7f4:	2f656d6f 	svccs	0x00656d6f
     7f8:	69756f6c 	ldmdbvs	r5!, {r2, r3, r5, r6, r8, r9, sl, fp, sp, lr}^
     7fc:	32312f73 	eorscc	r2, r1, #460	; 0x1cc
     800:	622f3539 	eorvs	r3, pc, #239075328	; 0xe400000
     804:	63746f6f 	cmnvs	r4, #444	; 0x1bc
     808:	2f65646f 	svccs	0x0065646f
     80c:	6f6f6275 	svcvs	0x006f6275
     810:	78652f74 	stmdavc	r5!, {r2, r4, r5, r6, r8, r9, sl, fp, sp}^
     814:	6c706d61 	ldclvs	13, cr6, [r0], #-388	; 0xfffffe7c
     818:	652f7365 	strvs	r7, [pc, #-869]!	; 4bb <_back_addr-0x14ffb45>
     81c:	65737566 	ldrbvs	r7, [r3, #-1382]!	; 0x566
     820:	6f72705f 	svcvs	0x0072705f
     824:	6d617267 	sfmvs	f7, 2, [r1, #-412]!	; 0xfffffe64
     828:	2f72656d 	svccs	0x0072656d
     82c:	6c636e69 	stclvs	14, cr6, [r3], #-420	; 0xfffffe5c
     830:	00656475 	rsbeq	r6, r5, r5, ror r4
     834:	6d6f682f 	stclvs	8, cr6, [pc, #-188]!	; 780 <_back_addr-0x14ff880>
     838:	6f6c2f65 	svcvs	0x006c2f65
     83c:	2f736975 	svccs	0x00736975
     840:	35393231 	ldrcc	r3, [r9, #-561]!	; 0x231
     844:	6f6f622f 	svcvs	0x006f622f
     848:	646f6374 	strbtvs	r6, [pc], #-884	; 850 <_back_addr-0x14ff7b0>
     84c:	62752f65 	rsbsvs	r2, r5, #404	; 0x194
     850:	2f746f6f 	svccs	0x00746f6f
     854:	6d617865 	stclvs	8, cr7, [r1, #-404]!	; 0xfffffe6c
     858:	73656c70 	cmnvc	r5, #112, 24	; 0x7000
     85c:	7566652f 	strbvc	r6, [r6, #-1327]!	; 0x52f
     860:	705f6573 	subsvc	r6, pc, r3, ror r5	; <UNPREDICTABLE>
     864:	72676f72 	rsbvc	r6, r7, #456	; 0x1c8
     868:	656d6d61 	strbvs	r6, [sp, #-3425]!	; 0xd61
     86c:	6e692f72 	mcrvs	15, 3, r2, cr9, cr2, {3}
     870:	64756c63 	ldrbtvs	r6, [r5], #-3171	; 0xc63
     874:	76642f65 	strbtvc	r2, [r4], -r5, ror #30
     878:	6f6f6272 	svcvs	0x006f6272
     87c:	6e695f74 	mcrvs	15, 3, r5, cr9, cr4, {3}
     880:	6f000063 	svcvs	0x00000063
     884:	73756662 	cmnvc	r5, #102760448	; 0x6200000
     888:	62694c65 	rsbvs	r4, r9, #25856	; 0x6500
     88c:	0000632e 	andeq	r6, r0, lr, lsr #6
     890:	79730000 	ldmdbvc	r3!, {}^	; <UNPREDICTABLE>
     894:	66656473 			; <UNDEFINED> instruction: 0x66656473
     898:	00682e73 	rsbeq	r2, r8, r3, ror lr
     89c:	75000001 	strvc	r0, [r0, #-1]
     8a0:	2e6c6974 	mcrcs	9, 3, r6, cr12, cr4, {3}
     8a4:	00020068 	andeq	r0, r2, r8, rrx
     8a8:	70636d00 	rsbvc	r6, r3, r0, lsl #26
     8ac:	0000682e 	andeq	r6, r0, lr, lsr #16
     8b0:	00000000 	andeq	r0, r0, r0
     8b4:	10a40205 	adcne	r0, r4, r5, lsl #4
     8b8:	f1030150 			; <UNDEFINED> instruction: 0xf1030150
     8bc:	18030103 	stmdane	r3, {r0, r1, r8}
     8c0:	4a120382 	bmi	4816d0 <_back_addr-0x107e930>
     8c4:	034a5603 	movteq	r5, #42499	; 0xa603
     8c8:	12032e18 	andne	r2, r3, #24, 28	; 0x180
     8cc:	666f032e 	strbtvs	r0, [pc], -lr, lsr #6
     8d0:	4b4b4b4b 	blmi	12d3604 <_back_addr-0x22c9fc>
     8d4:	4b4b4b4b 	blmi	12d3608 <_back_addr-0x22c9f8>
     8d8:	4b4b4b4b 	blmi	12d360c <_back_addr-0x22c9f4>
     8dc:	4c4b4b4b 	mcrrmi	11, 4, r4, fp, cr11
     8e0:	4a110332 	bmi	4415b0 <_back_addr-0x10bea50>
     8e4:	2b4e679f 	blcs	139a768 <_back_addr-0x165898>
     8e8:	2d2f2a31 	vstmdbcs	pc!, {s4-s52}
     8ec:	30492f2f 	subcc	r2, r9, pc, lsr #30
     8f0:	2f2d2f2d 	svccs	0x002d2f2d
     8f4:	6983334b 	stmibvs	r3, {r0, r1, r3, r6, r8, r9, ip, sp}
     8f8:	32826503 	addcc	r6, r2, #12582912	; 0xc00000
     8fc:	2d2b322a 	sfmcs	f3, 4, [fp, #-168]!	; 0xffffff58
     900:	2f2d2f2f 	svccs	0x002d2f2f
     904:	2b2f2d2f 	blcs	bcbdc8 <_back_addr-0x934238>
     908:	2f302b32 	svccs	0x00302b32
     90c:	2f2f2f2c 	svccs	0x002f2f2c
     910:	03821903 	orreq	r1, r2, #49152	; 0xc000
     914:	71032e0f 	tstvc	r3, pc, lsl #28
     918:	832f8666 	teqhi	pc, #106954752	; 0x6600000
     91c:	9f2e0903 	svcls	0x002e0903
     920:	3032839f 	mlascc	r2, pc, r3, r8	; <UNPREDICTABLE>
     924:	0402004c 	streq	r0, [r2], #-76	; 0x4c
     928:	03720802 	cmneq	r2, #131072	; 0x20000
     92c:	03684a1f 	cmneq	r8, #126976	; 0x1f000
     930:	03be4a66 			; <UNDEFINED> instruction: 0x03be4a66
     934:	03667bb3 	cmneq	r6, #183296	; 0x2cc00
     938:	5b032e25 	blpl	cc1d4 <_back_addr-0x1433e2c>
     93c:	2e21034a 	cdpcs	3, 2, cr0, cr1, cr10, {2}
     940:	032e7303 	teqeq	lr, #201326592	; 0xc000000
     944:	21034a6c 	tstcs	r3, ip, ror #20
     948:	2e5f034a 	cdpcs	3, 5, cr0, cr15, cr10, {2}
     94c:	032e2503 	teqeq	lr, #12582912	; 0xc00000
     950:	12032e6f 	andne	r2, r3, #1776	; 0x6f0
     954:	2e5a032e 	cdpcs	3, 5, cr0, cr10, cr14, {1}
     958:	032e1403 	teqeq	lr, #50331648	; 0x3000000
     95c:	4b2a2e16 	blmi	a8c1bc <_back_addr-0xa73e44>
     960:	2e650336 	mcrcs	3, 3, r0, cr5, cr6, {1}
     964:	034a1303 	movteq	r1, #41731	; 0xa303
     968:	13032e6d 	movwne	r2, #15981	; 0x3e6d
     96c:	2e14034a 	cdpcs	3, 1, cr0, cr4, cr10, {2}
     970:	2f667003 	svccs	0x00667003
     974:	302d302d 	eorcc	r3, sp, sp, lsr #32
     978:	342e7a03 	strtcc	r7, [lr], #-2563	; 0xa03
     97c:	2e7a0330 	mrccs	3, 3, r0, cr10, cr0, {1}
     980:	322a2f34 	eorcc	r2, sl, #52, 30	; 0xd0
     984:	2f312b2f 	svccs	0x00312b2f
     988:	4b4b4b4b 	blmi	12d36bc <_back_addr-0x22c944>
     98c:	304c4b4b 	subcc	r4, ip, fp, asr #22
     990:	039e4403 	orrseq	r4, lr, #50331648	; 0x3000000
     994:	032e03d5 	teqeq	lr, #1409286147	; 0x54000003
     998:	344a7daf 	strbcc	r7, [sl], #-3503	; 0xdaf
     99c:	4a00c603 	bmi	321b0 <_back_addr-0x14cde50>
     9a0:	4a7fb403 	bmi	1fed9b4 <__bss_end__+0xad9f9c>
     9a4:	679f4b34 			; <UNDEFINED> instruction: 0x679f4b34
     9a8:	66090383 	strvs	r0, [r9], -r3, lsl #7
     9ac:	9f678367 	svcls	0x00678367
     9b0:	09038367 	stmdbeq	r3, {r0, r1, r2, r5, r6, r8, r9, pc}
     9b4:	67836766 	strvs	r6, [r3, r6, ror #14]
     9b8:	6b83679f 	blvs	fe0da83c <__bss_end__+0xfcbc6e24>
     9bc:	9f678367 	svcls	0x00678367
     9c0:	836b8367 	cmnhi	fp, #-1677721599	; 0x9c000001
     9c4:	9f316783 	svcls	0x00316783
     9c8:	6a9f8767 	bvs	fe7e276c <__bss_end__+0xfd2ced54>
     9cc:	4b2f6569 	blmi	bd9f78 <_back_addr-0x926088>
     9d0:	0282032f 	addeq	r0, r2, #-1140850688	; 0xbc000000
     9d4:	4a750366 	bmi	1d41774 <__bss_end__+0x82dd5c>
     9d8:	7cb50383 	ldcvc	3, cr0, [r5], #524	; 0x20c
     9dc:	03d5032e 	bicseq	r0, r5, #-1207959552	; 0xb8000000
     9e0:	7cfe032e 	ldclvc	3, cr0, [lr], #184	; 0xb8
     9e4:	2e6c034a 	cdpcs	3, 6, cr0, cr12, cr10, {2}
     9e8:	03661403 	cmneq	r6, #50331648	; 0x3000000
     9ec:	1a032e6c 	bne	cc3a4 <_back_addr-0x1433c5c>
     9f0:	666e032e 	strbtvs	r0, [lr], -lr, lsr #6
     9f4:	322e7a03 	eorcc	r7, lr, #12288	; 0x3000
     9f8:	0c032d2a 	stceq	13, cr2, [r3], {42}	; 0x2a
     9fc:	2e76032e 	cdpcs	3, 7, cr0, cr6, cr14, {1}
     a00:	302d312c 	eorcc	r3, sp, ip, lsr #2
     a04:	322c312d 	eorcc	r3, ip, #1073741835	; 0x4000000b
     a08:	312d312c 	teqcc	sp, ip, lsr #2
     a0c:	2f322a30 	svccs	0x00322a30
     a10:	2f2d322b 	svccs	0x002d322b
     a14:	2e0f0329 	cdpcs	3, 0, cr0, cr15, cr9, {1}
     a18:	83679f2f 	cmnhi	r7, #47, 30	; 0xbc
     a1c:	9f838767 	svcls	0x00838767
     a20:	87678367 	strbhi	r8, [r7, -r7, ror #6]!
     a24:	9f87679f 	svcls	0x0087679f
     a28:	67838367 	strvs	r8, [r3, r7, ror #6]
     a2c:	2f654b6b 	svccs	0x00654b6b
     a30:	672f2d2f 	strvs	r2, [pc, -pc, lsr #26]!
     a34:	02d6032c 	sbcseq	r0, r6, #44, 6	; 0xb0000000
     a38:	7e80032e 	cdpvc	3, 8, cr0, cr0, cr14, {1}
     a3c:	696a9f4a 	stmdbvs	sl!, {r1, r3, r6, r8, r9, sl, fp, ip, pc}^
     a40:	2f4b2f65 	svccs	0x004b2f65
     a44:	696a9f4c 	stmdbvs	sl!, {r2, r3, r6, r8, r9, sl, fp, ip, pc}^
     a48:	2f4b2f65 	svccs	0x004b2f65
     a4c:	2f304869 	svccs	0x00304869
     a50:	039f6af3 	orrseq	r6, pc, #995328	; 0xf3000
     a54:	356602f0 	strbcc	r0, [r6, #-752]!	; 0x2f0
     a58:	034a7903 	movteq	r7, #43267	; 0xa903
     a5c:	57032e30 	smladxpl	r3, r0, lr, r2
     a60:	84834b2e 	strhi	r4, [r3], #2862	; 0xb2e
     a64:	83838383 	orrhi	r8, r3, #201326594	; 0xc000002
     a68:	83838383 	orrhi	r8, r3, #201326594	; 0xc000002
     a6c:	67676783 	strbvs	r6, [r7, -r3, lsl #15]!
     a70:	67676767 	strbvs	r6, [r7, -r7, ror #14]!
     a74:	67676767 	strbvs	r6, [r7, -r7, ror #14]!
     a78:	67676767 	strbvs	r6, [r7, -r7, ror #14]!
     a7c:	67676767 	strbvs	r6, [r7, -r7, ror #14]!
     a80:	30484c67 	subcc	r4, r8, r7, ror #24
     a84:	2f9f9f68 	svccs	0x009f9f68
     a88:	2f833183 	svccs	0x00833183
     a8c:	0402009f 	streq	r0, [r2], #-159	; 0x9f
     a90:	0200bf02 	andeq	fp, r0, #2, 30
     a94:	76030204 	strvc	r0, [r3], -r4, lsl #4
     a98:	4a0e032e 	bmi	381758 <_back_addr-0x117e8a8>
     a9c:	83833068 	orrhi	r3, r3, #104	; 0x68
     aa0:	66720383 	ldrbtvs	r0, [r2], -r3, lsl #7
     aa4:	13821103 	orrne	r1, r2, #-1073741824	; 0xc0000000
     aa8:	01000402 	tsteq	r0, r2, lsl #8
     aac:	00011301 	andeq	r1, r1, r1, lsl #6
     ab0:	6d000200 	sfmvs	f0, 4, [r0, #-0]
     ab4:	02000000 	andeq	r0, r0, #0
     ab8:	0d0efb01 	vstreq	d15, [lr, #-4]
     abc:	01010100 	mrseq	r0, (UNDEF: 17)
     ac0:	00000001 	andeq	r0, r0, r1
     ac4:	01000001 	tsteq	r0, r1
     ac8:	6d6f682f 	stclvs	8, cr6, [pc, #-188]!	; a14 <_back_addr-0x14ff5ec>
     acc:	6f6c2f65 	svcvs	0x006c2f65
     ad0:	2f736975 	svccs	0x00736975
     ad4:	35393231 	ldrcc	r3, [r9, #-561]!	; 0x231
     ad8:	6f6f622f 	svcvs	0x006f622f
     adc:	646f6374 	strbtvs	r6, [pc], #-884	; ae4 <_back_addr-0x14ff51c>
     ae0:	62752f65 	rsbsvs	r2, r5, #404	; 0x194
     ae4:	2f746f6f 	svccs	0x00746f6f
     ae8:	6d617865 	stclvs	8, cr7, [r1, #-404]!	; 0xfffffe6c
     aec:	73656c70 	cmnvc	r5, #112, 24	; 0x7000
     af0:	7566652f 	strbvc	r6, [r6, #-1327]!	; 0x52f
     af4:	705f6573 	subsvc	r6, pc, r3, ror r5	; <UNPREDICTABLE>
     af8:	72676f72 	rsbvc	r6, r7, #456	; 0x1c8
     afc:	656d6d61 	strbvs	r6, [sp, #-3425]!	; 0xd61
     b00:	6e692f72 	mcrvs	15, 3, r2, cr9, cr2, {3}
     b04:	64756c63 	ldrbtvs	r6, [r5], #-3171	; 0xc63
     b08:	74000065 	strvc	r0, [r0], #-101	; 0x65
     b0c:	72656d69 	rsbvc	r6, r5, #6720	; 0x1a40
     b10:	0000632e 	andeq	r6, r0, lr, lsr #6
     b14:	79730000 	ldmdbvc	r3!, {}^	; <UNPREDICTABLE>
     b18:	66656473 			; <UNDEFINED> instruction: 0x66656473
     b1c:	00682e73 	rsbeq	r2, r8, r3, ror lr
     b20:	00000001 	andeq	r0, r0, r1
     b24:	a0020500 	andge	r0, r2, r0, lsl #10
     b28:	0301501c 	movweq	r5, #4124	; 0x101c
     b2c:	4b140113 	blmi	500f80 <_back_addr-0xfff080>
     b30:	660d034d 	strvs	r0, [sp], -sp, asr #6
     b34:	034a7303 	movteq	r7, #41731	; 0xa303
     b38:	6d032e0d 	stcvs	14, cr2, [r3, #-52]	; 0xffffffcc
     b3c:	2e13032e 	cdpcs	3, 1, cr0, cr3, cr14, {1}
     b40:	312e7303 	teqcc	lr, r3, lsl #6
     b44:	032e0c03 	teqeq	lr, #768	; 0x300
     b48:	0c032e74 	stceq	14, cr2, [r3], {116}	; 0x74
     b4c:	2e77032e 	cdpcs	3, 7, cr0, cr7, cr14, {1}
     b50:	14503035 	ldrbne	r3, [r0], #-53	; 0x35
     b54:	77038732 	smladxvc	r3, r2, r7, r8
     b58:	314d322e 	cmpcc	sp, lr, lsr #4
     b5c:	10031631 	andne	r1, r3, r1, lsr r6
     b60:	2e790366 	cdpcs	3, 7, cr0, cr9, cr6, {3}
     b64:	039e7703 	orrseq	r7, lr, #786432	; 0xc0000
     b68:	031a661d 	tsteq	sl, #30408704	; 0x1d00000
     b6c:	039e7fb3 	orrseq	r7, lr, #716	; 0x2cc
     b70:	364a00c5 	strbcc	r0, [sl], -r5, asr #1
     b74:	2e7fb603 	cdpcs	6, 7, cr11, cr15, cr3, {0}
     b78:	302e0a03 	eorcc	r0, lr, r3, lsl #20
     b7c:	032e2203 	teqeq	lr, #805306368	; 0x30000000
     b80:	b3032e1c 	movwlt	r2, #15900	; 0x3e1c
     b84:	31312e7f 	teqcc	r1, pc, ror lr
     b88:	02003035 	andeq	r3, r0, #53	; 0x35
     b8c:	22030104 	andcs	r0, r3, #4, 2
     b90:	6621032e 	strtvs	r0, [r1], -lr, lsr #6
     b94:	a6031830 			; <UNDEFINED> instruction: 0xa6031830
     b98:	d403827f 	strle	r8, [r3], #-639	; 0x27f
     b9c:	03344a00 	teqeq	r4, #0, 20
     ba0:	032e7fa9 	teqeq	lr, #676	; 0x2a4
     ba4:	03302e0a 	teqeq	r0, #10, 28	; 0xa0
     ba8:	29032e22 	stmdbcs	r3, {r1, r5, r9, sl, fp, sp}
     bac:	7fa6032e 	svcvc	0x00a6032e
     bb0:	3531312e 	ldrcc	r3, [r1, #-302]!	; 0x12e
     bb4:	04020030 	streq	r0, [r2], #-48	; 0x30
     bb8:	2e220301 	cdpcs	3, 2, cr0, cr2, cr1, {0}
     bbc:	02662e03 	rsbeq	r2, r6, #3, 28	; 0x30
     bc0:	01010002 	tsteq	r1, r2
     bc4:	00000188 	andeq	r0, r0, r8, lsl #3
     bc8:	00760002 	rsbseq	r0, r6, r2
     bcc:	01020000 	mrseq	r0, (UNDEF: 2)
     bd0:	000d0efb 	strdeq	r0, [sp], -fp
     bd4:	01010101 	tsteq	r1, r1, lsl #2
     bd8:	01000000 	mrseq	r0, (UNDEF: 0)
     bdc:	2f010000 	svccs	0x00010000
     be0:	656d6f68 	strbvs	r6, [sp, #-3944]!	; 0xf68
     be4:	756f6c2f 	strbvc	r6, [pc, #-3119]!	; ffffffbd <__bss_end__+0xfeaec5a5>
     be8:	312f7369 	teqcc	pc, r9, ror #6
     bec:	2f353932 	svccs	0x00353932
     bf0:	746f6f62 	strbtvc	r6, [pc], #-3938	; bf8 <_back_addr-0x14ff408>
     bf4:	65646f63 	strbvs	r6, [r4, #-3939]!	; 0xf63
     bf8:	6f62752f 	svcvs	0x0062752f
     bfc:	652f746f 	strvs	r7, [pc, #-1135]!	; 795 <_back_addr-0x14ff86b>
     c00:	706d6178 	rsbvc	r6, sp, r8, ror r1
     c04:	2f73656c 	svccs	0x0073656c
     c08:	73756665 	cmnvc	r5, #105906176	; 0x6500000
     c0c:	72705f65 	rsbsvc	r5, r0, #404	; 0x194
     c10:	6172676f 	cmnvs	r2, pc, ror #14
     c14:	72656d6d 	rsbvc	r6, r5, #6976	; 0x1b40
     c18:	636e692f 	cmnvs	lr, #770048	; 0xbc000
     c1c:	6564756c 	strbvs	r7, [r4, #-1388]!	; 0x56c
     c20:	74750000 	ldrbtvc	r0, [r5], #-0
     c24:	632e6c69 	teqvs	lr, #26880	; 0x6900
     c28:	00000000 	andeq	r0, r0, r0
     c2c:	64737973 	ldrbtvs	r7, [r3], #-2419	; 0x973
     c30:	2e736665 	cdpcs	6, 7, cr6, cr3, cr5, {3}
     c34:	00010068 	andeq	r0, r1, r8, rrx
     c38:	72617500 	rsbvc	r7, r1, #0, 10
     c3c:	00682e74 	rsbeq	r2, r8, r4, ror lr
     c40:	00000001 	andeq	r0, r0, r1
     c44:	08020500 	stmdaeq	r2, {r8, sl}
     c48:	0301501e 	movweq	r5, #4126	; 0x101e
     c4c:	4b130133 	blmi	4c1120 <_back_addr-0x103eee0>
     c50:	4a120367 	bmi	4819f4 <_back_addr-0x107e60c>
     c54:	03334517 	teqeq	r3, #96468992	; 0x5c00000
     c58:	79032e0c 	stmdbvc	r3, {r2, r3, r9, sl, fp, sp}
     c5c:	7603332e 	strvc	r3, [r3], -lr, lsr #6
     c60:	2e0d032e 	cdpcs	3, 0, cr0, cr13, cr14, {1}
     c64:	032e7303 	teqeq	lr, #201326592	; 0xc000000
     c68:	73032e0e 	movwvc	r2, #15886	; 0x3e0e
     c6c:	30336a2e 	eorscc	r6, r3, lr, lsr #20
     c70:	502f2f2f 	eorpl	r2, pc, pc, lsr #30
     c74:	080b0313 	stmdaeq	fp, {r0, r1, r4, r8, r9}
     c78:	7703173c 	smladxvc	r3, ip, r7, r1
     c7c:	4a0b039e 	bmi	2c1afc <_back_addr-0x123e504>
     c80:	84667303 	strbthi	r7, [r6], #-771	; 0x303
     c84:	032e0903 	teqeq	lr, #49152	; 0xc000
     c88:	03848275 	orreq	r8, r4, #1342177287	; 0x50000007
     c8c:	8014664f 	andshi	r6, r4, pc, asr #12
     c90:	034f4c84 	movteq	r4, #64644	; 0xfc84
     c94:	4fa24a79 	svcmi	0x00a24a79
     c98:	00c10329 	sbceq	r0, r1, r9, lsr #6
     c9c:	674c4e4a 	strbvs	r4, [ip, -sl, asr #28]
     ca0:	03826103 	orreq	r6, r2, #-1073741824	; 0xc0000000
     ca4:	61038221 	tstvs	r3, r1, lsr #4
     ca8:	2e1f032e 	cdpcs	3, 1, cr0, cr15, cr14, {1}
     cac:	0314314c 	tsteq	r4, #76, 2
     cb0:	03344a0a 	teqeq	r4, #40960	; 0xa000
     cb4:	03846648 	orreq	r6, r4, #72, 12	; 0x4800000
     cb8:	6a134a3e 	bvs	4d35b8 <_back_addr-0x102ca48>
     cbc:	87334517 			; <UNDEFINED> instruction: 0x87334517
     cc0:	312b2f4c 	teqcc	fp, ip, asr #30
     cc4:	2c302d4d 	ldccs	13, cr2, [r0], #-308	; 0xfffffecc
     cc8:	2e760330 	mrccs	3, 3, r0, cr6, cr0, {1}
     ccc:	312e0b03 	teqcc	lr, r3, lsl #22
     cd0:	9b686813 	blls	1a1ad24 <__bss_end__+0x50730c>
     cd4:	46163135 			; <UNDEFINED> instruction: 0x46163135
     cd8:	03d76b32 	bicseq	r6, r7, #51200	; 0xc800
     cdc:	03667fb8 	cmneq	r6, #184, 30	; 0x2e0
     ce0:	698200ca 	stmibvs	r2, {r1, r3, r6, r7}
     ce4:	46484d68 	strbmi	r4, [r8], -r8, ror #26
     ce8:	2e7a0334 	mrccs	3, 3, r0, cr10, cr4, {1}
     cec:	032d4b52 	teqeq	sp, #83968	; 0x14800
     cf0:	12032e6f 	andne	r2, r3, #1776	; 0x6f0
     cf4:	2e6e034a 	cdpcs	3, 6, cr0, cr14, cr10, {2}
     cf8:	1a2e1d03 	bne	b8810c <_back_addr-0x977ef4>
     cfc:	352e7903 	strcc	r7, [lr, #-2307]!	; 0x903
     d00:	31452d67 	cmpcc	r5, r7, ror #26
     d04:	04020014 	streq	r0, [r2], #-20
     d08:	02006703 	andeq	r6, r0, #786432	; 0xc0000
     d0c:	6b2d0304 	blvs	b41924 <_back_addr-0x9be6dc>
     d10:	02004b6a 	andeq	r4, r0, #108544	; 0x1a800
     d14:	00830304 	addeq	r0, r3, r4, lsl #6
     d18:	81030402 	tsthi	r3, r2, lsl #8
     d1c:	020047c1 	andeq	r4, r0, #50593792	; 0x3040000
     d20:	009f0304 	addseq	r0, pc, r4, lsl #6
     d24:	9d030402 	cfstrsls	mvf0, [r3, #-8]
     d28:	03184dbd 	tsteq	r8, #12096	; 0x2f40
     d2c:	00364a7a 	eorseq	r4, r6, sl, ror sl
     d30:	08020402 	stmdaeq	r2, {r1, sl}
     d34:	4d475056 	stclmi	0, cr5, [r7, #-344]	; 0xfffffea8
     d38:	d468154e 	strbtle	r1, [r8], #-1358	; 0x54e
     d3c:	52292f6d 	eorpl	r2, r9, #436	; 0x1b4
     d40:	2f2a4e13 	svccs	0x002a4e13
     d44:	30312f2d 	eorscc	r2, r1, sp, lsr #30
     d48:	024a1603 	subeq	r1, sl, #3145728	; 0x300000
     d4c:	01010002 	tsteq	r1, r2
     d50:	000001c5 	andeq	r0, r0, r5, asr #3
     d54:	00d40002 	sbcseq	r0, r4, r2
     d58:	01020000 	mrseq	r0, (UNDEF: 2)
     d5c:	000d0efb 	strdeq	r0, [sp], -fp
     d60:	01010101 	tsteq	r1, r1, lsl #2
     d64:	01000000 	mrseq	r0, (UNDEF: 0)
     d68:	2f010000 	svccs	0x00010000
     d6c:	656d6f68 	strbvs	r6, [sp, #-3944]!	; 0xf68
     d70:	756f6c2f 	strbvc	r6, [pc, #-3119]!	; 149 <_back_addr-0x14ffeb7>
     d74:	312f7369 	teqcc	pc, r9, ror #6
     d78:	2f353932 	svccs	0x00353932
     d7c:	746f6f62 	strbtvc	r6, [pc], #-3938	; d84 <_back_addr-0x14ff27c>
     d80:	65646f63 	strbvs	r6, [r4, #-3939]!	; 0xf63
     d84:	6f62752f 	svcvs	0x0062752f
     d88:	652f746f 	strvs	r7, [pc, #-1135]!	; 921 <_back_addr-0x14ff6df>
     d8c:	706d6178 	rsbvc	r6, sp, r8, ror r1
     d90:	2f73656c 	svccs	0x0073656c
     d94:	73756665 	cmnvc	r5, #105906176	; 0x6500000
     d98:	72705f65 	rsbsvc	r5, r0, #404	; 0x194
     d9c:	6172676f 	cmnvs	r2, pc, ror #14
     da0:	72656d6d 	rsbvc	r6, r5, #6976	; 0x1b40
     da4:	2f2e2e2f 	svccs	0x002e2e2f
     da8:	692f2e2e 	stmdbvs	pc!, {r1, r2, r3, r5, r9, sl, fp, sp}	; <UNPREDICTABLE>
     dac:	756c636e 	strbvc	r6, [ip, #-878]!	; 0x36e
     db0:	612f6564 	teqvs	pc, r4, ror #10
     db4:	2f006d73 	svccs	0x00006d73
     db8:	656d6f68 	strbvs	r6, [sp, #-3944]!	; 0xf68
     dbc:	756f6c2f 	strbvc	r6, [pc, #-3119]!	; 195 <_back_addr-0x14ffe6b>
     dc0:	312f7369 	teqcc	pc, r9, ror #6
     dc4:	2f353932 	svccs	0x00353932
     dc8:	746f6f62 	strbtvc	r6, [pc], #-3938	; dd0 <_back_addr-0x14ff230>
     dcc:	65646f63 	strbvs	r6, [r4, #-3939]!	; 0xf63
     dd0:	6f62752f 	svcvs	0x0062752f
     dd4:	652f746f 	strvs	r7, [pc, #-1135]!	; 96d <_back_addr-0x14ff693>
     dd8:	706d6178 	rsbvc	r6, sp, r8, ror r1
     ddc:	2f73656c 	svccs	0x0073656c
     de0:	73756665 	cmnvc	r5, #105906176	; 0x6500000
     de4:	72705f65 	rsbsvc	r5, r0, #404	; 0x194
     de8:	6172676f 	cmnvs	r2, pc, ror #14
     dec:	72656d6d 	rsbvc	r6, r5, #6976	; 0x1b40
     df0:	2f2e2e2f 	svccs	0x002e2e2f
     df4:	692f2e2e 	stmdbvs	pc!, {r1, r2, r3, r5, r9, sl, fp, sp}	; <UNPREDICTABLE>
     df8:	756c636e 	strbvc	r6, [ip, #-878]!	; 0x36e
     dfc:	00006564 	andeq	r6, r0, r4, ror #10
     e00:	68636163 	stmdavs	r3!, {r0, r1, r5, r6, r8, sp, lr}^
     e04:	37765f65 	ldrbcc	r5, [r6, -r5, ror #30]!
     e08:	0000632e 	andeq	r6, r0, lr, lsr #6
     e0c:	74750000 	ldrbtvc	r0, [r5], #-0
     e10:	2e736c69 	cdpcs	12, 7, cr6, cr3, cr9, {3}
     e14:	00010068 	andeq	r0, r1, r8, rrx
     e18:	70797400 	rsbsvc	r7, r9, r0, lsl #8
     e1c:	682e7365 	stmdavs	lr!, {r0, r2, r5, r6, r8, r9, ip, sp, lr}
     e20:	00000100 	andeq	r0, r0, r0, lsl #2
     e24:	2e74656e 	cdpcs	5, 7, cr6, cr4, cr14, {3}
     e28:	00020068 	andeq	r0, r2, r8, rrx
     e2c:	05000000 	streq	r0, [r0, #-0]
     e30:	5022d002 	eorpl	sp, r2, r2
     e34:	01960301 	orrseq	r0, r6, r1, lsl #6
     e38:	7fa50301 	svcvc	0x00a50301
     e3c:	00dc032e 	sbcseq	r0, ip, lr, lsr #6
     e40:	0200322e 	andeq	r3, r0, #-536870910	; 0xe0000002
     e44:	00500204 	subseq	r0, r0, r4, lsl #4
     e48:	03020402 	movweq	r0, #9218	; 0x2402
     e4c:	4c672e7a 	stclmi	14, cr2, [r7], #-488	; 0xfffffe18
     e50:	7f8a032d 	svcvc	0x008a032d
     e54:	0336314a 	teqeq	r6, #-2147483630	; 0x80000012
     e58:	292e00cf 	stmdbcs	lr!, {r0, r1, r2, r3, r6, r7}
     e5c:	02042c33 	andeq	r2, r4, #13056	; 0x3300
     e60:	2e7f9e03 	cdpcs	14, 7, cr9, cr15, cr3, {0}
     e64:	e6030104 	str	r0, [r3], -r4, lsl #2
     e68:	02042e00 	andeq	r2, r4, #0, 28
     e6c:	2e7f9903 	cdpcs	9, 7, cr9, cr15, cr3, {0}
     e70:	332d2f31 	teqcc	sp, #49, 30	; 0xc4
     e74:	0301042f 	movweq	r0, #5167	; 0x142f
     e78:	2d2e00e7 	stccs	0, cr0, [lr, #-924]!	; 0xfffffc64
     e7c:	5403312f 	strpl	r3, [r3], #-303	; 0x12f
     e80:	03342f66 	teqeq	r4, #408	; 0x198
     e84:	03492e79 	movteq	r2, #40569	; 0x9e79
     e88:	32034a0d 	andcc	r4, r3, #53248	; 0xd000
     e8c:	2e7a032e 	cdpcs	3, 7, cr0, cr10, cr14, {1}
     e90:	7fa7036e 	svcvc	0x00a7036e
     e94:	312f672e 	teqcc	pc, lr, lsr #14
     e98:	0285032a 	addeq	r0, r5, #-1476395008	; 0xa8000000
     e9c:	314d1766 	cmpcc	sp, r6, ror #14
     ea0:	4a0c0331 	bmi	301b6c <_back_addr-0x11fe494>
     ea4:	90033434 	andls	r3, r3, r4, lsr r4
     ea8:	2f012e7f 	svccs	0x00012e7f
     eac:	f3032d4d 	vpadd.f32	q1, <illegal reg q1.5>, <illegal reg q6.5>
     eb0:	ff032e00 			; <UNDEFINED> instruction: 0xff032e00
     eb4:	2f012e7e 	svccs	0x00012e7e
     eb8:	27032d4d 	strcs	r2, [r3, -sp, asr #26]
     ebc:	56032f2e 	strpl	r2, [r3], -lr, lsr #30
     ec0:	71034c2e 	tstvc	r3, lr, lsr #24
     ec4:	30304c2e 	eorscc	r4, r0, lr, lsr #24
     ec8:	018b0330 	orreq	r0, fp, r0, lsr r3
     ecc:	7f9c034a 	svcvc	0x009c034a
     ed0:	7e94032e 	cdpvc	3, 9, cr0, cr4, cr14, {1}
     ed4:	01a50301 			; <UNDEFINED> instruction: 0x01a50301
     ed8:	302c332e 	eorcc	r3, ip, lr, lsr #6
     edc:	4b2e4f03 	blmi	b94af0 <_back_addr-0x96b510>
     ee0:	3c032c4c 	stccc	12, cr2, [r3], {76}	; 0x4c
     ee4:	2e390366 	cdpcs	3, 3, cr0, cr9, cr6, {3}
     ee8:	132e0f03 	teqne	lr, #3, 30
     eec:	4a00d703 	bmi	36b00 <_back_addr-0x14c9500>
     ef0:	2e7f8903 	cdpcs	9, 7, cr8, cr15, cr3, {0}
     ef4:	7ea10301 	cdpvc	3, 10, cr0, cr1, cr1, {0}
     ef8:	01a5032e 			; <UNDEFINED> instruction: 0x01a5032e
     efc:	302c332e 	eorcc	r3, ip, lr, lsr #6
     f00:	6a2e5e03 	bvs	b98714 <_back_addr-0x9678ec>
     f04:	32353246 	eorscc	r3, r5, #1610612740	; 0x60000004
     f08:	4c31322a 	lfmmi	f3, 4, [r1], #-168	; 0xffffff58
     f0c:	661c032c 	ldrvs	r0, [ip], -ip, lsr #6
     f10:	2d2e2e03 	stccs	14, cr2, [lr, #-12]!
     f14:	01000202 	tsteq	r0, r2, lsl #4
     f18:	0003c101 	andeq	ip, r3, r1, lsl #2
     f1c:	5c000200 	sfmpl	f0, 4, [r0], {-0}
     f20:	02000001 	andeq	r0, r0, #1
     f24:	0d0efb01 	vstreq	d15, [lr, #-4]
     f28:	01010100 	mrseq	r0, (UNDEF: 17)
     f2c:	00000001 	andeq	r0, r0, r1
     f30:	01000001 	tsteq	r0, r1
     f34:	6c636e69 	stclvs	14, cr6, [r3], #-420	; 0xfffffe5c
     f38:	2f656475 	svccs	0x00656475
     f3c:	62727664 	rsbsvs	r7, r2, #100, 12	; 0x6400000
     f40:	5f746f6f 	svcpl	0x00746f6f
     f44:	00636e69 	rsbeq	r6, r3, r9, ror #28
     f48:	6d6f682f 	stclvs	8, cr6, [pc, #-188]!	; e94 <_back_addr-0x14ff16c>
     f4c:	6f6c2f65 	svcvs	0x006c2f65
     f50:	2f736975 	svccs	0x00736975
     f54:	35393231 	ldrcc	r3, [r9, #-561]!	; 0x231
     f58:	6f6f622f 	svcvs	0x006f622f
     f5c:	646f6374 	strbtvs	r6, [pc], #-884	; f64 <_back_addr-0x14ff09c>
     f60:	62752f65 	rsbsvs	r2, r5, #404	; 0x194
     f64:	2f746f6f 	svccs	0x00746f6f
     f68:	6d617865 	stclvs	8, cr7, [r1, #-404]!	; 0xfffffe6c
     f6c:	73656c70 	cmnvc	r5, #112, 24	; 0x7000
     f70:	7566652f 	strbvc	r6, [r6, #-1327]!	; 0x52f
     f74:	705f6573 	subsvc	r6, pc, r3, ror r5	; <UNPREDICTABLE>
     f78:	72676f72 	rsbvc	r6, r7, #456	; 0x1c8
     f7c:	656d6d61 	strbvs	r6, [sp, #-3425]!	; 0xd61
     f80:	6e692f72 	mcrvs	15, 3, r2, cr9, cr2, {3}
     f84:	64756c63 	ldrbtvs	r6, [r5], #-3171	; 0xc63
     f88:	682f0065 	stmdavs	pc!, {r0, r2, r5, r6}	; <UNPREDICTABLE>
     f8c:	2f656d6f 	svccs	0x00656d6f
     f90:	69756f6c 	ldmdbvs	r5!, {r2, r3, r5, r6, r8, r9, sl, fp, sp, lr}^
     f94:	32312f73 	eorscc	r2, r1, #460	; 0x1cc
     f98:	622f3539 	eorvs	r3, pc, #239075328	; 0xe400000
     f9c:	63746f6f 	cmnvs	r4, #444	; 0x1bc
     fa0:	2f65646f 	svccs	0x0065646f
     fa4:	6f6f6275 	svcvs	0x006f6275
     fa8:	78652f74 	stmdavc	r5!, {r2, r4, r5, r6, r8, r9, sl, fp, sp}^
     fac:	6c706d61 	ldclvs	13, cr6, [r0], #-388	; 0xfffffe7c
     fb0:	652f7365 	strvs	r7, [pc, #-869]!	; c53 <_back_addr-0x14ff3ad>
     fb4:	65737566 	ldrbvs	r7, [r3, #-1382]!	; 0x566
     fb8:	6f72705f 	svcvs	0x0072705f
     fbc:	6d617267 	sfmvs	f7, 2, [r1, #-412]!	; 0xfffffe64
     fc0:	2f72656d 	svccs	0x0072656d
     fc4:	2e2f2e2e 	cdpcs	14, 2, cr2, cr15, cr14, {1}
     fc8:	6e692f2e 	cdpvs	15, 6, cr2, cr9, cr14, {1}
     fcc:	64756c63 	ldrbtvs	r6, [r5], #-3171	; 0xc63
     fd0:	73612f65 	cmnvc	r1, #404	; 0x194
     fd4:	682f006d 	stmdavs	pc!, {r0, r2, r3, r5, r6}	; <UNPREDICTABLE>
     fd8:	2f656d6f 	svccs	0x00656d6f
     fdc:	69756f6c 	ldmdbvs	r5!, {r2, r3, r5, r6, r8, r9, sl, fp, sp, lr}^
     fe0:	32312f73 	eorscc	r2, r1, #460	; 0x1cc
     fe4:	622f3539 	eorvs	r3, pc, #239075328	; 0xe400000
     fe8:	63746f6f 	cmnvs	r4, #444	; 0x1bc
     fec:	2f65646f 	svccs	0x0065646f
     ff0:	6f6f6275 	svcvs	0x006f6275
     ff4:	78652f74 	stmdavc	r5!, {r2, r4, r5, r6, r8, r9, sl, fp, sp}^
     ff8:	6c706d61 	ldclvs	13, cr6, [r0], #-388	; 0xfffffe7c
     ffc:	652f7365 	strvs	r7, [pc, #-869]!	; c9f <_back_addr-0x14ff361>
    1000:	65737566 	ldrbvs	r7, [r3, #-1382]!	; 0x566
    1004:	6f72705f 	svcvs	0x0072705f
    1008:	6d617267 	sfmvs	f7, 2, [r1, #-412]!	; 0xfffffe64
    100c:	2f72656d 	svccs	0x0072656d
    1010:	6c636e69 	stclvs	14, cr6, [r3], #-420	; 0xfffffe5c
    1014:	2f656475 	svccs	0x00656475
    1018:	62727664 	rsbsvs	r7, r2, #100, 12	; 0x6400000
    101c:	5f746f6f 	svcpl	0x00746f6f
    1020:	00636e69 	rsbeq	r6, r3, r9, ror #28
    1024:	75666500 	strbvc	r6, [r6, #-1280]!	; 0x500
    1028:	632e6573 	teqvs	lr, #482344960	; 0x1cc00000
    102c:	00000000 	andeq	r0, r0, r0
    1030:	682e6f69 	stmdavs	lr!, {r0, r3, r5, r6, r8, r9, sl, fp, sp, lr}
    1034:	00000100 	andeq	r0, r0, r0, lsl #2
    1038:	5f70746f 	svcpl	0x0070746f
    103c:	2e676572 	mcrcs	5, 3, r6, cr7, cr2, {3}
    1040:	00020068 	andeq	r0, r2, r8, rrx
    1044:	70797400 	rsbsvc	r7, r9, r0, lsl #8
    1048:	682e7365 	stmdavs	lr!, {r0, r2, r5, r6, r8, r9, ip, sp, lr}
    104c:	00000300 	andeq	r0, r0, r0, lsl #6
    1050:	65707974 	ldrbvs	r7, [r0, #-2420]!	; 0x974
    1054:	00682e73 	rsbeq	r2, r8, r3, ror lr
    1058:	63000000 	movwvs	r0, #0
    105c:	65707974 	ldrbvs	r7, [r0, #-2420]!	; 0x974
    1060:	0400682e 	streq	r6, [r0], #-2094	; 0x82e
    1064:	69740000 	ldmdbvs	r4!, {}^	; <UNPREDICTABLE>
    1068:	2e72656d 	cdpcs	5, 7, cr6, cr2, cr13, {3}
    106c:	00010068 	andeq	r0, r1, r8, rrx
    1070:	6d6f6300 	stclvs	3, cr6, [pc, #-0]	; 1078 <_back_addr-0x14fef88>
    1074:	646e616d 	strbtvs	r6, [lr], #-365	; 0x16d
    1078:	0000682e 	andeq	r6, r0, lr, lsr #16
    107c:	00000000 	andeq	r0, r0, r0
    1080:	24e80205 	strbtcs	r0, [r8], #517	; 0x205
    1084:	f4030150 	vst4.16	{d0,d2,d4,d6}, [r3 :64], r0
    1088:	03660100 	cmneq	r6, #0, 2
    108c:	4b4b6609 	blmi	12da8b8 <_back_addr-0x225748>
    1090:	12034c2f 	andne	r4, r3, #12032	; 0x2f00
    1094:	2e6e032e 	cdpcs	3, 6, cr0, cr14, cr14, {1}
    1098:	1103dd2f 	tstne	r3, pc, lsr #26
    109c:	4a6f034a 	bmi	1bc1dcc <__bss_end__+0x6ae3b4>
    10a0:	03f20a03 	mvnseq	r0, #12288	; 0x3000
    10a4:	0d032e76 	stceq	14, cr2, [r3, #-472]	; 0xfffffe28
    10a8:	2e73032e 	cdpcs	3, 7, cr0, cr3, cr14, {1}
    10ac:	30492f30 	subcc	r2, r9, r0, lsr pc
    10b0:	4c2c304b 	stcmi	0, cr3, [ip], #-300	; 0xfffffed4
    10b4:	31652f4c 	cmncc	r5, ip, asr #30
    10b8:	034a7403 	movteq	r7, #41987	; 0xa403
    10bc:	74032e0c 	strvc	r2, [r3], #-3596	; 0xe0c
    10c0:	2e0d032e 	cdpcs	3, 0, cr0, cr13, cr14, {1}
    10c4:	032e7303 	teqeq	lr, #201326592	; 0xc000000
    10c8:	3e086611 	mcrcc	6, 0, r6, cr8, cr1, {0}
    10cc:	01040200 	mrseq	r0, R12_usr
    10d0:	04020065 	streq	r0, [r2], #-101	; 0x65
    10d4:	814b4902 	cmphi	fp, r2, lsl #18
    10d8:	304e2c30 	subcc	r2, lr, r0, lsr ip
    10dc:	892f682c 	stmdbhi	pc!, {r2, r3, r5, fp, sp, lr}	; <UNPREDICTABLE>
    10e0:	2d2c312b 	stfcss	f3, [ip, #-172]!	; 0xffffff54
    10e4:	2e59034d 	cdpcs	3, 5, cr0, cr9, cr13, {2}
    10e8:	2f4a2b03 	svccs	0x004a2b03
    10ec:	884a7603 	stmdahi	sl, {r0, r1, r9, sl, ip, sp, lr}^
    10f0:	02aa0332 	adceq	r0, sl, #-939524096	; 0xc8000000
    10f4:	2e0a034a 	cdpcs	3, 0, cr0, cr10, cr10, {2}
    10f8:	1d032d30 	stcne	13, cr2, [r3, #-192]	; 0xffffff40
    10fc:	2e0c032e 	cdpcs	3, 0, cr0, cr12, cr14, {1}
    1100:	02002108 	andeq	r2, r0, #8, 2
    1104:	00a30304 	adceq	r0, r3, r4, lsl #6
    1108:	9c030402 	cfstrsls	mvf0, [r3], {2}
    110c:	0200bb50 	andeq	fp, r0, #80, 22	; 0x14000
    1110:	00a10304 	adceq	r0, r1, r4, lsl #6
    1114:	9c030402 	cfstrsls	mvf0, [r3], {2}
    1118:	2f168550 	svccs	0x00168550
    111c:	4b302f30 	blmi	c0cde4 <_back_addr-0x8f321c>
    1120:	9e030204 	cdpls	2, 0, cr0, cr3, cr4, {0}
    1124:	01042e7c 	tsteq	r4, ip, ror lr
    1128:	2e03e203 	cdpcs	2, 0, cr14, cr3, cr3, {0}
    112c:	7eca034b 	cdpvc	3, 12, cr0, cr10, cr11, {2}
    1130:	2f4b334a 	svccs	0x004b334a
    1134:	4d302c30 	ldcmi	12, cr2, [r0, #-192]!	; 0xffffff40
    1138:	4a01ad03 	bmi	6c54c <_back_addr-0x1493ab4>
    113c:	03020416 	movweq	r0, #9238	; 0x2416
    1140:	042e7cb1 	strteq	r7, [lr], #-3249	; 0xcb1
    1144:	03ce0301 	biceq	r0, lr, #67108864	; 0x4000000
    1148:	0302044a 	movweq	r0, #9290	; 0x244a
    114c:	042e7c97 	strteq	r7, [lr], #-3223	; 0xc97
    1150:	03f10301 	mvnseq	r0, #67108864	; 0x4000000
    1154:	0302042e 	movweq	r0, #9262	; 0x242e
    1158:	00667caa 	rsbeq	r7, r6, sl, lsr #25
    115c:	03010402 	movweq	r0, #5122	; 0x1402
    1160:	01042e65 	tsteq	r4, r5, ror #28
    1164:	01040200 	mrseq	r0, R12_usr
    1168:	6603f303 	strvs	pc, [r3], -r3, lsl #6
    116c:	6f03304c 	svcvs	0x0003304c
    1170:	0302042e 	movweq	r0, #9262	; 0x242e
    1174:	042e7cb5 	strteq	r7, [lr], #-3253	; 0xcb5
    1178:	03dc0301 	bicseq	r0, ip, #67108864	; 0x4000000
    117c:	044d352e 	strbeq	r3, [sp], #-1326	; 0x52e
    1180:	7bff0302 	blvc	fffc1d90 <__bss_end__+0xfeaae378>
    1184:	03010401 	movweq	r0, #5121	; 0x1401
    1188:	044a0481 	strbeq	r0, [sl], #-1153	; 0x481
    118c:	7bff0302 	blvc	fffc1d9c <__bss_end__+0xfeaae384>
    1190:	0301042e 	movweq	r0, #5166	; 0x142e
    1194:	042e048d 	strteq	r0, [lr], #-1165	; 0x48d
    1198:	7c8e0302 	stcvc	3, cr0, [lr], {2}
    119c:	0301042e 	movweq	r0, #5166	; 0x142e
    11a0:	356603f2 	strbcc	r0, [r6, #-1010]!	; 0x3f2
    11a4:	4a7cdb03 	bmi	1f37db8 <__bss_end__+0xa243a0>
    11a8:	4a0d032e 	bmi	341e68 <_back_addr-0x11be198>
    11ac:	032e7303 	teqeq	lr, #201326592	; 0xc000000
    11b0:	00302e0d 	eorseq	r2, r0, sp, lsl #28
    11b4:	06020402 	streq	r0, [r2], -r2, lsl #8
    11b8:	2d89069e 	stccs	6, cr0, [r9, #632]	; 0x278
    11bc:	034c2f2f 	movteq	r2, #53039	; 0xcf2f
    11c0:	0a032e76 	beq	ccba0 <_back_addr-0x1433460>
    11c4:	2e76032e 	cdpcs	3, 7, cr0, cr6, cr14, {1}
    11c8:	2a661a03 	bcs	19879dc <__bss_end__+0x473fc4>
    11cc:	69843235 	stmibvs	r4, {r0, r2, r4, r5, r9, ip, sp}
    11d0:	039c8930 	orrseq	r8, ip, #48, 18	; 0xc0000
    11d4:	2f2c2e0b 	svccs	0x002c2e0b
    11d8:	4a01c103 	bmi	715ec <_back_addr-0x148ea14>
    11dc:	032f2d13 	teqeq	pc, #1216	; 0x4c0
    11e0:	03878209 	orreq	r8, r7, #-1879048192	; 0x90000000
    11e4:	0b034a75 	bleq	d3bc0 <_back_addr-0x142c440>
    11e8:	4a780382 	bmi	1e01ff8 <__bss_end__+0x8ee5e0>
    11ec:	842fa18a 	strthi	sl, [pc], #-394	; 11f4 <_back_addr-0x14fee0c>
    11f0:	667ec303 	ldrbtvs	ip, [lr], -r3, lsl #6
    11f4:	304b4b32 	subcc	r4, fp, r2, lsr fp
    11f8:	4b4b324c 	blmi	12cdb30 <_back_addr-0x2324d0>
    11fc:	4b324c30 	blmi	c942c4 <_back_addr-0x86bd3c>
    1200:	324d304b 	subcc	r3, sp, #75	; 0x4b
    1204:	4d304b4b 	fldmdbxmi	r0!, {d4-d40}	;@ Deprecated
    1208:	304b4b32 	subcc	r4, fp, r2, lsr fp
    120c:	4b4b324d 	blmi	12cdb48 <_back_addr-0x2324b8>
    1210:	4b324d30 	blmi	c946d8 <_back_addr-0x86b928>
    1214:	324d304b 	subcc	r3, sp, #75	; 0x4b
    1218:	4c304b4b 	ldcmi	11, cr4, [r0], #-300	; 0xfffffed4
    121c:	304b4b32 	subcc	r4, fp, r2, lsr fp
    1220:	134a1103 	movtne	r1, #41219	; 0xa103
    1224:	342f2e49 	strtcc	r2, [pc], #-3657	; 122c <_back_addr-0x14fedd4>
    1228:	4c51514d 	ldfmie	f5, [r1], {77}	; 0x4d
    122c:	672e6903 	strvs	r6, [lr, -r3, lsl #18]!
    1230:	034a1203 	movteq	r1, #41475	; 0xa203
    1234:	034c6679 	movteq	r6, #50809	; 0xc679
    1238:	4913660c 	ldmdbmi	r3, {r2, r3, r9, sl, sp, lr}
    123c:	4d342f2e 	ldcmi	15, cr2, [r4, #-184]!	; 0xffffff48
    1240:	034c5151 	movteq	r5, #49489	; 0xc151
    1244:	03672e69 	cmneq	r7, #1680	; 0x690
    1248:	79034a12 	stmdbvc	r3, {r1, r4, r9, fp, lr}
    124c:	33034c66 	movwcc	r4, #15462	; 0x3c66
    1250:	83bb2f66 			; <UNDEFINED> instruction: 0x83bb2f66
    1254:	2f848383 	svccs	0x00848383
    1258:	2f2f2f2f 	svccs	0x002f2f2f
    125c:	4b4b4b2f 	blmi	12d3f20 <_back_addr-0x22c0e0>
    1260:	00e7034d 	rsceq	r0, r7, sp, asr #6
    1264:	302c174a 	eorcc	r1, ip, sl, asr #14
    1268:	df030204 	svcle	0x00030204
    126c:	01044a7b 	tsteq	r4, fp, ror sl
    1270:	4a049c03 	bmi	128284 <_back_addr-0x13d7d7c>
    1274:	e7030204 	str	r0, [r3, -r4, lsl #4]
    1278:	0104827b 	tsteq	r4, fp, ror r2
    127c:	4a04a003 	bmi	129290 <_back_addr-0x13d6d70>
    1280:	0002042c 	andeq	r0, r2, ip, lsr #8
    1284:	03030402 	movweq	r0, #13314	; 0x3402
    1288:	a0667bdf 	ldrdge	r7, [r6], #-191	; 0xffffff41	; <UNPREDICTABLE>
    128c:	01042b31 	tsteq	r4, r1, lsr fp
    1290:	2e04a103 	mvfcss	f2, f3
    1294:	1a854f48 	bne	fe154fbc <__bss_end__+0xfcc415a4>
    1298:	78032f2d 	stmdavc	r3, {r0, r2, r3, r5, r8, r9, sl, fp, sp}
    129c:	0402002e 	streq	r0, [r2], #-46	; 0x2e
    12a0:	4a0a0303 	bmi	281eb4 <_back_addr-0x127e14c>
    12a4:	03040200 	movweq	r0, #16896	; 0x4200
    12a8:	0402002f 	streq	r0, [r2], #-47	; 0x2f
    12ac:	02004b03 	andeq	r4, r0, #3072	; 0xc00
    12b0:	042f0304 	strteq	r0, [pc], #-772	; 12b8 <_back_addr-0x14fed48>
    12b4:	04020002 	streq	r0, [r2], #-2
    12b8:	7bcf0303 	blvc	ff3c1ecc <__bss_end__+0xfdeae4b4>
    12bc:	00010466 	andeq	r0, r1, r6, ror #8
    12c0:	03030402 	movweq	r0, #13314	; 0x3402
    12c4:	002e04b1 	strhteq	r0, [lr], -r1
    12c8:	45030402 	strmi	r0, [r3, #-1026]	; 0x402
    12cc:	7d850352 	stcvc	3, cr0, [r5, #328]	; 0x148
    12d0:	80893082 	addhi	r3, r9, r2, lsl #1
    12d4:	642e0b03 	strtvs	r0, [lr], #-2819	; 0xb03
    12d8:	0004024b 	andeq	r0, r4, fp, asr #4
    12dc:	Address 0x000012dc is out of bounds.


Disassembly of section .debug_frame:

00000000 <.debug_frame>:
   0:	0000000c 	andeq	r0, r0, ip
   4:	ffffffff 			; <UNDEFINED> instruction: 0xffffffff
   8:	7c020001 	stcvc	0, cr0, [r2], {1}
   c:	000d0c0e 	andeq	r0, sp, lr, lsl #24
  10:	0000000c 	andeq	r0, r0, ip
  14:	00000000 	andeq	r0, r0, r0
  18:	01500074 	cmpeq	r0, r4, ror r0
  1c:	00000028 	andeq	r0, r0, r8, lsr #32
  20:	0000000c 	andeq	r0, r0, ip
  24:	ffffffff 			; <UNDEFINED> instruction: 0xffffffff
  28:	7c020001 	stcvc	0, cr0, [r2], {1}
  2c:	000d0c0e 	andeq	r0, sp, lr, lsl #24
  30:	0000001c 	andeq	r0, r0, ip, lsl r0
  34:	00000020 	andeq	r0, r0, r0, lsr #32
  38:	0150009c 			; <UNDEFINED> instruction: 0x0150009c
  3c:	000000a0 	andeq	r0, r0, r0, lsr #1
  40:	840c0e48 	strhi	r0, [ip], #-3656	; 0xe48
  44:	8e028503 	cfsh32hi	mvfx8, mvfx2, #3
  48:	0e440201 	cdpeq	2, 4, cr0, cr4, cr1, {0}
  4c:	cec5c400 	cdpgt	4, 12, cr12, cr5, cr0, {0}
  50:	0000000c 	andeq	r0, r0, ip
  54:	ffffffff 			; <UNDEFINED> instruction: 0xffffffff
  58:	7c020001 	stcvc	0, cr0, [r2], {1}
  5c:	000d0c0e 	andeq	r0, sp, lr, lsl #24
  60:	00000020 	andeq	r0, r0, r0, lsr #32
  64:	00000050 	andeq	r0, r0, r0, asr r0
  68:	0150013c 	cmpeq	r0, ip, lsr r1
  6c:	00000194 	muleq	r0, r4, r1
  70:	84200e42 	strthi	r0, [r0], #-3650	; 0xe42
  74:	86078508 	strhi	r8, [r7], -r8, lsl #10
  78:	88058706 	stmdahi	r5, {r1, r2, r8, r9, sl, pc}
  7c:	8a038904 	bhi	e2494 <_back_addr-0x141db6c>
  80:	00018e02 	andeq	r8, r1, r2, lsl #28
  84:	0000000c 	andeq	r0, r0, ip
  88:	ffffffff 			; <UNDEFINED> instruction: 0xffffffff
  8c:	7c020001 	stcvc	0, cr0, [r2], {1}
  90:	000d0c0e 	andeq	r0, sp, lr, lsl #24
  94:	0000000c 	andeq	r0, r0, ip
  98:	00000084 	andeq	r0, r0, r4, lsl #1
  9c:	015002d0 	ldrsbeq	r0, [r0, #-32]	; 0xffffffe0
  a0:	00000008 	andeq	r0, r0, r8
  a4:	00000020 	andeq	r0, r0, r0, lsr #32
  a8:	00000084 	andeq	r0, r0, r4, lsl #1
  ac:	015002d8 	ldrsbeq	r0, [r0, #-40]	; 0xffffffd8
  b0:	00000010 	andeq	r0, r0, r0, lsl r0
  b4:	80100e42 	andshi	r0, r0, r2, asr #28
  b8:	82038104 	andhi	r8, r3, #4, 2
  bc:	44018302 	strmi	r8, [r1], #-770	; 0x302
  c0:	c0c1c2c3 	sbcgt	ip, r1, r3, asr #5
  c4:	0000000e 	andeq	r0, r0, lr
  c8:	0000000c 	andeq	r0, r0, ip
  cc:	00000084 	andeq	r0, r0, r4, lsl #1
  d0:	015002e8 	cmpeq	r0, r8, ror #5
  d4:	00000024 	andeq	r0, r0, r4, lsr #32
  d8:	00000018 	andeq	r0, r0, r8, lsl r0
  dc:	00000084 	andeq	r0, r0, r4, lsl #1
  e0:	0150030c 	cmpeq	r0, ip, lsl #6
  e4:	00000058 	andeq	r0, r0, r8, asr r0
  e8:	8e040e54 	mcrhi	14, 0, r0, cr4, cr4, {2}
  ec:	000e5401 	andeq	r5, lr, r1, lsl #8
  f0:	000000ce 	andeq	r0, r0, lr, asr #1
  f4:	00000030 	andeq	r0, r0, r0, lsr r0
  f8:	00000084 	andeq	r0, r0, r4, lsl #1
  fc:	01500364 	cmpeq	r0, r4, ror #6
 100:	000000ec 	andeq	r0, r0, ip, ror #1
 104:	840c0e42 	strhi	r0, [ip], #-3650	; 0xe42
 108:	8e028503 	cfsh32hi	mvfx8, mvfx2, #3
 10c:	180e4601 	stmdane	lr, {r0, r9, sl, lr}
 110:	0e0a4c02 	cdpeq	12, 0, cr4, cr10, cr2, {0}
 114:	4a0b420c 	bmi	2d094c <_back_addr-0x122f6b4>
 118:	420c0e0a 	andmi	r0, ip, #10, 28	; 0xa0
 11c:	0e0a4a0b 	vmlaeq.f32	s8, s20, s22
 120:	460b420c 	strmi	r4, [fp], -ip, lsl #4
 124:	00000c0e 	andeq	r0, r0, lr, lsl #24
 128:	00000014 	andeq	r0, r0, r4, lsl r0
 12c:	00000084 	andeq	r0, r0, r4, lsl #1
 130:	01500450 	cmpeq	r0, r0, asr r4
 134:	00000050 	andeq	r0, r0, r0, asr r0
 138:	84080e4a 	strhi	r0, [r8], #-3658	; 0xe4a
 13c:	00018e02 	andeq	r8, r1, r2, lsl #28
 140:	0000000c 	andeq	r0, r0, ip
 144:	ffffffff 			; <UNDEFINED> instruction: 0xffffffff
 148:	7c020001 	stcvc	0, cr0, [r2], {1}
 14c:	000d0c0e 	andeq	r0, sp, lr, lsl #24
 150:	00000018 	andeq	r0, r0, r8, lsl r0
 154:	00000140 	andeq	r0, r0, r0, asr #2
 158:	015004a0 	cmpeq	r0, r0, lsr #9
 15c:	00000070 	andeq	r0, r0, r0, ror r0
 160:	84100e42 	ldrhi	r0, [r0], #-3650	; 0xe42
 164:	86038504 	strhi	r8, [r3], -r4, lsl #10
 168:	00018e02 	andeq	r8, r1, r2, lsl #28
 16c:	0000000c 	andeq	r0, r0, ip
 170:	00000140 	andeq	r0, r0, r0, asr #2
 174:	01500510 	cmpeq	r0, r0, lsl r5
 178:	00000034 	andeq	r0, r0, r4, lsr r0
 17c:	00000020 	andeq	r0, r0, r0, lsr #32
 180:	00000140 	andeq	r0, r0, r0, asr #2
 184:	01500544 	cmpeq	r0, r4, asr #10
 188:	00000108 	andeq	r0, r0, r8, lsl #2
 18c:	84100e46 	ldrhi	r0, [r0], #-3654	; 0xe46
 190:	86038504 	strhi	r8, [r3], -r4, lsl #10
 194:	02018e02 	andeq	r8, r1, #2, 28
 198:	c4000e7a 	strgt	r0, [r0], #-3706	; 0xe7a
 19c:	00cec6c5 	sbceq	ip, lr, r5, asr #13
 1a0:	0000000c 	andeq	r0, r0, ip
 1a4:	00000140 	andeq	r0, r0, r0, asr #2
 1a8:	0150064c 	cmpeq	r0, ip, asr #12
 1ac:	00000008 	andeq	r0, r0, r8
 1b0:	00000028 	andeq	r0, r0, r8, lsr #32
 1b4:	00000140 	andeq	r0, r0, r0, asr #2
 1b8:	01500654 	cmpeq	r0, r4, asr r6
 1bc:	00000270 	andeq	r0, r0, r0, ror r2
 1c0:	840c0e42 	strhi	r0, [ip], #-3650	; 0xe42
 1c4:	8e028503 	cfsh32hi	mvfx8, mvfx2, #3
 1c8:	200e4801 	andcs	r4, lr, r1, lsl #16
 1cc:	0e0a8a02 	vmlaeq.f32	s16, s20, s4
 1d0:	5c0b420c 	sfmpl	f4, 4, [fp], {12}
 1d4:	420c0e0a 	andmi	r0, ip, #10, 28	; 0xa0
 1d8:	0000000b 	andeq	r0, r0, fp
 1dc:	00000028 	andeq	r0, r0, r8, lsr #32
 1e0:	00000140 	andeq	r0, r0, r0, asr #2
 1e4:	015008c4 	cmpeq	r0, r4, asr #17
 1e8:	00000090 	muleq	r0, r0, r0
 1ec:	84180e42 	ldrhi	r0, [r8], #-3650	; 0xe42
 1f0:	86058506 	strhi	r8, [r5], -r6, lsl #10
 1f4:	88038704 	stmdahi	r3, {r2, r8, r9, sl, pc}
 1f8:	70018e02 	andvc	r8, r1, r2, lsl #28
 1fc:	c7c8ce0a 	strbgt	ip, [r8, sl, lsl #28]
 200:	0ec4c5c6 	cdpeq	5, 12, cr12, cr4, cr6, {6}
 204:	000b4200 	andeq	r4, fp, r0, lsl #4
 208:	00000028 	andeq	r0, r0, r8, lsr #32
 20c:	00000140 	andeq	r0, r0, r0, asr #2
 210:	01500954 	cmpeq	r0, r4, asr r9
 214:	00000090 	muleq	r0, r0, r0
 218:	84180e42 	ldrhi	r0, [r8], #-3650	; 0xe42
 21c:	86058506 	strhi	r8, [r5], -r6, lsl #10
 220:	88038704 	stmdahi	r3, {r2, r8, r9, sl, pc}
 224:	70018e02 	andvc	r8, r1, r2, lsl #28
 228:	c7c8ce0a 	strbgt	ip, [r8, sl, lsl #28]
 22c:	0ec4c5c6 	cdpeq	5, 12, cr12, cr4, cr6, {6}
 230:	000b4200 	andeq	r4, fp, r0, lsl #4
 234:	00000028 	andeq	r0, r0, r8, lsr #32
 238:	00000140 	andeq	r0, r0, r0, asr #2
 23c:	015009e4 	cmpeq	r0, r4, ror #19
 240:	00000094 	muleq	r0, r4, r0
 244:	84180e42 	ldrhi	r0, [r8], #-3650	; 0xe42
 248:	86058506 	strhi	r8, [r5], -r6, lsl #10
 24c:	88038704 	stmdahi	r3, {r2, r8, r9, sl, pc}
 250:	70018e02 	andvc	r8, r1, r2, lsl #28
 254:	c7c8ce0a 	strbgt	ip, [r8, sl, lsl #28]
 258:	0ec4c5c6 	cdpeq	5, 12, cr12, cr4, cr6, {6}
 25c:	000b4200 	andeq	r4, fp, r0, lsl #4
 260:	0000001c 	andeq	r0, r0, ip, lsl r0
 264:	00000140 	andeq	r0, r0, r0, asr #2
 268:	01500a78 	cmpeq	r0, r8, ror sl
 26c:	000000ec 	andeq	r0, r0, ip, ror #1
 270:	84180e42 	ldrhi	r0, [r8], #-3650	; 0xe42
 274:	86058506 	strhi	r8, [r5], -r6, lsl #10
 278:	88038704 	stmdahi	r3, {r2, r8, r9, sl, pc}
 27c:	00018e02 	andeq	r8, r1, r2, lsl #28
 280:	00000024 	andeq	r0, r0, r4, lsr #32
 284:	00000140 	andeq	r0, r0, r0, asr #2
 288:	01500b64 	cmpeq	r0, r4, ror #22
 28c:	00000070 	andeq	r0, r0, r0, ror r0
 290:	84100e42 	ldrhi	r0, [r0], #-3650	; 0xe42
 294:	86038504 	strhi	r8, [r3], -r4, lsl #10
 298:	70018e02 	andvc	r8, r1, r2, lsl #28
 29c:	c5c6ce0a 	strbgt	ip, [r6, #3594]	; 0xe0a
 2a0:	42000ec4 	andmi	r0, r0, #196, 28	; 0xc40
 2a4:	0000000b 	andeq	r0, r0, fp
 2a8:	00000028 	andeq	r0, r0, r8, lsr #32
 2ac:	00000140 	andeq	r0, r0, r0, asr #2
 2b0:	01500bd4 	ldrsbeq	r0, [r0, #-180]	; 0xffffff4c
 2b4:	00000158 	andeq	r0, r0, r8, asr r1
 2b8:	84180e4c 	ldrhi	r0, [r8], #-3660	; 0xe4c
 2bc:	86058506 	strhi	r8, [r5], -r6, lsl #10
 2c0:	88038704 	stmdahi	r3, {r2, r8, r9, sl, pc}
 2c4:	02018e02 	andeq	r8, r1, #2, 28
 2c8:	c4000e9c 	strgt	r0, [r0], #-3740	; 0xe9c
 2cc:	c8c7c6c5 	stmiagt	r7, {r0, r2, r6, r7, r9, sl, lr, pc}^
 2d0:	000000ce 	andeq	r0, r0, lr, asr #1
 2d4:	00000040 	andeq	r0, r0, r0, asr #32
 2d8:	00000140 	andeq	r0, r0, r0, asr #2
 2dc:	01500d2c 	cmpeq	r0, ip, lsr #26
 2e0:	000000cc 	andeq	r0, r0, ip, asr #1
 2e4:	84180e48 	ldrhi	r0, [r8], #-3656	; 0xe48
 2e8:	86058506 	strhi	r8, [r5], -r6, lsl #10
 2ec:	88038704 	stmdahi	r3, {r2, r8, r9, sl, pc}
 2f0:	74018e02 	strvc	r8, [r1], #-3586	; 0xe02
 2f4:	c7c8ce0a 	strbgt	ip, [r8, sl, lsl #28]
 2f8:	0ec4c5c6 	cdpeq	5, 12, cr12, cr4, cr6, {6}
 2fc:	600b4200 	andvs	r4, fp, r0, lsl #4
 300:	c5c4000e 	strbgt	r0, [r4, #14]
 304:	cec8c7c6 	cdpgt	7, 12, cr12, cr8, cr6, {6}
 308:	84180e44 	ldrhi	r0, [r8], #-3652	; 0xe44
 30c:	86058506 	strhi	r8, [r5], -r6, lsl #10
 310:	88038704 	stmdahi	r3, {r2, r8, r9, sl, pc}
 314:	00018e02 	andeq	r8, r1, r2, lsl #28
 318:	00000028 	andeq	r0, r0, r8, lsr #32
 31c:	00000140 	andeq	r0, r0, r0, asr #2
 320:	01500df8 	ldrsheq	r0, [r0, #-216]	; 0xffffff28
 324:	0000017c 	andeq	r0, r0, ip, ror r1
 328:	84100e42 	ldrhi	r0, [r0], #-3650	; 0xe42
 32c:	86038504 	strhi	r8, [r3], -r4, lsl #10
 330:	46018e02 	strmi	r8, [r1], -r2, lsl #28
 334:	0202900e 	andeq	r9, r2, #14
 338:	100e0a9c 	mulne	lr, ip, sl
 33c:	0a4a0b42 	beq	128304c <_back_addr-0x27cfb4>
 340:	0b42100e 	bleq	1084380 <_back_addr-0x47bc80>
 344:	00000028 	andeq	r0, r0, r8, lsr #32
 348:	00000140 	andeq	r0, r0, r0, asr #2
 34c:	01500f74 	cmpeq	r0, r4, ror pc
 350:	00000108 	andeq	r0, r0, r8, lsl #2
 354:	84180e4c 	ldrhi	r0, [r8], #-3660	; 0xe4c
 358:	86058506 	strhi	r8, [r5], -r6, lsl #10
 35c:	88038704 	stmdahi	r3, {r2, r8, r9, sl, pc}
 360:	02018e02 	andeq	r8, r1, #2, 28
 364:	c8ce0a40 	stmiagt	lr, {r6, r9, fp}^
 368:	c4c5c6c7 	strbgt	ip, [r5], #1735	; 0x6c7
 36c:	0b42000e 	bleq	10803ac <_back_addr-0x47fc54>
 370:	0000000c 	andeq	r0, r0, ip
 374:	00000140 	andeq	r0, r0, r0, asr #2
 378:	0150107c 	cmpeq	r0, ip, ror r0
 37c:	00000028 	andeq	r0, r0, r8, lsr #32
 380:	0000000c 	andeq	r0, r0, ip
 384:	ffffffff 			; <UNDEFINED> instruction: 0xffffffff
 388:	7c020001 	stcvc	0, cr0, [r2], {1}
 38c:	000d0c0e 	andeq	r0, sp, lr, lsl #24
 390:	00000024 	andeq	r0, r0, r4, lsr #32
 394:	00000380 	andeq	r0, r0, r0, lsl #7
 398:	015010a4 	cmpeq	r0, r4, lsr #1
 39c:	000001bc 			; <UNDEFINED> instruction: 0x000001bc
 3a0:	84140e42 	ldrhi	r0, [r4], #-3650	; 0xe42
 3a4:	86048505 	strhi	r8, [r4], -r5, lsl #10
 3a8:	8e028703 	cdphi	7, 0, cr8, cr2, cr3, {0}
 3ac:	280e4601 	stmdacs	lr, {r0, r9, sl, lr}
 3b0:	0e0aa202 	cdpeq	2, 0, cr10, cr10, cr2, {0}
 3b4:	000b4214 	andeq	r4, fp, r4, lsl r2
 3b8:	0000001c 	andeq	r0, r0, ip, lsl r0
 3bc:	00000380 	andeq	r0, r0, r0, lsl #7
 3c0:	01501260 	cmpeq	r0, r0, ror #4
 3c4:	000000f0 	strdeq	r0, [r0], -r0	; <UNPREDICTABLE>
 3c8:	84180e42 	ldrhi	r0, [r8], #-3650	; 0xe42
 3cc:	86058506 	strhi	r8, [r5], -r6, lsl #10
 3d0:	88038704 	stmdahi	r3, {r2, r8, r9, sl, pc}
 3d4:	00018e02 	andeq	r8, r1, r2, lsl #28
 3d8:	00000044 	andeq	r0, r0, r4, asr #32
 3dc:	00000380 	andeq	r0, r0, r0, lsl #7
 3e0:	01501350 	cmpeq	r0, r0, asr r3
 3e4:	00000684 	andeq	r0, r0, r4, lsl #13
 3e8:	84240e42 	strthi	r0, [r4], #-3650	; 0xe42
 3ec:	86088509 	strhi	r8, [r8], -r9, lsl #10
 3f0:	88068707 	stmdahi	r6, {r0, r1, r2, r8, r9, sl, pc}
 3f4:	8a048905 	bhi	122810 <_back_addr-0x13dd7f0>
 3f8:	8e028b03 	vmlahi.f64	d8, d2, d3
 3fc:	900e4601 	andls	r4, lr, r1, lsl #12
 400:	0a820205 	beq	fe080c1c <__bss_end__+0xfcb6d204>
 404:	0b42240e 	bleq	1089444 <_back_addr-0x476bbc>
 408:	0a012003 	beq	4841c <_back_addr-0x14b7be4>
 40c:	0b42240e 	bleq	108944c <_back_addr-0x476bb4>
 410:	240e0a4e 	strcs	r0, [lr], #-2638	; 0xa4e
 414:	02030b42 	andeq	r0, r3, #67584	; 0x10800
 418:	240e0a01 	strcs	r0, [lr], #-2561	; 0xa01
 41c:	00000b42 	andeq	r0, r0, r2, asr #22
 420:	00000020 	andeq	r0, r0, r0, lsr #32
 424:	00000380 	andeq	r0, r0, r0, lsl #7
 428:	015019d4 	ldrsbeq	r1, [r0, #-148]	; 0xffffff6c
 42c:	000002c4 	andeq	r0, r0, r4, asr #5
 430:	84080e42 	strhi	r0, [r8], #-3650	; 0xe42
 434:	46018e02 	strmi	r8, [r1], -r2, lsl #28
 438:	030c880e 	movweq	r8, #51214	; 0xc80e
 43c:	0e0a0150 	flteqem	f2, r0
 440:	000b4208 	andeq	r4, fp, r8, lsl #4
 444:	0000000c 	andeq	r0, r0, ip
 448:	00000380 	andeq	r0, r0, r0, lsl #7
 44c:	01501c98 			; <UNDEFINED> instruction: 0x01501c98
 450:	00000008 	andeq	r0, r0, r8
 454:	0000000c 	andeq	r0, r0, ip
 458:	ffffffff 			; <UNDEFINED> instruction: 0xffffffff
 45c:	7c020001 	stcvc	0, cr0, [r2], {1}
 460:	000d0c0e 	andeq	r0, sp, lr, lsl #24
 464:	00000014 	andeq	r0, r0, r4, lsl r0
 468:	00000454 	andeq	r0, r0, r4, asr r4
 46c:	01501ca0 	cmpeq	r0, r0, lsr #25
 470:	00000058 	andeq	r0, r0, r8, asr r0
 474:	84080e58 	strhi	r0, [r8], #-3672	; 0xe58
 478:	00018e02 	andeq	r8, r1, r2, lsl #28
 47c:	0000000c 	andeq	r0, r0, ip
 480:	00000454 	andeq	r0, r0, r4, asr r4
 484:	01501cf8 	ldrsheq	r1, [r0, #-200]	; 0xffffff38
 488:	0000002c 	andeq	r0, r0, ip, lsr #32
 48c:	0000000c 	andeq	r0, r0, ip
 490:	00000454 	andeq	r0, r0, r4, asr r4
 494:	01501d24 	cmpeq	r0, r4, lsr #26
 498:	00000030 	andeq	r0, r0, r0, lsr r0
 49c:	00000014 	andeq	r0, r0, r4, lsl r0
 4a0:	00000454 	andeq	r0, r0, r4, asr r4
 4a4:	01501d54 	cmpeq	r0, r4, asr sp
 4a8:	0000005c 	andeq	r0, r0, ip, asr r0
 4ac:	8e040e50 	mcrhi	14, 0, r0, cr4, cr0, {2}
 4b0:	00000001 	andeq	r0, r0, r1
 4b4:	00000014 	andeq	r0, r0, r4, lsl r0
 4b8:	00000454 	andeq	r0, r0, r4, asr r4
 4bc:	01501db0 	ldrheq	r1, [r0, #-208]	; 0xffffff30
 4c0:	00000058 	andeq	r0, r0, r8, asr r0
 4c4:	8e040e4e 	cdphi	14, 0, cr0, cr4, cr14, {2}
 4c8:	00000001 	andeq	r0, r0, r1
 4cc:	0000000c 	andeq	r0, r0, ip
 4d0:	ffffffff 			; <UNDEFINED> instruction: 0xffffffff
 4d4:	7c020001 	stcvc	0, cr0, [r2], {1}
 4d8:	000d0c0e 	andeq	r0, sp, lr, lsl #24
 4dc:	0000000c 	andeq	r0, r0, ip
 4e0:	000004cc 	andeq	r0, r0, ip, asr #9
 4e4:	01501e08 	cmpeq	r0, r8, lsl #28
 4e8:	0000001c 	andeq	r0, r0, ip, lsl r0
 4ec:	00000014 	andeq	r0, r0, r4, lsl r0
 4f0:	000004cc 	andeq	r0, r0, ip, asr #9
 4f4:	01501e24 	cmpeq	r0, r4, lsr #28
 4f8:	00000054 	andeq	r0, r0, r4, asr r0
 4fc:	84080e46 	strhi	r0, [r8], #-3654	; 0xe46
 500:	00018e02 	andeq	r8, r1, r2, lsl #28
 504:	0000000c 	andeq	r0, r0, ip
 508:	000004cc 	andeq	r0, r0, ip, asr #9
 50c:	01501e78 	cmpeq	r0, r8, ror lr
 510:	00000028 	andeq	r0, r0, r8, lsr #32
 514:	0000000c 	andeq	r0, r0, ip
 518:	000004cc 	andeq	r0, r0, ip, asr #9
 51c:	01501ea0 	cmpeq	r0, r0, lsr #29
 520:	00000068 	andeq	r0, r0, r8, rrx
 524:	00000024 	andeq	r0, r0, r4, lsr #32
 528:	000004cc 	andeq	r0, r0, ip, asr #9
 52c:	01501f08 	cmpeq	r0, r8, lsl #30
 530:	00000060 	andeq	r0, r0, r0, rrx
 534:	84180e4a 	ldrhi	r0, [r8], #-3658	; 0xe4a
 538:	86058506 	strhi	r8, [r5], -r6, lsl #10
 53c:	88038704 	stmdahi	r3, {r2, r8, r9, sl, pc}
 540:	62018e02 	andvs	r8, r1, #2, 28
 544:	c6c7c8ce 	strbgt	ip, [r7], lr, asr #17
 548:	000ec4c5 	andeq	ip, lr, r5, asr #9
 54c:	0000000c 	andeq	r0, r0, ip
 550:	000004cc 	andeq	r0, r0, ip, asr #9
 554:	01501f68 	cmpeq	r0, r8, ror #30
 558:	00000050 	andeq	r0, r0, r0, asr r0
 55c:	0000000c 	andeq	r0, r0, ip
 560:	000004cc 	andeq	r0, r0, ip, asr #9
 564:	01501fb8 	ldrheq	r1, [r0, #-248]	; 0xffffff08
 568:	00000008 	andeq	r0, r0, r8
 56c:	0000000c 	andeq	r0, r0, ip
 570:	000004cc 	andeq	r0, r0, ip, asr #9
 574:	01501fc0 	cmpeq	r0, r0, asr #31
 578:	00000004 	andeq	r0, r0, r4
 57c:	0000000c 	andeq	r0, r0, ip
 580:	000004cc 	andeq	r0, r0, ip, asr #9
 584:	01501fc4 	cmpeq	r0, r4, asr #31
 588:	00000024 	andeq	r0, r0, r4, lsr #32
 58c:	0000000c 	andeq	r0, r0, ip
 590:	000004cc 	andeq	r0, r0, ip, asr #9
 594:	01501fe8 	cmpeq	r0, r8, ror #31
 598:	0000000c 	andeq	r0, r0, ip
 59c:	00000014 	andeq	r0, r0, r4, lsl r0
 5a0:	000004cc 	andeq	r0, r0, ip, asr #9
 5a4:	01501ff4 	ldrsheq	r1, [r0, #-244]	; 0xffffff0c
 5a8:	00000054 	andeq	r0, r0, r4, asr r0
 5ac:	84080e46 	strhi	r0, [r8], #-3654	; 0xe46
 5b0:	00018e02 	andeq	r8, r1, r2, lsl #28
 5b4:	0000000c 	andeq	r0, r0, ip
 5b8:	000004cc 	andeq	r0, r0, ip, asr #9
 5bc:	01502048 	cmpeq	r0, r8, asr #32
 5c0:	00000034 	andeq	r0, r0, r4, lsr r0
 5c4:	0000002c 	andeq	r0, r0, ip, lsr #32
 5c8:	000004cc 	andeq	r0, r0, ip, asr #9
 5cc:	0150207c 	cmpeq	r0, ip, ror r0
 5d0:	000000b0 	strheq	r0, [r0], -r0	; <UNPREDICTABLE>
 5d4:	84100e46 	ldrhi	r0, [r0], #-3654	; 0xe46
 5d8:	86038504 	strhi	r8, [r3], -r4, lsl #10
 5dc:	02018e02 	andeq	r8, r1, #2, 28
 5e0:	c6ce0a48 	strbgt	r0, [lr], r8, asr #20
 5e4:	000ec4c5 	andeq	ip, lr, r5, asr #9
 5e8:	ce460b42 	vmlsgt.f64	d16, d6, d2
 5ec:	0ec4c5c6 	cdpeq	5, 12, cr12, cr4, cr6, {6}
 5f0:	00000000 	andeq	r0, r0, r0
 5f4:	0000000c 	andeq	r0, r0, ip
 5f8:	000004cc 	andeq	r0, r0, ip, asr #9
 5fc:	0150212c 	cmpeq	r0, ip, lsr #2
 600:	00000024 	andeq	r0, r0, r4, lsr #32
 604:	0000000c 	andeq	r0, r0, ip
 608:	000004cc 	andeq	r0, r0, ip, asr #9
 60c:	01502150 	cmpeq	r0, r0, asr r1
 610:	0000001c 	andeq	r0, r0, ip, lsl r0
 614:	00000018 	andeq	r0, r0, r8, lsl r0
 618:	000004cc 	andeq	r0, r0, ip, asr #9
 61c:	0150216c 	cmpeq	r0, ip, ror #2
 620:	0000009c 	muleq	r0, ip, r0
 624:	64080e44 	strvs	r0, [r8], #-3652	; 0xe44
 628:	42000e0a 	andmi	r0, r0, #10, 28	; 0xa0
 62c:	000e620b 	andeq	r6, lr, fp, lsl #4
 630:	00000018 	andeq	r0, r0, r8, lsl r0
 634:	000004cc 	andeq	r0, r0, ip, asr #9
 638:	01502208 	cmpeq	r0, r8, lsl #4
 63c:	00000058 	andeq	r0, r0, r8, asr r0
 640:	8e040e46 	cdphi	14, 0, cr0, cr4, cr6, {2}
 644:	000e6201 	andeq	r6, lr, r1, lsl #4
 648:	000000ce 	andeq	r0, r0, lr, asr #1
 64c:	0000000c 	andeq	r0, r0, ip
 650:	000004cc 	andeq	r0, r0, ip, asr #9
 654:	01502260 	cmpeq	r0, r0, ror #4
 658:	00000044 	andeq	r0, r0, r4, asr #32
 65c:	0000000c 	andeq	r0, r0, ip
 660:	000004cc 	andeq	r0, r0, ip, asr #9
 664:	015022a4 	cmpeq	r0, r4, lsr #5
 668:	00000028 	andeq	r0, r0, r8, lsr #32
 66c:	0000000c 	andeq	r0, r0, ip
 670:	000004cc 	andeq	r0, r0, ip, asr #9
 674:	015022cc 	cmpeq	r0, ip, asr #5
 678:	00000004 	andeq	r0, r0, r4
 67c:	0000000c 	andeq	r0, r0, ip
 680:	ffffffff 			; <UNDEFINED> instruction: 0xffffffff
 684:	7c020001 	stcvc	0, cr0, [r2], {1}
 688:	000d0c0e 	andeq	r0, sp, lr, lsl #24
 68c:	00000020 	andeq	r0, r0, r0, lsr #32
 690:	0000067c 	andeq	r0, r0, ip, ror r6
 694:	015022d0 	ldrsbeq	r2, [r0, #-32]	; 0xffffffe0
 698:	000000e4 	andeq	r0, r0, r4, ror #1
 69c:	841c0e42 	ldrhi	r0, [ip], #-3650	; 0xe42
 6a0:	86068507 	strhi	r8, [r6], -r7, lsl #10
 6a4:	88048705 	stmdahi	r4, {r0, r2, r8, r9, sl, pc}
 6a8:	8e028903 	cdphi	9, 0, cr8, cr2, cr3, {0}
 6ac:	00000001 	andeq	r0, r0, r1
 6b0:	0000000c 	andeq	r0, r0, ip
 6b4:	0000067c 	andeq	r0, r0, ip, ror r6
 6b8:	015023b4 	ldrheq	r2, [r0, #-52]	; 0xffffffcc
 6bc:	00000018 	andeq	r0, r0, r8, lsl r0
 6c0:	0000000c 	andeq	r0, r0, ip
 6c4:	0000067c 	andeq	r0, r0, ip, ror r6
 6c8:	015023cc 	cmpeq	r0, ip, asr #7
 6cc:	00000004 	andeq	r0, r0, r4
 6d0:	0000000c 	andeq	r0, r0, ip
 6d4:	0000067c 	andeq	r0, r0, ip, ror r6
 6d8:	015023d0 	ldrsbeq	r2, [r0, #-48]	; 0xffffffd0
 6dc:	00000004 	andeq	r0, r0, r4
 6e0:	0000000c 	andeq	r0, r0, ip
 6e4:	0000067c 	andeq	r0, r0, ip, ror r6
 6e8:	015023d4 	ldrsbeq	r2, [r0, #-52]	; 0xffffffcc
 6ec:	00000004 	andeq	r0, r0, r4
 6f0:	00000018 	andeq	r0, r0, r8, lsl r0
 6f4:	0000067c 	andeq	r0, r0, ip, ror r6
 6f8:	015023d8 	ldrsbeq	r2, [r0, #-56]	; 0xffffffc8
 6fc:	00000014 	andeq	r0, r0, r4, lsl r0
 700:	84080e42 	strhi	r0, [r8], #-3650	; 0xe42
 704:	46018e02 	strmi	r8, [r1], -r2, lsl #28
 708:	000ec4ce 	andeq	ip, lr, lr, asr #9
 70c:	0000000c 	andeq	r0, r0, ip
 710:	0000067c 	andeq	r0, r0, ip, ror r6
 714:	015023ec 	cmpeq	r0, ip, ror #7
 718:	00000004 	andeq	r0, r0, r4
 71c:	00000018 	andeq	r0, r0, r8, lsl r0
 720:	0000067c 	andeq	r0, r0, ip, ror r6
 724:	015023f0 	ldrsheq	r2, [r0, #-48]	; 0xffffffd0
 728:	00000014 	andeq	r0, r0, r4, lsl r0
 72c:	84080e42 	strhi	r0, [r8], #-3650	; 0xe42
 730:	46018e02 	strmi	r8, [r1], -r2, lsl #28
 734:	000ec4ce 	andeq	ip, lr, lr, asr #9
 738:	00000014 	andeq	r0, r0, r4, lsl r0
 73c:	0000067c 	andeq	r0, r0, ip, ror r6
 740:	01502404 	cmpeq	r0, r4, lsl #8
 744:	00000030 	andeq	r0, r0, r0, lsr r0
 748:	84080e42 	strhi	r0, [r8], #-3650	; 0xe42
 74c:	00018e02 	andeq	r8, r1, r2, lsl #28
 750:	0000000c 	andeq	r0, r0, ip
 754:	0000067c 	andeq	r0, r0, ip, ror r6
 758:	01502434 	cmpeq	r0, r4, lsr r4
 75c:	00000004 	andeq	r0, r0, r4
 760:	0000000c 	andeq	r0, r0, ip
 764:	0000067c 	andeq	r0, r0, ip, ror r6
 768:	01502438 	cmpeq	r0, r8, lsr r4
 76c:	0000003c 	andeq	r0, r0, ip, lsr r0
 770:	0000000c 	andeq	r0, r0, ip
 774:	0000067c 	andeq	r0, r0, ip, ror r6
 778:	01502474 	cmpeq	r0, r4, ror r4
 77c:	00000008 	andeq	r0, r0, r8
 780:	0000000c 	andeq	r0, r0, ip
 784:	0000067c 	andeq	r0, r0, ip, ror r6
 788:	0150247c 	cmpeq	r0, ip, ror r4
 78c:	00000004 	andeq	r0, r0, r4
 790:	00000018 	andeq	r0, r0, r8, lsl r0
 794:	0000067c 	andeq	r0, r0, ip, ror r6
 798:	01502480 	cmpeq	r0, r0, lsl #9
 79c:	00000068 	andeq	r0, r0, r8, rrx
 7a0:	8e040e42 	cdphi	14, 0, cr0, cr4, cr2, {2}
 7a4:	0ece7001 	cdpeq	0, 12, cr7, cr14, cr1, {0}
 7a8:	00000000 	andeq	r0, r0, r0
 7ac:	0000000c 	andeq	r0, r0, ip
 7b0:	ffffffff 			; <UNDEFINED> instruction: 0xffffffff
 7b4:	7c020001 	stcvc	0, cr0, [r2], {1}
 7b8:	000d0c0e 	andeq	r0, sp, lr, lsl #24
 7bc:	00000030 	andeq	r0, r0, r0, lsr r0
 7c0:	000007ac 	andeq	r0, r0, ip, lsr #15
 7c4:	015024e8 	cmpeq	r0, r8, ror #9
 7c8:	000001dc 	ldrdeq	r0, [r0], -ip
 7cc:	84240e42 	strthi	r0, [r4], #-3650	; 0xe42
 7d0:	86088509 	strhi	r8, [r8], -r9, lsl #10
 7d4:	88068707 	stmdahi	r6, {r0, r1, r2, r8, r9, sl, pc}
 7d8:	8a048905 	bhi	122bf4 <_back_addr-0x13dd40c>
 7dc:	8e028b03 	vmlahi.f64	d8, d2, d3
 7e0:	780e4401 	stmdavc	lr, {r0, sl, lr}
 7e4:	0e0ad802 	cdpeq	8, 0, cr13, cr10, cr2, {0}
 7e8:	4c0b4224 	sfmmi	f4, 4, [fp], {36}	; 0x24
 7ec:	0000240e 	andeq	r2, r0, lr, lsl #8
 7f0:	00000018 	andeq	r0, r0, r8, lsl r0
 7f4:	000007ac 	andeq	r0, r0, ip, lsr #15
 7f8:	015026c4 	cmpeq	r0, r4, asr #13
 7fc:	00000010 	andeq	r0, r0, r0, lsl r0
 800:	84080e42 	strhi	r0, [r8], #-3650	; 0xe42
 804:	44018e02 	strmi	r8, [r1], #-3586	; 0xe02
 808:	000ec4ce 	andeq	ip, lr, lr, asr #9
 80c:	0000001c 	andeq	r0, r0, ip, lsl r0
 810:	000007ac 	andeq	r0, r0, ip, lsr #15
 814:	015026d4 	ldrsbeq	r2, [r0, #-100]	; 0xffffff9c
 818:	000000b0 	strheq	r0, [r0], -r0	; <UNPREDICTABLE>
 81c:	84180e42 	ldrhi	r0, [r8], #-3650	; 0xe42
 820:	86058506 	strhi	r8, [r5], -r6, lsl #10
 824:	88038704 	stmdahi	r3, {r2, r8, r9, sl, pc}
 828:	00018e02 	andeq	r8, r1, r2, lsl #28
 82c:	0000000c 	andeq	r0, r0, ip
 830:	000007ac 	andeq	r0, r0, ip, lsr #15
 834:	01502784 	cmpeq	r0, r4, lsl #15
 838:	00000030 	andeq	r0, r0, r0, lsr r0
 83c:	00000014 	andeq	r0, r0, r4, lsl r0
 840:	000007ac 	andeq	r0, r0, ip, lsr #15
 844:	015027b4 	ldrheq	r2, [r0, #-116]	; 0xffffff8c
 848:	0000002c 	andeq	r0, r0, ip, lsr #32
 84c:	84080e42 	strhi	r0, [r8], #-3650	; 0xe42
 850:	00018e02 	andeq	r8, r1, r2, lsl #28
 854:	00000014 	andeq	r0, r0, r4, lsl r0
 858:	000007ac 	andeq	r0, r0, ip, lsr #15
 85c:	015027e0 	cmpeq	r0, r0, ror #15
 860:	00000054 	andeq	r0, r0, r4, asr r0
 864:	84080e62 	strhi	r0, [r8], #-3682	; 0xe62
 868:	00018e02 	andeq	r8, r1, r2, lsl #28
 86c:	00000014 	andeq	r0, r0, r4, lsl r0
 870:	000007ac 	andeq	r0, r0, ip, lsr #15
 874:	01502834 	cmpeq	r0, r4, lsr r8
 878:	0000002c 	andeq	r0, r0, ip, lsr #32
 87c:	84080e46 	strhi	r0, [r8], #-3654	; 0xe46
 880:	00018e02 	andeq	r8, r1, r2, lsl #28
 884:	00000024 	andeq	r0, r0, r4, lsr #32
 888:	000007ac 	andeq	r0, r0, ip, lsr #15
 88c:	01502860 	cmpeq	r0, r0, ror #16
 890:	00000070 	andeq	r0, r0, r0, ror r0
 894:	84180e42 	ldrhi	r0, [r8], #-3650	; 0xe42
 898:	86058506 	strhi	r8, [r5], -r6, lsl #10
 89c:	88038704 	stmdahi	r3, {r2, r8, r9, sl, pc}
 8a0:	74018e02 	strvc	r8, [r1], #-3586	; 0xe02
 8a4:	c6c7c8ce 	strbgt	ip, [r7], lr, asr #17
 8a8:	000ec4c5 	andeq	ip, lr, r5, asr #9
 8ac:	00000014 	andeq	r0, r0, r4, lsl r0
 8b0:	000007ac 	andeq	r0, r0, ip, lsr #15
 8b4:	015028d0 	ldrsbeq	r2, [r0, #-128]	; 0xffffff80
 8b8:	00000020 	andeq	r0, r0, r0, lsr #32
 8bc:	84080e42 	strhi	r0, [r8], #-3650	; 0xe42
 8c0:	00018e02 	andeq	r8, r1, r2, lsl #28
 8c4:	00000014 	andeq	r0, r0, r4, lsl r0
 8c8:	000007ac 	andeq	r0, r0, ip, lsr #15
 8cc:	015028f0 	ldrsheq	r2, [r0, #-128]	; 0xffffff80
 8d0:	0000003c 	andeq	r0, r0, ip, lsr r0
 8d4:	84080e42 	strhi	r0, [r8], #-3650	; 0xe42
 8d8:	00018e02 	andeq	r8, r1, r2, lsl #28
 8dc:	00000014 	andeq	r0, r0, r4, lsl r0
 8e0:	000007ac 	andeq	r0, r0, ip, lsr #15
 8e4:	0150292c 	cmpeq	r0, ip, lsr #18
 8e8:	0000006c 	andeq	r0, r0, ip, rrx
 8ec:	84080e44 	strhi	r0, [r8], #-3652	; 0xe44
 8f0:	00018e02 	andeq	r8, r1, r2, lsl #28
 8f4:	00000014 	andeq	r0, r0, r4, lsl r0
 8f8:	000007ac 	andeq	r0, r0, ip, lsr #15
 8fc:	01502998 			; <UNDEFINED> instruction: 0x01502998
 900:	00000020 	andeq	r0, r0, r0, lsr #32
 904:	84080e42 	strhi	r0, [r8], #-3650	; 0xe42
 908:	00018e02 	andeq	r8, r1, r2, lsl #28
 90c:	00000014 	andeq	r0, r0, r4, lsl r0
 910:	000007ac 	andeq	r0, r0, ip, lsr #15
 914:	015029b8 	ldrheq	r2, [r0, #-152]	; 0xffffff68
 918:	00000020 	andeq	r0, r0, r0, lsr #32
 91c:	84080e42 	strhi	r0, [r8], #-3650	; 0xe42
 920:	00018e02 	andeq	r8, r1, r2, lsl #28
 924:	00000014 	andeq	r0, r0, r4, lsl r0
 928:	000007ac 	andeq	r0, r0, ip, lsr #15
 92c:	015029d8 	ldrsbeq	r2, [r0, #-152]	; 0xffffff68
 930:	00000020 	andeq	r0, r0, r0, lsr #32
 934:	84080e42 	strhi	r0, [r8], #-3650	; 0xe42
 938:	00018e02 	andeq	r8, r1, r2, lsl #28
 93c:	00000014 	andeq	r0, r0, r4, lsl r0
 940:	000007ac 	andeq	r0, r0, ip, lsr #15
 944:	015029f8 	ldrsheq	r2, [r0, #-152]	; 0xffffff68
 948:	00000020 	andeq	r0, r0, r0, lsr #32
 94c:	84080e42 	strhi	r0, [r8], #-3650	; 0xe42
 950:	00018e02 	andeq	r8, r1, r2, lsl #28
 954:	00000014 	andeq	r0, r0, r4, lsl r0
 958:	000007ac 	andeq	r0, r0, ip, lsr #15
 95c:	01502a18 	cmpeq	r0, r8, lsl sl
 960:	00000020 	andeq	r0, r0, r0, lsr #32
 964:	84080e42 	strhi	r0, [r8], #-3650	; 0xe42
 968:	00018e02 	andeq	r8, r1, r2, lsl #28
 96c:	00000014 	andeq	r0, r0, r4, lsl r0
 970:	000007ac 	andeq	r0, r0, ip, lsr #15
 974:	01502a38 	cmpeq	r0, r8, lsr sl
 978:	00000020 	andeq	r0, r0, r0, lsr #32
 97c:	84080e42 	strhi	r0, [r8], #-3650	; 0xe42
 980:	00018e02 	andeq	r8, r1, r2, lsl #28
 984:	00000014 	andeq	r0, r0, r4, lsl r0
 988:	000007ac 	andeq	r0, r0, ip, lsr #15
 98c:	01502a58 	cmpeq	r0, r8, asr sl
 990:	00000020 	andeq	r0, r0, r0, lsr #32
 994:	84080e42 	strhi	r0, [r8], #-3650	; 0xe42
 998:	00018e02 	andeq	r8, r1, r2, lsl #28
 99c:	00000014 	andeq	r0, r0, r4, lsl r0
 9a0:	000007ac 	andeq	r0, r0, ip, lsr #15
 9a4:	01502a78 	cmpeq	r0, r8, ror sl
 9a8:	00000020 	andeq	r0, r0, r0, lsr #32
 9ac:	84080e42 	strhi	r0, [r8], #-3650	; 0xe42
 9b0:	00018e02 	andeq	r8, r1, r2, lsl #28
 9b4:	00000014 	andeq	r0, r0, r4, lsl r0
 9b8:	000007ac 	andeq	r0, r0, ip, lsr #15
 9bc:	01502a98 			; <UNDEFINED> instruction: 0x01502a98
 9c0:	00000020 	andeq	r0, r0, r0, lsr #32
 9c4:	84080e42 	strhi	r0, [r8], #-3650	; 0xe42
 9c8:	00018e02 	andeq	r8, r1, r2, lsl #28
 9cc:	00000014 	andeq	r0, r0, r4, lsl r0
 9d0:	000007ac 	andeq	r0, r0, ip, lsr #15
 9d4:	01502ab8 	ldrheq	r2, [r0, #-168]	; 0xffffff58
 9d8:	00000020 	andeq	r0, r0, r0, lsr #32
 9dc:	84080e42 	strhi	r0, [r8], #-3650	; 0xe42
 9e0:	00018e02 	andeq	r8, r1, r2, lsl #28
 9e4:	00000014 	andeq	r0, r0, r4, lsl r0
 9e8:	000007ac 	andeq	r0, r0, ip, lsr #15
 9ec:	01502ad8 	ldrsbeq	r2, [r0, #-168]	; 0xffffff58
 9f0:	0000006c 	andeq	r0, r0, ip, rrx
 9f4:	84080e46 	strhi	r0, [r8], #-3654	; 0xe46
 9f8:	00018e02 	andeq	r8, r1, r2, lsl #28
 9fc:	00000014 	andeq	r0, r0, r4, lsl r0
 a00:	000007ac 	andeq	r0, r0, ip, lsr #15
 a04:	01502b44 	cmpeq	r0, r4, asr #22
 a08:	0000006c 	andeq	r0, r0, ip, rrx
 a0c:	84080e46 	strhi	r0, [r8], #-3654	; 0xe46
 a10:	00018e02 	andeq	r8, r1, r2, lsl #28
 a14:	00000014 	andeq	r0, r0, r4, lsl r0
 a18:	000007ac 	andeq	r0, r0, ip, lsr #15
 a1c:	01502bb0 	ldrheq	r2, [r0, #-176]	; 0xffffff50
 a20:	0000009c 	muleq	r0, ip, r0
 a24:	84080e42 	strhi	r0, [r8], #-3650	; 0xe42
 a28:	00018e02 	andeq	r8, r1, r2, lsl #28
 a2c:	00000018 	andeq	r0, r0, r8, lsl r0
 a30:	000007ac 	andeq	r0, r0, ip, lsr #15
 a34:	01502c4c 	cmpeq	r0, ip, asr #24
 a38:	00000080 	andeq	r0, r0, r0, lsl #1
 a3c:	8e040e4e 	cdphi	14, 0, cr0, cr4, cr14, {2}
 a40:	000e6e01 	andeq	r6, lr, r1, lsl #28
 a44:	000000ce 	andeq	r0, r0, lr, asr #1
 a48:	00000018 	andeq	r0, r0, r8, lsl r0
 a4c:	000007ac 	andeq	r0, r0, ip, lsr #15
 a50:	01502ccc 	cmpeq	r0, ip, asr #25
 a54:	00000054 	andeq	r0, r0, r4, asr r0
 a58:	8e040e48 	cdphi	14, 0, cr0, cr4, cr8, {2}
 a5c:	000e5e01 	andeq	r5, lr, r1, lsl #28
 a60:	000000ce 	andeq	r0, r0, lr, asr #1
 a64:	00000014 	andeq	r0, r0, r4, lsl r0
 a68:	000007ac 	andeq	r0, r0, ip, lsr #15
 a6c:	01502d20 	cmpeq	r0, r0, lsr #26
 a70:	00000044 	andeq	r0, r0, r4, asr #32
 a74:	84080e42 	strhi	r0, [r8], #-3650	; 0xe42
 a78:	00018e02 	andeq	r8, r1, r2, lsl #28

Disassembly of section .debug_str:

00000000 <.debug_str>:
       0:	6c727473 	cfldrdvs	mvd7, [r2], #-460	; 0xfffffe34
       4:	632e6e65 	teqvs	lr, #1616	; 0x650
       8:	72747300 	rsbsvc	r7, r4, #0, 6
       c:	006e656c 	rsbeq	r6, lr, ip, ror #10
      10:	69736e75 	ldmdbvs	r3!, {r0, r2, r4, r5, r6, r9, sl, fp, sp, lr}^
      14:	64656e67 	strbtvs	r6, [r5], #-3687	; 0xe67
      18:	61686320 	cmnvs	r8, r0, lsr #6
      1c:	68730072 	ldmdavs	r3!, {r1, r4, r5, r6}^
      20:	2074726f 	rsbscs	r7, r4, pc, ror #4
      24:	69736e75 	ldmdbvs	r3!, {r0, r2, r4, r5, r6, r9, sl, fp, sp, lr}^
      28:	64656e67 	strbtvs	r6, [r5], #-3687	; 0xe67
      2c:	746e6920 	strbtvc	r6, [lr], #-2336	; 0x920
      30:	6e6f6c00 	cdpvs	12, 6, cr6, cr15, cr0, {0}
      34:	6f6c2067 	svcvs	0x006c2067
      38:	7520676e 	strvc	r6, [r0, #-1902]!	; 0x76e
      3c:	6769736e 	strbvs	r7, [r9, -lr, ror #6]!
      40:	2064656e 	rsbcs	r6, r4, lr, ror #10
      44:	00746e69 	rsbseq	r6, r4, r9, ror #28
      48:	676e6f6c 	strbvs	r6, [lr, -ip, ror #30]!
      4c:	6e6f6c20 	cdpvs	12, 6, cr6, cr15, cr0, {1}
      50:	6e692067 	cdpvs	0, 6, cr2, cr9, cr7, {3}
      54:	682f0074 	stmdavs	pc!, {r2, r4, r5, r6}	; <UNPREDICTABLE>
      58:	2f656d6f 	svccs	0x00656d6f
      5c:	2f656166 	svccs	0x00656166
      60:	2f73616e 	svccs	0x0073616e
      64:	2f6e7673 	svccs	0x006e7673
      68:	35393231 	ldrcc	r3, [r9, #-561]!	; 0x231
      6c:	7572742f 	ldrbvc	r7, [r2, #-1071]!	; 0x42f
      70:	362d6b6e 	strtcc	r6, [sp], -lr, ror #22
      74:	302e302e 	eorcc	r3, lr, lr, lsr #32
      78:	2f31725f 	svccs	0x0031725f
      7c:	746f6f62 	strbtvc	r6, [pc], #-3938	; 84 <_back_addr-0x14fff7c>
      80:	65646f63 	strbvs	r6, [r4, #-3939]!	; 0xf63
      84:	6f62752f 	svcvs	0x0062752f
      88:	652f746f 	strvs	r7, [pc, #-1135]!	; fffffc21 <__bss_end__+0xfeaec209>
      8c:	706d6178 	rsbvc	r6, sp, r8, ror r1
      90:	2f73656c 	svccs	0x0073656c
      94:	73756665 	cmnvc	r5, #105906176	; 0x6500000
      98:	72705f65 	rsbsvc	r5, r0, #404	; 0x194
      9c:	6172676f 	cmnvs	r2, pc, ror #14
      a0:	72656d6d 	rsbvc	r6, r5, #6976	; 0x1b40
      a4:	6f687300 	svcvs	0x00687300
      a8:	69207472 	stmdbvs	r0!, {r1, r4, r5, r6, sl, ip, sp, lr}
      ac:	4700746e 	strmi	r7, [r0, -lr, ror #8]
      b0:	4320554e 	teqmi	r0, #327155712	; 0x13800000
      b4:	392e3420 	stmdbcc	lr!, {r5, sl, ip, sp}
      b8:	3220332e 	eorcc	r3, r0, #-1207959552	; 0xb8000000
      bc:	30353130 	eorscc	r3, r5, r0, lsr r1
      c0:	20333134 	eorscs	r3, r3, r4, lsr r1
      c4:	65727028 	ldrbvs	r7, [r2, #-40]!	; 0x28
      c8:	656c6572 	strbvs	r6, [ip, #-1394]!	; 0x572
      cc:	29657361 	stmdbcs	r5!, {r0, r5, r6, r8, r9, ip, sp, lr}^
      d0:	6c6d2d20 	stclvs	13, cr2, [sp], #-128	; 0xffffff80
      d4:	6c747469 	cfldrdvs	mvd7, [r4], #-420	; 0xfffffe5c
      d8:	6e652d65 	cdpvs	13, 6, cr2, cr5, cr5, {3}
      dc:	6e616964 	cdpvs	9, 6, cr6, cr1, cr4, {3}
      e0:	666d2d20 	strbtvs	r2, [sp], -r0, lsr #26
      e4:	6e3d7570 	mrcvs	5, 1, r7, cr13, cr0, {3}
      e8:	206e6f65 	rsbcs	r6, lr, r5, ror #30
      ec:	6c666d2d 	stclvs	13, cr6, [r6], #-180	; 0xffffff4c
      f0:	2d74616f 	ldfcse	f6, [r4, #-444]!	; 0xfffffe44
      f4:	3d696261 	sfmcc	f6, 2, [r9, #-388]!	; 0xfffffe7c
      f8:	74666f73 	strbtvc	r6, [r6], #-3955	; 0xf73
      fc:	2d207066 	stccs	0, cr7, [r0, #-408]!	; 0xfffffe68
     100:	6e75746d 	cdpvs	4, 7, cr7, cr5, cr13, {3}
     104:	6f633d65 	svcvs	0x00633d65
     108:	78657472 	stmdavc	r5!, {r1, r4, r5, r6, sl, ip, sp, lr}^
     10c:	3335612d 	teqcc	r5, #1073741835	; 0x4000000b
     110:	666d2d20 	strbtvs	r2, [sp], -r0, lsr #26
     114:	74616f6c 	strbtvc	r6, [r1], #-3948	; 0xf6c
     118:	6962612d 	stmdbvs	r2!, {r0, r2, r3, r5, r8, sp, lr}^
     11c:	666f733d 			; <UNDEFINED> instruction: 0x666f733d
     120:	6d2d2074 	stcvs	0, cr2, [sp, #-464]!	; 0xfffffe30
     124:	6d756874 	ldclvs	8, cr6, [r5, #-464]!	; 0xfffffe30
     128:	6e692d62 	cdpvs	13, 6, cr2, cr9, cr2, {3}
     12c:	77726574 			; <UNDEFINED> instruction: 0x77726574
     130:	206b726f 	rsbcs	r7, fp, pc, ror #4
     134:	72616d2d 	rsbvc	r6, r1, #2880	; 0xb40
     138:	6d2d206d 	stcvs	0, cr2, [sp, #-436]!	; 0xfffffe4c
     13c:	3d696261 	sfmcc	f6, 2, [r9, #-388]!	; 0xfffffe7c
     140:	63706161 	cmnvs	r0, #1073741848	; 0x40000018
     144:	696c2d73 	stmdbvs	ip!, {r0, r1, r4, r5, r6, r8, sl, fp, sp}^
     148:	2078756e 	rsbscs	r7, r8, lr, ror #10
     14c:	72616d2d 	rsbvc	r6, r1, #2880	; 0xb40
     150:	613d6863 	teqvs	sp, r3, ror #16
     154:	38766d72 	ldmdacc	r6!, {r1, r4, r5, r6, r8, sl, fp, sp, lr}^
     158:	2d20612d 	stfcss	f6, [r0, #-180]!	; 0xffffff4c
     15c:	736c746d 	cmnvc	ip, #1828716544	; 0x6d000000
     160:	6169642d 	cmnvs	r9, sp, lsr #8
     164:	7463656c 	strbtvc	r6, [r3], #-1388	; 0x56c
     168:	756e673d 	strbvc	r6, [lr, #-1853]!	; 0x73d
     16c:	20672d20 	rsbcs	r2, r7, r0, lsr #26
     170:	20324f2d 	eorscs	r4, r2, sp, lsr #30
     174:	7375662d 	cmnvc	r5, #47185920	; 0x2d00000
     178:	6c742d65 	ldclvs	13, cr2, [r4], #-404	; 0xfffffe6c
     17c:	662d2073 			; <UNDEFINED> instruction: 0x662d2073
     180:	632d6f6e 	teqvs	sp, #440	; 0x1b8
     184:	6f6d6d6f 	svcvs	0x006d6d6f
     188:	662d206e 	strtvs	r2, [sp], -lr, rrx
     18c:	6f72657a 	svcvs	0x0072657a
     190:	696e692d 	stmdbvs	lr!, {r0, r2, r3, r5, r8, fp, sp, lr}^
     194:	6c616974 	stclvs	9, cr6, [r1], #-464	; 0xfffffe30
     198:	64657a69 	strbtvs	r7, [r5], #-2665	; 0xa69
     19c:	2d6e692d 	stclcs	9, cr6, [lr, #-180]!	; 0xffffff4c
     1a0:	20737362 	rsbscs	r7, r3, r2, ror #6
     1a4:	6f6e662d 	svcvs	0x006e662d
     1a8:	6975622d 	ldmdbvs	r5!, {r0, r2, r3, r5, r9, sp, lr}^
     1ac:	6e69746c 	cdpvs	4, 6, cr7, cr9, cr12, {3}
     1b0:	66662d20 	strbtvs	r2, [r6], -r0, lsr #26
     1b4:	73656572 	cmnvc	r5, #478150656	; 0x1c800000
     1b8:	646e6174 	strbtvs	r6, [lr], #-372	; 0x174
     1bc:	00676e69 	rsbeq	r6, r7, r9, ror #28
     1c0:	73727473 	cmnvc	r2, #1929379840	; 0x73000000
     1c4:	632e7274 	teqvs	lr, #116, 4	; 0x40000007
     1c8:	72747300 	rsbsvc	r7, r4, #0, 6
     1cc:	00727473 	rsbseq	r7, r2, r3, ror r4
     1d0:	70646e65 	rsbvc	r6, r4, r5, ror #28
     1d4:	63007274 	movwvs	r7, #628	; 0x274
     1d8:	696c7475 	stmdbvs	ip!, {r0, r2, r4, r5, r6, sl, ip, sp, lr}^
     1dc:	7473006d 	ldrbtvc	r0, [r3], #-109	; 0x6d
     1e0:	756f7472 	strbvc	r7, [pc, #-1138]!	; fffffd76 <__bss_end__+0xfeaec35e>
     1e4:	7473006c 	ldrbtvc	r0, [r3], #-108	; 0x6c
     1e8:	756f7472 	strbvc	r7, [pc, #-1138]!	; fffffd7e <__bss_end__+0xfeaec366>
     1ec:	00632e6c 	rsbeq	r2, r3, ip, ror #28
     1f0:	65736162 	ldrbvs	r6, [r3, #-354]!	; 0x162
     1f4:	74756300 	ldrbtvc	r6, [r5], #-768	; 0x300
     1f8:	0066666f 	rsbeq	r6, r6, pc, ror #12
     1fc:	7974635f 	ldmdbvc	r4!, {r0, r1, r2, r3, r4, r6, r8, r9, sp, lr}^
     200:	63006570 	movwvs	r6, #1392	; 0x570
     204:	65707974 	ldrbvs	r7, [r0, #-2420]!	; 0x974
     208:	7300632e 	movwvc	r6, #814	; 0x32e
     20c:	74657a69 	strbtvc	r7, [r5], #-2665	; 0xa69
     210:	00657079 	rsbeq	r7, r5, r9, ror r0
     214:	7566626f 	strbvc	r6, [r6, #-623]!	; 0x26f
     218:	675f6573 			; <UNDEFINED> instruction: 0x675f6573
     21c:	65737465 	ldrbvs	r7, [r3, #-1125]!	; 0x465
     220:	4e450074 	mcrmi	0, 2, r0, cr5, cr4, {3}
     224:	545f4d55 	ldrbpl	r4, [pc], #-3413	; 22c <_back_addr-0x14ffdd4>
     228:	5f455059 	svcpl	0x00455059
     22c:	4e4b4e55 	mcrmi	14, 2, r4, cr11, cr5, {2}
     230:	004e574f 	subeq	r5, lr, pc, asr #14
     234:	4d554e45 	ldclmi	14, cr4, [r5, #-276]	; 0xfffffeec
     238:	5059545f 	subspl	r5, r9, pc, asr r4
     23c:	45415f45 	strbmi	r5, [r1, #-3909]	; 0xf45
     240:	45445f53 	strbmi	r5, [r4, #-3923]	; 0xf53
     244:	454b5f43 	strbmi	r5, [fp, #-3907]	; 0xf43
     248:	65640059 	strbvs	r0, [r4, #-89]!	; 0x59
     24c:	72007473 	andvc	r7, r0, #1929379840	; 0x73000000
     250:	705f6173 	subsvc	r6, pc, r3, ror r1	; <UNPREDICTABLE>
     254:	6b5f6275 	blvs	17d8c30 <__bss_end__+0x2c5218>
     258:	655f7965 	ldrbvs	r7, [pc, #-2405]	; fffff8fb <__bss_end__+0xfeaebee3>
     25c:	6d00646e 	cfstrsvs	mvf6, [r0, #-440]	; 0xfffffe48
     260:	645f7063 	ldrbvs	r7, [pc], #-99	; 268 <_back_addr-0x14ffd98>
     264:	74706373 	ldrbtvc	r6, [r0], #-883	; 0x373
     268:	6464615f 	strbtvs	r6, [r4], #-351	; 0x15f
     26c:	5f760072 	svcpl	0x00760072
     270:	61727261 	cmnvs	r2, r1, ror #4
     274:	49550079 	ldmdbmi	r5, {r0, r3, r4, r5, r6}^
     278:	3233544e 	eorscc	r5, r3, #1308622848	; 0x4e000000
     27c:	6d656d00 	stclvs	13, cr6, [r5, #-0]
     280:	00797063 	rsbseq	r7, r9, r3, rrx
     284:	64786568 	ldrbtvs	r6, [r8], #-1384	; 0x568
     288:	00706d75 	rsbseq	r6, r0, r5, ror sp
     28c:	705f6f64 	subsvc	r6, pc, r4, ror #30
     290:	72676f72 	rsbvc	r6, r7, #456	; 0x1c8
     294:	61006d61 	tstvs	r0, r1, ror #26
     298:	6b5f7365 	blvs	17dd034 <__bss_end__+0x2c961c>
     29c:	5f337965 	svcpl	0x00337965
     2a0:	00646e65 	rsbeq	r6, r4, r5, ror #28
     2a4:	73756665 	cmnvc	r5, #105906176	; 0x6500000
     2a8:	69616d65 	stmdbvs	r1!, {r0, r2, r5, r6, r8, sl, fp, sp, lr}^
     2ac:	00632e6e 	rsbeq	r2, r3, lr, ror #28
     2b0:	636d656d 	cmnvs	sp, #457179136	; 0x1b400000
     2b4:	4500706d 	strmi	r7, [r0, #-109]	; 0x6d
     2b8:	5f4d554e 	svcpl	0x004d554e
     2bc:	45505954 	ldrbmi	r5, [r0, #-2388]	; 0x954
     2c0:	5345415f 	movtpl	r4, #20831	; 0x515f
     2c4:	4345445f 	movtmi	r4, #21599	; 0x545f
     2c8:	4545535f 	strbmi	r5, [r5, #-863]	; 0x35f
     2cc:	75630044 	strbvc	r0, [r3, #-68]!	; 0x44
     2d0:	645f7473 	ldrbvs	r7, [pc], #-1139	; 2d8 <_back_addr-0x14ffd28>
     2d4:	5f617461 	svcpl	0x00617461
     2d8:	00646e65 	rsbeq	r6, r4, r5, ror #28
     2dc:	6e697270 	mcrvs	2, 3, r7, cr9, cr0, {3}
     2e0:	63006674 	movwvs	r6, #1652	; 0x674
     2e4:	5f747375 	svcpl	0x00747375
     2e8:	61746164 	cmnvs	r4, r4, ror #2
     2ec:	7a69735f 	bvc	1a5d070 <__bss_end__+0x549658>
     2f0:	65610065 	strbvs	r0, [r1, #-101]!	; 0x65
     2f4:	65735f73 	ldrbvs	r5, [r3, #-3955]!	; 0xf73
     2f8:	735f6465 	cmpvc	pc, #1694498816	; 0x65000000
     2fc:	00657a69 	rsbeq	r7, r5, r9, ror #20
     300:	5f70746f 	svcpl	0x0070746f
     304:	72746572 	rsbsvc	r6, r4, #478150656	; 0x1c800000
     308:	6e635f79 	mcrvs	15, 3, r5, cr3, cr9, {3}
     30c:	72700074 	rsbsvc	r0, r0, #116	; 0x74
     310:	73746e69 	cmnvc	r4, #1680	; 0x690
     314:	63727300 	cmnvs	r2, #0, 6
     318:	72610038 	rsbvc	r0, r1, #56	; 0x38
     31c:	61007667 	tstvs	r0, r7, ror #12
     320:	6b5f7365 	blvs	17dd0bc <__bss_end__+0x2c96a4>
     324:	64007965 	strvs	r7, [r0], #-2405	; 0x965
     328:	00387473 	eorseq	r7, r8, r3, ror r4
     32c:	5f617372 	svcpl	0x00617372
     330:	5f627570 	svcpl	0x00627570
     334:	0079656b 	rsbseq	r6, r9, fp, ror #10
     338:	5f736561 	svcpl	0x00736561
     33c:	3279656b 	rsbscc	r6, r9, #448790528	; 0x1ac00000
     340:	7a69735f 	bvc	1a5d0c4 <__bss_end__+0x5496ac>
     344:	65610065 	strbvs	r0, [r1, #-101]!	; 0x65
     348:	656b5f73 	strbvs	r5, [fp, #-3955]!	; 0xf73
     34c:	735f3379 	cmpvc	pc, #-469762047	; 0xe4000001
     350:	00657a69 	rsbeq	r7, r5, r9, ror #20
     354:	63677261 	cmnvs	r7, #268435462	; 0x10000006
     358:	74657300 	strbtvc	r7, [r5], #-768	; 0x300
     35c:	636f665f 	cmnvs	pc, #99614720	; 0x5f00000
     360:	755f7375 	ldrbvc	r7, [pc, #-885]	; fffffff3 <__bss_end__+0xfeaec5db>
     364:	00747261 	rsbseq	r7, r4, r1, ror #4
     368:	5f736561 	svcpl	0x00736561
     36c:	3179656b 	cmncc	r9, fp, ror #10
     370:	646e655f 	strbtvs	r6, [lr], #-1375	; 0x55f
     374:	70746f00 	rsbsvc	r6, r4, r0, lsl #30
     378:	74656d5f 	strbtvc	r6, [r5], #-3423	; 0xd5f
     37c:	5f646f68 	svcpl	0x00646f68
     380:	6d756e65 	ldclvs	14, cr6, [r5, #-404]!	; 0xfffffe6c
     384:	6100745f 	tstvs	r0, pc, asr r4
     388:	6b5f7365 	blvs	17dd124 <__bss_end__+0x2c970c>
     38c:	655f7965 	ldrbvs	r7, [pc, #-2405]	; fffffa2f <__bss_end__+0xfeaec017>
     390:	6100646e 	tstvs	r0, lr, ror #8
     394:	6b5f7365 	blvs	17dd130 <__bss_end__+0x2c9718>
     398:	735f7965 	cmpvc	pc, #1654784	; 0x194000
     39c:	00657a69 	rsbeq	r7, r5, r9, ror #20
     3a0:	4d554e45 	ldclmi	14, cr4, [r5, #-276]	; 0xfffffeec
     3a4:	5059545f 	subspl	r5, r9, pc, asr r4
     3a8:	45415f45 	strbmi	r5, [r1, #-3909]	; 0xf45
     3ac:	454b5f53 	strbmi	r5, [fp, #-3923]	; 0xf53
     3b0:	6e690059 	mcrvs	0, 3, r0, cr9, cr9, {2}
     3b4:	755f7469 	ldrbvc	r7, [pc, #-1129]	; ffffff53 <__bss_end__+0xfeaec53b>
     3b8:	00747261 	rsbseq	r7, r4, r1, ror #4
     3bc:	5f636564 	svcpl	0x00636564
     3c0:	61727261 	cmnvs	r2, r1, ror #4
     3c4:	79730079 	ldmdbvc	r3!, {r0, r3, r4, r5, r6}^
     3c8:	6100636e 	tstvs	r0, lr, ror #6
     3cc:	735f7365 	cmpvc	pc, #-1811939327	; 0x94000001
     3d0:	00646565 	rsbeq	r6, r4, r5, ror #10
     3d4:	4d554e45 	ldclmi	14, cr4, [r5, #-276]	; 0xfffffeec
     3d8:	5059545f 	subspl	r5, r9, pc, asr r4
     3dc:	45415f45 	strbmi	r5, [r1, #-3909]	; 0xf45
     3e0:	45535f53 	ldrbmi	r5, [r3, #-3923]	; 0xf53
     3e4:	63004445 	movwvs	r4, #1093	; 0x445
     3e8:	5f747375 	svcpl	0x00747375
     3ec:	61746164 	cmnvs	r4, r4, ror #2
     3f0:	73656100 	cmnvc	r5, #0, 2
     3f4:	6565735f 	strbvs	r7, [r5, #-863]!	; 0x35f
     3f8:	6e655f64 	cdpvs	15, 6, cr5, cr5, cr4, {3}
     3fc:	74630064 	strbtvc	r0, [r3], #-100	; 0x64
     400:	00636c72 	rsbeq	r6, r3, r2, ror ip
     404:	5f736561 	svcpl	0x00736561
     408:	3179656b 	cmncc	r9, fp, ror #10
     40c:	73656100 	cmnvc	r5, #0, 2
     410:	79656b5f 	stmdbvc	r5!, {r0, r1, r2, r3, r4, r6, r8, r9, fp, sp, lr}^
     414:	65610032 	strbvs	r0, [r1, #-50]!	; 0x32
     418:	656b5f73 	strbvs	r5, [fp, #-3955]!	; 0xf73
     41c:	72003379 	andvc	r3, r0, #-469762047	; 0xe4000001
     420:	705f6173 	subsvc	r6, pc, r3, ror r1	; <UNPREDICTABLE>
     424:	6b5f6275 	blvs	17d8e00 <__bss_end__+0x2c53e8>
     428:	735f7965 	cmpvc	pc, #1654784	; 0x194000
     42c:	00657a69 	rsbeq	r7, r5, r9, ror #20
     430:	73756665 	cmnvc	r5, #105906176	; 0x6500000
     434:	69616d65 	stmdbvs	r1!, {r0, r2, r5, r6, r8, sl, fp, sp, lr}^
     438:	6561006e 	strbvs	r0, [r1, #-110]!	; 0x6e
     43c:	656b5f73 	strbvs	r5, [fp, #-3955]!	; 0xf73
     440:	655f3279 	ldrbvs	r3, [pc, #-633]	; 1cf <_back_addr-0x14ffe31>
     444:	6100646e 	tstvs	r0, lr, ror #8
     448:	6b5f7365 	blvs	17dd1e4 <__bss_end__+0x2c97cc>
     44c:	5f317965 	svcpl	0x00317965
     450:	657a6973 	ldrbvs	r6, [sl, #-2419]!	; 0x973
     454:	6f682f00 	svcvs	0x00682f00
     458:	6c2f656d 	cfstr32vs	mvfx6, [pc], #-436	; 2ac <_back_addr-0x14ffd54>
     45c:	7369756f 	cmnvc	r9, #465567744	; 0x1bc00000
     460:	3932312f 	ldmdbcc	r2!, {r0, r1, r2, r3, r5, r8, ip, sp}
     464:	6f622f35 	svcvs	0x00622f35
     468:	6f63746f 	svcvs	0x0063746f
     46c:	752f6564 	strvc	r6, [pc, #-1380]!	; ffffff10 <__bss_end__+0xfeaec4f8>
     470:	746f6f62 	strbtvc	r6, [pc], #-3938	; 478 <_back_addr-0x14ffb88>
     474:	6178652f 	cmnvs	r8, pc, lsr #10
     478:	656c706d 	strbvs	r7, [ip, #-109]!	; 0x6d
     47c:	66652f73 	uqsub16vs	r2, r5, r3
     480:	5f657375 	svcpl	0x00657375
     484:	676f7270 			; <UNDEFINED> instruction: 0x676f7270
     488:	6d6d6172 	stfvse	f6, [sp, #-456]!	; 0xfffffe38
     48c:	61007265 	tstvs	r0, r5, ror #4
     490:	636f6c6c 	cmnvs	pc, #108, 24	; 0x6c00
     494:	70636d5f 	rsbvc	r6, r3, pc, asr sp
     498:	7365645f 	cmnvc	r5, #1593835520	; 0x5f000000
     49c:	70697263 	rsbvc	r7, r9, r3, ror #4
     4a0:	00726f74 	rsbseq	r6, r2, r4, ror pc
     4a4:	2e70636d 	cdpcs	3, 7, cr6, cr0, cr13, {3}
     4a8:	6c620063 	stclvs	0, cr0, [r2], #-396	; 0xfffffe74
     4ac:	5f6b636f 	svcpl	0x006b636f
     4b0:	657a6973 	ldrbvs	r6, [sl, #-2419]!	; 0x973
     4b4:	64747200 	ldrbtvs	r7, [r4], #-512	; 0x200
     4b8:	74756f5f 	ldrbtvc	r6, [r5], #-3935	; 0xf5f
     4bc:	6572006c 	ldrbvs	r0, [r2, #-108]!	; 0x6c
     4c0:	73726576 	cmnvc	r2, #494927872	; 0x1d800000
     4c4:	69735f65 	ldmdbvs	r3!, {r0, r2, r5, r6, r8, r9, sl, fp, ip, lr}^
     4c8:	74616e67 	strbtvc	r6, [r1], #-3687	; 0xe67
     4cc:	00657275 	rsbeq	r7, r5, r5, ror r2
     4d0:	706d6574 	rsbvc	r6, sp, r4, ror r5
     4d4:	74656e00 	strbtvc	r6, [r5], #-3584	; 0xe00
     4d8:	6174735f 	cmnvs	r4, pc, asr r3
     4dc:	64006574 	strvs	r6, [r0], #-1396	; 0x574
     4e0:	53525f6f 	cmppl	r2, #444	; 0x1bc
     4e4:	6e690041 	cdpvs	0, 6, cr0, cr9, cr1, {2}
     4e8:	00747570 	rsbseq	r7, r4, r0, ror r5
     4ec:	32414853 	subcc	r4, r1, #5439488	; 0x530000
     4f0:	685f3635 	ldmdavs	pc, {r0, r2, r4, r5, r9, sl, ip, sp}^	; <UNPREDICTABLE>
     4f4:	00687361 	rsbeq	r7, r8, r1, ror #6
     4f8:	4c54454e 	cfldr64mi	mvdx4, [r4], {78}	; 0x4e
     4fc:	5f504f4f 	svcpl	0x00504f4f
     500:	43435553 	movtmi	r5, #13651	; 0x3553
     504:	00535345 	subseq	r5, r3, r5, asr #6
     508:	5f534541 	svcpl	0x00534541
     50c:	5f424345 	svcpl	0x00424345
     510:	72636564 	rsbvc	r6, r3, #100, 10	; 0x19000000
     514:	00747079 	rsbseq	r7, r4, r9, ror r0
     518:	65646f6d 	strbvs	r6, [r4, #-3949]!	; 0xf6d
     51c:	74736400 	ldrbtvc	r6, [r3], #-1024	; 0x400
     520:	6464615f 	strbtvs	r6, [r4], #-351	; 0x15f
     524:	544f0072 	strbpl	r0, [pc], #-114	; 52c <_back_addr-0x14ffad4>
     528:	65475f50 	strbvs	r5, [r7, #-3920]	; 0xf50
     52c:	6f575f74 	svcvs	0x00575f74
     530:	41006472 	tstmi	r0, r2, ror r4
     534:	685f5345 	ldmdavs	pc, {r0, r2, r6, r8, r9, ip, lr}^	; <UNPREDICTABLE>
     538:	5f687361 	svcpl	0x00687361
     53c:	00656e6f 	rsbeq	r6, r5, pc, ror #28
     540:	6f676c61 	svcvs	0x00676c61
     544:	0064695f 	rsbeq	r6, r4, pc, asr r9
     548:	636d5f74 	cmnvs	sp, #116, 30	; 0x1d0
     54c:	65645f70 	strbvs	r5, [r4, #-3952]!	; 0xf70
     550:	69726373 	ldmdbvs	r2!, {r0, r1, r4, r5, r6, r8, r9, sp, lr}^
     554:	726f7470 	rsbvc	r7, pc, #112, 8	; 0x70000000
     558:	696e6900 	stmdbvs	lr!, {r8, fp, sp, lr}^
     55c:	79656b5f 	stmdbvc	r5!, {r0, r1, r2, r3, r4, r6, r8, r9, fp, sp, lr}^
     560:	67697300 	strbvs	r7, [r9, -r0, lsl #6]!
     564:	7574616e 	ldrbvc	r6, [r4, #-366]!	; 0x16e
     568:	615f6572 	cmpvs	pc, r2, ror r5	; <UNPREDICTABLE>
     56c:	00726464 	rsbseq	r6, r2, r4, ror #8
     570:	67695370 			; <UNDEFINED> instruction: 0x67695370
     574:	7574616e 	ldrbvc	r6, [r4, #-366]!	; 0x16e
     578:	4b006572 	blmi	19b48 <_back_addr-0x14e64b8>
     57c:	656b5f68 	strbvs	r5, [fp, #-3944]!	; 0xf68
     580:	65645f79 	strbvs	r5, [r4, #-3961]!	; 0xf79
     584:	6c756166 	ldfvse	f6, [r5], #-408	; 0xfffffe68
     588:	77730074 			; <UNDEFINED> instruction: 0x77730074
     58c:	655f7061 	ldrbvs	r7, [pc, #-97]	; 533 <_back_addr-0x14ffacd>
     590:	6169646e 	cmnvs	r9, lr, ror #8
     594:	454e006e 	strbmi	r0, [lr, #-110]	; 0x6e
     598:	4f4f4c54 	svcmi	0x004f4c54
     59c:	45525f50 	ldrbmi	r5, [r2, #-3920]	; 0xf50
     5a0:	52415453 	subpl	r5, r1, #1392508928	; 0x53000000
     5a4:	72730054 	rsbsvc	r0, r3, #84	; 0x54
     5a8:	64615f63 	strbtvs	r5, [r1], #-3939	; 0xf63
     5ac:	5f007264 	svcpl	0x00007264
     5b0:	4e55465f 	mrcmi	6, 2, r4, cr5, cr15, {2}
     5b4:	4f495443 	svcmi	0x00495443
     5b8:	005f5f4e 	subseq	r5, pc, lr, asr #30
     5bc:	6b636162 	blvs	18d8b4c <__bss_end__+0x3c5134>
     5c0:	765f7075 			; <UNDEFINED> instruction: 0x765f7075
     5c4:	64006c61 	strvs	r6, [r0], #-3169	; 0xc61
     5c8:	636d5f6f 	cmnvs	sp, #444	; 0x1bc
     5cc:	65730070 	ldrbvs	r0, [r3, #-112]!	; 0x70
     5d0:	656d5f74 	strbvs	r5, [sp, #-3956]!	; 0xf74
     5d4:	79726f6d 	ldmdbvc	r2!, {r0, r2, r3, r5, r6, r8, r9, sl, fp, sp, lr}^
     5d8:	54454e00 	strbpl	r4, [r5], #-3584	; 0xe00
     5dc:	504f4f4c 	subpl	r4, pc, ip, asr #30
     5e0:	4941465f 	stmdbmi	r1, {r0, r1, r2, r3, r4, r6, r9, sl, lr}^
     5e4:	4541004c 	strbmi	r0, [r1, #-76]	; 0x4c
     5e8:	42435f53 	submi	r5, r3, #332	; 0x14c
     5ec:	6e655f43 	cdpvs	15, 6, cr5, cr5, cr3, {2}
     5f0:	70797263 	rsbsvc	r7, r9, r3, ror #4
     5f4:	656c0074 	strbvs	r0, [ip, #-116]!	; 0x74
     5f8:	6874676e 	ldmdavs	r4!, {r1, r2, r3, r5, r6, r8, r9, sl, sp, lr}^
     5fc:	64707500 	ldrbtvs	r7, [r0], #-1280	; 0x500
     600:	5f657461 	svcpl	0x00657461
     604:	74696e69 	strbtvc	r6, [r9], #-3689	; 0xe69
     608:	5f6c6169 	svcpl	0x006c6169
     60c:	74636576 	strbtvc	r6, [r3], #-1398	; 0x576
     610:	4100726f 	tstmi	r0, pc, ror #4
     614:	685f5345 	ldmdavs	pc, {r0, r2, r6, r8, r9, ip, lr}^	; <UNPREDICTABLE>
     618:	00687361 	rsbeq	r7, r8, r1, ror #6
     61c:	4c54454e 	cfldr64mi	mvdx4, [r4], {78}	; 0x4e
     620:	5f504f4f 	svcpl	0x00504f4f
     624:	544e4f43 	strbpl	r4, [lr], #-3907	; 0xf43
     628:	45554e49 	ldrbmi	r4, [r5, #-3657]	; 0xe49
     62c:	6e637400 	cdpvs	4, 6, cr7, cr3, cr0, {0}
     630:	73720074 	cmnvc	r2, #116	; 0x74
     634:	64615f61 	strbtvs	r5, [r1], #-3937	; 0xf61
     638:	41007264 	tstmi	r0, r4, ror #4
     63c:	455f5345 	ldrbmi	r5, [pc, #-837]	; 2ff <_back_addr-0x14ffd01>
     640:	655f4243 	ldrbvs	r4, [pc, #-579]	; 405 <_back_addr-0x14ffbfb>
     644:	7972636e 	ldmdbvc	r2!, {r1, r2, r3, r5, r6, r8, r9, sp, lr}^
     648:	66007470 			; <UNDEFINED> instruction: 0x66007470
     64c:	6873756c 	ldmdavs	r3!, {r2, r3, r5, r6, r8, sl, ip, sp, lr}^
     650:	6361635f 	cmnvs	r1, #2080374785	; 0x7c000001
     654:	75006568 	strvc	r6, [r0, #-1384]	; 0x568
     658:	00746e69 	rsbseq	r6, r4, r9, ror #28
     65c:	6c65646d 	cfstrdvs	mvd6, [r5], #-436	; 0xfffffe4c
     660:	70007961 	andvc	r7, r0, r1, ror #18
     664:	696c6275 	stmdbvs	ip!, {r0, r2, r4, r5, r6, r9, sp, lr}^
     668:	70784563 	rsbsvc	r4, r8, r3, ror #10
     66c:	6e656e6f 	cdpvs	14, 6, cr6, cr5, cr15, {3}
     670:	65720074 	ldrbvs	r0, [r2, #-116]!	; 0x74
     674:	73726576 	cmnvc	r2, #494927872	; 0x1d800000
     678:	73725f65 	cmnvc	r2, #404	; 0x194
     67c:	69735f61 	ldmdbvs	r3!, {r0, r5, r6, r8, r9, sl, fp, ip, lr}^
     680:	74616e67 	strbtvc	r6, [r1], #-3687	; 0xe67
     684:	00657275 	rsbeq	r7, r5, r5, ror r2
     688:	7074756f 	rsbsvc	r7, r4, pc, ror #10
     68c:	615f7475 	cmpvs	pc, r5, ror r4	; <UNPREDICTABLE>
     690:	00726464 	rsbseq	r6, r2, r4, ror #8
     694:	79706f63 	ldmdbvc	r0!, {r0, r1, r5, r6, r8, r9, sl, fp, sp, lr}^
     698:	6d656d5f 	stclvs	13, cr6, [r5, #-380]!	; 0xfffffe84
     69c:	0079726f 	rsbseq	r7, r9, pc, ror #4
     6a0:	70637364 	rsbvc	r7, r3, r4, ror #6
     6a4:	656d0074 	strbvs	r0, [sp, #-116]!	; 0x74
     6a8:	7465736d 	strbtvc	r7, [r5], #-877	; 0x36d
     6ac:	41485300 	mrsmi	r5, (UNDEF: 120)
     6b0:	61685f31 	cmnvs	r8, r1, lsr pc
     6b4:	6f006873 	svcvs	0x00006873
     6b8:	75707475 	ldrbvc	r7, [r0, #-1141]!	; 0x475
     6bc:	74720074 	ldrbtvc	r0, [r2], #-116	; 0x74
     6c0:	6e695f64 	cdpvs	15, 6, cr5, cr9, cr4, {3}
     6c4:	5f5f006c 	svcpl	0x005f006c
     6c8:	6e72656b 	cdpvs	5, 7, cr6, cr2, cr11, {3}
     6cc:	735f6c65 	cmpvc	pc, #25856	; 0x6500
     6d0:	5f657a69 	svcpl	0x00657a69
     6d4:	72730074 	rsbsvc	r0, r3, #116	; 0x74
     6d8:	74705f63 	ldrbtvc	r5, [r0], #-3939	; 0xf63
     6dc:	656e0072 	strbvs	r0, [lr, #-114]!	; 0x72
     6e0:	6f6c5f74 	svcvs	0x006c5f74
     6e4:	735f706f 	cmpvc	pc, #111	; 0x6f
     6e8:	65746174 	ldrbvs	r6, [r4, #-372]!	; 0x174
     6ec:	616f6c00 	cmnvs	pc, r0, lsl #24
     6f0:	746f5f64 	strbtvc	r5, [pc], #-3940	; 6f8 <_back_addr-0x14ff908>
     6f4:	45410070 	strbmi	r0, [r1, #-112]	; 0x70
     6f8:	42435f53 	submi	r5, r3, #332	; 0x14c
     6fc:	65645f43 	strbvs	r5, [r4, #-3907]!	; 0xf43
     700:	70797263 	rsbsvc	r7, r9, r3, ror #4
     704:	6d740074 	ldclvs	0, cr0, [r4, #-464]!	; 0xfffffe30
     708:	66756270 			; <UNDEFINED> instruction: 0x66756270
     70c:	50544f00 	subspl	r4, r4, r0, lsl #30
     710:	7465475f 	strbtvc	r4, [r5], #-1887	; 0x75f
     714:	7479425f 	ldrbtvc	r4, [r9], #-607	; 0x25f
     718:	6b700065 	blvs	1c008b4 <__bss_end__+0x6ece9c>
     71c:	73007965 	movwvc	r7, #2405	; 0x965
     720:	74726174 	ldrbtvc	r6, [r2], #-372	; 0x174
     724:	6f72705f 	svcvs	0x0072705f
     728:	6d617267 	sfmvs	f7, 2, [r1, #-412]!	; 0xfffffe64
     72c:	79656b00 	stmdbvc	r5!, {r8, r9, fp, sp, lr}^
     730:	6d65725f 	sfmvs	f7, 2, [r5, #-380]!	; 0xfffffe84
     734:	54455200 	strbpl	r5, [r5], #-512	; 0x200
     738:	535f5952 	cmppl	pc, #1343488	; 0x148000
     73c:	54524154 	ldrbpl	r4, [r2], #-340	; 0x154
     740:	636e6500 	cmnvs	lr, #0, 10
     744:	7272615f 	rsbsvc	r6, r2, #-1073741801	; 0xc0000017
     748:	00317961 	eorseq	r7, r1, r1, ror #18
     74c:	5f636e65 	svcpl	0x00636e65
     750:	61727261 	cmnvs	r2, r1, ror #4
     754:	65003279 	strvs	r3, [r0, #-633]	; 0x279
     758:	615f636e 	cmpvs	pc, lr, ror #6
     75c:	79617272 	stmdbvc	r1!, {r1, r4, r5, r6, r9, ip, sp, lr}^
     760:	626f0033 	rsbvs	r0, pc, #51	; 0x33
     764:	65737566 	ldrbvs	r7, [r3, #-1382]!	; 0x566
     768:	2e62694c 	cdpcs	9, 6, cr6, cr2, cr12, {2}
     76c:	6d740063 	ldclvs	0, cr0, [r4, #-396]!	; 0xfffffe74
     770:	6f003870 	svcvs	0x00003870
     774:	73756662 	cmnvc	r5, #102760448	; 0x6200000
     778:	756a5f65 	strbvc	r5, [sl, #-3941]!	; 0xf65
     77c:	00656764 	rsbeq	r6, r5, r4, ror #14
     780:	5f50544f 	svcpl	0x0050544f
     784:	4744554a 	strbmi	r5, [r4, -sl, asr #10]
     788:	49425f45 	stmdbmi	r2, {r0, r2, r6, r8, r9, sl, fp, ip, lr}^
     78c:	6e650054 	mcrvs	0, 3, r0, cr5, cr4, {2}
     790:	72615f63 	rsbvc	r5, r1, #396	; 0x18c
     794:	00796172 	rsbseq	r6, r9, r2, ror r1
     798:	5f676973 	svcpl	0x00676973
     79c:	62006472 	andvs	r6, r0, #1912602624	; 0x72000000
     7a0:	006c6f6f 	rsbeq	r6, ip, pc, ror #30
     7a4:	74737953 	ldrbtvc	r7, [r3], #-2387	; 0x953
     7a8:	69546d65 	ldmdbvs	r4, {r0, r2, r5, r6, r8, sl, fp, sp, lr}^
     7ac:	756f656d 	strbvc	r6, [pc, #-1389]!	; 247 <_back_addr-0x14ffdb9>
     7b0:	69740074 	ldmdbvs	r4!, {r2, r4, r5, r6}^
     7b4:	2e72656d 	cdpcs	5, 7, cr6, cr2, cr13, {3}
     7b8:	69440063 	stmdbvs	r4, {r0, r1, r5, r6}^
     7bc:	6c626173 	stfvse	f6, [r2], #-460	; 0xfffffe34
     7c0:	6d695465 	cfstrdvs	mvd5, [r9, #-404]!	; 0xfffffe6c
     7c4:	74007265 	strvc	r7, [r0], #-613	; 0x265
     7c8:	72656d69 	rsbvc	r6, r5, #6720	; 0x1a40
     7cc:	75004449 	strvc	r4, [r0, #-1097]	; 0x449
     7d0:	616c6564 	cmnvs	ip, r4, ror #10
     7d4:	77640079 			; <UNDEFINED> instruction: 0x77640079
     7d8:	696e694d 	stmdbvs	lr!, {r0, r2, r3, r6, r8, fp, sp, lr}^
     7dc:	6f636553 	svcvs	0x00636553
     7e0:	6400646e 	strvs	r6, [r0], #-1134	; 0x46e
     7e4:	63694d77 	cmnvs	r9, #7616	; 0x1dc0
     7e8:	65536f72 	ldrbvs	r6, [r3, #-3954]	; 0xf72
     7ec:	646e6f63 	strbtvs	r6, [lr], #-3939	; 0xf63
     7f0:	6c656400 	cfstrdvs	mvd6, [r5], #-0
     7f4:	69547961 	ldmdbvs	r4, {r0, r5, r6, r8, fp, ip, sp, lr}^
     7f8:	6c00656d 	cfstr32vs	mvfx6, [r0], {109}	; 0x6d
     7fc:	74696d69 	strbtvc	r6, [r9], #-3433	; 0xd69
     800:	6f496200 	svcvs	0x00496200
     804:	74617453 	strbtvc	r7, [r1], #-1107	; 0x453
     808:	64007375 	strvs	r7, [r0], #-885	; 0x375
     80c:	696e4977 	stmdbvs	lr!, {r0, r1, r2, r4, r5, r6, r8, fp, lr}^
     810:	6e490074 	mcrvs	0, 2, r0, cr9, cr4, {3}
     814:	69547469 	ldmdbvs	r4, {r0, r3, r5, r6, sl, ip, sp, lr}^
     818:	0072656d 	rsbseq	r6, r2, sp, ror #10
     81c:	544e4955 	strbpl	r4, [lr], #-2389	; 0x955
     820:	69460038 	stmdbvs	r6, {r3, r4, r5}^
     824:	73646c65 	cmnvc	r4, #25856	; 0x6500
     828:	69460031 	stmdbvs	r6, {r0, r4, r5}^
     82c:	73646c65 	cmnvc	r4, #25856	; 0x6500
     830:	79730032 	ldmdbvc	r3!, {r1, r4, r5}^
     834:	63645f73 	cmnvs	r4, #460	; 0x1cc
     838:	65686361 	strbvs	r6, [r8, #-865]!	; 0x361
     83c:	756c665f 	strbvc	r6, [ip, #-1631]!	; 0x65f
     840:	615f6873 	cmpvs	pc, r3, ror r8	; <UNPREDICTABLE>
     844:	52006c6c 	andpl	r6, r0, #108, 24	; 0x6c00
     848:	72657365 	rsbvc	r7, r5, #-1811939327	; 0x94000001
     84c:	00646576 	rsbeq	r6, r4, r6, ror r5
     850:	4d414d44 	stclmi	13, cr4, [r1, #-272]	; 0xfffffef0
     854:	6c6c6100 	stfvse	f6, [ip], #-0
     858:	635f636f 	cmpvs	pc, #-1140850687	; 0xbc000001
     85c:	65727275 	ldrbvs	r7, [r2, #-629]!	; 0x275
     860:	5500746e 	strpl	r7, [r0, #-1134]	; 0x46e
     864:	49747261 	ldmdbmi	r4!, {r0, r5, r6, r9, ip, sp, lr}^
     868:	6c447265 	sfmvs	f7, 2, [r4], {101}	; 0x65
     86c:	5445006d 	strbpl	r0, [r5], #-109	; 0x6d
     870:	00494542 	subeq	r4, r9, r2, asr #10
     874:	6c697475 	cfstrdvs	mvd7, [r9], #-468	; 0xfffffe2c
     878:	7000632e 	andvc	r6, r0, lr, lsr #6
     87c:	635f7475 	cmpvs	pc, #1962934272	; 0x75000000
     880:	00726168 	rsbseq	r6, r2, r8, ror #2
     884:	42414c44 	submi	r4, r1, #68, 24	; 0x4400
     888:	72615500 	rsbvc	r5, r1, #0, 10
     88c:	72694974 	rsbvc	r4, r9, #116, 18	; 0x1d0000
     890:	00726346 	rsbseq	r6, r2, r6, asr #6
     894:	5241555f 	subpl	r5, r1, #398458880	; 0x17c00000
     898:	47455254 	smlsldmi	r5, r5, r4, r2	; <UNPREDICTABLE>
     89c:	52534c5f 	subspl	r4, r3, #24320	; 0x5f00
     8a0:	6d697300 	stclvs	3, cr7, [r9, #-0]
     8a4:	5f656c70 	svcpl	0x00656c70
     8a8:	6c6c616d 	stfvse	f6, [ip], #-436	; 0xfffffe4c
     8ac:	7700636f 	strvc	r6, [r0, -pc, ror #6]
     8b0:	5f746961 	svcpl	0x00746961
     8b4:	656e6f64 	strbvs	r6, [lr, #-3940]!	; 0xf64
     8b8:	41555f00 	cmpmi	r5, r0, lsl #30
     8bc:	45525452 	ldrbmi	r5, [r2, #-1106]	; 0x452
     8c0:	434c5f47 	movtmi	r5, #53063	; 0xcf47
     8c4:	4c450052 	mcrrmi	0, 5, r0, r5, cr2
     8c8:	76004953 			; <UNDEFINED> instruction: 0x76004953
     8cc:	65756c61 	ldrbvs	r6, [r5, #-3169]!	; 0xc61
     8d0:	73655200 	cmnvc	r5, #0, 4
     8d4:	65767265 	ldrbvs	r7, [r6, #-613]!	; 0x265
     8d8:	52003064 	andpl	r3, r0, #100	; 0x64
     8dc:	72657365 	rsbvc	r7, r5, #-1811939327	; 0x94000001
     8e0:	31646576 	smccc	18006	; 0x4656
     8e4:	46494600 	strbmi	r4, [r9], -r0, lsl #12
     8e8:	0036314f 	eorseq	r3, r6, pc, asr #2
     8ec:	74726155 	ldrbtvc	r6, [r2], #-341	; 0x155
     8f0:	0072734d 	rsbseq	r7, r2, sp, asr #6
     8f4:	754d7275 	strbvc	r7, [sp, #-629]	; 0x275
     8f8:	64615078 	strbtvs	r5, [r1], #-120	; 0x78
     8fc:	6c61765f 	stclvs	6, cr7, [r1], #-380	; 0xfffffe84
     900:	52485400 	subpl	r5, r8, #0, 8
     904:	61550045 	cmpvs	r5, r5, asr #32
     908:	63537472 	cmpvs	r3, #1912602624	; 0x72000000
     90c:	43440072 	movtmi	r0, #16498	; 0x4072
     910:	68005354 	stmdavs	r0, {r2, r4, r6, r8, r9, ip, lr}
     914:	74737865 	ldrbtvc	r7, [r3], #-2149	; 0x865
     918:	6e693272 	mcrvs	2, 3, r3, cr9, cr2, {3}
     91c:	45540074 	ldrbmi	r0, [r4, #-116]	; 0x74
     920:	5500544d 	strpl	r5, [r0, #-1101]	; 0x44d
     924:	4c747261 	lfmmi	f7, 2, [r4], #-388	; 0xfffffe7c
     928:	52007273 	andpl	r7, r0, #805306375	; 0x30000007
     92c:	00475254 	subeq	r5, r7, r4, asr r2
     930:	72727563 	rsbsvc	r7, r2, #415236096	; 0x18c00000
     934:	55746e65 	ldrbpl	r6, [r4, #-3685]!	; 0xe65
     938:	50747261 	rsbspl	r7, r4, r1, ror #4
     93c:	0074726f 	rsbseq	r7, r4, pc, ror #4
     940:	444e5049 	strbmi	r5, [lr], #-73	; 0x49
     944:	5f736900 	svcpl	0x00736900
     948:	5f786568 	svcpl	0x00786568
     94c:	69676964 	stmdbvs	r7!, {r2, r5, r6, r8, fp, sp, lr}^
     950:	61560074 	cmpvs	r6, r4, ror r0
     954:	0065756c 	rsbeq	r7, r5, ip, ror #10
     958:	6f6c6c61 	svcvs	0x006c6c61
     95c:	6f635f63 	svcvs	0x00635f63
     960:	00746e75 	rsbseq	r6, r4, r5, ror lr
     964:	706d6f63 	rsbvc	r6, sp, r3, ror #30
     968:	5f657261 	svcpl	0x00657261
     96c:	00727473 	rsbseq	r7, r2, r3, ror r4
     970:	5241555f 	subpl	r5, r1, #398458880	; 0x17c00000
     974:	47455254 	smlsldmi	r5, r5, r4, r2	; <UNPREDICTABLE>
     978:	4f4f4c00 	svcmi	0x004f4c00
     97c:	46540050 			; <UNDEFINED> instruction: 0x46540050
     980:	00545352 	subseq	r5, r4, r2, asr r3
     984:	74726155 	ldrbtvc	r6, [r2], #-341	; 0x155
     988:	54726252 	ldrbtpl	r6, [r2], #-594	; 0x252
     98c:	6c446568 	cfstr64vs	mvdx6, [r4], {104}	; 0x68
     990:	5f70006c 	svcpl	0x0070006c
     994:	61726170 	cmnvs	r2, r0, ror r1
     998:	555f006d 	ldrbpl	r0, [pc, #-109]	; 933 <_back_addr-0x14ff6cd>
     99c:	52545241 	subspl	r5, r4, #268435460	; 0x10000004
     9a0:	495f4745 	ldmdbmi	pc, {r0, r2, r6, r8, r9, sl, lr}^	; <UNPREDICTABLE>
     9a4:	465f5249 	ldrbmi	r5, [pc], -r9, asr #4
     9a8:	77005243 	strvc	r5, [r0, -r3, asr #4]
     9ac:	68637461 	stmdavs	r3!, {r0, r5, r6, sl, ip, sp, lr}^
     9b0:	5f676f64 	svcpl	0x00676f64
     9b4:	65736572 	ldrbvs	r6, [r3, #-1394]!	; 0x572
     9b8:	72700074 	rsbsvc	r0, r0, #116	; 0x74
     9bc:	5f746e69 	svcpl	0x00746e69
     9c0:	00786568 	rsbseq	r6, r8, r8, ror #10
     9c4:	5241555f 	subpl	r5, r1, #398458880	; 0x17c00000
     9c8:	47455254 	smlsldmi	r5, r5, r4, r2	; <UNPREDICTABLE>
     9cc:	52534d5f 	subspl	r4, r3, #6080	; 0x17c0
     9d0:	625f6e00 	subsvs	r6, pc, #0, 28
     9d4:	73657479 	cmnvc	r5, #2030043136	; 0x79000000
     9d8:	67657200 	strbvs	r7, [r5, -r0, lsl #4]!
     9dc:	6c61765f 	stclvs	6, cr7, [r1], #-380	; 0xfffffe84
     9e0:	72657300 	rsbvc	r7, r5, #0, 6
     9e4:	5f6c6169 	svcpl	0x006c6169
     9e8:	74697277 	strbtvc	r7, [r9], #-631	; 0x277
     9ec:	5f5f0065 	svcpl	0x005f0065
     9f0:	30766964 	rsbscc	r6, r6, r4, ror #18
     9f4:	73616d00 	cmnvc	r1, #0, 26
     9f8:	6155006b 	cmpvs	r5, fp, rrx
     9fc:	634d7472 	movtvs	r7, #54386	; 0xd472
     a00:	555f0072 	ldrbpl	r0, [pc, #-114]	; 996 <_back_addr-0x14ff66a>
     a04:	52545241 	subspl	r5, r4, #268435460	; 0x10000004
     a08:	495f4745 	ldmdbmi	pc, {r0, r2, r6, r8, r9, sl, lr}^	; <UNPREDICTABLE>
     a0c:	445f5245 	ldrbmi	r5, [pc], #-581	; a14 <_back_addr-0x14ff5ec>
     a10:	45004d4c 	strmi	r4, [r0, #-3404]	; 0xd4c
     a14:	49535344 	ldmdbmi	r3, {r2, r6, r8, r9, ip, lr}^
     a18:	41555f00 	cmpmi	r5, r0, lsl #30
     a1c:	45525452 	ldrbmi	r5, [r2, #-1106]	; 0x452
     a20:	434d5f47 	movtmi	r5, #57159	; 0xdf47
     a24:	61550052 	cmpvs	r5, r2, asr r0
     a28:	65527472 	ldrbvs	r7, [r2, #-1138]	; 0x472
     a2c:	555f0067 	ldrbpl	r0, [pc, #-103]	; 9cd <_back_addr-0x14ff633>
     a30:	52545241 	subspl	r5, r4, #268435460	; 0x10000004
     a34:	525f4745 	subspl	r4, pc, #18087936	; 0x1140000
     a38:	545f5242 	ldrbpl	r5, [pc], #-578	; a40 <_back_addr-0x14ff5c0>
     a3c:	445f5248 	ldrbmi	r5, [pc], #-584	; a44 <_back_addr-0x14ff5bc>
     a40:	55004c4c 	strpl	r4, [r0, #-3148]	; 0xc4c
     a44:	4c747261 	lfmmi	f7, 2, [r4], #-388	; 0xfffffe7c
     a48:	45007263 	strmi	r7, [r0, #-611]	; 0x263
     a4c:	4f464946 	svcmi	0x00464946
     a50:	52465200 	subpl	r5, r6, #0, 4
     a54:	5f005453 	svcpl	0x00005453
     a58:	54524155 	ldrbpl	r4, [r2], #-341	; 0x155
     a5c:	5f474552 	svcpl	0x00474552
     a60:	00524353 	subseq	r4, r2, r3, asr r3
     a64:	6e697270 	mcrvs	2, 3, r7, cr9, cr0, {3}
     a68:	61765f74 	cmnvs	r6, r4, ror pc
     a6c:	5245006c 	subpl	r0, r5, #108	; 0x6c
     a70:	63004942 	movwvs	r4, #2370	; 0x942
     a74:	61706d6f 	cmnvs	r0, pc, ror #26
     a78:	6d5f6572 	cfldr64vs	mvdx6, [pc, #-456]	; 8b8 <_back_addr-0x14ff748>
     a7c:	726f6d65 	rsbvc	r6, pc, #6464	; 0x1940
     a80:	69460079 	stmdbvs	r6, {r0, r3, r4, r5, r6}^
     a84:	73646c65 	cmnvc	r4, #25856	; 0x6500
     a88:	65694600 	strbvs	r4, [r9, #-1536]!	; 0x600
     a8c:	3073646c 	rsbscc	r6, r3, ip, ror #8
     a90:	74657300 	strbtvc	r7, [r5], #-768	; 0x300
     a94:	7373635f 	cmnvc	r3, #2080374785	; 0x7c000001
     a98:	00726c65 	rsbseq	r6, r2, r5, ror #24
     a9c:	61766e69 	cmnvs	r6, r9, ror #28
     aa0:	6164696c 	cmnvs	r4, ip, ror #18
     aa4:	695f6574 	ldmdbvs	pc, {r2, r4, r5, r6, r8, sl, sp, lr}^	; <UNPREDICTABLE>
     aa8:	68636163 	stmdavs	r3!, {r0, r1, r5, r6, r8, sp, lr}^
     aac:	6c615f65 	stclvs	15, cr5, [r1], #-404	; 0xfffffe6c
     ab0:	6567006c 	strbvs	r0, [r7, #-108]!	; 0x6c
     ab4:	6c635f74 	stclvs	15, cr5, [r3], #-464	; 0xfffffe30
     ab8:	00726469 	rsbseq	r6, r2, r9, ror #8
     abc:	73756c66 	cmnvc	r5, #26112	; 0x6600
     ac0:	63645f68 	cmnvs	r4, #104, 30	; 0x1a0
     ac4:	65686361 	strbvs	r6, [r8, #-865]!	; 0x361
     ac8:	6e61725f 	mcrvs	2, 3, r7, cr1, cr15, {2}
     acc:	76006567 	strvc	r6, [r0], -r7, ror #10
     ad0:	6e695f37 	mcrvs	15, 3, r5, cr9, cr7, {1}
     ad4:	5f6c6176 	svcpl	0x006c6176
     ad8:	63616364 	cmnvs	r1, #100, 6	; 0x90000001
     adc:	6c5f6568 	cfldr64vs	mvdx6, [pc], {104}	; 0x68
     ae0:	6c657665 	stclvs	6, cr7, [r5], #-404	; 0xfffffe6c
     ae4:	7465735f 	strbtvc	r7, [r5], #-863	; 0x35f
     ae8:	00796177 	rsbseq	r6, r9, r7, ror r1
     aec:	61766e69 	cmnvs	r6, r9, ror #28
     af0:	6164696c 	cmnvs	r4, ip, ror #18
     af4:	645f6574 	ldrbvs	r6, [pc], #-1396	; afc <_back_addr-0x14ff504>
     af8:	68636163 	stmdavs	r3!, {r0, r1, r5, r6, r8, sp, lr}^
     afc:	61725f65 	cmnvs	r2, r5, ror #30
     b00:	0065676e 	rsbeq	r6, r5, lr, ror #14
     b04:	37765f5f 			; <UNDEFINED> instruction: 0x37765f5f
     b08:	74756f5f 	ldrbtvc	r6, [r5], #-3935	; 0xf5f
     b0c:	635f7265 	cmpvs	pc, #1342177286	; 0x50000006
     b10:	65686361 	strbvs	r6, [r8, #-865]!	; 0x361
     b14:	756c665f 	strbvc	r6, [ip, #-1631]!	; 0x65f
     b18:	725f6873 	subsvc	r6, pc, #7536640	; 0x730000
     b1c:	65676e61 	strbvs	r6, [r7, #-3681]!	; 0xe61
     b20:	5f377600 	svcpl	0x00377600
     b24:	6e69616d 	powvsez	f6, f1, #5.0
     b28:	63645f74 	cmnvs	r4, #116, 30	; 0x1d0
     b2c:	65686361 	strbvs	r6, [r8, #-865]!	; 0x361
     b30:	6c6c615f 	stfvse	f6, [ip], #-380	; 0xfffffe84
     b34:	5f377600 	svcpl	0x00377600
     b38:	6e69616d 	powvsez	f6, f1, #5.0
     b3c:	63645f74 	cmnvs	r4, #116, 30	; 0x1d0
     b40:	65686361 	strbvs	r6, [r8, #-865]!	; 0x361
     b44:	76656c5f 			; <UNDEFINED> instruction: 0x76656c5f
     b48:	735f6c65 	cmpvc	pc, #25856	; 0x6500
     b4c:	61777465 	cmnvs	r7, r5, ror #8
     b50:	37760079 			; <UNDEFINED> instruction: 0x37760079
     b54:	766e695f 			; <UNDEFINED> instruction: 0x766e695f
     b58:	745f6c61 	ldrbvc	r6, [pc], #-3169	; b60 <_back_addr-0x14ff4a0>
     b5c:	5f00626c 	svcpl	0x0000626c
     b60:	5f37765f 	svcpl	0x0037765f
     b64:	6574756f 	ldrbvs	r7, [r4, #-1391]!	; 0x56f
     b68:	61635f72 	smcvs	13810	; 0x35f2
     b6c:	5f656863 	svcpl	0x00656863
     b70:	61766e69 	cmnvs	r6, r9, ror #28
     b74:	6c615f6c 	stclvs	15, cr5, [r1], #-432	; 0xfffffe50
     b78:	6f6c006c 	svcvs	0x006c006c
     b7c:	5f325f67 	svcpl	0x00325f67
     b80:	6f725f6e 	svcvs	0x00725f6e
     b84:	5f646e75 	svcpl	0x00646e75
     b88:	63007075 	movwvs	r7, #117	; 0x75
     b8c:	65686361 	strbvs	r6, [r8, #-865]!	; 0x361
     b90:	2e37765f 	mrccs	6, 1, r7, cr7, cr15, {2}
     b94:	37760063 	ldrbcc	r0, [r6, -r3, rrx]!
     b98:	6163645f 	cmnvs	r3, pc, asr r4
     b9c:	5f656863 	svcpl	0x00656863
     ba0:	61656c63 	cmnvs	r5, r3, ror #24
     ba4:	6e695f6e 	cdpvs	15, 6, cr5, cr9, cr14, {3}
     ba8:	5f6c6176 	svcpl	0x006c6176
     bac:	676e6172 			; <UNDEFINED> instruction: 0x676e6172
     bb0:	6f6c0065 	svcvs	0x006c0065
     bb4:	6e5f3267 	cdpvs	2, 5, cr3, cr15, cr7, {3}
     bb8:	775f6d75 			; <UNDEFINED> instruction: 0x775f6d75
     bbc:	00737961 	rsbseq	r7, r3, r1, ror #18
     bc0:	5f796177 	svcpl	0x00796177
     bc4:	66696873 			; <UNDEFINED> instruction: 0x66696873
     bc8:	5f5f0074 	svcpl	0x005f0074
     bcc:	6f5f3776 	svcvs	0x005f3776
     bd0:	72657475 	rsbvc	r7, r5, #1962934272	; 0x75000000
     bd4:	6361635f 	cmnvs	r1, #2080374785	; 0x7c000001
     bd8:	665f6568 	ldrbvs	r6, [pc], -r8, ror #10
     bdc:	6873756c 	ldmdavs	r3!, {r2, r3, r5, r6, r8, sl, ip, sp, lr}^
     be0:	6c6c615f 	stfvse	f6, [ip], #-380	; 0xfffffe84
     be4:	676f6c00 	strbvs	r6, [pc, -r0, lsl #24]!
     be8:	6e006e32 	mcrvs	14, 0, r6, cr0, cr2, {1}
     bec:	735f6d75 	cmpvc	pc, #7488	; 0x1d40
     bf0:	00737465 	rsbseq	r7, r3, r5, ror #8
     bf4:	6576656c 	ldrbvs	r6, [r6, #-1388]!	; 0x56c
     bf8:	74735f6c 	ldrbtvc	r5, [r3], #-3948	; 0xf6c
     bfc:	5f747261 	svcpl	0x00747261
     c00:	00746962 	rsbseq	r6, r4, r2, ror #18
     c04:	32676f6c 	rsbcc	r6, r7, #108, 30	; 0x1b0
     c08:	6e696c5f 	mcrvs	12, 3, r6, cr9, cr15, {2}
     c0c:	656c5f65 	strbvs	r5, [ip, #-3941]!	; 0xf65
     c10:	7473006e 	ldrbtvc	r0, [r3], #-110	; 0x6e
     c14:	00747261 	rsbseq	r7, r4, r1, ror #4
     c18:	7265706f 	rsbvc	r7, r5, #111	; 0x6f
     c1c:	6f697461 	svcvs	0x00697461
     c20:	3776006e 	ldrbcc	r0, [r6, -lr, rrx]!
     c24:	656c635f 	strbvs	r6, [ip, #-863]!	; 0x35f
     c28:	695f6e61 	ldmdbvs	pc, {r0, r5, r6, r9, sl, fp, sp, lr}^	; <UNPREDICTABLE>
     c2c:	6c61766e 	stclvs	6, cr7, [r1], #-440	; 0xfffffe48
     c30:	6163645f 	cmnvs	r3, pc, asr r4
     c34:	5f656863 	svcpl	0x00656863
     c38:	6576656c 	ldrbvs	r6, [r6, #-1388]!	; 0x56c
     c3c:	65735f6c 	ldrbvs	r5, [r3, #-3948]!	; 0xf6c
     c40:	79617774 	stmdbvc	r1!, {r2, r4, r5, r6, r8, r9, sl, ip, sp, lr}^
     c44:	6f747300 	svcvs	0x00747300
     c48:	37760070 			; <UNDEFINED> instruction: 0x37760070
     c4c:	6163645f 	cmnvs	r3, pc, asr r4
     c50:	5f656863 	svcpl	0x00656863
     c54:	61766e69 	cmnvs	r6, r9, ror #28
     c58:	61725f6c 	cmnvs	r2, ip, ror #30
     c5c:	0065676e 	rsbeq	r6, r5, lr, ror #14
     c60:	5f746567 	svcpl	0x00746567
     c64:	69736363 	ldmdbvs	r3!, {r0, r1, r5, r6, r8, r9, sp, lr}^
     c68:	5f007264 	svcpl	0x00007264
     c6c:	5f37765f 	svcpl	0x0037765f
     c70:	6574756f 	ldrbvs	r7, [r4, #-1391]!	; 0x56f
     c74:	61635f72 	smcvs	13810	; 0x35f2
     c78:	5f656863 	svcpl	0x00656863
     c7c:	61766e69 	cmnvs	r6, r9, ror #28
     c80:	61725f6c 	cmnvs	r2, ip, ror #30
     c84:	0065676e 	rsbeq	r6, r5, lr, ror #14
     c88:	5f6d7261 	svcpl	0x006d7261
     c8c:	74696e69 	strbtvc	r6, [r9], #-3689	; 0xe69
     c90:	6665625f 			; <UNDEFINED> instruction: 0x6665625f
     c94:	5f65726f 	svcpl	0x0065726f
     c98:	00756d6d 	rsbseq	r6, r5, sp, ror #26
     c9c:	676e6172 			; <UNDEFINED> instruction: 0x676e6172
     ca0:	706f5f65 	rsbvc	r5, pc, r5, ror #30
     ca4:	765f5f00 	ldrbvc	r5, [pc], -r0, lsl #30
     ca8:	756f5f37 	strbvc	r5, [pc, #-3895]!	; fffffd79 <__bss_end__+0xfeaec361>
     cac:	5f726574 	svcpl	0x00726574
     cb0:	68636163 	stmdavs	r3!, {r0, r1, r5, r6, r8, sp, lr}^
     cb4:	6e655f65 	cdpvs	15, 6, cr5, cr5, cr5, {3}
     cb8:	656c6261 	strbvs	r6, [ip, #-609]!	; 0x261
     cbc:	765f5f00 	ldrbvc	r5, [pc], -r0, lsl #30
     cc0:	756f5f37 	strbvc	r5, [pc, #-3895]!	; fffffd91 <__bss_end__+0xfeaec379>
     cc4:	5f726574 	svcpl	0x00726574
     cc8:	68636163 	stmdavs	r3!, {r0, r1, r5, r6, r8, sp, lr}^
     ccc:	69645f65 	stmdbvs	r4!, {r0, r2, r5, r6, r8, r9, sl, fp, ip, lr}^
     cd0:	6c626173 	stfvse	f6, [r2], #-460	; 0xfffffe34
     cd4:	656c0065 	strbvs	r0, [ip, #-101]!	; 0x65
     cd8:	006c6576 	rsbeq	r6, ip, r6, ror r5
     cdc:	645f3776 	ldrbvs	r3, [pc], #-1910	; ce4 <_back_addr-0x14ff31c>
     ce0:	68636163 	stmdavs	r3!, {r0, r1, r5, r6, r8, sp, lr}^
     ce4:	616d5f65 	cmnvs	sp, r5, ror #30
     ce8:	5f746e69 	svcpl	0x00746e69
     cec:	676e6172 			; <UNDEFINED> instruction: 0x676e6172
     cf0:	61630065 	cmnvs	r3, r5, rrx
     cf4:	5f656863 	svcpl	0x00656863
     cf8:	65707974 	ldrbvs	r7, [r0, #-2420]!	; 0x974
     cfc:	756c6600 	strbvc	r6, [ip, #-1536]!	; 0x600
     d00:	645f6873 	ldrbvs	r6, [pc], #-2163	; d08 <_back_addr-0x14ff2f8>
     d04:	68636163 	stmdavs	r3!, {r0, r1, r5, r6, r8, sp, lr}^
     d08:	6c615f65 	stclvs	15, cr5, [r1], #-404	; 0xfffffe6c
     d0c:	6e69006c 	cdpvs	0, 6, cr0, cr9, cr12, {3}
     d10:	696c6176 	stmdbvs	ip!, {r1, r2, r4, r5, r6, r8, sp, lr}^
     d14:	65746164 	ldrbvs	r6, [r4, #-356]!	; 0x164
     d18:	6163645f 	cmnvs	r3, pc, asr r4
     d1c:	5f656863 	svcpl	0x00656863
     d20:	006c6c61 	rsbeq	r6, ip, r1, ror #24
     d24:	6e6f6c75 	mcrvs	12, 3, r6, cr15, cr5, {3}
     d28:	72730067 	rsbsvc	r0, r3, #103	; 0x67
     d2c:	72615f63 	rsbvc	r5, r1, #396	; 0x18c
     d30:	00796172 	rsbseq	r6, r9, r2, ror r1
     d34:	5f70746f 	svcpl	0x0070746f
     d38:	5f736561 	svcpl	0x00736561
     d3c:	6d756e65 	ldclvs	14, cr6, [r5, #-404]!	; 0xfffffe6c
     d40:	6100745f 	tstvs	r0, pc, asr r4
     d44:	655f7365 	ldrbvs	r7, [pc, #-869]	; 9e7 <_back_addr-0x14ff619>
     d48:	006d756e 	rsbeq	r7, sp, lr, ror #10
     d4c:	31755f5f 	cmncc	r5, pc, asr pc
     d50:	65720036 	ldrbvs	r0, [r2, #-54]!	; 0x36
     d54:	625f6c61 	subsvs	r6, pc, #24832	; 0x6100
     d58:	64007469 	strvs	r7, [r0], #-1129	; 0x469
     d5c:	75625f6f 	strbvc	r5, [r2, #-3951]!	; 0xf6f
     d60:	6d5f6e72 	ldclvs	14, cr6, [pc, #-456]	; ba0 <_back_addr-0x14ff460>
     d64:	66655f70 	uqsub16vs	r5, r5, r0
     d68:	5f657375 	svcpl	0x00657375
     d6c:	73746962 	cmnvc	r4, #1605632	; 0x188000
     d70:	5f6f6400 	svcpl	0x006f6400
     d74:	6e727562 	cdpvs	5, 7, cr7, cr2, cr2, {3}
     d78:	7566655f 	strbvc	r6, [r6, #-1375]!	; 0x55f
     d7c:	6b5f6573 	blvs	17da350 <__bss_end__+0x2c6938>
     d80:	65737965 	ldrbvs	r7, [r3, #-2405]!	; 0x965
     d84:	6964006c 	stmdbvs	r4!, {r2, r3, r5, r6}^
     d88:	006e5f76 	rsbeq	r5, lr, r6, ror pc
     d8c:	625f6f64 	subsvs	r6, pc, #100, 30	; 0x190
     d90:	5f6e7275 	svcpl	0x006e7275
     d94:	73756665 	cmnvc	r5, #105906176	; 0x6500000
     d98:	6f6e5f65 	svcvs	0x006e5f65
     d9c:	6c616d72 	stclvs	13, cr6, [r1], #-456	; 0xfffffe38
     da0:	6762645f 			; <UNDEFINED> instruction: 0x6762645f
     da4:	444d4300 	strbmi	r4, [sp], #-768	; 0x300
     da8:	5445525f 	strbpl	r5, [r5], #-607	; 0x25f
     dac:	4355535f 	cmpmi	r5, #2080374785	; 0x7c000001
     db0:	53534543 	cmppl	r3, #281018368	; 0x10c00000
     db4:	6e697500 	cdpvs	5, 6, cr7, cr9, cr0, {0}
     db8:	5f363174 	svcpl	0x00363174
     dbc:	5f650074 	svcpl	0x00650074
     dc0:	66667562 	strbtvs	r7, [r6], -r2, ror #10
     dc4:	74007265 	strvc	r7, [r0], #-613	; 0x265
     dc8:	6c61746f 	cfstrdvs	mvd7, [r1], #-444	; 0xfffffe44
     dcc:	65747962 	ldrbvs	r7, [r4, #-2402]!	; 0x962
     dd0:	6e696c00 	cdpvs	12, 6, cr6, cr9, cr0, {0}
     dd4:	6e656c65 	cdpvs	12, 6, cr6, cr5, cr5, {3}
     dd8:	5f6f6400 	svcpl	0x006f6400
     ddc:	6e727562 	cdpvs	5, 7, cr7, cr2, cr2, {3}
     de0:	7566655f 	strbvc	r6, [r6, #-1375]!	; 0x55f
     de4:	675f6573 			; <UNDEFINED> instruction: 0x675f6573
     de8:	706d7465 	rsbvc	r7, sp, r5, ror #8
     dec:	74736574 	ldrbtvc	r6, [r3], #-1396	; 0x574
     df0:	6f640032 	svcvs	0x00640032
     df4:	7275625f 	rsbsvc	r6, r5, #-268435451	; 0xf0000005
     df8:	66655f6e 	strbtvs	r5, [r5], -lr, ror #30
     dfc:	5f657375 	svcpl	0x00657375
     e00:	5f617372 	svcpl	0x00617372
     e04:	5f6d6770 	svcpl	0x006d6770
     e08:	00736964 	rsbseq	r6, r3, r4, ror #18
     e0c:	625f6f64 	subsvs	r6, pc, #100, 30	; 0x190
     e10:	5f6e7275 	svcpl	0x006e7275
     e14:	73756665 	cmnvc	r5, #105906176	; 0x6500000
     e18:	69645f65 	stmdbvs	r4!, {r0, r2, r5, r6, r8, r9, sl, fp, ip, lr}^
     e1c:	656e6f73 	strbvs	r6, [lr, #-3955]!	; 0xf73
     e20:	65726f63 	ldrbvs	r6, [r2, #-3939]!	; 0xf63
     e24:	755f5f00 	ldrbvc	r5, [pc, #-3840]	; ffffff2c <__bss_end__+0xfeaec514>
     e28:	6f640038 	svcvs	0x00640038
     e2c:	7275625f 	rsbsvc	r6, r5, #-268435451	; 0xf0000005
     e30:	66655f6e 	strbtvs	r5, [r5], -lr, ror #30
     e34:	5f657375 	svcpl	0x00657375
     e38:	75636573 	strbvc	r6, [r3, #-1395]!	; 0x573
     e3c:	6f626572 	svcvs	0x00626572
     e40:	5f00746f 	svcpl	0x0000746f
     e44:	3233755f 	eorscc	r7, r3, #398458880	; 0x17c00000
     e48:	5f6f6400 	svcpl	0x006f6400
     e4c:	6e727562 	cdpvs	5, 7, cr7, cr2, cr2, {3}
     e50:	7566655f 	strbvc	r6, [r6, #-1375]!	; 0x55f
     e54:	725f6573 	subsvc	r6, pc, #482344960	; 0x1cc00000
     e58:	77006173 	smlsdxvc	r0, r3, r1, r6
     e5c:	68746469 	ldmdavs	r4!, {r0, r3, r5, r6, sl, sp, lr}^
     e60:	746f6e00 	strbtvc	r6, [pc], #-3584	; e68 <_back_addr-0x14ff198>
     e64:	6573755f 	ldrbvs	r7, [r3, #-1375]!	; 0x55f
     e68:	6f6e0031 	svcvs	0x006e0031
     e6c:	73755f74 	cmnvc	r5, #116, 30	; 0x1d0
     e70:	73003265 	movwvc	r3, #613	; 0x265
     e74:	74726174 	ldrbtvc	r6, [r2], #-372	; 0x174
     e78:	65747962 	ldrbvs	r7, [r4, #-2402]!	; 0x962
     e7c:	61747300 	cmnvs	r4, r0, lsl #6
     e80:	69627472 	stmdbvs	r2!, {r1, r4, r5, r6, sl, ip, sp, lr}^
     e84:	544f0074 	strbpl	r0, [pc], #-116	; e8c <_back_addr-0x14ff174>
     e88:	72505f50 	subsvc	r5, r0, #80, 30	; 0x140
     e8c:	6172676f 	cmnvs	r2, pc, ror #14
     e90:	74535f6d 	ldrbvc	r5, [r3], #-3949	; 0xf6d
     e94:	00747261 	rsbseq	r7, r4, r1, ror #4
     e98:	67696c61 	strbvs	r6, [r9, -r1, ror #24]!
     e9c:	006e5f6e 	rsbeq	r5, lr, lr, ror #30
     ea0:	6e727562 	cdpvs	5, 7, cr7, cr2, cr2, {3}
     ea4:	5f64695f 	svcpl	0x0064695f
     ea8:	74736574 	ldrbtvc	r6, [r3], #-1396	; 0x574
     eac:	61657200 	cmnvs	r5, r0, lsl #4
     eb0:	64695f64 	strbtvs	r5, [r9], #-3940	; 0xf64
     eb4:	7365745f 	cmnvc	r5, #1593835520	; 0x5f000000
     eb8:	6f640074 	svcvs	0x00640074
     ebc:	7275625f 	rsbsvc	r6, r5, #-268435451	; 0xf0000005
     ec0:	66655f6e 	strbtvs	r5, [r5], -lr, ror #30
     ec4:	5f657375 	svcpl	0x00657375
     ec8:	006c6c61 	rsbeq	r6, ip, r1, ror #24
     ecc:	5f6d6572 	svcpl	0x006d6572
     ed0:	006c6176 	rsbeq	r6, ip, r6, ror r1
     ed4:	625f6f64 	subsvs	r6, pc, #100, 30	; 0x190
     ed8:	5f6e7275 	svcpl	0x006e7275
     edc:	73756665 	cmnvc	r5, #105906176	; 0x6500000
     ee0:	6f625f65 	svcvs	0x00625f65
     ee4:	6e65746f 	cdpvs	4, 6, cr7, cr5, cr15, {3}
     ee8:	6c610063 	stclvs	0, cr0, [r1], #-396	; 0xfffffe74
     eec:	5f6e6769 	svcpl	0x006e6769
     ef0:	5f6d6572 	svcpl	0x006d6572
     ef4:	6665006e 	strbtvs	r0, [r5], -lr, rrx
     ef8:	2e657375 	mcrcs	3, 3, r7, cr5, cr5, {3}
     efc:	6f640063 	svcvs	0x00640063
     f00:	7275625f 	rsbsvc	r6, r5, #-268435451	; 0xf0000005
     f04:	66655f6e 	strbtvs	r5, [r5], -lr, ror #30
     f08:	5f657375 	svcpl	0x00657375
     f0c:	64616f6c 	strbtvs	r6, [r1], #-3948	; 0xf6c
     f10:	00736f73 	rsbseq	r6, r3, r3, ror pc
     f14:	625f6f64 	subsvs	r6, pc, #100, 30	; 0x190
     f18:	5f6e7275 	svcpl	0x006e7275
     f1c:	73756665 	cmnvc	r5, #105906176	; 0x6500000
     f20:	706d5f65 	rsbvc	r5, sp, r5, ror #30
     f24:	74736574 	ldrbtvc	r6, [r3], #-1396	; 0x574
     f28:	72610032 	rsbvc	r0, r1, #50	; 0x32
     f2c:	41796172 	cmnmi	r9, r2, ror r1
     f30:	72726100 	rsbsvc	r6, r2, #0, 2
     f34:	00427961 	subeq	r7, r2, r1, ror #18
     f38:	61727261 	cmnvs	r2, r1, ror #4
     f3c:	74004379 	strvc	r4, [r0], #-889	; 0x379
     f40:	6c61746f 	cfstrdvs	mvd7, [r1], #-444	; 0xfffffe44
     f44:	65747962 	ldrbvs	r7, [r4, #-2402]!	; 0x962
     f48:	6f640073 	svcvs	0x00640073
     f4c:	7275625f 	rsbsvc	r6, r5, #-268435451	; 0xf0000005
     f50:	66655f6e 	strbtvs	r5, [r5], -lr, ror #30
     f54:	5f657375 	svcpl	0x00657375
     f58:	00736561 	rsbseq	r6, r3, r1, ror #10
     f5c:	64616572 	strbtvs	r6, [r1], #-1394	; 0x572
     f60:	7566655f 	strbvc	r6, [r6, #-1375]!	; 0x55f
     f64:	73006573 	movwvc	r6, #1395	; 0x573
     f68:	74726174 	ldrbtvc	r6, [r2], #-372	; 0x174
     f6c:	6464615f 	strbtvs	r6, [r4], #-351	; 0x15f
     f70:	4d430072 	stclmi	0, cr0, [r3, #-456]	; 0xfffffe38
     f74:	45525f44 	ldrbmi	r5, [r2, #-3908]	; 0xf44
     f78:	41465f54 	cmpmi	r6, r4, asr pc
     f7c:	52554c49 	subspl	r4, r5, #18688	; 0x4900
     f80:	69750045 	ldmdbvs	r5!, {r0, r2, r6}^
     f84:	3233746e 	eorscc	r7, r3, #1845493760	; 0x6e000000
     f88:	6300745f 	movwvs	r7, #1119	; 0x45f
     f8c:	616d6d6f 	cmnvs	sp, pc, ror #26
     f90:	725f646e 	subsvc	r6, pc, #1845493760	; 0x6e000000
     f94:	745f7465 	ldrbvc	r7, [pc], #-1125	; f9c <_back_addr-0x14ff064>
     f98:	50544f00 	subspl	r4, r4, r0, lsl #30
     f9c:	5345415f 	movtpl	r4, #20831	; 0x515f
     fa0:	00484b5f 	subeq	r4, r8, pc, asr fp
     fa4:	5f50544f 	svcpl	0x0050544f
     fa8:	5f534541 	svcpl	0x00534541
     fac:	64004e4b 	strvs	r4, [r0], #-3659	; 0xe4b
     fb0:	75625f6f 	strbvc	r5, [r2, #-3951]!	; 0xf6f
     fb4:	655f6e72 	ldrbvs	r6, [pc, #-3698]	; 14a <_back_addr-0x14ffeb6>
     fb8:	65737566 	ldrbvs	r7, [r3, #-1382]!	; 0x566
     fbc:	6377685f 	cmnvs	r7, #6225920	; 0x5f0000
     fc0:	4f006b68 	svcmi	0x00006b68
     fc4:	415f5054 	cmpmi	pc, r4, asr r0	; <UNPREDICTABLE>
     fc8:	4b5f5345 	blmi	17d5ce4 <__bss_end__+0x2c22cc>
     fcc:	6f640053 	svcvs	0x00640053
     fd0:	7275625f 	rsbsvc	r6, r5, #-268435451	; 0xf0000005
     fd4:	66655f6e 	strbtvs	r5, [r5], -lr, ror #30
     fd8:	5f657375 	svcpl	0x00657375
     fdc:	32627375 	rsbcc	r7, r2, #-738197503	; 0xd4000001
     fe0:	6d617273 	sfmvs	f7, 2, [r1, #-460]!	; 0xfffffe34
     fe4:	66666f00 	strbtvs	r6, [r6], -r0, lsl #30
     fe8:	00746573 	rsbseq	r6, r4, r3, ror r5
     fec:	625f6f64 	subsvs	r6, pc, #100, 30	; 0x190
     ff0:	5f6e7275 	svcpl	0x006e7275
     ff4:	73756665 	cmnvc	r5, #105906176	; 0x6500000
     ff8:	65645f65 	strbvs	r5, [r4, #-3941]!	; 0xf65
     ffc:	65636976 	strbvs	r6, [r3, #-2422]!	; 0x976
    1000:	72004449 	andvc	r4, r0, #1224736768	; 0x49000000
    1004:	5f6c6165 	svcpl	0x006c6165
    1008:	6572006e 	ldrbvs	r0, [r2, #-110]!	; 0x6e
    100c:	6f5f6c61 	svcvs	0x005f6c61
    1010:	74657366 	strbtvc	r7, [r5], #-870	; 0x366
    1014:	6e697500 	cdpvs	5, 6, cr7, cr9, cr0, {0}
    1018:	745f3874 	ldrbvc	r3, [pc], #-2164	; 1020 <_back_addr-0x14fefe0>
    101c:	5f6f6400 	svcpl	0x006f6400
    1020:	6e727562 	cdpvs	5, 7, cr7, cr2, cr2, {3}
    1024:	7566655f 	strbvc	r6, [r6, #-1375]!	; 0x55f
    1028:	735f6573 	cmpvc	pc, #482344960	; 0x1cc00000
    102c:	72756365 	rsbsvc	r6, r5, #-1811939327	; 0x94000001
    1030:	62645f65 	rsbvs	r5, r4, #404	; 0x194
    1034:	65610067 	strbvs	r0, [r1, #-103]!	; 0x67
    1038:	656b5f73 	strbvs	r5, [fp, #-3955]!	; 0xf73
    103c:	686b5f79 	stmdavs	fp!, {r0, r3, r4, r5, r6, r8, r9, sl, fp, ip, lr}^
    1040:	444d4300 	strbmi	r4, [sp], #-768	; 0x300
    1044:	5445525f 	strbpl	r5, [r5], #-607	; 0x25f
    1048:	4153555f 	cmpmi	r3, pc, asr r5
    104c:	61004547 	tstvs	r0, r7, asr #10
    1050:	6b5f7365 	blvs	17dddec <__bss_end__+0x2ca3d4>
    1054:	6b5f7965 	blvs	17df5f0 <__bss_end__+0x2cbbd8>
    1058:	696c006e 	stmdbvs	ip!, {r1, r2, r3, r5, r6}^
    105c:	7562656e 	strbvc	r6, [r2, #-1390]!	; 0x56e
    1060:	65610066 	strbvs	r0, [r1, #-102]!	; 0x66
    1064:	656b5f73 	strbvs	r5, [fp, #-3955]!	; 0xf73
    1068:	736b5f79 	cmnvc	fp, #484	; 0x1e4
    106c:	50544f00 	subspl	r4, r4, r0, lsl #30
    1070:	6f72505f 	svcvs	0x0072505f
    1074:	6d617267 	sfmvs	f7, 2, [r1, #-412]!	; 0xfffffe64
    1078:	646e455f 	strbtvs	r4, [lr], #-1375	; 0x55f
	...

Disassembly of section .debug_loc:

00000000 <.debug_loc>:
       0:	00000000 	andeq	r0, r0, r0
       4:	00000008 	andeq	r0, r0, r8
       8:	08500001 	ldmdaeq	r0, {r0}^
       c:	18000000 	stmdane	r0, {}	; <UNPREDICTABLE>
      10:	01000000 	mrseq	r0, (UNDEF: 0)
      14:	00185300 	andseq	r5, r8, r0, lsl #6
      18:	00200000 	eoreq	r0, r0, r0
      1c:	00030000 	andeq	r0, r3, r0
      20:	009f7f73 	addseq	r7, pc, r3, ror pc	; <UNPREDICTABLE>
	...
      2c:	10000000 	andne	r0, r0, r0
      30:	02000000 	andeq	r0, r0, #0
      34:	109f3000 	addsne	r3, pc, r0
      38:	14000000 	strne	r0, [r0], #-0
      3c:	07000000 	streq	r0, [r0, -r0]
      40:	20007000 	andcs	r7, r0, r0
      44:	9f220073 	svcls	0x00220073
      48:	00000014 	andeq	r0, r0, r4, lsl r0
      4c:	00000020 	andeq	r0, r0, r0, lsr #32
      50:	00510001 	subseq	r0, r1, r1
	...
      5c:	30000000 	andcc	r0, r0, r0
      60:	01000000 	mrseq	r0, (UNDEF: 0)
      64:	00305000 	eorseq	r5, r0, r0
      68:	00380000 	eorseq	r0, r8, r0
      6c:	00030000 	andeq	r0, r3, r0
      70:	389f7f70 	ldmcc	pc, {r4, r5, r6, r8, r9, sl, fp, ip, sp, lr}	; <UNPREDICTABLE>
      74:	90000000 	andls	r0, r0, r0
      78:	01000000 	mrseq	r0, (UNDEF: 0)
      7c:	00985000 	addseq	r5, r8, r0
      80:	009c0000 	addseq	r0, ip, r0
      84:	00010000 	andeq	r0, r1, r0
      88:	00009c50 	andeq	r9, r0, r0, asr ip
      8c:	0000a000 	andeq	sl, r0, r0
      90:	f3000400 	vshl.u8	d0, d0, d0
      94:	009f5001 	addseq	r5, pc, r1
      98:	00000000 	andeq	r0, r0, r0
      9c:	60000000 	andvs	r0, r0, r0
      a0:	6c000000 	stcvs	0, cr0, [r0], {-0}
      a4:	01000000 	mrseq	r0, (UNDEF: 0)
      a8:	006c5e00 	rsbeq	r5, ip, r0, lsl #28
      ac:	00740000 	rsbseq	r0, r4, r0
      b0:	00030000 	andeq	r0, r3, r0
      b4:	749f7f73 	ldrvc	r7, [pc], #3955	; bc <_back_addr-0x14fff44>
      b8:	78000000 	stmdavc	r0, {}	; <UNPREDICTABLE>
      bc:	01000000 	mrseq	r0, (UNDEF: 0)
      c0:	00785300 	rsbseq	r5, r8, r0, lsl #6
      c4:	00900000 	addseq	r0, r0, r0
      c8:	00010000 	andeq	r0, r1, r0
      cc:	0000005e 	andeq	r0, r0, lr, asr r0
      d0:	00000000 	andeq	r0, r0, r0
      d4:	00004000 	andeq	r4, r0, r0
      d8:	00006000 	andeq	r6, r0, r0
      dc:	50000100 	andpl	r0, r0, r0, lsl #2
      e0:	0000006c 	andeq	r0, r0, ip, rrx
      e4:	00000070 	andeq	r0, r0, r0, ror r0
      e8:	705c0001 	subsvc	r0, ip, r1
      ec:	74000000 	strvc	r0, [r0], #-0
      f0:	03000000 	movweq	r0, #0
      f4:	9f7f7c00 	svcls	0x007f7c00
	...
     104:	00000014 	andeq	r0, r0, r4, lsl r0
     108:	14500001 	ldrbne	r0, [r0], #-1
     10c:	50000000 	andpl	r0, r0, r0
     110:	01000001 	tsteq	r0, r1
     114:	01505800 	cmpeq	r0, r0, lsl #16
     118:	01580000 	cmpeq	r8, r0
     11c:	00040000 	andeq	r0, r4, r0
     120:	9f5001f3 	svcls	0x005001f3
     124:	00000158 	andeq	r0, r0, r8, asr r1
     128:	00000194 	muleq	r0, r4, r1
     12c:	00580001 	subseq	r0, r8, r1
	...
     138:	68000000 	stmdavs	r0, {}	; <UNPREDICTABLE>
     13c:	01000000 	mrseq	r0, (UNDEF: 0)
     140:	00685200 	rsbeq	r5, r8, r0, lsl #4
     144:	007c0000 	rsbseq	r0, ip, r0
     148:	00040000 	andeq	r0, r4, r0
     14c:	9f5201f3 	svcls	0x005201f3
     150:	0000007c 	andeq	r0, r0, ip, ror r0
     154:	00000084 	andeq	r0, r0, r4, lsl #1
     158:	84520001 	ldrbhi	r0, [r2], #-1
     15c:	a8000000 	stmdage	r0, {}	; <UNPREDICTABLE>
     160:	04000000 	streq	r0, [r0], #-0
     164:	5201f300 	andpl	pc, r1, #0, 6
     168:	0000a89f 	muleq	r0, pc, r8	; <UNPREDICTABLE>
     16c:	00017c00 	andeq	r7, r1, r0, lsl #24
     170:	52000100 	andpl	r0, r0, #0, 2
     174:	0000017c 	andeq	r0, r0, ip, ror r1
     178:	00000188 	andeq	r0, r0, r8, lsl #3
     17c:	01f30004 	mvnseq	r0, r4
     180:	01889f52 	orreq	r9, r8, r2, asr pc
     184:	01940000 	orrseq	r0, r4, r0
     188:	00020000 	andeq	r0, r2, r0
     18c:	00009f40 	andeq	r9, r0, r0, asr #30
     190:	00000000 	andeq	r0, r0, r0
     194:	00100000 	andseq	r0, r0, r0
     198:	00400000 	subeq	r0, r0, r0
     19c:	00010000 	andeq	r0, r1, r0
     1a0:	00004050 	andeq	r4, r0, r0, asr r0
     1a4:	00015800 	andeq	r5, r1, r0, lsl #16
     1a8:	53000100 	movwpl	r0, #256	; 0x100
     1ac:	00000158 	andeq	r0, r0, r8, asr r1
     1b0:	0000015c 	andeq	r0, r0, ip, asr r1
     1b4:	5c500001 	mrrcpl	0, 0, r0, r0, cr1	; <UNPREDICTABLE>
     1b8:	94000001 	strls	r0, [r0], #-1
     1bc:	01000001 	tsteq	r0, r1
     1c0:	00005300 	andeq	r5, r0, r0, lsl #6
     1c4:	00000000 	andeq	r0, r0, r0
     1c8:	00a80000 	adceq	r0, r8, r0
     1cc:	00b40000 	adcseq	r0, r4, r0
     1d0:	00020000 	andeq	r0, r2, r0
     1d4:	00b49f30 	adcseq	r9, r4, r0, lsr pc
     1d8:	00d00000 	sbcseq	r0, r0, r0
     1dc:	00010000 	andeq	r0, r1, r0
     1e0:	0000d056 	andeq	sp, r0, r6, asr r0
     1e4:	0000d400 	andeq	sp, r0, r0, lsl #8
     1e8:	7a000600 	bvc	19f0 <_back_addr-0x14fe610>
     1ec:	1e007600 	cfmadd32ne	mvax0, mvfx7, mvfx0, mvfx0
     1f0:	0000d49f 	muleq	r0, pc, r4	; <UNPREDICTABLE>
     1f4:	00012400 	andeq	r2, r1, r0, lsl #8
     1f8:	56000100 	strpl	r0, [r0], -r0, lsl #2
     1fc:	00000128 	andeq	r0, r0, r8, lsr #2
     200:	00000140 	andeq	r0, r0, r0, asr #2
     204:	44560001 	ldrbmi	r0, [r6], #-1
     208:	58000001 	stmdapl	r0, {r0}
     20c:	01000001 	tsteq	r0, r1
     210:	00005000 	andeq	r5, r0, r0
     214:	00000000 	andeq	r0, r0, r0
     218:	00a80000 	adceq	r0, r8, r0
     21c:	013c0000 	teqeq	ip, r0
     220:	00010000 	andeq	r0, r1, r0
     224:	00000050 	andeq	r0, r0, r0, asr r0
     228:	00000000 	andeq	r0, r0, r0
     22c:	00001400 	andeq	r1, r0, r0, lsl #8
     230:	00001800 	andeq	r1, r0, r0, lsl #16
     234:	5e000100 	adfpls	f0, f0, f0
     238:	00000020 	andeq	r0, r0, r0, lsr #32
     23c:	0000007c 	andeq	r0, r0, ip, ror r0
     240:	7c5e0001 	mrrcvc	0, 0, r0, lr, cr1
     244:	94000000 	strls	r0, [r0], #-0
     248:	03000000 	movweq	r0, #0
     24c:	9f300800 	svcls	0x00300800
     250:	000000b4 	strheq	r0, [r0], -r4
     254:	000000e8 	andeq	r0, r0, r8, ror #1
     258:	045e0001 	ldrbeq	r0, [lr], #-1
     25c:	28000001 	stmdacs	r0, {r0}
     260:	01000001 	tsteq	r0, r1
     264:	01585e00 	cmpeq	r8, r0, lsl #28
     268:	01940000 	orrseq	r0, r4, r0
     26c:	00010000 	andeq	r0, r1, r0
     270:	0000005e 	andeq	r0, r0, lr, asr r0
     274:	00000000 	andeq	r0, r0, r0
     278:	00003800 	andeq	r3, r0, r0, lsl #16
     27c:	00004400 	andeq	r4, r0, r0, lsl #8
     280:	30000200 	andcc	r0, r0, r0, lsl #4
     284:	0001589f 	muleq	r1, pc, r8	; <UNPREDICTABLE>
     288:	00016800 	andeq	r6, r1, r0, lsl #16
     28c:	31000200 	mrscc	r0, R8_usr
     290:	0000009f 	muleq	r0, pc, r0	; <UNPREDICTABLE>
     294:	00000000 	andeq	r0, r0, r0
     298:	0000a800 	andeq	sl, r0, r0, lsl #16
     29c:	0000b400 	andeq	fp, r0, r0, lsl #8
     2a0:	30000200 	andcc	r0, r0, r0, lsl #4
     2a4:	0000b49f 	muleq	r0, pc, r4	; <UNPREDICTABLE>
     2a8:	0000d000 	andeq	sp, r0, r0
     2ac:	55000100 	strpl	r0, [r0, #-256]	; 0x100
     2b0:	000000d0 	ldrdeq	r0, [r0], -r0	; <UNPREDICTABLE>
     2b4:	000000d8 	ldrdeq	r0, [r0], -r8
     2b8:	9f310002 	svcls	0x00310002
     2bc:	000000d8 	ldrdeq	r0, [r0], -r8
     2c0:	00000120 	andeq	r0, r0, r0, lsr #2
     2c4:	28550001 	ldmdacs	r5, {r0}^
     2c8:	58000001 	stmdapl	r0, {r0}
     2cc:	01000001 	tsteq	r0, r1
     2d0:	00005500 	andeq	r5, r0, r0, lsl #10
     2d4:	00000000 	andeq	r0, r0, r0
     2d8:	00a80000 	adceq	r0, r8, r0
     2dc:	01580000 	cmpeq	r8, r0
     2e0:	00010000 	andeq	r0, r1, r0
     2e4:	00000059 	andeq	r0, r0, r9, asr r0
     2e8:	00000000 	andeq	r0, r0, r0
     2ec:	00001800 	andeq	r1, r0, r0, lsl #16
     2f0:	00002800 	andeq	r2, r0, r0, lsl #16
     2f4:	51000100 	mrspl	r0, (UNDEF: 16)
     2f8:	00000028 	andeq	r0, r0, r8, lsr #32
     2fc:	0000003c 	andeq	r0, r0, ip, lsr r0
     300:	01f30004 	mvnseq	r0, r4
     304:	00009f51 	andeq	r9, r0, r1, asr pc
     308:	00000000 	andeq	r0, r0, r0
     30c:	00180000 	andseq	r0, r8, r0
     310:	001c0000 	andseq	r0, ip, r0
     314:	00010000 	andeq	r0, r1, r0
     318:	00001c52 	andeq	r1, r0, r2, asr ip
     31c:	00002400 	andeq	r2, r0, r0, lsl #8
     320:	72000300 	andvc	r0, r0, #0, 6
     324:	00249f7f 	eoreq	r9, r4, pc, ror pc
     328:	00280000 	eoreq	r0, r8, r0
     32c:	00060000 	andeq	r0, r6, r0
     330:	315201f3 	ldrshcc	r0, [r2, #-19]	; 0xffffffed
     334:	00289f1c 	eoreq	r9, r8, ip, lsl pc
     338:	002c0000 	eoreq	r0, ip, r0
     33c:	000b0000 	andeq	r0, fp, r0
     340:	f3200071 	vqadd.u32	q0, q0, <illegal reg q8.5>
     344:	71225201 	teqvc	r2, r1, lsl #4
     348:	2c9f2200 	lfmcs	f2, 4, [pc], {0}
     34c:	3c000000 	stccc	0, cr0, [r0], {-0}
     350:	0b000000 	bleq	358 <_back_addr-0x14ffca8>
     354:	20007100 	andcs	r7, r0, r0, lsl #2
     358:	f3220071 	vqadd.u32	q0, q1, <illegal reg q8.5>
     35c:	9f225201 	svcls	0x00225201
	...
     368:	0000001c 	andeq	r0, r0, ip, lsl r0
     36c:	00000028 	andeq	r0, r0, r8, lsr #32
     370:	00500001 	subseq	r0, r0, r1
     374:	00000000 	andeq	r0, r0, r0
     378:	1c000000 	stcne	0, cr0, [r0], {-0}
     37c:	2c000000 	stccs	0, cr0, [r0], {-0}
     380:	01000000 	mrseq	r0, (UNDEF: 0)
     384:	002c5100 	eoreq	r5, ip, r0, lsl #2
     388:	00300000 	eorseq	r0, r0, r0
     38c:	00030000 	andeq	r0, r3, r0
     390:	309f7f71 	addscc	r7, pc, r1, ror pc	; <UNPREDICTABLE>
     394:	3c000000 	stccc	0, cr0, [r0], {-0}
     398:	01000000 	mrseq	r0, (UNDEF: 0)
     39c:	00005100 	andeq	r5, r0, r0, lsl #2
     3a0:	00000000 	andeq	r0, r0, r0
     3a4:	003c0000 	eorseq	r0, ip, r0
     3a8:	00500000 	subseq	r0, r0, r0
     3ac:	00010000 	andeq	r0, r1, r0
     3b0:	00005050 	andeq	r5, r0, r0, asr r0
     3b4:	00006000 	andeq	r6, r0, r0
     3b8:	5c000100 	stfpls	f0, [r0], {-0}
     3bc:	00000060 	andeq	r0, r0, r0, rrx
     3c0:	00000068 	andeq	r0, r0, r8, rrx
     3c4:	7f7c0003 	svcvc	0x007c0003
     3c8:	0000689f 	muleq	r0, pc, r8	; <UNPREDICTABLE>
     3cc:	00008c00 	andeq	r8, r0, r0, lsl #24
     3d0:	f3000400 	vshl.u8	d0, d0, d0
     3d4:	8c9f5001 	ldchi	0, cr5, [pc], {1}
     3d8:	90000000 	andls	r0, r0, r0
     3dc:	01000000 	mrseq	r0, (UNDEF: 0)
     3e0:	00905000 	addseq	r5, r0, r0
     3e4:	00940000 	addseq	r0, r4, r0
     3e8:	00040000 	andeq	r0, r4, r0
     3ec:	9f5001f3 	svcls	0x005001f3
	...
     3f8:	0000003c 	andeq	r0, r0, ip, lsr r0
     3fc:	00000068 	andeq	r0, r0, r8, rrx
     400:	68510001 	ldmdavs	r1, {r0}^
     404:	8c000000 	stchi	0, cr0, [r0], {-0}
     408:	04000000 	streq	r0, [r0], #-0
     40c:	5101f300 	mrspl	pc, SP_irq	; <UNPREDICTABLE>
     410:	00008c9f 	muleq	r0, pc, ip	; <UNPREDICTABLE>
     414:	00009400 	andeq	r9, r0, r0, lsl #8
     418:	51000100 	mrspl	r0, (UNDEF: 16)
	...
     424:	0000003c 	andeq	r0, r0, ip, lsr r0
     428:	0000005c 	andeq	r0, r0, ip, asr r0
     42c:	5c520001 	mrrcpl	0, 0, r0, r2, cr1
     430:	68000000 	stmdavs	r0, {}	; <UNPREDICTABLE>
     434:	04000000 	streq	r0, [r0], #-0
     438:	5201f300 	andpl	pc, r1, #0, 6
     43c:	0000689f 	muleq	r0, pc, r8	; <UNPREDICTABLE>
     440:	00006c00 	andeq	r6, r0, r0, lsl #24
     444:	f3000b00 	vqrdmulh.s<illegal width 8>	d0, d0, d0
     448:	007c5001 	rsbseq	r5, ip, r1
     44c:	5201f31c 	andpl	pc, r1, #28, 6	; 0x70000000
     450:	006c9f22 	rsbeq	r9, ip, r2, lsr #30
     454:	00780000 	rsbseq	r0, r8, r0
     458:	000d0000 	andeq	r0, sp, r0
     45c:	f35001f3 	vbsl	q8, q8, <illegal reg q9.5>
     460:	7c225201 	sfmvc	f5, 4, [r2], #-4
     464:	01231c00 	teqeq	r3, r0, lsl #24
     468:	0000789f 	muleq	r0, pc, r8	; <UNPREDICTABLE>
     46c:	00008400 	andeq	r8, r0, r0, lsl #8
     470:	f3000b00 	vqrdmulh.s<illegal width 8>	d0, d0, d0
     474:	007c5001 	rsbseq	r5, ip, r1
     478:	5201f31c 	andpl	pc, r1, #28, 6	; 0x70000000
     47c:	00849f22 	addeq	r9, r4, r2, lsr #30
     480:	008c0000 	addeq	r0, ip, r0
     484:	000d0000 	andeq	r0, sp, r0
     488:	f35001f3 	vbsl	q8, q8, <illegal reg q9.5>
     48c:	7c225201 	sfmvc	f5, 4, [r2], #-4
     490:	01231c00 	teqeq	r3, r0, lsl #24
     494:	00008c9f 	muleq	r0, pc, ip	; <UNPREDICTABLE>
     498:	00009400 	andeq	r9, r0, r0, lsl #8
     49c:	52000100 	andpl	r0, r0, #0, 2
	...
     4a8:	00000040 	andeq	r0, r0, r0, asr #32
     4ac:	00000050 	andeq	r0, r0, r0, asr r0
     4b0:	50500001 	subspl	r0, r0, r1
     4b4:	60000000 	andvs	r0, r0, r0
     4b8:	01000000 	mrseq	r0, (UNDEF: 0)
     4bc:	00605c00 	rsbeq	r5, r0, r0, lsl #24
     4c0:	00680000 	rsbeq	r0, r8, r0
     4c4:	00030000 	andeq	r0, r3, r0
     4c8:	689f7f7c 	ldmvs	pc, {r2, r3, r4, r5, r6, r8, r9, sl, fp, ip, sp, lr}	; <UNPREDICTABLE>
     4cc:	6c000000 	stcvs	0, cr0, [r0], {-0}
     4d0:	01000000 	mrseq	r0, (UNDEF: 0)
     4d4:	006c5c00 	rsbeq	r5, ip, r0, lsl #24
     4d8:	00780000 	rsbseq	r0, r8, r0
     4dc:	00030000 	andeq	r0, r3, r0
     4e0:	789f7f7c 	ldmvc	pc, {r2, r3, r4, r5, r6, r8, r9, sl, fp, ip, sp, lr}	; <UNPREDICTABLE>
     4e4:	84000000 	strhi	r0, [r0], #-0
     4e8:	01000000 	mrseq	r0, (UNDEF: 0)
     4ec:	00845c00 	addeq	r5, r4, r0, lsl #24
     4f0:	008c0000 	addeq	r0, ip, r0
     4f4:	00030000 	andeq	r0, r3, r0
     4f8:	8c9f7f7c 	ldchi	15, cr7, [pc], {124}	; 0x7c
     4fc:	90000000 	andls	r0, r0, r0
     500:	01000000 	mrseq	r0, (UNDEF: 0)
     504:	00905000 	addseq	r5, r0, r0
     508:	00940000 	addseq	r0, r4, r0
     50c:	00040000 	andeq	r0, r4, r0
     510:	9f5001f3 	svcls	0x005001f3
	...
     51c:	00000040 	andeq	r0, r0, r0, asr #32
     520:	00000068 	andeq	r0, r0, r8, rrx
     524:	68510001 	ldmdavs	r1, {r0}^
     528:	6c000000 	stcvs	0, cr0, [r0], {-0}
     52c:	0b000000 	bleq	534 <_back_addr-0x14ffacc>
     530:	5101f300 	mrspl	pc, SP_irq	; <UNPREDICTABLE>
     534:	1c5001f3 	ldfnee	f0, [r0], {243}	; 0xf3
     538:	9f22007c 	svcls	0x0022007c
     53c:	0000006c 	andeq	r0, r0, ip, rrx
     540:	00000078 	andeq	r0, r0, r8, ror r0
     544:	01f3000c 	mvnseq	r0, ip
     548:	007c2050 	rsbseq	r2, ip, r0, asr r0
     54c:	5101f322 	tstpl	r1, r2, lsr #6
     550:	00789f22 	rsbseq	r9, r8, r2, lsr #30
     554:	00840000 	addeq	r0, r4, r0
     558:	000b0000 	andeq	r0, fp, r0
     55c:	f35101f3 	vbsl	q8, <illegal reg q8.5>, <illegal reg q9.5>
     560:	7c1c5001 	ldcvc	0, cr5, [ip], {1}
     564:	849f2200 	ldrhi	r2, [pc], #512	; 56c <_back_addr-0x14ffa94>
     568:	8c000000 	stchi	0, cr0, [r0], {-0}
     56c:	0c000000 	stceq	0, cr0, [r0], {-0}
     570:	5001f300 	andpl	pc, r1, r0, lsl #6
     574:	22007c20 	andcs	r7, r0, #32, 24	; 0x2000
     578:	225101f3 	subscs	r0, r1, #-1073741764	; 0xc000003c
     57c:	00008c9f 	muleq	r0, pc, ip	; <UNPREDICTABLE>
     580:	00009400 	andeq	r9, r0, r0, lsl #8
     584:	51000100 	mrspl	r0, (UNDEF: 16)
	...
     590:	00000040 	andeq	r0, r0, r0, asr #32
     594:	00000050 	andeq	r0, r0, r0, asr r0
     598:	9f300002 	svcls	0x00300002
     59c:	00000050 	andeq	r0, r0, r0, asr r0
     5a0:	00000054 	andeq	r0, r0, r4, asr r0
     5a4:	00730006 	rsbseq	r0, r3, r6
     5a8:	9f1c0070 	svcls	0x001c0070
     5ac:	00000054 	andeq	r0, r0, r4, asr r0
     5b0:	00000068 	andeq	r0, r0, r8, rrx
     5b4:	68500001 	ldmdavs	r0, {r0}^
     5b8:	70000000 	andvc	r0, r0, r0
     5bc:	02000000 	andeq	r0, r0, #0
     5c0:	709f3000 	addsvc	r3, pc, r0
     5c4:	74000000 	strvc	r0, [r0], #-0
     5c8:	06000000 	streq	r0, [r0], -r0
     5cc:	7e007300 	cdpvc	3, 0, cr7, cr0, cr0, {0}
     5d0:	749f1c00 	ldrvc	r1, [pc], #3072	; 5d8 <_back_addr-0x14ffa28>
     5d4:	78000000 	stmdavc	r0, {}	; <UNPREDICTABLE>
     5d8:	01000000 	mrseq	r0, (UNDEF: 0)
     5dc:	00785300 	rsbseq	r5, r8, r0, lsl #6
     5e0:	00840000 	addeq	r0, r4, r0
     5e4:	00020000 	andeq	r0, r2, r0
     5e8:	00849f30 	addeq	r9, r4, r0, lsr pc
     5ec:	00880000 	addeq	r0, r8, r0
     5f0:	00010000 	andeq	r0, r1, r0
     5f4:	00008853 	andeq	r8, r0, r3, asr r8
     5f8:	00008c00 	andeq	r8, r0, r0, lsl #24
     5fc:	50000100 	andpl	r0, r0, r0, lsl #2
     600:	0000008c 	andeq	r0, r0, ip, lsl #1
     604:	00000090 	muleq	r0, r0, r0
     608:	9f300002 	svcls	0x00300002
     60c:	00000090 	muleq	r0, r0, r0
     610:	00000094 	muleq	r0, r4, r0
     614:	00500001 	subseq	r0, r0, r1
     618:	00000000 	andeq	r0, r0, r0
     61c:	b8000000 	stmdalt	r0, {}	; <UNPREDICTABLE>
     620:	28000000 	stmdacs	r0, {}	; <UNPREDICTABLE>
     624:	01000001 	tsteq	r0, r1
     628:	01405400 	cmpeq	r0, r0, lsl #8
     62c:	01700000 	cmneq	r0, r0
     630:	00010000 	andeq	r0, r1, r0
     634:	00000054 	andeq	r0, r0, r4, asr r0
     638:	00000000 	andeq	r0, r0, r0
     63c:	0000b800 	andeq	fp, r0, r0, lsl #16
     640:	00012800 	andeq	r2, r1, r0, lsl #16
     644:	09000300 	stmdbeq	r0, {r8, r9}
     648:	01289fff 	strdeq	r9, [r8, -pc]!
     64c:	012b0000 	teqeq	fp, r0
     650:	00010000 	andeq	r0, r1, r0
     654:	00012b50 	andeq	r2, r1, r0, asr fp
     658:	00014000 	andeq	r4, r1, r0
     65c:	54000100 	strpl	r0, [r0], #-256	; 0x100
     660:	00000140 	andeq	r0, r0, r0, asr #2
     664:	0000014c 	andeq	r0, r0, ip, asr #2
     668:	ff090003 			; <UNDEFINED> instruction: 0xff090003
     66c:	00014c9f 	muleq	r1, pc, ip	; <UNPREDICTABLE>
     670:	00015800 	andeq	r5, r1, r0, lsl #16
     674:	30000200 	andcc	r0, r0, r0, lsl #4
     678:	0001589f 	muleq	r1, pc, r8	; <UNPREDICTABLE>
     67c:	00017000 	andeq	r7, r1, r0
     680:	09000300 	stmdbeq	r0, {r8, r9}
     684:	01709fff 	ldrsheq	r9, [r0, #-255]!	; 0xffffff01
     688:	01800000 	orreq	r0, r0, r0
     68c:	00010000 	andeq	r0, r1, r0
     690:	00000054 	andeq	r0, r0, r4, asr r0
     694:	00000000 	andeq	r0, r0, r0
     698:	00018000 	andeq	r8, r1, r0
     69c:	0001a300 	andeq	sl, r1, r0, lsl #6
     6a0:	50000100 	andpl	r0, r0, r0, lsl #2
     6a4:	000001a3 	andeq	r0, r0, r3, lsr #3
     6a8:	000001d0 	ldrdeq	r0, [r0], -r0	; <UNPREDICTABLE>
     6ac:	01f30004 	mvnseq	r0, r4
     6b0:	00009f50 	andeq	r9, r0, r0, asr pc
     6b4:	00000000 	andeq	r0, r0, r0
     6b8:	01800000 	orreq	r0, r0, r0
     6bc:	01a30000 			; <UNDEFINED> instruction: 0x01a30000
     6c0:	00010000 	andeq	r0, r1, r0
     6c4:	0001a351 	andeq	sl, r1, r1, asr r3
     6c8:	0001d000 	andeq	sp, r1, r0
     6cc:	f3000400 	vshl.u8	d0, d0, d0
     6d0:	009f5101 	addseq	r5, pc, r1, lsl #2
     6d4:	00000000 	andeq	r0, r0, r0
     6d8:	80000000 	andhi	r0, r0, r0
     6dc:	b0000001 	andlt	r0, r0, r1
     6e0:	03000001 	movweq	r0, #1
     6e4:	9fff0900 	svcls	0x00ff0900
     6e8:	000001b0 			; <UNDEFINED> instruction: 0x000001b0
     6ec:	000001b8 			; <UNDEFINED> instruction: 0x000001b8
     6f0:	00500001 	subseq	r0, r0, r1
     6f4:	00000000 	andeq	r0, r0, r0
     6f8:	88000000 	stmdahi	r0, {}	; <UNPREDICTABLE>
     6fc:	98000000 	stmdals	r0, {}	; <UNPREDICTABLE>
     700:	09000000 	stmdbeq	r0, {}	; <UNPREDICTABLE>
     704:	00010c00 	andeq	r0, r1, r0, lsl #24
     708:	00730001 	rsbseq	r0, r3, r1
     70c:	00989f1c 	addseq	r9, r8, ip, lsl pc
     710:	00a40000 	adceq	r0, r4, r0
     714:	00070000 	andeq	r0, r7, r0
     718:	73243c40 	teqvc	r4, #64, 24	; 0x4000
     71c:	009f1c00 	addseq	r1, pc, r0, lsl #24
     720:	00000000 	andeq	r0, r0, r0
     724:	a4000000 	strge	r0, [r0], #-0
     728:	ef000000 	svc	0x00000000
     72c:	01000000 	mrseq	r0, (UNDEF: 0)
     730:	00ef5000 	rsceq	r5, pc, r0
     734:	01a40000 			; <UNDEFINED> instruction: 0x01a40000
     738:	00040000 	andeq	r0, r4, r0
     73c:	9f5001f3 	svcls	0x005001f3
     740:	000001a4 	andeq	r0, r0, r4, lsr #3
     744:	000001a8 	andeq	r0, r0, r8, lsr #3
     748:	a8500001 	ldmdage	r0, {r0}^
     74c:	ac000001 	stcge	0, cr0, [r0], {1}
     750:	01000001 	tsteq	r0, r1
     754:	00005300 	andeq	r5, r0, r0, lsl #6
     758:	00000000 	andeq	r0, r0, r0
     75c:	01040000 	mrseq	r0, (UNDEF: 4)
     760:	01a40000 			; <UNDEFINED> instruction: 0x01a40000
     764:	00020000 	andeq	r0, r2, r0
     768:	00009f30 	andeq	r9, r0, r0, lsr pc
     76c:	00000000 	andeq	r0, r0, r0
     770:	00ac0000 	adceq	r0, ip, r0
     774:	01a40000 			; <UNDEFINED> instruction: 0x01a40000
     778:	00020000 	andeq	r0, r2, r0
     77c:	00009f31 	andeq	r9, r0, r1, lsr pc
     780:	00000000 	andeq	r0, r0, r0
     784:	00ac0000 	adceq	r0, ip, r0
     788:	01a40000 			; <UNDEFINED> instruction: 0x01a40000
     78c:	00060000 	andeq	r0, r6, r0
     790:	5934049e 	ldmdbpl	r4!, {r1, r2, r3, r4, r7, sl}
     794:	00009801 	andeq	r9, r0, r1, lsl #16
     798:	00000000 	andeq	r0, r0, r0
     79c:	00d40000 	sbcseq	r0, r4, r0
     7a0:	01a40000 			; <UNDEFINED> instruction: 0x01a40000
     7a4:	00020000 	andeq	r0, r2, r0
     7a8:	00009f32 	andeq	r9, r0, r2, lsr pc
     7ac:	00000000 	andeq	r0, r0, r0
     7b0:	00d40000 	sbcseq	r0, r4, r0
     7b4:	01a40000 			; <UNDEFINED> instruction: 0x01a40000
     7b8:	00060000 	andeq	r0, r6, r0
     7bc:	5900049e 	stmdbpl	r0, {r1, r2, r3, r4, r7, sl}
     7c0:	00009801 	andeq	r9, r0, r1, lsl #16
     7c4:	00000000 	andeq	r0, r0, r0
     7c8:	00cc0000 	sbceq	r0, ip, r0
     7cc:	01a40000 			; <UNDEFINED> instruction: 0x01a40000
     7d0:	00030000 	andeq	r0, r3, r0
     7d4:	009ffe08 	addseq	pc, pc, r8, lsl #28
     7d8:	00000000 	andeq	r0, r0, r0
     7dc:	cc000000 	stcgt	0, cr0, [r0], {-0}
     7e0:	a4000000 	strge	r0, [r0], #-0
     7e4:	06000001 	streq	r0, [r0], -r1
     7e8:	08049e00 	stmdaeq	r4, {r9, sl, fp, ip, pc}
     7ec:	00980159 	addseq	r0, r8, r9, asr r1
     7f0:	00000000 	andeq	r0, r0, r0
     7f4:	dc000000 	stcle	0, cr0, [r0], {-0}
     7f8:	ef000000 	svc	0x00000000
     7fc:	01000000 	mrseq	r0, (UNDEF: 0)
     800:	00ef5000 	rsceq	r5, pc, r0
     804:	01a40000 			; <UNDEFINED> instruction: 0x01a40000
     808:	00040000 	andeq	r0, r4, r0
     80c:	9f5001f3 	svcls	0x005001f3
	...
     818:	000000dc 	ldrdeq	r0, [r0], -ip
     81c:	000001a4 	andeq	r0, r0, r4, lsr #3
     820:	049e0006 	ldreq	r0, [lr], #6
     824:	9801590c 	stmdals	r1, {r2, r3, r8, fp, ip, lr}
	...
     830:	000000dc 	ldrdeq	r0, [r0], -ip
     834:	000000ef 	andeq	r0, r0, pc, ror #1
     838:	ef5c0001 	svc	0x005c0001
     83c:	a4000000 	strge	r0, [r0], #-0
     840:	06000001 	streq	r0, [r0], -r1
     844:	5001f300 	andpl	pc, r1, r0, lsl #6
     848:	009f7023 	addseq	r7, pc, r3, lsr #32
     84c:	00000000 	andeq	r0, r0, r0
     850:	dc000000 	stcle	0, cr0, [r0], {-0}
     854:	a4000000 	strge	r0, [r0], #-0
     858:	06000001 	streq	r0, [r0], -r1
     85c:	10049e00 	andne	r9, r4, r0, lsl #28
     860:	00980159 	addseq	r0, r8, r9, asr r1
     864:	00000000 	andeq	r0, r0, r0
     868:	e4000000 	str	r0, [r0], #-0
     86c:	ef000000 	svc	0x00000000
     870:	01000000 	mrseq	r0, (UNDEF: 0)
     874:	00ef5000 	rsceq	r5, pc, r0
     878:	01a40000 			; <UNDEFINED> instruction: 0x01a40000
     87c:	00040000 	andeq	r0, r4, r0
     880:	9f5001f3 	svcls	0x005001f3
	...
     88c:	000000e4 	andeq	r0, r0, r4, ror #1
     890:	000001a4 	andeq	r0, r0, r4, lsr #3
     894:	049e0006 	ldreq	r0, [lr], #6
     898:	98015914 	stmdals	r1, {r2, r4, r8, fp, ip, lr}
	...
     8a4:	000000e4 	andeq	r0, r0, r4, ror #1
     8a8:	000000ef 	andeq	r0, r0, pc, ror #1
     8ac:	ef520001 	svc	0x00520001
     8b0:	a4000000 	strge	r0, [r0], #-0
     8b4:	06000001 	streq	r0, [r0], -r1
     8b8:	5001f300 	andpl	pc, r1, r0, lsl #6
     8bc:	009f3823 	addseq	r3, pc, r3, lsr #16
     8c0:	00000000 	andeq	r0, r0, r0
     8c4:	e4000000 	str	r0, [r0], #-0
     8c8:	a4000000 	strge	r0, [r0], #-0
     8cc:	06000001 	streq	r0, [r0], -r1
     8d0:	18049e00 	stmdane	r4, {r9, sl, fp, ip, pc}
     8d4:	00980159 	addseq	r0, r8, r9, asr r1
     8d8:	00000000 	andeq	r0, r0, r0
     8dc:	f8000000 			; <UNDEFINED> instruction: 0xf8000000
     8e0:	a4000000 	strge	r0, [r0], #-0
     8e4:	02000001 	andeq	r0, r0, #1
     8e8:	009f3300 	addseq	r3, pc, r0, lsl #6
     8ec:	00000000 	andeq	r0, r0, r0
     8f0:	f8000000 			; <UNDEFINED> instruction: 0xf8000000
     8f4:	a4000000 	strge	r0, [r0], #-0
     8f8:	06000001 	streq	r0, [r0], -r1
     8fc:	00049e00 	andeq	r9, r4, r0, lsl #28
     900:	00980159 	addseq	r0, r8, r9, asr r1
     904:	00000000 	andeq	r0, r0, r0
     908:	04000000 	streq	r0, [r0], #-0
     90c:	a4000001 	strge	r0, [r0], #-1
     910:	04000001 	streq	r0, [r0], #-1
     914:	5001f300 	andpl	pc, r1, r0, lsl #6
     918:	0000009f 	muleq	r0, pc, r0	; <UNPREDICTABLE>
     91c:	00000000 	andeq	r0, r0, r0
     920:	00015c00 	andeq	r5, r1, r0, lsl #24
     924:	00017800 	andeq	r7, r1, r0, lsl #16
     928:	50000100 	andpl	r0, r0, r0, lsl #2
	...
     934:	00000104 	andeq	r0, r0, r4, lsl #2
     938:	0000011c 	andeq	r0, r0, ip, lsl r1
     93c:	9f300002 	svcls	0x00300002
     940:	0000011c 	andeq	r0, r0, ip, lsl r1
     944:	00000120 	andeq	r0, r0, r0, lsr #2
     948:	43400007 	movtmi	r0, #7
     94c:	1c007424 	cfstrsne	mvf7, [r0], {36}	; 0x24
     950:	0001209f 	muleq	r1, pc, r0	; <UNPREDICTABLE>
     954:	00012400 	andeq	r2, r1, r0, lsl #8
     958:	0c000900 	stceq	9, cr0, [r0], {-0}
     95c:	007fffff 	ldrshteq	pc, [pc], #-255	; <UNPREDICTABLE>
     960:	9f1c0074 	svcls	0x001c0074
     964:	00000124 	andeq	r0, r0, r4, lsr #2
     968:	00000144 	andeq	r0, r0, r4, asr #2
     96c:	43400007 	movtmi	r0, #7
     970:	1c007424 	cfstrsne	mvf7, [r0], {36}	; 0x24
     974:	00018c9f 	muleq	r1, pc, ip	; <UNPREDICTABLE>
     978:	0001a400 	andeq	sl, r1, r0, lsl #8
     97c:	0c000900 	stceq	9, cr0, [r0], {-0}
     980:	007fffff 	ldrshteq	pc, [pc], #-255	; <UNPREDICTABLE>
     984:	9f1c0074 	svcls	0x001c0074
	...
     990:	00000104 	andeq	r0, r0, r4, lsl #2
     994:	000001a4 	andeq	r0, r0, r4, lsr #3
     998:	049e0006 	ldreq	r0, [lr], #6
     99c:	98015904 	stmdals	r1, {r2, r8, fp, ip, lr}
	...
     9a8:	00000144 	andeq	r0, r0, r4, asr #2
     9ac:	0000018c 	andeq	r0, r0, ip, lsl #3
     9b0:	049e0006 	ldreq	r0, [lr], #6
     9b4:	98015904 	stmdals	r1, {r2, r8, fp, ip, lr}
	...
     9c0:	0000015c 	andeq	r0, r0, ip, asr r1
     9c4:	00000178 	andeq	r0, r0, r8, ror r1
     9c8:	9f320002 	svcls	0x00320002
	...
     9d4:	0000015c 	andeq	r0, r0, ip, asr r1
     9d8:	00000178 	andeq	r0, r0, r8, ror r1
     9dc:	049e0006 	ldreq	r0, [lr], #6
     9e0:	98015900 	stmdals	r1, {r8, fp, ip, lr}
	...
     9ec:	00000170 	andeq	r0, r0, r0, ror r1
     9f0:	00000178 	andeq	r0, r0, r8, ror r1
     9f4:	9f360002 	svcls	0x00360002
	...
     a00:	00000170 	andeq	r0, r0, r0, ror r1
     a04:	00000178 	andeq	r0, r0, r8, ror r1
     a08:	049e0006 	ldreq	r0, [lr], #6
     a0c:	98015904 	stmdals	r1, {r2, r8, fp, ip, lr}
	...
     a18:	00000178 	andeq	r0, r0, r8, ror r1
     a1c:	0000018c 	andeq	r0, r0, ip, lsl #3
     a20:	049e0006 	ldreq	r0, [lr], #6
     a24:	98015904 	stmdals	r1, {r2, r8, fp, ip, lr}
	...
     a30:	0000018c 	andeq	r0, r0, ip, lsl #3
     a34:	000001a4 	andeq	r0, r0, r4, lsr #3
     a38:	9f320002 	svcls	0x00320002
	...
     a44:	0000018c 	andeq	r0, r0, ip, lsl #3
     a48:	000001a4 	andeq	r0, r0, r4, lsr #3
     a4c:	049e0006 	ldreq	r0, [lr], #6
     a50:	98015900 	stmdals	r1, {r8, fp, ip, lr}
	...
     a5c:	00000198 	muleq	r0, r8, r1
     a60:	000001a4 	andeq	r0, r0, r4, lsr #3
     a64:	9f360002 	svcls	0x00360002
	...
     a70:	00000198 	muleq	r0, r8, r1
     a74:	000001a4 	andeq	r0, r0, r4, lsr #3
     a78:	049e0006 	ldreq	r0, [lr], #6
     a7c:	98015904 	stmdals	r1, {r2, r8, fp, ip, lr}
	...
     a88:	000001ac 	andeq	r0, r0, ip, lsr #3
     a8c:	000001b0 			; <UNDEFINED> instruction: 0x000001b0
     a90:	b0500001 	subslt	r0, r0, r1
     a94:	b4000001 	strlt	r0, [r0], #-1
     a98:	04000001 	streq	r0, [r0], #-1
     a9c:	5001f300 	andpl	pc, r1, r0, lsl #6
     aa0:	0000009f 	muleq	r0, pc, r0	; <UNPREDICTABLE>
     aa4:	00000000 	andeq	r0, r0, r0
     aa8:	0001ac00 	andeq	sl, r1, r0, lsl #24
     aac:	0001b000 	andeq	fp, r1, r0
     ab0:	70001d00 	andvc	r1, r0, r0, lsl #26
     ab4:	70244800 	eorvc	r4, r4, r0, lsl #16
     ab8:	21254800 	teqcs	r5, r0, lsl #16
     abc:	ff080070 			; <UNDEFINED> instruction: 0xff080070
     ac0:	381a2440 	ldmdacc	sl, {r6, sl, sp}
     ac4:	00702125 	rsbseq	r2, r0, r5, lsr #2
     ac8:	1aff000a 	bne	fffc0af8 <__bss_end__+0xfeaad0e0>
     acc:	9f212438 	svcls	0x00212438
     ad0:	000001b0 			; <UNDEFINED> instruction: 0x000001b0
     ad4:	000001b4 			; <UNDEFINED> instruction: 0x000001b4
     ad8:	01f30021 	mvnseq	r0, r1, lsr #32
     adc:	f3244850 	vceq.i32	q2, q2, q0
     ae0:	25485001 	strbcs	r5, [r8, #-1]
     ae4:	5001f321 	andpl	pc, r1, r1, lsr #6
     ae8:	2440ff08 	strbcs	pc, [r0], #-3848	; 0xf08	; <UNPREDICTABLE>
     aec:	2125381a 	teqcs	r5, sl, lsl r8
     af0:	0a5001f3 	beq	14012c4 <_back_addr-0xfed3c>
     af4:	381aff00 	ldmdacc	sl, {r8, r9, sl, fp, ip, sp, lr, pc}
     af8:	009f2124 	addseq	r2, pc, r4, lsr #2
     afc:	00000000 	andeq	r0, r0, r0
     b00:	b4000000 	strlt	r0, [r0], #-0
     b04:	d4000001 	strle	r0, [r0], #-1
     b08:	01000002 	tsteq	r0, r2
     b0c:	02d45000 	sbcseq	r5, r4, #0
     b10:	02e00000 	rsceq	r0, r0, #0
     b14:	00070000 	andeq	r0, r7, r0
     b18:	ffffe874 			; <UNDEFINED> instruction: 0xffffe874
     b1c:	e09f03bf 			; <UNDEFINED> instruction: 0xe09f03bf
     b20:	14000002 	strne	r0, [r0], #-2
     b24:	01000003 	tsteq	r0, r3
     b28:	03145000 	tsteq	r4, #0
     b2c:	031c0000 	tsteq	ip, #0
     b30:	00070000 	andeq	r0, r7, r0
     b34:	ffffe874 			; <UNDEFINED> instruction: 0xffffe874
     b38:	1c9f03bf 	ldcne	3, cr0, [pc], {191}	; 0xbf
     b3c:	24000003 	strcs	r0, [r0], #-3
     b40:	01000004 	tsteq	r0, r4
     b44:	00005000 	andeq	r5, r0, r0
     b48:	00000000 	andeq	r0, r0, r0
     b4c:	01b40000 			; <UNDEFINED> instruction: 0x01b40000
     b50:	01d40000 	bicseq	r0, r4, r0
     b54:	00020000 	andeq	r0, r2, r0
     b58:	00009f30 	andeq	r9, r0, r0, lsr pc
     b5c:	00000000 	andeq	r0, r0, r0
     b60:	01d40000 	bicseq	r0, r4, r0
     b64:	01e80000 	mvneq	r0, r0
     b68:	00070000 	andeq	r0, r7, r0
     b6c:	80808073 	addhi	r8, r0, r3, ror r0
     b70:	e89f7a80 	ldm	pc, {r7, r9, fp, ip, sp, lr}	; <UNPREDICTABLE>
     b74:	fc000001 	stc2	0, cr0, [r0], {1}
     b78:	07000001 	streq	r0, [r0, -r1]
     b7c:	fffc7300 			; <UNDEFINED> instruction: 0xfffc7300
     b80:	9f79ffff 	svcls	0x0079ffff
     b84:	000002e0 	andeq	r0, r0, r0, ror #5
     b88:	000002fc 	strdeq	r0, [r0], -ip
     b8c:	80730007 	rsbshi	r0, r3, r7
     b90:	7a808080 	bvc	fe020d98 <__bss_end__+0xfcb0d380>
     b94:	0000009f 	muleq	r0, pc, r0	; <UNPREDICTABLE>
     b98:	00000000 	andeq	r0, r0, r0
     b9c:	0002e000 	andeq	lr, r2, r0
     ba0:	0002fc00 	andeq	pc, r2, r0, lsl #24
     ba4:	73000700 	movwvc	r0, #1792	; 0x700
     ba8:	80808080 	addhi	r8, r0, r0, lsl #1
     bac:	00009f7a 	andeq	r9, r0, sl, ror pc
     bb0:	00000000 	andeq	r0, r0, r0
     bb4:	01f80000 	mvnseq	r0, r0
     bb8:	02d40000 	sbcseq	r0, r4, #0
     bbc:	00030000 	andeq	r0, r3, r0
     bc0:	d49f1c70 	ldrle	r1, [pc], #3184	; bc8 <_back_addr-0x14ff438>
     bc4:	e0000002 	and	r0, r0, r2
     bc8:	07000002 	streq	r0, [r0, -r2]
     bcc:	80847400 	addhi	r7, r4, r0, lsl #8
     bd0:	9f03c080 	svcls	0x0003c080
     bd4:	000002fc 	strdeq	r0, [r0], -ip
     bd8:	00000314 	andeq	r0, r0, r4, lsl r3
     bdc:	1c700003 	ldclne	0, cr0, [r0], #-12
     be0:	0003149f 	muleq	r3, pc, r4	; <UNPREDICTABLE>
     be4:	00031c00 	andeq	r1, r3, r0, lsl #24
     be8:	74000700 	strvc	r0, [r0], #-1792	; 0x700
     bec:	c0808084 	addgt	r8, r0, r4, lsl #1
     bf0:	031c9f03 	tsteq	ip, #3, 30
     bf4:	03640000 	cmneq	r4, #0
     bf8:	00070000 	andeq	r0, r7, r0
     bfc:	80808c7c 	addhi	r8, r0, ip, ror ip
     c00:	649f03c0 	ldrvs	r0, [pc], #960	; c08 <_back_addr-0x14ff3f8>
     c04:	24000003 	strcs	r0, [r0], #-3
     c08:	03000004 	movweq	r0, #4
     c0c:	9f1c7000 	svcls	0x001c7000
	...
     c18:	00000214 	andeq	r0, r0, r4, lsl r2
     c1c:	000002d4 	ldrdeq	r0, [r0], -r4
     c20:	d4500001 	ldrble	r0, [r0], #-1
     c24:	e0000002 	and	r0, r0, r2
     c28:	07000002 	streq	r0, [r0, -r2]
     c2c:	ffe87400 			; <UNDEFINED> instruction: 0xffe87400
     c30:	9f03bfff 	svcls	0x0003bfff
     c34:	000002fc 	strdeq	r0, [r0], -ip
     c38:	00000314 	andeq	r0, r0, r4, lsl r3
     c3c:	14500001 	ldrbne	r0, [r0], #-1
     c40:	1c000003 	stcne	0, cr0, [r0], {3}
     c44:	07000003 	streq	r0, [r0, -r3]
     c48:	ffe87400 			; <UNDEFINED> instruction: 0xffe87400
     c4c:	9f03bfff 	svcls	0x0003bfff
     c50:	0000031c 	andeq	r0, r0, ip, lsl r3
     c54:	0000040c 	andeq	r0, r0, ip, lsl #8
     c58:	00500001 	subseq	r0, r0, r1
     c5c:	00000000 	andeq	r0, r0, r0
     c60:	f4000000 	vst4.8	{d0-d3}, [r0], r0
     c64:	0c000003 	stceq	0, cr0, [r0], {3}
     c68:	01000004 	tsteq	r0, r4
     c6c:	00005000 	andeq	r5, r0, r0
     c70:	00000000 	andeq	r0, r0, r0
     c74:	021c0000 	andseq	r0, ip, #0
     c78:	02d40000 	sbcseq	r0, r4, #0
     c7c:	00030000 	andeq	r0, r3, r0
     c80:	d49f1870 	ldrle	r1, [pc], #2160	; c88 <_back_addr-0x14ff378>
     c84:	e0000002 	and	r0, r0, r2
     c88:	07000002 	streq	r0, [r0, -r2]
     c8c:	80807400 	addhi	r7, r0, r0, lsl #8
     c90:	9f03c080 	svcls	0x0003c080
     c94:	000002fc 	strdeq	r0, [r0], -ip
     c98:	00000314 	andeq	r0, r0, r4, lsl r3
     c9c:	18700003 	ldmdane	r0!, {r0, r1}^
     ca0:	0003149f 	muleq	r3, pc, r4	; <UNPREDICTABLE>
     ca4:	00031c00 	andeq	r1, r3, r0, lsl #24
     ca8:	74000700 	strvc	r0, [r0], #-1792	; 0x700
     cac:	c0808080 	addgt	r8, r0, r0, lsl #1
     cb0:	031c9f03 	tsteq	ip, #3, 30
     cb4:	03f40000 	mvnseq	r0, #0
     cb8:	00030000 	andeq	r0, r3, r0
     cbc:	009f1870 	addseq	r1, pc, r0, ror r8	; <UNPREDICTABLE>
     cc0:	00000000 	andeq	r0, r0, r0
     cc4:	dc000000 	stcle	0, cr0, [r0], {-0}
     cc8:	f4000003 	vst4.8	{d0-d3}, [r0], r3
     ccc:	03000003 	movweq	r0, #3
     cd0:	9f187000 	svcls	0x00187000
	...
     cdc:	00000234 	andeq	r0, r0, r4, lsr r2
     ce0:	000002d4 	ldrdeq	r0, [r0], -r4
     ce4:	04700003 	ldrbteq	r0, [r0], #-3
     ce8:	0002d49f 	muleq	r2, pc, r4	; <UNPREDICTABLE>
     cec:	0002e000 	andeq	lr, r2, r0
     cf0:	74000700 	strvc	r0, [r0], #-1792	; 0x700
     cf4:	bfffffec 	svclt	0x00ffffec
     cf8:	02fc9f03 	rscseq	r9, ip, #3, 30
     cfc:	03140000 	tsteq	r4, #0
     d00:	00030000 	andeq	r0, r3, r0
     d04:	149f0470 	ldrne	r0, [pc], #1136	; d0c <_back_addr-0x14ff2f4>
     d08:	1c000003 	stcne	0, cr0, [r0], {3}
     d0c:	07000003 	streq	r0, [r0, -r3]
     d10:	ffec7400 			; <UNDEFINED> instruction: 0xffec7400
     d14:	9f03bfff 	svcls	0x0003bfff
     d18:	0000031c 	andeq	r0, r0, ip, lsl r3
     d1c:	000003dc 	ldrdeq	r0, [r0], -ip
     d20:	04700003 	ldrbteq	r0, [r0], #-3
     d24:	0000009f 	muleq	r0, pc, r0	; <UNPREDICTABLE>
     d28:	00000000 	andeq	r0, r0, r0
     d2c:	0003c400 	andeq	ip, r3, r0, lsl #8
     d30:	0003dc00 	andeq	sp, r3, r0, lsl #24
     d34:	70000300 	andvc	r0, r0, r0, lsl #6
     d38:	00009f04 	andeq	r9, r0, r4, lsl #30
     d3c:	00000000 	andeq	r0, r0, r0
     d40:	02440000 	subeq	r0, r4, #0
     d44:	02d40000 	sbcseq	r0, r4, #0
     d48:	00030000 	andeq	r0, r3, r0
     d4c:	d49f1470 	ldrle	r1, [pc], #1136	; d54 <_back_addr-0x14ff2ac>
     d50:	e0000002 	and	r0, r0, r2
     d54:	07000002 	streq	r0, [r0, -r2]
     d58:	fffc7400 			; <UNDEFINED> instruction: 0xfffc7400
     d5c:	9f03bfff 	svcls	0x0003bfff
     d60:	000002fc 	strdeq	r0, [r0], -ip
     d64:	00000314 	andeq	r0, r0, r4, lsl r3
     d68:	14700003 	ldrbtne	r0, [r0], #-3
     d6c:	0003149f 	muleq	r3, pc, r4	; <UNPREDICTABLE>
     d70:	00031c00 	andeq	r1, r3, r0, lsl #24
     d74:	74000700 	strvc	r0, [r0], #-1792	; 0x700
     d78:	bffffffc 	svclt	0x00fffffc
     d7c:	031c9f03 	tsteq	ip, #3, 30
     d80:	03c40000 	biceq	r0, r4, #0
     d84:	00030000 	andeq	r0, r3, r0
     d88:	009f1470 	addseq	r1, pc, r0, ror r4	; <UNPREDICTABLE>
     d8c:	00000000 	andeq	r0, r0, r0
     d90:	ac000000 	stcge	0, cr0, [r0], {-0}
     d94:	c4000003 	strgt	r0, [r0], #-3
     d98:	03000003 	movweq	r0, #3
     d9c:	9f147000 	svcls	0x00147000
	...
     da8:	0000025c 	andeq	r0, r0, ip, asr r2
     dac:	000002d4 	ldrdeq	r0, [r0], -r4
     db0:	08700003 	ldmdaeq	r0!, {r0, r1}^
     db4:	0002d49f 	muleq	r2, pc, r4	; <UNPREDICTABLE>
     db8:	0002e000 	andeq	lr, r2, r0
     dbc:	74000700 	strvc	r0, [r0], #-1792	; 0x700
     dc0:	bffffff0 	svclt	0x00fffff0
     dc4:	02fc9f03 	rscseq	r9, ip, #3, 30
     dc8:	03140000 	tsteq	r4, #0
     dcc:	00030000 	andeq	r0, r3, r0
     dd0:	149f0870 	ldrne	r0, [pc], #2160	; dd8 <_back_addr-0x14ff228>
     dd4:	1c000003 	stcne	0, cr0, [r0], {3}
     dd8:	07000003 	streq	r0, [r0, -r3]
     ddc:	fff07400 			; <UNDEFINED> instruction: 0xfff07400
     de0:	9f03bfff 	svcls	0x0003bfff
     de4:	0000031c 	andeq	r0, r0, ip, lsl r3
     de8:	000003ac 	andeq	r0, r0, ip, lsr #7
     dec:	08700003 	ldmdaeq	r0!, {r0, r1}^
     df0:	0000009f 	muleq	r0, pc, r0	; <UNPREDICTABLE>
     df4:	00000000 	andeq	r0, r0, r0
     df8:	00039400 	andeq	r9, r3, r0, lsl #8
     dfc:	0003ac00 	andeq	sl, r3, r0, lsl #24
     e00:	70000300 	andvc	r0, r0, r0, lsl #6
     e04:	00009f08 	andeq	r9, r0, r8, lsl #30
     e08:	00000000 	andeq	r0, r0, r0
     e0c:	026c0000 	rsbeq	r0, ip, #0
     e10:	02d40000 	sbcseq	r0, r4, #0
     e14:	00030000 	andeq	r0, r3, r0
     e18:	d49f1070 	ldrle	r1, [pc], #112	; e20 <_back_addr-0x14ff1e0>
     e1c:	e0000002 	and	r0, r0, r2
     e20:	07000002 	streq	r0, [r0, -r2]
     e24:	fff87400 			; <UNDEFINED> instruction: 0xfff87400
     e28:	9f03bfff 	svcls	0x0003bfff
     e2c:	000002fc 	strdeq	r0, [r0], -ip
     e30:	00000314 	andeq	r0, r0, r4, lsl r3
     e34:	10700003 	rsbsne	r0, r0, r3
     e38:	0003149f 	muleq	r3, pc, r4	; <UNPREDICTABLE>
     e3c:	00031c00 	andeq	r1, r3, r0, lsl #24
     e40:	74000700 	strvc	r0, [r0], #-1792	; 0x700
     e44:	bffffff8 	svclt	0x00fffff8
     e48:	031c9f03 	tsteq	ip, #3, 30
     e4c:	03940000 	orrseq	r0, r4, #0
     e50:	00030000 	andeq	r0, r3, r0
     e54:	009f1070 	addseq	r1, pc, r0, ror r0	; <UNPREDICTABLE>
     e58:	00000000 	andeq	r0, r0, r0
     e5c:	7c000000 	stcvc	0, cr0, [r0], {-0}
     e60:	94000003 	strls	r0, [r0], #-3
     e64:	03000003 	movweq	r0, #3
     e68:	9f107000 	svcls	0x00107000
	...
     e74:	00000284 	andeq	r0, r0, r4, lsl #5
     e78:	000002d4 	ldrdeq	r0, [r0], -r4
     e7c:	0c700003 	ldcleq	0, cr0, [r0], #-12
     e80:	0002d49f 	muleq	r2, pc, r4	; <UNPREDICTABLE>
     e84:	0002e000 	andeq	lr, r2, r0
     e88:	74000700 	strvc	r0, [r0], #-1792	; 0x700
     e8c:	bffffff4 	svclt	0x00fffff4
     e90:	02fc9f03 	rscseq	r9, ip, #3, 30
     e94:	03140000 	tsteq	r4, #0
     e98:	00030000 	andeq	r0, r3, r0
     e9c:	149f0c70 	ldrne	r0, [pc], #3184	; ea4 <_back_addr-0x14ff15c>
     ea0:	1c000003 	stcne	0, cr0, [r0], {3}
     ea4:	07000003 	streq	r0, [r0, -r3]
     ea8:	fff47400 			; <UNDEFINED> instruction: 0xfff47400
     eac:	9f03bfff 	svcls	0x0003bfff
     eb0:	0000031c 	andeq	r0, r0, ip, lsl r3
     eb4:	0000037c 	andeq	r0, r0, ip, ror r3
     eb8:	0c700003 	ldcleq	0, cr0, [r0], #-12
     ebc:	0000009f 	muleq	r0, pc, r0	; <UNPREDICTABLE>
     ec0:	00000000 	andeq	r0, r0, r0
     ec4:	00036400 	andeq	r6, r3, r0, lsl #8
     ec8:	00037c00 	andeq	r7, r3, r0, lsl #24
     ecc:	70000300 	andvc	r0, r0, r0, lsl #6
     ed0:	00009f0c 	andeq	r9, r0, ip, lsl #30
     ed4:	00000000 	andeq	r0, r0, r0
     ed8:	029c0000 	addseq	r0, ip, #0
     edc:	02ac0000 	adceq	r0, ip, #0
     ee0:	00010000 	andeq	r0, r1, r0
     ee4:	00034c53 	andeq	r4, r3, r3, asr ip
     ee8:	00036400 	andeq	r6, r3, r0, lsl #8
     eec:	53000100 	movwpl	r0, #256	; 0x100
	...
     ef8:	0000029c 	muleq	r0, ip, r2
     efc:	000002d4 	ldrdeq	r0, [r0], -r4
     f00:	10700003 	rsbsne	r0, r0, r3
     f04:	0002d49f 	muleq	r2, pc, r4	; <UNPREDICTABLE>
     f08:	0002e000 	andeq	lr, r2, r0
     f0c:	74000700 	strvc	r0, [r0], #-1792	; 0x700
     f10:	bffffff8 	svclt	0x00fffff8
     f14:	02fc9f03 	rscseq	r9, ip, #3, 30
     f18:	03140000 	tsteq	r4, #0
     f1c:	00030000 	andeq	r0, r3, r0
     f20:	149f1070 	ldrne	r1, [pc], #112	; f28 <_back_addr-0x14ff0d8>
     f24:	1c000003 	stcne	0, cr0, [r0], {3}
     f28:	07000003 	streq	r0, [r0, -r3]
     f2c:	fff87400 			; <UNDEFINED> instruction: 0xfff87400
     f30:	9f03bfff 	svcls	0x0003bfff
     f34:	0000031c 	andeq	r0, r0, ip, lsl r3
     f38:	00000364 	andeq	r0, r0, r4, ror #6
     f3c:	10700003 	rsbsne	r0, r0, r3
     f40:	0000009f 	muleq	r0, pc, r0	; <UNPREDICTABLE>
     f44:	00000000 	andeq	r0, r0, r0
     f48:	00034c00 	andeq	r4, r3, r0, lsl #24
     f4c:	00036400 	andeq	r6, r3, r0, lsl #8
     f50:	53000100 	movwpl	r0, #256	; 0x100
	...
     f5c:	0000034c 	andeq	r0, r0, ip, asr #6
     f60:	00000364 	andeq	r0, r0, r4, ror #6
     f64:	10700003 	rsbsne	r0, r0, r3
     f68:	0000009f 	muleq	r0, pc, r0	; <UNPREDICTABLE>
     f6c:	00000000 	andeq	r0, r0, r0
     f70:	0002ac00 	andeq	sl, r2, r0, lsl #24
     f74:	0002bc00 	andeq	fp, r2, r0, lsl #24
     f78:	53000100 	movwpl	r0, #256	; 0x100
     f7c:	00000334 	andeq	r0, r0, r4, lsr r3
     f80:	0000034c 	andeq	r0, r0, ip, asr #6
     f84:	00530001 	subseq	r0, r3, r1
     f88:	00000000 	andeq	r0, r0, r0
     f8c:	ac000000 	stcge	0, cr0, [r0], {-0}
     f90:	d4000002 	strle	r0, [r0], #-2
     f94:	03000002 	movweq	r0, #2
     f98:	9f147000 	svcls	0x00147000
     f9c:	000002d4 	ldrdeq	r0, [r0], -r4
     fa0:	000002e0 	andeq	r0, r0, r0, ror #5
     fa4:	fc740007 	ldc2l	0, cr0, [r4], #-28	; 0xffffffe4
     fa8:	03bfffff 			; <UNDEFINED> instruction: 0x03bfffff
     fac:	0002fc9f 	muleq	r2, pc, ip	; <UNPREDICTABLE>
     fb0:	00031400 	andeq	r1, r3, r0, lsl #8
     fb4:	70000300 	andvc	r0, r0, r0, lsl #6
     fb8:	03149f14 	tsteq	r4, #20, 30	; 0x50
     fbc:	031c0000 	tsteq	ip, #0
     fc0:	00070000 	andeq	r0, r7, r0
     fc4:	fffffc74 			; <UNDEFINED> instruction: 0xfffffc74
     fc8:	1c9f03bf 	ldcne	3, cr0, [pc], {191}	; 0xbf
     fcc:	4c000003 	stcmi	0, cr0, [r0], {3}
     fd0:	03000003 	movweq	r0, #3
     fd4:	9f147000 	svcls	0x00147000
	...
     fe0:	00000334 	andeq	r0, r0, r4, lsr r3
     fe4:	0000034c 	andeq	r0, r0, ip, asr #6
     fe8:	00530001 	subseq	r0, r3, r1
     fec:	00000000 	andeq	r0, r0, r0
     ff0:	34000000 	strcc	r0, [r0], #-0
     ff4:	4c000003 	stcmi	0, cr0, [r0], {3}
     ff8:	03000003 	movweq	r0, #3
     ffc:	9f147000 	svcls	0x00147000
	...
    1008:	000002bc 			; <UNDEFINED> instruction: 0x000002bc
    100c:	000002cc 	andeq	r0, r0, ip, asr #5
    1010:	1c530001 	mrrcne	0, 0, r0, r3, cr1
    1014:	34000003 	strcc	r0, [r0], #-3
    1018:	01000003 	tsteq	r0, r3
    101c:	00005300 	andeq	r5, r0, r0, lsl #6
    1020:	00000000 	andeq	r0, r0, r0
    1024:	02bc0000 	adcseq	r0, ip, #0
    1028:	02d40000 	sbcseq	r0, r4, #0
    102c:	00030000 	andeq	r0, r3, r0
    1030:	d49f1870 	ldrle	r1, [pc], #2160	; 1038 <_back_addr-0x14fefc8>
    1034:	e0000002 	and	r0, r0, r2
    1038:	07000002 	streq	r0, [r0, -r2]
    103c:	80807400 	addhi	r7, r0, r0, lsl #8
    1040:	9f03c080 	svcls	0x0003c080
    1044:	000002fc 	strdeq	r0, [r0], -ip
    1048:	00000314 	andeq	r0, r0, r4, lsl r3
    104c:	18700003 	ldmdane	r0!, {r0, r1}^
    1050:	0003149f 	muleq	r3, pc, r4	; <UNPREDICTABLE>
    1054:	00031c00 	andeq	r1, r3, r0, lsl #24
    1058:	74000700 	strvc	r0, [r0], #-1792	; 0x700
    105c:	c0808080 	addgt	r8, r0, r0, lsl #1
    1060:	031c9f03 	tsteq	ip, #3, 30
    1064:	03340000 	teqeq	r4, #0
    1068:	00030000 	andeq	r0, r3, r0
    106c:	009f1870 	addseq	r1, pc, r0, ror r8	; <UNPREDICTABLE>
    1070:	00000000 	andeq	r0, r0, r0
    1074:	1c000000 	stcne	0, cr0, [r0], {-0}
    1078:	34000003 	strcc	r0, [r0], #-3
    107c:	01000003 	tsteq	r0, r3
    1080:	00005300 	andeq	r5, r0, r0, lsl #6
    1084:	00000000 	andeq	r0, r0, r0
    1088:	031c0000 	tsteq	ip, #0
    108c:	03340000 	teqeq	r4, #0
    1090:	00030000 	andeq	r0, r3, r0
    1094:	009f1870 	addseq	r1, pc, r0, ror r8	; <UNPREDICTABLE>
    1098:	00000000 	andeq	r0, r0, r0
    109c:	cc000000 	stcgt	0, cr0, [r0], {-0}
    10a0:	e0000002 	and	r0, r0, r2
    10a4:	01000002 	tsteq	r0, r2
    10a8:	02fc5300 	rscseq	r5, ip, #0, 6
    10ac:	031c0000 	tsteq	ip, #0
    10b0:	00010000 	andeq	r0, r1, r0
    10b4:	00000053 	andeq	r0, r0, r3, asr r0
    10b8:	00000000 	andeq	r0, r0, r0
    10bc:	0002cc00 	andeq	ip, r2, r0, lsl #24
    10c0:	0002d400 	andeq	sp, r2, r0, lsl #8
    10c4:	70000300 	andvc	r0, r0, r0, lsl #6
    10c8:	02d49f1c 	sbcseq	r9, r4, #28, 30	; 0x70
    10cc:	02e00000 	rsceq	r0, r0, #0
    10d0:	00070000 	andeq	r0, r7, r0
    10d4:	80808474 	addhi	r8, r0, r4, ror r4
    10d8:	fc9f03c0 	ldc2	3, cr0, [pc], {192}	; 0xc0
    10dc:	14000002 	strne	r0, [r0], #-2
    10e0:	03000003 	movweq	r0, #3
    10e4:	9f1c7000 	svcls	0x001c7000
    10e8:	00000314 	andeq	r0, r0, r4, lsl r3
    10ec:	0000031c 	andeq	r0, r0, ip, lsl r3
    10f0:	84740007 	ldrbthi	r0, [r4], #-7
    10f4:	03c08080 	biceq	r8, r0, #128	; 0x80
    10f8:	0000009f 	muleq	r0, pc, r0	; <UNPREDICTABLE>
    10fc:	00000000 	andeq	r0, r0, r0
    1100:	0002fc00 	andeq	pc, r2, r0, lsl #24
    1104:	00031c00 	andeq	r1, r3, r0, lsl #24
    1108:	53000100 	movwpl	r0, #256	; 0x100
	...
    1114:	000002fc 	strdeq	r0, [r0], -ip
    1118:	00000314 	andeq	r0, r0, r4, lsl r3
    111c:	1c700003 	ldclne	0, cr0, [r0], #-12
    1120:	0003149f 	muleq	r3, pc, r4	; <UNPREDICTABLE>
    1124:	00031c00 	andeq	r1, r3, r0, lsl #24
    1128:	74000700 	strvc	r0, [r0], #-1792	; 0x700
    112c:	c0808084 	addgt	r8, r0, r4, lsl #1
    1130:	00009f03 	andeq	r9, r0, r3, lsl #30
    1134:	00000000 	andeq	r0, r0, r0
    1138:	04240000 	strteq	r0, [r4], #-0
    113c:	043b0000 	ldrteq	r0, [fp], #-0
    1140:	00010000 	andeq	r0, r1, r0
    1144:	00043b50 	andeq	r3, r4, r0, asr fp
    1148:	00048800 	andeq	r8, r4, r0, lsl #16
    114c:	58000100 	stmdapl	r0, {r8}
    1150:	00000488 	andeq	r0, r0, r8, lsl #9
    1154:	0000048b 	andeq	r0, r0, fp, lsl #9
    1158:	2c700002 	ldclcs	0, cr0, [r0], #-8
    115c:	0000048b 	andeq	r0, r0, fp, lsl #9
    1160:	0000048c 	andeq	r0, r0, ip, lsl #9
    1164:	01f30004 	mvnseq	r0, r4
    1168:	048c9f50 	streq	r9, [ip], #3920	; 0xf50
    116c:	04b40000 	ldrteq	r0, [r4], #0
    1170:	00010000 	andeq	r0, r1, r0
    1174:	00000058 	andeq	r0, r0, r8, asr r0
    1178:	00000000 	andeq	r0, r0, r0
    117c:	00042400 	andeq	r2, r4, r0, lsl #8
    1180:	00043b00 	andeq	r3, r4, r0, lsl #22
    1184:	51000100 	mrspl	r0, (UNDEF: 16)
    1188:	0000043b 	andeq	r0, r0, fp, lsr r4
    118c:	00000488 	andeq	r0, r0, r8, lsl #9
    1190:	88560001 	ldmdahi	r6, {r0}^
    1194:	8b000004 	blhi	11ac <_back_addr-0x14fee54>
    1198:	02000004 	andeq	r0, r0, #4
    119c:	8b347000 	blhi	d1d1a4 <_back_addr-0x7e2e5c>
    11a0:	8c000004 	stchi	0, cr0, [r0], {4}
    11a4:	04000004 	streq	r0, [r0], #-4
    11a8:	5101f300 	mrspl	pc, SP_irq	; <UNPREDICTABLE>
    11ac:	00048c9f 	muleq	r4, pc, ip	; <UNPREDICTABLE>
    11b0:	0004b400 	andeq	fp, r4, r0, lsl #8
    11b4:	56000100 	strpl	r0, [r0], -r0, lsl #2
	...
    11c0:	00000424 	andeq	r0, r0, r4, lsr #8
    11c4:	0000043b 	andeq	r0, r0, fp, lsr r4
    11c8:	3b520001 	blcc	14811d4 <_back_addr-0x7ee2c>
    11cc:	88000004 	stmdahi	r0, {r2}
    11d0:	01000004 	tsteq	r0, r4
    11d4:	04885700 	streq	r5, [r8], #1792	; 0x700
    11d8:	048b0000 	streq	r0, [fp], #0
    11dc:	00020000 	andeq	r0, r2, r0
    11e0:	048b3070 	streq	r3, [fp], #112	; 0x70
    11e4:	048c0000 	streq	r0, [ip], #0
    11e8:	00040000 	andeq	r0, r4, r0
    11ec:	9f5201f3 	svcls	0x005201f3
    11f0:	0000048c 	andeq	r0, r0, ip, lsl #9
    11f4:	000004b4 			; <UNDEFINED> instruction: 0x000004b4
    11f8:	00570001 	subseq	r0, r7, r1
    11fc:	00000000 	andeq	r0, r0, r0
    1200:	24000000 	strcs	r0, [r0], #-0
    1204:	3b000004 	blcc	121c <_back_addr-0x14fede4>
    1208:	01000004 	tsteq	r0, r4
    120c:	043b5300 	ldrteq	r5, [fp], #-768	; 0x300
    1210:	04880000 	streq	r0, [r8], #0
    1214:	00010000 	andeq	r0, r1, r0
    1218:	00048855 	andeq	r8, r4, r5, asr r8
    121c:	00048c00 	andeq	r8, r4, r0, lsl #24
    1220:	f3000400 	vshl.u8	d0, d0, d0
    1224:	8c9f5301 	ldchi	3, cr5, [pc], {1}
    1228:	b4000004 	strlt	r0, [r0], #-4
    122c:	01000004 	tsteq	r0, r4
    1230:	00005500 	andeq	r5, r0, r0, lsl #10
    1234:	00000000 	andeq	r0, r0, r0
    1238:	043c0000 	ldrteq	r0, [ip], #-0
    123c:	04740000 	ldrbteq	r0, [r4], #-0
    1240:	00010000 	andeq	r0, r1, r0
    1244:	00047450 	andeq	r7, r4, r0, asr r4
    1248:	00048800 	andeq	r8, r4, r0, lsl #16
    124c:	54000100 	strpl	r0, [r0], #-256	; 0x100
    1250:	00000488 	andeq	r0, r0, r8, lsl #9
    1254:	0000048b 	andeq	r0, r0, fp, lsl #9
    1258:	8c500001 	mrrchi	0, 0, r0, r0, cr1	; <UNPREDICTABLE>
    125c:	8f000004 	svchi	0x00000004
    1260:	01000004 	tsteq	r0, r4
    1264:	048f5000 	streq	r5, [pc], #0	; 126c <_back_addr-0x14fed94>
    1268:	04a40000 	strteq	r0, [r4], #0
    126c:	00010000 	andeq	r0, r1, r0
    1270:	0004a454 	andeq	sl, r4, r4, asr r4
    1274:	0004a800 	andeq	sl, r4, r0, lsl #16
    1278:	50000100 	andpl	r0, r0, r0, lsl #2
    127c:	000004a8 	andeq	r0, r0, r8, lsr #9
    1280:	000004b4 			; <UNDEFINED> instruction: 0x000004b4
    1284:	00540001 	subseq	r0, r4, r1
    1288:	00000000 	andeq	r0, r0, r0
    128c:	b4000000 	strlt	r0, [r0], #-0
    1290:	cb000004 	blgt	12a8 <_back_addr-0x14fed58>
    1294:	01000004 	tsteq	r0, r4
    1298:	04cb5000 	strbeq	r5, [fp], #0
    129c:	05180000 	ldreq	r0, [r8, #-0]
    12a0:	00010000 	andeq	r0, r1, r0
    12a4:	00051858 	andeq	r1, r5, r8, asr r8
    12a8:	00051b00 	andeq	r1, r5, r0, lsl #22
    12ac:	70000200 	andvc	r0, r0, r0, lsl #4
    12b0:	00051b2c 	andeq	r1, r5, ip, lsr #22
    12b4:	00051c00 	andeq	r1, r5, r0, lsl #24
    12b8:	f3000400 	vshl.u8	d0, d0, d0
    12bc:	1c9f5001 	ldcne	0, cr5, [pc], {1}
    12c0:	44000005 	strmi	r0, [r0], #-5
    12c4:	01000005 	tsteq	r0, r5
    12c8:	00005800 	andeq	r5, r0, r0, lsl #16
    12cc:	00000000 	andeq	r0, r0, r0
    12d0:	04b40000 	ldrteq	r0, [r4], #0
    12d4:	04cb0000 	strbeq	r0, [fp], #0
    12d8:	00010000 	andeq	r0, r1, r0
    12dc:	0004cb51 	andeq	ip, r4, r1, asr fp
    12e0:	00051800 	andeq	r1, r5, r0, lsl #16
    12e4:	56000100 	strpl	r0, [r0], -r0, lsl #2
    12e8:	00000518 	andeq	r0, r0, r8, lsl r5
    12ec:	0000051b 	andeq	r0, r0, fp, lsl r5
    12f0:	34700002 	ldrbtcc	r0, [r0], #-2
    12f4:	0000051b 	andeq	r0, r0, fp, lsl r5
    12f8:	0000051c 	andeq	r0, r0, ip, lsl r5
    12fc:	01f30004 	mvnseq	r0, r4
    1300:	051c9f51 	ldreq	r9, [ip, #-3921]	; 0xf51
    1304:	05440000 	strbeq	r0, [r4, #-0]
    1308:	00010000 	andeq	r0, r1, r0
    130c:	00000056 	andeq	r0, r0, r6, asr r0
    1310:	00000000 	andeq	r0, r0, r0
    1314:	0004b400 	andeq	fp, r4, r0, lsl #8
    1318:	0004cb00 	andeq	ip, r4, r0, lsl #22
    131c:	52000100 	andpl	r0, r0, #0, 2
    1320:	000004cb 	andeq	r0, r0, fp, asr #9
    1324:	00000518 	andeq	r0, r0, r8, lsl r5
    1328:	18570001 	ldmdane	r7, {r0}^
    132c:	1b000005 	blne	1348 <_back_addr-0x14fecb8>
    1330:	02000005 	andeq	r0, r0, #5
    1334:	1b307000 	blne	c1d33c <_back_addr-0x8e2cc4>
    1338:	1c000005 	stcne	0, cr0, [r0], {5}
    133c:	04000005 	streq	r0, [r0], #-5
    1340:	5201f300 	andpl	pc, r1, #0, 6
    1344:	00051c9f 	muleq	r5, pc, ip	; <UNPREDICTABLE>
    1348:	00054400 	andeq	r4, r5, r0, lsl #8
    134c:	57000100 	strpl	r0, [r0, -r0, lsl #2]
	...
    1358:	000004b4 			; <UNDEFINED> instruction: 0x000004b4
    135c:	000004cb 	andeq	r0, r0, fp, asr #9
    1360:	cb530001 	blgt	14c136c <_back_addr-0x3ec94>
    1364:	18000004 	stmdane	r0, {r2}
    1368:	01000005 	tsteq	r0, r5
    136c:	05185500 	ldreq	r5, [r8, #-1280]	; 0x500
    1370:	051c0000 	ldreq	r0, [ip, #-0]
    1374:	00040000 	andeq	r0, r4, r0
    1378:	9f5301f3 	svcls	0x005301f3
    137c:	0000051c 	andeq	r0, r0, ip, lsl r5
    1380:	00000544 	andeq	r0, r0, r4, asr #10
    1384:	00550001 	subseq	r0, r5, r1
    1388:	00000000 	andeq	r0, r0, r0
    138c:	cc000000 	stcgt	0, cr0, [r0], {-0}
    1390:	04000004 	streq	r0, [r0], #-4
    1394:	01000005 	tsteq	r0, r5
    1398:	05045000 	streq	r5, [r4, #-0]
    139c:	05180000 	ldreq	r0, [r8, #-0]
    13a0:	00010000 	andeq	r0, r1, r0
    13a4:	00051854 	andeq	r1, r5, r4, asr r8
    13a8:	00051b00 	andeq	r1, r5, r0, lsl #22
    13ac:	50000100 	andpl	r0, r0, r0, lsl #2
    13b0:	0000051c 	andeq	r0, r0, ip, lsl r5
    13b4:	0000051f 	andeq	r0, r0, pc, lsl r5
    13b8:	1f500001 	svcne	0x00500001
    13bc:	34000005 	strcc	r0, [r0], #-5
    13c0:	01000005 	tsteq	r0, r5
    13c4:	05345400 	ldreq	r5, [r4, #-1024]!	; 0x400
    13c8:	05380000 	ldreq	r0, [r8, #-0]!
    13cc:	00010000 	andeq	r0, r1, r0
    13d0:	00053850 	andeq	r3, r5, r0, asr r8
    13d4:	00054400 	andeq	r4, r5, r0, lsl #8
    13d8:	54000100 	strpl	r0, [r0], #-256	; 0x100
	...
    13e4:	00000544 	andeq	r0, r0, r4, asr #10
    13e8:	0000055b 	andeq	r0, r0, fp, asr r5
    13ec:	5b500001 	blpl	14013f8 <_back_addr-0xfec08>
    13f0:	a8000005 	stmdage	r0, {r0, r2}
    13f4:	01000005 	tsteq	r0, r5
    13f8:	05a85800 	streq	r5, [r8, #2048]!	; 0x800
    13fc:	05ab0000 	streq	r0, [fp, #0]!
    1400:	00020000 	andeq	r0, r2, r0
    1404:	05ab2c70 	streq	r2, [fp, #3184]!	; 0xc70
    1408:	05ac0000 	streq	r0, [ip, #0]!
    140c:	00040000 	andeq	r0, r4, r0
    1410:	9f5001f3 	svcls	0x005001f3
    1414:	000005ac 	andeq	r0, r0, ip, lsr #11
    1418:	000005d8 	ldrdeq	r0, [r0], -r8
    141c:	00580001 	subseq	r0, r8, r1
    1420:	00000000 	andeq	r0, r0, r0
    1424:	44000000 	strmi	r0, [r0], #-0
    1428:	5b000005 	blpl	1444 <_back_addr-0x14febbc>
    142c:	01000005 	tsteq	r0, r5
    1430:	055b5100 	ldrbeq	r5, [fp, #-256]	; 0x100
    1434:	05a80000 	streq	r0, [r8, #0]!
    1438:	00010000 	andeq	r0, r1, r0
    143c:	0005a856 	andeq	sl, r5, r6, asr r8
    1440:	0005ab00 	andeq	sl, r5, r0, lsl #22
    1444:	70000200 	andvc	r0, r0, r0, lsl #4
    1448:	0005ab34 	andeq	sl, r5, r4, lsr fp
    144c:	0005ac00 	andeq	sl, r5, r0, lsl #24
    1450:	f3000400 	vshl.u8	d0, d0, d0
    1454:	ac9f5101 	ldfges	f5, [pc], {1}
    1458:	d8000005 	stmdale	r0, {r0, r2}
    145c:	01000005 	tsteq	r0, r5
    1460:	00005600 	andeq	r5, r0, r0, lsl #12
    1464:	00000000 	andeq	r0, r0, r0
    1468:	05440000 	strbeq	r0, [r4, #-0]
    146c:	055b0000 	ldrbeq	r0, [fp, #-0]
    1470:	00010000 	andeq	r0, r1, r0
    1474:	00055b52 	andeq	r5, r5, r2, asr fp
    1478:	0005a800 	andeq	sl, r5, r0, lsl #16
    147c:	57000100 	strpl	r0, [r0, -r0, lsl #2]
    1480:	000005a8 	andeq	r0, r0, r8, lsr #11
    1484:	000005ab 	andeq	r0, r0, fp, lsr #11
    1488:	30700002 	rsbscc	r0, r0, r2
    148c:	000005ab 	andeq	r0, r0, fp, lsr #11
    1490:	000005ac 	andeq	r0, r0, ip, lsr #11
    1494:	01f30004 	mvnseq	r0, r4
    1498:	05ac9f52 	streq	r9, [ip, #3922]!	; 0xf52
    149c:	05d80000 	ldrbeq	r0, [r8]
    14a0:	00010000 	andeq	r0, r1, r0
    14a4:	00000057 	andeq	r0, r0, r7, asr r0
    14a8:	00000000 	andeq	r0, r0, r0
    14ac:	00054400 	andeq	r4, r5, r0, lsl #8
    14b0:	00055b00 	andeq	r5, r5, r0, lsl #22
    14b4:	53000100 	movwpl	r0, #256	; 0x100
    14b8:	0000055b 	andeq	r0, r0, fp, asr r5
    14bc:	000005a8 	andeq	r0, r0, r8, lsr #11
    14c0:	a8550001 	ldmdage	r5, {r0}^
    14c4:	ac000005 	stcge	0, cr0, [r0], {5}
    14c8:	04000005 	streq	r0, [r0], #-5
    14cc:	5301f300 	movwpl	pc, #4864	; 0x1300	; <UNPREDICTABLE>
    14d0:	0005ac9f 	muleq	r5, pc, ip	; <UNPREDICTABLE>
    14d4:	0005d800 	andeq	sp, r5, r0, lsl #16
    14d8:	55000100 	strpl	r0, [r0, #-256]	; 0x100
	...
    14e4:	0000055c 	andeq	r0, r0, ip, asr r5
    14e8:	00000594 	muleq	r0, r4, r5
    14ec:	94500001 	ldrbls	r0, [r0], #-1
    14f0:	a8000005 	stmdage	r0, {r0, r2}
    14f4:	01000005 	tsteq	r0, r5
    14f8:	05a85400 	streq	r5, [r8, #1024]!	; 0x400
    14fc:	05ab0000 	streq	r0, [fp, #0]!
    1500:	00010000 	andeq	r0, r1, r0
    1504:	0005ac50 	andeq	sl, r5, r0, asr ip
    1508:	0005af00 	andeq	sl, r5, r0, lsl #30
    150c:	50000100 	andpl	r0, r0, r0, lsl #2
    1510:	000005af 	andeq	r0, r0, pc, lsr #11
    1514:	000005c8 	andeq	r0, r0, r8, asr #11
    1518:	c8540001 	ldmdagt	r4, {r0}^
    151c:	cc000005 	stcgt	0, cr0, [r0], {5}
    1520:	01000005 	tsteq	r0, r5
    1524:	05cc5000 	strbeq	r5, [ip]
    1528:	05d80000 	ldrbeq	r0, [r8]
    152c:	00010000 	andeq	r0, r1, r0
    1530:	00000054 	andeq	r0, r0, r4, asr r0
    1534:	00000000 	andeq	r0, r0, r0
    1538:	0005d800 	andeq	sp, r5, r0, lsl #16
    153c:	0005ef00 	andeq	lr, r5, r0, lsl #30
    1540:	50000100 	andpl	r0, r0, r0, lsl #2
    1544:	000005ef 	andeq	r0, r0, pc, ror #11
    1548:	000006c4 	andeq	r0, r0, r4, asr #13
    154c:	00580001 	subseq	r0, r8, r1
    1550:	00000000 	andeq	r0, r0, r0
    1554:	d8000000 	stmdale	r0, {}	; <UNPREDICTABLE>
    1558:	ef000005 	svc	0x00000005
    155c:	01000005 	tsteq	r0, r5
    1560:	05ef5100 	strbeq	r5, [pc, #256]!	; 1668 <_back_addr-0x14fe998>
    1564:	06c40000 	strbeq	r0, [r4], r0
    1568:	00010000 	andeq	r0, r1, r0
    156c:	00000057 	andeq	r0, r0, r7, asr r0
    1570:	00000000 	andeq	r0, r0, r0
    1574:	0005d800 	andeq	sp, r5, r0, lsl #16
    1578:	0005ef00 	andeq	lr, r5, r0, lsl #30
    157c:	52000100 	andpl	r0, r0, #0, 2
    1580:	000005ef 	andeq	r0, r0, pc, ror #11
    1584:	000006c4 	andeq	r0, r0, r4, asr #13
    1588:	00560001 	subseq	r0, r6, r1
    158c:	00000000 	andeq	r0, r0, r0
    1590:	d8000000 	stmdale	r0, {}	; <UNPREDICTABLE>
    1594:	ef000005 	svc	0x00000005
    1598:	01000005 	tsteq	r0, r5
    159c:	05ef5300 	strbeq	r5, [pc, #768]!	; 18a4 <_back_addr-0x14fe75c>
    15a0:	06c40000 	strbeq	r0, [r4], r0
    15a4:	00010000 	andeq	r0, r1, r0
    15a8:	00000055 	andeq	r0, r0, r5, asr r0
    15ac:	00000000 	andeq	r0, r0, r0
    15b0:	0005d800 	andeq	sp, r5, r0, lsl #16
    15b4:	00063c00 	andeq	r3, r6, r0, lsl #24
    15b8:	30000200 	andcc	r0, r0, r0, lsl #4
    15bc:	00063c9f 	muleq	r6, pc, ip	; <UNPREDICTABLE>
    15c0:	00066000 	andeq	r6, r6, r0
    15c4:	50000100 	andpl	r0, r0, r0, lsl #2
    15c8:	00000660 	andeq	r0, r0, r0, ror #12
    15cc:	000006c4 	andeq	r0, r0, r4, asr #13
    15d0:	9f300002 	svcls	0x00300002
	...
    15dc:	000005f0 	strdeq	r0, [r0], -r0	; <UNPREDICTABLE>
    15e0:	00000628 	andeq	r0, r0, r8, lsr #12
    15e4:	28500001 	ldmdacs	r0, {r0}^
    15e8:	40000006 	andmi	r0, r0, r6
    15ec:	01000006 	tsteq	r0, r6
    15f0:	06605400 	strbteq	r5, [r0], -r0, lsl #8
    15f4:	06630000 	strbteq	r0, [r3], -r0
    15f8:	00010000 	andeq	r0, r1, r0
    15fc:	00066350 	andeq	r6, r6, r0, asr r3
    1600:	00069c00 	andeq	r9, r6, r0, lsl #24
    1604:	54000100 	strpl	r0, [r0], #-256	; 0x100
    1608:	0000069c 	muleq	r0, ip, r6
    160c:	000006b4 			; <UNDEFINED> instruction: 0x000006b4
    1610:	b4500001 	ldrblt	r0, [r0], #-1
    1614:	c4000006 	strgt	r0, [r0], #-6
    1618:	01000006 	tsteq	r0, r6
    161c:	00005400 	andeq	r5, r0, r0, lsl #8
    1620:	00000000 	andeq	r0, r0, r0
    1624:	06c40000 	strbeq	r0, [r4], r0
    1628:	06d70000 	ldrbeq	r0, [r7], r0
    162c:	00010000 	andeq	r0, r1, r0
    1630:	0006d750 	andeq	sp, r6, r0, asr r7
    1634:	00072800 	andeq	r2, r7, r0, lsl #16
    1638:	56000100 	strpl	r0, [r0], -r0, lsl #2
    163c:	00000728 	andeq	r0, r0, r8, lsr #14
    1640:	0000072b 	andeq	r0, r0, fp, lsr #14
    1644:	2c700002 	ldclcs	0, cr0, [r0], #-8
    1648:	0000072b 	andeq	r0, r0, fp, lsr #14
    164c:	0000072c 	andeq	r0, r0, ip, lsr #14
    1650:	01f30004 	mvnseq	r0, r4
    1654:	072c9f50 			; <UNDEFINED> instruction: 0x072c9f50
    1658:	07340000 	ldreq	r0, [r4, -r0]!
    165c:	00010000 	andeq	r0, r1, r0
    1660:	00000056 	andeq	r0, r0, r6, asr r0
    1664:	00000000 	andeq	r0, r0, r0
    1668:	0006c400 	andeq	ip, r6, r0, lsl #8
    166c:	0006d700 	andeq	sp, r6, r0, lsl #14
    1670:	51000100 	mrspl	r0, (UNDEF: 16)
    1674:	000006d7 	ldrdeq	r0, [r0], -r7
    1678:	00000728 	andeq	r0, r0, r8, lsr #14
    167c:	28540001 	ldmdacs	r4, {r0}^
    1680:	2b000007 	blcs	16a4 <_back_addr-0x14fe95c>
    1684:	02000007 	andeq	r0, r0, #7
    1688:	2b347000 	blcs	d1d690 <_back_addr-0x7e2970>
    168c:	2c000007 	stccs	0, cr0, [r0], {7}
    1690:	04000007 	streq	r0, [r0], #-7
    1694:	5101f300 	mrspl	pc, SP_irq	; <UNPREDICTABLE>
    1698:	00072c9f 	muleq	r7, pc, ip	; <UNPREDICTABLE>
    169c:	00073400 	andeq	r3, r7, r0, lsl #8
    16a0:	54000100 	strpl	r0, [r0], #-256	; 0x100
	...
    16ac:	000006c4 	andeq	r0, r0, r4, asr #13
    16b0:	000006d7 	ldrdeq	r0, [r0], -r7
    16b4:	d7520001 	ldrble	r0, [r2, -r1]
    16b8:	28000006 	stmdacs	r0, {r1, r2}
    16bc:	01000007 	tsteq	r0, r7
    16c0:	07285500 	streq	r5, [r8, -r0, lsl #10]!
    16c4:	072b0000 	streq	r0, [fp, -r0]!
    16c8:	00020000 	andeq	r0, r2, r0
    16cc:	072b3070 			; <UNDEFINED> instruction: 0x072b3070
    16d0:	072c0000 	streq	r0, [ip, -r0]!
    16d4:	00040000 	andeq	r0, r4, r0
    16d8:	9f5201f3 	svcls	0x005201f3
    16dc:	0000072c 	andeq	r0, r0, ip, lsr #14
    16e0:	00000734 	andeq	r0, r0, r4, lsr r7
    16e4:	00550001 	subseq	r0, r5, r1
    16e8:	00000000 	andeq	r0, r0, r0
    16ec:	d8000000 	stmdale	r0, {}	; <UNPREDICTABLE>
    16f0:	2b000006 	blcs	1710 <_back_addr-0x14fe8f0>
    16f4:	01000007 	tsteq	r0, r7
    16f8:	072c5000 	streq	r5, [ip, -r0]!
    16fc:	07300000 	ldreq	r0, [r0, -r0]!
    1700:	00010000 	andeq	r0, r1, r0
    1704:	00073050 	andeq	r3, r7, r0, asr r0
    1708:	00073400 	andeq	r3, r7, r0, lsl #8
    170c:	53000100 	movwpl	r0, #256	; 0x100
	...
    1718:	00000734 	andeq	r0, r0, r4, lsr r7
    171c:	00000763 	andeq	r0, r0, r3, ror #14
    1720:	63500001 	cmpvs	r0, #1
    1724:	ac000007 	stcge	0, cr0, [r0], {7}
    1728:	01000007 	tsteq	r0, r7
    172c:	07ac5800 	streq	r5, [ip, r0, lsl #16]!
    1730:	08840000 	stmeq	r4, {}	; <UNPREDICTABLE>
    1734:	00040000 	andeq	r0, r4, r0
    1738:	9f5001f3 	svcls	0x005001f3
    173c:	00000884 	andeq	r0, r0, r4, lsl #17
    1740:	00000888 	andeq	r0, r0, r8, lsl #17
    1744:	88500001 	ldmdahi	r0, {r0}^
    1748:	8c000008 	stchi	0, cr0, [r0], {8}
    174c:	04000008 	streq	r0, [r0], #-8
    1750:	5001f300 	andpl	pc, r1, r0, lsl #6
    1754:	0000009f 	muleq	r0, pc, r0	; <UNPREDICTABLE>
    1758:	00000000 	andeq	r0, r0, r0
    175c:	00073400 	andeq	r3, r7, r0, lsl #8
    1760:	00076300 	andeq	r6, r7, r0, lsl #6
    1764:	51000100 	mrspl	r0, (UNDEF: 16)
    1768:	00000763 	andeq	r0, r0, r3, ror #14
    176c:	00000884 	andeq	r0, r0, r4, lsl #17
    1770:	84560001 	ldrbhi	r0, [r6], #-1
    1774:	8c000008 	stchi	0, cr0, [r0], {8}
    1778:	01000008 	tsteq	r0, r8
    177c:	00005100 	andeq	r5, r0, r0, lsl #2
    1780:	00000000 	andeq	r0, r0, r0
    1784:	07340000 	ldreq	r0, [r4, -r0]!
    1788:	07630000 	strbeq	r0, [r3, -r0]!
    178c:	00010000 	andeq	r0, r1, r0
    1790:	00076352 	andeq	r6, r7, r2, asr r3
    1794:	00087c00 	andeq	r7, r8, r0, lsl #24
    1798:	54000100 	strpl	r0, [r0], #-256	; 0x100
    179c:	0000087c 	andeq	r0, r0, ip, ror r8
    17a0:	00000884 	andeq	r0, r0, r4, lsl #17
    17a4:	01f30004 	mvnseq	r0, r4
    17a8:	08849f52 	stmeq	r4, {r1, r4, r6, r8, r9, sl, fp, ip, pc}
    17ac:	088c0000 	stmeq	ip, {}	; <UNPREDICTABLE>
    17b0:	00010000 	andeq	r0, r1, r0
    17b4:	00000052 	andeq	r0, r0, r2, asr r0
    17b8:	00000000 	andeq	r0, r0, r0
    17bc:	00073400 	andeq	r3, r7, r0, lsl #8
    17c0:	00076300 	andeq	r6, r7, r0, lsl #6
    17c4:	53000100 	movwpl	r0, #256	; 0x100
    17c8:	00000763 	andeq	r0, r0, r3, ror #14
    17cc:	00000884 	andeq	r0, r0, r4, lsl #17
    17d0:	84570001 	ldrbhi	r0, [r7], #-1
    17d4:	8c000008 	stchi	0, cr0, [r0], {8}
    17d8:	01000008 	tsteq	r0, r8
    17dc:	00005300 	andeq	r5, r0, r0, lsl #6
    17e0:	00000000 	andeq	r0, r0, r0
    17e4:	07640000 	strbeq	r0, [r4, -r0]!
    17e8:	07ac0000 	streq	r0, [ip, r0]!
    17ec:	00010000 	andeq	r0, r1, r0
    17f0:	0007ac50 	andeq	sl, r7, r0, asr ip
    17f4:	00087c00 	andeq	r7, r8, r0, lsl #24
    17f8:	55000100 	strpl	r0, [r0, #-256]	; 0x100
	...
    1804:	000007a4 	andeq	r0, r0, r4, lsr #15
    1808:	0000087c 	andeq	r0, r0, ip, ror r8
    180c:	00580001 	subseq	r0, r8, r1
    1810:	00000000 	andeq	r0, r0, r0
    1814:	a4000000 	strge	r0, [r0], #-0
    1818:	ac000007 	stcge	0, cr0, [r0], {7}
    181c:	02000007 	andeq	r0, r0, #7
    1820:	489f3000 	ldmmi	pc, {ip, sp}	; <UNPREDICTABLE>
    1824:	6c000008 	stcvs	0, cr0, [r0], {8}
    1828:	02000008 	andeq	r0, r0, #8
    182c:	009f3000 	addseq	r3, pc, r0
    1830:	00000000 	andeq	r0, r0, r0
    1834:	ac000000 	stcge	0, cr0, [r0], {-0}
    1838:	48000007 	stmdami	r0, {r0, r1, r2}
    183c:	01000008 	tsteq	r0, r8
    1840:	086c5400 	stmdaeq	ip!, {sl, ip, lr}^
    1844:	087c0000 	ldmdaeq	ip!, {}^	; <UNPREDICTABLE>
    1848:	00010000 	andeq	r0, r1, r0
    184c:	00000054 	andeq	r0, r0, r4, asr r0
    1850:	00000000 	andeq	r0, r0, r0
    1854:	0007ac00 	andeq	sl, r7, r0, lsl #24
    1858:	00084800 	andeq	r4, r8, r0, lsl #16
    185c:	55000100 	strpl	r0, [r0, #-256]	; 0x100
    1860:	0000086c 	andeq	r0, r0, ip, ror #16
    1864:	0000087c 	andeq	r0, r0, ip, ror r8
    1868:	00550001 	subseq	r0, r5, r1
    186c:	00000000 	andeq	r0, r0, r0
    1870:	8c000000 	stchi	0, cr0, [r0], {-0}
    1874:	af000008 	svcge	0x00000008
    1878:	01000008 	tsteq	r0, r8
    187c:	08af5000 	stmiaeq	pc!, {ip, lr}	; <UNPREDICTABLE>
    1880:	09040000 	stmdbeq	r4, {}	; <UNPREDICTABLE>
    1884:	00010000 	andeq	r0, r1, r0
    1888:	00090456 	andeq	r0, r9, r6, asr r4
    188c:	00090700 	andeq	r0, r9, r0, lsl #14
    1890:	70000200 	andvc	r0, r0, r0, lsl #4
    1894:	0009072c 	andeq	r0, r9, ip, lsr #14
    1898:	00090800 	andeq	r0, r9, r0, lsl #16
    189c:	f3000400 	vshl.u8	d0, d0, d0
    18a0:	089f5001 	ldmeq	pc, {r0, ip, lr}	; <UNPREDICTABLE>
    18a4:	48000009 	stmdami	r0, {r0, r3}
    18a8:	01000009 	tsteq	r0, r9
    18ac:	09485600 	stmdbeq	r8, {r9, sl, ip, lr}^
    18b0:	094c0000 	stmdbeq	ip, {}^	; <UNPREDICTABLE>
    18b4:	00010000 	andeq	r0, r1, r0
    18b8:	00094c50 	andeq	r4, r9, r0, asr ip
    18bc:	00095000 	andeq	r5, r9, r0
    18c0:	f3000400 	vshl.u8	d0, d0, d0
    18c4:	509f5001 	addspl	r5, pc, r1
    18c8:	58000009 	stmdapl	r0, {r0, r3}
    18cc:	01000009 	tsteq	r0, r9
    18d0:	00005600 	andeq	r5, r0, r0, lsl #12
    18d4:	00000000 	andeq	r0, r0, r0
    18d8:	088c0000 	stmeq	ip, {}	; <UNPREDICTABLE>
    18dc:	08af0000 	stmiaeq	pc!, {}	; <UNPREDICTABLE>
    18e0:	00010000 	andeq	r0, r1, r0
    18e4:	0008af51 	andeq	sl, r8, r1, asr pc
    18e8:	00090400 	andeq	r0, r9, r0, lsl #8
    18ec:	55000100 	strpl	r0, [r0, #-256]	; 0x100
    18f0:	00000904 	andeq	r0, r0, r4, lsl #18
    18f4:	00000907 	andeq	r0, r0, r7, lsl #18
    18f8:	34700002 	ldrbtcc	r0, [r0], #-2
    18fc:	00000907 	andeq	r0, r0, r7, lsl #18
    1900:	00000908 	andeq	r0, r0, r8, lsl #18
    1904:	01f30004 	mvnseq	r0, r4
    1908:	09089f51 	stmdbeq	r8, {r0, r4, r6, r8, r9, sl, fp, ip, pc}
    190c:	09480000 	stmdbeq	r8, {}^	; <UNPREDICTABLE>
    1910:	00010000 	andeq	r0, r1, r0
    1914:	00094855 	andeq	r4, r9, r5, asr r8
    1918:	00095000 	andeq	r5, r9, r0
    191c:	51000100 	mrspl	r0, (UNDEF: 16)
    1920:	00000950 	andeq	r0, r0, r0, asr r9
    1924:	00000958 	andeq	r0, r0, r8, asr r9
    1928:	00550001 	subseq	r0, r5, r1
    192c:	00000000 	andeq	r0, r0, r0
    1930:	8c000000 	stchi	0, cr0, [r0], {-0}
    1934:	af000008 	svcge	0x00000008
    1938:	01000008 	tsteq	r0, r8
    193c:	08af5200 	stmiaeq	pc!, {r9, ip, lr}	; <UNPREDICTABLE>
    1940:	09040000 	stmdbeq	r4, {}	; <UNPREDICTABLE>
    1944:	00010000 	andeq	r0, r1, r0
    1948:	00090457 	andeq	r0, r9, r7, asr r4
    194c:	00090700 	andeq	r0, r9, r0, lsl #14
    1950:	70000200 	andvc	r0, r0, r0, lsl #4
    1954:	00090730 	andeq	r0, r9, r0, lsr r7
    1958:	00090800 	andeq	r0, r9, r0, lsl #16
    195c:	f3000400 	vshl.u8	d0, d0, d0
    1960:	089f5201 	ldmeq	pc, {r0, r9, ip, lr}	; <UNPREDICTABLE>
    1964:	48000009 	stmdami	r0, {r0, r3}
    1968:	01000009 	tsteq	r0, r9
    196c:	09485700 	stmdbeq	r8, {r8, r9, sl, ip, lr}^
    1970:	09500000 	ldmdbeq	r0, {}^	; <UNPREDICTABLE>
    1974:	00010000 	andeq	r0, r1, r0
    1978:	00095052 	andeq	r5, r9, r2, asr r0
    197c:	00095800 	andeq	r5, r9, r0, lsl #16
    1980:	57000100 	strpl	r0, [r0, -r0, lsl #2]
	...
    198c:	0000088c 	andeq	r0, r0, ip, lsl #17
    1990:	000008af 	andeq	r0, r0, pc, lsr #17
    1994:	af530001 	svcge	0x00530001
    1998:	04000008 	streq	r0, [r0], #-8
    199c:	01000009 	tsteq	r0, r9
    19a0:	09045400 	stmdbeq	r4, {sl, ip, lr}
    19a4:	09080000 	stmdbeq	r8, {}	; <UNPREDICTABLE>
    19a8:	00040000 	andeq	r0, r4, r0
    19ac:	9f5301f3 	svcls	0x005301f3
    19b0:	00000908 	andeq	r0, r0, r8, lsl #18
    19b4:	00000948 	andeq	r0, r0, r8, asr #18
    19b8:	48540001 	ldmdami	r4, {r0}^
    19bc:	50000009 	andpl	r0, r0, r9
    19c0:	01000009 	tsteq	r0, r9
    19c4:	09505300 	ldmdbeq	r0, {r8, r9, ip, lr}^
    19c8:	09580000 	ldmdbeq	r8, {}^	; <UNPREDICTABLE>
    19cc:	00010000 	andeq	r0, r1, r0
    19d0:	00000054 	andeq	r0, r0, r4, asr r0
    19d4:	00000000 	andeq	r0, r0, r0
    19d8:	0008b000 	andeq	fp, r8, r0
    19dc:	0008f800 	andeq	pc, r8, r0, lsl #16
    19e0:	50000100 	andpl	r0, r0, r0, lsl #2
    19e4:	000008f8 	strdeq	r0, [r0], -r8
    19e8:	00000907 	andeq	r0, r0, r7, lsl #18
    19ec:	085c0001 	ldmdaeq	ip, {r0}^
    19f0:	48000009 	stmdami	r0, {r0, r3}
    19f4:	01000009 	tsteq	r0, r9
    19f8:	09505000 	ldmdbeq	r0, {ip, lr}^
    19fc:	09540000 	ldmdbeq	r4, {}^	; <UNPREDICTABLE>
    1a00:	00010000 	andeq	r0, r1, r0
    1a04:	00095450 	andeq	r5, r9, r0, asr r4
    1a08:	00095800 	andeq	r5, r9, r0, lsl #16
    1a0c:	5c000100 	stfpls	f0, [r0], {-0}
	...
    1a18:	00000958 	andeq	r0, r0, r8, asr r9
    1a1c:	00000973 	andeq	r0, r0, r3, ror r9
    1a20:	73500001 	cmpvc	r0, #1
    1a24:	3c000009 	stccc	0, cr0, [r0], {9}
    1a28:	0100000a 	tsteq	r0, sl
    1a2c:	0a3c5400 	beq	f16a34 <_back_addr-0x5e95cc>
    1a30:	0abc0000 	beq	fef01a38 <__bss_end__+0xfd9ee020>
    1a34:	00040000 	andeq	r0, r4, r0
    1a38:	9f5001f3 	svcls	0x005001f3
    1a3c:	00000abc 			; <UNDEFINED> instruction: 0x00000abc
    1a40:	00000ad4 	ldrdeq	r0, [r0], -r4
    1a44:	00540001 	subseq	r0, r4, r1
    1a48:	00000000 	andeq	r0, r0, r0
    1a4c:	58000000 	stmdapl	r0, {}	; <UNPREDICTABLE>
    1a50:	73000009 	movwvc	r0, #9
    1a54:	01000009 	tsteq	r0, r9
    1a58:	09735100 	ldmdbeq	r3!, {r8, ip, lr}^
    1a5c:	0a100000 	beq	401a64 <_back_addr-0x10fe59c>
    1a60:	00010000 	andeq	r0, r1, r0
    1a64:	000a1055 	andeq	r1, sl, r5, asr r0
    1a68:	000abc00 	andeq	fp, sl, r0, lsl #24
    1a6c:	f3000400 	vshl.u8	d0, d0, d0
    1a70:	bc9f5101 	ldflts	f5, [pc], {1}
    1a74:	d400000a 	strle	r0, [r0], #-10
    1a78:	0100000a 	tsteq	r0, sl
    1a7c:	00005500 	andeq	r5, r0, r0, lsl #10
    1a80:	00000000 	andeq	r0, r0, r0
    1a84:	09580000 	ldmdbeq	r8, {}^	; <UNPREDICTABLE>
    1a88:	09730000 	ldmdbeq	r3!, {}^	; <UNPREDICTABLE>
    1a8c:	00010000 	andeq	r0, r1, r0
    1a90:	00097352 	andeq	r7, r9, r2, asr r3
    1a94:	000ad400 	andeq	sp, sl, r0, lsl #8
    1a98:	56000100 	strpl	r0, [r0], -r0, lsl #2
	...
    1aa4:	00000958 	andeq	r0, r0, r8, asr r9
    1aa8:	00000a44 	andeq	r0, r0, r4, asr #20
    1aac:	9f300002 	svcls	0x00300002
    1ab0:	00000a44 	andeq	r0, r0, r4, asr #20
    1ab4:	00000a48 	andeq	r0, r0, r8, asr #20
    1ab8:	ea0a0007 	b	281adc <_back_addr-0x127e524>
    1abc:	1c007403 	cfstrsne	mvf7, [r0], {3}
    1ac0:	000a489f 	muleq	sl, pc, r8	; <UNPREDICTABLE>
    1ac4:	000a4c00 	andeq	r4, sl, r0, lsl #24
    1ac8:	0a000700 	beq	36d0 <_back_addr-0x14fc930>
    1acc:	007403e9 	rsbseq	r0, r4, r9, ror #7
    1ad0:	0a4c9f1c 	beq	1329748 <_back_addr-0x1d68b8>
    1ad4:	0a600000 	beq	1801adc <__bss_end__+0x2ee0c4>
    1ad8:	00070000 	andeq	r0, r7, r0
    1adc:	7403ea0a 	strvc	lr, [r3], #-2570	; 0xa0a
    1ae0:	a49f1c00 	ldrge	r1, [pc], #3072	; 1ae8 <_back_addr-0x14fe518>
    1ae4:	bc00000a 	stclt	0, cr0, [r0], {10}
    1ae8:	0700000a 	streq	r0, [r0, -sl]
    1aec:	03e90a00 	mvneq	r0, #0, 20
    1af0:	9f1c0074 	svcls	0x001c0074
    1af4:	00000abc 			; <UNDEFINED> instruction: 0x00000abc
    1af8:	00000ad4 	ldrdeq	r0, [r0], -r4
    1afc:	9f300002 	svcls	0x00300002
	...
    1b08:	00000a20 	andeq	r0, r0, r0, lsr #20
    1b0c:	00000a24 	andeq	r0, r0, r4, lsr #20
    1b10:	80740025 	rsbshi	r0, r4, r5, lsr #32
    1b14:	24480604 	strbcs	r0, [r8], #-1540	; 0x604
    1b18:	06048074 			; <UNDEFINED> instruction: 0x06048074
    1b1c:	74212548 	strtvc	r2, [r1], #-1352	; 0x548
    1b20:	08060480 	stmdaeq	r6, {r7, sl}
    1b24:	1a2440ff 	bne	911f28 <_back_addr-0xbee0d8>
    1b28:	74212538 	strtvc	r2, [r1], #-1336	; 0x538
    1b2c:	0a060480 	beq	182d34 <_back_addr-0x137d2cc>
    1b30:	381aff00 	ldmdacc	sl, {r8, r9, sl, fp, ip, sp, lr, pc}
    1b34:	009f2124 	addseq	r2, pc, r4, lsr #2
    1b38:	00000000 	andeq	r0, r0, r0
    1b3c:	20000000 	andcs	r0, r0, r0
    1b40:	bc00000a 	stclt	0, cr0, [r0], {10}
    1b44:	0600000a 	streq	r0, [r0], -sl
    1b48:	84049e00 	strhi	r9, [r4], #-3584	; 0xe00
    1b4c:	009804cf 	addseq	r0, r8, pc, asr #9
    1b50:	00000000 	andeq	r0, r0, r0
    1b54:	24000000 	strcs	r0, [r0], #-0
    1b58:	bc00000a 	stclt	0, cr0, [r0], {10}
    1b5c:	0600000a 	streq	r0, [r0], -sl
    1b60:	88049e00 	stmdahi	r4, {r9, sl, fp, ip, pc}
    1b64:	009804cf 	addseq	r0, r8, pc, asr #9
    1b68:	00000000 	andeq	r0, r0, r0
    1b6c:	2c000000 	stccs	0, cr0, [r0], {-0}
    1b70:	3400000a 	strcc	r0, [r0], #-10
    1b74:	0100000a 	tsteq	r0, sl
    1b78:	0a345300 	beq	d16780 <_back_addr-0x7e9880>
    1b7c:	0a440000 	beq	1101b84 <_back_addr-0x3fe47c>
    1b80:	00030000 	andeq	r0, r3, r0
    1b84:	001f8875 	andseq	r8, pc, r5, ror r8	; <UNPREDICTABLE>
    1b88:	00000000 	andeq	r0, r0, r0
    1b8c:	2c000000 	stccs	0, cr0, [r0], {-0}
    1b90:	bc00000a 	stclt	0, cr0, [r0], {10}
    1b94:	0600000a 	streq	r0, [r0], -sl
    1b98:	88049e00 	stmdahi	r4, {r9, sl, fp, ip, pc}
    1b9c:	009804cf 	addseq	r0, r8, pc, asr #9
    1ba0:	00000000 	andeq	r0, r0, r0
    1ba4:	30000000 	andcc	r0, r0, r0
    1ba8:	bc00000a 	stclt	0, cr0, [r0], {10}
    1bac:	0600000a 	streq	r0, [r0], -sl
    1bb0:	0c049e00 	stceq	14, cr9, [r4], {-0}
    1bb4:	009804cf 	addseq	r0, r8, pc, asr #9
    1bb8:	00000000 	andeq	r0, r0, r0
    1bbc:	d4000000 	strle	r0, [r0], #-0
    1bc0:	e400000a 	str	r0, [r0], #-10
    1bc4:	0100000a 	tsteq	r0, sl
    1bc8:	0ae45000 	beq	ff915bd0 <__bss_end__+0xfe4021b8>
    1bcc:	0ae80000 	beq	ffa01bd4 <__bss_end__+0xfe4ee1bc>
    1bd0:	00040000 	andeq	r0, r4, r0
    1bd4:	9f5001f3 	svcls	0x005001f3
    1bd8:	00000ae8 	andeq	r0, r0, r8, ror #21
    1bdc:	00000aff 	strdeq	r0, [r0], -pc	; <UNPREDICTABLE>
    1be0:	ff500001 			; <UNDEFINED> instruction: 0xff500001
    1be4:	6c00000a 	stcvs	0, cr0, [r0], {10}
    1be8:	0100000b 	tsteq	r0, fp
    1bec:	0b6c5600 	bleq	1b173f4 <__bss_end__+0x6039dc>
    1bf0:	0b6f0000 	bleq	1bc1bf8 <__bss_end__+0x6ae1e0>
    1bf4:	00020000 	andeq	r0, r2, r0
    1bf8:	0b6f2c70 	bleq	1bccdc0 <__bss_end__+0x6b93a8>
    1bfc:	0b700000 	bleq	1c01c04 <__bss_end__+0x6ee1ec>
    1c00:	00040000 	andeq	r0, r4, r0
    1c04:	9f5001f3 	svcls	0x005001f3
    1c08:	00000b70 	andeq	r0, r0, r0, ror fp
    1c0c:	00000bdc 	ldrdeq	r0, [r0], -ip
    1c10:	00560001 	subseq	r0, r6, r1
    1c14:	00000000 	andeq	r0, r0, r0
    1c18:	d4000000 	strle	r0, [r0], #-0
    1c1c:	ff00000a 			; <UNDEFINED> instruction: 0xff00000a
    1c20:	0100000a 	tsteq	r0, sl
    1c24:	0aff5100 	beq	fffd602c <__bss_end__+0xfeac2614>
    1c28:	0b6c0000 	bleq	1b01c30 <__bss_end__+0x5ee218>
    1c2c:	00010000 	andeq	r0, r1, r0
    1c30:	000b6c55 	andeq	r6, fp, r5, asr ip
    1c34:	000b6f00 	andeq	r6, fp, r0, lsl #30
    1c38:	70000200 	andvc	r0, r0, r0, lsl #4
    1c3c:	000b6f34 	andeq	r6, fp, r4, lsr pc
    1c40:	000b7000 	andeq	r7, fp, r0
    1c44:	f3000400 	vshl.u8	d0, d0, d0
    1c48:	709f5101 	addsvc	r5, pc, r1, lsl #2
    1c4c:	dc00000b 	stcle	0, cr0, [r0], {11}
    1c50:	0100000b 	tsteq	r0, fp
    1c54:	00005500 	andeq	r5, r0, r0, lsl #10
    1c58:	00000000 	andeq	r0, r0, r0
    1c5c:	0ad40000 	beq	ff501c64 <__bss_end__+0xfdfee24c>
    1c60:	0aff0000 	beq	fffc1c68 <__bss_end__+0xfeaae250>
    1c64:	00010000 	andeq	r0, r1, r0
    1c68:	000aff52 	andeq	pc, sl, r2, asr pc	; <UNPREDICTABLE>
    1c6c:	000b6c00 	andeq	r6, fp, r0, lsl #24
    1c70:	57000100 	strpl	r0, [r0, -r0, lsl #2]
    1c74:	00000b6c 	andeq	r0, r0, ip, ror #22
    1c78:	00000b6f 	andeq	r0, r0, pc, ror #22
    1c7c:	30700002 	rsbscc	r0, r0, r2
    1c80:	00000b6f 	andeq	r0, r0, pc, ror #22
    1c84:	00000b70 	andeq	r0, r0, r0, ror fp
    1c88:	01f30004 	mvnseq	r0, r4
    1c8c:	0b709f52 	bleq	1c299dc <__bss_end__+0x715fc4>
    1c90:	0bdc0000 	bleq	ff701c98 <__bss_end__+0xfe1ee280>
    1c94:	00010000 	andeq	r0, r1, r0
    1c98:	00000057 	andeq	r0, r0, r7, asr r0
    1c9c:	00000000 	andeq	r0, r0, r0
    1ca0:	000ad400 	andeq	sp, sl, r0, lsl #8
    1ca4:	000aff00 	andeq	pc, sl, r0, lsl #30
    1ca8:	53000100 	movwpl	r0, #256	; 0x100
    1cac:	00000aff 	strdeq	r0, [r0], -pc	; <UNPREDICTABLE>
    1cb0:	00000b6c 	andeq	r0, r0, ip, ror #22
    1cb4:	6c540001 	mrrcvs	0, 0, r0, r4, cr1
    1cb8:	7000000b 	andvc	r0, r0, fp
    1cbc:	0400000b 	streq	r0, [r0], #-11
    1cc0:	5301f300 	movwpl	pc, #4864	; 0x1300	; <UNPREDICTABLE>
    1cc4:	000b709f 	muleq	fp, pc, r0	; <UNPREDICTABLE>
    1cc8:	000bdc00 	andeq	sp, fp, r0, lsl #24
    1ccc:	54000100 	strpl	r0, [r0], #-256	; 0x100
	...
    1cd8:	00000b00 	andeq	r0, r0, r0, lsl #22
    1cdc:	00000b60 	andeq	r0, r0, r0, ror #22
    1ce0:	60500001 	subsvs	r0, r0, r1
    1ce4:	6f00000b 	svcvs	0x0000000b
    1ce8:	0100000b 	tsteq	r0, fp
    1cec:	0b705c00 	bleq	1c18cf4 <__bss_end__+0x7052dc>
    1cf0:	0b740000 	bleq	1d01cf8 <__bss_end__+0x7ee2e0>
    1cf4:	00010000 	andeq	r0, r1, r0
    1cf8:	000b7450 	andeq	r7, fp, r0, asr r4
    1cfc:	000b7800 	andeq	r7, fp, r0, lsl #16
    1d00:	5c000100 	stfpls	f0, [r0], {-0}
    1d04:	00000b78 	andeq	r0, r0, r8, ror fp
    1d08:	00000bdc 	ldrdeq	r0, [r0], -ip
    1d0c:	00500001 	subseq	r0, r0, r1
    1d10:	00000000 	andeq	r0, r0, r0
    1d14:	dc000000 	stcle	0, cr0, [r0], {-0}
    1d18:	e800000b 	stmda	r0, {r0, r1, r3}
    1d1c:	0100000b 	tsteq	r0, fp
    1d20:	0be85000 	bleq	ffa15d28 <__bss_end__+0xfe502310>
    1d24:	0c040000 	stceq	0, cr0, [r4], {-0}
    1d28:	00040000 	andeq	r0, r4, r0
    1d2c:	9f7f807c 	svcls	0x007f807c
	...
    1d38:	00000bdc 	ldrdeq	r0, [r0], -ip
    1d3c:	00000be8 	andeq	r0, r0, r8, ror #23
    1d40:	9f300002 	svcls	0x00300002
    1d44:	00000be8 	andeq	r0, r0, r8, ror #23
    1d48:	00000bf0 	strdeq	r0, [r0], -r0	; <UNPREDICTABLE>
    1d4c:	00720009 	rsbseq	r0, r2, r9
    1d50:	231c007c 	tstcs	ip, #124	; 0x7c
    1d54:	f09f0181 			; <UNDEFINED> instruction: 0xf09f0181
    1d58:	fc00000b 	stc2	0, cr0, [r0], {11}
    1d5c:	0900000b 	stmdbeq	r0, {r0, r1, r3}
    1d60:	7c007200 	sfmvc	f7, 4, [r0], {-0}
    1d64:	80231c00 	eorhi	r1, r3, r0, lsl #24
    1d68:	0bfc9f01 	bleq	fff29974 <__bss_end__+0xfea15f5c>
    1d6c:	0c040000 	stceq	0, cr0, [r4], {-0}
    1d70:	00090000 	andeq	r0, r9, r0
    1d74:	007c0072 	rsbseq	r0, ip, r2, ror r0
    1d78:	0181231c 	orreq	r2, r1, ip, lsl r3
    1d7c:	0000009f 	muleq	r0, pc, r0	; <UNPREDICTABLE>
	...
    1d88:	00001800 	andeq	r1, r0, r0, lsl #16
    1d8c:	50000100 	andpl	r0, r0, r0, lsl #2
    1d90:	00000018 	andeq	r0, r0, r8, lsl r0
    1d94:	000001bc 			; <UNDEFINED> instruction: 0x000001bc
    1d98:	01f30004 	mvnseq	r0, r4
    1d9c:	00009f50 	andeq	r9, r0, r0, asr pc
	...
    1da8:	00140000 	andseq	r0, r4, r0
    1dac:	00010000 	andeq	r0, r1, r0
    1db0:	00001451 	andeq	r1, r0, r1, asr r4
    1db4:	0001bc00 	andeq	fp, r1, r0, lsl #24
    1db8:	56000100 	strpl	r0, [r0], -r0, lsl #2
	...
    1dc8:	00000027 	andeq	r0, r0, r7, lsr #32
    1dcc:	27520001 	ldrbcs	r0, [r2, -r1]
    1dd0:	bc000000 	stclt	0, cr0, [r0], {-0}
    1dd4:	01000001 	tsteq	r0, r1
    1dd8:	00005500 	andeq	r5, r0, r0, lsl #10
	...
    1de4:	00d40000 	sbcseq	r0, r4, r0
    1de8:	00020000 	andeq	r0, r2, r0
    1dec:	01589f30 	cmpeq	r8, r0, lsr pc
    1df0:	01ac0000 			; <UNDEFINED> instruction: 0x01ac0000
    1df4:	00020000 	andeq	r0, r2, r0
    1df8:	00009f30 	andeq	r9, r0, r0, lsr pc
    1dfc:	00000000 	andeq	r0, r0, r0
    1e00:	01bc0000 			; <UNDEFINED> instruction: 0x01bc0000
    1e04:	01dc0000 	bicseq	r0, ip, r0
    1e08:	00010000 	andeq	r0, r1, r0
    1e0c:	0001dc50 	andeq	sp, r1, r0, asr ip
    1e10:	0002ac00 	andeq	sl, r2, r0, lsl #24
    1e14:	56000100 	strpl	r0, [r0], -r0, lsl #2
	...
    1e20:	000001bc 			; <UNDEFINED> instruction: 0x000001bc
    1e24:	000001dc 	ldrdeq	r0, [r0], -ip
    1e28:	dc510001 	mrrcle	0, 0, r0, r1, cr1
    1e2c:	ac000001 	stcge	0, cr0, [r0], {1}
    1e30:	01000002 	tsteq	r0, r2
    1e34:	00005700 	andeq	r5, r0, r0, lsl #14
    1e38:	00000000 	andeq	r0, r0, r0
    1e3c:	01bc0000 			; <UNDEFINED> instruction: 0x01bc0000
    1e40:	01dc0000 	bicseq	r0, ip, r0
    1e44:	00010000 	andeq	r0, r1, r0
    1e48:	0001dc52 	andeq	sp, r1, r2, asr ip
    1e4c:	0002ac00 	andeq	sl, r2, r0, lsl #24
    1e50:	55000100 	strpl	r0, [r0, #-256]	; 0x100
	...
    1e5c:	000001bc 			; <UNDEFINED> instruction: 0x000001bc
    1e60:	000001dc 	ldrdeq	r0, [r0], -ip
    1e64:	9f300002 	svcls	0x00300002
    1e68:	00000234 	andeq	r0, r0, r4, lsr r2
    1e6c:	0000025c 	andeq	r0, r0, ip, asr r2
    1e70:	9f300002 	svcls	0x00300002
	...
    1e7c:	000002ac 	andeq	r0, r0, ip, lsr #5
    1e80:	000002ec 	andeq	r0, r0, ip, ror #5
    1e84:	ec500001 	mrrc	0, 0, r0, r0, cr1	; <UNPREDICTABLE>
    1e88:	bc000002 	stclt	0, cr0, [r0], {2}
    1e8c:	01000003 	tsteq	r0, r3
    1e90:	03bc5400 			; <UNDEFINED> instruction: 0x03bc5400
    1e94:	03c40000 	biceq	r0, r4, #0
    1e98:	00040000 	andeq	r0, r4, r0
    1e9c:	9f5001f3 	svcls	0x005001f3
    1ea0:	000003c4 	andeq	r0, r0, r4, asr #7
    1ea4:	000003dc 	ldrdeq	r0, [r0], -ip
    1ea8:	dc540001 	mrrcle	0, 0, r0, r4, cr1
    1eac:	08000003 	stmdaeq	r0, {r0, r1}
    1eb0:	04000006 	streq	r0, [r0], #-6
    1eb4:	5001f300 	andpl	pc, r1, r0, lsl #6
    1eb8:	0006089f 	muleq	r6, pc, r8	; <UNPREDICTABLE>
    1ebc:	00063c00 	andeq	r3, r6, r0, lsl #24
    1ec0:	54000100 	strpl	r0, [r0], #-256	; 0x100
    1ec4:	0000063c 	andeq	r0, r0, ip, lsr r6
    1ec8:	00000930 	andeq	r0, r0, r0, lsr r9
    1ecc:	01f30004 	mvnseq	r0, r4
    1ed0:	00009f50 	andeq	r9, r0, r0, asr pc
    1ed4:	00000000 	andeq	r0, r0, r0
    1ed8:	02ac0000 	adceq	r0, ip, #0
    1edc:	03040000 	movweq	r0, #16384	; 0x4000
    1ee0:	00010000 	andeq	r0, r1, r0
    1ee4:	00030451 	andeq	r0, r3, r1, asr r4
    1ee8:	00093000 	andeq	r3, r9, r0
    1eec:	59000100 	stmdbpl	r0, {r8}
	...
    1ef8:	000002ac 	andeq	r0, r0, ip, lsr #5
    1efc:	00000308 	andeq	r0, r0, r8, lsl #6
    1f00:	08520001 	ldmdaeq	r2, {r0}^
    1f04:	30000003 	andcc	r0, r0, r3
    1f08:	01000009 	tsteq	r0, r9
    1f0c:	00005a00 	andeq	r5, r0, r0, lsl #20
    1f10:	00000000 	andeq	r0, r0, r0
    1f14:	02ac0000 	adceq	r0, ip, #0
    1f18:	03100000 	tsteq	r0, #0
    1f1c:	00010000 	andeq	r0, r1, r0
    1f20:	00031053 	andeq	r1, r3, r3, asr r0
    1f24:	00093000 	andeq	r3, r9, r0
    1f28:	5b000100 	blpl	2330 <_back_addr-0x14fdcd0>
	...
    1f34:	000002ac 	andeq	r0, r0, ip, lsr #5
    1f38:	000003bc 			; <UNDEFINED> instruction: 0x000003bc
    1f3c:	04910002 	ldreq	r0, [r1], #2
    1f40:	000003c4 	andeq	r0, r0, r4, asr #7
    1f44:	000003dc 	ldrdeq	r0, [r0], -ip
    1f48:	04910002 	ldreq	r0, [r1], #2
    1f4c:	000003dc 	ldrdeq	r0, [r0], -ip
    1f50:	00000608 	andeq	r0, r0, r8, lsl #12
    1f54:	08540001 	ldmdaeq	r4, {r0}^
    1f58:	40000006 	andmi	r0, r0, r6
    1f5c:	02000006 	andeq	r0, r0, #6
    1f60:	40049100 	andmi	r9, r4, r0, lsl #2
    1f64:	24000006 	strcs	r0, [r0], #-6
    1f68:	01000009 	tsteq	r0, r9
    1f6c:	09245400 	stmdbeq	r4!, {sl, ip, lr}
    1f70:	09300000 	ldmdbeq	r0!, {}	; <UNPREDICTABLE>
    1f74:	00070000 	andeq	r0, r7, r0
    1f78:	09067c91 	stmdbeq	r6, {r0, r4, r7, sl, fp, ip, sp, lr}
    1f7c:	009f1af0 			; <UNDEFINED> instruction: 0x009f1af0
    1f80:	00000000 	andeq	r0, r0, r0
    1f84:	ac000000 	stcge	0, cr0, [r0], {-0}
    1f88:	bc000002 	stclt	0, cr0, [r0], {2}
    1f8c:	02000003 	andeq	r0, r0, #3
    1f90:	c49f3100 	ldrgt	r3, [pc], #256	; 1f98 <_back_addr-0x14fe068>
    1f94:	f8000003 			; <UNDEFINED> instruction: 0xf8000003
    1f98:	02000003 	andeq	r0, r0, #3
    1f9c:	f09f3100 			; <UNDEFINED> instruction: 0xf09f3100
    1fa0:	f3000005 	vhadd.u8	d0, d0, d5
    1fa4:	01000005 	tsteq	r0, r5
    1fa8:	05f35000 	ldrbeq	r5, [r3, #0]!
    1fac:	06080000 	streq	r0, [r8], -r0
    1fb0:	00010000 	andeq	r0, r1, r0
    1fb4:	00060856 	andeq	r0, r6, r6, asr r8
    1fb8:	0006d400 	andeq	sp, r6, r0, lsl #8
    1fbc:	31000200 	mrscc	r0, R8_usr
    1fc0:	0008149f 	muleq	r8, pc, r4	; <UNPREDICTABLE>
    1fc4:	00081c00 	andeq	r1, r8, r0, lsl #24
    1fc8:	50000100 	andpl	r0, r0, r0, lsl #2
    1fcc:	0000081c 	andeq	r0, r0, ip, lsl r8
    1fd0:	00000830 	andeq	r0, r0, r0, lsr r8
    1fd4:	30570001 	subscc	r0, r7, r1
    1fd8:	44000008 	strmi	r0, [r0], #-8
    1fdc:	01000008 	tsteq	r0, r8
    1fe0:	08745600 	ldmdaeq	r4!, {r9, sl, ip, lr}^
    1fe4:	08770000 	ldmdaeq	r7!, {}^	; <UNPREDICTABLE>
    1fe8:	00010000 	andeq	r0, r1, r0
    1fec:	00087750 	andeq	r7, r8, r0, asr r7
    1ff0:	00089400 	andeq	r9, r8, r0, lsl #8
    1ff4:	56000100 	strpl	r0, [r0], -r0, lsl #2
    1ff8:	000008c4 	andeq	r0, r0, r4, asr #17
    1ffc:	000008c7 	andeq	r0, r0, r7, asr #17
    2000:	c7500001 	ldrbgt	r0, [r0, -r1]
    2004:	24000008 	strcs	r0, [r0], #-8
    2008:	01000009 	tsteq	r0, r9
    200c:	09245500 	stmdbeq	r4!, {r8, sl, ip, lr}
    2010:	09270000 	stmdbeq	r7!, {}	; <UNPREDICTABLE>
    2014:	00010000 	andeq	r0, r1, r0
    2018:	00092750 	andeq	r2, r9, r0, asr r7
    201c:	00093000 	andeq	r3, r9, r0
    2020:	54000100 	strpl	r0, [r0], #-256	; 0x100
	...
    202c:	00000314 	andeq	r0, r0, r4, lsl r3
    2030:	00000340 	andeq	r0, r0, r0, asr #6
    2034:	9f300002 	svcls	0x00300002
    2038:	00000340 	andeq	r0, r0, r0, asr #6
    203c:	000003bc 			; <UNDEFINED> instruction: 0x000003bc
    2040:	c4550001 	ldrbgt	r0, [r5], #-1
    2044:	08000003 	stmdaeq	r0, {r0, r1}
    2048:	01000006 	tsteq	r0, r6
    204c:	06085500 	streq	r5, [r8], -r0, lsl #10
    2050:	06280000 	strteq	r0, [r8], -r0
    2054:	00010000 	andeq	r0, r1, r0
    2058:	00062859 	andeq	r2, r6, r9, asr r8
    205c:	0008c400 	andeq	ip, r8, r0, lsl #8
    2060:	55000100 	strpl	r0, [r0, #-256]	; 0x100
	...
    206c:	00000930 	andeq	r0, r0, r0, lsr r9
    2070:	00000b4c 	andeq	r0, r0, ip, asr #22
    2074:	9f300002 	svcls	0x00300002
    2078:	00000b4c 	andeq	r0, r0, ip, asr #22
    207c:	00000b90 	muleq	r0, r0, fp
    2080:	74350005 	ldrtvc	r0, [r5], #-5
    2084:	909f1c00 	addsls	r1, pc, r0, lsl #24
    2088:	9400000b 	strls	r0, [r0], #-11
    208c:	0500000b 	streq	r0, [r0, #-11]
    2090:	00743600 	rsbseq	r3, r4, r0, lsl #12
    2094:	0b949f1c 	bleq	fe529d0c <__bss_end__+0xfd0162f4>
    2098:	0ba40000 	bleq	fe9020a0 <__bss_end__+0xfd3ee688>
    209c:	00050000 	andeq	r0, r5, r0
    20a0:	1c007435 	cfstrsne	mvf7, [r0], {53}	; 0x35
    20a4:	000be49f 	muleq	fp, pc, r4	; <UNPREDICTABLE>
    20a8:	000bf400 	andeq	pc, fp, r0, lsl #8
    20ac:	35000500 	strcc	r0, [r0, #-1280]	; 0x500
    20b0:	9f1c0074 	svcls	0x001c0074
	...
    20c0:	0000000c 	andeq	r0, r0, ip
    20c4:	0c500001 	mrrceq	0, 0, r0, r0, cr1	; <UNPREDICTABLE>
    20c8:	10000000 	andne	r0, r0, r0
    20cc:	04000000 	streq	r0, [r0], #-0
    20d0:	5001f300 	andpl	pc, r1, r0, lsl #6
    20d4:	0000109f 	muleq	r0, pc, r0	; <UNPREDICTABLE>
    20d8:	00002c00 	andeq	r2, r0, r0, lsl #24
    20dc:	50000100 	andpl	r0, r0, r0, lsl #2
    20e0:	0000002c 	andeq	r0, r0, ip, lsr #32
    20e4:	00000048 	andeq	r0, r0, r8, asr #32
    20e8:	7f700003 	svcvc	0x00700003
    20ec:	0000489f 	muleq	r0, pc, r8	; <UNPREDICTABLE>
    20f0:	00005800 	andeq	r5, r0, r0, lsl #16
    20f4:	f3000400 	vshl.u8	d0, d0, d0
    20f8:	009f5001 	addseq	r5, pc, r1
    20fc:	00000000 	andeq	r0, r0, r0
    2100:	10000000 	andne	r0, r0, r0
    2104:	2c000000 	stccs	0, cr0, [r0], {-0}
    2108:	01000000 	mrseq	r0, (UNDEF: 0)
    210c:	002c5000 	eoreq	r5, ip, r0
    2110:	00480000 	subeq	r0, r8, r0
    2114:	00030000 	andeq	r0, r3, r0
    2118:	489f7f70 	ldmmi	pc, {r4, r5, r6, r8, r9, sl, fp, ip, sp, lr}	; <UNPREDICTABLE>
    211c:	58000000 	stmdapl	r0, {}	; <UNPREDICTABLE>
    2120:	04000000 	streq	r0, [r0], #-0
    2124:	5001f300 	andpl	pc, r1, r0, lsl #6
    2128:	0000009f 	muleq	r0, pc, r0	; <UNPREDICTABLE>
    212c:	00000000 	andeq	r0, r0, r0
    2130:	00005800 	andeq	r5, r0, r0, lsl #16
    2134:	00007000 	andeq	r7, r0, r0
    2138:	50000100 	andpl	r0, r0, r0, lsl #2
    213c:	00000070 	andeq	r0, r0, r0, ror r0
    2140:	00000084 	andeq	r0, r0, r4, lsl #1
    2144:	01f30004 	mvnseq	r0, r4
    2148:	00009f50 	andeq	r9, r0, r0, asr pc
    214c:	00000000 	andeq	r0, r0, r0
    2150:	00840000 	addeq	r0, r4, r0
    2154:	00900000 	addseq	r0, r0, r0
    2158:	00010000 	andeq	r0, r1, r0
    215c:	00009050 	andeq	r9, r0, r0, asr r0
    2160:	00009400 	andeq	r9, r0, r0, lsl #8
    2164:	f3000400 	vshl.u8	d0, d0, d0
    2168:	949f5001 	ldrls	r5, [pc], #1	; 2170 <_back_addr-0x14fde90>
    216c:	a0000000 	andge	r0, r0, r0
    2170:	01000000 	mrseq	r0, (UNDEF: 0)
    2174:	00a05000 	adceq	r5, r0, r0
    2178:	00b40000 	adcseq	r0, r4, r0
    217c:	00040000 	andeq	r0, r4, r0
    2180:	9f5001f3 	svcls	0x005001f3
	...
    218c:	00000094 	muleq	r0, r4, r0
    2190:	000000a0 	andeq	r0, r0, r0, lsr #1
    2194:	a0500001 	subsge	r0, r0, r1
    2198:	ac000000 	stcge	0, cr0, [r0], {-0}
    219c:	03000000 	movweq	r0, #0
    21a0:	9f7f7000 	svcls	0x007f7000
    21a4:	000000ac 	andeq	r0, r0, ip, lsr #1
    21a8:	000000b4 	strheq	r0, [r0], -r4
    21ac:	01f30004 	mvnseq	r0, r4
    21b0:	00009f50 	andeq	r9, r0, r0, asr pc
    21b4:	00000000 	andeq	r0, r0, r0
    21b8:	00b40000 	adcseq	r0, r4, r0
    21bc:	00c80000 	sbceq	r0, r8, r0
    21c0:	00010000 	andeq	r0, r1, r0
    21c4:	0000c850 	andeq	ip, r0, r0, asr r8
    21c8:	00011000 	andeq	r1, r1, r0
    21cc:	f3000400 	vshl.u8	d0, d0, d0
    21d0:	009f5001 	addseq	r5, pc, r1
    21d4:	00000000 	andeq	r0, r0, r0
    21d8:	b4000000 	strlt	r0, [r0], #-0
    21dc:	ec000000 	stc	0, cr0, [r0], {-0}
    21e0:	02000000 	andeq	r0, r0, #0
    21e4:	ec9f3000 	ldc	0, cr3, [pc], {0}
    21e8:	10000000 	andne	r0, r0, r0
    21ec:	01000001 	tsteq	r0, r1
    21f0:	00005100 	andeq	r5, r0, r0, lsl #2
    21f4:	00000000 	andeq	r0, r0, r0
    21f8:	01100000 	tsteq	r0, r0
    21fc:	01200000 	teqeq	r0, r0
    2200:	00010000 	andeq	r0, r1, r0
    2204:	00012050 	andeq	r2, r1, r0, asr r0
    2208:	00016800 	andeq	r6, r1, r0, lsl #16
    220c:	f3000400 	vshl.u8	d0, d0, d0
    2210:	009f5001 	addseq	r5, pc, r1
    2214:	00000000 	andeq	r0, r0, r0
    2218:	10000000 	andne	r0, r0, r0
    221c:	44000001 	strmi	r0, [r0], #-1
    2220:	02000001 	andeq	r0, r0, #1
    2224:	449f3000 	ldrmi	r3, [pc], #0	; 222c <_back_addr-0x14fddd4>
    2228:	68000001 	stmdavs	r0, {r0}
    222c:	01000001 	tsteq	r0, r1
    2230:	00005100 	andeq	r5, r0, r0, lsl #2
    2234:	00000000 	andeq	r0, r0, r0
    2238:	002c0000 	eoreq	r0, ip, r0
    223c:	003c0000 	eorseq	r0, ip, r0
    2240:	00090000 	andeq	r0, r9, r0
    2244:	ff110072 			; <UNDEFINED> instruction: 0xff110072
    2248:	1a78809f 	bne	1e224cc <__bss_end__+0x90eab4>
    224c:	0000009f 	muleq	r0, pc, r0	; <UNPREDICTABLE>
    2250:	00000000 	andeq	r0, r0, r0
    2254:	00009800 	andeq	r9, r0, r0, lsl #16
    2258:	0000b400 	andeq	fp, r0, r0, lsl #8
    225c:	50000100 	andpl	r0, r0, r0, lsl #2
    2260:	000000b4 	strheq	r0, [r0], -r4
    2264:	000000d8 	ldrdeq	r0, [r0], -r8
    2268:	01700003 	cmneq	r0, r3
    226c:	0000d89f 	muleq	r0, pc, r8	; <UNPREDICTABLE>
    2270:	0000e400 	andeq	lr, r0, r0, lsl #8
    2274:	50000100 	andpl	r0, r0, r0, lsl #2
    2278:	000000e4 	andeq	r0, r0, r4, ror #1
    227c:	00000100 	andeq	r0, r0, r0, lsl #2
    2280:	01700003 	cmneq	r0, r3
    2284:	0000009f 	muleq	r0, pc, r0	; <UNPREDICTABLE>
    2288:	00000000 	andeq	r0, r0, r0
    228c:	0000b400 	andeq	fp, r0, r0, lsl #8
    2290:	0000c000 	andeq	ip, r0, r0
    2294:	53000100 	movwpl	r0, #256	; 0x100
    2298:	000000f8 	strdeq	r0, [r0], -r8
    229c:	000000fc 	strdeq	r0, [r0], -ip
    22a0:	9f3a0002 	svcls	0x003a0002
	...
    22ac:	00000100 	andeq	r0, r0, r0, lsl #2
    22b0:	00000128 	andeq	r0, r0, r8, lsr #2
    22b4:	28500001 	ldmdacs	r0, {r0}^
    22b8:	58000001 	stmdapl	r0, {r0}
    22bc:	01000001 	tsteq	r0, r1
    22c0:	01585500 	cmpeq	r8, r0, lsl #10
    22c4:	015c0000 	cmpeq	ip, r0
    22c8:	00040000 	andeq	r0, r4, r0
    22cc:	9f5001f3 	svcls	0x005001f3
    22d0:	0000015c 	andeq	r0, r0, ip, asr r1
    22d4:	00000160 	andeq	r0, r0, r0, ror #2
    22d8:	00500001 	subseq	r0, r0, r1
	...
    22e4:	28000001 	stmdacs	r0, {r0}
    22e8:	01000001 	tsteq	r0, r1
    22ec:	01285100 	teqeq	r8, r0, lsl #2
    22f0:	01580000 	cmpeq	r8, r0
    22f4:	00010000 	andeq	r0, r1, r0
    22f8:	00015856 	andeq	r5, r1, r6, asr r8
    22fc:	00015c00 	andeq	r5, r1, r0, lsl #24
    2300:	f3000400 	vshl.u8	d0, d0, d0
    2304:	5c9f5101 	ldfpls	f5, [pc], {1}
    2308:	60000001 	andvs	r0, r0, r1
    230c:	01000001 	tsteq	r0, r1
    2310:	00005100 	andeq	r5, r0, r0, lsl #2
    2314:	00000000 	andeq	r0, r0, r0
    2318:	01000000 	mrseq	r0, (UNDEF: 0)
    231c:	01280000 	teqeq	r8, r0
    2320:	00010000 	andeq	r0, r1, r0
    2324:	00012852 	andeq	r2, r1, r2, asr r8
    2328:	00015800 	andeq	r5, r1, r0, lsl #16
    232c:	57000100 	strpl	r0, [r0, -r0, lsl #2]
    2330:	00000158 	andeq	r0, r0, r8, asr r1
    2334:	0000015c 	andeq	r0, r0, ip, asr r1
    2338:	01f30004 	mvnseq	r0, r4
    233c:	015c9f52 	cmpeq	ip, r2, asr pc
    2340:	01600000 	cmneq	r0, r0
    2344:	00010000 	andeq	r0, r1, r0
    2348:	00000052 	andeq	r0, r0, r2, asr r0
    234c:	00000000 	andeq	r0, r0, r0
    2350:	00010000 	andeq	r0, r1, r0
    2354:	00012800 	andeq	r2, r1, r0, lsl #16
    2358:	30000200 	andcc	r0, r0, r0, lsl #4
    235c:	0001289f 	muleq	r1, pc, r8	; <UNPREDICTABLE>
    2360:	00012c00 	andeq	r2, r1, r0, lsl #24
    2364:	0a000700 	beq	3f6c <_back_addr-0x14fc094>
    2368:	00740bba 	ldrhteq	r0, [r4], #-186	; 0xffffff46
    236c:	012c9f1c 	teqeq	ip, ip, lsl pc
    2370:	01300000 	teqeq	r0, r0
    2374:	00070000 	andeq	r0, r7, r0
    2378:	740bb90a 	strvc	fp, [fp], #-2314	; 0x90a
    237c:	309f1c00 	addscc	r1, pc, r0, lsl #24
    2380:	4c000001 	stcmi	0, cr0, [r0], {1}
    2384:	07000001 	streq	r0, [r0, -r1]
    2388:	0bba0a00 	bleq	fee84b90 <__bss_end__+0xfd971178>
    238c:	9f1c0074 	svcls	0x001c0074
    2390:	0000014c 	andeq	r0, r0, ip, asr #2
    2394:	00000158 	andeq	r0, r0, r8, asr r1
    2398:	b90a0007 	stmdblt	sl, {r0, r1, r2}
    239c:	1c00740b 	cfstrsne	mvf7, [r0], {11}
    23a0:	00015c9f 	muleq	r1, pc, ip	; <UNPREDICTABLE>
    23a4:	00016000 	andeq	r6, r1, r0
    23a8:	30000200 	andcc	r0, r0, r0, lsl #4
    23ac:	0000009f 	muleq	r0, pc, r0	; <UNPREDICTABLE>
    23b0:	00000000 	andeq	r0, r0, r0
    23b4:	00016000 	andeq	r6, r1, r0
    23b8:	00016c00 	andeq	r6, r1, r0, lsl #24
    23bc:	51000100 	mrspl	r0, (UNDEF: 16)
    23c0:	0000016c 	andeq	r0, r0, ip, ror #2
    23c4:	000001b0 			; <UNDEFINED> instruction: 0x000001b0
    23c8:	00510001 	subseq	r0, r1, r1
    23cc:	00000000 	andeq	r0, r0, r0
    23d0:	7c000000 	stcvc	0, cr0, [r0], {-0}
    23d4:	8c000001 	stchi	0, cr0, [r0], {1}
    23d8:	01000001 	tsteq	r0, r1
    23dc:	018c5300 	orreq	r5, ip, r0, lsl #6
    23e0:	01b00000 	movseq	r0, r0
    23e4:	00010000 	andeq	r0, r1, r0
    23e8:	0000005c 	andeq	r0, r0, ip, asr r0
    23ec:	00000000 	andeq	r0, r0, r0
    23f0:	0001b000 	andeq	fp, r1, r0
    23f4:	0001b700 	andeq	fp, r1, r0, lsl #14
    23f8:	50000100 	andpl	r0, r0, r0, lsl #2
    23fc:	000001b7 			; <UNDEFINED> instruction: 0x000001b7
    2400:	000001b8 			; <UNDEFINED> instruction: 0x000001b8
    2404:	01f30004 	mvnseq	r0, r4
    2408:	00009f50 	andeq	r9, r0, r0, asr pc
    240c:	00000000 	andeq	r0, r0, r0
    2410:	01e00000 	mvneq	r0, r0
    2414:	01eb0000 	mvneq	r0, r0
    2418:	00010000 	andeq	r0, r1, r0
    241c:	0001eb50 	andeq	lr, r1, r0, asr fp
    2420:	0001ec00 	andeq	lr, r1, r0, lsl #24
    2424:	f3000400 	vshl.u8	d0, d0, d0
    2428:	009f5001 	addseq	r5, pc, r1
    242c:	00000000 	andeq	r0, r0, r0
    2430:	ec000000 	stc	0, cr0, [r0], {-0}
    2434:	20000001 	andcs	r0, r0, r1
    2438:	01000002 	tsteq	r0, r2
    243c:	02205000 	eoreq	r5, r0, #0
    2440:	02300000 	eorseq	r0, r0, #0
    2444:	00010000 	andeq	r0, r1, r0
    2448:	00023850 	andeq	r3, r2, r0, asr r8
    244c:	00023c00 	andeq	r3, r2, r0, lsl #24
    2450:	50000100 	andpl	r0, r0, r0, lsl #2
    2454:	0000023c 	andeq	r0, r0, ip, lsr r2
    2458:	00000240 	andeq	r0, r0, r0, asr #4
    245c:	01f30004 	mvnseq	r0, r4
    2460:	00009f50 	andeq	r9, r0, r0, asr pc
    2464:	00000000 	andeq	r0, r0, r0
    2468:	021c0000 	andseq	r0, ip, #0
    246c:	02380000 	eorseq	r0, r8, #0
    2470:	00010000 	andeq	r0, r1, r0
    2474:	00000051 	andeq	r0, r0, r1, asr r0
    2478:	00000000 	andeq	r0, r0, r0
    247c:	00024000 	andeq	r4, r2, r0
    2480:	00025c00 	andeq	r5, r2, r0, lsl #24
    2484:	50000100 	andpl	r0, r0, r0, lsl #2
    2488:	0000025c 	andeq	r0, r0, ip, asr r2
    248c:	0000026c 	andeq	r0, r0, ip, ror #4
    2490:	01f30004 	mvnseq	r0, r4
    2494:	026c9f50 	rsbeq	r9, ip, #80, 30	; 0x140
    2498:	02700000 	rsbseq	r0, r0, #0
    249c:	00010000 	andeq	r0, r1, r0
    24a0:	00027050 	andeq	r7, r2, r0, asr r0
    24a4:	00027400 	andeq	r7, r2, r0, lsl #8
    24a8:	f3000400 	vshl.u8	d0, d0, d0
    24ac:	009f5001 	addseq	r5, pc, r1
    24b0:	00000000 	andeq	r0, r0, r0
    24b4:	74000000 	strvc	r0, [r0], #-0
    24b8:	9c000002 	stcls	0, cr0, [r0], {2}
    24bc:	01000002 	tsteq	r0, r2
    24c0:	029c5000 	addseq	r5, ip, #0
    24c4:	03140000 	tsteq	r4, #0
    24c8:	00040000 	andeq	r0, r4, r0
    24cc:	9f5001f3 	svcls	0x005001f3
    24d0:	00000314 	andeq	r0, r0, r4, lsl r3
    24d4:	00000318 	andeq	r0, r0, r8, lsl r3
    24d8:	18500001 	ldmdane	r0, {r0}^
    24dc:	24000003 	strcs	r0, [r0], #-3
    24e0:	04000003 	streq	r0, [r0], #-3
    24e4:	5001f300 	andpl	pc, r1, r0, lsl #6
    24e8:	0000009f 	muleq	r0, pc, r0	; <UNPREDICTABLE>
    24ec:	00000000 	andeq	r0, r0, r0
    24f0:	00027400 	andeq	r7, r2, r0, lsl #8
    24f4:	0002a700 	andeq	sl, r2, r0, lsl #14
    24f8:	51000100 	mrspl	r0, (UNDEF: 16)
    24fc:	000002a7 	andeq	r0, r0, r7, lsr #5
    2500:	000002c0 	andeq	r0, r0, r0, asr #5
    2504:	c0550001 	subsgt	r0, r5, r1
    2508:	c3000002 	movwgt	r0, #2
    250c:	01000002 	tsteq	r0, r2
    2510:	02c35000 	sbceq	r5, r3, #0
    2514:	02d00000 	sbcseq	r0, r0, #0
    2518:	00030000 	andeq	r0, r3, r0
    251c:	d09f0175 	addsle	r0, pc, r5, ror r1	; <UNPREDICTABLE>
    2520:	14000002 	strne	r0, [r0], #-2
    2524:	04000003 	streq	r0, [r0], #-3
    2528:	5101f300 	mrspl	pc, SP_irq	; <UNPREDICTABLE>
    252c:	0003149f 	muleq	r3, pc, r4	; <UNPREDICTABLE>
    2530:	00032300 	andeq	r2, r3, r0, lsl #6
    2534:	51000100 	mrspl	r0, (UNDEF: 16)
    2538:	00000323 	andeq	r0, r0, r3, lsr #6
    253c:	00000324 	andeq	r0, r0, r4, lsr #6
    2540:	01f30004 	mvnseq	r0, r4
    2544:	00009f51 	andeq	r9, r0, r1, asr pc
    2548:	00000000 	andeq	r0, r0, r0
    254c:	02740000 	rsbseq	r0, r4, #0
    2550:	02a70000 	adceq	r0, r7, #0
    2554:	00010000 	andeq	r0, r1, r0
    2558:	0002a752 	andeq	sl, r2, r2, asr r7
    255c:	00031000 	andeq	r1, r3, r0
    2560:	56000100 	strpl	r0, [r0], -r0, lsl #2
    2564:	00000310 	andeq	r0, r0, r0, lsl r3
    2568:	00000314 	andeq	r0, r0, r4, lsl r3
    256c:	01f30004 	mvnseq	r0, r4
    2570:	03149f52 	tsteq	r4, #328	; 0x148
    2574:	03230000 	teqeq	r3, #0
    2578:	00010000 	andeq	r0, r1, r0
    257c:	00032352 	andeq	r2, r3, r2, asr r3
    2580:	00032400 	andeq	r2, r3, r0, lsl #8
    2584:	f3000400 	vshl.u8	d0, d0, d0
    2588:	009f5201 	addseq	r5, pc, r1, lsl #4
    258c:	00000000 	andeq	r0, r0, r0
    2590:	d0000000 	andle	r0, r0, r0
    2594:	f8000002 			; <UNDEFINED> instruction: 0xf8000002
    2598:	01000002 	tsteq	r0, r2
    259c:	02f85400 	rscseq	r5, r8, #0, 8
    25a0:	02fc0000 	rscseq	r0, ip, #0
    25a4:	00030000 	andeq	r0, r3, r0
    25a8:	fc9f7f74 	ldc2	15, cr7, [pc], {116}	; 0x74
    25ac:	10000002 	andne	r0, r0, r2
    25b0:	01000003 	tsteq	r0, r3
    25b4:	00005400 	andeq	r5, r0, r0, lsl #8
    25b8:	00000000 	andeq	r0, r0, r0
    25bc:	02b40000 	adcseq	r0, r4, #0
    25c0:	02c00000 	sbceq	r0, r0, #0
    25c4:	00010000 	andeq	r0, r1, r0
    25c8:	0002c055 	andeq	ip, r2, r5, asr r0
    25cc:	0002c300 	andeq	ip, r2, r0, lsl #6
    25d0:	50000100 	andpl	r0, r0, r0, lsl #2
    25d4:	000002c3 	andeq	r0, r0, r3, asr #5
    25d8:	000002d0 	ldrdeq	r0, [r0], -r0	; <UNPREDICTABLE>
    25dc:	01750003 	cmneq	r5, r3
    25e0:	0002d09f 	muleq	r2, pc, r0	; <UNPREDICTABLE>
    25e4:	00031400 	andeq	r1, r3, r0, lsl #8
    25e8:	f3000400 	vshl.u8	d0, d0, d0
    25ec:	009f5101 	addseq	r5, pc, r1, lsl #2
    25f0:	00000000 	andeq	r0, r0, r0
    25f4:	24000000 	strcs	r0, [r0], #-0
    25f8:	2c000003 	stccs	0, cr0, [r0], {3}
    25fc:	01000003 	tsteq	r0, r3
    2600:	032c5100 	teqeq	ip, #0, 2
    2604:	03480000 	movteq	r0, #32768	; 0x8000
    2608:	00040000 	andeq	r0, r4, r0
    260c:	9f5101f3 	svcls	0x005101f3
	...
    2618:	00000324 	andeq	r0, r0, r4, lsr #6
    261c:	00000334 	andeq	r0, r0, r4, lsr r3
    2620:	34520001 	ldrbcc	r0, [r2], #-1
    2624:	48000003 	stmdami	r0, {r0, r1}
    2628:	04000003 	streq	r0, [r0], #-3
    262c:	5201f300 	andpl	pc, r1, #0, 6
    2630:	0000009f 	muleq	r0, pc, r0	; <UNPREDICTABLE>
    2634:	00000000 	andeq	r0, r0, r0
    2638:	00032c00 	andeq	r2, r3, r0, lsl #24
    263c:	00033400 	andeq	r3, r3, r0, lsl #8
    2640:	52000100 	andpl	r0, r0, #0, 2
    2644:	00000334 	andeq	r0, r0, r4, lsr r3
    2648:	00000348 	andeq	r0, r0, r8, asr #6
    264c:	01f30004 	mvnseq	r0, r4
    2650:	00009f52 	andeq	r9, r0, r2, asr pc
    2654:	00000000 	andeq	r0, r0, r0
    2658:	032c0000 	teqeq	ip, #0
    265c:	03380000 	teqeq	r8, #0
    2660:	00020000 	andeq	r0, r2, r0
    2664:	00009f30 	andeq	r9, r0, r0, lsr pc
    2668:	00000000 	andeq	r0, r0, r0
    266c:	03480000 	movteq	r0, #32768	; 0x8000
    2670:	03540000 	cmpeq	r4, #0
    2674:	00010000 	andeq	r0, r1, r0
    2678:	00035450 	andeq	r5, r3, r0, asr r4
    267c:	00036400 	andeq	r6, r3, r0, lsl #8
    2680:	f3000400 	vshl.u8	d0, d0, d0
    2684:	009f5001 	addseq	r5, pc, r1
    2688:	00000000 	andeq	r0, r0, r0
    268c:	48000000 	stmdami	r0, {}	; <UNPREDICTABLE>
    2690:	54000003 	strpl	r0, [r0], #-3
    2694:	01000003 	tsteq	r0, r3
    2698:	03545200 	cmpeq	r4, #0, 4
    269c:	03640000 	cmneq	r4, #0
    26a0:	00040000 	andeq	r0, r4, r0
    26a4:	9f5201f3 	svcls	0x005201f3
	...
    26b0:	00000348 	andeq	r0, r0, r8, asr #6
    26b4:	00000354 	andeq	r0, r0, r4, asr r3
    26b8:	9f300002 	svcls	0x00300002
    26bc:	00000354 	andeq	r0, r0, r4, asr r3
    26c0:	00000358 	andeq	r0, r0, r8, asr r3
    26c4:	00700007 	rsbseq	r0, r0, r7
    26c8:	1c5001f3 	ldfnee	f0, [r0], {243}	; 0xf3
    26cc:	0003589f 	muleq	r3, pc, r8	; <UNPREDICTABLE>
    26d0:	00036400 	andeq	r6, r3, r0, lsl #8
    26d4:	70000900 	andvc	r0, r0, r0, lsl #18
    26d8:	5001f300 	andpl	pc, r1, r0, lsl #6
    26dc:	9f01231c 	svcls	0x0001231c
	...
    26e8:	00000400 	andeq	r0, r0, r0, lsl #8
    26ec:	00000444 	andeq	r0, r0, r4, asr #8
    26f0:	44500001 	ldrbmi	r0, [r0], #-1
    26f4:	48000004 	stmdami	r0, {r2}
    26f8:	04000004 	streq	r0, [r0], #-4
    26fc:	5001f300 	andpl	pc, r1, r0, lsl #6
    2700:	0004489f 	muleq	r4, pc, r8	; <UNPREDICTABLE>
    2704:	00044c00 	andeq	r4, r4, r0, lsl #24
    2708:	50000100 	andpl	r0, r0, r0, lsl #2
    270c:	0000044c 	andeq	r0, r0, ip, asr #8
    2710:	00000450 	andeq	r0, r0, r0, asr r4
    2714:	01f30004 	mvnseq	r0, r4
    2718:	04509f50 	ldrbeq	r9, [r0], #-3920	; 0xf50
    271c:	04540000 	ldrbeq	r0, [r4], #-0
    2720:	00010000 	andeq	r0, r1, r0
    2724:	00045450 	andeq	r5, r4, r0, asr r4
    2728:	00045800 	andeq	r5, r4, r0, lsl #16
    272c:	f3000400 	vshl.u8	d0, d0, d0
    2730:	009f5001 	addseq	r5, pc, r1
	...
    273c:	28000004 	stmdacs	r0, {r2}
    2740:	01000004 	tsteq	r0, r4
    2744:	04285100 	strteq	r5, [r8], #-256	; 0x100
    2748:	04500000 	ldrbeq	r0, [r0], #-0
    274c:	00040000 	andeq	r0, r4, r0
    2750:	9f5101f3 	svcls	0x005101f3
    2754:	00000450 	andeq	r0, r0, r0, asr r4
    2758:	00000458 	andeq	r0, r0, r8, asr r4
    275c:	00510001 	subseq	r0, r1, r1
	...
    2768:	1c000004 	stcne	0, cr0, [r0], {4}
    276c:	01000004 	tsteq	r0, r4
    2770:	041c5200 	ldreq	r5, [ip], #-512	; 0x200
    2774:	04500000 	ldrbeq	r0, [r0], #-0
    2778:	00040000 	andeq	r0, r4, r0
    277c:	9f5201f3 	svcls	0x005201f3
    2780:	00000450 	andeq	r0, r0, r0, asr r4
    2784:	00000458 	andeq	r0, r0, r8, asr r4
    2788:	00520001 	subseq	r0, r2, r1
    278c:	00000000 	andeq	r0, r0, r0
    2790:	04000000 	streq	r0, [r0], #-0
    2794:	28000004 	stmdacs	r0, {r2}
    2798:	02000004 	andeq	r0, r0, #4
    279c:	289f3000 	ldmcs	pc, {ip, sp}	; <UNPREDICTABLE>
    27a0:	2c000004 	stccs	0, cr0, [r0], {4}
    27a4:	06000004 	streq	r0, [r0], -r4
    27a8:	70007300 	andvc	r7, r0, r0, lsl #6
    27ac:	2c9f1c00 	ldccs	12, cr1, [pc], {0}
    27b0:	38000004 	stmdacc	r0, {r2}
    27b4:	07000004 	streq	r0, [r0, -r4]
    27b8:	20007000 	andcs	r7, r0, r0
    27bc:	9f220073 	svcls	0x00220073
    27c0:	00000438 	andeq	r0, r0, r8, lsr r4
    27c4:	00000444 	andeq	r0, r0, r4, asr #8
    27c8:	00730006 	rsbseq	r0, r3, r6
    27cc:	9f1c0070 	svcls	0x001c0070
    27d0:	00000444 	andeq	r0, r0, r4, asr #8
    27d4:	00000448 	andeq	r0, r0, r8, asr #8
    27d8:	00730007 	rsbseq	r0, r3, r7
    27dc:	1c5001f3 	ldfnee	f0, [r0], {243}	; 0xf3
    27e0:	0004509f 	muleq	r4, pc, r0	; <UNPREDICTABLE>
    27e4:	00045800 	andeq	r5, r4, r0, lsl #16
    27e8:	30000200 	andcc	r0, r0, r0, lsl #4
    27ec:	0000009f 	muleq	r0, pc, r0	; <UNPREDICTABLE>
    27f0:	00000000 	andeq	r0, r0, r0
    27f4:	00040400 	andeq	r0, r4, r0, lsl #8
    27f8:	00042800 	andeq	r2, r4, r0, lsl #16
    27fc:	51000100 	mrspl	r0, (UNDEF: 16)
    2800:	00000428 	andeq	r0, r0, r8, lsr #8
    2804:	00000450 	andeq	r0, r0, r0, asr r4
    2808:	01f30004 	mvnseq	r0, r4
    280c:	04509f51 	ldrbeq	r9, [r0], #-3921	; 0xf51
    2810:	04580000 	ldrbeq	r0, [r8], #-0
    2814:	00010000 	andeq	r0, r1, r0
    2818:	00000051 	andeq	r0, r0, r1, asr r0
    281c:	00000000 	andeq	r0, r0, r0
    2820:	00045800 	andeq	r5, r4, r0, lsl #16
    2824:	00047400 	andeq	r7, r4, r0, lsl #8
    2828:	50000100 	andpl	r0, r0, r0, lsl #2
    282c:	00000474 	andeq	r0, r0, r4, ror r4
    2830:	0000049c 	muleq	r0, ip, r4
    2834:	01f30004 	mvnseq	r0, r4
    2838:	00009f50 	andeq	r9, r0, r0, asr pc
    283c:	00000000 	andeq	r0, r0, r0
    2840:	04580000 	ldrbeq	r0, [r8], #-0
    2844:	04740000 	ldrbteq	r0, [r4], #-0
    2848:	00010000 	andeq	r0, r1, r0
    284c:	00047451 	andeq	r7, r4, r1, asr r4
    2850:	00049c00 	andeq	r9, r4, r0, lsl #24
    2854:	f3000400 	vshl.u8	d0, d0, d0
    2858:	009f5101 	addseq	r5, pc, r1, lsl #2
    285c:	00000000 	andeq	r0, r0, r0
    2860:	58000000 	stmdapl	r0, {}	; <UNPREDICTABLE>
    2864:	74000004 	strvc	r0, [r0], #-4
    2868:	02000004 	andeq	r0, r0, #4
    286c:	749f3000 	ldrvc	r3, [pc], #0	; 2874 <_back_addr-0x14fd78c>
    2870:	80000004 	andhi	r0, r0, r4
    2874:	07000004 	streq	r0, [r0, -r4]
    2878:	f3007000 	vhadd.u8	d7, d0, d0
    287c:	9f1c5001 	svcls	0x001c5001
    2880:	00000480 	andeq	r0, r0, r0, lsl #9
    2884:	00000484 	andeq	r0, r0, r4, lsl #9
    2888:	00700009 	rsbseq	r0, r0, r9
    288c:	1c5001f3 	ldfnee	f0, [r0], {243}	; 0xf3
    2890:	849f0123 	ldrhi	r0, [pc], #291	; 2898 <_back_addr-0x14fd768>
    2894:	8c000004 	stchi	0, cr0, [r0], {4}
    2898:	07000004 	streq	r0, [r0, -r4]
    289c:	f3007000 	vhadd.u8	d7, d0, d0
    28a0:	9f1c5001 	svcls	0x001c5001
	...
    28ac:	00000008 	andeq	r0, r0, r8
    28b0:	00000014 	andeq	r0, r0, r4, lsl r0
    28b4:	9f300002 	svcls	0x00300002
    28b8:	00000014 	andeq	r0, r0, r4, lsl r0
    28bc:	000000e4 	andeq	r0, r0, r4, ror #1
    28c0:	00550001 	subseq	r0, r5, r1
    28c4:	00000000 	andeq	r0, r0, r0
    28c8:	14000000 	strne	r0, [r0], #-0
    28cc:	18000000 	stmdane	r0, {}	; <UNPREDICTABLE>
    28d0:	08000000 	stmdaeq	r0, {}	; <UNPREDICTABLE>
    28d4:	7e007700 	cdpvc	7, 0, cr7, cr0, cr0, {0}
    28d8:	1a372500 	bne	dcbce0 <_back_addr-0x734320>
    28dc:	0000189f 	muleq	r0, pc, r8	; <UNPREDICTABLE>
    28e0:	00002400 	andeq	r2, r0, r0, lsl #8
    28e4:	77000800 	strvc	r0, [r0, -r0, lsl #16]
    28e8:	257d7e00 	ldrbcs	r7, [sp, #-3584]!	; 0xe00
    28ec:	249f1a37 	ldrcs	r1, [pc], #2615	; 28f4 <_back_addr-0x14fd70c>
    28f0:	2c000000 	stccs	0, cr0, [r0], {-0}
    28f4:	08000000 	stmdaeq	r0, {}	; <UNPREDICTABLE>
    28f8:	7e007700 	cdpvc	7, 0, cr7, cr0, cr0, {0}
    28fc:	1a372500 	bne	dcbd04 <_back_addr-0x7342fc>
    2900:	00002c9f 	muleq	r0, pc, ip	; <UNPREDICTABLE>
    2904:	00003000 	andeq	r3, r0, r0
    2908:	53000100 	movwpl	r0, #256	; 0x100
    290c:	00000030 	andeq	r0, r0, r0, lsr r0
    2910:	00000058 	andeq	r0, r0, r8, asr r0
    2914:	02730003 	rsbseq	r0, r3, #3
    2918:	0000589f 	muleq	r0, pc, r8	; <UNPREDICTABLE>
    291c:	0000b000 	andeq	fp, r0, r0
    2920:	77000800 	strvc	r0, [r0, -r0, lsl #16]
    2924:	25007e00 	strcs	r7, [r0, #-3584]	; 0xe00
    2928:	b09f1a37 	addslt	r1, pc, r7, lsr sl	; <UNPREDICTABLE>
    292c:	bc000000 	stclt	0, cr0, [r0], {-0}
    2930:	08000000 	stmdaeq	r0, {}	; <UNPREDICTABLE>
    2934:	7e007700 	cdpvc	7, 0, cr7, cr0, cr0, {0}
    2938:	1a37257d 	bne	dcbf34 <_back_addr-0x7340cc>
    293c:	0000c09f 	muleq	r0, pc, r0	; <UNPREDICTABLE>
    2940:	0000e400 	andeq	lr, r0, r0, lsl #8
    2944:	77000800 	strvc	r0, [r0, -r0, lsl #16]
    2948:	25007e00 	strcs	r7, [r0, #-3584]	; 0xe00
    294c:	009f1a37 	addseq	r1, pc, r7, lsr sl	; <UNPREDICTABLE>
	...
    2958:	14000000 	strne	r0, [r0], #-0
    295c:	02000000 	andeq	r0, r0, #0
    2960:	149f3000 	ldrne	r3, [pc], #0	; 2968 <_back_addr-0x14fd698>
    2964:	e4000000 	str	r0, [r0], #-0
    2968:	01000000 	mrseq	r0, (UNDEF: 0)
    296c:	00005e00 	andeq	r5, r0, r0, lsl #28
    2970:	00000000 	andeq	r0, r0, r0
    2974:	00380000 	eorseq	r0, r8, r0
    2978:	00b40000 	adcseq	r0, r4, r0
    297c:	00010000 	andeq	r0, r1, r0
    2980:	0000b455 	andeq	fp, r0, r5, asr r4
    2984:	0000bc00 	andeq	fp, r0, r0, lsl #24
    2988:	75000300 	strvc	r0, [r0, #-768]	; 0x300
    298c:	00c09f7f 	sbceq	r9, r0, pc, ror pc
    2990:	00e40000 	rsceq	r0, r4, r0
    2994:	00010000 	andeq	r0, r1, r0
    2998:	00000055 	andeq	r0, r0, r5, asr r0
    299c:	00000000 	andeq	r0, r0, r0
    29a0:	00005c00 	andeq	r5, r0, r0, lsl #24
    29a4:	0000bc00 	andeq	fp, r0, r0, lsl #24
    29a8:	74000300 	strvc	r0, [r0], #-768	; 0x300
    29ac:	00c09f01 	sbceq	r9, r0, r1, lsl #30
    29b0:	00e40000 	rsceq	r0, r4, r0
    29b4:	00030000 	andeq	r0, r3, r0
    29b8:	009f0174 	addseq	r0, pc, r4, ror r1	; <UNPREDICTABLE>
    29bc:	00000000 	andeq	r0, r0, r0
    29c0:	54000000 	strpl	r0, [r0], #-0
    29c4:	5c000000 	stcpl	0, cr0, [r0], {-0}
    29c8:	0b000000 	bleq	29d0 <_back_addr-0x14fd630>
    29cc:	0a007400 	beq	1f9d4 <_back_addr-0x14e062c>
    29d0:	331a1ff8 	tstcc	sl, #248, 30	; 0x3e0
    29d4:	9f012325 	svcls	0x00012325
	...
    29e0:	00000044 	andeq	r0, r0, r4, asr #32
    29e4:	00000054 	andeq	r0, r0, r4, asr r0
    29e8:	00740007 	rsbseq	r0, r4, r7
    29ec:	02231a37 	eoreq	r1, r3, #225280	; 0x37000
    29f0:	0000549f 	muleq	r0, pc, r4	; <UNPREDICTABLE>
    29f4:	0000bc00 	andeq	fp, r0, r0, lsl #24
    29f8:	52000100 	andpl	r0, r0, #0, 2
    29fc:	000000c0 	andeq	r0, r0, r0, asr #1
    2a00:	000000e4 	andeq	r0, r0, r4, ror #1
    2a04:	00520001 	subseq	r0, r2, r1
    2a08:	00000000 	andeq	r0, r0, r0
    2a0c:	74000000 	strvc	r0, [r0], #-0
    2a10:	88000000 	stmdahi	r0, {}	; <UNPREDICTABLE>
    2a14:	01000000 	mrseq	r0, (UNDEF: 0)
    2a18:	00005100 	andeq	r5, r0, r0, lsl #2
    2a1c:	00000000 	andeq	r0, r0, r0
    2a20:	007c0000 	rsbseq	r0, ip, r0
    2a24:	00bc0000 	adcseq	r0, ip, r0
    2a28:	00010000 	andeq	r0, r1, r0
    2a2c:	0000c058 	andeq	ip, r0, r8, asr r0
    2a30:	0000e400 	andeq	lr, r0, r0, lsl #8
    2a34:	58000100 	stmdapl	r0, {r8}
	...
    2a40:	00000038 	andeq	r0, r0, r8, lsr r0
    2a44:	000000bc 	strheq	r0, [r0], -ip
    2a48:	9f300002 	svcls	0x00300002
    2a4c:	000000c0 	andeq	r0, r0, r0, asr #1
    2a50:	000000e4 	andeq	r0, r0, r4, ror #1
    2a54:	9f300002 	svcls	0x00300002
	...
    2a60:	0000003c 	andeq	r0, r0, ip, lsr r0
    2a64:	000000bc 	strheq	r0, [r0], -ip
    2a68:	c0560001 	subsgt	r0, r6, r1
    2a6c:	e4000000 	str	r0, [r0], #-0
    2a70:	01000000 	mrseq	r0, (UNDEF: 0)
    2a74:	00005600 	andeq	r5, r0, r0, lsl #12
    2a78:	00000000 	andeq	r0, r0, r0
    2a7c:	00440000 	subeq	r0, r4, r0
    2a80:	005c0000 	subseq	r0, ip, r0
    2a84:	00010000 	andeq	r0, r1, r0
    2a88:	00000054 	andeq	r0, r0, r4, asr r0
    2a8c:	00000000 	andeq	r0, r0, r0
    2a90:	00005c00 	andeq	r5, r0, r0, lsl #24
    2a94:	00006000 	andeq	r6, r0, r0
    2a98:	09000300 	stmdbeq	r0, {r8, r9}
    2a9c:	00609fff 	strdeq	r9, [r0], #-255	; 0xffffff01	; <UNPREDICTABLE>
    2aa0:	00740000 	rsbseq	r0, r4, r0
    2aa4:	00010000 	andeq	r0, r1, r0
    2aa8:	00000051 	andeq	r0, r0, r1, asr r0
    2aac:	00000000 	andeq	r0, r0, r0
    2ab0:	00006000 	andeq	r6, r0, r0
    2ab4:	00006400 	andeq	r6, r0, r0, lsl #8
    2ab8:	53000100 	movwpl	r0, #256	; 0x100
	...
    2ac4:	00000088 	andeq	r0, r0, r8, lsl #1
    2ac8:	000000a4 	andeq	r0, r0, r4, lsr #1
    2acc:	a4590001 	ldrbge	r0, [r9], #-1
    2ad0:	a8000000 	stmdage	r0, {}	; <UNPREDICTABLE>
    2ad4:	03000000 	movweq	r0, #0
    2ad8:	9f017900 	svcls	0x00017900
	...
    2ae4:	00000090 	muleq	r0, r0, r0
    2ae8:	0000009c 	muleq	r0, ip, r0
    2aec:	9c530001 	mrrcls	0, 0, r0, r3, cr1
    2af0:	a8000000 	stmdage	r0, {}	; <UNPREDICTABLE>
    2af4:	03000000 	movweq	r0, #0
    2af8:	9f017300 	svcls	0x00017300
	...
    2b04:	00000090 	muleq	r0, r0, r0
    2b08:	00000094 	muleq	r0, r4, r0
    2b0c:	00730009 	rsbseq	r0, r3, r9
    2b10:	7c240072 	stcvc	0, cr0, [r4], #-456	; 0xfffffe38
    2b14:	949f2100 	ldrls	r2, [pc], #256	; 2b1c <_back_addr-0x14fd4e4>
    2b18:	a8000000 	stmdage	r0, {}	; <UNPREDICTABLE>
    2b1c:	01000000 	mrseq	r0, (UNDEF: 0)
    2b20:	00005100 	andeq	r5, r0, r0, lsl #2
    2b24:	00000000 	andeq	r0, r0, r0
    2b28:	00c00000 	sbceq	r0, r0, r0
    2b2c:	00c40000 	sbceq	r0, r4, r0
    2b30:	00010000 	andeq	r0, r1, r0
    2b34:	0000c459 	andeq	ip, r0, r9, asr r4
    2b38:	0000c800 	andeq	ip, r0, r0, lsl #16
    2b3c:	79000300 	stmdbvc	r0, {r8, r9}
    2b40:	00c89f01 	sbceq	r9, r8, r1, lsl #30
    2b44:	00e40000 	rsceq	r0, r4, r0
    2b48:	00010000 	andeq	r0, r1, r0
    2b4c:	00000059 	andeq	r0, r0, r9, asr r0
    2b50:	00000000 	andeq	r0, r0, r0
    2b54:	0000c000 	andeq	ip, r0, r0
    2b58:	0000c800 	andeq	ip, r0, r0, lsl #16
    2b5c:	73000300 	movwvc	r0, #768	; 0x300
    2b60:	00d09f01 	sbcseq	r9, r0, r1, lsl #30
    2b64:	00dc0000 	sbcseq	r0, ip, r0
    2b68:	00010000 	andeq	r0, r1, r0
    2b6c:	0000dc53 	andeq	sp, r0, r3, asr ip
    2b70:	0000e400 	andeq	lr, r0, r0, lsl #8
    2b74:	73000300 	movwvc	r0, #768	; 0x300
    2b78:	00009f01 	andeq	r9, r0, r1, lsl #30
    2b7c:	00000000 	andeq	r0, r0, r0
    2b80:	00c00000 	sbceq	r0, r0, r0
    2b84:	00c80000 	sbceq	r0, r8, r0
    2b88:	00010000 	andeq	r0, r1, r0
    2b8c:	0000d051 	andeq	sp, r0, r1, asr r0
    2b90:	0000d400 	andeq	sp, r0, r0, lsl #8
    2b94:	73000900 	movwvc	r0, #2304	; 0x900
    2b98:	24007200 	strcs	r7, [r0], #-512	; 0x200
    2b9c:	9f21007c 	svcls	0x0021007c
    2ba0:	000000d4 	ldrdeq	r0, [r0], -r4
    2ba4:	000000e4 	andeq	r0, r0, r4, ror #1
    2ba8:	00510001 	subseq	r0, r1, r1
    2bac:	00000000 	andeq	r0, r0, r0
    2bb0:	68000000 	stmdavs	r0, {}	; <UNPREDICTABLE>
    2bb4:	a3000001 	movwge	r0, #1
    2bb8:	01000001 	tsteq	r0, r1
    2bbc:	01a35000 			; <UNDEFINED> instruction: 0x01a35000
    2bc0:	01a40000 			; <UNDEFINED> instruction: 0x01a40000
    2bc4:	00040000 	andeq	r0, r4, r0
    2bc8:	9f5001f3 	svcls	0x005001f3
	...
    2bd4:	00000168 	andeq	r0, r0, r8, ror #2
    2bd8:	000001a3 	andeq	r0, r0, r3, lsr #3
    2bdc:	a3510001 	cmpge	r1, #1
    2be0:	a4000001 	strge	r0, [r0], #-1
    2be4:	04000001 	streq	r0, [r0], #-1
    2be8:	5101f300 	mrspl	pc, SP_irq	; <UNPREDICTABLE>
    2bec:	0000009f 	muleq	r0, pc, r0	; <UNPREDICTABLE>
    2bf0:	00000000 	andeq	r0, r0, r0
    2bf4:	00016c00 	andeq	r6, r1, r0, lsl #24
    2bf8:	00017000 	andeq	r7, r1, r0
    2bfc:	72000700 	andvc	r0, r0, #0, 14
    2c00:	231a3700 	tstcs	sl, #0, 14
    2c04:	01789f04 	cmneq	r8, r4, lsl #30
    2c08:	01a30000 			; <UNDEFINED> instruction: 0x01a30000
    2c0c:	00010000 	andeq	r0, r1, r0
    2c10:	00000052 	andeq	r0, r0, r2, asr r0
    2c14:	00000000 	andeq	r0, r0, r0
    2c18:	00016c00 	andeq	r6, r1, r0, lsl #24
    2c1c:	00017000 	andeq	r7, r1, r0
    2c20:	52000100 	andpl	r0, r0, #0, 2
	...
    2c2c:	0000017c 	andeq	r0, r0, ip, ror r1
    2c30:	000001a3 	andeq	r0, r0, r3, lsr #3
    2c34:	00520001 	subseq	r0, r2, r1
    2c38:	00000000 	andeq	r0, r0, r0
    2c3c:	7c000000 	stcvc	0, cr0, [r0], {-0}
    2c40:	a3000001 	movwge	r0, #1
    2c44:	01000001 	tsteq	r0, r1
    2c48:	01a35100 			; <UNDEFINED> instruction: 0x01a35100
    2c4c:	01a40000 			; <UNDEFINED> instruction: 0x01a40000
    2c50:	00040000 	andeq	r0, r4, r0
    2c54:	9f5101f3 	svcls	0x005101f3
	...
    2c60:	0000017c 	andeq	r0, r0, ip, ror r1
    2c64:	00000184 	andeq	r0, r0, r4, lsl #3
    2c68:	84500001 	ldrbhi	r0, [r0], #-1
    2c6c:	8c000001 	stchi	0, cr0, [r0], {1}
    2c70:	01000001 	tsteq	r0, r1
    2c74:	018c5300 	orreq	r5, ip, r0, lsl #6
    2c78:	01a30000 			; <UNDEFINED> instruction: 0x01a30000
    2c7c:	00070000 	andeq	r0, r7, r0
    2c80:	701f0072 	andsvc	r0, pc, r2, ror r0	; <UNPREDICTABLE>
    2c84:	009f1a00 	addseq	r1, pc, r0, lsl #20
    2c88:	00000000 	andeq	r0, r0, r0
    2c8c:	84000000 	strhi	r0, [r0], #-0
    2c90:	a3000001 	movwge	r0, #1
    2c94:	01000001 	tsteq	r0, r1
    2c98:	00005300 	andeq	r5, r0, r0, lsl #6
    2c9c:	00000000 	andeq	r0, r0, r0
    2ca0:	01a40000 			; <UNDEFINED> instruction: 0x01a40000
    2ca4:	01ab0000 			; <UNDEFINED> instruction: 0x01ab0000
    2ca8:	00010000 	andeq	r0, r1, r0
    2cac:	0001ab50 	andeq	sl, r1, r0, asr fp
    2cb0:	0001ac00 	andeq	sl, r1, r0, lsl #24
    2cb4:	f3000400 	vshl.u8	d0, d0, d0
    2cb8:	009f5001 	addseq	r5, pc, r1
    2cbc:	00000000 	andeq	r0, r0, r0
    2cc0:	a4000000 	strge	r0, [r0], #-0
    2cc4:	a8000001 	stmdage	r0, {r0}
    2cc8:	01000001 	tsteq	r0, r1
    2ccc:	01a85100 			; <UNDEFINED> instruction: 0x01a85100
    2cd0:	01ac0000 			; <UNDEFINED> instruction: 0x01ac0000
    2cd4:	00040000 	andeq	r0, r4, r0
    2cd8:	9f5101f3 	svcls	0x005101f3
	...
    2ce4:	000001b0 			; <UNDEFINED> instruction: 0x000001b0
    2ce8:	00000217 	andeq	r0, r0, r7, lsl r2
    2cec:	17500001 	ldrbne	r0, [r0, -r1]
    2cf0:	18000002 	stmdane	r0, {r1}
    2cf4:	04000002 	streq	r0, [r0], #-2
    2cf8:	5001f300 	andpl	pc, r1, r0, lsl #6
    2cfc:	0000009f 	muleq	r0, pc, r0	; <UNPREDICTABLE>
    2d00:	00000000 	andeq	r0, r0, r0
    2d04:	0001b000 	andeq	fp, r1, r0
    2d08:	00021700 	andeq	r1, r2, r0, lsl #14
    2d0c:	51000100 	mrspl	r0, (UNDEF: 16)
    2d10:	00000217 	andeq	r0, r0, r7, lsl r2
    2d14:	00000218 	andeq	r0, r0, r8, lsl r2
    2d18:	01f30004 	mvnseq	r0, r4
    2d1c:	00009f51 	andeq	r9, r0, r1, asr pc
    2d20:	00000000 	andeq	r0, r0, r0
    2d24:	01b80000 			; <UNDEFINED> instruction: 0x01b80000
    2d28:	01bc0000 			; <UNDEFINED> instruction: 0x01bc0000
    2d2c:	00070000 	andeq	r0, r7, r0
    2d30:	1a37007c 	bne	dc2f28 <_back_addr-0x73d0d8>
    2d34:	c49f0423 	ldrgt	r0, [pc], #1059	; 2d3c <_back_addr-0x14fd2c4>
    2d38:	17000001 	strne	r0, [r0, -r1]
    2d3c:	01000002 	tsteq	r0, r2
    2d40:	00005c00 	andeq	r5, r0, r0, lsl #24
    2d44:	00000000 	andeq	r0, r0, r0
    2d48:	01b80000 			; <UNDEFINED> instruction: 0x01b80000
    2d4c:	01bc0000 			; <UNDEFINED> instruction: 0x01bc0000
    2d50:	00010000 	andeq	r0, r1, r0
    2d54:	0000005c 	andeq	r0, r0, ip, asr r0
    2d58:	00000000 	andeq	r0, r0, r0
    2d5c:	0001c800 	andeq	ip, r1, r0, lsl #16
    2d60:	00021700 	andeq	r1, r2, r0, lsl #14
    2d64:	5c000100 	stfpls	f0, [r0], {-0}
	...
    2d70:	000001c8 	andeq	r0, r0, r8, asr #3
    2d74:	000001f4 	strdeq	r0, [r0], -r4
    2d78:	f4510001 			; <UNDEFINED> instruction: 0xf4510001
    2d7c:	17000001 	strne	r0, [r0, -r1]
    2d80:	01000002 	tsteq	r0, r2
    2d84:	00005200 	andeq	r5, r0, r0, lsl #4
    2d88:	00000000 	andeq	r0, r0, r0
    2d8c:	01c80000 	biceq	r0, r8, r0
    2d90:	01e40000 	mvneq	r0, r0
    2d94:	00010000 	andeq	r0, r1, r0
    2d98:	0001e450 	andeq	lr, r1, r0, asr r4
    2d9c:	0001fc00 	andeq	pc, r1, r0, lsl #24
    2da0:	53000100 	movwpl	r0, #256	; 0x100
	...
    2dac:	000001f4 	strdeq	r0, [r0], -r4
    2db0:	00000217 	andeq	r0, r0, r7, lsl r2
    2db4:	00530001 	subseq	r0, r3, r1
	...
    2dc0:	34000000 	strcc	r0, [r0], #-0
    2dc4:	01000000 	mrseq	r0, (UNDEF: 0)
    2dc8:	00345000 	eorseq	r5, r4, r0
    2dcc:	01a80000 			; <UNDEFINED> instruction: 0x01a80000
    2dd0:	00020000 	andeq	r0, r2, r0
    2dd4:	01a8007d 			; <UNDEFINED> instruction: 0x01a8007d
    2dd8:	01b40000 			; <UNDEFINED> instruction: 0x01b40000
    2ddc:	00010000 	andeq	r0, r1, r0
    2de0:	0001b453 	andeq	fp, r1, r3, asr r4
    2de4:	0001bc00 	andeq	fp, r1, r0, lsl #24
    2de8:	7d000200 	sfmvc	f0, 4, [r0, #-0]
    2dec:	0001bc00 	andeq	fp, r1, r0, lsl #24
    2df0:	0001c000 	andeq	ip, r1, r0
    2df4:	91000300 	mrsls	r0, LR_irq
    2df8:	01c07f80 	biceq	r7, r0, r0, lsl #31
    2dfc:	01d00000 	bicseq	r0, r0, r0
    2e00:	00020000 	andeq	r0, r2, r0
    2e04:	01d0007d 	bicseq	r0, r0, sp, ror r0
    2e08:	01dc0000 	bicseq	r0, ip, r0
    2e0c:	00010000 	andeq	r0, r1, r0
    2e10:	00000053 	andeq	r0, r0, r3, asr r0
	...
    2e1c:	00003400 	andeq	r3, r0, r0, lsl #8
    2e20:	51000100 	mrspl	r0, (UNDEF: 16)
    2e24:	00000034 	andeq	r0, r0, r4, lsr r0
    2e28:	00000088 	andeq	r0, r0, r8, lsl #1
    2e2c:	84910003 	ldrhi	r0, [r1], #3
    2e30:	0000887f 	andeq	r8, r0, pc, ror r8
    2e34:	00016800 	andeq	r6, r1, r0, lsl #16
    2e38:	56000100 	strpl	r0, [r0], -r0, lsl #2
    2e3c:	000001ac 	andeq	r0, r0, ip, lsr #3
    2e40:	000001c0 	andeq	r0, r0, r0, asr #3
    2e44:	84910003 	ldrhi	r0, [r1], #3
    2e48:	0000007f 	andeq	r0, r0, pc, ror r0
	...
    2e54:	00001c00 	andeq	r1, r0, r0, lsl #24
    2e58:	52000100 	andpl	r0, r0, #0, 2
    2e5c:	0000001c 	andeq	r0, r0, ip, lsl r0
    2e60:	000001dc 	ldrdeq	r0, [r0], -ip
    2e64:	01f30004 	mvnseq	r0, r4
    2e68:	00009f52 	andeq	r9, r0, r2, asr pc
	...
    2e74:	00400000 	subeq	r0, r0, r0
    2e78:	00010000 	andeq	r0, r1, r0
    2e7c:	00004053 	andeq	r4, r0, r3, asr r0
    2e80:	0001dc00 	andeq	sp, r1, r0, lsl #24
    2e84:	5b000100 	blpl	328c <_back_addr-0x14fcd74>
	...
    2e94:	00000034 	andeq	r0, r0, r4, lsr r0
    2e98:	00910002 	addseq	r0, r1, r2
    2e9c:	00000034 	andeq	r0, r0, r4, lsr r0
    2ea0:	00000088 	andeq	r0, r0, r8, lsl #1
    2ea4:	a85a0001 	ldmdage	sl, {r0}^
    2ea8:	c0000001 	andgt	r0, r0, r1
    2eac:	01000001 	tsteq	r0, r1
    2eb0:	01d05a00 	bicseq	r5, r0, r0, lsl #20
    2eb4:	01dc0000 	bicseq	r0, ip, r0
    2eb8:	00010000 	andeq	r0, r1, r0
    2ebc:	0000005a 	andeq	r0, r0, sl, asr r0
	...
    2ec8:	00002800 	andeq	r2, r0, r0, lsl #16
    2ecc:	91000200 	mrsls	r0, R8_usr
    2ed0:	00002808 	andeq	r2, r0, r8, lsl #16
    2ed4:	00003000 	andeq	r3, r0, r0
    2ed8:	57000100 	strpl	r0, [r0, -r0, lsl #2]
    2edc:	00000030 	andeq	r0, r0, r0, lsr r0
    2ee0:	00000034 	andeq	r0, r0, r4, lsr r0
    2ee4:	40080047 	andmi	r0, r8, r7, asr #32
    2ee8:	72060091 	andvc	r0, r6, #145	; 0x91
    2eec:	244b4000 	strbcs	r4, [fp], #-0
    2ef0:	00400c22 	subeq	r0, r0, r2, lsr #24
    2ef4:	282b8000 	stmdacs	fp!, {pc}
    2ef8:	13160001 	tstne	r6, #1
    2efc:	007325f7 	ldrshteq	r2, [r3], #-87	; 0xffffffa9
    2f00:	f71b25f7 			; <UNDEFINED> instruction: 0xf71b25f7
    2f04:	91400800 	cmpls	r0, r0, lsl #16
    2f08:	00720600 	rsbseq	r0, r2, r0, lsl #12
    2f0c:	22244b40 	eorcs	r4, r4, #64, 22	; 0x10000
    2f10:	0000400c 	andeq	r4, r0, ip
    2f14:	01282b80 	smlawbeq	r8, r0, fp, r2
    2f18:	72131600 	andsvc	r1, r3, #0, 12
    2f1c:	244b4000 	strbcs	r4, [fp], #-0
    2f20:	00400c22 	subeq	r0, r0, r2, lsr #24
    2f24:	282b8000 	stmdacs	fp!, {pc}
    2f28:	13160001 	tstne	r6, #1
    2f2c:	0000349f 	muleq	r0, pc, r4	; <UNPREDICTABLE>
    2f30:	0001dc00 	andeq	sp, r1, r0, lsl #24
    2f34:	57000100 	strpl	r0, [r0, -r0, lsl #2]
	...
    2f40:	00000058 	andeq	r0, r0, r8, asr r0
    2f44:	00000088 	andeq	r0, r0, r8, lsl #1
    2f48:	9f300002 	svcls	0x00300002
    2f4c:	00000088 	andeq	r0, r0, r8, lsl #1
    2f50:	0000008c 	andeq	r0, r0, ip, lsl #1
    2f54:	8c550001 	mrrchi	0, 0, r0, r5, cr1
    2f58:	98000000 	stmdals	r0, {}	; <UNPREDICTABLE>
    2f5c:	03000000 	movweq	r0, #0
    2f60:	9f7f7500 	svcls	0x007f7500
    2f64:	00000098 	muleq	r0, r8, r0
    2f68:	000000ec 	andeq	r0, r0, ip, ror #1
    2f6c:	ec550001 	mrrc	0, 0, r0, r5, cr1
    2f70:	f8000000 			; <UNDEFINED> instruction: 0xf8000000
    2f74:	03000000 	movweq	r0, #0
    2f78:	9f7f7500 	svcls	0x007f7500
    2f7c:	000000f8 	strdeq	r0, [r0], -r8
    2f80:	00000118 	andeq	r0, r0, r8, lsl r1
    2f84:	18550001 	ldmdane	r5, {r0}^
    2f88:	38000001 	stmdacc	r0, {r0}
    2f8c:	02000001 	andeq	r0, r0, #1
    2f90:	389f3000 	ldmcc	pc, {ip, sp}	; <UNPREDICTABLE>
    2f94:	68000001 	stmdavs	r0, {r0}
    2f98:	08000001 	stmdaeq	r0, {r0}
    2f9c:	91007200 	mrsls	r7, R8_usr
    2fa0:	71231c7c 	teqvc	r3, ip, ror ip
    2fa4:	0000009f 	muleq	r0, pc, r0	; <UNPREDICTABLE>
    2fa8:	00000000 	andeq	r0, r0, r0
    2fac:	00008800 	andeq	r8, r0, r0, lsl #16
    2fb0:	00008f00 	andeq	r8, r0, r0, lsl #30
    2fb4:	52000100 	andpl	r0, r0, #0, 2
    2fb8:	000000cc 	andeq	r0, r0, ip, asr #1
    2fbc:	000000ef 	andeq	r0, r0, pc, ror #1
    2fc0:	00520001 	subseq	r0, r2, r1
    2fc4:	00000000 	andeq	r0, r0, r0
    2fc8:	14000000 	strne	r0, [r0], #-0
    2fcc:	1c000002 	stcne	0, cr0, [r0], {2}
    2fd0:	01000002 	tsteq	r0, r2
    2fd4:	021c5000 	andseq	r5, ip, #0
    2fd8:	02270000 	eoreq	r0, r7, #0
    2fdc:	00010000 	andeq	r0, r1, r0
    2fe0:	00025c51 	andeq	r5, r2, r1, asr ip
    2fe4:	00026400 	andeq	r6, r2, r0, lsl #8
    2fe8:	50000100 	andpl	r0, r0, r0, lsl #2
    2fec:	00000264 	andeq	r0, r0, r4, ror #4
    2ff0:	0000026f 	andeq	r0, r0, pc, ror #4
    2ff4:	00510001 	subseq	r0, r1, r1
    2ff8:	00000000 	andeq	r0, r0, r0
    2ffc:	28000000 	stmdacs	r0, {}	; <UNPREDICTABLE>
    3000:	2c000002 	stccs	0, cr0, [r0], {2}
    3004:	09000002 	stmdbeq	r0, {r1}
    3008:	03007400 	movweq	r7, #1024	; 0x400
    300c:	0151345f 	cmpeq	r1, pc, asr r4
    3010:	022c9f1c 	eoreq	r9, ip, #28, 30	; 0x70
    3014:	023c0000 	eorseq	r0, ip, #0
    3018:	00090000 	andeq	r0, r9, r0
    301c:	60030074 	andvs	r0, r3, r4, ror r0
    3020:	1c015134 	stfnes	f5, [r1], {52}	; 0x34
    3024:	00023c9f 	muleq	r2, pc, ip	; <UNPREDICTABLE>
    3028:	00025800 	andeq	r5, r2, r0, lsl #16
    302c:	74000900 	strvc	r0, [r0], #-2304	; 0x900
    3030:	345f0300 	ldrbcc	r0, [pc], #-768	; 3038 <_back_addr-0x14fcfc8>
    3034:	9f1c0151 	svcls	0x001c0151
    3038:	00000270 	andeq	r0, r0, r0, ror r2
    303c:	00000274 	andeq	r0, r0, r4, ror r2
    3040:	00750009 	rsbseq	r0, r5, r9
    3044:	51344f03 	teqpl	r4, r3, lsl #30
    3048:	749f1c01 	ldrvc	r1, [pc], #3073	; 3050 <_back_addr-0x14fcfb0>
    304c:	84000002 	strhi	r0, [r0], #-2
    3050:	09000002 	stmdbeq	r0, {r1}
    3054:	03007500 	movweq	r7, #1280	; 0x500
    3058:	01513450 	cmpeq	r1, r0, asr r4
    305c:	02849f1c 	addeq	r9, r4, #28, 30	; 0x70
    3060:	029c0000 	addseq	r0, ip, #0
    3064:	00090000 	andeq	r0, r9, r0
    3068:	4f030075 	svcmi	0x00030075
    306c:	1c015134 	stfnes	f5, [r1], {52}	; 0x34
    3070:	0000009f 	muleq	r0, pc, r0	; <UNPREDICTABLE>
    3074:	00000000 	andeq	r0, r0, r0
    3078:	00029c00 	andeq	r9, r2, r0, lsl #24
    307c:	0002a400 	andeq	sl, r2, r0, lsl #8
    3080:	50000100 	andpl	r0, r0, r0, lsl #2
    3084:	000002a4 	andeq	r0, r0, r4, lsr #5
    3088:	000002cc 	andeq	r0, r0, ip, asr #5
    308c:	01f30004 	mvnseq	r0, r4
    3090:	00009f50 	andeq	r9, r0, r0, asr pc
    3094:	00000000 	andeq	r0, r0, r0
    3098:	029c0000 	addseq	r0, ip, #0
    309c:	02a40000 	adceq	r0, r4, #0
    30a0:	00020000 	andeq	r0, r2, r0
    30a4:	02a49f30 	adceq	r9, r4, #48, 30	; 0xc0
    30a8:	02ac0000 	adceq	r0, ip, #0
    30ac:	00010000 	andeq	r0, r1, r0
    30b0:	0002ac50 	andeq	sl, r2, r0, asr ip
    30b4:	0002cc00 	andeq	ip, r2, r0, lsl #24
    30b8:	f3000600 	vmax.u8	d0, d0, d0
    30bc:	25335001 	ldrcs	r5, [r3, #-1]!
    30c0:	0000009f 	muleq	r0, pc, r0	; <UNPREDICTABLE>
    30c4:	00000000 	andeq	r0, r0, r0
    30c8:	00029c00 	andeq	r9, r2, r0, lsl #24
    30cc:	0002a000 	andeq	sl, r2, r0
    30d0:	70000500 	andvc	r0, r0, r0, lsl #10
    30d4:	9f1a3700 	svcls	0x001a3700
    30d8:	000002a0 	andeq	r0, r0, r0, lsr #5
    30dc:	000002cc 	andeq	r0, r0, ip, asr #5
    30e0:	00520001 	subseq	r0, r2, r1
    30e4:	00000000 	andeq	r0, r0, r0
    30e8:	9c000000 	stcls	0, cr0, [r0], {-0}
    30ec:	a4000002 	strge	r0, [r0], #-2
    30f0:	02000002 	andeq	r0, r0, #2
    30f4:	a49f3000 	ldrge	r3, [pc], #0	; 30fc <_back_addr-0x14fcf04>
    30f8:	a8000002 	stmdage	r0, {r1}
    30fc:	06000002 	streq	r0, [r0], -r2
    3100:	09007000 	stmdbeq	r0, {ip, sp, lr}
    3104:	a89f1afc 	ldmge	pc, {r2, r3, r4, r5, r6, r7, r9, fp, ip}	; <UNPREDICTABLE>
    3108:	b0000002 	andlt	r0, r0, r2
    310c:	01000002 	tsteq	r0, r2
    3110:	02b05300 	adcseq	r5, r0, #0, 6
    3114:	02b40000 	adcseq	r0, r4, #0
    3118:	00070000 	andeq	r0, r7, r0
    311c:	80808073 	addhi	r8, r0, r3, ror r0
    3120:	b49f06c0 	ldrlt	r0, [pc], #1728	; 3128 <_back_addr-0x14fced8>
    3124:	bc000002 	stclt	0, cr0, [r0], {2}
    3128:	07000002 	streq	r0, [r0, -r2]
    312c:	a0807300 	addge	r7, r0, r0, lsl #6
    3130:	9f06bffa 	svcls	0x0006bffa
    3134:	000002bc 			; <UNDEFINED> instruction: 0x000002bc
    3138:	000002cc 	andeq	r0, r0, ip, asr #5
    313c:	01f30009 	mvnseq	r0, r9
    3140:	09253350 	stmdbeq	r5!, {r4, r6, r8, r9, ip, sp}
    3144:	009f1afc 			; <UNDEFINED> instruction: 0x009f1afc
    3148:	00000000 	andeq	r0, r0, r0
    314c:	9c000000 	stcls	0, cr0, [r0], {-0}
    3150:	a4000002 	strge	r0, [r0], #-2
    3154:	02000002 	andeq	r0, r0, #2
    3158:	a49f3000 	ldrge	r3, [pc], #0	; 3160 <_back_addr-0x14fcea0>
    315c:	ac000002 	stcge	0, cr0, [r0], {2}
    3160:	05000002 	streq	r0, [r0, #-2]
    3164:	33007000 	movwcc	r7, #0
    3168:	02ac9f1a 	adceq	r9, ip, #26, 30	; 0x68
    316c:	02b80000 	adcseq	r0, r8, #0
    3170:	00010000 	andeq	r0, r1, r0
    3174:	0002b850 	andeq	fp, r2, r0, asr r8
    3178:	0002cc00 	andeq	ip, r2, r0, lsl #24
    317c:	f3000800 	vsub.i8	d0, d0, d0
    3180:	25335001 	ldrcs	r5, [r3, #-1]!
    3184:	009f1a33 	addseq	r1, pc, r3, lsr sl	; <UNPREDICTABLE>
    3188:	00000000 	andeq	r0, r0, r0
    318c:	9c000000 	stcls	0, cr0, [r0], {-0}
    3190:	bc000002 	stclt	0, cr0, [r0], {2}
    3194:	02000002 	andeq	r0, r0, #2
    3198:	009f3000 	addseq	r3, pc, r0
    319c:	00000000 	andeq	r0, r0, r0
    31a0:	a4000000 	strge	r0, [r0], #-0
    31a4:	ac000002 	stcge	0, cr0, [r0], {2}
    31a8:	0c000002 	stceq	0, cr0, [r0], {2}
    31ac:	09007000 	stmdbeq	r0, {ip, sp, lr}
    31b0:	000c1afc 	strdeq	r1, [ip], -ip
    31b4:	1c67fe90 	stclne	14, cr15, [r7], #-576	; 0xfffffdc0
    31b8:	0002ac9f 	muleq	r2, pc, ip	; <UNPREDICTABLE>
    31bc:	0002cc00 	andeq	ip, r2, r0, lsl #24
    31c0:	f3000f00 	vpmax.f32	d0, d0, d0
    31c4:	25335001 	ldrcs	r5, [r3, #-1]!
    31c8:	0c1afc09 	ldceq	12, cr15, [sl], {9}
    31cc:	67fe9000 	ldrbvs	r9, [lr, r0]!
    31d0:	00009f1c 	andeq	r9, r0, ip, lsl pc
    31d4:	00000000 	andeq	r0, r0, r0
    31d8:	02cc0000 	sbceq	r0, ip, #0
    31dc:	02d80000 	sbcseq	r0, r8, #0
    31e0:	00020000 	andeq	r0, r2, r0
    31e4:	02d89f30 	sbcseq	r9, r8, #48, 30	; 0xc0
    31e8:	02e00000 	rsceq	r0, r0, #0
    31ec:	00010000 	andeq	r0, r1, r0
    31f0:	00000050 	andeq	r0, r0, r0, asr r0
    31f4:	00000000 	andeq	r0, r0, r0
    31f8:	0002f800 	andeq	pc, r2, r0, lsl #16
    31fc:	00030800 	andeq	r0, r3, r0, lsl #16
    3200:	50000100 	andpl	r0, r0, r0, lsl #2
    3204:	00000308 	andeq	r0, r0, r8, lsl #6
    3208:	0000034c 	andeq	r0, r0, ip, asr #6
    320c:	01f30004 	mvnseq	r0, r4
    3210:	00009f50 	andeq	r9, r0, r0, asr pc
    3214:	00000000 	andeq	r0, r0, r0
    3218:	02f80000 	rscseq	r0, r8, #0
    321c:	03080000 	movweq	r0, #32768	; 0x8000
    3220:	00090000 	andeq	r0, r9, r0
    3224:	26330070 			; <UNDEFINED> instruction: 0x26330070
    3228:	1a03ff0a 	bne	102e58 <_back_addr-0x13fd1a8>
    322c:	0003089f 	muleq	r3, pc, r8	; <UNPREDICTABLE>
    3230:	00034c00 	andeq	r4, r3, r0, lsl #24
    3234:	f3000a00 	vpmax.u8	d0, d0, d0
    3238:	26335001 	ldrtcs	r5, [r3], -r1
    323c:	1a03ff0a 	bne	102e6c <_back_addr-0x13fd194>
    3240:	0000009f 	muleq	r0, pc, r0	; <UNPREDICTABLE>
    3244:	00000000 	andeq	r0, r0, r0
    3248:	0002f800 	andeq	pc, r2, r0, lsl #16
    324c:	0002fc00 	andeq	pc, r2, r0, lsl #24
    3250:	70000500 	andvc	r0, r0, r0, lsl #10
    3254:	9f1a3700 	svcls	0x001a3700
    3258:	000002fc 	strdeq	r0, [r0], -ip
    325c:	00000318 	andeq	r0, r0, r8, lsl r3
    3260:	18520001 	ldmdane	r2, {r0}^
    3264:	4c000003 	stcmi	0, cr0, [r0], {3}
    3268:	06000003 	streq	r0, [r0], -r3
    326c:	5001f300 	andpl	pc, r1, r0, lsl #6
    3270:	009f1a37 	addseq	r1, pc, r7, lsr sl	; <UNPREDICTABLE>
    3274:	00000000 	andeq	r0, r0, r0
    3278:	18000000 	stmdane	r0, {}	; <UNPREDICTABLE>
    327c:	1c000003 	stcne	0, cr0, [r0], {3}
    3280:	01000003 	tsteq	r0, r3
    3284:	031c5200 	tsteq	ip, #0, 4
    3288:	03400000 	movteq	r0, #0
    328c:	00030000 	andeq	r0, r3, r0
    3290:	40088071 	andmi	r8, r8, r1, ror r0
    3294:	4c000003 	stcmi	0, cr0, [r0], {3}
    3298:	18000003 	stmdane	r0, {r0, r1}
    329c:	5001f300 	andpl	pc, r1, r0, lsl #6
    32a0:	243a1a37 	ldrtcs	r1, [sl], #-2615	; 0xa37
    32a4:	095001f3 	ldmdbeq	r0, {r0, r1, r4, r5, r6, r7, r8}^
    32a8:	fa0924f7 	blx	24c68c <_back_addr-0x12b3974>
    32ac:	000c2125 	andeq	r2, ip, r5, lsr #2
    32b0:	2100c020 	tstcs	r0, r0, lsr #32
    32b4:	0000009f 	muleq	r0, pc, r0	; <UNPREDICTABLE>
    32b8:	00000000 	andeq	r0, r0, r0
    32bc:	00033400 	andeq	r3, r3, r0, lsl #8
    32c0:	00034300 	andeq	r4, r3, r0, lsl #6
    32c4:	52000100 	andpl	r0, r0, #0, 2
    32c8:	00000343 	andeq	r0, r0, r3, asr #6
    32cc:	0000034c 	andeq	r0, r0, ip, asr #6
    32d0:	01f30018 	mvnseq	r0, r8, lsl r0
    32d4:	3a1a3750 	bcc	69101c <_back_addr-0xe6efe4>
    32d8:	5001f324 	andpl	pc, r1, r4, lsr #6
    32dc:	0924f709 	stmdbeq	r4!, {r0, r3, r8, r9, sl, ip, sp, lr, pc}
    32e0:	0c2125fa 	cfstr32eq	mvfx2, [r1], #-1000	; 0xfffffc18
    32e4:	00c0e000 	sbceq	lr, r0, r0
    32e8:	00009f21 	andeq	r9, r0, r1, lsr #30
    32ec:	00000000 	andeq	r0, r0, r0
    32f0:	03780000 	cmneq	r8, #0
    32f4:	03880000 	orreq	r0, r8, #0
    32f8:	00010000 	andeq	r0, r1, r0
    32fc:	00038850 	andeq	r8, r3, r0, asr r8
    3300:	0003e400 	andeq	lr, r3, r0, lsl #8
    3304:	56000100 	strpl	r0, [r0], -r0, lsl #2
    3308:	000003e4 	andeq	r0, r0, r4, ror #7
    330c:	000003e8 	andeq	r0, r0, r8, ror #7
    3310:	01f30004 	mvnseq	r0, r4
    3314:	00009f50 	andeq	r9, r0, r0, asr pc
    3318:	00000000 	andeq	r0, r0, r0
    331c:	03780000 	cmneq	r8, #0
    3320:	038f0000 	orreq	r0, pc, #0
    3324:	00010000 	andeq	r0, r1, r0
    3328:	00038f51 	andeq	r8, r3, r1, asr pc
    332c:	00039400 	andeq	r9, r3, r0, lsl #8
    3330:	55000100 	strpl	r0, [r0, #-256]	; 0x100
    3334:	00000394 	muleq	r0, r4, r3
    3338:	000003e8 	andeq	r0, r0, r8, ror #7
    333c:	01f30004 	mvnseq	r0, r4
    3340:	00009f51 	andeq	r9, r0, r1, asr pc
    3344:	00000000 	andeq	r0, r0, r0
    3348:	03780000 	cmneq	r8, #0
    334c:	038f0000 	orreq	r0, pc, #0
    3350:	00010000 	andeq	r0, r1, r0
    3354:	00038f52 	andeq	r8, r3, r2, asr pc
    3358:	0003e400 	andeq	lr, r3, r0, lsl #8
    335c:	57000100 	strpl	r0, [r0, -r0, lsl #2]
    3360:	000003e4 	andeq	r0, r0, r4, ror #7
    3364:	000003e8 	andeq	r0, r0, r8, ror #7
    3368:	01f30004 	mvnseq	r0, r4
    336c:	00009f52 	andeq	r9, r0, r2, asr pc
    3370:	00000000 	andeq	r0, r0, r0
    3374:	03900000 	orrseq	r0, r0, #0
    3378:	03a40000 			; <UNDEFINED> instruction: 0x03a40000
    337c:	00020000 	andeq	r0, r2, r0
    3380:	03a49f30 			; <UNDEFINED> instruction: 0x03a49f30
    3384:	03d00000 	bicseq	r0, r0, #0
    3388:	00010000 	andeq	r0, r1, r0
    338c:	0003d054 	andeq	sp, r3, r4, asr r0
    3390:	0003d400 	andeq	sp, r3, r0, lsl #8
    3394:	74000300 	strvc	r0, [r0], #-768	; 0x300
    3398:	03d49f7f 	bicseq	r9, r4, #508	; 0x1fc
    339c:	03e00000 	mvneq	r0, #0
    33a0:	00010000 	andeq	r0, r1, r0
    33a4:	00000054 	andeq	r0, r0, r4, asr r0
    33a8:	00000000 	andeq	r0, r0, r0
    33ac:	00039000 	andeq	r9, r3, r0
    33b0:	0003a400 	andeq	sl, r3, r0, lsl #8
    33b4:	30000200 	andcc	r0, r0, r0, lsl #4
    33b8:	0003b09f 	muleq	r3, pc, r0	; <UNPREDICTABLE>
    33bc:	0003b800 	andeq	fp, r3, r0, lsl #16
    33c0:	53000100 	movwpl	r0, #256	; 0x100
    33c4:	000003dc 	ldrdeq	r0, [r0], -ip
    33c8:	000003e0 	andeq	r0, r0, r0, ror #7
    33cc:	00530001 	subseq	r0, r3, r1
    33d0:	00000000 	andeq	r0, r0, r0
    33d4:	78000000 	stmdavc	r0, {}	; <UNPREDICTABLE>
    33d8:	a4000003 	strge	r0, [r0], #-3
    33dc:	02000003 	andeq	r0, r0, #3
    33e0:	b49f3000 	ldrlt	r3, [pc], #0	; 33e8 <_back_addr-0x14fcc18>
    33e4:	b8000003 	stmdalt	r0, {r0, r1}
    33e8:	12000003 	andne	r0, r0, #3
    33ec:	73007700 	movwvc	r7, #1792	; 0x700
    33f0:	01942200 	orrseq	r2, r4, r0, lsl #4
    33f4:	741aff08 	ldrvc	pc, [sl], #-3848	; 0xf08
    33f8:	261a3700 	ldrcs	r3, [sl], -r0, lsl #14
    33fc:	009f1a31 	addseq	r1, pc, r1, lsr sl	; <UNPREDICTABLE>
    3400:	00000000 	andeq	r0, r0, r0
    3404:	78000000 	stmdavc	r0, {}	; <UNPREDICTABLE>
    3408:	a4000003 	strge	r0, [r0], #-3
    340c:	02000003 	andeq	r0, r0, #3
    3410:	a49f3000 	ldrge	r3, [pc], #0	; 3418 <_back_addr-0x14fcbe8>
    3414:	b4000003 	strlt	r0, [r0], #-3
    3418:	01000003 	tsteq	r0, r3
    341c:	03b45000 			; <UNDEFINED> instruction: 0x03b45000
    3420:	03bc0000 			; <UNDEFINED> instruction: 0x03bc0000
    3424:	00050000 	andeq	r0, r5, r0
    3428:	1a370074 	bne	dc3600 <_back_addr-0x73ca00>
    342c:	0003bc9f 	muleq	r3, pc, ip	; <UNPREDICTABLE>
    3430:	0003cc00 	andeq	ip, r3, r0, lsl #24
    3434:	50000100 	andpl	r0, r0, r0, lsl #2
    3438:	000003cc 	andeq	r0, r0, ip, asr #7
    343c:	000003d0 	ldrdeq	r0, [r0], -r0	; <UNPREDICTABLE>
    3440:	00740005 	rsbseq	r0, r4, r5
    3444:	d09f1a37 	addsle	r1, pc, r7, lsr sl	; <UNPREDICTABLE>
    3448:	e0000003 	and	r0, r0, r3
    344c:	05000003 	streq	r0, [r0, #-3]
    3450:	377f7400 	ldrbcc	r7, [pc, -r0, lsl #8]!
    3454:	00009f1a 	andeq	r9, r0, sl, lsl pc
    3458:	00000000 	andeq	r0, r0, r0
    345c:	04080000 	streq	r0, [r8], #-0
    3460:	04340000 	ldrteq	r0, [r4], #-0
    3464:	00010000 	andeq	r0, r1, r0
    3468:	00043450 	andeq	r3, r4, r0, asr r4
    346c:	00043800 	andeq	r3, r4, r0, lsl #16
    3470:	7e000400 	cfcpysvc	mvf0, mvf0
    3474:	389f2080 	ldmcc	pc, {r7, sp}	; <UNPREDICTABLE>
    3478:	3b000004 	blcc	3490 <_back_addr-0x14fcb70>
    347c:	01000004 	tsteq	r0, r4
    3480:	043b5000 	ldrteq	r5, [fp], #-0
    3484:	04440000 	strbeq	r0, [r4], #-0
    3488:	00040000 	andeq	r0, r4, r0
    348c:	9f5001f3 	svcls	0x005001f3
	...
    3498:	00000408 	andeq	r0, r0, r8, lsl #8
    349c:	0000043b 	andeq	r0, r0, fp, lsr r4
    34a0:	3b510001 	blcc	14434ac <_back_addr-0xbcb54>
    34a4:	44000004 	strmi	r0, [r0], #-4
    34a8:	01000004 	tsteq	r0, r4
    34ac:	00005400 	andeq	r5, r0, r0, lsl #8
    34b0:	00000000 	andeq	r0, r0, r0
    34b4:	04080000 	streq	r0, [r8], #-0
    34b8:	043b0000 	ldrteq	r0, [fp], #-0
    34bc:	00010000 	andeq	r0, r1, r0
    34c0:	00043b52 	andeq	r3, r4, r2, asr fp
    34c4:	00044400 	andeq	r4, r4, r0, lsl #8
    34c8:	f3000400 	vshl.u8	d0, d0, d0
    34cc:	009f5201 	addseq	r5, pc, r1, lsl #4
    34d0:	00000000 	andeq	r0, r0, r0
    34d4:	44000000 	strmi	r0, [r0], #-0
    34d8:	68000004 	stmdavs	r0, {r2}
    34dc:	01000004 	tsteq	r0, r4
    34e0:	04685000 	strbteq	r5, [r8], #-0
    34e4:	04740000 	ldrbteq	r0, [r4], #-0
    34e8:	00040000 	andeq	r0, r4, r0
    34ec:	9f5001f3 	svcls	0x005001f3
    34f0:	00000474 	andeq	r0, r0, r4, ror r4
    34f4:	00000480 	andeq	r0, r0, r0, lsl #9
    34f8:	80500001 	subshi	r0, r0, r1
    34fc:	8c000004 	stchi	0, cr0, [r0], {4}
    3500:	04000004 	streq	r0, [r0], #-4
    3504:	5001f300 	andpl	pc, r1, r0, lsl #6
    3508:	00048c9f 	muleq	r4, pc, ip	; <UNPREDICTABLE>
    350c:	00049800 	andeq	r9, r4, r0, lsl #16
    3510:	50000100 	andpl	r0, r0, r0, lsl #2
    3514:	00000498 	muleq	r0, r8, r4
    3518:	000004b0 			; <UNDEFINED> instruction: 0x000004b0
    351c:	01f30004 	mvnseq	r0, r4
    3520:	00009f50 	andeq	r9, r0, r0, asr pc
    3524:	00000000 	andeq	r0, r0, r0
    3528:	05f00000 	ldrbeq	r0, [r0, #0]!
    352c:	06080000 	streq	r0, [r8], -r0
    3530:	00010000 	andeq	r0, r1, r0
    3534:	00060850 	andeq	r0, r6, r0, asr r8
    3538:	00062800 	andeq	r2, r6, r0, lsl #16
    353c:	f3000400 	vshl.u8	d0, d0, d0
    3540:	289f5001 	ldmcs	pc, {r0, ip, lr}	; <UNPREDICTABLE>
    3544:	2c000006 	stccs	0, cr0, [r0], {6}
    3548:	01000006 	tsteq	r0, r6
    354c:	062c5000 	strteq	r5, [ip], -r0
    3550:	065c0000 	ldrbeq	r0, [ip], -r0
    3554:	00040000 	andeq	r0, r4, r0
    3558:	9f5001f3 	svcls	0x005001f3
	...
    3564:	00000604 	andeq	r0, r0, r4, lsl #12
    3568:	00000628 	andeq	r0, r0, r8, lsr #12
    356c:	3c540001 	mrrccc	0, 0, r0, r4, cr1
    3570:	5c000006 	stcpl	0, cr0, [r0], {6}
    3574:	01000006 	tsteq	r0, r6
    3578:	00005400 	andeq	r5, r0, r0, lsl #8
    357c:	00000000 	andeq	r0, r0, r0
    3580:	065c0000 	ldrbeq	r0, [ip], -r0
    3584:	06740000 	ldrbteq	r0, [r4], -r0
    3588:	00010000 	andeq	r0, r1, r0
    358c:	00067450 	andeq	r7, r6, r0, asr r4
    3590:	00069400 	andeq	r9, r6, r0, lsl #8
    3594:	f3000400 	vshl.u8	d0, d0, d0
    3598:	949f5001 	ldrls	r5, [pc], #1	; 35a0 <_back_addr-0x14fca60>
    359c:	98000006 	stmdals	r0, {r1, r2}
    35a0:	01000006 	tsteq	r0, r6
    35a4:	06985000 	ldreq	r5, [r8], r0
    35a8:	06c80000 	strbeq	r0, [r8], r0
    35ac:	00040000 	andeq	r0, r4, r0
    35b0:	9f5001f3 	svcls	0x005001f3
	...
    35bc:	00000670 	andeq	r0, r0, r0, ror r6
    35c0:	00000694 	muleq	r0, r4, r6
    35c4:	a8540001 	ldmdage	r4, {r0}^
    35c8:	c8000006 	stmdagt	r0, {r1, r2}
    35cc:	01000006 	tsteq	r0, r6
    35d0:	00005400 	andeq	r5, r0, r0, lsl #8
    35d4:	00000000 	andeq	r0, r0, r0
    35d8:	07640000 	strbeq	r0, [r4, -r0]!
    35dc:	076c0000 	strbeq	r0, [ip, -r0]!
    35e0:	00010000 	andeq	r0, r1, r0
    35e4:	00076c50 	andeq	r6, r7, r0, asr ip
    35e8:	0007e400 	andeq	lr, r7, r0, lsl #8
    35ec:	f3000400 	vshl.u8	d0, d0, d0
    35f0:	009f5001 	addseq	r5, pc, r1
    35f4:	00000000 	andeq	r0, r0, r0
    35f8:	64000000 	strvs	r0, [r0], #-0
    35fc:	8c000007 	stchi	0, cr0, [r0], {7}
    3600:	01000007 	tsteq	r0, r7
    3604:	078c5100 	streq	r5, [ip, r0, lsl #2]
    3608:	07dc0000 	ldrbeq	r0, [ip, r0]
    360c:	00040000 	andeq	r0, r4, r0
    3610:	9f5101f3 	svcls	0x005101f3
    3614:	000007dc 	ldrdeq	r0, [r0], -ip
    3618:	000007e4 	andeq	r0, r0, r4, ror #15
    361c:	00510001 	subseq	r0, r1, r1
    3620:	00000000 	andeq	r0, r0, r0
    3624:	64000000 	strvs	r0, [r0], #-0
    3628:	84000007 	strhi	r0, [r0], #-7
    362c:	01000007 	tsteq	r0, r7
    3630:	07845200 	streq	r5, [r4, r0, lsl #4]
    3634:	07dc0000 	ldrbeq	r0, [ip, r0]
    3638:	00040000 	andeq	r0, r4, r0
    363c:	9f5201f3 	svcls	0x005201f3
    3640:	000007dc 	ldrdeq	r0, [r0], -ip
    3644:	000007e4 	andeq	r0, r0, r4, ror #15
    3648:	00520001 	subseq	r0, r2, r1
    364c:	00000000 	andeq	r0, r0, r0
    3650:	64000000 	strvs	r0, [r0], #-0
    3654:	8c000007 	stchi	0, cr0, [r0], {7}
    3658:	02000007 	andeq	r0, r0, #7
    365c:	dc9f3000 	ldcle	0, cr3, [pc], {0}
    3660:	e4000007 	str	r0, [r0], #-7
    3664:	02000007 	andeq	r0, r0, #7
    3668:	009f3000 	addseq	r3, pc, r0
    366c:	00000000 	andeq	r0, r0, r0
    3670:	6c000000 	stcvs	0, cr0, [r0], {-0}
    3674:	74000007 	strvc	r0, [r0], #-7
    3678:	07000007 	streq	r0, [r0, -r7]
    367c:	e0807000 	add	r7, r0, r0
    3680:	9f79c085 	svcls	0x0079c085
    3684:	00000774 	andeq	r0, r0, r4, ror r7
    3688:	00000788 	andeq	r0, r0, r8, lsl #15
    368c:	80700007 	rsbshi	r0, r0, r7
    3690:	7a8085e0 	bvc	fe024e18 <__bss_end__+0xfcb11400>
    3694:	0007889f 	muleq	r7, pc, r8	; <UNPREDICTABLE>
    3698:	00078c00 	andeq	r8, r7, r0, lsl #24
    369c:	70000700 	andvc	r0, r0, r0, lsl #14
    36a0:	80808080 	addhi	r8, r0, r0, lsl #1
    36a4:	078c9f7a 			; <UNDEFINED> instruction: 0x078c9f7a
    36a8:	07dc0000 	ldrbeq	r0, [ip, r0]
    36ac:	000d0000 	andeq	r0, sp, r0
    36b0:	095001f3 	ldmdbeq	r0, {r0, r1, r4, r5, r6, r7, r8}^
    36b4:	000c1afc 	strdeq	r1, [ip], -ip
    36b8:	1c67fe90 	stclne	14, cr15, [r7], #-576	; 0xfffffdc0
    36bc:	0007dc9f 	muleq	r7, pc, ip	; <UNPREDICTABLE>
    36c0:	0007e000 	andeq	lr, r7, r0
    36c4:	70000700 	andvc	r0, r0, r0, lsl #14
    36c8:	c085e080 	addgt	lr, r5, r0, lsl #1
    36cc:	07e09f79 			; <UNDEFINED> instruction: 0x07e09f79
    36d0:	07e40000 	strbeq	r0, [r4, r0]!
    36d4:	000d0000 	andeq	r0, sp, r0
    36d8:	095001f3 	ldmdbeq	r0, {r0, r1, r4, r5, r6, r7, r8}^
    36dc:	000c1afc 	strdeq	r1, [ip], -ip
    36e0:	1c67fe90 	stclne	14, cr15, [r7], #-576	; 0xfffffdc0
    36e4:	0000009f 	muleq	r0, pc, r0	; <UNPREDICTABLE>
    36e8:	00000000 	andeq	r0, r0, r0
    36ec:	00078c00 	andeq	r8, r7, r0, lsl #24
    36f0:	00079400 	andeq	r9, r7, r0, lsl #8
    36f4:	70000700 	andvc	r0, r0, r0, lsl #14
    36f8:	80808080 	addhi	r8, r0, r0, lsl #1
    36fc:	07949f7a 			; <UNDEFINED> instruction: 0x07949f7a
    3700:	07a00000 	streq	r0, [r0, r0]!
    3704:	00070000 	andeq	r0, r7, r0
    3708:	fffffc70 			; <UNDEFINED> instruction: 0xfffffc70
    370c:	a09f79ff 			; <UNDEFINED> instruction: 0xa09f79ff
    3710:	b4000007 	strlt	r0, [r0], #-7
    3714:	07000007 	streq	r0, [r0, -r7]
    3718:	80807000 	addhi	r7, r0, r0
    371c:	9f7a8080 	svcls	0x007a8080
    3720:	000007b4 			; <UNDEFINED> instruction: 0x000007b4
    3724:	000007d4 	ldrdeq	r0, [r0], -r4
    3728:	005e0001 	subseq	r0, lr, r1
    372c:	00000000 	andeq	r0, r0, r0
    3730:	ac000000 	stcge	0, cr0, [r0], {-0}
    3734:	b4000007 	strlt	r0, [r0], #-7
    3738:	07000007 	streq	r0, [r0, -r7]
    373c:	80807000 	addhi	r7, r0, r0
    3740:	9f7a8080 	svcls	0x007a8080
    3744:	000007b4 			; <UNDEFINED> instruction: 0x000007b4
    3748:	000007d4 	ldrdeq	r0, [r0], -r4
    374c:	005e0001 	subseq	r0, lr, r1
    3750:	00000000 	andeq	r0, r0, r0
    3754:	e4000000 	str	r0, [r0], #-0
    3758:	ec000007 	stc	0, cr0, [r0], {7}
    375c:	01000007 	tsteq	r0, r7
    3760:	07ec5000 	strbeq	r5, [ip, r0]!
    3764:	08380000 	ldmdaeq	r8!, {}	; <UNPREDICTABLE>
    3768:	00040000 	andeq	r0, r4, r0
    376c:	9f5001f3 	svcls	0x005001f3
	...
    3778:	000007e4 	andeq	r0, r0, r4, ror #15
    377c:	000007f8 	strdeq	r0, [r0], -r8
    3780:	f8510001 			; <UNDEFINED> instruction: 0xf8510001
    3784:	30000007 	andcc	r0, r0, r7
    3788:	04000008 	streq	r0, [r0], #-8
    378c:	5101f300 	mrspl	pc, SP_irq	; <UNPREDICTABLE>
    3790:	0008309f 	muleq	r8, pc, r0	; <UNPREDICTABLE>
    3794:	00083800 	andeq	r3, r8, r0, lsl #16
    3798:	51000100 	mrspl	r0, (UNDEF: 16)
	...
    37a4:	000007e4 	andeq	r0, r0, r4, ror #15
    37a8:	000007f8 	strdeq	r0, [r0], -r8
    37ac:	9f300002 	svcls	0x00300002
    37b0:	000007f8 	strdeq	r0, [r0], -r8
    37b4:	00000830 	andeq	r0, r0, r0, lsr r8
    37b8:	00710007 	rsbseq	r0, r1, r7
    37bc:	1c5101f3 	ldfnee	f0, [r1], {243}	; 0xf3
    37c0:	0008309f 	muleq	r8, pc, r0	; <UNPREDICTABLE>
    37c4:	00083800 	andeq	r3, r8, r0, lsl #16
    37c8:	30000200 	andcc	r0, r0, r0, lsl #4
    37cc:	0000009f 	muleq	r0, pc, r0	; <UNPREDICTABLE>
    37d0:	00000000 	andeq	r0, r0, r0
    37d4:	0007e400 	andeq	lr, r7, r0, lsl #8
    37d8:	0007f800 	andeq	pc, r7, r0, lsl #16
    37dc:	30000200 	andcc	r0, r0, r0, lsl #4
    37e0:	0008309f 	muleq	r8, pc, r0	; <UNPREDICTABLE>
    37e4:	00083800 	andeq	r3, r8, r0, lsl #16
    37e8:	30000200 	andcc	r0, r0, r0, lsl #4
    37ec:	0000009f 	muleq	r0, pc, r0	; <UNPREDICTABLE>
    37f0:	00000000 	andeq	r0, r0, r0
    37f4:	0007e400 	andeq	lr, r7, r0, lsl #8
    37f8:	0007ec00 	andeq	lr, r7, r0, lsl #24
    37fc:	30000200 	andcc	r0, r0, r0, lsl #4
    3800:	0007ec9f 	muleq	r7, pc, ip	; <UNPREDICTABLE>
    3804:	0007f800 	andeq	pc, r7, r0, lsl #16
    3808:	50000100 	andpl	r0, r0, r0, lsl #2
    380c:	000007f8 	strdeq	r0, [r0], -r8
    3810:	00000830 	andeq	r0, r0, r0, lsr r8
    3814:	01f30007 	mvnseq	r0, r7
    3818:	1afc0950 	bne	fff05d60 <__bss_end__+0xfe9f2348>
    381c:	0008309f 	muleq	r8, pc, r0	; <UNPREDICTABLE>
    3820:	00083400 	andeq	r3, r8, r0, lsl #8
    3824:	50000100 	andpl	r0, r0, r0, lsl #2
    3828:	00000834 	andeq	r0, r0, r4, lsr r8
    382c:	00000838 	andeq	r0, r0, r8, lsr r8
    3830:	01f30007 	mvnseq	r0, r7
    3834:	1afc0950 	bne	fff05d7c <__bss_end__+0xfe9f2364>
    3838:	0000009f 	muleq	r0, pc, r0	; <UNPREDICTABLE>
    383c:	00000000 	andeq	r0, r0, r0
    3840:	00083800 	andeq	r3, r8, r0, lsl #16
    3844:	00086000 	andeq	r6, r8, r0
    3848:	50000100 	andpl	r0, r0, r0, lsl #2
    384c:	00000860 	andeq	r0, r0, r0, ror #16
    3850:	00000864 	andeq	r0, r0, r4, ror #16
    3854:	807e0004 	rsbshi	r0, lr, r4
    3858:	08649f20 	stmdaeq	r4!, {r5, r8, r9, sl, fp, ip, pc}^
    385c:	08730000 	ldmdaeq	r3!, {}^	; <UNPREDICTABLE>
    3860:	00010000 	andeq	r0, r1, r0
    3864:	00087350 	andeq	r7, r8, r0, asr r3
    3868:	00087c00 	andeq	r7, r8, r0, lsl #24
    386c:	f3000400 	vshl.u8	d0, d0, d0
    3870:	009f5001 	addseq	r5, pc, r1
    3874:	00000000 	andeq	r0, r0, r0
    3878:	38000000 	stmdacc	r0, {}	; <UNPREDICTABLE>
    387c:	70000008 	andvc	r0, r0, r8
    3880:	01000008 	tsteq	r0, r8
    3884:	08705100 	ldmdaeq	r0!, {r8, ip, lr}^
    3888:	08730000 	ldmdaeq	r3!, {}^	; <UNPREDICTABLE>
    388c:	00010000 	andeq	r0, r1, r0
    3890:	00087352 	andeq	r7, r8, r2, asr r3
    3894:	00087c00 	andeq	r7, r8, r0, lsl #24
    3898:	f3000400 	vshl.u8	d0, d0, d0
    389c:	009f5101 	addseq	r5, pc, r1, lsl #2
    38a0:	00000000 	andeq	r0, r0, r0
    38a4:	38000000 	stmdacc	r0, {}	; <UNPREDICTABLE>
    38a8:	6c000008 	stcvs	0, cr0, [r0], {8}
    38ac:	01000008 	tsteq	r0, r8
    38b0:	086c5200 	stmdaeq	ip!, {r9, ip, lr}^
    38b4:	08730000 	ldmdaeq	r3!, {}^	; <UNPREDICTABLE>
    38b8:	00010000 	andeq	r0, r1, r0
    38bc:	00087353 	andeq	r7, r8, r3, asr r3
    38c0:	00087c00 	andeq	r7, r8, r0, lsl #24
    38c4:	f3000400 	vshl.u8	d0, d0, d0
    38c8:	009f5201 	addseq	r5, pc, r1, lsl #4
    38cc:	00000000 	andeq	r0, r0, r0
    38d0:	Address 0x000038d0 is out of bounds.


Disassembly of section .debug_ranges:

00000000 <.debug_ranges>:
   0:	00000070 	andeq	r0, r0, r0, ror r0
   4:	0000007c 	andeq	r0, r0, ip, ror r0
   8:	00000080 	andeq	r0, r0, r0, lsl #1
   c:	00000088 	andeq	r0, r0, r8, lsl #1
	...
  18:	0000007c 	andeq	r0, r0, ip, ror r0
  1c:	00000080 	andeq	r0, r0, r0, lsl #1
  20:	00000088 	andeq	r0, r0, r8, lsl #1
  24:	0000008c 	andeq	r0, r0, ip, lsl #1
	...
  30:	000000b0 	strheq	r0, [r0], -r0	; <UNPREDICTABLE>
  34:	000000b8 	strheq	r0, [r0], -r8
  38:	000000c0 	andeq	r0, r0, r0, asr #1
  3c:	000000c4 	andeq	r0, r0, r4, asr #1
  40:	000000c8 	andeq	r0, r0, r8, asr #1
  44:	000000cc 	andeq	r0, r0, ip, asr #1
	...
  50:	000000b8 	strheq	r0, [r0], -r8
  54:	000000bc 	strheq	r0, [r0], -ip
  58:	000000d8 	ldrdeq	r0, [r0], -r8
  5c:	000000dc 	ldrdeq	r0, [r0], -ip
	...
  68:	000000c4 	andeq	r0, r0, r4, asr #1
  6c:	000000c8 	andeq	r0, r0, r8, asr #1
  70:	000000d0 	ldrdeq	r0, [r0], -r0	; <UNPREDICTABLE>
  74:	000000d4 	ldrdeq	r0, [r0], -r4
	...
  80:	00000104 	andeq	r0, r0, r4, lsl #2
  84:	00000108 	andeq	r0, r0, r8, lsl #2
  88:	00000130 	andeq	r0, r0, r0, lsr r1
  8c:	0000013c 	andeq	r0, r0, ip, lsr r1
	...
  98:	0000015c 	andeq	r0, r0, ip, asr r1
  9c:	00000168 	andeq	r0, r0, r8, ror #2
  a0:	0000016c 	andeq	r0, r0, ip, ror #2
  a4:	00000170 	andeq	r0, r0, r0, ror r1
	...
  b0:	00000168 	andeq	r0, r0, r8, ror #2
  b4:	0000016c 	andeq	r0, r0, ip, ror #2
  b8:	00000170 	andeq	r0, r0, r0, ror r1
  bc:	00000178 	andeq	r0, r0, r8, ror r1
	...
  c8:	0000018c 	andeq	r0, r0, ip, lsl #3
  cc:	00000190 	muleq	r0, r0, r1
  d0:	00000194 	muleq	r0, r4, r1
  d4:	00000198 	muleq	r0, r8, r1
	...
  e0:	00000190 	muleq	r0, r0, r1
  e4:	00000194 	muleq	r0, r4, r1
  e8:	0000019c 	muleq	r0, ip, r1
  ec:	000001a4 	andeq	r0, r0, r4, lsr #3
	...
  f8:	000001bc 			; <UNDEFINED> instruction: 0x000001bc
  fc:	000001c4 	andeq	r0, r0, r4, asr #3
 100:	000001d8 	ldrdeq	r0, [r0], -r8
 104:	000001ec 	andeq	r0, r0, ip, ror #3
 108:	000002ec 	andeq	r0, r0, ip, ror #5
 10c:	000002fc 	strdeq	r0, [r0], -ip
	...
 118:	000001e0 	andeq	r0, r0, r0, ror #3
 11c:	000001ec 	andeq	r0, r0, ip, ror #3
 120:	000002ec 	andeq	r0, r0, ip, ror #5
 124:	000002fc 	strdeq	r0, [r0], -ip
	...
 130:	000001f8 	strdeq	r0, [r0], -r8
 134:	0000020c 	andeq	r0, r0, ip, lsl #4
 138:	0000040c 	andeq	r0, r0, ip, lsl #8
 13c:	00000424 	andeq	r0, r0, r4, lsr #8
	...
 148:	00000208 	andeq	r0, r0, r8, lsl #4
 14c:	0000020c 	andeq	r0, r0, ip, lsl #4
 150:	0000040c 	andeq	r0, r0, ip, lsl #8
 154:	00000424 	andeq	r0, r0, r4, lsr #8
	...
 160:	0000020c 	andeq	r0, r0, ip, lsl #4
 164:	0000021c 	andeq	r0, r0, ip, lsl r2
 168:	000003f4 	strdeq	r0, [r0], -r4
 16c:	0000040c 	andeq	r0, r0, ip, lsl #8
	...
 178:	00000218 	andeq	r0, r0, r8, lsl r2
 17c:	0000021c 	andeq	r0, r0, ip, lsl r2
 180:	000003f4 	strdeq	r0, [r0], -r4
 184:	0000040c 	andeq	r0, r0, ip, lsl #8
	...
 190:	0000021c 	andeq	r0, r0, ip, lsl r2
 194:	0000022c 	andeq	r0, r0, ip, lsr #4
 198:	000003dc 	ldrdeq	r0, [r0], -ip
 19c:	000003f4 	strdeq	r0, [r0], -r4
	...
 1a8:	00000228 	andeq	r0, r0, r8, lsr #4
 1ac:	0000022c 	andeq	r0, r0, ip, lsr #4
 1b0:	000003dc 	ldrdeq	r0, [r0], -ip
 1b4:	000003f4 	strdeq	r0, [r0], -r4
	...
 1c0:	0000022c 	andeq	r0, r0, ip, lsr #4
 1c4:	00000244 	andeq	r0, r0, r4, asr #4
 1c8:	000003c4 	andeq	r0, r0, r4, asr #7
 1cc:	000003dc 	ldrdeq	r0, [r0], -ip
	...
 1d8:	0000023c 	andeq	r0, r0, ip, lsr r2
 1dc:	00000244 	andeq	r0, r0, r4, asr #4
 1e0:	000003c4 	andeq	r0, r0, r4, asr #7
 1e4:	000003dc 	ldrdeq	r0, [r0], -ip
	...
 1f0:	00000244 	andeq	r0, r0, r4, asr #4
 1f4:	00000254 	andeq	r0, r0, r4, asr r2
 1f8:	000003ac 	andeq	r0, r0, ip, lsr #7
 1fc:	000003c4 	andeq	r0, r0, r4, asr #7
	...
 208:	00000250 	andeq	r0, r0, r0, asr r2
 20c:	00000254 	andeq	r0, r0, r4, asr r2
 210:	000003ac 	andeq	r0, r0, ip, lsr #7
 214:	000003c4 	andeq	r0, r0, r4, asr #7
	...
 220:	00000254 	andeq	r0, r0, r4, asr r2
 224:	0000026c 	andeq	r0, r0, ip, ror #4
 228:	00000394 	muleq	r0, r4, r3
 22c:	000003ac 	andeq	r0, r0, ip, lsr #7
	...
 238:	00000264 	andeq	r0, r0, r4, ror #4
 23c:	0000026c 	andeq	r0, r0, ip, ror #4
 240:	00000394 	muleq	r0, r4, r3
 244:	000003ac 	andeq	r0, r0, ip, lsr #7
	...
 250:	0000026c 	andeq	r0, r0, ip, ror #4
 254:	0000027c 	andeq	r0, r0, ip, ror r2
 258:	0000037c 	andeq	r0, r0, ip, ror r3
 25c:	00000394 	muleq	r0, r4, r3
	...
 268:	00000278 	andeq	r0, r0, r8, ror r2
 26c:	0000027c 	andeq	r0, r0, ip, ror r2
 270:	0000037c 	andeq	r0, r0, ip, ror r3
 274:	00000394 	muleq	r0, r4, r3
	...
 280:	0000027c 	andeq	r0, r0, ip, ror r2
 284:	00000294 	muleq	r0, r4, r2
 288:	00000364 	andeq	r0, r0, r4, ror #6
 28c:	0000037c 	andeq	r0, r0, ip, ror r3
	...
 298:	0000028c 	andeq	r0, r0, ip, lsl #5
 29c:	00000294 	muleq	r0, r4, r2
 2a0:	00000364 	andeq	r0, r0, r4, ror #6
 2a4:	0000037c 	andeq	r0, r0, ip, ror r3
	...
 2b0:	00000294 	muleq	r0, r4, r2
 2b4:	00000298 	muleq	r0, r8, r2
 2b8:	0000029c 	muleq	r0, ip, r2
 2bc:	000002a4 	andeq	r0, r0, r4, lsr #5
 2c0:	0000034c 	andeq	r0, r0, ip, asr #6
 2c4:	00000364 	andeq	r0, r0, r4, ror #6
	...
 2d0:	000002a0 	andeq	r0, r0, r0, lsr #5
 2d4:	000002a4 	andeq	r0, r0, r4, lsr #5
 2d8:	0000034c 	andeq	r0, r0, ip, asr #6
 2dc:	00000364 	andeq	r0, r0, r4, ror #6
	...
 2e8:	000002a4 	andeq	r0, r0, r4, lsr #5
 2ec:	000002a8 	andeq	r0, r0, r8, lsr #5
 2f0:	000002ac 	andeq	r0, r0, ip, lsr #5
 2f4:	000002b4 			; <UNDEFINED> instruction: 0x000002b4
 2f8:	00000334 	andeq	r0, r0, r4, lsr r3
 2fc:	0000034c 	andeq	r0, r0, ip, asr #6
	...
 308:	000002b0 			; <UNDEFINED> instruction: 0x000002b0
 30c:	000002b4 			; <UNDEFINED> instruction: 0x000002b4
 310:	00000334 	andeq	r0, r0, r4, lsr r3
 314:	0000034c 	andeq	r0, r0, ip, asr #6
	...
 320:	000002b4 			; <UNDEFINED> instruction: 0x000002b4
 324:	000002b8 			; <UNDEFINED> instruction: 0x000002b8
 328:	000002bc 			; <UNDEFINED> instruction: 0x000002bc
 32c:	000002c4 	andeq	r0, r0, r4, asr #5
 330:	0000031c 	andeq	r0, r0, ip, lsl r3
 334:	00000334 	andeq	r0, r0, r4, lsr r3
	...
 340:	000002c0 	andeq	r0, r0, r0, asr #5
 344:	000002c4 	andeq	r0, r0, r4, asr #5
 348:	0000031c 	andeq	r0, r0, ip, lsl r3
 34c:	00000334 	andeq	r0, r0, r4, lsr r3
	...
 358:	000002c4 	andeq	r0, r0, r4, asr #5
 35c:	000002c8 	andeq	r0, r0, r8, asr #5
 360:	000002cc 	andeq	r0, r0, ip, asr #5
 364:	000002d0 	ldrdeq	r0, [r0], -r0	; <UNPREDICTABLE>
 368:	000002d4 	ldrdeq	r0, [r0], -r4
 36c:	000002d8 	ldrdeq	r0, [r0], -r8
 370:	000002fc 	strdeq	r0, [r0], -ip
 374:	00000310 	andeq	r0, r0, r0, lsl r3
	...
 380:	000002d4 	ldrdeq	r0, [r0], -r4
 384:	000002d8 	ldrdeq	r0, [r0], -r8
 388:	000002fc 	strdeq	r0, [r0], -ip
 38c:	00000310 	andeq	r0, r0, r0, lsl r3
	...
 398:	000007b4 			; <UNDEFINED> instruction: 0x000007b4
 39c:	000007cc 	andeq	r0, r0, ip, asr #15
 3a0:	000007d4 	ldrdeq	r0, [r0], -r4
 3a4:	000007dc 	ldrdeq	r0, [r0], -ip
 3a8:	000007e0 	andeq	r0, r0, r0, ror #15
 3ac:	00000848 	andeq	r0, r0, r8, asr #16
	...
 3b8:	00000974 	andeq	r0, r0, r4, ror r9
 3bc:	0000097c 	andeq	r0, r0, ip, ror r9
 3c0:	00000980 	andeq	r0, r0, r0, lsl #19
 3c4:	00000984 	andeq	r0, r0, r4, lsl #19
 3c8:	00000988 	andeq	r0, r0, r8, lsl #19
 3cc:	0000098c 	andeq	r0, r0, ip, lsl #19
	...
 3d8:	00000984 	andeq	r0, r0, r4, lsl #19
 3dc:	00000988 	andeq	r0, r0, r8, lsl #19
 3e0:	0000098c 	andeq	r0, r0, ip, lsl #19
 3e4:	00000990 	muleq	r0, r0, r9
	...
 3f0:	00000a0c 	andeq	r0, r0, ip, lsl #20
 3f4:	00000a14 	andeq	r0, r0, r4, lsl sl
 3f8:	00000a20 	andeq	r0, r0, r0, lsr #20
 3fc:	00000a24 	andeq	r0, r0, r4, lsr #20
	...
 408:	00000a30 	andeq	r0, r0, r0, lsr sl
 40c:	00000a34 	andeq	r0, r0, r4, lsr sl
 410:	00000a54 	andeq	r0, r0, r4, asr sl
 414:	00000a58 	andeq	r0, r0, r8, asr sl
	...
 420:	000003c4 	andeq	r0, r0, r4, asr #7
 424:	00000600 	andeq	r0, r0, r0, lsl #12
 428:	00000608 	andeq	r0, r0, r8, lsl #12
 42c:	0000061c 	andeq	r0, r0, ip, lsl r6
 430:	00000628 	andeq	r0, r0, r8, lsr #12
 434:	00000828 	andeq	r0, r0, r8, lsr #16
 438:	00000830 	andeq	r0, r0, r0, lsr r8
 43c:	00000930 	andeq	r0, r0, r0, lsr r9
	...
 448:	00000b4c 	andeq	r0, r0, ip, asr #22
 44c:	00000b90 	muleq	r0, r0, fp
 450:	00000be4 	andeq	r0, r0, r4, ror #23
 454:	00000bf4 	strdeq	r0, [r0], -r4
	...
 460:	00000010 	andeq	r0, r0, r0, lsl r0
 464:	0000002c 	andeq	r0, r0, ip, lsr #32
 468:	00000030 	andeq	r0, r0, r0, lsr r0
 46c:	00000058 	andeq	r0, r0, r8, asr r0
	...
 478:	000000c8 	andeq	r0, r0, r8, asr #1
 47c:	000000d0 	ldrdeq	r0, [r0], -r0	; <UNPREDICTABLE>
 480:	000000d8 	ldrdeq	r0, [r0], -r8
 484:	000000e4 	andeq	r0, r0, r4, ror #1
 488:	000000ec 	andeq	r0, r0, ip, ror #1
 48c:	00000100 	andeq	r0, r0, r0, lsl #2
	...
 498:	000000e4 	andeq	r0, r0, r4, ror #1
 49c:	000000e8 	andeq	r0, r0, r8, ror #1
 4a0:	00000100 	andeq	r0, r0, r0, lsl #2
 4a4:	0000010c 	andeq	r0, r0, ip, lsl #2
	...
 4b0:	00000120 	andeq	r0, r0, r0, lsr #2
 4b4:	00000128 	andeq	r0, r0, r8, lsr #2
 4b8:	00000130 	andeq	r0, r0, r0, lsr r1
 4bc:	0000013c 	andeq	r0, r0, ip, lsr r1
 4c0:	00000144 	andeq	r0, r0, r4, asr #2
 4c4:	00000158 	andeq	r0, r0, r8, asr r1
	...
 4d0:	0000013c 	andeq	r0, r0, ip, lsr r1
 4d4:	00000140 	andeq	r0, r0, r0, asr #2
 4d8:	00000158 	andeq	r0, r0, r8, asr r1
 4dc:	00000164 	andeq	r0, r0, r4, ror #2
	...
 4e8:	000000ac 	andeq	r0, r0, ip, lsr #1
 4ec:	000000b4 	strheq	r0, [r0], -r4
 4f0:	000000e4 	andeq	r0, r0, r4, ror #1
 4f4:	00000100 	andeq	r0, r0, r0, lsl #2
	...
 500:	00000128 	andeq	r0, r0, r8, lsr #2
 504:	00000138 	andeq	r0, r0, r8, lsr r1
 508:	0000014c 	andeq	r0, r0, ip, asr #2
 50c:	00000154 	andeq	r0, r0, r4, asr r1
 510:	00000158 	andeq	r0, r0, r8, asr r1
 514:	00000160 	andeq	r0, r0, r0, ror #2
	...
 520:	0000018c 	andeq	r0, r0, ip, lsl #3
 524:	0000019c 	muleq	r0, ip, r1
 528:	000001a0 	andeq	r0, r0, r0, lsr #3
 52c:	000001a4 	andeq	r0, r0, r4, lsr #3
	...
 538:	00000324 	andeq	r0, r0, r4, lsr #6
 53c:	00000328 	andeq	r0, r0, r8, lsr #6
 540:	0000032c 	andeq	r0, r0, ip, lsr #6
 544:	00000344 	andeq	r0, r0, r4, asr #6
	...
 550:	00000038 	andeq	r0, r0, r8, lsr r0
 554:	000000ac 	andeq	r0, r0, ip, lsr #1
 558:	000000c0 	andeq	r0, r0, r0, asr #1
 55c:	000000e4 	andeq	r0, r0, r4, ror #1
	...
 568:	00000054 	andeq	r0, r0, r4, asr r0
 56c:	00000058 	andeq	r0, r0, r8, asr r0
 570:	0000005c 	andeq	r0, r0, ip, asr r0
 574:	00000074 	andeq	r0, r0, r4, ror r0
	...
 580:	00000038 	andeq	r0, r0, r8, lsr r0
 584:	0000003c 	andeq	r0, r0, ip, lsr r0
 588:	00000040 	andeq	r0, r0, r0, asr #32
 58c:	000001ac 	andeq	r0, r0, ip, lsr #3
 590:	000001c0 	andeq	r0, r0, r0, asr #3
 594:	000001d4 	ldrdeq	r0, [r0], -r4
	...
 5a0:	00000038 	andeq	r0, r0, r8, lsr r0
 5a4:	0000003c 	andeq	r0, r0, ip, lsr r0
 5a8:	0000008c 	andeq	r0, r0, ip, lsl #1
 5ac:	00000090 	muleq	r0, r0, r0
 5b0:	00000094 	muleq	r0, r4, r0
 5b4:	00000098 	muleq	r0, r8, r0
 5b8:	0000009c 	muleq	r0, ip, r0
 5bc:	000000e8 	andeq	r0, r0, r8, ror #1
 5c0:	000000ec 	andeq	r0, r0, ip, ror #1
 5c4:	000000f0 	strdeq	r0, [r0], -r0	; <UNPREDICTABLE>
 5c8:	000000f4 	strdeq	r0, [r0], -r4
 5cc:	000000f8 	strdeq	r0, [r0], -r8
	...
 5d8:	000002fc 	strdeq	r0, [r0], -ip
 5dc:	00000304 	andeq	r0, r0, r4, lsl #6
 5e0:	00000318 	andeq	r0, r0, r8, lsl r3
 5e4:	0000031c 	andeq	r0, r0, ip, lsl r3
	...
 5f0:	00000308 	andeq	r0, r0, r8, lsl #6
 5f4:	0000030c 	andeq	r0, r0, ip, lsl #6
 5f8:	0000031c 	andeq	r0, r0, ip, lsl r3
 5fc:	00000328 	andeq	r0, r0, r8, lsr #6
	...
 608:	0000034c 	andeq	r0, r0, ip, asr #6
 60c:	00000354 	andeq	r0, r0, r4, asr r3
 610:	00000358 	andeq	r0, r0, r8, asr r3
 614:	0000035c 	andeq	r0, r0, ip, asr r3
	...
 620:	000003c8 	andeq	r0, r0, r8, asr #7
 624:	000003cc 	andeq	r0, r0, ip, asr #7
 628:	000003d0 	ldrdeq	r0, [r0], -r0	; <UNPREDICTABLE>
 62c:	000003d4 	ldrdeq	r0, [r0], -r4
	...
 638:	00000604 	andeq	r0, r0, r4, lsl #12
 63c:	00000624 	andeq	r0, r0, r4, lsr #12
 640:	0000063c 	andeq	r0, r0, ip, lsr r6
 644:	0000065c 	andeq	r0, r0, ip, asr r6
	...
 650:	00000670 	andeq	r0, r0, r0, ror r6
 654:	00000690 	muleq	r0, r0, r6
 658:	000006a8 	andeq	r0, r0, r8, lsr #13
 65c:	000006c8 	andeq	r0, r0, r8, asr #13
	...
 668:	00000774 	andeq	r0, r0, r4, ror r7
 66c:	0000077c 	andeq	r0, r0, ip, ror r7
 670:	0000078c 	andeq	r0, r0, ip, lsl #15
 674:	00000794 	muleq	r0, r4, r7
 678:	000007a4 	andeq	r0, r0, r4, lsr #15
 67c:	000007c4 	andeq	r0, r0, r4, asr #15
	...
 688:	0000078c 	andeq	r0, r0, ip, lsl #15
 68c:	00000794 	muleq	r0, r4, r7
 690:	000007b8 			; <UNDEFINED> instruction: 0x000007b8
 694:	000007c4 	andeq	r0, r0, r4, asr #15
	...
