
efuse_programmer:     file format elf32-littlearm


Disassembly of section .text:

01500000 <_back_addr>:
 1500000:	01a00010 	lsleq	r0, r0, r0

01500004 <_stack_start>:
 1500004:	02001000 	andeq	r1, r0, #0

01500008 <_stack_start1>:
 1500008:	02500000 	subseq	r0, r0, #0

0150000c <start>:
.globl _stack_start1
_stack_start1:
        .word 0x02500000

start:
     mrc     p15, 0, r1, c0, c0, 5     @ Read Multiprocessor Affinity Register
 150000c:	ee101fb0 	mrc	15, 0, r1, cr0, cr0, {5}
     ands    r1, r1, #0x03             @ Mask off, leaving the CPU ID field
 1500010:	e2111003 	ands	r1, r1, #3
     cmp     r1,#0x00                  @ core0 : 0x00 , others 0x01 , 0x02 ...
 1500014:	e3510000 	cmp	r1, #0
     bne     run_secondary
 1500018:	1a00000c 	bne	1500050 <run_secondary>

     ldr     r8, _back_addr
 150001c:	e51f8024 	ldr	r8, [pc, #-36]	; 1500000 <_back_addr>
     str     lr, [r8]
 1500020:	e588e000 	str	lr, [r8]
     add     r8, r8,#4
 1500024:	e2888004 	add	r8, r8, #4
     str     sp, [r8]
 1500028:	e588d000 	str	sp, [r8]

     ldr     sp, _stack_start
 150002c:	e51fd030 	ldr	sp, [pc, #-48]	; 1500004 <_stack_start>
     bic     sp, sp, #7
 1500030:	e3cdd007 	bic	sp, sp, #7
     bl	     efusemain
 1500034:	eb00013e 	bl	1500534 <efusemain>

     ldr     r8, _back_addr
 1500038:	e51f8040 	ldr	r8, [pc, #-64]	; 1500000 <_back_addr>
     add     r9, r8,#4
 150003c:	e2889004 	add	r9, r8, #4
     ldr     sp, [r9]
 1500040:	e599d000 	ldr	sp, [r9]
     ldr     r1, [r8]
 1500044:	e5981000 	ldr	r1, [r8]
     mov     r0, #0
 1500048:	e3a00000 	mov	r0, #0
     bx      r1
 150004c:	e12fff11 	bx	r1

01500050 <run_secondary>:

run_secondary:
     ldr   sp, _stack_start1
 1500050:	e51fd050 	ldr	sp, [pc, #-80]	; 1500008 <_stack_start1>
     MSR   CPSR_c, #0xD3 ; #MODE_SVC:OR:DIS_IRQ:OR:DIS_FIRQ
 1500054:	e321f0d3 	msr	CPSR_c, #211	; 0xd3
     MOV   r0, r0
 1500058:	e1a00000 	nop			; (mov r0, r0)
     MOV   r0, r0
 150005c:	e1a00000 	nop			; (mov r0, r0)
     MOV   r0, r0
 1500060:	e1a00000 	nop			; (mov r0, r0)
9:
     b     9b
 1500064:	eafffffe 	b	1500064 <run_secondary+0x14>
     MOV   r0, r0
 1500068:	e1a00000 	nop			; (mov r0, r0)
     MOV   r0, r0
 150006c:	e1a00000 	nop			; (mov r0, r0)
     MOV   r0, r0
 1500070:	e1a00000 	nop			; (mov r0, r0)

01500074 <strlen>:

int strlen(const char *s)
{
	int	l = 0;

	while (*s++) 
 1500074:	e5d01000 	ldrb	r1, [r0]
 1500078:	e2803001 	add	r3, r0, #1
 150007c:	e3510000 	cmp	r1, #0
 1500080:	0a000003 	beq	1500094 <strlen+0x20>
 1500084:	e0601003 	rsb	r1, r0, r3
 1500088:	e4d32001 	ldrb	r2, [r3], #1
 150008c:	e3520000 	cmp	r2, #0
 1500090:	1afffffb 	bne	1500084 <strlen+0x10>
	{
		
	 l++;
	} 
	return l;
}
 1500094:	e1a00001 	mov	r0, r1
 1500098:	e12fff1e 	bx	lr

0150009c <strstr>:
	const char 	*s2)
{
    const char *s ;
    const char *t ;

    if (!s1 || !s2)
 150009c:	e3510000 	cmp	r1, #0
 15000a0:	13500000 	cmpne	r0, #0
 15000a4:	0a000022 	beq	1500134 <strstr+0x98>
#include "dvrboot_inc/string.h"

char *strstr(
	const char 	*s1, 
	const char 	*s2)
{
 15000a8:	e92d4030 	push	{r4, r5, lr}
    const char *t ;

    if (!s1 || !s2)
	return (0);

    if (!*s2)
 15000ac:	e5d15000 	ldrb	r5, [r1]
 15000b0:	e3550000 	cmp	r5, #0
 15000b4:	08bd8030 	popeq	{r4, r5, pc}
	return ((char*)s1);

    for (; *s1; s1++) 
 15000b8:	e5d03000 	ldrb	r3, [r0]
 15000bc:	e3530000 	cmp	r3, #0
 15000c0:	1a000003 	bne	15000d4 <strstr+0x38>
 15000c4:	ea000018 	b	150012c <strstr+0x90>
 15000c8:	e5f03001 	ldrb	r3, [r0, #1]!
 15000cc:	e3530000 	cmp	r3, #0
 15000d0:	0a000015 	beq	150012c <strstr+0x90>
    {
	if (*s1 == *s2) 
 15000d4:	e1550003 	cmp	r5, r3
 15000d8:	1afffffa 	bne	15000c8 <strstr+0x2c>
        {
	    t = s1;
	    s = s2;
	    for (; *t; s++, t++) 
 15000dc:	e5d03000 	ldrb	r3, [r0]
 15000e0:	e3530000 	cmp	r3, #0
 15000e4:	0afffff7 	beq	15000c8 <strstr+0x2c>
            {
		if (*t != *s)
 15000e8:	e1550003 	cmp	r5, r3
 15000ec:	1afffff5 	bne	15000c8 <strstr+0x2c>
 15000f0:	e2813001 	add	r3, r1, #1
 15000f4:	e1a0c000 	mov	ip, r0
 15000f8:	ea000002 	b	1500108 <strstr+0x6c>
 15000fc:	e5de4000 	ldrb	r4, [lr]
 1500100:	e1540002 	cmp	r4, r2
 1500104:	1a000004 	bne	150011c <strstr+0x80>
    {
	if (*s1 == *s2) 
        {
	    t = s1;
	    s = s2;
	    for (; *t; s++, t++) 
 1500108:	e5fc2001 	ldrb	r2, [ip, #1]!
 150010c:	e1a0e003 	mov	lr, r3
 1500110:	e2833001 	add	r3, r3, #1
 1500114:	e3520000 	cmp	r2, #0
 1500118:	1afffff7 	bne	15000fc <strstr+0x60>
            {
		if (*t != *s)
		    break;
	    }
	    if (!*s)
 150011c:	e5de3000 	ldrb	r3, [lr]
 1500120:	e3530000 	cmp	r3, #0
 1500124:	1affffe7 	bne	15000c8 <strstr+0x2c>
 1500128:	e8bd8030 	pop	{r4, r5, pc}
{
    const char *s ;
    const char *t ;

    if (!s1 || !s2)
	return (0);
 150012c:	e1a00003 	mov	r0, r3
	    if (!*s)
		return ((char*)s1);
	}
    }
    return (0);
}
 1500130:	e8bd8030 	pop	{r4, r5, pc}
{
    const char *s ;
    const char *t ;

    if (!s1 || !s2)
	return (0);
 1500134:	e3a00000 	mov	r0, #0
	    if (!*s)
		return ((char*)s1);
	}
    }
    return (0);
}
 1500138:	e12fff1e 	bx	lr

0150013c <strtoul>:
unsigned long
strtoul(
	const 	char 	*str,
		char 	**endptr,
		int 	base)
{
 150013c:	e92d47f0 	push	{r4, r5, r6, r7, r8, r9, sl, lr}
 1500140:	e3027e5c 	movw	r7, #11868	; 0x2e5c
 1500144:	e3407150 	movt	r7, #336	; 0x150
 1500148:	e1a08000 	mov	r8, r0
 150014c:	ea000000 	b	1500154 <strtoul+0x18>
 1500150:	e1a00003 	mov	r0, r3
	/*
	 * See strtol for comments as to the logic used.
	 */
	s = str;
	do {
		c = (unsigned char) *s++;
 1500154:	e1a03000 	mov	r3, r0
 1500158:	e4d3e001 	ldrb	lr, [r3], #1
	} while (isspace(c));
 150015c:	e7d7c00e 	ldrb	ip, [r7, lr]
 1500160:	e20cc020 	and	ip, ip, #32
 1500164:	e21cc0ff 	ands	ip, ip, #255	; 0xff
 1500168:	1afffff8 	bne	1500150 <strtoul+0x14>
	if (c == '-') {
 150016c:	e35e002d 	cmp	lr, #45	; 0x2d
 1500170:	0a000047 	beq	1500294 <strtoul+0x158>
		neg = 1;
		c = *s++;
	} else {
		neg = 0;
		if (c == '+')
 1500174:	e35e002b 	cmp	lr, #43	; 0x2b
			c = *s++;
 1500178:	02803002 	addeq	r3, r0, #2
 150017c:	05d0e001 	ldrbeq	lr, [r0, #1]
	}
	if ((base == 0 || base == 16) &&
 1500180:	e3d20010 	bics	r0, r2, #16
 1500184:	1a000011 	bne	15001d0 <strtoul+0x94>
 1500188:	e16f0f12 	clz	r0, r2
 150018c:	e35e0030 	cmp	lr, #48	; 0x30
 1500190:	e1a002a0 	lsr	r0, r0, #5
 1500194:	0a000042 	beq	15002a4 <strtoul+0x168>
	    c == '0' && (*s == 'x' || *s == 'X')) {
		c = s[1];
		s += 2;
		base = 16;
	}
	if (base == 0)
 1500198:	e3500000 	cmp	r0, #0
 150019c:	0a00000b 	beq	15001d0 <strtoul+0x94>
 15001a0:	e3a0200a 	mov	r2, #10
 15001a4:	e3090999 	movw	r0, #39321	; 0x9999
 15001a8:	e3410999 	movt	r0, #6553	; 0x1999
		base = c == '0' ? 8 : 10;
 15001ac:	e1a0a002 	mov	sl, r2
 15001b0:	e3a09005 	mov	r9, #5
 15001b4:	ea00000a 	b	15001e4 <strtoul+0xa8>
	    c == '0' && (*s == 'x' || *s == 'X')) {
		c = s[1];
		s += 2;
		base = 16;
	}
	if (base == 0)
 15001b8:	e3500000 	cmp	r0, #0
 15001bc:	13a02008 	movne	r2, #8
 15001c0:	13a09007 	movne	r9, #7
		base = c == '0' ? 8 : 10;
 15001c4:	11a0a002 	movne	sl, r2
	    c == '0' && (*s == 'x' || *s == 'X')) {
		c = s[1];
		s += 2;
		base = 16;
	}
	if (base == 0)
 15001c8:	13e0020e 	mvnne	r0, #-536870912	; 0xe0000000
 15001cc:	1a000004 	bne	15001e4 <strtoul+0xa8>
 15001d0:	e3e00000 	mvn	r0, #0
 15001d4:	e1a0a002 	mov	sl, r2
 15001d8:	e730f210 	udiv	r0, r0, r2
 15001dc:	e0090092 	mul	r9, r2, r0
 15001e0:	e1e09009 	mvn	r9, r9
		base = c == '0' ? 8 : 10;

	cutoff = MAXUINT(sizeof(UINT32)) / (unsigned long)base;
	cutlim = MAXUINT(sizeof(UINT32)) % (unsigned long)base;
	for (acc = 0, any = 0;; c = (unsigned char) *s++) {
 15001e4:	e3a05000 	mov	r5, #0
 15001e8:	e1a06005 	mov	r6, r5
 15001ec:	ea000009 	b	1500218 <strtoul+0xdc>
			break;
		if (c >= base)
			break;
		if (any < 0)
			continue;
		if ((acc > cutoff) || (acc == cutoff && c > cutlim)) {
 15001f0:	e15e0009 	cmp	lr, r9
 15001f4:	d3a04000 	movle	r4, #0
 15001f8:	c3a04001 	movgt	r4, #1
 15001fc:	e1560000 	cmp	r6, r0
 1500200:	13a04000 	movne	r4, #0
 1500204:	e3540000 	cmp	r4, #0
 1500208:	1a000012 	bne	1500258 <strtoul+0x11c>
			acc = MAXUINT(sizeof(UINT32));
			//errno = ERANGE;
		} else {
			any = 1;
			acc *= (unsigned long)base;
			acc += c;
 150020c:	e026e69a 	mla	r6, sl, r6, lr
		if ((acc > cutoff) || (acc == cutoff && c > cutlim)) {
			any = -1;
			acc = MAXUINT(sizeof(UINT32));
			//errno = ERANGE;
		} else {
			any = 1;
 1500210:	e3a05001 	mov	r5, #1
	if (base == 0)
		base = c == '0' ? 8 : 10;

	cutoff = MAXUINT(sizeof(UINT32)) / (unsigned long)base;
	cutlim = MAXUINT(sizeof(UINT32)) % (unsigned long)base;
	for (acc = 0, any = 0;; c = (unsigned char) *s++) {
 1500214:	e4d3e001 	ldrb	lr, [r3], #1
		if (isdigit(c))
 1500218:	e7d7400e 	ldrb	r4, [r7, lr]
 150021c:	e3140004 	tst	r4, #4
			c -= '0';
 1500220:	124ee030 	subne	lr, lr, #48	; 0x30
		base = c == '0' ? 8 : 10;

	cutoff = MAXUINT(sizeof(UINT32)) / (unsigned long)base;
	cutlim = MAXUINT(sizeof(UINT32)) % (unsigned long)base;
	for (acc = 0, any = 0;; c = (unsigned char) *s++) {
		if (isdigit(c))
 1500224:	1a000005 	bne	1500240 <strtoul+0x104>
			c -= '0';
		else if (isalpha(c))
 1500228:	e3140003 	tst	r4, #3
 150022c:	0a00000c 	beq	1500264 <strtoul+0x128>
			c -= isupper(c) ? 'A' - 10 : 'a' - 10;
 1500230:	e3140001 	tst	r4, #1
 1500234:	13a04037 	movne	r4, #55	; 0x37
 1500238:	03a04057 	moveq	r4, #87	; 0x57
 150023c:	e064e00e 	rsb	lr, r4, lr
		else
			break;
		if (c >= base)
 1500240:	e152000e 	cmp	r2, lr
 1500244:	da000006 	ble	1500264 <strtoul+0x128>
			break;
		if (any < 0)
 1500248:	e3750001 	cmn	r5, #1
 150024c:	0afffff0 	beq	1500214 <strtoul+0xd8>
			continue;
		if ((acc > cutoff) || (acc == cutoff && c > cutlim)) {
 1500250:	e1560000 	cmp	r6, r0
 1500254:	9affffe5 	bls	15001f0 <strtoul+0xb4>
			any = -1;
 1500258:	e3e05000 	mvn	r5, #0
			acc = MAXUINT(sizeof(UINT32));
 150025c:	e1a06005 	mov	r6, r5
 1500260:	eaffffeb 	b	1500214 <strtoul+0xd8>
			any = 1;
			acc *= (unsigned long)base;
			acc += c;
		}
	}
	if (neg && any > 0)
 1500264:	e3550000 	cmp	r5, #0
 1500268:	d3a0c000 	movle	ip, #0
 150026c:	c20cc001 	andgt	ip, ip, #1
		acc = -acc;
	if (endptr != 0)
 1500270:	e3510000 	cmp	r1, #0
 1500274:	e26c0000 	rsb	r0, ip, #0
 1500278:	e0266000 	eor	r6, r6, r0
 150027c:	e086000c 	add	r0, r6, ip
 1500280:	08bd87f0 	popeq	{r4, r5, r6, r7, r8, r9, sl, pc}
		*endptr = (char *) (any ? s - 1 : (char *) str);
 1500284:	e3550000 	cmp	r5, #0
 1500288:	12438001 	subne	r8, r3, #1
 150028c:	e5818000 	str	r8, [r1]
 1500290:	e8bd87f0 	pop	{r4, r5, r6, r7, r8, r9, sl, pc}
	do {
		c = (unsigned char) *s++;
	} while (isspace(c));
	if (c == '-') {
		neg = 1;
		c = *s++;
 1500294:	e2803002 	add	r3, r0, #2
 1500298:	e5d0e001 	ldrb	lr, [r0, #1]
 150029c:	e3a0c001 	mov	ip, #1
 15002a0:	eaffffb6 	b	1500180 <strtoul+0x44>
		neg = 0;
		if (c == '+')
			c = *s++;
	}
	if ((base == 0 || base == 16) &&
	    c == '0' && (*s == 'x' || *s == 'X')) {
 15002a4:	e5d34000 	ldrb	r4, [r3]
 15002a8:	e20440df 	and	r4, r4, #223	; 0xdf
 15002ac:	e3540058 	cmp	r4, #88	; 0x58
 15002b0:	1affffc0 	bne	15001b8 <strtoul+0x7c>
		c = s[1];
		s += 2;
 15002b4:	e3a02010 	mov	r2, #16
		if (c == '+')
			c = *s++;
	}
	if ((base == 0 || base == 16) &&
	    c == '0' && (*s == 'x' || *s == 'X')) {
		c = s[1];
 15002b8:	e5d3e001 	ldrb	lr, [r3, #1]
		s += 2;
		base = 16;
 15002bc:	e1a0a002 	mov	sl, r2
			c = *s++;
	}
	if ((base == 0 || base == 16) &&
	    c == '0' && (*s == 'x' || *s == 'X')) {
		c = s[1];
		s += 2;
 15002c0:	e2833002 	add	r3, r3, #2
 15002c4:	e3a0900f 	mov	r9, #15
 15002c8:	e3e0020f 	mvn	r0, #-268435456	; 0xf0000000
 15002cc:	eaffffc4 	b	15001e4 <strtoul+0xa8>

015002d0 <ctrlc>:
 15002d0:	e3a00000 	mov	r0, #0
 15002d4:	e12fff1e 	bx	lr

015002d8 <printf>:
 15002d8:	e92d000f 	push	{r0, r1, r2, r3}
 15002dc:	e3a00001 	mov	r0, #1
 15002e0:	e28dd010 	add	sp, sp, #16
 15002e4:	e12fff1e 	bx	lr

015002e8 <memcpy>:
 15002e8:	e3520000 	cmp	r2, #0
 15002ec:	012fff1e 	bxeq	lr
 15002f0:	e0812002 	add	r2, r1, r2
 15002f4:	e2403001 	sub	r3, r0, #1
 15002f8:	e4d1c001 	ldrb	ip, [r1], #1
 15002fc:	e5e3c001 	strb	ip, [r3, #1]!
 1500300:	e1510002 	cmp	r1, r2
 1500304:	1afffffb 	bne	15002f8 <memcpy+0x10>
 1500308:	e12fff1e 	bx	lr

0150030c <memcmp>:
 150030c:	e3520000 	cmp	r2, #0
 1500310:	0a000011 	beq	150035c <memcmp+0x50>
 1500314:	e5d03000 	ldrb	r3, [r0]
 1500318:	e1a0c000 	mov	ip, r0
 150031c:	e5d10000 	ldrb	r0, [r1]
 1500320:	e0530000 	subs	r0, r3, r0
 1500324:	112fff1e 	bxne	lr
 1500328:	e08c2002 	add	r2, ip, r2
 150032c:	e28cc001 	add	ip, ip, #1
 1500330:	e52de004 	push	{lr}		; (str lr, [sp, #-4]!)
 1500334:	ea000003 	b	1500348 <memcmp+0x3c>
 1500338:	e4dc3001 	ldrb	r3, [ip], #1
 150033c:	e5f1e001 	ldrb	lr, [r1, #1]!
 1500340:	e053300e 	subs	r3, r3, lr
 1500344:	1a000002 	bne	1500354 <memcmp+0x48>
 1500348:	e15c0002 	cmp	ip, r2
 150034c:	1afffff9 	bne	1500338 <memcmp+0x2c>
 1500350:	e49df004 	pop	{pc}		; (ldr pc, [sp], #4)
 1500354:	e1a00003 	mov	r0, r3
 1500358:	e49df004 	pop	{pc}		; (ldr pc, [sp], #4)
 150035c:	e1a00002 	mov	r0, r2
 1500360:	e12fff1e 	bx	lr

01500364 <do_program>:
 1500364:	e92d40f0 	push	{r4, r5, r6, r7, lr}
 1500368:	e3020f5c 	movw	r0, #12124	; 0x2f5c
 150036c:	e3400150 	movt	r0, #336	; 0x150
 1500370:	e24dd00c 	sub	sp, sp, #12
 1500374:	eb000926 	bl	1502814 <prints>
 1500378:	e3020f80 	movw	r0, #12160	; 0x2f80
 150037c:	e3400150 	movt	r0, #336	; 0x150
 1500380:	eb000923 	bl	1502814 <prints>
 1500384:	e3020fa0 	movw	r0, #12192	; 0x2fa0
 1500388:	e3400150 	movt	r0, #336	; 0x150
 150038c:	eb000920 	bl	1502814 <prints>
 1500390:	eb00089d 	bl	150260c <obfuse_judge>
 1500394:	e2504000 	subs	r4, r0, #0
 1500398:	1a000056 	bne	15004f8 <do_program+0x194>
 150039c:	eb0008f6 	bl	150277c <sync>
 15003a0:	e30321fc 	movw	r2, #12796	; 0x31fc
 15003a4:	e3402151 	movt	r2, #337	; 0x151
 15003a8:	e30312fc 	movw	r1, #13052	; 0x32fc
 15003ac:	e3401151 	movt	r1, #337	; 0x151
 15003b0:	e0621001 	rsb	r1, r2, r1
 15003b4:	e1a00004 	mov	r0, r4
 15003b8:	eb00014b 	bl	15008ec <start_program>
 15003bc:	e3020fbc 	movw	r0, #12220	; 0x2fbc
 15003c0:	e3400150 	movt	r0, #336	; 0x150
 15003c4:	eb000912 	bl	1502814 <prints>
 15003c8:	e3035558 	movw	r5, #13656	; 0x3558
 15003cc:	e3405151 	movt	r5, #337	; 0x151
 15003d0:	e3032508 	movw	r2, #13576	; 0x3508
 15003d4:	e3402151 	movt	r2, #337	; 0x151
 15003d8:	e3033518 	movw	r3, #13592	; 0x3518
 15003dc:	e3403151 	movt	r3, #337	; 0x151
 15003e0:	e0623003 	rsb	r3, r2, r3
 15003e4:	e58d4000 	str	r4, [sp]
 15003e8:	e58d3004 	str	r3, [sp, #4]
 15003ec:	e1a01005 	mov	r1, r5
 15003f0:	e1a03004 	mov	r3, r4
 15003f4:	e3a00001 	mov	r0, #1
 15003f8:	eb000631 	bl	1501cc4 <obfuse_getset>
 15003fc:	e1a06000 	mov	r6, r0
 1500400:	eb0008dd 	bl	150277c <sync>
 1500404:	e3560000 	cmp	r6, #0
 1500408:	11a04006 	movne	r4, r6
 150040c:	0a000002 	beq	150041c <do_program+0xb8>
 1500410:	e1a00004 	mov	r0, r4
 1500414:	e28dd00c 	add	sp, sp, #12
 1500418:	e8bd80f0 	pop	{r4, r5, r6, r7, pc}
 150041c:	e30366f0 	movw	r6, #14064	; 0x36f0
 1500420:	e3406151 	movt	r6, #337	; 0x151
 1500424:	e3020fc8 	movw	r0, #12232	; 0x2fc8
 1500428:	e3400150 	movt	r0, #336	; 0x150
 150042c:	eb0008f8 	bl	1502814 <prints>
 1500430:	e3033568 	movw	r3, #13672	; 0x3568
 1500434:	e3403151 	movt	r3, #337	; 0x151
 1500438:	e0653003 	rsb	r3, r5, r3
 150043c:	e1a01005 	mov	r1, r5
 1500440:	e58d3004 	str	r3, [sp, #4]
 1500444:	e303251c 	movw	r2, #13596	; 0x351c
 1500448:	e3402151 	movt	r2, #337	; 0x151
 150044c:	e3033544 	movw	r3, #13636	; 0x3544
 1500450:	e3403151 	movt	r3, #337	; 0x151
 1500454:	e3a00002 	mov	r0, #2
 1500458:	e58d3000 	str	r3, [sp]
 150045c:	e5c64000 	strb	r4, [r6]
 1500460:	e3033530 	movw	r3, #13616	; 0x3530
 1500464:	e3403151 	movt	r3, #337	; 0x151
 1500468:	eb000615 	bl	1501cc4 <obfuse_getset>
 150046c:	e1a05000 	mov	r5, r0
 1500470:	eb0008c1 	bl	150277c <sync>
 1500474:	e3550000 	cmp	r5, #0
 1500478:	11a04005 	movne	r4, r5
 150047c:	1affffe3 	bne	1500410 <do_program+0xac>
 1500480:	e303356c 	movw	r3, #13676	; 0x356c
 1500484:	e3403151 	movt	r3, #337	; 0x151
 1500488:	e303756c 	movw	r7, #13676	; 0x356c
 150048c:	e3407151 	movt	r7, #337	; 0x151
 1500490:	e0675003 	rsb	r5, r7, r3
 1500494:	e3020fd4 	movw	r0, #12244	; 0x2fd4
 1500498:	e3400150 	movt	r0, #336	; 0x150
 150049c:	eb0008dc 	bl	1502814 <prints>
 15004a0:	eb00018f 	bl	1500ae4 <do_burn_mp_efuse_bits>
 15004a4:	eb0008b4 	bl	150277c <sync>
 15004a8:	e3550000 	cmp	r5, #0
 15004ac:	0a00001c 	beq	1500524 <do_program+0x1c0>
 15004b0:	e3550010 	cmp	r5, #16
 15004b4:	8a000016 	bhi	1500514 <do_program+0x1b0>
 15004b8:	e3030000 	movw	r0, #12288	; 0x3000
 15004bc:	e3400150 	movt	r0, #336	; 0x150
 15004c0:	eb0008d3 	bl	1502814 <prints>
 15004c4:	e1a01007 	mov	r1, r7
 15004c8:	e88d0030 	stm	sp, {r4, r5}
 15004cc:	e1a03004 	mov	r3, r4
 15004d0:	e1a02004 	mov	r2, r4
 15004d4:	e1a00004 	mov	r0, r4
 15004d8:	e5c64000 	strb	r4, [r6]
 15004dc:	eb0005f8 	bl	1501cc4 <obfuse_getset>
 15004e0:	e1a05000 	mov	r5, r0
 15004e4:	eb0008a4 	bl	150277c <sync>
 15004e8:	e3550000 	cmp	r5, #0
 15004ec:	0affffc7 	beq	1500410 <do_program+0xac>
 15004f0:	eb0008a1 	bl	150277c <sync>
 15004f4:	eaffffc5 	b	1500410 <do_program+0xac>
 15004f8:	e3a04000 	mov	r4, #0
 15004fc:	e3020fac 	movw	r0, #12204	; 0x2fac
 1500500:	e3400150 	movt	r0, #336	; 0x150
 1500504:	eb0008c2 	bl	1502814 <prints>
 1500508:	e1a00004 	mov	r0, r4
 150050c:	e28dd00c 	add	sp, sp, #12
 1500510:	e8bd80f0 	pop	{r4, r5, r6, r7, pc}
 1500514:	e3020fe0 	movw	r0, #12256	; 0x2fe0
 1500518:	e3400150 	movt	r0, #336	; 0x150
 150051c:	eb0008bc 	bl	1502814 <prints>
 1500520:	eaffffba 	b	1500410 <do_program+0xac>
 1500524:	e3030010 	movw	r0, #12304	; 0x3010
 1500528:	e3400150 	movt	r0, #336	; 0x150
 150052c:	eb0008b8 	bl	1502814 <prints>
 1500530:	eaffffb6 	b	1500410 <do_program+0xac>

01500534 <efusemain>:
 1500534:	e3032b38 	movw	r2, #15160	; 0x3b38
 1500538:	e3402151 	movt	r2, #337	; 0x151
 150053c:	e30336f0 	movw	r3, #14064	; 0x36f0
 1500540:	e3403151 	movt	r3, #337	; 0x151
 1500544:	e92d4010 	push	{r4, lr}
 1500548:	e3a04000 	mov	r4, #0
 150054c:	e5824000 	str	r4, [r2]
 1500550:	e5c34000 	strb	r4, [r3]
 1500554:	eb00088f 	bl	1502798 <init_uart>
 1500558:	e1a00004 	mov	r0, r4
 150055c:	eb0008a2 	bl	15027ec <set_focus_uart>
 1500560:	ebffff7f 	bl	1500364 <do_program>
 1500564:	e1500004 	cmp	r0, r4
 1500568:	03030020 	movweq	r0, #12320	; 0x3020
 150056c:	13030044 	movwne	r0, #12356	; 0x3044
 1500570:	03400150 	movteq	r0, #336	; 0x150
 1500574:	13400150 	movtne	r0, #336	; 0x150
 1500578:	eb0008a5 	bl	1502814 <prints>
 150057c:	e3a00000 	mov	r0, #0
 1500580:	e8bd8010 	pop	{r4, pc}

01500584 <e_buffer>:
 1500584:	e92d4ff0 	push	{r4, r5, r6, r7, r8, r9, sl, fp, lr}
 1500588:	e1a0b003 	mov	fp, r3
 150058c:	e24dd054 	sub	sp, sp, #84	; 0x54
 1500590:	e59d7080 	ldr	r7, [sp, #128]	; 0x80
 1500594:	e88d0003 	stm	sp, {r0, r1}
 1500598:	e59da078 	ldr	sl, [sp, #120]	; 0x78
 150059c:	e0020793 	mul	r2, r3, r7
 15005a0:	e3520040 	cmp	r2, #64	; 0x40
 15005a4:	83a07040 	movhi	r7, #64	; 0x40
 15005a8:	8737f317 	udivhi	r7, r7, r3
 15005ac:	e3570000 	cmp	r7, #0
 15005b0:	03a07010 	moveq	r7, #16
 15005b4:	0737f317 	udiveq	r7, r7, r3
 15005b8:	e35a0000 	cmp	sl, #0
 15005bc:	11a0908b 	lslne	r9, fp, #1
 15005c0:	0a00005c 	beq	1500738 <e_buffer+0x1b4>
 15005c4:	e3030068 	movw	r0, #12392	; 0x3068
 15005c8:	e3400150 	movt	r0, #336	; 0x150
 15005cc:	e59d1000 	ldr	r1, [sp]
 15005d0:	ebffff40 	bl	15002d8 <printf>
 15005d4:	e157000a 	cmp	r7, sl
 15005d8:	21a0700a 	movcs	r7, sl
 15005dc:	e59d3000 	ldr	r3, [sp]
 15005e0:	e3570000 	cmp	r7, #0
 15005e4:	e283831a 	add	r8, r3, #1744830464	; 0x68000000
 15005e8:	01a04007 	moveq	r4, r7
 15005ec:	02488a17 	subeq	r8, r8, #94208	; 0x17000
 15005f0:	01a0e007 	moveq	lr, r7
 15005f4:	0a00003c 	beq	15006ec <e_buffer+0x168>
 15005f8:	e59d6004 	ldr	r6, [sp, #4]
 15005fc:	e2488a17 	sub	r8, r8, #94208	; 0x17000
 1500600:	e3a05000 	mov	r5, #0
 1500604:	e28d400c 	add	r4, sp, #12
 1500608:	ea000004 	b	1500620 <e_buffer+0x9c>
 150060c:	e2855001 	add	r5, r5, #1
 1500610:	ebffff30 	bl	15002d8 <printf>
 1500614:	e1550007 	cmp	r5, r7
 1500618:	e086600b 	add	r6, r6, fp
 150061c:	0a000017 	beq	1500680 <e_buffer+0xfc>
 1500620:	e35b0004 	cmp	fp, #4
 1500624:	05962000 	ldreq	r2, [r6]
 1500628:	07842105 	streq	r2, [r4, r5, lsl #2]
 150062c:	0a000007 	beq	1500650 <e_buffer+0xcc>
 1500630:	e35b0002 	cmp	fp, #2
 1500634:	01a03085 	lsleq	r3, r5, #1
 1500638:	01d620b0 	ldrheq	r2, [r6]
 150063c:	15d62000 	ldrbne	r2, [r6]
 1500640:	06ff2072 	uxtheq	r2, r2
 1500644:	018420b3 	strheq	r2, [r4, r3]
 1500648:	16ef2072 	uxtbne	r2, r2
 150064c:	17c42005 	strbne	r2, [r4, r5]
 1500650:	e3580b01 	cmp	r8, #1024	; 0x400
 1500654:	e3030074 	movw	r0, #12404	; 0x3074
 1500658:	e3400150 	movt	r0, #336	; 0x150
 150065c:	e1a01009 	mov	r1, r9
 1500660:	2affffe9 	bcs	150060c <e_buffer+0x88>
 1500664:	e303007c 	movw	r0, #12412	; 0x307c
 1500668:	e3400150 	movt	r0, #336	; 0x150
 150066c:	e2855001 	add	r5, r5, #1
 1500670:	ebffff18 	bl	15002d8 <printf>
 1500674:	e1550007 	cmp	r5, r7
 1500678:	e086600b 	add	r6, r6, fp
 150067c:	1affffe7 	bne	1500620 <e_buffer+0x9c>
 1500680:	e00e079b 	mul	lr, fp, r7
 1500684:	e59d3004 	ldr	r3, [sp, #4]
 1500688:	e35e0000 	cmp	lr, #0
 150068c:	01a0400e 	moveq	r4, lr
 1500690:	e083300e 	add	r3, r3, lr
 1500694:	01a0e004 	moveq	lr, r4
 1500698:	e58d3004 	str	r3, [sp, #4]
 150069c:	0a000012 	beq	15006ec <e_buffer+0x168>
 15006a0:	e24e2001 	sub	r2, lr, #1
 15006a4:	e302ce5c 	movw	ip, #11868	; 0x2e5c
 15006a8:	e340c150 	movt	ip, #336	; 0x150
 15006ac:	e0844002 	add	r4, r4, r2
 15006b0:	e3a0502e 	mov	r5, #46	; 0x2e
 15006b4:	e28d200b 	add	r2, sp, #11
 15006b8:	ea000003 	b	15006cc <e_buffer+0x148>
 15006bc:	e3130080 	tst	r3, #128	; 0x80
 15006c0:	1a000005 	bne	15006dc <e_buffer+0x158>
 15006c4:	e1520004 	cmp	r2, r4
 15006c8:	0a000006 	beq	15006e8 <e_buffer+0x164>
 15006cc:	e5f23001 	ldrb	r3, [r2, #1]!
 15006d0:	e7dc1003 	ldrb	r1, [ip, r3]
 15006d4:	e3110097 	tst	r1, #151	; 0x97
 15006d8:	1afffff7 	bne	15006bc <e_buffer+0x138>
 15006dc:	e1520004 	cmp	r2, r4
 15006e0:	e5c25000 	strb	r5, [r2]
 15006e4:	1afffff8 	bne	15006cc <e_buffer+0x148>
 15006e8:	e1a0400e 	mov	r4, lr
 15006ec:	e28d3050 	add	r3, sp, #80	; 0x50
 15006f0:	e3580b01 	cmp	r8, #1024	; 0x400
 15006f4:	e083e00e 	add	lr, r3, lr
 15006f8:	e3a02000 	mov	r2, #0
 15006fc:	e54e2044 	strb	r2, [lr, #-68]	; 0x44
 1500700:	3a00000f 	bcc	1500744 <e_buffer+0x1c0>
 1500704:	e3030080 	movw	r0, #12416	; 0x3080
 1500708:	e3400150 	movt	r0, #336	; 0x150
 150070c:	e28d100c 	add	r1, sp, #12
 1500710:	ebfffef0 	bl	15002d8 <printf>
 1500714:	ebfffeed 	bl	15002d0 <ctrlc>
 1500718:	e59d3000 	ldr	r3, [sp]
 150071c:	e3500000 	cmp	r0, #0
 1500720:	e067a00a 	rsb	sl, r7, sl
 1500724:	e0833004 	add	r3, r3, r4
 1500728:	e58d3000 	str	r3, [sp]
 150072c:	1a000008 	bne	1500754 <e_buffer+0x1d0>
 1500730:	e35a0000 	cmp	sl, #0
 1500734:	1affffa2 	bne	15005c4 <e_buffer+0x40>
 1500738:	e3a00000 	mov	r0, #0
 150073c:	e28dd054 	add	sp, sp, #84	; 0x54
 1500740:	e8bd8ff0 	pop	{r4, r5, r6, r7, r8, r9, sl, fp, pc}
 1500744:	e303008c 	movw	r0, #12428	; 0x308c
 1500748:	e3400150 	movt	r0, #336	; 0x150
 150074c:	ebfffee1 	bl	15002d8 <printf>
 1500750:	eaffffef 	b	1500714 <e_buffer+0x190>
 1500754:	e3e00000 	mvn	r0, #0
 1500758:	e28dd054 	add	sp, sp, #84	; 0x54
 150075c:	e8bd8ff0 	pop	{r4, r5, r6, r7, r8, r9, sl, fp, pc}

01500760 <read_efuse>:
 1500760:	e92d41f0 	push	{r4, r5, r6, r7, r8, lr}
 1500764:	e3032570 	movw	r2, #13680	; 0x3570
 1500768:	e3402151 	movt	r2, #337	; 0x151
 150076c:	e59f4094 	ldr	r4, [pc, #148]	; 1500808 <read_efuse+0xa8>
 1500770:	e3a01010 	mov	r1, #16
 1500774:	e2820010 	add	r0, r2, #16
 1500778:	e3a03000 	mov	r3, #0
 150077c:	e0847001 	add	r7, r4, r1
 1500780:	e2445010 	sub	r5, r4, #16
 1500784:	eb000317 	bl	15013e8 <AES_ECB_encrypt>
 1500788:	e1a01000 	mov	r1, r0
 150078c:	e3030094 	movw	r0, #12436	; 0x3094
 1500790:	e3400150 	movt	r0, #336	; 0x150
 1500794:	e1a06005 	mov	r6, r5
 1500798:	ebfffece 	bl	15002d8 <printf>
 150079c:	e5f41001 	ldrb	r1, [r4, #1]!
 15007a0:	e303009c 	movw	r0, #12444	; 0x309c
 15007a4:	e3400150 	movt	r0, #336	; 0x150
 15007a8:	e5f62001 	ldrb	r2, [r6, #1]!
 15007ac:	ebfffec9 	bl	15002d8 <printf>
 15007b0:	e1540007 	cmp	r4, r7
 15007b4:	1afffff8 	bne	150079c <read_efuse+0x3c>
 15007b8:	e59f204c 	ldr	r2, [pc, #76]	; 150080c <read_efuse+0xac>
 15007bc:	e3a01010 	mov	r1, #16
 15007c0:	e3a03000 	mov	r3, #0
 15007c4:	e2420020 	sub	r0, r2, #32
 15007c8:	e2424001 	sub	r4, r2, #1
 15007cc:	eb0002e0 	bl	1501354 <AES_ECB_decrypt>
 15007d0:	e1a01000 	mov	r1, r0
 15007d4:	e3030094 	movw	r0, #12436	; 0x3094
 15007d8:	e3400150 	movt	r0, #336	; 0x150
 15007dc:	e2446010 	sub	r6, r4, #16
 15007e0:	ebfffebc 	bl	15002d8 <printf>
 15007e4:	e5f51001 	ldrb	r1, [r5, #1]!
 15007e8:	e30300b8 	movw	r0, #12472	; 0x30b8
 15007ec:	e3400150 	movt	r0, #336	; 0x150
 15007f0:	e5f42001 	ldrb	r2, [r4, #1]!
 15007f4:	ebfffeb7 	bl	15002d8 <printf>
 15007f8:	e1550006 	cmp	r5, r6
 15007fc:	1afffff8 	bne	15007e4 <read_efuse+0x84>
 1500800:	e3a00000 	mov	r0, #0
 1500804:	e8bd81f0 	pop	{r4, r5, r6, r7, r8, pc}
 1500808:	0151357f 	cmpeq	r1, pc, ror r5
 150080c:	01513590 			; <UNDEFINED> instruction: 0x01513590

01500810 <OTP_JUDGE_BIT>:
 1500810:	e2002007 	and	r2, r0, #7
 1500814:	e1a001a0 	lsr	r0, r0, #3
 1500818:	e3c03003 	bic	r3, r0, #3
 150081c:	e2000003 	and	r0, r0, #3
 1500820:	e2833326 	add	r3, r3, #-1744830464	; 0x98000000
 1500824:	e2833a17 	add	r3, r3, #94208	; 0x17000
 1500828:	e1a00180 	lsl	r0, r0, #3
 150082c:	e5933000 	ldr	r3, [r3]
 1500830:	e1a00033 	lsr	r0, r3, r0
 1500834:	e1a00230 	lsr	r0, r0, r2
 1500838:	e2000001 	and	r0, r0, #1
 150083c:	e12fff1e 	bx	lr

01500840 <do_burn_efuse_getmptest2>:
 1500840:	e92d4010 	push	{r4, lr}
 1500844:	e3000e0a 	movw	r0, #3594	; 0xe0a
 1500848:	ebfffff0 	bl	1500810 <OTP_JUDGE_BIT>
 150084c:	e3500000 	cmp	r0, #0
 1500850:	130300d8 	movwne	r0, #12504	; 0x30d8
 1500854:	030300d4 	movweq	r0, #12500	; 0x30d4
 1500858:	13400150 	movtne	r0, #336	; 0x150
 150085c:	03400150 	movteq	r0, #336	; 0x150
 1500860:	ebfffe9c 	bl	15002d8 <printf>
 1500864:	e3a00000 	mov	r0, #0
 1500868:	e8bd8010 	pop	{r4, pc}

0150086c <OTP_Program_Start>:
 150086c:	e2002007 	and	r2, r0, #7
 1500870:	e3a03a07 	mov	r3, #28672	; 0x7000
 1500874:	e3493801 	movt	r3, #38913	; 0x9801
 1500878:	e7e901d0 	ubfx	r0, r0, #3, #10
 150087c:	e1a01003 	mov	r1, r3
 1500880:	e1800502 	orr	r0, r0, r2, lsl #10
 1500884:	e3800503 	orr	r0, r0, #12582912	; 0xc00000
 1500888:	e3802a02 	orr	r2, r0, #8192	; 0x2000
 150088c:	e5832400 	str	r2, [r3, #1024]	; 0x400
 1500890:	e5912404 	ldr	r2, [r1, #1028]	; 0x404
 1500894:	e3a03a07 	mov	r3, #28672	; 0x7000
 1500898:	e3493801 	movt	r3, #38913	; 0x9801
 150089c:	e3120801 	tst	r2, #65536	; 0x10000
 15008a0:	0afffffa 	beq	1500890 <OTP_Program_Start+0x24>
 15008a4:	e3802a0e 	orr	r2, r0, #57344	; 0xe000
 15008a8:	e3a00005 	mov	r0, #5
 15008ac:	e92d4010 	push	{r4, lr}
 15008b0:	e5832400 	str	r2, [r3, #1024]	; 0x400
 15008b4:	eb00079a 	bl	1502724 <udelay>
 15008b8:	e3a00000 	mov	r0, #0
 15008bc:	e8bd8010 	pop	{r4, pc}

015008c0 <OTP_Program_End>:
 15008c0:	e3a03a07 	mov	r3, #28672	; 0x7000
 15008c4:	e3493801 	movt	r3, #38913	; 0x9801
 15008c8:	e92d4010 	push	{r4, lr}
 15008cc:	e5931400 	ldr	r1, [r3, #1024]	; 0x400
 15008d0:	e3a00005 	mov	r0, #5
 15008d4:	e3a02a0a 	mov	r2, #40960	; 0xa000
 15008d8:	e3402080 	movt	r2, #128	; 0x80
 15008dc:	e5832400 	str	r2, [r3, #1024]	; 0x400
 15008e0:	eb00078f 	bl	1502724 <udelay>
 15008e4:	e3a00000 	mov	r0, #0
 15008e8:	e8bd8010 	pop	{r4, pc}

015008ec <start_program>:
 15008ec:	e92d41f0 	push	{r4, r5, r6, r7, r8, lr}
 15008f0:	e1a05001 	mov	r5, r1
 15008f4:	e1a06000 	mov	r6, r0
 15008f8:	e3a00efe 	mov	r0, #4064	; 0xfe0
 15008fc:	e1a07002 	mov	r7, r2
 1500900:	ebffffc2 	bl	1500810 <OTP_JUDGE_BIT>
 1500904:	e1b05185 	lsls	r5, r5, #3
 1500908:	13a03000 	movne	r3, #0
 150090c:	11a04003 	movne	r4, r3
 1500910:	1a000004 	bne	1500928 <start_program+0x3c>
 1500914:	ea00000e 	b	1500954 <start_program+0x68>
 1500918:	e2844001 	add	r4, r4, #1
 150091c:	e1540005 	cmp	r4, r5
 1500920:	e1a031a4 	lsr	r3, r4, #3
 1500924:	0a00000a 	beq	1500954 <start_program+0x68>
 1500928:	e7d73003 	ldrb	r3, [r7, r3]
 150092c:	e2040007 	and	r0, r4, #7
 1500930:	e1a03053 	asr	r3, r3, r0
 1500934:	e3130001 	tst	r3, #1
 1500938:	0afffff6 	beq	1500918 <start_program+0x2c>
 150093c:	e0840006 	add	r0, r4, r6
 1500940:	e2844001 	add	r4, r4, #1
 1500944:	ebffffc8 	bl	150086c <OTP_Program_Start>
 1500948:	e1540005 	cmp	r4, r5
 150094c:	e1a031a4 	lsr	r3, r4, #3
 1500950:	1afffff4 	bne	1500928 <start_program+0x3c>
 1500954:	e8bd41f0 	pop	{r4, r5, r6, r7, r8, lr}
 1500958:	eaffffd8 	b	15008c0 <OTP_Program_End>

0150095c <do_burn_efuse_rsa>:
 150095c:	e92d4010 	push	{r4, lr}
 1500960:	e59f2010 	ldr	r2, [pc, #16]	; 1500978 <do_burn_efuse_rsa+0x1c>
 1500964:	e3a01c01 	mov	r1, #256	; 0x100
 1500968:	e3a00000 	mov	r0, #0
 150096c:	ebffffde 	bl	15008ec <start_program>
 1500970:	e3a00000 	mov	r0, #0
 1500974:	e8bd8010 	pop	{r4, pc}
 1500978:	015135a0 	cmpeq	r1, r0, lsr #11

0150097c <burn_id_test>:
 150097c:	e92d4010 	push	{r4, lr}
 1500980:	e300cff8 	movw	ip, #4088	; 0xff8
 1500984:	e240ea01 	sub	lr, r0, #4096	; 0x1000
 1500988:	e15e000c 	cmp	lr, ip
 150098c:	8a000004 	bhi	15009a4 <burn_id_test+0x28>
 1500990:	e0803001 	add	r3, r0, r1
 1500994:	e301cff8 	movw	ip, #8184	; 0x1ff8
 1500998:	e153000c 	cmp	r3, ip
 150099c:	e1a04001 	mov	r4, r1
 15009a0:	9a000001 	bls	15009ac <burn_id_test+0x30>
 15009a4:	e3a00001 	mov	r0, #1
 15009a8:	e8bd8010 	pop	{r4, pc}
 15009ac:	ebffffce 	bl	15008ec <start_program>
 15009b0:	e3a00000 	mov	r0, #0
 15009b4:	e8bd8010 	pop	{r4, pc}

015009b8 <do_burn_efuse_aes>:
 15009b8:	e3500001 	cmp	r0, #1
 15009bc:	e92d4010 	push	{r4, lr}
 15009c0:	0a00000e 	beq	1500a00 <do_burn_efuse_aes+0x48>
 15009c4:	3a000007 	bcc	15009e8 <do_burn_efuse_aes+0x30>
 15009c8:	e3500002 	cmp	r0, #2
 15009cc:	1a000003 	bne	15009e0 <do_burn_efuse_aes+0x28>
 15009d0:	e59f2040 	ldr	r2, [pc, #64]	; 1500a18 <do_burn_efuse_aes+0x60>
 15009d4:	e3a01010 	mov	r1, #16
 15009d8:	e3a00c0a 	mov	r0, #2560	; 0xa00
 15009dc:	ebffffc2 	bl	15008ec <start_program>
 15009e0:	e3a00000 	mov	r0, #0
 15009e4:	e8bd8010 	pop	{r4, pc}
 15009e8:	e59f202c 	ldr	r2, [pc, #44]	; 1500a1c <do_burn_efuse_aes+0x64>
 15009ec:	e3a01010 	mov	r1, #16
 15009f0:	e3a00b02 	mov	r0, #2048	; 0x800
 15009f4:	ebffffbc 	bl	15008ec <start_program>
 15009f8:	e3a00000 	mov	r0, #0
 15009fc:	e8bd8010 	pop	{r4, pc}
 1500a00:	e59f2018 	ldr	r2, [pc, #24]	; 1500a20 <do_burn_efuse_aes+0x68>
 1500a04:	e3a01010 	mov	r1, #16
 1500a08:	e3a00c09 	mov	r0, #2304	; 0x900
 1500a0c:	ebffffb6 	bl	15008ec <start_program>
 1500a10:	e3a00000 	mov	r0, #0
 1500a14:	e8bd8010 	pop	{r4, pc}
 1500a18:	015136c0 	cmpeq	r1, r0, asr #13
 1500a1c:	015136a0 	cmpeq	r1, r0, lsr #13
 1500a20:	015136b0 	ldrheq	r3, [r1, #-96]	; 0xffffffa0

01500a24 <do_burn_efuse_deviceID>:
 1500a24:	e92d4010 	push	{r4, lr}
 1500a28:	e59f2010 	ldr	r2, [pc, #16]	; 1500a40 <do_burn_efuse_deviceID+0x1c>
 1500a2c:	e3a01010 	mov	r1, #16
 1500a30:	e3a00ed2 	mov	r0, #3360	; 0xd20
 1500a34:	ebffffac 	bl	15008ec <start_program>
 1500a38:	e3a00000 	mov	r0, #0
 1500a3c:	e8bd8010 	pop	{r4, pc}
 1500a40:	015136d0 	ldrsbeq	r3, [r1, #-96]	; 0xffffffa0

01500a44 <do_burn_efuse_rsa_pgm_dis>:
 1500a44:	e92d4010 	push	{r4, lr}
 1500a48:	e3a00efe 	mov	r0, #4064	; 0xfe0
 1500a4c:	ebffff6f 	bl	1500810 <OTP_JUDGE_BIT>
 1500a50:	e3000da4 	movw	r0, #3492	; 0xda4
 1500a54:	ebffff84 	bl	150086c <OTP_Program_Start>
 1500a58:	ebffff98 	bl	15008c0 <OTP_Program_End>
 1500a5c:	e3a00000 	mov	r0, #0
 1500a60:	e8bd8010 	pop	{r4, pc}

01500a64 <do_burn_efuse_secure_dbg>:
 1500a64:	e92d4010 	push	{r4, lr}
 1500a68:	e3a00efe 	mov	r0, #4064	; 0xfe0
 1500a6c:	ebffff67 	bl	1500810 <OTP_JUDGE_BIT>
 1500a70:	e3000db1 	movw	r0, #3505	; 0xdb1
 1500a74:	ebffff7c 	bl	150086c <OTP_Program_Start>
 1500a78:	ebffff90 	bl	15008c0 <OTP_Program_End>
 1500a7c:	e3a00000 	mov	r0, #0
 1500a80:	e8bd8010 	pop	{r4, pc}

01500a84 <do_burn_efuse_normal_dbg>:
 1500a84:	e92d4010 	push	{r4, lr}
 1500a88:	e3a00efe 	mov	r0, #4064	; 0xfe0
 1500a8c:	ebffff5f 	bl	1500810 <OTP_JUDGE_BIT>
 1500a90:	e3000db2 	movw	r0, #3506	; 0xdb2
 1500a94:	ebffff74 	bl	150086c <OTP_Program_Start>
 1500a98:	ebffff88 	bl	15008c0 <OTP_Program_End>
 1500a9c:	e3a00000 	mov	r0, #0
 1500aa0:	e8bd8010 	pop	{r4, pc}

01500aa4 <do_burn_efuse_secureboot>:
 1500aa4:	e92d4010 	push	{r4, lr}
 1500aa8:	e3a00efe 	mov	r0, #4064	; 0xfe0
 1500aac:	ebffff57 	bl	1500810 <OTP_JUDGE_BIT>
 1500ab0:	e3000da6 	movw	r0, #3494	; 0xda6
 1500ab4:	ebffff6c 	bl	150086c <OTP_Program_Start>
 1500ab8:	ebffff80 	bl	15008c0 <OTP_Program_End>
 1500abc:	e3a00000 	mov	r0, #0
 1500ac0:	e8bd8010 	pop	{r4, pc}

01500ac4 <do_burn_efuse_bootenc>:
 1500ac4:	e92d4010 	push	{r4, lr}
 1500ac8:	e3a00efe 	mov	r0, #4064	; 0xfe0
 1500acc:	ebffff4f 	bl	1500810 <OTP_JUDGE_BIT>
 1500ad0:	e3000dbb 	movw	r0, #3515	; 0xdbb
 1500ad4:	ebffff64 	bl	150086c <OTP_Program_Start>
 1500ad8:	ebffff78 	bl	15008c0 <OTP_Program_End>
 1500adc:	e3a00000 	mov	r0, #0
 1500ae0:	e8bd8010 	pop	{r4, pc}

01500ae4 <do_burn_mp_efuse_bits>:
 1500ae4:	e92d4010 	push	{r4, lr}
 1500ae8:	ebffffd5 	bl	1500a44 <do_burn_efuse_rsa_pgm_dis>
 1500aec:	ebfffff4 	bl	1500ac4 <do_burn_efuse_bootenc>
 1500af0:	ebffffeb 	bl	1500aa4 <do_burn_efuse_secureboot>
 1500af4:	eb000720 	bl	150277c <sync>
 1500af8:	eb000612 	bl	1502348 <R2>
 1500afc:	e8bd4010 	pop	{r4, lr}
 1500b00:	ea00071d 	b	150277c <sync>

01500b04 <do_burn_efuse_loadsos>:
 1500b04:	e92d4010 	push	{r4, lr}
 1500b08:	e3a00efe 	mov	r0, #4064	; 0xfe0
 1500b0c:	ebffff3f 	bl	1500810 <OTP_JUDGE_BIT>
 1500b10:	e3000e0e 	movw	r0, #3598	; 0xe0e
 1500b14:	ebffff54 	bl	150086c <OTP_Program_Start>
 1500b18:	ebffff68 	bl	15008c0 <OTP_Program_End>
 1500b1c:	e3a00000 	mov	r0, #0
 1500b20:	e8bd8010 	pop	{r4, pc}

01500b24 <do_burn_efuse_disonecore>:
 1500b24:	e92d4010 	push	{r4, lr}
 1500b28:	e3a00efe 	mov	r0, #4064	; 0xfe0
 1500b2c:	ebffff37 	bl	1500810 <OTP_JUDGE_BIT>
 1500b30:	e3000e0f 	movw	r0, #3599	; 0xe0f
 1500b34:	ebffff4c 	bl	150086c <OTP_Program_Start>
 1500b38:	ebffff60 	bl	15008c0 <OTP_Program_End>
 1500b3c:	e3a00000 	mov	r0, #0
 1500b40:	e8bd8010 	pop	{r4, pc}

01500b44 <do_burn_efuse_usb2sram>:
 1500b44:	e92d4010 	push	{r4, lr}
 1500b48:	e3a00efe 	mov	r0, #4064	; 0xfe0
 1500b4c:	ebffff2f 	bl	1500810 <OTP_JUDGE_BIT>
 1500b50:	e3000dc2 	movw	r0, #3522	; 0xdc2
 1500b54:	ebffff44 	bl	150086c <OTP_Program_Start>
 1500b58:	ebffff58 	bl	15008c0 <OTP_Program_End>
 1500b5c:	e3a00000 	mov	r0, #0
 1500b60:	e8bd8010 	pop	{r4, pc}

01500b64 <do_burn_efuse_mptest2>:
 1500b64:	e92d4010 	push	{r4, lr}
 1500b68:	e3a00efe 	mov	r0, #4064	; 0xfe0
 1500b6c:	ebffff27 	bl	1500810 <OTP_JUDGE_BIT>
 1500b70:	e3000e0a 	movw	r0, #3594	; 0xe0a
 1500b74:	ebffff3c 	bl	150086c <OTP_Program_Start>
 1500b78:	ebffff50 	bl	15008c0 <OTP_Program_End>
 1500b7c:	e3a00000 	mov	r0, #0
 1500b80:	e8bd8010 	pop	{r4, pc}

01500b84 <do_burn_efuse_keysel>:
 1500b84:	e2403001 	sub	r3, r0, #1
 1500b88:	e3530002 	cmp	r3, #2
 1500b8c:	e92d4010 	push	{r4, lr}
 1500b90:	e1a04000 	mov	r4, r0
 1500b94:	8a000008 	bhi	1500bbc <do_burn_efuse_keysel+0x38>
 1500b98:	e3a00efe 	mov	r0, #4064	; 0xfe0
 1500b9c:	ebffff1b 	bl	1500810 <OTP_JUDGE_BIT>
 1500ba0:	e3140001 	tst	r4, #1
 1500ba4:	1a00000c 	bne	1500bdc <do_burn_efuse_keysel+0x58>
 1500ba8:	e3140002 	tst	r4, #2
 1500bac:	1a000007 	bne	1500bd0 <do_burn_efuse_keysel+0x4c>
 1500bb0:	ebffff42 	bl	15008c0 <OTP_Program_End>
 1500bb4:	e3a00000 	mov	r0, #0
 1500bb8:	e8bd8010 	pop	{r4, pc}
 1500bbc:	e30300e0 	movw	r0, #12512	; 0x30e0
 1500bc0:	e3400150 	movt	r0, #336	; 0x150
 1500bc4:	ebfffdc3 	bl	15002d8 <printf>
 1500bc8:	e3a00001 	mov	r0, #1
 1500bcc:	e8bd8010 	pop	{r4, pc}
 1500bd0:	e3000da1 	movw	r0, #3489	; 0xda1
 1500bd4:	ebffff24 	bl	150086c <OTP_Program_Start>
 1500bd8:	eafffff4 	b	1500bb0 <do_burn_efuse_keysel+0x2c>
 1500bdc:	e3a00eda 	mov	r0, #3488	; 0xda0
 1500be0:	ebffff21 	bl	150086c <OTP_Program_Start>
 1500be4:	e3140002 	tst	r4, #2
 1500be8:	0afffff0 	beq	1500bb0 <do_burn_efuse_keysel+0x2c>
 1500bec:	eafffff7 	b	1500bd0 <do_burn_efuse_keysel+0x4c>

01500bf0 <do_burn_efuse_hwchk>:
 1500bf0:	e2403001 	sub	r3, r0, #1
 1500bf4:	e3530002 	cmp	r3, #2
 1500bf8:	e92d4010 	push	{r4, lr}
 1500bfc:	e1a04000 	mov	r4, r0
 1500c00:	8a000008 	bhi	1500c28 <do_burn_efuse_hwchk+0x38>
 1500c04:	e3a00efe 	mov	r0, #4064	; 0xfe0
 1500c08:	ebffff00 	bl	1500810 <OTP_JUDGE_BIT>
 1500c0c:	e3140001 	tst	r4, #1
 1500c10:	1a00000c 	bne	1500c48 <do_burn_efuse_hwchk+0x58>
 1500c14:	e3140002 	tst	r4, #2
 1500c18:	1a000007 	bne	1500c3c <do_burn_efuse_hwchk+0x4c>
 1500c1c:	ebffff27 	bl	15008c0 <OTP_Program_End>
 1500c20:	e3a00000 	mov	r0, #0
 1500c24:	e8bd8010 	pop	{r4, pc}
 1500c28:	e30300f8 	movw	r0, #12536	; 0x30f8
 1500c2c:	e3400150 	movt	r0, #336	; 0x150
 1500c30:	ebfffda8 	bl	15002d8 <printf>
 1500c34:	e3a00001 	mov	r0, #1
 1500c38:	e8bd8010 	pop	{r4, pc}
 1500c3c:	e3000e0c 	movw	r0, #3596	; 0xe0c
 1500c40:	ebffff09 	bl	150086c <OTP_Program_Start>
 1500c44:	eafffff4 	b	1500c1c <do_burn_efuse_hwchk+0x2c>
 1500c48:	e3000e0b 	movw	r0, #3595	; 0xe0b
 1500c4c:	ebffff06 	bl	150086c <OTP_Program_Start>
 1500c50:	e3140002 	tst	r4, #2
 1500c54:	0afffff0 	beq	1500c1c <do_burn_efuse_hwchk+0x2c>
 1500c58:	eafffff7 	b	1500c3c <do_burn_efuse_hwchk+0x4c>

01500c5c <do_burn_efuse_all>:
 1500c5c:	e92d4010 	push	{r4, lr}
 1500c60:	e3034570 	movw	r4, #13680	; 0x3570
 1500c64:	e3404151 	movt	r4, #337	; 0x151
 1500c68:	e2842030 	add	r2, r4, #48	; 0x30
 1500c6c:	e3a01c01 	mov	r1, #256	; 0x100
 1500c70:	e3a00000 	mov	r0, #0
 1500c74:	ebffff1c 	bl	15008ec <start_program>
 1500c78:	e2842e13 	add	r2, r4, #304	; 0x130
 1500c7c:	e3a01010 	mov	r1, #16
 1500c80:	e3a00b02 	mov	r0, #2048	; 0x800
 1500c84:	ebffff18 	bl	15008ec <start_program>
 1500c88:	e2842d05 	add	r2, r4, #320	; 0x140
 1500c8c:	e3a01010 	mov	r1, #16
 1500c90:	e3a00c09 	mov	r0, #2304	; 0x900
 1500c94:	ebffff14 	bl	15008ec <start_program>
 1500c98:	e2842e15 	add	r2, r4, #336	; 0x150
 1500c9c:	e3a01010 	mov	r1, #16
 1500ca0:	e3a00c0a 	mov	r0, #2560	; 0xa00
 1500ca4:	ebffff10 	bl	15008ec <start_program>
 1500ca8:	e2842e16 	add	r2, r4, #352	; 0x160
 1500cac:	e3a01010 	mov	r1, #16
 1500cb0:	e3a00ed2 	mov	r0, #3360	; 0xd20
 1500cb4:	ebffff0c 	bl	15008ec <start_program>
 1500cb8:	ebffff79 	bl	1500aa4 <do_burn_efuse_secureboot>
 1500cbc:	ebffff80 	bl	1500ac4 <do_burn_efuse_bootenc>
 1500cc0:	ebffff8f 	bl	1500b04 <do_burn_efuse_loadsos>
 1500cc4:	ebffff96 	bl	1500b24 <do_burn_efuse_disonecore>
 1500cc8:	ebffff9d 	bl	1500b44 <do_burn_efuse_usb2sram>
 1500ccc:	ebffffa4 	bl	1500b64 <do_burn_efuse_mptest2>
 1500cd0:	e3a00001 	mov	r0, #1
 1500cd4:	ebffffaa 	bl	1500b84 <do_burn_efuse_keysel>
 1500cd8:	e3a00002 	mov	r0, #2
 1500cdc:	ebffffa8 	bl	1500b84 <do_burn_efuse_keysel>
 1500ce0:	e3a00001 	mov	r0, #1
 1500ce4:	ebffffc1 	bl	1500bf0 <do_burn_efuse_hwchk>
 1500ce8:	e3a00002 	mov	r0, #2
 1500cec:	ebffffbf 	bl	1500bf0 <do_burn_efuse_hwchk>
 1500cf0:	e3a00000 	mov	r0, #0
 1500cf4:	e8bd8010 	pop	{r4, pc}

01500cf8 <OTP_Get_Word>:
 1500cf8:	e3520000 	cmp	r2, #0
 1500cfc:	e3c00003 	bic	r0, r0, #3
 1500d00:	0a00001a 	beq	1500d70 <OTP_Get_Word+0x78>
 1500d04:	e280033e 	add	r0, r0, #-134217728	; 0xf8000000
 1500d08:	e30fcfff 	movw	ip, #65535	; 0xffff
 1500d0c:	e340c006 	movt	ip, #6
 1500d10:	e52de004 	push	{lr}		; (str lr, [sp, #-4]!)
 1500d14:	e0812102 	add	r2, r1, r2, lsl #2
 1500d18:	e2800a17 	add	r0, r0, #94208	; 0x17000
 1500d1c:	ea000004 	b	1500d34 <OTP_Get_Word+0x3c>
 1500d20:	e5903000 	ldr	r3, [r0]
 1500d24:	e2800004 	add	r0, r0, #4
 1500d28:	e4813004 	str	r3, [r1], #4
 1500d2c:	e1510002 	cmp	r1, r2
 1500d30:	0a00000c 	beq	1500d68 <OTP_Get_Word+0x70>
 1500d34:	e280331a 	add	r3, r0, #1744830464	; 0x68000000
 1500d38:	e153000c 	cmp	r3, ip
 1500d3c:	9afffff7 	bls	1500d20 <OTP_Get_Word+0x28>
 1500d40:	e2803467 	add	r3, r0, #1728053248	; 0x67000000
 1500d44:	e280e20a 	add	lr, r0, #-1610612736	; 0xa0000000
 1500d48:	e283360f 	add	r3, r3, #15728640	; 0xf00000
 1500d4c:	e3530402 	cmp	r3, #33554432	; 0x2000000
 1500d50:	259e3000 	ldrcs	r3, [lr]
 1500d54:	3afffff1 	bcc	1500d20 <OTP_Get_Word+0x28>
 1500d58:	e4813004 	str	r3, [r1], #4
 1500d5c:	e2800004 	add	r0, r0, #4
 1500d60:	e1510002 	cmp	r1, r2
 1500d64:	1afffff2 	bne	1500d34 <OTP_Get_Word+0x3c>
 1500d68:	e3a00000 	mov	r0, #0
 1500d6c:	e49df004 	pop	{pc}		; (ldr pc, [sp], #4)
 1500d70:	e3a00000 	mov	r0, #0
 1500d74:	e12fff1e 	bx	lr

01500d78 <OTP_Get_Byte>:
 1500d78:	e3520000 	cmp	r2, #0
 1500d7c:	e3c00003 	bic	r0, r0, #3
 1500d80:	0a00000f 	beq	1500dc4 <OTP_Get_Byte+0x4c>
 1500d84:	e52de004 	push	{lr}		; (str lr, [sp, #-4]!)
 1500d88:	e081e002 	add	lr, r1, r2
 1500d8c:	e1a031a0 	lsr	r3, r0, #3
 1500d90:	e2800008 	add	r0, r0, #8
 1500d94:	e3c3c003 	bic	ip, r3, #3
 1500d98:	e2033003 	and	r3, r3, #3
 1500d9c:	e28cc326 	add	ip, ip, #-1744830464	; 0x98000000
 1500da0:	e28cca17 	add	ip, ip, #94208	; 0x17000
 1500da4:	e1a03183 	lsl	r3, r3, #3
 1500da8:	e59cc000 	ldr	ip, [ip]
 1500dac:	e1a0333c 	lsr	r3, ip, r3
 1500db0:	e4c13001 	strb	r3, [r1], #1
 1500db4:	e151000e 	cmp	r1, lr
 1500db8:	1afffff3 	bne	1500d8c <OTP_Get_Byte+0x14>
 1500dbc:	e1a00002 	mov	r0, r2
 1500dc0:	e49df004 	pop	{pc}		; (ldr pc, [sp], #4)
 1500dc4:	e1a00002 	mov	r0, r2
 1500dc8:	e12fff1e 	bx	lr

01500dcc <read_id_test>:
 1500dcc:	e92d4010 	push	{r4, lr}
 1500dd0:	e300cff8 	movw	ip, #4088	; 0xff8
 1500dd4:	e240ea01 	sub	lr, r0, #4096	; 0x1000
 1500dd8:	e15e000c 	cmp	lr, ip
 1500ddc:	8a000003 	bhi	1500df0 <read_id_test+0x24>
 1500de0:	e0803001 	add	r3, r0, r1
 1500de4:	e301cff8 	movw	ip, #8184	; 0x1ff8
 1500de8:	e153000c 	cmp	r3, ip
 1500dec:	9a000001 	bls	1500df8 <read_id_test+0x2c>
 1500df0:	e3a00001 	mov	r0, #1
 1500df4:	e8bd8010 	pop	{r4, pc}
 1500df8:	e1a03002 	mov	r3, r2
 1500dfc:	e1a02001 	mov	r2, r1
 1500e00:	e1a01003 	mov	r1, r3
 1500e04:	ebffffdb 	bl	1500d78 <OTP_Get_Byte>
 1500e08:	e3a00000 	mov	r0, #0
 1500e0c:	e8bd8010 	pop	{r4, pc}

01500e10 <alloc_mcp_descriptor>:
 1500e10:	e92d4070 	push	{r4, r5, r6, lr}
 1500e14:	e3034b38 	movw	r4, #15160	; 0x3b38
 1500e18:	e3404151 	movt	r4, #337	; 0x151
 1500e1c:	e30f3837 	movw	r3, #63543	; 0xf837
 1500e20:	e34f3ebf 	movt	r3, #65215	; 0xfebf
 1500e24:	e30f27fe 	movw	r2, #63486	; 0xf7fe
 1500e28:	e34f2ebf 	movt	r2, #65215	; 0xfebf
 1500e2c:	e5945000 	ldr	r5, [r4]
 1500e30:	e0853003 	add	r3, r5, r3
 1500e34:	e3550000 	cmp	r5, #0
 1500e38:	11530002 	cmpne	r3, r2
 1500e3c:	8a000006 	bhi	1500e5c <alloc_mcp_descriptor+0x4c>
 1500e40:	e3a03505 	mov	r3, #20971520	; 0x1400000
 1500e44:	e3a02b02 	mov	r2, #2048	; 0x800
 1500e48:	e1a00003 	mov	r0, r3
 1500e4c:	e3a01000 	mov	r1, #0
 1500e50:	e5843000 	str	r3, [r4]
 1500e54:	eb000711 	bl	1502aa0 <memset>
 1500e58:	e5945000 	ldr	r5, [r4]
 1500e5c:	e3a02038 	mov	r2, #56	; 0x38
 1500e60:	e3a01000 	mov	r1, #0
 1500e64:	e1a00005 	mov	r0, r5
 1500e68:	eb00070c 	bl	1502aa0 <memset>
 1500e6c:	e5943000 	ldr	r3, [r4]
 1500e70:	e1a00005 	mov	r0, r5
 1500e74:	e2833c01 	add	r3, r3, #256	; 0x100
 1500e78:	e5843000 	str	r3, [r4]
 1500e7c:	e8bd8070 	pop	{r4, r5, r6, pc}

01500e80 <load_otp>:
 1500e80:	e3a01a05 	mov	r1, #20480	; 0x5000
 1500e84:	e3491801 	movt	r1, #38913	; 0x9801
 1500e88:	e3a00001 	mov	r0, #1
 1500e8c:	e1a02001 	mov	r2, r1
 1500e90:	e3a03801 	mov	r3, #65536	; 0x10000
 1500e94:	e581019c 	str	r0, [r1, #412]	; 0x19c
 1500e98:	e592019c 	ldr	r0, [r2, #412]	; 0x19c
 1500e9c:	e2100001 	ands	r0, r0, #1
 1500ea0:	012fff1e 	bxeq	lr
 1500ea4:	e2533001 	subs	r3, r3, #1
 1500ea8:	1afffffa 	bne	1500e98 <load_otp+0x18>
 1500eac:	e3e00000 	mvn	r0, #0
 1500eb0:	e12fff1e 	bx	lr

01500eb4 <do_mcp>:
 1500eb4:	e2503000 	subs	r3, r0, #0
 1500eb8:	0a00003d 	beq	1500fb4 <do_mcp+0x100>
 1500ebc:	e92d4070 	push	{r4, r5, r6, lr}
 1500ec0:	e3a05a05 	mov	r5, #20480	; 0x5000
 1500ec4:	e3495801 	movt	r5, #38913	; 0x9801
 1500ec8:	e3a0e002 	mov	lr, #2
 1500ecc:	e283c070 	add	ip, r3, #112	; 0x70
 1500ed0:	e3a02001 	mov	r2, #1
 1500ed4:	e3a010fe 	mov	r1, #254	; 0xfe
 1500ed8:	e5852934 	str	r2, [r5, #2356]	; 0x934
 1500edc:	e2832038 	add	r2, r3, #56	; 0x38
 1500ee0:	e5851908 	str	r1, [r5, #2312]	; 0x908
 1500ee4:	e3a01038 	mov	r1, #56	; 0x38
 1500ee8:	e585e900 	str	lr, [r5, #2304]	; 0x900
 1500eec:	e585390c 	str	r3, [r5, #2316]	; 0x90c
 1500ef0:	e585c910 	str	ip, [r5, #2320]	; 0x910
 1500ef4:	e5853914 	str	r3, [r5, #2324]	; 0x914
 1500ef8:	e5852918 	str	r2, [r5, #2328]	; 0x918
 1500efc:	eb0007b9 	bl	1502de8 <flush_cache>
 1500f00:	eb00061d 	bl	150277c <sync>
 1500f04:	f57ff06f 	isb	sy
 1500f08:	e3a03003 	mov	r3, #3
 1500f0c:	e5853900 	str	r3, [r5, #2304]	; 0x900
 1500f10:	eb000619 	bl	150277c <sync>
 1500f14:	e5953904 	ldr	r3, [r5, #2308]	; 0x904
 1500f18:	e3130006 	tst	r3, #6
 1500f1c:	030f4fff 	movweq	r4, #65535	; 0xffff
 1500f20:	0340407f 	movteq	r4, #127	; 0x7f
 1500f24:	0a000002 	beq	1500f34 <do_mcp+0x80>
 1500f28:	ea000009 	b	1500f54 <do_mcp+0xa0>
 1500f2c:	e2544001 	subs	r4, r4, #1
 1500f30:	0a000019 	beq	1500f9c <do_mcp+0xe8>
 1500f34:	e3a00001 	mov	r0, #1
 1500f38:	eb0005e2 	bl	15026c8 <mdelay>
 1500f3c:	eb00060e 	bl	150277c <sync>
 1500f40:	e5952904 	ldr	r2, [r5, #2308]	; 0x904
 1500f44:	e3a03a05 	mov	r3, #20480	; 0x5000
 1500f48:	e3493801 	movt	r3, #38913	; 0x9801
 1500f4c:	e3120006 	tst	r2, #6
 1500f50:	0afffff5 	beq	1500f2c <do_mcp+0x78>
 1500f54:	e3a03a05 	mov	r3, #20480	; 0x5000
 1500f58:	e3493801 	movt	r3, #38913	; 0x9801
 1500f5c:	e5932904 	ldr	r2, [r3, #2308]	; 0x904
 1500f60:	e3120002 	tst	r2, #2
 1500f64:	13a00000 	movne	r0, #0
 1500f68:	0a000006 	beq	1500f88 <do_mcp+0xd4>
 1500f6c:	e3a03a05 	mov	r3, #20480	; 0x5000
 1500f70:	e3493801 	movt	r3, #38913	; 0x9801
 1500f74:	e3a01002 	mov	r1, #2
 1500f78:	e3a02006 	mov	r2, #6
 1500f7c:	e5831900 	str	r1, [r3, #2304]	; 0x900
 1500f80:	e5832904 	str	r2, [r3, #2308]	; 0x904
 1500f84:	e8bd8070 	pop	{r4, r5, r6, pc}
 1500f88:	e5933904 	ldr	r3, [r3, #2308]	; 0x904
 1500f8c:	e3130004 	tst	r3, #4
 1500f90:	13e00000 	mvnne	r0, #0
 1500f94:	03e00001 	mvneq	r0, #1
 1500f98:	eafffff3 	b	1500f6c <do_mcp+0xb8>
 1500f9c:	e3a01002 	mov	r1, #2
 1500fa0:	e3a02006 	mov	r2, #6
 1500fa4:	e5831900 	str	r1, [r3, #2304]	; 0x900
 1500fa8:	e3e00002 	mvn	r0, #2
 1500fac:	e5832904 	str	r2, [r3, #2308]	; 0x904
 1500fb0:	e8bd8070 	pop	{r4, r5, r6, pc}
 1500fb4:	e3e00000 	mvn	r0, #0
 1500fb8:	e12fff1e 	bx	lr

01500fbc <swap_endian>:
 1500fbc:	e6bf0f30 	rev	r0, r0
 1500fc0:	e12fff1e 	bx	lr

01500fc4 <reverse_rsa_signature>:
 1500fc4:	e92d4030 	push	{r4, r5, lr}
 1500fc8:	e2801206 	add	r1, r0, #1610612736	; 0x60000000
 1500fcc:	e30fefff 	movw	lr, #65535	; 0xffff
 1500fd0:	e340e006 	movt	lr, #6
 1500fd4:	e24dd014 	sub	sp, sp, #20
 1500fd8:	e2814010 	add	r4, r1, #16
 1500fdc:	e1a0c00d 	mov	ip, sp
 1500fe0:	e1a03001 	mov	r3, r1
 1500fe4:	e283231a 	add	r2, r3, #1744830464	; 0x68000000
 1500fe8:	e152000e 	cmp	r2, lr
 1500fec:	8a00003f 	bhi	15010f0 <reverse_rsa_signature+0x12c>
 1500ff0:	e5932000 	ldr	r2, [r3]
 1500ff4:	e2833004 	add	r3, r3, #4
 1500ff8:	e6bf2f32 	rev	r2, r2
 1500ffc:	e1530004 	cmp	r3, r4
 1501000:	e48c2004 	str	r2, [ip], #4
 1501004:	1afffff6 	bne	1500fe4 <reverse_rsa_signature+0x20>
 1501008:	e2803332 	add	r3, r0, #-939524096	; 0xc8000000
 150100c:	e283e01c 	add	lr, r3, #28
 1501010:	e35e0807 	cmp	lr, #458752	; 0x70000
 1501014:	2a000080 	bcs	150121c <reverse_rsa_signature+0x258>
 1501018:	e591201c 	ldr	r2, [r1, #28]
 150101c:	e3530807 	cmp	r3, #458752	; 0x70000
 1501020:	e6bf2f32 	rev	r2, r2
 1501024:	2a000076 	bcs	1501204 <reverse_rsa_signature+0x240>
 1501028:	e5812000 	str	r2, [r1]
 150102c:	e2834018 	add	r4, r3, #24
 1501030:	e3540807 	cmp	r4, #458752	; 0x70000
 1501034:	2a00006c 	bcs	15011ec <reverse_rsa_signature+0x228>
 1501038:	e591c018 	ldr	ip, [r1, #24]
 150103c:	e2832004 	add	r2, r3, #4
 1501040:	e6bfcf3c 	rev	ip, ip
 1501044:	e3520807 	cmp	r2, #458752	; 0x70000
 1501048:	2a000061 	bcs	15011d4 <reverse_rsa_signature+0x210>
 150104c:	e2802246 	add	r2, r0, #1610612740	; 0x60000004
 1501050:	e582c000 	str	ip, [r2]
 1501054:	e2835014 	add	r5, r3, #20
 1501058:	e3550807 	cmp	r5, #458752	; 0x70000
 150105c:	2a000056 	bcs	15011bc <reverse_rsa_signature+0x1f8>
 1501060:	e591c014 	ldr	ip, [r1, #20]
 1501064:	e2832008 	add	r2, r3, #8
 1501068:	e6bfcf3c 	rev	ip, ip
 150106c:	e3520807 	cmp	r2, #458752	; 0x70000
 1501070:	2a00004b 	bcs	15011a4 <reverse_rsa_signature+0x1e0>
 1501074:	e2802286 	add	r2, r0, #1610612744	; 0x60000008
 1501078:	e582c000 	str	ip, [r2]
 150107c:	e283c010 	add	ip, r3, #16
 1501080:	e35c0807 	cmp	ip, #458752	; 0x70000
 1501084:	2a000040 	bcs	150118c <reverse_rsa_signature+0x1c8>
 1501088:	e5912010 	ldr	r2, [r1, #16]
 150108c:	e283300c 	add	r3, r3, #12
 1501090:	e6bf2f32 	rev	r2, r2
 1501094:	e3530807 	cmp	r3, #458752	; 0x70000
 1501098:	2a000035 	bcs	1501174 <reverse_rsa_signature+0x1b0>
 150109c:	e28032c6 	add	r3, r0, #1610612748	; 0x6000000c
 15010a0:	e5832000 	str	r2, [r3]
 15010a4:	e35c0807 	cmp	ip, #458752	; 0x70000
 15010a8:	e59d300c 	ldr	r3, [sp, #12]
 15010ac:	2a00002a 	bcs	150115c <reverse_rsa_signature+0x198>
 15010b0:	e5813010 	str	r3, [r1, #16]
 15010b4:	e3550807 	cmp	r5, #458752	; 0x70000
 15010b8:	e59d3008 	ldr	r3, [sp, #8]
 15010bc:	2a000020 	bcs	1501144 <reverse_rsa_signature+0x180>
 15010c0:	e5813014 	str	r3, [r1, #20]
 15010c4:	e3540807 	cmp	r4, #458752	; 0x70000
 15010c8:	e59d3004 	ldr	r3, [sp, #4]
 15010cc:	2a000016 	bcs	150112c <reverse_rsa_signature+0x168>
 15010d0:	e5813018 	str	r3, [r1, #24]
 15010d4:	e35e0807 	cmp	lr, #458752	; 0x70000
 15010d8:	e59d3000 	ldr	r3, [sp]
 15010dc:	2a00000a 	bcs	150110c <reverse_rsa_signature+0x148>
 15010e0:	e3a00000 	mov	r0, #0
 15010e4:	e581301c 	str	r3, [r1, #28]
 15010e8:	e28dd014 	add	sp, sp, #20
 15010ec:	e8bd8030 	pop	{r4, r5, pc}
 15010f0:	e2832467 	add	r2, r3, #1728053248	; 0x67000000
 15010f4:	e283520a 	add	r5, r3, #-1610612736	; 0xa0000000
 15010f8:	e282260f 	add	r2, r2, #15728640	; 0xf00000
 15010fc:	e3520402 	cmp	r2, #33554432	; 0x2000000
 1501100:	25952000 	ldrcs	r2, [r5]
 1501104:	2affffba 	bcs	1500ff4 <reverse_rsa_signature+0x30>
 1501108:	eaffffb8 	b	1500ff0 <reverse_rsa_signature+0x2c>
 150110c:	e2802173 	add	r2, r0, #-1073741796	; 0xc000001c
 1501110:	e282267f 	add	r2, r2, #133169152	; 0x7f00000
 1501114:	e3520402 	cmp	r2, #33554432	; 0x2000000
 1501118:	2580301c 	strcs	r3, [r0, #28]
 150111c:	3affffef 	bcc	15010e0 <reverse_rsa_signature+0x11c>
 1501120:	e3a00000 	mov	r0, #0
 1501124:	e28dd014 	add	sp, sp, #20
 1501128:	e8bd8030 	pop	{r4, r5, pc}
 150112c:	e2802163 	add	r2, r0, #-1073741800	; 0xc0000018
 1501130:	e282267f 	add	r2, r2, #133169152	; 0x7f00000
 1501134:	e3520402 	cmp	r2, #33554432	; 0x2000000
 1501138:	25803018 	strcs	r3, [r0, #24]
 150113c:	2affffe4 	bcs	15010d4 <reverse_rsa_signature+0x110>
 1501140:	eaffffe2 	b	15010d0 <reverse_rsa_signature+0x10c>
 1501144:	e2802153 	add	r2, r0, #-1073741804	; 0xc0000014
 1501148:	e282267f 	add	r2, r2, #133169152	; 0x7f00000
 150114c:	e3520402 	cmp	r2, #33554432	; 0x2000000
 1501150:	25803014 	strcs	r3, [r0, #20]
 1501154:	2affffda 	bcs	15010c4 <reverse_rsa_signature+0x100>
 1501158:	eaffffd8 	b	15010c0 <reverse_rsa_signature+0xfc>
 150115c:	e2802143 	add	r2, r0, #-1073741808	; 0xc0000010
 1501160:	e282267f 	add	r2, r2, #133169152	; 0x7f00000
 1501164:	e3520402 	cmp	r2, #33554432	; 0x2000000
 1501168:	25803010 	strcs	r3, [r0, #16]
 150116c:	2affffd0 	bcs	15010b4 <reverse_rsa_signature+0xf0>
 1501170:	eaffffce 	b	15010b0 <reverse_rsa_signature+0xec>
 1501174:	e2803133 	add	r3, r0, #-1073741812	; 0xc000000c
 1501178:	e283367f 	add	r3, r3, #133169152	; 0x7f00000
 150117c:	e3530402 	cmp	r3, #33554432	; 0x2000000
 1501180:	2580200c 	strcs	r2, [r0, #12]
 1501184:	2affffc6 	bcs	15010a4 <reverse_rsa_signature+0xe0>
 1501188:	eaffffc3 	b	150109c <reverse_rsa_signature+0xd8>
 150118c:	e2802143 	add	r2, r0, #-1073741808	; 0xc0000010
 1501190:	e282267f 	add	r2, r2, #133169152	; 0x7f00000
 1501194:	e3520402 	cmp	r2, #33554432	; 0x2000000
 1501198:	25902010 	ldrcs	r2, [r0, #16]
 150119c:	2affffba 	bcs	150108c <reverse_rsa_signature+0xc8>
 15011a0:	eaffffb8 	b	1501088 <reverse_rsa_signature+0xc4>
 15011a4:	e2802123 	add	r2, r0, #-1073741816	; 0xc0000008
 15011a8:	e282267f 	add	r2, r2, #133169152	; 0x7f00000
 15011ac:	e3520402 	cmp	r2, #33554432	; 0x2000000
 15011b0:	2580c008 	strcs	ip, [r0, #8]
 15011b4:	2affffb0 	bcs	150107c <reverse_rsa_signature+0xb8>
 15011b8:	eaffffad 	b	1501074 <reverse_rsa_signature+0xb0>
 15011bc:	e2802153 	add	r2, r0, #-1073741804	; 0xc0000014
 15011c0:	e282267f 	add	r2, r2, #133169152	; 0x7f00000
 15011c4:	e3520402 	cmp	r2, #33554432	; 0x2000000
 15011c8:	2590c014 	ldrcs	ip, [r0, #20]
 15011cc:	2affffa4 	bcs	1501064 <reverse_rsa_signature+0xa0>
 15011d0:	eaffffa2 	b	1501060 <reverse_rsa_signature+0x9c>
 15011d4:	e2802113 	add	r2, r0, #-1073741820	; 0xc0000004
 15011d8:	e282267f 	add	r2, r2, #133169152	; 0x7f00000
 15011dc:	e3520402 	cmp	r2, #33554432	; 0x2000000
 15011e0:	2580c004 	strcs	ip, [r0, #4]
 15011e4:	2affff9a 	bcs	1501054 <reverse_rsa_signature+0x90>
 15011e8:	eaffff97 	b	150104c <reverse_rsa_signature+0x88>
 15011ec:	e2802163 	add	r2, r0, #-1073741800	; 0xc0000018
 15011f0:	e282267f 	add	r2, r2, #133169152	; 0x7f00000
 15011f4:	e3520402 	cmp	r2, #33554432	; 0x2000000
 15011f8:	2590c018 	ldrcs	ip, [r0, #24]
 15011fc:	2affff8e 	bcs	150103c <reverse_rsa_signature+0x78>
 1501200:	eaffff8c 	b	1501038 <reverse_rsa_signature+0x74>
 1501204:	e280c4c7 	add	ip, r0, #-956301312	; 0xc7000000
 1501208:	e28cc60f 	add	ip, ip, #15728640	; 0xf00000
 150120c:	e35c0402 	cmp	ip, #33554432	; 0x2000000
 1501210:	25802000 	strcs	r2, [r0]
 1501214:	2affff84 	bcs	150102c <reverse_rsa_signature+0x68>
 1501218:	eaffff82 	b	1501028 <reverse_rsa_signature+0x64>
 150121c:	e2802173 	add	r2, r0, #-1073741796	; 0xc000001c
 1501220:	e282267f 	add	r2, r2, #133169152	; 0x7f00000
 1501224:	e3520402 	cmp	r2, #33554432	; 0x2000000
 1501228:	2590201c 	ldrcs	r2, [r0, #28]
 150122c:	2affff7a 	bcs	150101c <reverse_rsa_signature+0x58>
 1501230:	eaffff78 	b	1501018 <reverse_rsa_signature+0x54>

01501234 <AES_CBC_decrypt>:
 1501234:	e92d41f0 	push	{r4, r5, r6, r7, r8, lr}
 1501238:	e1a08000 	mov	r8, r0
 150123c:	e1a06001 	mov	r6, r1
 1501240:	e1a07002 	mov	r7, r2
 1501244:	e1a05003 	mov	r5, r3
 1501248:	ebfffef0 	bl	1500e10 <alloc_mcp_descriptor>
 150124c:	e2504000 	subs	r4, r0, #0
 1501250:	0a000017 	beq	15012b4 <AES_CBC_decrypt+0x80>
 1501254:	e3550000 	cmp	r5, #0
 1501258:	0a00000f 	beq	150129c <AES_CBC_decrypt+0x68>
 150125c:	e3a03045 	mov	r3, #69	; 0x45
 1501260:	e5843000 	str	r3, [r4]
 1501264:	e5953000 	ldr	r3, [r5]
 1501268:	e5843004 	str	r3, [r4, #4]
 150126c:	e5953004 	ldr	r3, [r5, #4]
 1501270:	e5843008 	str	r3, [r4, #8]
 1501274:	e5953008 	ldr	r3, [r5, #8]
 1501278:	e584300c 	str	r3, [r4, #12]
 150127c:	e595300c 	ldr	r3, [r5, #12]
 1501280:	e5843010 	str	r3, [r4, #16]
 1501284:	e584802c 	str	r8, [r4, #44]	; 0x2c
 1501288:	e1a00004 	mov	r0, r4
 150128c:	e5847030 	str	r7, [r4, #48]	; 0x30
 1501290:	e5846034 	str	r6, [r4, #52]	; 0x34
 1501294:	e8bd41f0 	pop	{r4, r5, r6, r7, r8, lr}
 1501298:	eaffff05 	b	1500eb4 <do_mcp>
 150129c:	ebfffef7 	bl	1500e80 <load_otp>
 15012a0:	e3500000 	cmp	r0, #0
 15012a4:	1a000004 	bne	15012bc <AES_CBC_decrypt+0x88>
 15012a8:	e3013045 	movw	r3, #4165	; 0x1045
 15012ac:	e5843000 	str	r3, [r4]
 15012b0:	eafffff3 	b	1501284 <AES_CBC_decrypt+0x50>
 15012b4:	e3e00000 	mvn	r0, #0
 15012b8:	e8bd81f0 	pop	{r4, r5, r6, r7, r8, pc}
 15012bc:	e3e00001 	mvn	r0, #1
 15012c0:	e8bd81f0 	pop	{r4, r5, r6, r7, r8, pc}

015012c4 <AES_CBC_encrypt>:
 15012c4:	e92d41f0 	push	{r4, r5, r6, r7, r8, lr}
 15012c8:	e1a08000 	mov	r8, r0
 15012cc:	e1a06001 	mov	r6, r1
 15012d0:	e1a07002 	mov	r7, r2
 15012d4:	e1a05003 	mov	r5, r3
 15012d8:	ebfffecc 	bl	1500e10 <alloc_mcp_descriptor>
 15012dc:	e2504000 	subs	r4, r0, #0
 15012e0:	0a000017 	beq	1501344 <AES_CBC_encrypt+0x80>
 15012e4:	e3550000 	cmp	r5, #0
 15012e8:	0a00000f 	beq	150132c <AES_CBC_encrypt+0x68>
 15012ec:	e3a03065 	mov	r3, #101	; 0x65
 15012f0:	e5843000 	str	r3, [r4]
 15012f4:	e5953000 	ldr	r3, [r5]
 15012f8:	e5843004 	str	r3, [r4, #4]
 15012fc:	e5953004 	ldr	r3, [r5, #4]
 1501300:	e5843008 	str	r3, [r4, #8]
 1501304:	e5953008 	ldr	r3, [r5, #8]
 1501308:	e584300c 	str	r3, [r4, #12]
 150130c:	e595300c 	ldr	r3, [r5, #12]
 1501310:	e5843010 	str	r3, [r4, #16]
 1501314:	e584802c 	str	r8, [r4, #44]	; 0x2c
 1501318:	e1a00004 	mov	r0, r4
 150131c:	e5847030 	str	r7, [r4, #48]	; 0x30
 1501320:	e5846034 	str	r6, [r4, #52]	; 0x34
 1501324:	e8bd41f0 	pop	{r4, r5, r6, r7, r8, lr}
 1501328:	eafffee1 	b	1500eb4 <do_mcp>
 150132c:	ebfffed3 	bl	1500e80 <load_otp>
 1501330:	e3500000 	cmp	r0, #0
 1501334:	1a000004 	bne	150134c <AES_CBC_encrypt+0x88>
 1501338:	e3013065 	movw	r3, #4197	; 0x1065
 150133c:	e5843000 	str	r3, [r4]
 1501340:	eafffff3 	b	1501314 <AES_CBC_encrypt+0x50>
 1501344:	e3e00000 	mvn	r0, #0
 1501348:	e8bd81f0 	pop	{r4, r5, r6, r7, r8, pc}
 150134c:	e3e00001 	mvn	r0, #1
 1501350:	e8bd81f0 	pop	{r4, r5, r6, r7, r8, pc}

01501354 <AES_ECB_decrypt>:
 1501354:	e92d41f0 	push	{r4, r5, r6, r7, r8, lr}
 1501358:	e1a08000 	mov	r8, r0
 150135c:	e1a06001 	mov	r6, r1
 1501360:	e1a07002 	mov	r7, r2
 1501364:	e1a05003 	mov	r5, r3
 1501368:	ebfffea8 	bl	1500e10 <alloc_mcp_descriptor>
 150136c:	e2504000 	subs	r4, r0, #0
 1501370:	0a000018 	beq	15013d8 <AES_ECB_decrypt+0x84>
 1501374:	e3550000 	cmp	r5, #0
 1501378:	0a00000f 	beq	15013bc <AES_ECB_decrypt+0x68>
 150137c:	e3a03005 	mov	r3, #5
 1501380:	e5843000 	str	r3, [r4]
 1501384:	e5953000 	ldr	r3, [r5]
 1501388:	e5843004 	str	r3, [r4, #4]
 150138c:	e5953004 	ldr	r3, [r5, #4]
 1501390:	e5843008 	str	r3, [r4, #8]
 1501394:	e5953008 	ldr	r3, [r5, #8]
 1501398:	e584300c 	str	r3, [r4, #12]
 150139c:	e595300c 	ldr	r3, [r5, #12]
 15013a0:	e5843010 	str	r3, [r4, #16]
 15013a4:	e584802c 	str	r8, [r4, #44]	; 0x2c
 15013a8:	e1a00004 	mov	r0, r4
 15013ac:	e5847030 	str	r7, [r4, #48]	; 0x30
 15013b0:	e5846034 	str	r6, [r4, #52]	; 0x34
 15013b4:	e8bd41f0 	pop	{r4, r5, r6, r7, r8, lr}
 15013b8:	eafffebd 	b	1500eb4 <do_mcp>
 15013bc:	ebfffeaf 	bl	1500e80 <load_otp>
 15013c0:	e3500000 	cmp	r0, #0
 15013c4:	1a000005 	bne	15013e0 <AES_ECB_decrypt+0x8c>
 15013c8:	e3a03a01 	mov	r3, #4096	; 0x1000
 15013cc:	e3403010 	movt	r3, #16
 15013d0:	e5843000 	str	r3, [r4]
 15013d4:	eafffff2 	b	15013a4 <AES_ECB_decrypt+0x50>
 15013d8:	e3e00000 	mvn	r0, #0
 15013dc:	e8bd81f0 	pop	{r4, r5, r6, r7, r8, pc}
 15013e0:	e3e00001 	mvn	r0, #1
 15013e4:	e8bd81f0 	pop	{r4, r5, r6, r7, r8, pc}

015013e8 <AES_ECB_encrypt>:
 15013e8:	e92d41f0 	push	{r4, r5, r6, r7, r8, lr}
 15013ec:	e1a08000 	mov	r8, r0
 15013f0:	e1a07001 	mov	r7, r1
 15013f4:	e1a06002 	mov	r6, r2
 15013f8:	e1a05003 	mov	r5, r3
 15013fc:	ebfffe83 	bl	1500e10 <alloc_mcp_descriptor>
 1501400:	e2504000 	subs	r4, r0, #0
 1501404:	0a000028 	beq	15014ac <AES_ECB_encrypt+0xc4>
 1501408:	e3550000 	cmp	r5, #0
 150140c:	0a000017 	beq	1501470 <AES_ECB_encrypt+0x88>
 1501410:	e3a03025 	mov	r3, #37	; 0x25
 1501414:	e5843000 	str	r3, [r4]
 1501418:	e5953000 	ldr	r3, [r5]
 150141c:	e5843004 	str	r3, [r4, #4]
 1501420:	e5953004 	ldr	r3, [r5, #4]
 1501424:	e5843008 	str	r3, [r4, #8]
 1501428:	e5953008 	ldr	r3, [r5, #8]
 150142c:	e584300c 	str	r3, [r4, #12]
 1501430:	e595300c 	ldr	r3, [r5, #12]
 1501434:	e5843010 	str	r3, [r4, #16]
 1501438:	e584802c 	str	r8, [r4, #44]	; 0x2c
 150143c:	e1a00004 	mov	r0, r4
 1501440:	e5846030 	str	r6, [r4, #48]	; 0x30
 1501444:	e5847034 	str	r7, [r4, #52]	; 0x34
 1501448:	ebfffe99 	bl	1500eb4 <do_mcp>
 150144c:	e2504000 	subs	r4, r0, #0
 1501450:	0a000001 	beq	150145c <AES_ECB_encrypt+0x74>
 1501454:	e1a00004 	mov	r0, r4
 1501458:	e8bd81f0 	pop	{r4, r5, r6, r7, r8, pc}
 150145c:	e1a00006 	mov	r0, r6
 1501460:	e1a01007 	mov	r1, r7
 1501464:	eb00065f 	bl	1502de8 <flush_cache>
 1501468:	e1a00004 	mov	r0, r4
 150146c:	e8bd81f0 	pop	{r4, r5, r6, r7, r8, pc}
 1501470:	ebfffe82 	bl	1500e80 <load_otp>
 1501474:	e3500000 	cmp	r0, #0
 1501478:	03013025 	movweq	r3, #4133	; 0x1025
 150147c:	05843000 	streq	r3, [r4]
 1501480:	0affffec 	beq	1501438 <AES_ECB_encrypt+0x50>
 1501484:	e3a030c4 	mov	r3, #196	; 0xc4
 1501488:	e303210c 	movw	r2, #12556	; 0x310c
 150148c:	e3402150 	movt	r2, #336	; 0x150
 1501490:	e303112c 	movw	r1, #12588	; 0x312c
 1501494:	e3401150 	movt	r1, #336	; 0x150
 1501498:	e3030134 	movw	r0, #12596	; 0x3134
 150149c:	e3400150 	movt	r0, #336	; 0x150
 15014a0:	ebfffb8c 	bl	15002d8 <printf>
 15014a4:	e3e00001 	mvn	r0, #1
 15014a8:	e8bd81f0 	pop	{r4, r5, r6, r7, r8, pc}
 15014ac:	e3a030be 	mov	r3, #190	; 0xbe
 15014b0:	e303210c 	movw	r2, #12556	; 0x310c
 15014b4:	e3402150 	movt	r2, #336	; 0x150
 15014b8:	e303112c 	movw	r1, #12588	; 0x312c
 15014bc:	e3401150 	movt	r1, #336	; 0x150
 15014c0:	e3030134 	movw	r0, #12596	; 0x3134
 15014c4:	e3400150 	movt	r0, #336	; 0x150
 15014c8:	ebfffb82 	bl	15002d8 <printf>
 15014cc:	e3e00000 	mvn	r0, #0
 15014d0:	e8bd81f0 	pop	{r4, r5, r6, r7, r8, pc}

015014d4 <AES_hash_one>:
 15014d4:	e92d4070 	push	{r4, r5, r6, lr}
 15014d8:	e1a06000 	mov	r6, r0
 15014dc:	e1a04001 	mov	r4, r1
 15014e0:	e1a05002 	mov	r5, r2
 15014e4:	ebfffe49 	bl	1500e10 <alloc_mcp_descriptor>
 15014e8:	e2503000 	subs	r3, r0, #0
 15014ec:	0a000012 	beq	150153c <AES_hash_one+0x68>
 15014f0:	e583602c 	str	r6, [r3, #44]	; 0x2c
 15014f4:	e30dcf39 	movw	ip, #57145	; 0xdf39
 15014f8:	e342cdc2 	movt	ip, #11714	; 0x2dc2
 15014fc:	e583c01c 	str	ip, [r3, #28]
 1501500:	e5835030 	str	r5, [r3, #48]	; 0x30
 1501504:	e30221d0 	movw	r2, #8656	; 0x21d0
 1501508:	e3442203 	movt	r2, #16899	; 0x4203
 150150c:	e5832020 	str	r2, [r3, #32]
 1501510:	e5834034 	str	r4, [r3, #52]	; 0x34
 1501514:	e30f2e23 	movw	r2, #65059	; 0xfe23
 1501518:	e34c2ef1 	movt	r2, #52977	; 0xcef1
 150151c:	e5832024 	str	r2, [r3, #36]	; 0x24
 1501520:	e3a01027 	mov	r1, #39	; 0x27
 1501524:	e3092d95 	movw	r2, #40341	; 0x9d95
 1501528:	e3472402 	movt	r2, #29698	; 0x7402
 150152c:	e5832028 	str	r2, [r3, #40]	; 0x28
 1501530:	e5831000 	str	r1, [r3]
 1501534:	e8bd4070 	pop	{r4, r5, r6, lr}
 1501538:	eafffe5d 	b	1500eb4 <do_mcp>
 150153c:	e3e00000 	mvn	r0, #0
 1501540:	e8bd8070 	pop	{r4, r5, r6, pc}

01501544 <AES_hash>:
 1501544:	e3520000 	cmp	r2, #0
 1501548:	13500000 	cmpne	r0, #0
 150154c:	0a000050 	beq	1501694 <AES_hash+0x150>
 1501550:	e3530000 	cmp	r3, #0
 1501554:	13510000 	cmpne	r1, #0
 1501558:	e92d41f0 	push	{r4, r5, r6, r7, r8, lr}
 150155c:	e1a06001 	mov	r6, r1
 1501560:	e1a07003 	mov	r7, r3
 1501564:	0a000048 	beq	150168c <AES_hash+0x148>
 1501568:	e1a08000 	mov	r8, r0
 150156c:	e1a04002 	mov	r4, r2
 1501570:	ebfffe26 	bl	1500e10 <alloc_mcp_descriptor>
 1501574:	e2505000 	subs	r5, r0, #0
 1501578:	0a000043 	beq	150168c <AES_hash+0x148>
 150157c:	e30d3f39 	movw	r3, #57145	; 0xdf39
 1501580:	e3423dc2 	movt	r3, #11714	; 0x2dc2
 1501584:	e30221d0 	movw	r2, #8656	; 0x21d0
 1501588:	e3442203 	movt	r2, #16899	; 0x4203
 150158c:	e585301c 	str	r3, [r5, #28]
 1501590:	e30f3e23 	movw	r3, #65059	; 0xfe23
 1501594:	e34c3ef1 	movt	r3, #52977	; 0xcef1
 1501598:	e5853024 	str	r3, [r5, #36]	; 0x24
 150159c:	e5852020 	str	r2, [r5, #32]
 15015a0:	e3a03027 	mov	r3, #39	; 0x27
 15015a4:	e3092d95 	movw	r2, #40341	; 0x9d95
 15015a8:	e3472402 	movt	r2, #29698	; 0x7402
 15015ac:	e5854030 	str	r4, [r5, #48]	; 0x30
 15015b0:	e5852028 	str	r2, [r5, #40]	; 0x28
 15015b4:	e5853000 	str	r3, [r5]
 15015b8:	ea000026 	b	1501658 <AES_hash+0x114>
 15015bc:	e3560000 	cmp	r6, #0
 15015c0:	0a00002f 	beq	1501684 <AES_hash+0x140>
 15015c4:	e5d41001 	ldrb	r1, [r4, #1]
 15015c8:	e5d43000 	ldrb	r3, [r4]
 15015cc:	e5d42003 	ldrb	r2, [r4, #3]
 15015d0:	e5d40002 	ldrb	r0, [r4, #2]
 15015d4:	e1a01801 	lsl	r1, r1, #16
 15015d8:	e1813c03 	orr	r3, r1, r3, lsl #24
 15015dc:	e5951034 	ldr	r1, [r5, #52]	; 0x34
 15015e0:	e1833002 	orr	r3, r3, r2
 15015e4:	e1833400 	orr	r3, r3, r0, lsl #8
 15015e8:	e585301c 	str	r3, [r5, #28]
 15015ec:	e0888001 	add	r8, r8, r1
 15015f0:	e5d41005 	ldrb	r1, [r4, #5]
 15015f4:	e5d43004 	ldrb	r3, [r4, #4]
 15015f8:	e5d42007 	ldrb	r2, [r4, #7]
 15015fc:	e5d40006 	ldrb	r0, [r4, #6]
 1501600:	e1a01801 	lsl	r1, r1, #16
 1501604:	e1813c03 	orr	r3, r1, r3, lsl #24
 1501608:	e1833002 	orr	r3, r3, r2
 150160c:	e1833400 	orr	r3, r3, r0, lsl #8
 1501610:	e5853020 	str	r3, [r5, #32]
 1501614:	e5d42009 	ldrb	r2, [r4, #9]
 1501618:	e5d40008 	ldrb	r0, [r4, #8]
 150161c:	e5d4100a 	ldrb	r1, [r4, #10]
 1501620:	e1a03802 	lsl	r3, r2, #16
 1501624:	e1833c00 	orr	r3, r3, r0, lsl #24
 1501628:	e1832002 	orr	r2, r3, r2
 150162c:	e1822401 	orr	r2, r2, r1, lsl #8
 1501630:	e5852024 	str	r2, [r5, #36]	; 0x24
 1501634:	e5d4100d 	ldrb	r1, [r4, #13]
 1501638:	e5d4200c 	ldrb	r2, [r4, #12]
 150163c:	e5d4300f 	ldrb	r3, [r4, #15]
 1501640:	e5d4000e 	ldrb	r0, [r4, #14]
 1501644:	e1a01801 	lsl	r1, r1, #16
 1501648:	e1812c02 	orr	r2, r1, r2, lsl #24
 150164c:	e1822003 	orr	r2, r2, r3
 1501650:	e1822400 	orr	r2, r2, r0, lsl #8
 1501654:	e5852028 	str	r2, [r5, #40]	; 0x28
 1501658:	e1560007 	cmp	r6, r7
 150165c:	e585802c 	str	r8, [r5, #44]	; 0x2c
 1501660:	31a03006 	movcc	r3, r6
 1501664:	21a03007 	movcs	r3, r7
 1501668:	e1a00005 	mov	r0, r5
 150166c:	e5853034 	str	r3, [r5, #52]	; 0x34
 1501670:	ebfffe0f 	bl	1500eb4 <do_mcp>
 1501674:	e3500000 	cmp	r0, #0
 1501678:	e0676006 	rsb	r6, r7, r6
 150167c:	0affffce 	beq	15015bc <AES_hash+0x78>
 1501680:	e8bd81f0 	pop	{r4, r5, r6, r7, r8, pc}
 1501684:	e1a00006 	mov	r0, r6
 1501688:	e8bd81f0 	pop	{r4, r5, r6, r7, r8, pc}
 150168c:	e3e00000 	mvn	r0, #0
 1501690:	e8bd81f0 	pop	{r4, r5, r6, r7, r8, pc}
 1501694:	e3e00000 	mvn	r0, #0
 1501698:	e12fff1e 	bx	lr

0150169c <SHA1_hash>:
 150169c:	e3520000 	cmp	r2, #0
 15016a0:	13500000 	cmpne	r0, #0
 15016a4:	0a00002b 	beq	1501758 <SHA1_hash+0xbc>
 15016a8:	e92d41f0 	push	{r4, r5, r6, r7, r8, lr}
 15016ac:	e1a07002 	mov	r7, r2
 15016b0:	e1a06000 	mov	r6, r0
 15016b4:	e1a04003 	mov	r4, r3
 15016b8:	e1a05001 	mov	r5, r1
 15016bc:	ebfffdd3 	bl	1500e10 <alloc_mcp_descriptor>
 15016c0:	e250c000 	subs	ip, r0, #0
 15016c4:	0a000025 	beq	1501760 <SHA1_hash+0xc4>
 15016c8:	e3540000 	cmp	r4, #0
 15016cc:	e3a03004 	mov	r3, #4
 15016d0:	e58c3000 	str	r3, [ip]
 15016d4:	0a00000f 	beq	1501718 <SHA1_hash+0x7c>
 15016d8:	e5943000 	ldr	r3, [r4]
 15016dc:	e58c3004 	str	r3, [ip, #4]
 15016e0:	e5943004 	ldr	r3, [r4, #4]
 15016e4:	e58c3008 	str	r3, [ip, #8]
 15016e8:	e5943008 	ldr	r3, [r4, #8]
 15016ec:	e58c300c 	str	r3, [ip, #12]
 15016f0:	e594300c 	ldr	r3, [r4, #12]
 15016f4:	e58c3010 	str	r3, [ip, #16]
 15016f8:	e5943010 	ldr	r3, [r4, #16]
 15016fc:	e58c3014 	str	r3, [ip, #20]
 1501700:	e58c602c 	str	r6, [ip, #44]	; 0x2c
 1501704:	e1a0000c 	mov	r0, ip
 1501708:	e58c7030 	str	r7, [ip, #48]	; 0x30
 150170c:	e58c5034 	str	r5, [ip, #52]	; 0x34
 1501710:	e8bd41f0 	pop	{r4, r5, r6, r7, r8, lr}
 1501714:	eafffde6 	b	1500eb4 <do_mcp>
 1501718:	e3022301 	movw	r2, #8961	; 0x2301
 150171c:	e3462745 	movt	r2, #26437	; 0x6745
 1501720:	e30a3b89 	movw	r3, #43913	; 0xab89
 1501724:	e34e3fcd 	movt	r3, #61389	; 0xefcd
 1501728:	e58c2004 	str	r2, [ip, #4]
 150172c:	e30d2cfe 	movw	r2, #56574	; 0xdcfe
 1501730:	e34928ba 	movt	r2, #39098	; 0x98ba
 1501734:	e58c200c 	str	r2, [ip, #12]
 1501738:	e58c3008 	str	r3, [ip, #8]
 150173c:	e3053476 	movw	r3, #21622	; 0x5476
 1501740:	e3413032 	movt	r3, #4146	; 0x1032
 1501744:	e58c3010 	str	r3, [ip, #16]
 1501748:	e30e31f0 	movw	r3, #57840	; 0xe1f0
 150174c:	e34c33d2 	movt	r3, #50130	; 0xc3d2
 1501750:	e58c3014 	str	r3, [ip, #20]
 1501754:	eaffffe9 	b	1501700 <SHA1_hash+0x64>
 1501758:	e3e00000 	mvn	r0, #0
 150175c:	e12fff1e 	bx	lr
 1501760:	e3e00000 	mvn	r0, #0
 1501764:	e8bd81f0 	pop	{r4, r5, r6, r7, r8, pc}

01501768 <do_RSA>:
 1501768:	e92d4070 	push	{r4, r5, r6, lr}
 150176c:	e1a04000 	mov	r4, r0
 1501770:	e1a05001 	mov	r5, r1
 1501774:	e24ddc01 	sub	sp, sp, #256	; 0x100
 1501778:	e1a06002 	mov	r6, r2
 150177c:	f57ff04f 	dsb	sy
 1501780:	eb0003fd 	bl	150277c <sync>
 1501784:	e3a03903 	mov	r3, #49152	; 0xc000
 1501788:	e3493804 	movt	r3, #38916	; 0x9804
 150178c:	e3550000 	cmp	r5, #0
 1501790:	e3a01002 	mov	r1, #2
 1501794:	e3a02000 	mov	r2, #0
 1501798:	e5831f08 	str	r1, [r3, #3848]	; 0xf08
 150179c:	e5832f80 	str	r2, [r3, #3968]	; 0xf80
 15017a0:	0a000049 	beq	15018cc <do_RSA+0x164>
 15017a4:	e3a00b33 	mov	r0, #52224	; 0xcc00
 15017a8:	e3490804 	movt	r0, #38916	; 0x9804
 15017ac:	e1a01005 	mov	r1, r5
 15017b0:	e3a02c01 	mov	r2, #256	; 0x100
 15017b4:	eb0004c9 	bl	1502ae0 <copy_memory>
 15017b8:	e3a01c01 	mov	r1, #256	; 0x100
 15017bc:	e3a00b33 	mov	r0, #52224	; 0xcc00
 15017c0:	e3490804 	movt	r0, #38916	; 0x9804
 15017c4:	eb000587 	bl	1502de8 <flush_cache>
 15017c8:	e3a02c01 	mov	r2, #256	; 0x100
 15017cc:	e3a01000 	mov	r1, #0
 15017d0:	e1a0000d 	mov	r0, sp
 15017d4:	eb0004ba 	bl	1502ac4 <set_memory>
 15017d8:	e1a0100d 	mov	r1, sp
 15017dc:	e3a02c01 	mov	r2, #256	; 0x100
 15017e0:	e3a03001 	mov	r3, #1
 15017e4:	e30c0d80 	movw	r0, #52608	; 0xcd80
 15017e8:	e3490804 	movt	r0, #38916	; 0x9804
 15017ec:	e7df3813 	bfi	r3, r3, #16, #16
 15017f0:	e58d3000 	str	r3, [sp]
 15017f4:	eb0004b9 	bl	1502ae0 <copy_memory>
 15017f8:	e1a01004 	mov	r1, r4
 15017fc:	e3a02c01 	mov	r2, #256	; 0x100
 1501800:	e30c0780 	movw	r0, #51072	; 0xc780
 1501804:	e3490804 	movt	r0, #38916	; 0x9804
 1501808:	eb0004b4 	bl	1502ae0 <copy_memory>
 150180c:	e3a02c01 	mov	r2, #256	; 0x100
 1501810:	e0841002 	add	r1, r4, r2
 1501814:	e3a00cc9 	mov	r0, #51456	; 0xc900
 1501818:	e3490804 	movt	r0, #38916	; 0x9804
 150181c:	e3a05903 	mov	r5, #49152	; 0xc000
 1501820:	e3495804 	movt	r5, #38916	; 0x9804
 1501824:	eb0004ad 	bl	1502ae0 <copy_memory>
 1501828:	e5943200 	ldr	r3, [r4, #512]	; 0x200
 150182c:	e6bf3f33 	rev	r3, r3
 1501830:	e5853f84 	str	r3, [r5, #3972]	; 0xf84
 1501834:	e5953f88 	ldr	r3, [r5, #3976]	; 0xf88
 1501838:	e3833102 	orr	r3, r3, #-2147483648	; 0x80000000
 150183c:	e5853f88 	str	r3, [r5, #3976]	; 0xf88
 1501840:	e5953f0c 	ldr	r3, [r5, #3852]	; 0xf0c
 1501844:	e3530023 	cmp	r3, #35	; 0x23
 1501848:	130043e9 	movwne	r4, #1001	; 0x3e9
 150184c:	1a000002 	bne	150185c <do_RSA+0xf4>
 1501850:	ea000006 	b	1501870 <do_RSA+0x108>
 1501854:	e2544001 	subs	r4, r4, #1
 1501858:	0a000015 	beq	15018b4 <do_RSA+0x14c>
 150185c:	e3a00001 	mov	r0, #1
 1501860:	eb000398 	bl	15026c8 <mdelay>
 1501864:	e5953f0c 	ldr	r3, [r5, #3852]	; 0xf0c
 1501868:	e3530023 	cmp	r3, #35	; 0x23
 150186c:	1afffff8 	bne	1501854 <do_RSA+0xec>
 1501870:	e3a02020 	mov	r2, #32
 1501874:	e1a00006 	mov	r0, r6
 1501878:	e0864002 	add	r4, r6, r2
 150187c:	e3a01cc9 	mov	r1, #51456	; 0xc900
 1501880:	e3491804 	movt	r1, #38916	; 0x9804
 1501884:	eb000495 	bl	1502ae0 <copy_memory>
 1501888:	e1a01004 	mov	r1, r4
 150188c:	e1a00006 	mov	r0, r6
 1501890:	eb000554 	bl	1502de8 <flush_cache>
 1501894:	e1a00006 	mov	r0, r6
 1501898:	ebfffdc9 	bl	1500fc4 <reverse_rsa_signature>
 150189c:	e1a00006 	mov	r0, r6
 15018a0:	e1a01004 	mov	r1, r4
 15018a4:	eb00054f 	bl	1502de8 <flush_cache>
 15018a8:	e3a00000 	mov	r0, #0
 15018ac:	e28ddc01 	add	sp, sp, #256	; 0x100
 15018b0:	e8bd8070 	pop	{r4, r5, r6, pc}
 15018b4:	e3030144 	movw	r0, #12612	; 0x3144
 15018b8:	e3400150 	movt	r0, #336	; 0x150
 15018bc:	eb0003d4 	bl	1502814 <prints>
 15018c0:	e3a00001 	mov	r0, #1
 15018c4:	e28ddc01 	add	sp, sp, #256	; 0x100
 15018c8:	e8bd8070 	pop	{r4, r5, r6, pc}
 15018cc:	e1a00005 	mov	r0, r5
 15018d0:	e3a01b33 	mov	r1, #52224	; 0xcc00
 15018d4:	e3491804 	movt	r1, #38916	; 0x9804
 15018d8:	e3a02040 	mov	r2, #64	; 0x40
 15018dc:	ebfffd05 	bl	1500cf8 <OTP_Get_Word>
 15018e0:	eaffffb4 	b	15017b8 <do_RSA+0x50>

015018e4 <SHA256_hash>:
 15018e4:	e3520000 	cmp	r2, #0
 15018e8:	13500000 	cmpne	r0, #0
 15018ec:	1a000001 	bne	15018f8 <SHA256_hash+0x14>
 15018f0:	e3a00093 	mov	r0, #147	; 0x93
 15018f4:	e12fff1e 	bx	lr
 15018f8:	e92d41f0 	push	{r4, r5, r6, r7, r8, lr}
 15018fc:	e1a07002 	mov	r7, r2
 1501900:	e1a06000 	mov	r6, r0
 1501904:	e1a04003 	mov	r4, r3
 1501908:	e1a05001 	mov	r5, r1
 150190c:	ebfffd3f 	bl	1500e10 <alloc_mcp_descriptor>
 1501910:	e250c000 	subs	ip, r0, #0
 1501914:	0a000019 	beq	1501980 <SHA256_hash+0x9c>
 1501918:	e3540000 	cmp	r4, #0
 150191c:	e3a0300b 	mov	r3, #11
 1501920:	e58c3000 	str	r3, [ip]
 1501924:	0a000017 	beq	1501988 <SHA256_hash+0xa4>
 1501928:	e5943000 	ldr	r3, [r4]
 150192c:	e58c3004 	str	r3, [ip, #4]
 1501930:	e5943004 	ldr	r3, [r4, #4]
 1501934:	e58c3008 	str	r3, [ip, #8]
 1501938:	e5943008 	ldr	r3, [r4, #8]
 150193c:	e58c300c 	str	r3, [ip, #12]
 1501940:	e594300c 	ldr	r3, [r4, #12]
 1501944:	e58c3010 	str	r3, [ip, #16]
 1501948:	e5943010 	ldr	r3, [r4, #16]
 150194c:	e58c3014 	str	r3, [ip, #20]
 1501950:	e5943014 	ldr	r3, [r4, #20]
 1501954:	e58c3018 	str	r3, [ip, #24]
 1501958:	e5943018 	ldr	r3, [r4, #24]
 150195c:	e58c301c 	str	r3, [ip, #28]
 1501960:	e594301c 	ldr	r3, [r4, #28]
 1501964:	e58c3020 	str	r3, [ip, #32]
 1501968:	e58c602c 	str	r6, [ip, #44]	; 0x2c
 150196c:	e1a0000c 	mov	r0, ip
 1501970:	e58c7030 	str	r7, [ip, #48]	; 0x30
 1501974:	e58c5034 	str	r5, [ip, #52]	; 0x34
 1501978:	e8bd41f0 	pop	{r4, r5, r6, r7, r8, lr}
 150197c:	eafffd4c 	b	1500eb4 <do_mcp>
 1501980:	e3a00094 	mov	r0, #148	; 0x94
 1501984:	e8bd81f0 	pop	{r4, r5, r6, r7, r8, pc}
 1501988:	e30e2667 	movw	r2, #58983	; 0xe667
 150198c:	e3462a09 	movt	r2, #27145	; 0x6a09
 1501990:	e30a3e85 	movw	r3, #44677	; 0xae85
 1501994:	e34b3b67 	movt	r3, #47975	; 0xbb67
 1501998:	e58c2004 	str	r2, [ip, #4]
 150199c:	e30f2372 	movw	r2, #62322	; 0xf372
 15019a0:	e3432c6e 	movt	r2, #15470	; 0x3c6e
 15019a4:	e58c200c 	str	r2, [ip, #12]
 15019a8:	e58c3008 	str	r3, [ip, #8]
 15019ac:	e305227f 	movw	r2, #21119	; 0x527f
 15019b0:	e345210e 	movt	r2, #20750	; 0x510e
 15019b4:	e58c2014 	str	r2, [ip, #20]
 15019b8:	e30f353a 	movw	r3, #62778	; 0xf53a
 15019bc:	e34a354f 	movt	r3, #42319	; 0xa54f
 15019c0:	e30d29ab 	movw	r2, #55723	; 0xd9ab
 15019c4:	e3412f83 	movt	r2, #8067	; 0x1f83
 15019c8:	e58c3010 	str	r3, [ip, #16]
 15019cc:	e306388c 	movw	r3, #26764	; 0x688c
 15019d0:	e3493b05 	movt	r3, #39685	; 0x9b05
 15019d4:	e58c3018 	str	r3, [ip, #24]
 15019d8:	e58c201c 	str	r2, [ip, #28]
 15019dc:	e30c3d19 	movw	r3, #52505	; 0xcd19
 15019e0:	e3453be0 	movt	r3, #23520	; 0x5be0
 15019e4:	e58c3020 	str	r3, [ip, #32]
 15019e8:	eaffffde 	b	1501968 <SHA256_hash+0x84>

015019ec <reverse_signature>:
 15019ec:	e2402001 	sub	r2, r0, #1
 15019f0:	e2803c01 	add	r3, r0, #256	; 0x100
 15019f4:	e280c080 	add	ip, r0, #128	; 0x80
 15019f8:	e5730001 	ldrb	r0, [r3, #-1]!
 15019fc:	e5f21001 	ldrb	r1, [r2, #1]!
 1501a00:	e153000c 	cmp	r3, ip
 1501a04:	e5c20000 	strb	r0, [r2]
 1501a08:	e5c31000 	strb	r1, [r3]
 1501a0c:	1afffff9 	bne	15019f8 <reverse_signature+0xc>
 1501a10:	e12fff1e 	bx	lr

01501a14 <R1>:
 1501a14:	e92d40f0 	push	{r4, r5, r6, r7, lr}
 1501a18:	e1a07000 	mov	r7, r0
 1501a1c:	e1a06001 	mov	r6, r1
 1501a20:	e24dd014 	sub	sp, sp, #20
 1501a24:	e3a01000 	mov	r1, #0
 1501a28:	e1a0000d 	mov	r0, sp
 1501a2c:	e30346f8 	movw	r4, #14072	; 0x36f8
 1501a30:	e3404151 	movt	r4, #337	; 0x151
 1501a34:	e1a05002 	mov	r5, r2
 1501a38:	eb000418 	bl	1502aa0 <memset>
 1501a3c:	e1a00004 	mov	r0, r4
 1501a40:	e3a02b01 	mov	r2, #1024	; 0x400
 1501a44:	e3a01000 	mov	r1, #0
 1501a48:	e3a0307e 	mov	r3, #126	; 0x7e
 1501a4c:	e5cd3000 	strb	r3, [sp]
 1501a50:	e3e03055 	mvn	r3, #85	; 0x55
 1501a54:	e5cd3001 	strb	r3, [sp, #1]
 1501a58:	e3a03025 	mov	r3, #37	; 0x25
 1501a5c:	e5cd3002 	strb	r3, [sp, #2]
 1501a60:	e3a03047 	mov	r3, #71	; 0x47
 1501a64:	e5cd3003 	strb	r3, [sp, #3]
 1501a68:	e3a03074 	mov	r3, #116	; 0x74
 1501a6c:	e5cd3004 	strb	r3, [sp, #4]
 1501a70:	e3a03005 	mov	r3, #5
 1501a74:	e5cd3005 	strb	r3, [sp, #5]
 1501a78:	e3a03030 	mov	r3, #48	; 0x30
 1501a7c:	e5cd3006 	strb	r3, [sp, #6]
 1501a80:	e3a03077 	mov	r3, #119	; 0x77
 1501a84:	e5cd3007 	strb	r3, [sp, #7]
 1501a88:	e3e0301b 	mvn	r3, #27
 1501a8c:	e5cd3008 	strb	r3, [sp, #8]
 1501a90:	e3a03068 	mov	r3, #104	; 0x68
 1501a94:	e5cd3009 	strb	r3, [sp, #9]
 1501a98:	e3a0300b 	mov	r3, #11
 1501a9c:	e5cd300a 	strb	r3, [sp, #10]
 1501aa0:	e3a0302d 	mov	r3, #45	; 0x2d
 1501aa4:	e5cd300b 	strb	r3, [sp, #11]
 1501aa8:	e3e0302e 	mvn	r3, #46	; 0x2e
 1501aac:	e5cd300c 	strb	r3, [sp, #12]
 1501ab0:	e3e03035 	mvn	r3, #53	; 0x35
 1501ab4:	e5cd300d 	strb	r3, [sp, #13]
 1501ab8:	e3e0300e 	mvn	r3, #14
 1501abc:	e5cd300e 	strb	r3, [sp, #14]
 1501ac0:	e3a03060 	mov	r3, #96	; 0x60
 1501ac4:	e5cd300f 	strb	r3, [sp, #15]
 1501ac8:	eb0003f4 	bl	1502aa0 <memset>
 1501acc:	e3570000 	cmp	r7, #0
 1501ad0:	1a000025 	bne	1501b6c <R1+0x158>
 1501ad4:	e1a0300d 	mov	r3, sp
 1501ad8:	e1a02004 	mov	r2, r4
 1501adc:	e1a01005 	mov	r1, r5
 1501ae0:	e1a00006 	mov	r0, r6
 1501ae4:	ebfffe1a 	bl	1501354 <AES_ECB_decrypt>
 1501ae8:	e1a01005 	mov	r1, r5
 1501aec:	e1a00004 	mov	r0, r4
 1501af0:	eb0004bc 	bl	1502de8 <flush_cache>
 1501af4:	e5dd3001 	ldrb	r3, [sp, #1]
 1501af8:	e5d42001 	ldrb	r2, [r4, #1]
 1501afc:	e1a00004 	mov	r0, r4
 1501b00:	e5ddc004 	ldrb	ip, [sp, #4]
 1501b04:	e1a01005 	mov	r1, r5
 1501b08:	e0222003 	eor	r2, r2, r3
 1501b0c:	e5d43004 	ldrb	r3, [r4, #4]
 1501b10:	e5c42001 	strb	r2, [r4, #1]
 1501b14:	e023300c 	eor	r3, r3, ip
 1501b18:	e5d42008 	ldrb	r2, [r4, #8]
 1501b1c:	e5dde008 	ldrb	lr, [sp, #8]
 1501b20:	e5c43004 	strb	r3, [r4, #4]
 1501b24:	e5ddc00a 	ldrb	ip, [sp, #10]
 1501b28:	e022200e 	eor	r2, r2, lr
 1501b2c:	e5d4300a 	ldrb	r3, [r4, #10]
 1501b30:	e5c42008 	strb	r2, [r4, #8]
 1501b34:	e023300c 	eor	r3, r3, ip
 1501b38:	e5c4300a 	strb	r3, [r4, #10]
 1501b3c:	eb0004a9 	bl	1502de8 <flush_cache>
 1501b40:	e1a02005 	mov	r2, r5
 1501b44:	e3a01000 	mov	r1, #0
 1501b48:	e1a0000d 	mov	r0, sp
 1501b4c:	eb0003d3 	bl	1502aa0 <memset>
 1501b50:	e1a01005 	mov	r1, r5
 1501b54:	e1a0000d 	mov	r0, sp
 1501b58:	eb0004a2 	bl	1502de8 <flush_cache>
 1501b5c:	e30306f8 	movw	r0, #14072	; 0x36f8
 1501b60:	e3400151 	movt	r0, #337	; 0x151
 1501b64:	e28dd014 	add	sp, sp, #20
 1501b68:	e8bd80f0 	pop	{r4, r5, r6, r7, pc}
 1501b6c:	e5d61001 	ldrb	r1, [r6, #1]
 1501b70:	e1a00006 	mov	r0, r6
 1501b74:	e5dd2001 	ldrb	r2, [sp, #1]
 1501b78:	e1a0300d 	mov	r3, sp
 1501b7c:	e5d6c004 	ldrb	ip, [r6, #4]
 1501b80:	e0222001 	eor	r2, r2, r1
 1501b84:	e5dd1004 	ldrb	r1, [sp, #4]
 1501b88:	e5d6e008 	ldrb	lr, [r6, #8]
 1501b8c:	e021100c 	eor	r1, r1, ip
 1501b90:	e5ddc008 	ldrb	ip, [sp, #8]
 1501b94:	e5d6700a 	ldrb	r7, [r6, #10]
 1501b98:	e02ee00c 	eor	lr, lr, ip
 1501b9c:	e5ddc00a 	ldrb	ip, [sp, #10]
 1501ba0:	e5c62001 	strb	r2, [r6, #1]
 1501ba4:	e1a02004 	mov	r2, r4
 1501ba8:	e5c61004 	strb	r1, [r6, #4]
 1501bac:	e02cc007 	eor	ip, ip, r7
 1501bb0:	e1a01005 	mov	r1, r5
 1501bb4:	e5c6e008 	strb	lr, [r6, #8]
 1501bb8:	e5c6c00a 	strb	ip, [r6, #10]
 1501bbc:	ebfffe09 	bl	15013e8 <AES_ECB_encrypt>
 1501bc0:	e1a01005 	mov	r1, r5
 1501bc4:	e1a00004 	mov	r0, r4
 1501bc8:	eb000486 	bl	1502de8 <flush_cache>
 1501bcc:	eaffffdb 	b	1501b40 <R1+0x12c>

01501bd0 <R0>:
 1501bd0:	e92d41f0 	push	{r4, r5, r6, r7, r8, lr}
 1501bd4:	e30386f8 	movw	r8, #14072	; 0x36f8
 1501bd8:	e3408151 	movt	r8, #337	; 0x151
 1501bdc:	e2424001 	sub	r4, r2, #1
 1501be0:	e1a05002 	mov	r5, r2
 1501be4:	e1a06000 	mov	r6, r0
 1501be8:	e1a07001 	mov	r7, r1
 1501bec:	e0884004 	add	r4, r8, r4
 1501bf0:	eb0002e1 	bl	150277c <sync>
 1501bf4:	e1a02006 	mov	r2, r6
 1501bf8:	e1a01005 	mov	r1, r5
 1501bfc:	e1a00007 	mov	r0, r7
 1501c00:	ebfffb39 	bl	15008ec <start_program>
 1501c04:	eb0002dc 	bl	150277c <sync>
 1501c08:	e1a02005 	mov	r2, r5
 1501c0c:	e3a01000 	mov	r1, #0
 1501c10:	e30306f8 	movw	r0, #14072	; 0x36f8
 1501c14:	e3400151 	movt	r0, #337	; 0x151
 1501c18:	eb0003a0 	bl	1502aa0 <memset>
 1501c1c:	e1a02005 	mov	r2, r5
 1501c20:	e30316f8 	movw	r1, #14072	; 0x36f8
 1501c24:	e3401151 	movt	r1, #337	; 0x151
 1501c28:	e1a00007 	mov	r0, r7
 1501c2c:	ebfffc51 	bl	1500d78 <OTP_Get_Byte>
 1501c30:	e1a01005 	mov	r1, r5
 1501c34:	e30306f8 	movw	r0, #14072	; 0x36f8
 1501c38:	e3400151 	movt	r0, #337	; 0x151
 1501c3c:	eb000469 	bl	1502de8 <flush_cache>
 1501c40:	eb0002cd 	bl	150277c <sync>
 1501c44:	eb0002cc 	bl	150277c <sync>
 1501c48:	e3550000 	cmp	r5, #0
 1501c4c:	0a00000d 	beq	1501c88 <R0+0xb8>
 1501c50:	e5d83000 	ldrb	r3, [r8]
 1501c54:	e5d62000 	ldrb	r2, [r6]
 1501c58:	e1520003 	cmp	r2, r3
 1501c5c:	030336f8 	movweq	r3, #14072	; 0x36f8
 1501c60:	01a02006 	moveq	r2, r6
 1501c64:	03403151 	movteq	r3, #337	; 0x151
 1501c68:	0a000004 	beq	1501c80 <R0+0xb0>
 1501c6c:	ea00000a 	b	1501c9c <R0+0xcc>
 1501c70:	e5f20001 	ldrb	r0, [r2, #1]!
 1501c74:	e5f31001 	ldrb	r1, [r3, #1]!
 1501c78:	e1500001 	cmp	r0, r1
 1501c7c:	1a000006 	bne	1501c9c <R0+0xcc>
 1501c80:	e1530004 	cmp	r3, r4
 1501c84:	1afffff9 	bne	1501c70 <R0+0xa0>
 1501c88:	e3030168 	movw	r0, #12648	; 0x3168
 1501c8c:	e3400150 	movt	r0, #336	; 0x150
 1501c90:	eb0002df 	bl	1502814 <prints>
 1501c94:	e3a00000 	mov	r0, #0
 1501c98:	e8bd81f0 	pop	{r4, r5, r6, r7, r8, pc}
 1501c9c:	e30326f0 	movw	r2, #14064	; 0x36f0
 1501ca0:	e3402151 	movt	r2, #337	; 0x151
 1501ca4:	e5d23000 	ldrb	r3, [r2]
 1501ca8:	e2833001 	add	r3, r3, #1
 1501cac:	e6ef3073 	uxtb	r3, r3
 1501cb0:	e5c23000 	strb	r3, [r2]
 1501cb4:	e3530004 	cmp	r3, #4
 1501cb8:	9affffcc 	bls	1501bf0 <R0+0x20>
 1501cbc:	e3a00001 	mov	r0, #1
 1501cc0:	e8bd81f0 	pop	{r4, r5, r6, r7, r8, pc}

01501cc4 <obfuse_getset>:
 1501cc4:	e92d4ff0 	push	{r4, r5, r6, r7, r8, r9, sl, fp, lr}
 1501cc8:	e303caf8 	movw	ip, #15096	; 0x3af8
 1501ccc:	e340c151 	movt	ip, #337	; 0x151
 1501cd0:	e24ddf9b 	sub	sp, sp, #620	; 0x26c
 1501cd4:	e3a06000 	mov	r6, #0
 1501cd8:	e303e158 	movw	lr, #12632	; 0x3158
 1501cdc:	e340e150 	movt	lr, #336	; 0x150
 1501ce0:	e1a04000 	mov	r4, r0
 1501ce4:	e1a09001 	mov	r9, r1
 1501ce8:	e58d6004 	str	r6, [sp, #4]
 1501cec:	e1a0a002 	mov	sl, r2
 1501cf0:	e58dc004 	str	ip, [sp, #4]
 1501cf4:	e28dc008 	add	ip, sp, #8
 1501cf8:	e59d5004 	ldr	r5, [sp, #4]
 1501cfc:	e1a0b003 	mov	fp, r3
 1501d00:	e59e0000 	ldr	r0, [lr]
 1501d04:	e3e08077 	mvn	r8, #119	; 0x77
 1501d08:	e3c5500f 	bic	r5, r5, #15
 1501d0c:	e58d5004 	str	r5, [sp, #4]
 1501d10:	e59d5004 	ldr	r5, [sp, #4]
 1501d14:	e3a07053 	mov	r7, #83	; 0x53
 1501d18:	e59e1004 	ldr	r1, [lr, #4]
 1501d1c:	e59e2008 	ldr	r2, [lr, #8]
 1501d20:	e2855010 	add	r5, r5, #16
 1501d24:	e59e300c 	ldr	r3, [lr, #12]
 1501d28:	e8ac000f 	stmia	ip!, {r0, r1, r2, r3}
 1501d2c:	e58d5004 	str	r5, [sp, #4]
 1501d30:	e1a01006 	mov	r1, r6
 1501d34:	e28d0068 	add	r0, sp, #104	; 0x68
 1501d38:	e3a02c02 	mov	r2, #512	; 0x200
 1501d3c:	e3a0c023 	mov	ip, #35	; 0x23
 1501d40:	e3e0305f 	mvn	r3, #95	; 0x5f
 1501d44:	e5cdc009 	strb	ip, [sp, #9]
 1501d48:	e3a0c03e 	mov	ip, #62	; 0x3e
 1501d4c:	e5cd300a 	strb	r3, [sp, #10]
 1501d50:	e3a0305f 	mov	r3, #95	; 0x5f
 1501d54:	e59d5004 	ldr	r5, [sp, #4]
 1501d58:	e5cd300c 	strb	r3, [sp, #12]
 1501d5c:	e3e0305e 	mvn	r3, #94	; 0x5e
 1501d60:	e5cd8008 	strb	r8, [sp, #8]
 1501d64:	e5cd300e 	strb	r3, [sp, #14]
 1501d68:	e3e03036 	mvn	r3, #54	; 0x36
 1501d6c:	e5cdc00b 	strb	ip, [sp, #11]
 1501d70:	e5cd300f 	strb	r3, [sp, #15]
 1501d74:	e3e0300d 	mvn	r3, #13
 1501d78:	e5cd700d 	strb	r7, [sp, #13]
 1501d7c:	e5cd3010 	strb	r3, [sp, #16]
 1501d80:	e3a03060 	mov	r3, #96	; 0x60
 1501d84:	e5cd3011 	strb	r3, [sp, #17]
 1501d88:	e3e03072 	mvn	r3, #114	; 0x72
 1501d8c:	e5cd3012 	strb	r3, [sp, #18]
 1501d90:	e3a03079 	mov	r3, #121	; 0x79
 1501d94:	e5cd3013 	strb	r3, [sp, #19]
 1501d98:	e3e03054 	mvn	r3, #84	; 0x54
 1501d9c:	e5cd3014 	strb	r3, [sp, #20]
 1501da0:	e3e03057 	mvn	r3, #87	; 0x57
 1501da4:	e5cd3015 	strb	r3, [sp, #21]
 1501da8:	e3e03037 	mvn	r3, #55	; 0x37
 1501dac:	e5cd3016 	strb	r3, [sp, #22]
 1501db0:	e3e0302f 	mvn	r3, #47	; 0x2f
 1501db4:	e5cd3017 	strb	r3, [sp, #23]
 1501db8:	eb000338 	bl	1502aa0 <memset>
 1501dbc:	e3540001 	cmp	r4, #1
 1501dc0:	0a00009e 	beq	1502040 <obfuse_getset+0x37c>
 1501dc4:	3a000095 	bcc	1502020 <obfuse_getset+0x35c>
 1501dc8:	e3540002 	cmp	r4, #2
 1501dcc:	0a000002 	beq	1501ddc <obfuse_getset+0x118>
 1501dd0:	e3a00001 	mov	r0, #1
 1501dd4:	e28ddf9b 	add	sp, sp, #620	; 0x26c
 1501dd8:	e8bd8ff0 	pop	{r4, r5, r6, r7, r8, r9, sl, fp, pc}
 1501ddc:	e59d3294 	ldr	r3, [sp, #660]	; 0x294
 1501de0:	e1a01009 	mov	r1, r9
 1501de4:	e28d0068 	add	r0, sp, #104	; 0x68
 1501de8:	e30376f0 	movw	r7, #14064	; 0x36f0
 1501dec:	e3407151 	movt	r7, #337	; 0x151
 1501df0:	e3c3400f 	bic	r4, r3, #15
 1501df4:	e1a02004 	mov	r2, r4
 1501df8:	ebfff93a 	bl	15002e8 <memcpy>
 1501dfc:	e28d3008 	add	r3, sp, #8
 1501e00:	e1a02005 	mov	r2, r5
 1501e04:	e1a01004 	mov	r1, r4
 1501e08:	e28d0068 	add	r0, sp, #104	; 0x68
 1501e0c:	ebfffd50 	bl	1501354 <AES_ECB_decrypt>
 1501e10:	e1a01004 	mov	r1, r4
 1501e14:	e1a00005 	mov	r0, r5
 1501e18:	eb0003f2 	bl	1502de8 <flush_cache>
 1501e1c:	e1a02004 	mov	r2, r4
 1501e20:	e1a01005 	mov	r1, r5
 1501e24:	e28d0028 	add	r0, sp, #40	; 0x28
 1501e28:	ebfff92e 	bl	15002e8 <memcpy>
 1501e2c:	e1a01004 	mov	r1, r4
 1501e30:	e28d0028 	add	r0, sp, #40	; 0x28
 1501e34:	eb0003eb 	bl	1502de8 <flush_cache>
 1501e38:	e1a01004 	mov	r1, r4
 1501e3c:	e1a0000a 	mov	r0, sl
 1501e40:	eb0003e8 	bl	1502de8 <flush_cache>
 1501e44:	e1a02004 	mov	r2, r4
 1501e48:	e1a0100a 	mov	r1, sl
 1501e4c:	e28d0068 	add	r0, sp, #104	; 0x68
 1501e50:	ebfff924 	bl	15002e8 <memcpy>
 1501e54:	e1a01004 	mov	r1, r4
 1501e58:	e28d0068 	add	r0, sp, #104	; 0x68
 1501e5c:	eb0003e1 	bl	1502de8 <flush_cache>
 1501e60:	e28d3008 	add	r3, sp, #8
 1501e64:	e1a02005 	mov	r2, r5
 1501e68:	e1a01004 	mov	r1, r4
 1501e6c:	e28d0068 	add	r0, sp, #104	; 0x68
 1501e70:	ebfffd37 	bl	1501354 <AES_ECB_decrypt>
 1501e74:	e1a01004 	mov	r1, r4
 1501e78:	e1a00005 	mov	r0, r5
 1501e7c:	eb0003d9 	bl	1502de8 <flush_cache>
 1501e80:	e1a02004 	mov	r2, r4
 1501e84:	e1a01005 	mov	r1, r5
 1501e88:	e28d0038 	add	r0, sp, #56	; 0x38
 1501e8c:	ebfff915 	bl	15002e8 <memcpy>
 1501e90:	e1a01004 	mov	r1, r4
 1501e94:	e28d0038 	add	r0, sp, #56	; 0x38
 1501e98:	eb0003d2 	bl	1502de8 <flush_cache>
 1501e9c:	e1a01004 	mov	r1, r4
 1501ea0:	e1a0000b 	mov	r0, fp
 1501ea4:	eb0003cf 	bl	1502de8 <flush_cache>
 1501ea8:	e1a02004 	mov	r2, r4
 1501eac:	e1a0100b 	mov	r1, fp
 1501eb0:	e28d0068 	add	r0, sp, #104	; 0x68
 1501eb4:	ebfff90b 	bl	15002e8 <memcpy>
 1501eb8:	e1a01004 	mov	r1, r4
 1501ebc:	e28d0068 	add	r0, sp, #104	; 0x68
 1501ec0:	eb0003c8 	bl	1502de8 <flush_cache>
 1501ec4:	e28d3008 	add	r3, sp, #8
 1501ec8:	e1a02005 	mov	r2, r5
 1501ecc:	e1a01004 	mov	r1, r4
 1501ed0:	e28d0068 	add	r0, sp, #104	; 0x68
 1501ed4:	ebfffd1e 	bl	1501354 <AES_ECB_decrypt>
 1501ed8:	e1a01004 	mov	r1, r4
 1501edc:	e1a00005 	mov	r0, r5
 1501ee0:	eb0003c0 	bl	1502de8 <flush_cache>
 1501ee4:	e1a02004 	mov	r2, r4
 1501ee8:	e1a01005 	mov	r1, r5
 1501eec:	e28d0048 	add	r0, sp, #72	; 0x48
 1501ef0:	ebfff8fc 	bl	15002e8 <memcpy>
 1501ef4:	e1a01004 	mov	r1, r4
 1501ef8:	e28d0048 	add	r0, sp, #72	; 0x48
 1501efc:	eb0003b9 	bl	1502de8 <flush_cache>
 1501f00:	e1a01004 	mov	r1, r4
 1501f04:	e59d0290 	ldr	r0, [sp, #656]	; 0x290
 1501f08:	eb0003b6 	bl	1502de8 <flush_cache>
 1501f0c:	e1a02004 	mov	r2, r4
 1501f10:	e59d1290 	ldr	r1, [sp, #656]	; 0x290
 1501f14:	e28d0068 	add	r0, sp, #104	; 0x68
 1501f18:	ebfff8f2 	bl	15002e8 <memcpy>
 1501f1c:	e1a01004 	mov	r1, r4
 1501f20:	e28d0068 	add	r0, sp, #104	; 0x68
 1501f24:	eb0003af 	bl	1502de8 <flush_cache>
 1501f28:	e28d3008 	add	r3, sp, #8
 1501f2c:	e1a02005 	mov	r2, r5
 1501f30:	e1a01004 	mov	r1, r4
 1501f34:	e28d0068 	add	r0, sp, #104	; 0x68
 1501f38:	ebfffd05 	bl	1501354 <AES_ECB_decrypt>
 1501f3c:	e1a01004 	mov	r1, r4
 1501f40:	e1a00005 	mov	r0, r5
 1501f44:	eb0003a7 	bl	1502de8 <flush_cache>
 1501f48:	e1a02004 	mov	r2, r4
 1501f4c:	e1a01005 	mov	r1, r5
 1501f50:	e28d0058 	add	r0, sp, #88	; 0x58
 1501f54:	ebfff8e3 	bl	15002e8 <memcpy>
 1501f58:	e1a01004 	mov	r1, r4
 1501f5c:	e28d0058 	add	r0, sp, #88	; 0x58
 1501f60:	eb0003a0 	bl	1502de8 <flush_cache>
 1501f64:	e1a01006 	mov	r1, r6
 1501f68:	e1a02004 	mov	r2, r4
 1501f6c:	e28d0018 	add	r0, sp, #24
 1501f70:	eb0002ca 	bl	1502aa0 <memset>
 1501f74:	e1a02004 	mov	r2, r4
 1501f78:	e28d1018 	add	r1, sp, #24
 1501f7c:	e3a00a01 	mov	r0, #4096	; 0x1000
 1501f80:	ebfffb7c 	bl	1500d78 <OTP_Get_Byte>
 1501f84:	e1a01004 	mov	r1, r4
 1501f88:	e28d0018 	add	r0, sp, #24
 1501f8c:	eb000395 	bl	1502de8 <flush_cache>
 1501f90:	eb0001f9 	bl	150277c <sync>
 1501f94:	e28d3028 	add	r3, sp, #40	; 0x28
 1501f98:	e28d2068 	add	r2, sp, #104	; 0x68
 1501f9c:	e1a01004 	mov	r1, r4
 1501fa0:	e28d0018 	add	r0, sp, #24
 1501fa4:	ebfffd0f 	bl	15013e8 <AES_ECB_encrypt>
 1501fa8:	e1a01004 	mov	r1, r4
 1501fac:	e28d0068 	add	r0, sp, #104	; 0x68
 1501fb0:	eb00038c 	bl	1502de8 <flush_cache>
 1501fb4:	e1a01006 	mov	r1, r6
 1501fb8:	e1a02004 	mov	r2, r4
 1501fbc:	e28d0018 	add	r0, sp, #24
 1501fc0:	eb0002b6 	bl	1502aa0 <memset>
 1501fc4:	e28d3068 	add	r3, sp, #104	; 0x68
 1501fc8:	e1a02005 	mov	r2, r5
 1501fcc:	e1a01004 	mov	r1, r4
 1501fd0:	e28d0038 	add	r0, sp, #56	; 0x38
 1501fd4:	ebfffd03 	bl	15013e8 <AES_ECB_encrypt>
 1501fd8:	e1a01004 	mov	r1, r4
 1501fdc:	e1a00005 	mov	r0, r5
 1501fe0:	eb000380 	bl	1502de8 <flush_cache>
 1501fe4:	e1a01004 	mov	r1, r4
 1501fe8:	e28d0038 	add	r0, sp, #56	; 0x38
 1501fec:	eb00037d 	bl	1502de8 <flush_cache>
 1501ff0:	e1a02004 	mov	r2, r4
 1501ff4:	e3a01d26 	mov	r1, #2432	; 0x980
 1501ff8:	e1a00005 	mov	r0, r5
 1501ffc:	e5c76000 	strb	r6, [r7]
 1502000:	ebfffef2 	bl	1501bd0 <R0>
 1502004:	e1a06000 	mov	r6, r0
 1502008:	eb0001db 	bl	150277c <sync>
 150200c:	e3560000 	cmp	r6, #0
 1502010:	0a00008c 	beq	1502248 <obfuse_getset+0x584>
 1502014:	e1a00006 	mov	r0, r6
 1502018:	e28ddf9b 	add	sp, sp, #620	; 0x26c
 150201c:	e8bd8ff0 	pop	{r4, r5, r6, r7, r8, r9, sl, fp, pc}
 1502020:	e59d2294 	ldr	r2, [sp, #660]	; 0x294
 1502024:	e3a01ed2 	mov	r1, #3360	; 0xd20
 1502028:	e1a00009 	mov	r0, r9
 150202c:	ebfffee7 	bl	1501bd0 <R0>
 1502030:	eb0001d1 	bl	150277c <sync>
 1502034:	e3a00001 	mov	r0, #1
 1502038:	e28ddf9b 	add	sp, sp, #620	; 0x26c
 150203c:	e8bd8ff0 	pop	{r4, r5, r6, r7, r8, r9, sl, fp, pc}
 1502040:	e59d3294 	ldr	r3, [sp, #660]	; 0x294
 1502044:	e1a01006 	mov	r1, r6
 1502048:	e3a02010 	mov	r2, #16
 150204c:	e28d0018 	add	r0, sp, #24
 1502050:	e3c3400f 	bic	r4, r3, #15
 1502054:	eb000291 	bl	1502aa0 <memset>
 1502058:	e1a01009 	mov	r1, r9
 150205c:	e1a02004 	mov	r2, r4
 1502060:	e28d0068 	add	r0, sp, #104	; 0x68
 1502064:	e5cd701f 	strb	r7, [sp, #31]
 1502068:	e3a03022 	mov	r3, #34	; 0x22
 150206c:	e5cd801d 	strb	r8, [sp, #29]
 1502070:	e5cd3019 	strb	r3, [sp, #25]
 1502074:	e3a0c07a 	mov	ip, #122	; 0x7a
 1502078:	e5cd3024 	strb	r3, [sp, #36]	; 0x24
 150207c:	e3e0706b 	mvn	r7, #107	; 0x6b
 1502080:	e5cdc018 	strb	ip, [sp, #24]
 1502084:	e3e0e061 	mvn	lr, #97	; 0x61
 1502088:	e5cd701a 	strb	r7, [sp, #26]
 150208c:	e3a0c041 	mov	ip, #65	; 0x41
 1502090:	e5cde01b 	strb	lr, [sp, #27]
 1502094:	e3a03062 	mov	r3, #98	; 0x62
 1502098:	e5cdc01c 	strb	ip, [sp, #28]
 150209c:	e3a0e004 	mov	lr, #4
 15020a0:	e5cd301e 	strb	r3, [sp, #30]
 15020a4:	e3a0c002 	mov	ip, #2
 15020a8:	e5cde020 	strb	lr, [sp, #32]
 15020ac:	e3e0307d 	mvn	r3, #125	; 0x7d
 15020b0:	e3a0e061 	mov	lr, #97	; 0x61
 15020b4:	e5cdc021 	strb	ip, [sp, #33]	; 0x21
 15020b8:	e5cde025 	strb	lr, [sp, #37]	; 0x25
 15020bc:	e3a0c011 	mov	ip, #17
 15020c0:	e5cd3023 	strb	r3, [sp, #35]	; 0x23
 15020c4:	e3e0305d 	mvn	r3, #93	; 0x5d
 15020c8:	e5cdc026 	strb	ip, [sp, #38]	; 0x26
 15020cc:	e5cd3027 	strb	r3, [sp, #39]	; 0x27
 15020d0:	e5cd6022 	strb	r6, [sp, #34]	; 0x22
 15020d4:	ebfff883 	bl	15002e8 <memcpy>
 15020d8:	e28d3008 	add	r3, sp, #8
 15020dc:	e1a02005 	mov	r2, r5
 15020e0:	e1a01004 	mov	r1, r4
 15020e4:	e28d0068 	add	r0, sp, #104	; 0x68
 15020e8:	ebfffc99 	bl	1501354 <AES_ECB_decrypt>
 15020ec:	e1a01004 	mov	r1, r4
 15020f0:	e1a00005 	mov	r0, r5
 15020f4:	eb00033b 	bl	1502de8 <flush_cache>
 15020f8:	e1a02004 	mov	r2, r4
 15020fc:	e1a01005 	mov	r1, r5
 1502100:	e28d0028 	add	r0, sp, #40	; 0x28
 1502104:	ebfff877 	bl	15002e8 <memcpy>
 1502108:	e1a01004 	mov	r1, r4
 150210c:	e28d0028 	add	r0, sp, #40	; 0x28
 1502110:	eb000334 	bl	1502de8 <flush_cache>
 1502114:	e1a02004 	mov	r2, r4
 1502118:	e1a01006 	mov	r1, r6
 150211c:	e1a00005 	mov	r0, r5
 1502120:	eb00025e 	bl	1502aa0 <memset>
 1502124:	e1a02004 	mov	r2, r4
 1502128:	e1a0100a 	mov	r1, sl
 150212c:	e28d0068 	add	r0, sp, #104	; 0x68
 1502130:	ebfff86c 	bl	15002e8 <memcpy>
 1502134:	e28d3008 	add	r3, sp, #8
 1502138:	e1a02005 	mov	r2, r5
 150213c:	e1a01004 	mov	r1, r4
 1502140:	e28d0068 	add	r0, sp, #104	; 0x68
 1502144:	ebfffc82 	bl	1501354 <AES_ECB_decrypt>
 1502148:	e1a01004 	mov	r1, r4
 150214c:	e1a00005 	mov	r0, r5
 1502150:	eb000324 	bl	1502de8 <flush_cache>
 1502154:	e1a02004 	mov	r2, r4
 1502158:	e1a01005 	mov	r1, r5
 150215c:	e28d0038 	add	r0, sp, #56	; 0x38
 1502160:	ebfff860 	bl	15002e8 <memcpy>
 1502164:	e1a01004 	mov	r1, r4
 1502168:	e28d0038 	add	r0, sp, #56	; 0x38
 150216c:	eb00031d 	bl	1502de8 <flush_cache>
 1502170:	e1a02004 	mov	r2, r4
 1502174:	e1a01006 	mov	r1, r6
 1502178:	e1a00005 	mov	r0, r5
 150217c:	eb000247 	bl	1502aa0 <memset>
 1502180:	e28d3028 	add	r3, sp, #40	; 0x28
 1502184:	e28d2068 	add	r2, sp, #104	; 0x68
 1502188:	e1a01004 	mov	r1, r4
 150218c:	e28d0018 	add	r0, sp, #24
 1502190:	ebfffc94 	bl	15013e8 <AES_ECB_encrypt>
 1502194:	e1a01004 	mov	r1, r4
 1502198:	e28d0068 	add	r0, sp, #104	; 0x68
 150219c:	eb000311 	bl	1502de8 <flush_cache>
 15021a0:	e1a02004 	mov	r2, r4
 15021a4:	e1a01006 	mov	r1, r6
 15021a8:	e28d0018 	add	r0, sp, #24
 15021ac:	eb00023b 	bl	1502aa0 <memset>
 15021b0:	e28d3068 	add	r3, sp, #104	; 0x68
 15021b4:	e1a02005 	mov	r2, r5
 15021b8:	e1a01004 	mov	r1, r4
 15021bc:	e28d0038 	add	r0, sp, #56	; 0x38
 15021c0:	ebfffc88 	bl	15013e8 <AES_ECB_encrypt>
 15021c4:	e1a01004 	mov	r1, r4
 15021c8:	e1a00005 	mov	r0, r5
 15021cc:	eb000305 	bl	1502de8 <flush_cache>
 15021d0:	e1a02004 	mov	r2, r4
 15021d4:	e1a01006 	mov	r1, r6
 15021d8:	e28d0038 	add	r0, sp, #56	; 0x38
 15021dc:	eb00022f 	bl	1502aa0 <memset>
 15021e0:	e1a02004 	mov	r2, r4
 15021e4:	e1a01006 	mov	r1, r6
 15021e8:	e28d0068 	add	r0, sp, #104	; 0x68
 15021ec:	eb00022b 	bl	1502aa0 <memset>
 15021f0:	e1a01004 	mov	r1, r4
 15021f4:	e28d0038 	add	r0, sp, #56	; 0x38
 15021f8:	eb0002fa 	bl	1502de8 <flush_cache>
 15021fc:	e1a01004 	mov	r1, r4
 1502200:	e28d0068 	add	r0, sp, #104	; 0x68
 1502204:	eb0002f7 	bl	1502de8 <flush_cache>
 1502208:	e30336f0 	movw	r3, #14064	; 0x36f0
 150220c:	e3403151 	movt	r3, #337	; 0x151
 1502210:	e1a02004 	mov	r2, r4
 1502214:	e3a01c09 	mov	r1, #2304	; 0x900
 1502218:	e1a00005 	mov	r0, r5
 150221c:	e5c36000 	strb	r6, [r3]
 1502220:	ebfffe6a 	bl	1501bd0 <R0>
 1502224:	e1a02004 	mov	r2, r4
 1502228:	e1a07000 	mov	r7, r0
 150222c:	e1a01006 	mov	r1, r6
 1502230:	e1a00005 	mov	r0, r5
 1502234:	eb000219 	bl	1502aa0 <memset>
 1502238:	eb00014f 	bl	150277c <sync>
 150223c:	e1a00007 	mov	r0, r7
 1502240:	e28ddf9b 	add	sp, sp, #620	; 0x26c
 1502244:	e8bd8ff0 	pop	{r4, r5, r6, r7, r8, r9, sl, fp, pc}
 1502248:	e28d3068 	add	r3, sp, #104	; 0x68
 150224c:	e1a02005 	mov	r2, r5
 1502250:	e1a01004 	mov	r1, r4
 1502254:	e28d0048 	add	r0, sp, #72	; 0x48
 1502258:	ebfffc62 	bl	15013e8 <AES_ECB_encrypt>
 150225c:	e1a01004 	mov	r1, r4
 1502260:	e1a00005 	mov	r0, r5
 1502264:	eb0002df 	bl	1502de8 <flush_cache>
 1502268:	e1a01004 	mov	r1, r4
 150226c:	e28d0048 	add	r0, sp, #72	; 0x48
 1502270:	eb0002dc 	bl	1502de8 <flush_cache>
 1502274:	e1a02004 	mov	r2, r4
 1502278:	e3a01d46 	mov	r1, #4480	; 0x1180
 150227c:	e1a00005 	mov	r0, r5
 1502280:	e5c76000 	strb	r6, [r7]
 1502284:	ebfffe51 	bl	1501bd0 <R0>
 1502288:	e1a06000 	mov	r6, r0
 150228c:	eb00013a 	bl	150277c <sync>
 1502290:	e3560000 	cmp	r6, #0
 1502294:	1affff5e 	bne	1502014 <obfuse_getset+0x350>
 1502298:	e28d3068 	add	r3, sp, #104	; 0x68
 150229c:	e1a02005 	mov	r2, r5
 15022a0:	e1a01004 	mov	r1, r4
 15022a4:	e28d0058 	add	r0, sp, #88	; 0x58
 15022a8:	ebfffc4e 	bl	15013e8 <AES_ECB_encrypt>
 15022ac:	e1a01004 	mov	r1, r4
 15022b0:	e1a00005 	mov	r0, r5
 15022b4:	eb0002cb 	bl	1502de8 <flush_cache>
 15022b8:	e1a01004 	mov	r1, r4
 15022bc:	e28d0058 	add	r0, sp, #88	; 0x58
 15022c0:	eb0002c8 	bl	1502de8 <flush_cache>
 15022c4:	e1a00005 	mov	r0, r5
 15022c8:	e1a02004 	mov	r2, r4
 15022cc:	e3a01d42 	mov	r1, #4224	; 0x1080
 15022d0:	e5c76000 	strb	r6, [r7]
 15022d4:	ebfffe3d 	bl	1501bd0 <R0>
 15022d8:	e1a05000 	mov	r5, r0
 15022dc:	eb000126 	bl	150277c <sync>
 15022e0:	e3550000 	cmp	r5, #0
 15022e4:	11a00005 	movne	r0, r5
 15022e8:	1afffeb9 	bne	1501dd4 <obfuse_getset+0x110>
 15022ec:	e1a01004 	mov	r1, r4
 15022f0:	e28d0028 	add	r0, sp, #40	; 0x28
 15022f4:	e5c75000 	strb	r5, [r7]
 15022f8:	eb0002ba 	bl	1502de8 <flush_cache>
 15022fc:	e1a02004 	mov	r2, r4
 1502300:	e28d1028 	add	r1, sp, #40	; 0x28
 1502304:	e3a00001 	mov	r0, #1
 1502308:	ebfffdc1 	bl	1501a14 <R1>
 150230c:	e1a02004 	mov	r2, r4
 1502310:	e1a01000 	mov	r1, r0
 1502314:	e28d0068 	add	r0, sp, #104	; 0x68
 1502318:	ebfff7f2 	bl	15002e8 <memcpy>
 150231c:	e1a01004 	mov	r1, r4
 1502320:	e28d0068 	add	r0, sp, #104	; 0x68
 1502324:	eb0002af 	bl	1502de8 <flush_cache>
 1502328:	e1a02004 	mov	r2, r4
 150232c:	e3a01c11 	mov	r1, #4352	; 0x1100
 1502330:	e28d0068 	add	r0, sp, #104	; 0x68
 1502334:	ebfffe25 	bl	1501bd0 <R0>
 1502338:	e1a04000 	mov	r4, r0
 150233c:	eb00010e 	bl	150277c <sync>
 1502340:	e1a00004 	mov	r0, r4
 1502344:	eafffea2 	b	1501dd4 <obfuse_getset+0x110>

01502348 <R2>:
 1502348:	e92d4010 	push	{r4, lr}
 150234c:	e3a02b01 	mov	r2, #1024	; 0x400
 1502350:	e3a01000 	mov	r1, #0
 1502354:	e24ddc06 	sub	sp, sp, #1536	; 0x600
 1502358:	e3a04005 	mov	r4, #5
 150235c:	e28d0c02 	add	r0, sp, #512	; 0x200
 1502360:	eb0001ce 	bl	1502aa0 <memset>
 1502364:	e3a02c01 	mov	r2, #256	; 0x100
 1502368:	e3a01000 	mov	r1, #0
 150236c:	e1a0000d 	mov	r0, sp
 1502370:	eb0001ca 	bl	1502aa0 <memset>
 1502374:	e3a02c01 	mov	r2, #256	; 0x100
 1502378:	e3a01000 	mov	r1, #0
 150237c:	e28d0c01 	add	r0, sp, #256	; 0x100
 1502380:	eb0001c6 	bl	1502aa0 <memset>
 1502384:	e28d1c02 	add	r1, sp, #512	; 0x200
 1502388:	e3a02c01 	mov	r2, #256	; 0x100
 150238c:	e3a00000 	mov	r0, #0
 1502390:	ebfffa78 	bl	1500d78 <OTP_Get_Byte>
 1502394:	e3a02020 	mov	r2, #32
 1502398:	e28d1c03 	add	r1, sp, #768	; 0x300
 150239c:	e3a00b02 	mov	r0, #2048	; 0x800
 15023a0:	ebfffa74 	bl	1500d78 <OTP_Get_Byte>
 15023a4:	e3a02010 	mov	r2, #16
 15023a8:	e28d1e32 	add	r1, sp, #800	; 0x320
 15023ac:	e3a00c09 	mov	r0, #2304	; 0x900
 15023b0:	ebfffa70 	bl	1500d78 <OTP_Get_Byte>
 15023b4:	e3a02010 	mov	r2, #16
 15023b8:	e28d1e33 	add	r1, sp, #816	; 0x330
 15023bc:	e3a00d26 	mov	r0, #2432	; 0x980
 15023c0:	ebfffa6c 	bl	1500d78 <OTP_Get_Byte>
 15023c4:	e3a02010 	mov	r2, #16
 15023c8:	e28d1d0d 	add	r1, sp, #832	; 0x340
 15023cc:	e3a00c0b 	mov	r0, #2816	; 0xb00
 15023d0:	ebfffa68 	bl	1500d78 <OTP_Get_Byte>
 15023d4:	e3a02010 	mov	r2, #16
 15023d8:	e28d1e35 	add	r1, sp, #848	; 0x350
 15023dc:	e3a00a01 	mov	r0, #4096	; 0x1000
 15023e0:	ebfffa64 	bl	1500d78 <OTP_Get_Byte>
 15023e4:	e3a02010 	mov	r2, #16
 15023e8:	e28d1e36 	add	r1, sp, #864	; 0x360
 15023ec:	e3a00d42 	mov	r0, #4224	; 0x1080
 15023f0:	ebfffa60 	bl	1500d78 <OTP_Get_Byte>
 15023f4:	e3a02010 	mov	r2, #16
 15023f8:	e28d1e37 	add	r1, sp, #880	; 0x370
 15023fc:	e3a00c11 	mov	r0, #4352	; 0x1100
 1502400:	ebfffa5c 	bl	1500d78 <OTP_Get_Byte>
 1502404:	e3a02010 	mov	r2, #16
 1502408:	e28d1d0e 	add	r1, sp, #896	; 0x380
 150240c:	e3a00d46 	mov	r0, #4480	; 0x1180
 1502410:	ebfffa58 	bl	1500d78 <OTP_Get_Byte>
 1502414:	e3000da2 	movw	r0, #3490	; 0xda2
 1502418:	ebfff8fc 	bl	1500810 <OTP_JUDGE_BIT>
 150241c:	e5cd0390 	strb	r0, [sp, #912]	; 0x390
 1502420:	e3000da4 	movw	r0, #3492	; 0xda4
 1502424:	ebfff8f9 	bl	1500810 <OTP_JUDGE_BIT>
 1502428:	e5cd0391 	strb	r0, [sp, #913]	; 0x391
 150242c:	e3000da6 	movw	r0, #3494	; 0xda6
 1502430:	ebfff8f6 	bl	1500810 <OTP_JUDGE_BIT>
 1502434:	e5cd0392 	strb	r0, [sp, #914]	; 0x392
 1502438:	e3000daf 	movw	r0, #3503	; 0xdaf
 150243c:	ebfff8f3 	bl	1500810 <OTP_JUDGE_BIT>
 1502440:	e5cd0393 	strb	r0, [sp, #915]	; 0x393
 1502444:	e3a00edb 	mov	r0, #3504	; 0xdb0
 1502448:	ebfff8f0 	bl	1500810 <OTP_JUDGE_BIT>
 150244c:	e5cd0394 	strb	r0, [sp, #916]	; 0x394
 1502450:	e3000db1 	movw	r0, #3505	; 0xdb1
 1502454:	ebfff8ed 	bl	1500810 <OTP_JUDGE_BIT>
 1502458:	e5cd0395 	strb	r0, [sp, #917]	; 0x395
 150245c:	e3000db2 	movw	r0, #3506	; 0xdb2
 1502460:	ebfff8ea 	bl	1500810 <OTP_JUDGE_BIT>
 1502464:	e5cd0396 	strb	r0, [sp, #918]	; 0x396
 1502468:	e3000db3 	movw	r0, #3507	; 0xdb3
 150246c:	ebfff8e7 	bl	1500810 <OTP_JUDGE_BIT>
 1502470:	e5cd0397 	strb	r0, [sp, #919]	; 0x397
 1502474:	e3000db4 	movw	r0, #3508	; 0xdb4
 1502478:	ebfff8e4 	bl	1500810 <OTP_JUDGE_BIT>
 150247c:	e5cd0398 	strb	r0, [sp, #920]	; 0x398
 1502480:	e3000db5 	movw	r0, #3509	; 0xdb5
 1502484:	ebfff8e1 	bl	1500810 <OTP_JUDGE_BIT>
 1502488:	e5cd0399 	strb	r0, [sp, #921]	; 0x399
 150248c:	e3000db6 	movw	r0, #3510	; 0xdb6
 1502490:	ebfff8de 	bl	1500810 <OTP_JUDGE_BIT>
 1502494:	e5cd039a 	strb	r0, [sp, #922]	; 0x39a
 1502498:	e3000db7 	movw	r0, #3511	; 0xdb7
 150249c:	ebfff8db 	bl	1500810 <OTP_JUDGE_BIT>
 15024a0:	e5cd039b 	strb	r0, [sp, #923]	; 0x39b
 15024a4:	e3000db8 	movw	r0, #3512	; 0xdb8
 15024a8:	ebfff8d8 	bl	1500810 <OTP_JUDGE_BIT>
 15024ac:	e5cd039c 	strb	r0, [sp, #924]	; 0x39c
 15024b0:	e3000dba 	movw	r0, #3514	; 0xdba
 15024b4:	ebfff8d5 	bl	1500810 <OTP_JUDGE_BIT>
 15024b8:	e5cd039d 	strb	r0, [sp, #925]	; 0x39d
 15024bc:	e3000dbb 	movw	r0, #3515	; 0xdbb
 15024c0:	ebfff8d2 	bl	1500810 <OTP_JUDGE_BIT>
 15024c4:	e5cd039e 	strb	r0, [sp, #926]	; 0x39e
 15024c8:	e3000dc2 	movw	r0, #3522	; 0xdc2
 15024cc:	ebfff8cf 	bl	1500810 <OTP_JUDGE_BIT>
 15024d0:	e5cd039f 	strb	r0, [sp, #927]	; 0x39f
 15024d4:	e3000e0b 	movw	r0, #3595	; 0xe0b
 15024d8:	ebfff8cc 	bl	1500810 <OTP_JUDGE_BIT>
 15024dc:	e5cd03a0 	strb	r0, [sp, #928]	; 0x3a0
 15024e0:	e3000e0c 	movw	r0, #3596	; 0xe0c
 15024e4:	ebfff8c9 	bl	1500810 <OTP_JUDGE_BIT>
 15024e8:	e5cd03a1 	strb	r0, [sp, #929]	; 0x3a1
 15024ec:	e3000e0e 	movw	r0, #3598	; 0xe0e
 15024f0:	ebfff8c6 	bl	1500810 <OTP_JUDGE_BIT>
 15024f4:	e5cd03a2 	strb	r0, [sp, #930]	; 0x3a2
 15024f8:	e3000e23 	movw	r0, #3619	; 0xe23
 15024fc:	ebfff8c3 	bl	1500810 <OTP_JUDGE_BIT>
 1502500:	e5cd03a3 	strb	r0, [sp, #931]	; 0x3a3
 1502504:	e3000e24 	movw	r0, #3620	; 0xe24
 1502508:	ebfff8c0 	bl	1500810 <OTP_JUDGE_BIT>
 150250c:	e3a03000 	mov	r3, #0
 1502510:	e1a0200d 	mov	r2, sp
 1502514:	e5cd03a4 	strb	r0, [sp, #932]	; 0x3a4
 1502518:	e30011a5 	movw	r1, #421	; 0x1a5
 150251c:	e28d0c02 	add	r0, sp, #512	; 0x200
 1502520:	ebfffcef 	bl	15018e4 <SHA256_hash>
 1502524:	e28d1c02 	add	r1, sp, #512	; 0x200
 1502528:	e30021a5 	movw	r2, #421	; 0x1a5
 150252c:	e303017c 	movw	r0, #12668	; 0x317c
 1502530:	e3400150 	movt	r0, #336	; 0x150
 1502534:	eb00012d 	bl	15029f0 <hexdump>
 1502538:	e1a0100d 	mov	r1, sp
 150253c:	e3a02020 	mov	r2, #32
 1502540:	e3030188 	movw	r0, #12680	; 0x3188
 1502544:	e3400150 	movt	r0, #336	; 0x150
 1502548:	eb000128 	bl	15029f0 <hexdump>
 150254c:	eb00008a 	bl	150277c <sync>
 1502550:	e1a0200d 	mov	r2, sp
 1502554:	e3a01020 	mov	r1, #32
 1502558:	e3a00c12 	mov	r0, #4608	; 0x1200
 150255c:	ebfff8e2 	bl	15008ec <start_program>
 1502560:	eb000085 	bl	150277c <sync>
 1502564:	e3a02020 	mov	r2, #32
 1502568:	e28d1c01 	add	r1, sp, #256	; 0x100
 150256c:	e3a00c12 	mov	r0, #4608	; 0x1200
 1502570:	ebfffa00 	bl	1500d78 <OTP_Get_Byte>
 1502574:	eb000080 	bl	150277c <sync>
 1502578:	e3a02020 	mov	r2, #32
 150257c:	e28d1c01 	add	r1, sp, #256	; 0x100
 1502580:	e3030198 	movw	r0, #12696	; 0x3198
 1502584:	e3400150 	movt	r0, #336	; 0x150
 1502588:	eb000118 	bl	15029f0 <hexdump>
 150258c:	e3a02020 	mov	r2, #32
 1502590:	e28d1c01 	add	r1, sp, #256	; 0x100
 1502594:	e1a0000d 	mov	r0, sp
 1502598:	ebfff75b 	bl	150030c <memcmp>
 150259c:	e3500000 	cmp	r0, #0
 15025a0:	0a000015 	beq	15025fc <R2+0x2b4>
 15025a4:	eb000074 	bl	150277c <sync>
 15025a8:	e2544001 	subs	r4, r4, #1
 15025ac:	1affffec 	bne	1502564 <R2+0x21c>
 15025b0:	e30301bc 	movw	r0, #12732	; 0x31bc
 15025b4:	e3400150 	movt	r0, #336	; 0x150
 15025b8:	eb000095 	bl	1502814 <prints>
 15025bc:	eb00006e 	bl	150277c <sync>
 15025c0:	e28d0c02 	add	r0, sp, #512	; 0x200
 15025c4:	e3a02b01 	mov	r2, #1024	; 0x400
 15025c8:	e3a01000 	mov	r1, #0
 15025cc:	eb000133 	bl	1502aa0 <memset>
 15025d0:	e1a0000d 	mov	r0, sp
 15025d4:	e3a02c01 	mov	r2, #256	; 0x100
 15025d8:	e3a01000 	mov	r1, #0
 15025dc:	eb00012f 	bl	1502aa0 <memset>
 15025e0:	e28d0c01 	add	r0, sp, #256	; 0x100
 15025e4:	e3a02c01 	mov	r2, #256	; 0x100
 15025e8:	e3a01000 	mov	r1, #0
 15025ec:	eb00012b 	bl	1502aa0 <memset>
 15025f0:	e3a00000 	mov	r0, #0
 15025f4:	e28ddc06 	add	sp, sp, #1536	; 0x600
 15025f8:	e8bd8010 	pop	{r4, pc}
 15025fc:	e30301a8 	movw	r0, #12712	; 0x31a8
 1502600:	e3400150 	movt	r0, #336	; 0x150
 1502604:	eb000082 	bl	1502814 <prints>
 1502608:	eaffffeb 	b	15025bc <R2+0x274>

0150260c <obfuse_judge>:
 150260c:	e3000da6 	movw	r0, #3494	; 0xda6
 1502610:	eafff87e 	b	1500810 <OTP_JUDGE_BIT>

01502614 <InitTimer>:
 1502614:	e3500001 	cmp	r0, #1
 1502618:	9a000001 	bls	1502624 <InitTimer+0x10>
 150261c:	e3e00000 	mvn	r0, #0
 1502620:	e12fff1e 	bx	lr
 1502624:	e3062d40 	movw	r2, #27968	; 0x6d40
 1502628:	e3422600 	movt	r2, #9728	; 0x2600
 150262c:	e0802002 	add	r2, r0, r2
 1502630:	e3a0ca0b 	mov	ip, #45056	; 0xb000
 1502634:	e349c801 	movt	ip, #38913	; 0x9801
 1502638:	e1a02102 	lsl	r2, r2, #2
 150263c:	e2800001 	add	r0, r0, #1
 1502640:	e92d4010 	push	{r4, lr}
 1502644:	e1a03300 	lsl	r3, r0, #6
 1502648:	e5821000 	str	r1, [r2]
 150264c:	e3a0e000 	mov	lr, #0
 1502650:	e3a04103 	mov	r4, #-1073741824	; 0xc0000000
 1502654:	e582e024 	str	lr, [r2, #36]	; 0x24
 1502658:	e3a00001 	mov	r0, #1
 150265c:	e582e018 	str	lr, [r2, #24]
 1502660:	e58c3008 	str	r3, [ip, #8]
 1502664:	e5824018 	str	r4, [r2, #24]
 1502668:	e8bd8010 	pop	{r4, pc}

0150266c <DisableTimer>:
 150266c:	e3500001 	cmp	r0, #1
 1502670:	93063d49 	movwls	r3, #27977	; 0x6d49
 1502674:	93a02000 	movls	r2, #0
 1502678:	93423600 	movtls	r3, #9728	; 0x2600
 150267c:	90803003 	addls	r3, r0, r3
 1502680:	93a00001 	movls	r0, #1
 1502684:	83e00000 	mvnhi	r0, #0
 1502688:	91a03103 	lslls	r3, r3, #2
 150268c:	95832000 	strls	r2, [r3]
 1502690:	9503200c 	strls	r2, [r3, #-12]
 1502694:	e12fff1e 	bx	lr

01502698 <SystemTimeout>:
 1502698:	e3500001 	cmp	r0, #1
 150269c:	9a000001 	bls	15026a8 <SystemTimeout+0x10>
 15026a0:	e3a00000 	mov	r0, #0
 15026a4:	e12fff1e 	bx	lr
 15026a8:	e3a03a0b 	mov	r3, #45056	; 0xb000
 15026ac:	e3493801 	movt	r3, #38913	; 0x9801
 15026b0:	e2800001 	add	r0, r0, #1
 15026b4:	e5933008 	ldr	r3, [r3, #8]
 15026b8:	e0133300 	ands	r3, r3, r0, lsl #6
 15026bc:	13a00001 	movne	r0, #1
 15026c0:	03a00000 	moveq	r0, #0
 15026c4:	e12fff1e 	bx	lr

015026c8 <mdelay>:
 15026c8:	e3043240 	movw	r3, #16960	; 0x4240
 15026cc:	e340300f 	movt	r3, #15
 15026d0:	e30c2ccd 	movw	r2, #52429	; 0xcccd
 15026d4:	e34c2ccc 	movt	r2, #52428	; 0xcccc
 15026d8:	e0000093 	mul	r0, r3, r0
 15026dc:	e3a03a0b 	mov	r3, #45056	; 0xb000
 15026e0:	e3493801 	movt	r3, #38913	; 0x9801
 15026e4:	e52de004 	push	{lr}		; (str lr, [sp, #-4]!)
 15026e8:	e0810290 	umull	r0, r1, r0, r2
 15026ec:	e3a0c000 	mov	ip, #0
 15026f0:	e3a0e040 	mov	lr, #64	; 0x40
 15026f4:	e3a00103 	mov	r0, #-1073741824	; 0xc0000000
 15026f8:	e1a02003 	mov	r2, r3
 15026fc:	e1a01221 	lsr	r1, r1, #4
 1502700:	e5831500 	str	r1, [r3, #1280]	; 0x500
 1502704:	e583c524 	str	ip, [r3, #1316]	; 0x524
 1502708:	e583c518 	str	ip, [r3, #1304]	; 0x518
 150270c:	e583e008 	str	lr, [r3, #8]
 1502710:	e5830518 	str	r0, [r3, #1304]	; 0x518
 1502714:	e5923008 	ldr	r3, [r2, #8]
 1502718:	e3130040 	tst	r3, #64	; 0x40
 150271c:	0afffffc 	beq	1502714 <mdelay+0x4c>
 1502720:	e49df004 	pop	{pc}		; (ldr pc, [sp], #4)

01502724 <udelay>:
 1502724:	e3a03ffa 	mov	r3, #1000	; 0x3e8
 1502728:	e30c2ccd 	movw	r2, #52429	; 0xcccd
 150272c:	e34c2ccc 	movt	r2, #52428	; 0xcccc
 1502730:	e0000093 	mul	r0, r3, r0
 1502734:	e3a03a0b 	mov	r3, #45056	; 0xb000
 1502738:	e3493801 	movt	r3, #38913	; 0x9801
 150273c:	e52de004 	push	{lr}		; (str lr, [sp, #-4]!)
 1502740:	e0810290 	umull	r0, r1, r0, r2
 1502744:	e3a0c000 	mov	ip, #0
 1502748:	e3a0e040 	mov	lr, #64	; 0x40
 150274c:	e3a00103 	mov	r0, #-1073741824	; 0xc0000000
 1502750:	e1a02003 	mov	r2, r3
 1502754:	e1a01221 	lsr	r1, r1, #4
 1502758:	e5831500 	str	r1, [r3, #1280]	; 0x500
 150275c:	e583c524 	str	ip, [r3, #1316]	; 0x524
 1502760:	e583c518 	str	ip, [r3, #1304]	; 0x518
 1502764:	e583e008 	str	lr, [r3, #8]
 1502768:	e5830518 	str	r0, [r3, #1304]	; 0x518
 150276c:	e5923008 	ldr	r3, [r2, #8]
 1502770:	e3130040 	tst	r3, #64	; 0x40
 1502774:	0afffffc 	beq	150276c <udelay+0x48>
 1502778:	e49df004 	pop	{pc}		; (ldr pc, [sp], #4)

0150277c <sync>:
 150277c:	e3a03000 	mov	r3, #0
 1502780:	ee073fba 	mcr	15, 0, r3, cr7, cr10, {5}
 1502784:	e3a02a0a 	mov	r2, #40960	; 0xa000
 1502788:	e3492801 	movt	r2, #38913	; 0x9801
 150278c:	e5823020 	str	r3, [r2, #32]
 1502790:	ee073fba 	mcr	15, 0, r3, cr7, cr10, {5}
 1502794:	e12fff1e 	bx	lr

01502798 <init_uart>:
 1502798:	e3a03a07 	mov	r3, #28672	; 0x7000
 150279c:	e3493800 	movt	r3, #38912	; 0x9800
 15027a0:	e92d4010 	push	{r4, lr}
 15027a4:	e5932310 	ldr	r2, [r3, #784]	; 0x310
 15027a8:	e3a01000 	mov	r1, #0
 15027ac:	e3a04090 	mov	r4, #144	; 0x90
 15027b0:	e3a0e00e 	mov	lr, #14
 15027b4:	e3c228ff 	bic	r2, r2, #16711680	; 0xff0000
 15027b8:	e3a0c003 	mov	ip, #3
 15027bc:	e3c22a0f 	bic	r2, r2, #61440	; 0xf000
 15027c0:	e3a000b7 	mov	r0, #183	; 0xb7
 15027c4:	e3822855 	orr	r2, r2, #5570560	; 0x550000
 15027c8:	e3822a05 	orr	r2, r2, #20480	; 0x5000
 15027cc:	e5832310 	str	r2, [r3, #784]	; 0x310
 15027d0:	e583480c 	str	r4, [r3, #2060]	; 0x80c
 15027d4:	e583e800 	str	lr, [r3, #2048]	; 0x800
 15027d8:	e5831804 	str	r1, [r3, #2052]	; 0x804
 15027dc:	e583c80c 	str	ip, [r3, #2060]	; 0x80c
 15027e0:	e5830808 	str	r0, [r3, #2056]	; 0x808
 15027e4:	e5831804 	str	r1, [r3, #2052]	; 0x804
 15027e8:	e8bd8010 	pop	{r4, pc}

015027ec <set_focus_uart>:
 15027ec:	e30326e4 	movw	r2, #14052	; 0x36e4
 15027f0:	e3402151 	movt	r2, #337	; 0x151
 15027f4:	e3500000 	cmp	r0, #0
 15027f8:	e3a01cb2 	mov	r1, #45568	; 0xb200
 15027fc:	e3491801 	movt	r1, #38913	; 0x9801
 1502800:	e3a03b1e 	mov	r3, #30720	; 0x7800
 1502804:	e3493800 	movt	r3, #38912	; 0x9800
 1502808:	11a03001 	movne	r3, r1
 150280c:	e5823000 	str	r3, [r2]
 1502810:	e12fff1e 	bx	lr

01502814 <prints>:
 1502814:	e5d03000 	ldrb	r3, [r0]
 1502818:	e3530000 	cmp	r3, #0
 150281c:	012fff1e 	bxeq	lr
 1502820:	e30326e4 	movw	r2, #14052	; 0x36e4
 1502824:	e3402151 	movt	r2, #337	; 0x151
 1502828:	e3a0c00d 	mov	ip, #13
 150282c:	e5922000 	ldr	r2, [r2]
 1502830:	e353000a 	cmp	r3, #10
 1502834:	11a01003 	movne	r1, r3
 1502838:	0a000008 	beq	1502860 <prints+0x4c>
 150283c:	e5923014 	ldr	r3, [r2, #20]
 1502840:	e2033060 	and	r3, r3, #96	; 0x60
 1502844:	e3530060 	cmp	r3, #96	; 0x60
 1502848:	1afffffb 	bne	150283c <prints+0x28>
 150284c:	e5821000 	str	r1, [r2]
 1502850:	e5f03001 	ldrb	r3, [r0, #1]!
 1502854:	e3530000 	cmp	r3, #0
 1502858:	1afffff4 	bne	1502830 <prints+0x1c>
 150285c:	e12fff1e 	bx	lr
 1502860:	e5923014 	ldr	r3, [r2, #20]
 1502864:	e2033060 	and	r3, r3, #96	; 0x60
 1502868:	e3530060 	cmp	r3, #96	; 0x60
 150286c:	1afffffb 	bne	1502860 <prints+0x4c>
 1502870:	e582c000 	str	ip, [r2]
 1502874:	e3a0100a 	mov	r1, #10
 1502878:	eaffffef 	b	150283c <prints+0x28>

0150287c <wait_done>:
 150287c:	e5903000 	ldr	r3, [r0]
 1502880:	e0033001 	and	r3, r3, r1
 1502884:	e1530002 	cmp	r3, r2
 1502888:	0a000012 	beq	15028d8 <wait_done+0x5c>
 150288c:	e92d41f0 	push	{r4, r5, r6, r7, r8, lr}
 1502890:	e1a07002 	mov	r7, r2
 1502894:	e1a06001 	mov	r6, r1
 1502898:	e1a05000 	mov	r5, r0
 150289c:	e3004bb9 	movw	r4, #3001	; 0xbb9
 15028a0:	ea000001 	b	15028ac <wait_done+0x30>
 15028a4:	e2544001 	subs	r4, r4, #1
 15028a8:	0a000006 	beq	15028c8 <wait_done+0x4c>
 15028ac:	e3a00001 	mov	r0, #1
 15028b0:	ebffff84 	bl	15026c8 <mdelay>
 15028b4:	e5953000 	ldr	r3, [r5]
 15028b8:	e0033006 	and	r3, r3, r6
 15028bc:	e1530007 	cmp	r3, r7
 15028c0:	1afffff7 	bne	15028a4 <wait_done+0x28>
 15028c4:	e8bd81f0 	pop	{r4, r5, r6, r7, r8, pc}
 15028c8:	e30301d8 	movw	r0, #12760	; 0x31d8
 15028cc:	e3400150 	movt	r0, #336	; 0x150
 15028d0:	e8bd41f0 	pop	{r4, r5, r6, r7, r8, lr}
 15028d4:	eaffffce 	b	1502814 <prints>
 15028d8:	e12fff1e 	bx	lr

015028dc <print_val>:
 15028dc:	e30336e4 	movw	r3, #14052	; 0x36e4
 15028e0:	e3403151 	movt	r3, #337	; 0x151
 15028e4:	e2411001 	sub	r1, r1, #1
 15028e8:	e5932000 	ldr	r2, [r3]
 15028ec:	e1a03101 	lsl	r3, r1, #2
 15028f0:	e1a03330 	lsr	r3, r0, r3
 15028f4:	e203300f 	and	r3, r3, #15
 15028f8:	e353000a 	cmp	r3, #10
 15028fc:	33a0c030 	movcc	ip, #48	; 0x30
 1502900:	23a0c037 	movcs	ip, #55	; 0x37
 1502904:	e08cc003 	add	ip, ip, r3
 1502908:	e5923014 	ldr	r3, [r2, #20]
 150290c:	e2033060 	and	r3, r3, #96	; 0x60
 1502910:	e3530060 	cmp	r3, #96	; 0x60
 1502914:	1afffffb 	bne	1502908 <print_val+0x2c>
 1502918:	e2411001 	sub	r1, r1, #1
 150291c:	e582c000 	str	ip, [r2]
 1502920:	e3710001 	cmn	r1, #1
 1502924:	1afffff0 	bne	15028ec <print_val+0x10>
 1502928:	e12fff1e 	bx	lr

0150292c <print_hex>:
 150292c:	e3a01008 	mov	r1, #8
 1502930:	eaffffe9 	b	15028dc <print_val>

01502934 <sys_dcache_flush_all>:
 1502934:	e12fff1e 	bx	lr

01502938 <put_char>:
 1502938:	e30336e4 	movw	r3, #14052	; 0x36e4
 150293c:	e3403151 	movt	r3, #337	; 0x151
 1502940:	e5932000 	ldr	r2, [r3]
 1502944:	e5923014 	ldr	r3, [r2, #20]
 1502948:	e2033060 	and	r3, r3, #96	; 0x60
 150294c:	e3530060 	cmp	r3, #96	; 0x60
 1502950:	1afffffb 	bne	1502944 <put_char+0xc>
 1502954:	e5820000 	str	r0, [r2]
 1502958:	e12fff1e 	bx	lr

0150295c <hexstr2int>:
 150295c:	e3a02010 	mov	r2, #16
 1502960:	e3a01000 	mov	r1, #0
 1502964:	eafff5f4 	b	150013c <strtoul>

01502968 <simple_malloc>:
 1502968:	e3032b3c 	movw	r2, #15164	; 0x3b3c
 150296c:	e3402151 	movt	r2, #337	; 0x151
 1502970:	e92d4010 	push	{r4, lr}
 1502974:	e5924000 	ldr	r4, [r2]
 1502978:	e080e004 	add	lr, r0, r4
 150297c:	e35e0401 	cmp	lr, #16777216	; 0x1000000
 1502980:	8a00000b 	bhi	15029b4 <simple_malloc+0x4c>
 1502984:	e303c6e4 	movw	ip, #14052	; 0x36e4
 1502988:	e340c151 	movt	ip, #337	; 0x151
 150298c:	e3100003 	tst	r0, #3
 1502990:	13c03003 	bicne	r3, r0, #3
 1502994:	e59c1004 	ldr	r1, [ip, #4]
 1502998:	12830004 	addne	r0, r3, #4
 150299c:	1080e004 	addne	lr, r0, r4
 15029a0:	e582e000 	str	lr, [r2]
 15029a4:	e0803001 	add	r3, r0, r1
 15029a8:	e1a00001 	mov	r0, r1
 15029ac:	e58c3004 	str	r3, [ip, #4]
 15029b0:	e8bd8010 	pop	{r4, pc}
 15029b4:	e3a00000 	mov	r0, #0
 15029b8:	e8bd8010 	pop	{r4, pc}

015029bc <is_hex_digit>:
 15029bc:	e2403030 	sub	r3, r0, #48	; 0x30
 15029c0:	e3530009 	cmp	r3, #9
 15029c4:	9a000007 	bls	15029e8 <is_hex_digit+0x2c>
 15029c8:	e2403041 	sub	r3, r0, #65	; 0x41
 15029cc:	e3530005 	cmp	r3, #5
 15029d0:	9a000004 	bls	15029e8 <is_hex_digit+0x2c>
 15029d4:	e2400061 	sub	r0, r0, #97	; 0x61
 15029d8:	e3500005 	cmp	r0, #5
 15029dc:	93a00000 	movls	r0, #0
 15029e0:	83e00000 	mvnhi	r0, #0
 15029e4:	e12fff1e 	bx	lr
 15029e8:	e3a00000 	mov	r0, #0
 15029ec:	e12fff1e 	bx	lr

015029f0 <hexdump>:
 15029f0:	e3520000 	cmp	r2, #0
 15029f4:	13510000 	cmpne	r1, #0
 15029f8:	e92d4070 	push	{r4, r5, r6, lr}
 15029fc:	03a04001 	moveq	r4, #1
 1502a00:	13a04000 	movne	r4, #0
 1502a04:	0a000021 	beq	1502a90 <hexdump+0xa0>
 1502a08:	e3500000 	cmp	r0, #0
 1502a0c:	e30331d0 	movw	r3, #12752	; 0x31d0
 1502a10:	e3403150 	movt	r3, #336	; 0x150
 1502a14:	01a00003 	moveq	r0, r3
 1502a18:	e1a05001 	mov	r5, r1
 1502a1c:	e1a06002 	mov	r6, r2
 1502a20:	ebffff7b 	bl	1502814 <prints>
 1502a24:	e30301ec 	movw	r0, #12780	; 0x31ec
 1502a28:	e3400150 	movt	r0, #336	; 0x150
 1502a2c:	ebffff78 	bl	1502814 <prints>
 1502a30:	e1a00005 	mov	r0, r5
 1502a34:	e3a01008 	mov	r1, #8
 1502a38:	e2455001 	sub	r5, r5, #1
 1502a3c:	ebffffa6 	bl	15028dc <print_val>
 1502a40:	e30301f4 	movw	r0, #12788	; 0x31f4
 1502a44:	e3400150 	movt	r0, #336	; 0x150
 1502a48:	ebffff71 	bl	1502814 <prints>
 1502a4c:	e3a01002 	mov	r1, #2
 1502a50:	e5f50001 	ldrb	r0, [r5, #1]!
 1502a54:	ebffffa0 	bl	15028dc <print_val>
 1502a58:	e204300f 	and	r3, r4, #15
 1502a5c:	e353000f 	cmp	r3, #15
 1502a60:	e30301f8 	movw	r0, #12792	; 0x31f8
 1502a64:	e3400150 	movt	r0, #336	; 0x150
 1502a68:	03020fa8 	movweq	r0, #12200	; 0x2fa8
 1502a6c:	03400150 	movteq	r0, #336	; 0x150
 1502a70:	e2844001 	add	r4, r4, #1
 1502a74:	ebffff66 	bl	1502814 <prints>
 1502a78:	e1540006 	cmp	r4, r6
 1502a7c:	1afffff2 	bne	1502a4c <hexdump+0x5c>
 1502a80:	e3020fa8 	movw	r0, #12200	; 0x2fa8
 1502a84:	e3400150 	movt	r0, #336	; 0x150
 1502a88:	e8bd4070 	pop	{r4, r5, r6, lr}
 1502a8c:	eaffff60 	b	1502814 <prints>
 1502a90:	e30301e4 	movw	r0, #12772	; 0x31e4
 1502a94:	e3400150 	movt	r0, #336	; 0x150
 1502a98:	e8bd4070 	pop	{r4, r5, r6, lr}
 1502a9c:	eaffff5c 	b	1502814 <prints>

01502aa0 <memset>:
 1502aa0:	e3520000 	cmp	r2, #0
 1502aa4:	e6ef1071 	uxtb	r1, r1
 1502aa8:	012fff1e 	bxeq	lr
 1502aac:	e0802002 	add	r2, r0, r2
 1502ab0:	e1a03000 	mov	r3, r0
 1502ab4:	e4c31001 	strb	r1, [r3], #1
 1502ab8:	e1530002 	cmp	r3, r2
 1502abc:	1afffffc 	bne	1502ab4 <memset+0x14>
 1502ac0:	e12fff1e 	bx	lr

01502ac4 <set_memory>:
 1502ac4:	e3520000 	cmp	r2, #0
 1502ac8:	012fff1e 	bxeq	lr
 1502acc:	e0802002 	add	r2, r0, r2
 1502ad0:	e4c01001 	strb	r1, [r0], #1
 1502ad4:	e1500002 	cmp	r0, r2
 1502ad8:	1afffffc 	bne	1502ad0 <set_memory+0xc>
 1502adc:	e12fff1e 	bx	lr

01502ae0 <copy_memory>:
 1502ae0:	e1813002 	orr	r3, r1, r2
 1502ae4:	e24dd008 	sub	sp, sp, #8
 1502ae8:	e1803003 	orr	r3, r0, r3
 1502aec:	e2133003 	ands	r3, r3, #3
 1502af0:	1a00000f 	bne	1502b34 <copy_memory+0x54>
 1502af4:	e58d3004 	str	r3, [sp, #4]
 1502af8:	e59d3004 	ldr	r3, [sp, #4]
 1502afc:	e1520003 	cmp	r2, r3
 1502b00:	9a000009 	bls	1502b2c <copy_memory+0x4c>
 1502b04:	e59d3004 	ldr	r3, [sp, #4]
 1502b08:	e59dc004 	ldr	ip, [sp, #4]
 1502b0c:	e791c00c 	ldr	ip, [r1, ip]
 1502b10:	e780c003 	str	ip, [r0, r3]
 1502b14:	e59d3004 	ldr	r3, [sp, #4]
 1502b18:	e2833004 	add	r3, r3, #4
 1502b1c:	e58d3004 	str	r3, [sp, #4]
 1502b20:	e59d3004 	ldr	r3, [sp, #4]
 1502b24:	e1520003 	cmp	r2, r3
 1502b28:	8afffff5 	bhi	1502b04 <copy_memory+0x24>
 1502b2c:	e28dd008 	add	sp, sp, #8
 1502b30:	e12fff1e 	bx	lr
 1502b34:	e3a03000 	mov	r3, #0
 1502b38:	e58d3004 	str	r3, [sp, #4]
 1502b3c:	e59d3004 	ldr	r3, [sp, #4]
 1502b40:	e1520003 	cmp	r2, r3
 1502b44:	9afffff8 	bls	1502b2c <copy_memory+0x4c>
 1502b48:	e59dc004 	ldr	ip, [sp, #4]
 1502b4c:	e59d3004 	ldr	r3, [sp, #4]
 1502b50:	e7d13003 	ldrb	r3, [r1, r3]
 1502b54:	e6ef3073 	uxtb	r3, r3
 1502b58:	e7c0300c 	strb	r3, [r0, ip]
 1502b5c:	e59d3004 	ldr	r3, [sp, #4]
 1502b60:	e2833001 	add	r3, r3, #1
 1502b64:	e58d3004 	str	r3, [sp, #4]
 1502b68:	e59d3004 	ldr	r3, [sp, #4]
 1502b6c:	e1520003 	cmp	r2, r3
 1502b70:	8afffff4 	bhi	1502b48 <copy_memory+0x68>
 1502b74:	e28dd008 	add	sp, sp, #8
 1502b78:	e12fff1e 	bx	lr

01502b7c <compare_memory>:
 1502b7c:	e3520000 	cmp	r2, #0
 1502b80:	0a000011 	beq	1502bcc <compare_memory+0x50>
 1502b84:	e52de004 	push	{lr}		; (str lr, [sp, #-4]!)
 1502b88:	e5d1e000 	ldrb	lr, [r1]
 1502b8c:	e5d0c000 	ldrb	ip, [r0]
 1502b90:	e15c000e 	cmp	ip, lr
 1502b94:	00802002 	addeq	r2, r0, r2
 1502b98:	02803001 	addeq	r3, r0, #1
 1502b9c:	0a000004 	beq	1502bb4 <compare_memory+0x38>
 1502ba0:	ea000007 	b	1502bc4 <compare_memory+0x48>
 1502ba4:	e4d3c001 	ldrb	ip, [r3], #1
 1502ba8:	e5f1e001 	ldrb	lr, [r1, #1]!
 1502bac:	e15c000e 	cmp	ip, lr
 1502bb0:	1a000003 	bne	1502bc4 <compare_memory+0x48>
 1502bb4:	e1530002 	cmp	r3, r2
 1502bb8:	1afffff9 	bne	1502ba4 <compare_memory+0x28>
 1502bbc:	e3a00000 	mov	r0, #0
 1502bc0:	e49df004 	pop	{pc}		; (ldr pc, [sp], #4)
 1502bc4:	e06e000c 	rsb	r0, lr, ip
 1502bc8:	e49df004 	pop	{pc}		; (ldr pc, [sp], #4)
 1502bcc:	e1a00002 	mov	r0, r2
 1502bd0:	e12fff1e 	bx	lr

01502bd4 <compare_str>:
 1502bd4:	e5d03000 	ldrb	r3, [r0]
 1502bd8:	e3530000 	cmp	r3, #0
 1502bdc:	0a000009 	beq	1502c08 <compare_str+0x34>
 1502be0:	e5d12000 	ldrb	r2, [r1]
 1502be4:	e1530002 	cmp	r3, r2
 1502be8:	0a000003 	beq	1502bfc <compare_str+0x28>
 1502bec:	ea000007 	b	1502c10 <compare_str+0x3c>
 1502bf0:	e5f12001 	ldrb	r2, [r1, #1]!
 1502bf4:	e1530002 	cmp	r3, r2
 1502bf8:	1a000004 	bne	1502c10 <compare_str+0x3c>
 1502bfc:	e5f03001 	ldrb	r3, [r0, #1]!
 1502c00:	e3530000 	cmp	r3, #0
 1502c04:	1afffff9 	bne	1502bf0 <compare_str+0x1c>
 1502c08:	e1a00003 	mov	r0, r3
 1502c0c:	e12fff1e 	bx	lr
 1502c10:	e0620003 	rsb	r0, r2, r3
 1502c14:	e12fff1e 	bx	lr

01502c18 <watchdog_reset>:
 1502c18:	e3a03a0b 	mov	r3, #45056	; 0xb000
 1502c1c:	e3493801 	movt	r3, #38913	; 0x9801
 1502c20:	e3a02000 	mov	r2, #0
 1502c24:	e3a000a5 	mov	r0, #165	; 0xa5
 1502c28:	e3a01001 	mov	r1, #1
 1502c2c:	e58305b0 	str	r0, [r3, #1456]	; 0x5b0
 1502c30:	e58315b4 	str	r1, [r3, #1460]	; 0x5b4
 1502c34:	e58325bc 	str	r2, [r3, #1468]	; 0x5bc
 1502c38:	e58325b0 	str	r2, [r3, #1456]	; 0x5b0
 1502c3c:	e12fff1e 	bx	lr

01502c40 <__div0>:
 1502c40:	e12fff1e 	bx	lr

01502c44 <v7_maint_dcache_all>:
 1502c44:	e92d43f0 	push	{r4, r5, r6, r7, r8, r9, lr}
 1502c48:	ee307f30 	mrc	15, 1, r7, cr0, cr0, {1}
 1502c4c:	e3a0e000 	mov	lr, #0
 1502c50:	e1a0500e 	mov	r5, lr
 1502c54:	ea000003 	b	1502c68 <v7_maint_dcache_all+0x24>
 1502c58:	e28ee003 	add	lr, lr, #3
 1502c5c:	e2855001 	add	r5, r5, #1
 1502c60:	e35e0015 	cmp	lr, #21
 1502c64:	0a000025 	beq	1502d00 <v7_maint_dcache_all+0xbc>
 1502c68:	e1a03e37 	lsr	r3, r7, lr
 1502c6c:	e2033007 	and	r3, r3, #7
 1502c70:	e2433002 	sub	r3, r3, #2
 1502c74:	e3530002 	cmp	r3, #2
 1502c78:	8afffff6 	bhi	1502c58 <v7_maint_dcache_all+0x14>
 1502c7c:	e1a06085 	lsl	r6, r5, #1
 1502c80:	ee406f10 	mcr	15, 2, r6, cr0, cr0, {0}
 1502c84:	ee304f10 	mrc	15, 1, r4, cr0, cr0, {0}
 1502c88:	e7e991d4 	ubfx	r9, r4, #3, #10
 1502c8c:	e2042007 	and	r2, r4, #7
 1502c90:	e289c001 	add	ip, r9, #1
 1502c94:	e2822004 	add	r2, r2, #4
 1502c98:	e1a0300c 	mov	r3, ip
 1502c9c:	e7ee46d4 	ubfx	r4, r4, #13, #15
 1502ca0:	e3e01000 	mvn	r1, #0
 1502ca4:	e1b030a3 	lsrs	r3, r3, #1
 1502ca8:	e2811001 	add	r1, r1, #1
 1502cac:	1afffffc 	bne	1502ca4 <v7_maint_dcache_all+0x60>
 1502cb0:	e11c0009 	tst	ip, r9
 1502cb4:	12811001 	addne	r1, r1, #1
 1502cb8:	e3500001 	cmp	r0, #1
 1502cbc:	e2618020 	rsb	r8, r1, #32
 1502cc0:	0a000011 	beq	1502d0c <v7_maint_dcache_all+0xc8>
 1502cc4:	e3500002 	cmp	r0, #2
 1502cc8:	1affffe2 	bne	1502c58 <v7_maint_dcache_all+0x14>
 1502ccc:	e186c819 	orr	ip, r6, r9, lsl r8
 1502cd0:	e1a03004 	mov	r3, r4
 1502cd4:	e18c1213 	orr	r1, ip, r3, lsl r2
 1502cd8:	ee071f5e 	mcr	15, 0, r1, cr7, cr14, {2}
 1502cdc:	e2533001 	subs	r3, r3, #1
 1502ce0:	2afffffb 	bcs	1502cd4 <v7_maint_dcache_all+0x90>
 1502ce4:	e2599001 	subs	r9, r9, #1
 1502ce8:	2afffff7 	bcs	1502ccc <v7_maint_dcache_all+0x88>
 1502cec:	f57ff04f 	dsb	sy
 1502cf0:	e28ee003 	add	lr, lr, #3
 1502cf4:	e2855001 	add	r5, r5, #1
 1502cf8:	e35e0015 	cmp	lr, #21
 1502cfc:	1affffd9 	bne	1502c68 <v7_maint_dcache_all+0x24>
 1502d00:	e8bd83f0 	pop	{r4, r5, r6, r7, r8, r9, pc}
 1502d04:	e2599001 	subs	r9, r9, #1
 1502d08:	3afffff7 	bcc	1502cec <v7_maint_dcache_all+0xa8>
 1502d0c:	e186c819 	orr	ip, r6, r9, lsl r8
 1502d10:	e1a03004 	mov	r3, r4
 1502d14:	e18c1213 	orr	r1, ip, r3, lsl r2
 1502d18:	ee071f56 	mcr	15, 0, r1, cr7, cr6, {2}
 1502d1c:	e2533001 	subs	r3, r3, #1
 1502d20:	2afffffb 	bcs	1502d14 <v7_maint_dcache_all+0xd0>
 1502d24:	eafffff6 	b	1502d04 <v7_maint_dcache_all+0xc0>

01502d28 <invalidate_icache_all>:
 1502d28:	e3a03000 	mov	r3, #0
 1502d2c:	ee073f15 	mcr	15, 0, r3, cr7, cr5, {0}
 1502d30:	ee073fd5 	mcr	15, 0, r3, cr7, cr5, {6}
 1502d34:	f57ff04f 	dsb	sy
 1502d38:	f57ff06f 	isb	sy
 1502d3c:	e12fff1e 	bx	lr

01502d40 <__v7_outer_cache_enable>:
 1502d40:	e12fff1e 	bx	lr

01502d44 <__v7_outer_cache_disable>:
 1502d44:	e12fff1e 	bx	lr

01502d48 <__v7_outer_cache_flush_all>:
 1502d48:	e12fff1e 	bx	lr

01502d4c <flush_dcache_all>:
 1502d4c:	e92d4010 	push	{r4, lr}
 1502d50:	e3a00002 	mov	r0, #2
 1502d54:	ebffffba 	bl	1502c44 <v7_maint_dcache_all>
 1502d58:	e8bd4010 	pop	{r4, lr}
 1502d5c:	eafffff9 	b	1502d48 <__v7_outer_cache_flush_all>

01502d60 <__v7_outer_cache_inval_all>:
 1502d60:	e12fff1e 	bx	lr

01502d64 <invalidate_dcache_all>:
 1502d64:	e92d4010 	push	{r4, lr}
 1502d68:	e3a00001 	mov	r0, #1
 1502d6c:	ebffffb4 	bl	1502c44 <v7_maint_dcache_all>
 1502d70:	e8bd4010 	pop	{r4, lr}
 1502d74:	eafffff9 	b	1502d60 <__v7_outer_cache_inval_all>

01502d78 <arm_init_before_mmu>:
 1502d78:	e92d4010 	push	{r4, lr}
 1502d7c:	ebffffef 	bl	1502d40 <__v7_outer_cache_enable>
 1502d80:	e3a00001 	mov	r0, #1
 1502d84:	ebffffae 	bl	1502c44 <v7_maint_dcache_all>
 1502d88:	ebfffff4 	bl	1502d60 <__v7_outer_cache_inval_all>
 1502d8c:	e3a03000 	mov	r3, #0
 1502d90:	ee083f17 	mcr	15, 0, r3, cr8, cr7, {0}
 1502d94:	ee083f16 	mcr	15, 0, r3, cr8, cr6, {0}
 1502d98:	ee083f15 	mcr	15, 0, r3, cr8, cr5, {0}
 1502d9c:	f57ff04f 	dsb	sy
 1502da0:	f57ff06f 	isb	sy
 1502da4:	e8bd8010 	pop	{r4, pc}

01502da8 <__v7_outer_cache_flush_range>:
 1502da8:	e12fff1e 	bx	lr

01502dac <flush_dcache_range>:
 1502dac:	ee302f10 	mrc	15, 1, r2, cr0, cr0, {0}
 1502db0:	e2022007 	and	r2, r2, #7
 1502db4:	e3a03001 	mov	r3, #1
 1502db8:	e2822004 	add	r2, r2, #4
 1502dbc:	e1a02213 	lsl	r2, r3, r2
 1502dc0:	e2623000 	rsb	r3, r2, #0
 1502dc4:	e0033000 	and	r3, r3, r0
 1502dc8:	e1510003 	cmp	r1, r3
 1502dcc:	3a000003 	bcc	1502de0 <flush_dcache_range+0x34>
 1502dd0:	ee073f3e 	mcr	15, 0, r3, cr7, cr14, {1}
 1502dd4:	e0833002 	add	r3, r3, r2
 1502dd8:	e1510003 	cmp	r1, r3
 1502ddc:	2afffffb 	bcs	1502dd0 <flush_dcache_range+0x24>
 1502de0:	f57ff04f 	dsb	sy
 1502de4:	eaffffef 	b	1502da8 <__v7_outer_cache_flush_range>

01502de8 <flush_cache>:
 1502de8:	e0801001 	add	r1, r0, r1
 1502dec:	eaffffee 	b	1502dac <flush_dcache_range>

01502df0 <__v7_outer_cache_inval_range>:
 1502df0:	e12fff1e 	bx	lr

01502df4 <invalidate_dcache_range>:
 1502df4:	e52de004 	push	{lr}		; (str lr, [sp, #-4]!)
 1502df8:	ee30cf10 	mrc	15, 1, ip, cr0, cr0, {0}
 1502dfc:	e20cc007 	and	ip, ip, #7
 1502e00:	e3a03001 	mov	r3, #1
 1502e04:	e28cc004 	add	ip, ip, #4
 1502e08:	e1a0cc13 	lsl	ip, r3, ip
 1502e0c:	e24ce001 	sub	lr, ip, #1
 1502e10:	e11e0000 	tst	lr, r0
 1502e14:	12402001 	subne	r2, r0, #1
 1502e18:	126c3000 	rsbne	r3, ip, #0
 1502e1c:	1082200c 	addne	r2, r2, ip
 1502e20:	01a03000 	moveq	r3, r0
 1502e24:	10033002 	andne	r3, r3, r2
 1502e28:	e11e0001 	tst	lr, r1
 1502e2c:	126c2000 	rsbne	r2, ip, #0
 1502e30:	01a02001 	moveq	r2, r1
 1502e34:	10022001 	andne	r2, r2, r1
 1502e38:	e1520003 	cmp	r2, r3
 1502e3c:	3a000003 	bcc	1502e50 <invalidate_dcache_range+0x5c>
 1502e40:	ee073f36 	mcr	15, 0, r3, cr7, cr6, {1}
 1502e44:	e083300c 	add	r3, r3, ip
 1502e48:	e1530002 	cmp	r3, r2
 1502e4c:	9afffffb 	bls	1502e40 <invalidate_dcache_range+0x4c>
 1502e50:	f57ff04f 	dsb	sy
 1502e54:	e49de004 	pop	{lr}		; (ldr lr, [sp], #4)
 1502e58:	eaffffe4 	b	1502df0 <__v7_outer_cache_inval_range>
