
efuse_programmer:     file format elf32-littlearm


Disassembly of section .text:

01500000 <_back_addr>:
 1500000:	01a00010 	lsleq	r0, r0, r0

01500004 <_stack_start>:
 1500004:	02001000 	andeq	r1, r0, #0

01500008 <_stack_start1>:
 1500008:	02500000 	subseq	r0, r0, #0

0150000c <start>:
.globl _stack_start1
_stack_start1:
        .word 0x02500000

start:
     mrc     p15, 0, r1, c0, c0, 5     @ Read Multiprocessor Affinity Register
 150000c:	ee101fb0 	mrc	15, 0, r1, cr0, cr0, {5}
     ands    r1, r1, #0x03             @ Mask off, leaving the CPU ID field
 1500010:	e2111003 	ands	r1, r1, #3
     cmp     r1,#0x00                  @ core0 : 0x00 , others 0x01 , 0x02 ...
 1500014:	e3510000 	cmp	r1, #0
     bne     run_secondary
 1500018:	1a00000c 	bne	1500050 <run_secondary>

     ldr     r8, _back_addr
 150001c:	e51f8024 	ldr	r8, [pc, #-36]	; 1500000 <_back_addr>
     str     lr, [r8]
 1500020:	e588e000 	str	lr, [r8]
     add     r8, r8,#4
 1500024:	e2888004 	add	r8, r8, #4
     str     sp, [r8]
 1500028:	e588d000 	str	sp, [r8]

     ldr     sp, _stack_start
 150002c:	e51fd030 	ldr	sp, [pc, #-48]	; 1500004 <_stack_start>
     bic     sp, sp, #7
 1500030:	e3cdd007 	bic	sp, sp, #7
     bl	     efusemain
 1500034:	eb00013e 	bl	1500534 <efusemain>

     ldr     r8, _back_addr
 1500038:	e51f8040 	ldr	r8, [pc, #-64]	; 1500000 <_back_addr>
     add     r9, r8,#4
 150003c:	e2889004 	add	r9, r8, #4
     ldr     sp, [r9]
 1500040:	e599d000 	ldr	sp, [r9]
     ldr     r1, [r8]
 1500044:	e5981000 	ldr	r1, [r8]
     mov     r0, #0
 1500048:	e3a00000 	mov	r0, #0
     bx      r1
 150004c:	e12fff11 	bx	r1

01500050 <run_secondary>:

run_secondary:
     ldr   sp, _stack_start1
 1500050:	e51fd050 	ldr	sp, [pc, #-80]	; 1500008 <_stack_start1>
     MSR   CPSR_c, #0xD3 ; #MODE_SVC:OR:DIS_IRQ:OR:DIS_FIRQ
 1500054:	e321f0d3 	msr	CPSR_c, #211	; 0xd3
     MOV   r0, r0
 1500058:	e1a00000 	nop			; (mov r0, r0)
     MOV   r0, r0
 150005c:	e1a00000 	nop			; (mov r0, r0)
     MOV   r0, r0
 1500060:	e1a00000 	nop			; (mov r0, r0)
9:
     b     9b
 1500064:	eafffffe 	b	1500064 <run_secondary+0x14>
     MOV   r0, r0
 1500068:	e1a00000 	nop			; (mov r0, r0)
     MOV   r0, r0
 150006c:	e1a00000 	nop			; (mov r0, r0)
     MOV   r0, r0
 1500070:	e1a00000 	nop			; (mov r0, r0)

01500074 <strlen>:

int strlen(const char *s)
{
	int	l = 0;

	while (*s++) 
 1500074:	e5d01000 	ldrb	r1, [r0]
 1500078:	e2803001 	add	r3, r0, #1
 150007c:	e3510000 	cmp	r1, #0
 1500080:	0a000003 	beq	1500094 <strlen+0x20>
 1500084:	e0601003 	rsb	r1, r0, r3
 1500088:	e4d32001 	ldrb	r2, [r3], #1
 150008c:	e3520000 	cmp	r2, #0
 1500090:	1afffffb 	bne	1500084 <strlen+0x10>
	{
		
	 l++;
	} 
	return l;
}
 1500094:	e1a00001 	mov	r0, r1
 1500098:	e12fff1e 	bx	lr

0150009c <strstr>:
	const char 	*s2)
{
    const char *s ;
    const char *t ;

    if (!s1 || !s2)
 150009c:	e3510000 	cmp	r1, #0
 15000a0:	13500000 	cmpne	r0, #0
 15000a4:	0a000022 	beq	1500134 <strstr+0x98>
#include "dvrboot_inc/string.h"

char *strstr(
	const char 	*s1, 
	const char 	*s2)
{
 15000a8:	e92d4030 	push	{r4, r5, lr}
    const char *t ;

    if (!s1 || !s2)
	return (0);

    if (!*s2)
 15000ac:	e5d15000 	ldrb	r5, [r1]
 15000b0:	e3550000 	cmp	r5, #0
 15000b4:	08bd8030 	popeq	{r4, r5, pc}
	return ((char*)s1);

    for (; *s1; s1++) 
 15000b8:	e5d03000 	ldrb	r3, [r0]
 15000bc:	e3530000 	cmp	r3, #0
 15000c0:	1a000003 	bne	15000d4 <strstr+0x38>
 15000c4:	ea000018 	b	150012c <strstr+0x90>
 15000c8:	e5f03001 	ldrb	r3, [r0, #1]!
 15000cc:	e3530000 	cmp	r3, #0
 15000d0:	0a000015 	beq	150012c <strstr+0x90>
    {
	if (*s1 == *s2) 
 15000d4:	e1550003 	cmp	r5, r3
 15000d8:	1afffffa 	bne	15000c8 <strstr+0x2c>
        {
	    t = s1;
	    s = s2;
	    for (; *t; s++, t++) 
 15000dc:	e5d03000 	ldrb	r3, [r0]
 15000e0:	e3530000 	cmp	r3, #0
 15000e4:	0afffff7 	beq	15000c8 <strstr+0x2c>
            {
		if (*t != *s)
 15000e8:	e1550003 	cmp	r5, r3
 15000ec:	1afffff5 	bne	15000c8 <strstr+0x2c>
 15000f0:	e2813001 	add	r3, r1, #1
 15000f4:	e1a0c000 	mov	ip, r0
 15000f8:	ea000002 	b	1500108 <strstr+0x6c>
 15000fc:	e5de4000 	ldrb	r4, [lr]
 1500100:	e1540002 	cmp	r4, r2
 1500104:	1a000004 	bne	150011c <strstr+0x80>
    {
	if (*s1 == *s2) 
        {
	    t = s1;
	    s = s2;
	    for (; *t; s++, t++) 
 1500108:	e5fc2001 	ldrb	r2, [ip, #1]!
 150010c:	e1a0e003 	mov	lr, r3
 1500110:	e2833001 	add	r3, r3, #1
 1500114:	e3520000 	cmp	r2, #0
 1500118:	1afffff7 	bne	15000fc <strstr+0x60>
            {
		if (*t != *s)
		    break;
	    }
	    if (!*s)
 150011c:	e5de3000 	ldrb	r3, [lr]
 1500120:	e3530000 	cmp	r3, #0
 1500124:	1affffe7 	bne	15000c8 <strstr+0x2c>
 1500128:	e8bd8030 	pop	{r4, r5, pc}
{
    const char *s ;
    const char *t ;

    if (!s1 || !s2)
	return (0);
 150012c:	e1a00003 	mov	r0, r3
	    if (!*s)
		return ((char*)s1);
	}
    }
    return (0);
}
 1500130:	e8bd8030 	pop	{r4, r5, pc}
{
    const char *s ;
    const char *t ;

    if (!s1 || !s2)
	return (0);
 1500134:	e3a00000 	mov	r0, #0
	    if (!*s)
		return ((char*)s1);
	}
    }
    return (0);
}
 1500138:	e12fff1e 	bx	lr

0150013c <strtoul>:
unsigned long
strtoul(
	const 	char 	*str,
		char 	**endptr,
		int 	base)
{
 150013c:	e92d47f0 	push	{r4, r5, r6, r7, r8, r9, sl, lr}
 1500140:	e3027e5c 	movw	r7, #11868	; 0x2e5c
 1500144:	e3407150 	movt	r7, #336	; 0x150
 1500148:	e1a08000 	mov	r8, r0
 150014c:	ea000000 	b	1500154 <strtoul+0x18>
 1500150:	e1a00003 	mov	r0, r3
	/*
	 * See strtol for comments as to the logic used.
	 */
	s = str;
	do {
		c = (unsigned char) *s++;
 1500154:	e1a03000 	mov	r3, r0
 1500158:	e4d3e001 	ldrb	lr, [r3], #1
	} while (isspace(c));
 150015c:	e7d7c00e 	ldrb	ip, [r7, lr]
 1500160:	e20cc020 	and	ip, ip, #32
 1500164:	e21cc0ff 	ands	ip, ip, #255	; 0xff
 1500168:	1afffff8 	bne	1500150 <strtoul+0x14>
	if (c == '-') {
 150016c:	e35e002d 	cmp	lr, #45	; 0x2d
 1500170:	0a000047 	beq	1500294 <strtoul+0x158>
		neg = 1;
		c = *s++;
	} else {
		neg = 0;
		if (c == '+')
 1500174:	e35e002b 	cmp	lr, #43	; 0x2b
			c = *s++;
 1500178:	02803002 	addeq	r3, r0, #2
 150017c:	05d0e001 	ldrbeq	lr, [r0, #1]
	}
	if ((base == 0 || base == 16) &&
 1500180:	e3d20010 	bics	r0, r2, #16
 1500184:	1a000011 	bne	15001d0 <strtoul+0x94>
 1500188:	e16f0f12 	clz	r0, r2
 150018c:	e35e0030 	cmp	lr, #48	; 0x30
 1500190:	e1a002a0 	lsr	r0, r0, #5
 1500194:	0a000042 	beq	15002a4 <strtoul+0x168>
	    c == '0' && (*s == 'x' || *s == 'X')) {
		c = s[1];
		s += 2;
		base = 16;
	}
	if (base == 0)
 1500198:	e3500000 	cmp	r0, #0
 150019c:	0a00000b 	beq	15001d0 <strtoul+0x94>
 15001a0:	e3a0200a 	mov	r2, #10
 15001a4:	e3090999 	movw	r0, #39321	; 0x9999
 15001a8:	e3410999 	movt	r0, #6553	; 0x1999
		base = c == '0' ? 8 : 10;
 15001ac:	e1a0a002 	mov	sl, r2
 15001b0:	e3a09005 	mov	r9, #5
 15001b4:	ea00000a 	b	15001e4 <strtoul+0xa8>
	    c == '0' && (*s == 'x' || *s == 'X')) {
		c = s[1];
		s += 2;
		base = 16;
	}
	if (base == 0)
 15001b8:	e3500000 	cmp	r0, #0
 15001bc:	13a02008 	movne	r2, #8
 15001c0:	13a09007 	movne	r9, #7
		base = c == '0' ? 8 : 10;
 15001c4:	11a0a002 	movne	sl, r2
	    c == '0' && (*s == 'x' || *s == 'X')) {
		c = s[1];
		s += 2;
		base = 16;
	}
	if (base == 0)
 15001c8:	13e0020e 	mvnne	r0, #-536870912	; 0xe0000000
 15001cc:	1a000004 	bne	15001e4 <strtoul+0xa8>
 15001d0:	e3e00000 	mvn	r0, #0
 15001d4:	e1a0a002 	mov	sl, r2
 15001d8:	e730f210 	udiv	r0, r0, r2
 15001dc:	e0090092 	mul	r9, r2, r0
 15001e0:	e1e09009 	mvn	r9, r9
		base = c == '0' ? 8 : 10;

	cutoff = MAXUINT(sizeof(UINT32)) / (unsigned long)base;
	cutlim = MAXUINT(sizeof(UINT32)) % (unsigned long)base;
	for (acc = 0, any = 0;; c = (unsigned char) *s++) {
 15001e4:	e3a05000 	mov	r5, #0
 15001e8:	e1a06005 	mov	r6, r5
 15001ec:	ea000009 	b	1500218 <strtoul+0xdc>
			break;
		if (c >= base)
			break;
		if (any < 0)
			continue;
		if ((acc > cutoff) || (acc == cutoff && c > cutlim)) {
 15001f0:	e15e0009 	cmp	lr, r9
 15001f4:	d3a04000 	movle	r4, #0
 15001f8:	c3a04001 	movgt	r4, #1
 15001fc:	e1560000 	cmp	r6, r0
 1500200:	13a04000 	movne	r4, #0
 1500204:	e3540000 	cmp	r4, #0
 1500208:	1a000012 	bne	1500258 <strtoul+0x11c>
			acc = MAXUINT(sizeof(UINT32));
			//errno = ERANGE;
		} else {
			any = 1;
			acc *= (unsigned long)base;
			acc += c;
 150020c:	e026e69a 	mla	r6, sl, r6, lr
		if ((acc > cutoff) || (acc == cutoff && c > cutlim)) {
			any = -1;
			acc = MAXUINT(sizeof(UINT32));
			//errno = ERANGE;
		} else {
			any = 1;
 1500210:	e3a05001 	mov	r5, #1
	if (base == 0)
		base = c == '0' ? 8 : 10;

	cutoff = MAXUINT(sizeof(UINT32)) / (unsigned long)base;
	cutlim = MAXUINT(sizeof(UINT32)) % (unsigned long)base;
	for (acc = 0, any = 0;; c = (unsigned char) *s++) {
 1500214:	e4d3e001 	ldrb	lr, [r3], #1
		if (isdigit(c))
 1500218:	e7d7400e 	ldrb	r4, [r7, lr]
 150021c:	e3140004 	tst	r4, #4
			c -= '0';
 1500220:	124ee030 	subne	lr, lr, #48	; 0x30
		base = c == '0' ? 8 : 10;

	cutoff = MAXUINT(sizeof(UINT32)) / (unsigned long)base;
	cutlim = MAXUINT(sizeof(UINT32)) % (unsigned long)base;
	for (acc = 0, any = 0;; c = (unsigned char) *s++) {
		if (isdigit(c))
 1500224:	1a000005 	bne	1500240 <strtoul+0x104>
			c -= '0';
		else if (isalpha(c))
 1500228:	e3140003 	tst	r4, #3
 150022c:	0a00000c 	beq	1500264 <strtoul+0x128>
			c -= isupper(c) ? 'A' - 10 : 'a' - 10;
 1500230:	e3140001 	tst	r4, #1
 1500234:	13a04037 	movne	r4, #55	; 0x37
 1500238:	03a04057 	moveq	r4, #87	; 0x57
 150023c:	e064e00e 	rsb	lr, r4, lr
		else
			break;
		if (c >= base)
 1500240:	e152000e 	cmp	r2, lr
 1500244:	da000006 	ble	1500264 <strtoul+0x128>
			break;
		if (any < 0)
 1500248:	e3750001 	cmn	r5, #1
 150024c:	0afffff0 	beq	1500214 <strtoul+0xd8>
			continue;
		if ((acc > cutoff) || (acc == cutoff && c > cutlim)) {
 1500250:	e1560000 	cmp	r6, r0
 1500254:	9affffe5 	bls	15001f0 <strtoul+0xb4>
			any = -1;
 1500258:	e3e05000 	mvn	r5, #0
			acc = MAXUINT(sizeof(UINT32));
 150025c:	e1a06005 	mov	r6, r5
 1500260:	eaffffeb 	b	1500214 <strtoul+0xd8>
			any = 1;
			acc *= (unsigned long)base;
			acc += c;
		}
	}
	if (neg && any > 0)
 1500264:	e3550000 	cmp	r5, #0
 1500268:	d3a0c000 	movle	ip, #0
 150026c:	c20cc001 	andgt	ip, ip, #1
		acc = -acc;
	if (endptr != 0)
 1500270:	e3510000 	cmp	r1, #0
 1500274:	e26c0000 	rsb	r0, ip, #0
 1500278:	e0266000 	eor	r6, r6, r0
 150027c:	e086000c 	add	r0, r6, ip
 1500280:	08bd87f0 	popeq	{r4, r5, r6, r7, r8, r9, sl, pc}
		*endptr = (char *) (any ? s - 1 : (char *) str);
 1500284:	e3550000 	cmp	r5, #0
 1500288:	12438001 	subne	r8, r3, #1
 150028c:	e5818000 	str	r8, [r1]
 1500290:	e8bd87f0 	pop	{r4, r5, r6, r7, r8, r9, sl, pc}
	do {
		c = (unsigned char) *s++;
	} while (isspace(c));
	if (c == '-') {
		neg = 1;
		c = *s++;
 1500294:	e2803002 	add	r3, r0, #2
 1500298:	e5d0e001 	ldrb	lr, [r0, #1]
 150029c:	e3a0c001 	mov	ip, #1
 15002a0:	eaffffb6 	b	1500180 <strtoul+0x44>
		neg = 0;
		if (c == '+')
			c = *s++;
	}
	if ((base == 0 || base == 16) &&
	    c == '0' && (*s == 'x' || *s == 'X')) {
 15002a4:	e5d34000 	ldrb	r4, [r3]
 15002a8:	e20440df 	and	r4, r4, #223	; 0xdf
 15002ac:	e3540058 	cmp	r4, #88	; 0x58
 15002b0:	1affffc0 	bne	15001b8 <strtoul+0x7c>
		c = s[1];
		s += 2;
 15002b4:	e3a02010 	mov	r2, #16
		if (c == '+')
			c = *s++;
	}
	if ((base == 0 || base == 16) &&
	    c == '0' && (*s == 'x' || *s == 'X')) {
		c = s[1];
 15002b8:	e5d3e001 	ldrb	lr, [r3, #1]
		s += 2;
		base = 16;
 15002bc:	e1a0a002 	mov	sl, r2
			c = *s++;
	}
	if ((base == 0 || base == 16) &&
	    c == '0' && (*s == 'x' || *s == 'X')) {
		c = s[1];
		s += 2;
 15002c0:	e2833002 	add	r3, r3, #2
 15002c4:	e3a0900f 	mov	r9, #15
 15002c8:	e3e0020f 	mvn	r0, #-268435456	; 0xf0000000
 15002cc:	eaffffc4 	b	15001e4 <strtoul+0xa8>

015002d0 <ctrlc>:
 15002d0:	e3a00000 	mov	r0, #0
 15002d4:	e12fff1e 	bx	lr

015002d8 <printf>:
 15002d8:	e92d000f 	push	{r0, r1, r2, r3}
 15002dc:	e3a00001 	mov	r0, #1
 15002e0:	e28dd010 	add	sp, sp, #16
 15002e4:	e12fff1e 	bx	lr

015002e8 <memcpy>:
 15002e8:	e3520000 	cmp	r2, #0
 15002ec:	012fff1e 	bxeq	lr
 15002f0:	e0812002 	add	r2, r1, r2
 15002f4:	e2403001 	sub	r3, r0, #1
 15002f8:	e4d1c001 	ldrb	ip, [r1], #1
 15002fc:	e5e3c001 	strb	ip, [r3, #1]!
 1500300:	e1510002 	cmp	r1, r2
 1500304:	1afffffb 	bne	15002f8 <memcpy+0x10>
 1500308:	e12fff1e 	bx	lr

0150030c <memcmp>:
 150030c:	e3520000 	cmp	r2, #0
 1500310:	0a000011 	beq	150035c <memcmp+0x50>
 1500314:	e5d03000 	ldrb	r3, [r0]
 1500318:	e1a0c000 	mov	ip, r0
 150031c:	e5d10000 	ldrb	r0, [r1]
 1500320:	e0530000 	subs	r0, r3, r0
 1500324:	112fff1e 	bxne	lr
 1500328:	e08c2002 	add	r2, ip, r2
 150032c:	e28cc001 	add	ip, ip, #1
 1500330:	e52de004 	push	{lr}		; (str lr, [sp, #-4]!)
 1500334:	ea000003 	b	1500348 <memcmp+0x3c>
 1500338:	e4dc3001 	ldrb	r3, [ip], #1
 150033c:	e5f1e001 	ldrb	lr, [r1, #1]!
 1500340:	e053300e 	subs	r3, r3, lr
 1500344:	1a000002 	bne	1500354 <memcmp+0x48>
 1500348:	e15c0002 	cmp	ip, r2
 150034c:	1afffff9 	bne	1500338 <memcmp+0x2c>
 1500350:	e49df004 	pop	{pc}		; (ldr pc, [sp], #4)
 1500354:	e1a00003 	mov	r0, r3
 1500358:	e49df004 	pop	{pc}		; (ldr pc, [sp], #4)
 150035c:	e1a00002 	mov	r0, r2
 1500360:	e12fff1e 	bx	lr

01500364 <do_program>:
 1500364:	e92d40f0 	push	{r4, r5, r6, r7, lr}
 1500368:	e3020f5c 	movw	r0, #12124	; 0x2f5c
 150036c:	e3400150 	movt	r0, #336	; 0x150
 1500370:	e24dd00c 	sub	sp, sp, #12
 1500374:	eb000926 	bl	1502814 <prints>
 1500378:	e3020f80 	movw	r0, #12160	; 0x2f80
 150037c:	e3400150 	movt	r0, #336	; 0x150
 1500380:	eb000923 	bl	1502814 <prints>
 1500384:	e3020fa0 	movw	r0, #12192	; 0x2fa0
 1500388:	e3400150 	movt	r0, #336	; 0x150
 150038c:	eb000920 	bl	1502814 <prints>
 1500390:	eb00089d 	bl	150260c <obfuse_judge>
 1500394:	e2504000 	subs	r4, r0, #0
 1500398:	1a000056 	bne	15004f8 <do_program+0x194>
 150039c:	eb0008f6 	bl	150277c <sync>
 15003a0:	e30321fc 	movw	r2, #12796	; 0x31fc
 15003a4:	e3402151 	movt	r2, #337	; 0x151
 15003a8:	e30312fc 	movw	r1, #13052	; 0x32fc
 15003ac:	e3401151 	movt	r1, #337	; 0x151
 15003b0:	e0621001 	rsb	r1, r2, r1
 15003b4:	e1a00004 	mov	r0, r4
 15003b8:	eb00014b 	bl	15008ec <start_program>
 15003bc:	e3020fbc 	movw	r0, #12220	; 0x2fbc
 15003c0:	e3400150 	movt	r0, #336	; 0x150
 15003c4:	eb000912 	bl	1502814 <prints>
 15003c8:	e3035558 	movw	r5, #13656	; 0x3558
 15003cc:	e3405151 	movt	r5, #337	; 0x151
 15003d0:	e3032508 	movw	r2, #13576	; 0x3508
 15003d4:	e3402151 	movt	r2, #337	; 0x151
 15003d8:	e3033518 	movw	r3, #13592	; 0x3518
 15003dc:	e3403151 	movt	r3, #337	; 0x151
 15003e0:	e0623003 	rsb	r3, r2, r3
 15003e4:	e58d4000 	str	r4, [sp]
 15003e8:	e58d3004 	str	r3, [sp, #4]
 15003ec:	e1a01005 	mov	r1, r5
 15003f0:	e1a03004 	mov	r3, r4
 15003f4:	e3a00001 	mov	r0, #1
 15003f8:	eb000631 	bl	1501cc4 <obfuse_getset>
 15003fc:	e1a06000 	mov	r6, r0
 1500400:	eb0008dd 	bl	150277c <sync>
 1500404:	e3560000 	cmp	r6, #0
 1500408:	11a04006 	movne	r4, r6
 150040c:	0a000002 	beq	150041c <do_program+0xb8>
 1500410:	e1a00004 	mov	r0, r4
 1500414:	e28dd00c 	add	sp, sp, #12
 1500418:	e8bd80f0 	pop	{r4, r5, r6, r7, pc}
 150041c:	e30366f0 	movw	r6, #14064	; 0x36f0
 1500420:	e3406151 	movt	r6, #337	; 0x151
 1500424:	e3020fc8 	movw	r0, #12232	; 0x2fc8
 1500428:	e3400150 	movt	r0, #336	; 0x150
 150042c:	eb0008f8 	bl	1502814 <prints>
 1500430:	e3033568 	movw	r3, #13672	; 0x3568
 1500434:	e3403151 	movt	r3, #337	; 0x151
 1500438:	e0653003 	rsb	r3, r5, r3
 150043c:	e1a01005 	mov	r1, r5
 1500440:	e58d3004 	str	r3, [sp, #4]
 1500444:	e303251c 	movw	r2, #13596	; 0x351c
 1500448:	e3402151 	movt	r2, #337	; 0x151
 150044c:	e3033544 	movw	r3, #13636	; 0x3544
 1500450:	e3403151 	movt	r3, #337	; 0x151
 1500454:	e3a00002 	mov	r0, #2
 1500458:	e58d3000 	str	r3, [sp]
 150045c:	e5c64000 	strb	r4, [r6]
 1500460:	e3033530 	movw	r3, #13616	; 0x3530
 1500464:	e3403151 	movt	r3, #337	; 0x151
 1500468:	eb000615 	bl	1501cc4 <obfuse_getset>
 150046c:	e1a05000 	mov	r5, r0
 1500470:	eb0008c1 	bl	150277c <sync>
 1500474:	e3550000 	cmp	r5, #0
 1500478:	11a04005 	movne	r4, r5
 150047c:	1affffe3 	bne	1500410 <do_program+0xac>
 1500480:	e303356c 	movw	r3, #13676	; 0x356c
 1500484:	e3403151 	movt	r3, #337	; 0x151
 1500488:	e303756c 	movw	r7, #13676	; 0x356c
 150048c:	e3407151 	movt	r7, #337	; 0x151
 1500490:	e0675003 	rsb	r5, r7, r3
 1500494:	e3020fd4 	movw	r0, #12244	; 0x2fd4
 1500498:	e3400150 	movt	r0, #336	; 0x150
 150049c:	eb0008dc 	bl	1502814 <prints>
 15004a0:	eb00018f 	bl	1500ae4 <do_burn_mp_efuse_bits>
 15004a4:	eb0008b4 	bl	150277c <sync>
 15004a8:	e3550000 	cmp	r5, #0
 15004ac:	0a00001c 	beq	1500524 <do_program+0x1c0>
 15004b0:	e3550010 	cmp	r5, #16
 15004b4:	8a000016 	bhi	1500514 <do_program+0x1b0>
 15004b8:	e3030000 	movw	r0, #12288	; 0x3000
 15004bc:	e3400150 	movt	r0, #336	; 0x150
 15004c0:	eb0008d3 	bl	1502814 <prints>
 15004c4:	e1a01007 	mov	r1, r7
 15004c8:	e88d0030 	stm	sp, {r4, r5}
 15004cc:	e1a03004 	mov	r3, r4
 15004d0:	e1a02004 	mov	r2, r4
 15004d4:	e1a00004 	mov	r0, r4
 15004d8:	e5c64000 	strb	r4, [r6]
 15004dc:	eb0005f8 	bl	1501cc4 <obfuse_getset>
 15004e0:	e1a05000 	mov	r5, r0
 15004e4:	eb0008a4 	bl	150277c <sync>
 15004e8:	e3550000 	cmp	r5, #0
 15004ec:	0affffc7 	beq	1500410 <do_program+0xac>
 15004f0:	eb0008a1 	bl	150277c <sync>
 15004f4:	eaffffc5 	b	1500410 <do_program+0xac>
 15004f8:	e3a04000 	mov	r4, #0
 15004fc:	e3020fac 	movw	r0, #12204	; 0x2fac
 1500500:	e3400150 	movt	r0, #336	; 0x150
 1500504:	eb0008c2 	bl	1502814 <prints>
 1500508:	e1a00004 	mov	r0, r4
 150050c:	e28dd00c 	add	sp, sp, #12
 1500510:	e8bd80f0 	pop	{r4, r5, r6, r7, pc}
 1500514:	e3020fe0 	movw	r0, #12256	; 0x2fe0
 1500518:	e3400150 	movt	r0, #336	; 0x150
 150051c:	eb0008bc 	bl	1502814 <prints>
 1500520:	eaffffba 	b	1500410 <do_program+0xac>
 1500524:	e3030010 	movw	r0, #12304	; 0x3010
 1500528:	e3400150 	movt	r0, #336	; 0x150
 150052c:	eb0008b8 	bl	1502814 <prints>
 1500530:	eaffffb6 	b	1500410 <do_program+0xac>

01500534 <efusemain>:
 1500534:	e3032b38 	movw	r2, #15160	; 0x3b38
 1500538:	e3402151 	movt	r2, #337	; 0x151
 150053c:	e30336f0 	movw	r3, #14064	; 0x36f0
 1500540:	e3403151 	movt	r3, #337	; 0x151
 1500544:	e92d4010 	push	{r4, lr}
 1500548:	e3a04000 	mov	r4, #0
 150054c:	e5824000 	str	r4, [r2]
 1500550:	e5c34000 	strb	r4, [r3]
 1500554:	eb00088f 	bl	1502798 <init_uart>
 1500558:	e1a00004 	mov	r0, r4
 150055c:	eb0008a2 	bl	15027ec <set_focus_uart>
 1500560:	ebffff7f 	bl	1500364 <do_program>
 1500564:	e1500004 	cmp	r0, r4
 1500568:	03030020 	movweq	r0, #12320	; 0x3020
 150056c:	13030044 	movwne	r0, #12356	; 0x3044
 1500570:	03400150 	movteq	r0, #336	; 0x150
 1500574:	13400150 	movtne	r0, #336	; 0x150
 1500578:	eb0008a5 	bl	1502814 <prints>
 150057c:	e3a00000 	mov	r0, #0
 1500580:	e8bd8010 	pop	{r4, pc}

01500584 <e_buffer>:
 1500584:	e92d4ff0 	push	{r4, r5, r6, r7, r8, r9, sl, fp, lr}
 1500588:	e1a0b003 	mov	fp, r3
 150058c:	e24dd054 	sub	sp, sp, #84	; 0x54
 1500590:	e59d7080 	ldr	r7, [sp, #128]	; 0x80
 1500594:	e88d0003 	stm	sp, {r0, r1}
 1500598:	e59da078 	ldr	sl, [sp, #120]	; 0x78
 150059c:	e0020793 	mul	r2, r3, r7
 15005a0:	e3520040 	cmp	r2, #64	; 0x40
 15005a4:	83a07040 	movhi	r7, #64	; 0x40
 15005a8:	8737f317 	udivhi	r7, r7, r3
 15005ac:	e3570000 	cmp	r7, #0
 15005b0:	03a07010 	moveq	r7, #16
 15005b4:	0737f317 	udiveq	r7, r7, r3
 15005b8:	e35a0000 	cmp	sl, #0
 15005bc:	11a0908b 	lslne	r9, fp, #1
 15005c0:	0a00005c 	beq	1500738 <e_buffer+0x1b4>
 15005c4:	e3030068 	movw	r0, #12392	; 0x3068
 15005c8:	e3400150 	movt	r0, #336	; 0x150
 15005cc:	e59d1000 	ldr	r1, [sp]
 15005d0:	ebffff40 	bl	15002d8 <printf>
 15005d4:	e157000a 	cmp	r7, sl
 15005d8:	21a0700a 	movcs	r7, sl
 15005dc:	e59d3000 	ldr	r3, [sp]
 15005e0:	e3570000 	cmp	r7, #0
 15005e4:	e283831a 	add	r8, r3, #1744830464	; 0x68000000
 15005e8:	01a04007 	moveq	r4, r7
 15005ec:	02488a17 	subeq	r8, r8, #94208	; 0x17000
 15005f0:	01a0e007 	moveq	lr, r7
 15005f4:	0a00003c 	beq	15006ec <e_buffer+0x168>
 15005f8:	e59d6004 	ldr	r6, [sp, #4]
 15005fc:	e2488a17 	sub	r8, r8, #94208	; 0x17000
 1500600:	e3a05000 	mov	r5, #0
 1500604:	e28d400c 	add	r4, sp, #12
 1500608:	ea000004 	b	1500620 <e_buffer+0x9c>
 150060c:	e2855001 	add	r5, r5, #1
 1500610:	ebffff30 	bl	15002d8 <printf>
 1500614:	e1550007 	cmp	r5, r7
 1500618:	e086600b 	add	r6, r6, fp
 150061c:	0a000017 	beq	1500680 <e_buffer+0xfc>
 1500620:	e35b0004 	cmp	fp, #4
 1500624:	05962000 	ldreq	r2, [r6]
 1500628:	07842105 	streq	r2, [r4, r5, lsl #2]
 150062c:	0a000007 	beq	1500650 <e_buffer+0xcc>
 1500630:	e35b0002 	cmp	fp, #2
 1500634:	01a03085 	lsleq	r3, r5, #1
 1500638:	01d620b0 	ldrheq	r2, [r6]
 150063c:	15d62000 	ldrbne	r2, [r6]
 1500640:	06ff2072 	uxtheq	r2, r2
 1500644:	018420b3 	strheq	r2, [r4, r3]
 1500648:	16ef2072 	uxtbne	r2, r2
 150064c:	17c42005 	strbne	r2, [r4, r5]
 1500650:	e3580b01 	cmp	r8, #1024	; 0x400
 1500654:	e3030074 	movw	r0, #12404	; 0x3074
 1500658:	e3400150 	movt	r0, #336	; 0x150
 150065c:	e1a01009 	mov	r1, r9
 1500660:	2affffe9 	bcs	150060c <e_buffer+0x88>
 1500664:	e303007c 	movw	r0, #12412	; 0x307c
 1500668:	e3400150 	movt	r0, #336	; 0x150
 150066c:	e2855001 	add	r5, r5, #1
 1500670:	ebffff18 	bl	15002d8 <printf>
 1500674:	e1550007 	cmp	r5, r7
 1500678:	e086600b 	add	r6, r6, fp
 150067c:	1affffe7 	bne	1500620 <e_buffer+0x9c>
 1500680:	e00e079b 	mul	lr, fp, r7
 1500684:	e59d3004 	ldr	r3, [sp, #4]
 1500688:	e35e0000 	cmp	lr, #0
 150068c:	01a0400e 	moveq	r4, lr
 1500690:	e083300e 	add	r3, r3, lr
 1500694:	01a0e004 	moveq	lr, r4
 1500698:	e58d3004 	str	r3, [sp, #4]
 150069c:	0a000012 	beq	15006ec <e_buffer+0x168>
 15006a0:	e24e2001 	sub	r2, lr, #1
 15006a4:	e302ce5c 	movw	ip, #11868	; 0x2e5c
 15006a8:	e340c150 	movt	ip, #336	; 0x150
 15006ac:	e0844002 	add	r4, r4, r2
 15006b0:	e3a0502e 	mov	r5, #46	; 0x2e
 15006b4:	e28d200b 	add	r2, sp, #11
 15006b8:	ea000003 	b	15006cc <e_buffer+0x148>
 15006bc:	e3130080 	tst	r3, #128	; 0x80
 15006c0:	1a000005 	bne	15006dc <e_buffer+0x158>
 15006c4:	e1520004 	cmp	r2, r4
 15006c8:	0a000006 	beq	15006e8 <e_buffer+0x164>
 15006cc:	e5f23001 	ldrb	r3, [r2, #1]!
 15006d0:	e7dc1003 	ldrb	r1, [ip, r3]
 15006d4:	e3110097 	tst	r1, #151	; 0x97
 15006d8:	1afffff7 	bne	15006bc <e_buffer+0x138>
 15006dc:	e1520004 	cmp	r2, r4
 15006e0:	e5c25000 	strb	r5, [r2]
 15006e4:	1afffff8 	bne	15006cc <e_buffer+0x148>
 15006e8:	e1a0400e 	mov	r4, lr
 15006ec:	e28d3050 	add	r3, sp, #80	; 0x50
 15006f0:	e3580b01 	cmp	r8, #1024	; 0x400
 15006f4:	e083e00e 	add	lr, r3, lr
 15006f8:	e3a02000 	mov	r2, #0
 15006fc:	e54e2044 	strb	r2, [lr, #-68]	; 0x44
 1500700:	3a00000f 	bcc	1500744 <e_buffer+0x1c0>
 1500704:	e3030080 	movw	r0, #12416	; 0x3080
 1500708:	e3400150 	movt	r0, #336	; 0x150
 150070c:	e28d100c 	add	r1, sp, #12
 1500710:	ebfffef0 	bl	15002d8 <printf>
 1500714:	ebfffeed 	bl	15002d0 <ctrlc>
 1500718:	e59d3000 	ldr	r3, [sp]
 150071c:	e3500000 	cmp	r0, #0
 1500720:	e067a00a 	rsb	sl, r7, sl
 1500724:	e0833004 	add	r3, r3, r4
 1500728:	e58d3000 	str	r3, [sp]
 150072c:	1a000008 	bne	1500754 <e_buffer+0x1d0>
 1500730:	e35a0000 	cmp	sl, #0
 1500734:	1affffa2 	bne	15005c4 <e_buffer+0x40>
 1500738:	e3a00000 	mov	r0, #0
 150073c:	e28dd054 	add	sp, sp, #84	; 0x54
 1500740:	e8bd8ff0 	pop	{r4, r5, r6, r7, r8, r9, sl, fp, pc}
 1500744:	e303008c 	movw	r0, #12428	; 0x308c
 1500748:	e3400150 	movt	r0, #336	; 0x150
 150074c:	ebfffee1 	bl	15002d8 <printf>
 1500750:	eaffffef 	b	1500714 <e_buffer+0x190>
 1500754:	e3e00000 	mvn	r0, #0
 1500758:	e28dd054 	add	sp, sp, #84	; 0x54
 150075c:	e8bd8ff0 	pop	{r4, r5, r6, r7, r8, r9, sl, fp, pc}

01500760 <read_efuse>:
 1500760:	e92d41f0 	push	{r4, r5, r6, r7, r8, lr}
 1500764:	e3032570 	movw	r2, #13680	; 0x3570
 1500768:	e3402151 	movt	r2, #337	; 0x151
 150076c:	e59f4094 	ldr	r4, [pc, #148]	; 1500808 <read_efuse+0xa8>
 1500770:	e3a01010 	mov	r1, #16
 1500774:	e2820010 	add	r0, r2, #16
 1500778:	e3a03000 	mov	r3, #0
 150077c:	e0847001 	add	r7, r4, r1
 1500780:	e2445010 	sub	r5, r4, #16
 1500784:	eb000317 	bl	15013e8 <AES_ECB_encrypt>
 1500788:	e1a01000 	mov	r1, r0
 150078c:	e3030094 	movw	r0, #12436	; 0x3094
 1500790:	e3400150 	movt	r0, #336	; 0x150
 1500794:	e1a06005 	mov	r6, r5
 1500798:	ebfffece 	bl	15002d8 <printf>
 150079c:	e5f41001 	ldrb	r1, [r4, #1]!
 15007a0:	e303009c 	movw	r0, #12444	; 0x309c
 15007a4:	e3400150 	movt	r0, #336	; 0x150
 15007a8:	e5f62001 	ldrb	r2, [r6, #1]!
 15007ac:	ebfffec9 	bl	15002d8 <printf>
 15007b0:	e1540007 	cmp	r4, r7
 15007b4:	1afffff8 	bne	150079c <read_efuse+0x3c>
 15007b8:	e59f204c 	ldr	r2, [pc, #76]	; 150080c <read_efuse+0xac>
 15007bc:	e3a01010 	mov	r1, #16
 15007c0:	e3a03000 	mov	r3, #0
 15007c4:	e2420020 	sub	r0, r2, #32
 15007c8:	e2424001 	sub	r4, r2, #1
 15007cc:	eb0002e0 	bl	1501354 <AES_ECB_decrypt>
 15007d0:	e1a01000 	mov	r1, r0
 15007d4:	e3030094 	movw	r0, #12436	; 0x3094
 15007d8:	e3400150 	movt	r0, #336	; 0x150
 15007dc:	e2446010 	sub	r6, r4, #16
 15007e0:	ebfffebc 	bl	15002d8 <printf>
 15007e4:	e5f51001 	ldrb	r1, [r5, #1]!
 15007e8:	e30300b8 	movw	r0, #12472	; 0x30b8
 15007ec:	e3400150 	movt	r0, #336	; 0x150
 15007f0:	e5f42001 	ldrb	r2, [r4, #1]!
 15007f4:	ebfffeb7 	bl	15002d8 <printf>
 15007f8:	e1550006 	cmp	r5, r6
 15007fc:	1afffff8 	bne	15007e4 <read_efuse+0x84>
 1500800:	e3a00000 	mov	r0, #0
 1500804:	e8bd81f0 	pop	{r4, r5, r6, r7, r8, pc}
 1500808:	0151357f 	cmpeq	r1, pc, ror r5
 150080c:	01513590 			; <UNDEFINED> instruction: 0x01513590

01500810 <OTP_JUDGE_BIT>:
 1500810:	e2002007 	and	r2, r0, #7
 1500814:	e1a001a0 	lsr	r0, r0, #3
 1500818:	e3c03003 	bic	r3, r0, #3
 150081c:	e2000003 	and	r0, r0, #3
 1500820:	e2833326 	add	r3, r3, #-1744830464	; 0x98000000
 1500824:	e2833a17 	add	r3, r3, #94208	; 0x17000
 1500828:	e1a00180 	lsl	r0, r0, #3
 150082c:	e5933000 	ldr	r3, [r3]
 1500830:	e1a00033 	lsr	r0, r3, r0
 1500834:	e1a00230 	lsr	r0, r0, r2
 1500838:	e2000001 	and	r0, r0, #1
 150083c:	e12fff1e 	bx	lr

01500840 <do_burn_efuse_getmptest2>:
 1500840:	e92d4010 	push	{r4, lr}
 1500844:	e3000e0a 	movw	r0, #3594	; 0xe0a
 1500848:	ebfffff0 	bl	1500810 <OTP_JUDGE_BIT>
 150084c:	e3500000 	cmp	r0, #0
 1500850:	130300d8 	movwne	r0, #12504	; 0x30d8
 1500854:	030300d4 	movweq	r0, #12500	; 0x30d4
 1500858:	13400150 	movtne	r0, #336	; 0x150
 150085c:	03400150 	movteq	r0, #336	; 0x150
 1500860:	ebfffe9c 	bl	15002d8 <printf>
 1500864:	e3a00000 	mov	r0, #0
 1500868:	e8bd8010 	pop	{r4, pc}

0150086c <OTP_Program_Start>:
 150086c:	e2002007 	and	r2, r0, #7
 1500870:	e3a03a07 	mov	r3, #28672	; 0x7000
 1500874:	e3493801 	movt	r3, #38913	; 0x9801
 1500878:	e7e901d0 	ubfx	r0, r0, #3, #10
 150087c:	e1a01003 	mov	r1, r3
 1500880:	e1800502 	orr	r0, r0, r2, lsl #10
 1500884:	e3800503 	orr	r0, r0, #12582912	; 0xc00000
 1500888:	e3802a02 	orr	r2, r0, #8192	; 0x2000
 150088c:	e5832400 	str	r2, [r3, #1024]	; 0x400
 1500890:	e5912404 	ldr	r2, [r1, #1028]	; 0x404
 1500894:	e3a03a07 	mov	r3, #28672	; 0x7000
 1500898:	e3493801 	movt	r3, #38913	; 0x9801
 150089c:	e3120801 	tst	r2, #65536	; 0x10000
 15008a0:	0afffffa 	beq	1500890 <OTP_Program_Start+0x24>
 15008a4:	e3802a0e 	orr	r2, r0, #57344	; 0xe000
 15008a8:	e3a00005 	mov	r0, #5
 15008ac:	e92d4010 	push	{r4, lr}
 15008b0:	e5832400 	str	r2, [r3, #1024]	; 0x400
 15008b4:	eb00079a 	bl	1502724 <udelay>
 15008b8:	e3a00000 	mov	r0, #0
 15008bc:	e8bd8010 	pop	{r4, pc}

015008c0 <OTP_Program_End>:
 15008c0:	e3a03a07 	mov	r3, #28672	; 0x7000
 15008c4:	e3493801 	movt	r3, #38913	; 0x9801
 15008c8:	e92d4010 	push	{r4, lr}
 15008cc:	e5931400 	ldr	r1, [r3, #1024]	; 0x400
 15008d0:	e3a00005 	mov	r0, #5
 15008d4:	e3a02a0a 	mov	r2, #40960	; 0xa000
 15008d8:	e3402080 	movt	r2, #128	; 0x80
 15008dc:	e5832400 	str	r2, [r3, #1024]	; 0x400
 15008e0:	eb00078f 	bl	1502724 <udelay>
 15008e4:	e3a00000 	mov	r0, #0
 15008e8:	e8bd8010 	pop	{r4, pc}

015008ec <start_program>:
 15008ec:	e92d41f0 	push	{r4, r5, r6, r7, r8, lr}
 15008f0:	e1a05001 	mov	r5, r1
 15008f4:	e1a06000 	mov	r6, r0
 15008f8:	e3a00efe 	mov	r0, #4064	; 0xfe0
 15008fc:	e1a07002 	mov	r7, r2
 1500900:	ebffffc2 	bl	1500810 <OTP_JUDGE_BIT>
 1500904:	e1b05185 	lsls	r5, r5, #3
 1500908:	13a03000 	movne	r3, #0
 150090c:	11a04003 	movne	r4, r3
 1500910:	1a000004 	bne	1500928 <start_program+0x3c>
 1500914:	ea00000e 	b	1500954 <start_program+0x68>
 1500918:	e2844001 	add	r4, r4, #1
 150091c:	e1540005 	cmp	r4, r5
 1500920:	e1a031a4 	lsr	r3, r4, #3
 1500924:	0a00000a 	beq	1500954 <start_program+0x68>
 1500928:	e7d73003 	ldrb	r3, [r7, r3]
 150092c:	e2040007 	and	r0, r4, #7
 1500930:	e1a03053 	asr	r3, r3, r0
 1500934:	e3130001 	tst	r3, #1
 1500938:	0afffff6 	beq	1500918 <start_program+0x2c>
 150093c:	e0840006 	add	r0, r4, r6
 1500940:	e2844001 	add	r4, r4, #1
 1500944:	ebffffc8 	bl	150086c <OTP_Program_Start>
 1500948:	e1540005 	cmp	r4, r5
 150094c:	e1a031a4 	lsr	r3, r4, #3
 1500950:	1afffff4 	bne	1500928 <start_program+0x3c>
 1500954:	e8bd41f0 	pop	{r4, r5, r6, r7, r8, lr}
 1500958:	eaffffd8 	b	15008c0 <OTP_Program_End>

0150095c <do_burn_efuse_rsa>:
 150095c:	e92d4010 	push	{r4, lr}
 1500960:	e59f2010 	ldr	r2, [pc, #16]	; 1500978 <do_burn_efuse_rsa+0x1c>
 1500964:	e3a01c01 	mov	r1, #256	; 0x100
 1500968:	e3a00000 	mov	r0, #0
 150096c:	ebffffde 	bl	15008ec <start_program>
 1500970:	e3a00000 	mov	r0, #0
 1500974:	e8bd8010 	pop	{r4, pc}
 1500978:	015135a0 	cmpeq	r1, r0, lsr #11

0150097c <burn_id_test>:
 150097c:	e92d4010 	push	{r4, lr}
 1500980:	e300cff8 	movw	ip, #4088	; 0xff8
 1500984:	e240ea01 	sub	lr, r0, #4096	; 0x1000
 1500988:	e15e000c 	cmp	lr, ip
 150098c:	8a000004 	bhi	15009a4 <burn_id_test+0x28>
 1500990:	e0803001 	add	r3, r0, r1
 1500994:	e301cff8 	movw	ip, #8184	; 0x1ff8
 1500998:	e153000c 	cmp	r3, ip
 150099c:	e1a04001 	mov	r4, r1
 15009a0:	9a000001 	bls	15009ac <burn_id_test+0x30>
 15009a4:	e3a00001 	mov	r0, #1
 15009a8:	e8bd8010 	pop	{r4, pc}
 15009ac:	ebffffce 	bl	15008ec <start_program>
 15009b0:	e3a00000 	mov	r0, #0
 15009b4:	e8bd8010 	pop	{r4, pc}

015009b8 <do_burn_efuse_aes>:
 15009b8:	e3500001 	cmp	r0, #1
 15009bc:	e92d4010 	push	{r4, lr}
 15009c0:	0a00000e 	beq	1500a00 <do_burn_efuse_aes+0x48>
 15009c4:	3a000007 	bcc	15009e8 <do_burn_efuse_aes+0x30>
 15009c8:	e3500002 	cmp	r0, #2
 15009cc:	1a000003 	bne	15009e0 <do_burn_efuse_aes+0x28>
 15009d0:	e59f2040 	ldr	r2, [pc, #64]	; 1500a18 <do_burn_efuse_aes+0x60>
 15009d4:	e3a01010 	mov	r1, #16
 15009d8:	e3a00c0a 	mov	r0, #2560	; 0xa00
 15009dc:	ebffffc2 	bl	15008ec <start_program>
 15009e0:	e3a00000 	mov	r0, #0
 15009e4:	e8bd8010 	pop	{r4, pc}
 15009e8:	e59f202c 	ldr	r2, [pc, #44]	; 1500a1c <do_burn_efuse_aes+0x64>
 15009ec:	e3a01010 	mov	r1, #16
 15009f0:	e3a00b02 	mov	r0, #2048	; 0x800
 15009f4:	ebffffbc 	bl	15008ec <start_program>
 15009f8:	e3a00000 	mov	r0, #0
 15009fc:	e8bd8010 	pop	{r4, pc}
 1500a00:	e59f2018 	ldr	r2, [pc, #24]	; 1500a20 <do_burn_efuse_aes+0x68>
 1500a04:	e3a01010 	mov	r1, #16
 1500a08:	e3a00c09 	mov	r0, #2304	; 0x900
 1500a0c:	ebffffb6 	bl	15008ec <start_program>
 1500a10:	e3a00000 	mov	r0, #0
 1500a14:	e8bd8010 	pop	{r4, pc}
 1500a18:	015136c0 	cmpeq	r1, r0, asr #13
 1500a1c:	015136a0 	cmpeq	r1, r0, lsr #13
 1500a20:	015136b0 	ldrheq	r3, [r1, #-96]	; 0xffffffa0

01500a24 <do_burn_efuse_deviceID>:
 1500a24:	e92d4010 	push	{r4, lr}
 1500a28:	e59f2010 	ldr	r2, [pc, #16]	; 1500a40 <do_burn_efuse_deviceID+0x1c>
 1500a2c:	e3a01010 	mov	r1, #16
 1500a30:	e3a00ed2 	mov	r0, #3360	; 0xd20
 1500a34:	ebffffac 	bl	15008ec <start_program>
 1500a38:	e3a00000 	mov	r0, #0
 1500a3c:	e8bd8010 	pop	{r4, pc}
 1500a40:	015136d0 	ldrsbeq	r3, [r1, #-96]	; 0xffffffa0

01500a44 <do_burn_efuse_rsa_pgm_dis>:
 1500a44:	e92d4010 	push	{r4, lr}
 1500a48:	e3a00efe 	mov	r0, #4064	; 0xfe0
 1500a4c:	ebffff6f 	bl	1500810 <OTP_JUDGE_BIT>
 1500a50:	e3000da4 	movw	r0, #3492	; 0xda4
 1500a54:	ebffff84 	bl	150086c <OTP_Program_Start>
 1500a58:	ebffff98 	bl	15008c0 <OTP_Program_End>
 1500a5c:	e3a00000 	mov	r0, #0
 1500a60:	e8bd8010 	pop	{r4, pc}

01500a64 <do_burn_efuse_secure_dbg>:
 1500a64:	e92d4010 	push	{r4, lr}
 1500a68:	e3a00efe 	mov	r0, #4064	; 0xfe0
 1500a6c:	ebffff67 	bl	1500810 <OTP_JUDGE_BIT>
 1500a70:	e3000db1 	movw	r0, #3505	; 0xdb1
 1500a74:	ebffff7c 	bl	150086c <OTP_Program_Start>
 1500a78:	ebffff90 	bl	15008c0 <OTP_Program_End>
 1500a7c:	e3a00000 	mov	r0, #0
 1500a80:	e8bd8010 	pop	{r4, pc}

01500a84 <do_burn_efuse_normal_dbg>:
 1500a84:	e92d4010 	push	{r4, lr}
 1500a88:	e3a00efe 	mov	r0, #4064	; 0xfe0
 1500a8c:	ebffff5f 	bl	1500810 <OTP_JUDGE_BIT>
 1500a90:	e3000db2 	movw	r0, #3506	; 0xdb2
 1500a94:	ebffff74 	bl	150086c <OTP_Program_Start>
 1500a98:	ebffff88 	bl	15008c0 <OTP_Program_End>
 1500a9c:	e3a00000 	mov	r0, #0
 1500aa0:	e8bd8010 	pop	{r4, pc}

01500aa4 <do_burn_efuse_secureboot>:
 1500aa4:	e92d4010 	push	{r4, lr}
 1500aa8:	e3a00efe 	mov	r0, #4064	; 0xfe0
 1500aac:	ebffff57 	bl	1500810 <OTP_JUDGE_BIT>
 1500ab0:	e3000da6 	movw	r0, #3494	; 0xda6
 1500ab4:	ebffff6c 	bl	150086c <OTP_Program_Start>
 1500ab8:	ebffff80 	bl	15008c0 <OTP_Program_End>
 1500abc:	e3a00000 	mov	r0, #0
 1500ac0:	e8bd8010 	pop	{r4, pc}

01500ac4 <do_burn_efuse_bootenc>:
 1500ac4:	e92d4010 	push	{r4, lr}
 1500ac8:	e3a00efe 	mov	r0, #4064	; 0xfe0
 1500acc:	ebffff4f 	bl	1500810 <OTP_JUDGE_BIT>
 1500ad0:	e3000dbb 	movw	r0, #3515	; 0xdbb
 1500ad4:	ebffff64 	bl	150086c <OTP_Program_Start>
 1500ad8:	ebffff78 	bl	15008c0 <OTP_Program_End>
 1500adc:	e3a00000 	mov	r0, #0
 1500ae0:	e8bd8010 	pop	{r4, pc}

01500ae4 <do_burn_mp_efuse_bits>:
 1500ae4:	e92d4010 	push	{r4, lr}
 1500ae8:	ebffffd5 	bl	1500a44 <do_burn_efuse_rsa_pgm_dis>
 1500aec:	ebfffff4 	bl	1500ac4 <do_burn_efuse_bootenc>
 1500af0:	ebffffeb 	bl	1500aa4 <do_burn_efuse_secureboot>
 1500af4:	eb000720 	bl	150277c <sync>
 1500af8:	eb000612 	bl	1502348 <R2>
 1500afc:	e8bd4010 	pop	{r4, lr}
 1500b00:	ea00071d 	b	150277c <sync>

01500b04 <do_burn_efuse_loadsos>:
 1500b04:	e92d4010 	push	{r4, lr}
 1500b08:	e3a00efe 	mov	r0, #4064	; 0xfe0
 1500b0c:	ebffff3f 	bl	1500810 <OTP_JUDGE_BIT>
 1500b10:	e3000e0e 	movw	r0, #3598	; 0xe0e
 1500b14:	ebffff54 	bl	150086c <OTP_Program_Start>
 1500b18:	ebffff68 	bl	15008c0 <OTP_Program_End>
 1500b1c:	e3a00000 	mov	r0, #0
 1500b20:	e8bd8010 	pop	{r4, pc}

01500b24 <do_burn_efuse_disonecore>:
 1500b24:	e92d4010 	push	{r4, lr}
 1500b28:	e3a00efe 	mov	r0, #4064	; 0xfe0
 1500b2c:	ebffff37 	bl	1500810 <OTP_JUDGE_BIT>
 1500b30:	e3000e0f 	movw	r0, #3599	; 0xe0f
 1500b34:	ebffff4c 	bl	150086c <OTP_Program_Start>
 1500b38:	ebffff60 	bl	15008c0 <OTP_Program_End>
 1500b3c:	e3a00000 	mov	r0, #0
 1500b40:	e8bd8010 	pop	{r4, pc}

01500b44 <do_burn_efuse_usb2sram>:
 1500b44:	e92d4010 	push	{r4, lr}
 1500b48:	e3a00efe 	mov	r0, #4064	; 0xfe0
 1500b4c:	ebffff2f 	bl	1500810 <OTP_JUDGE_BIT>
 1500b50:	e3000dc2 	movw	r0, #3522	; 0xdc2
 1500b54:	ebffff44 	bl	150086c <OTP_Program_Start>
 1500b58:	ebffff58 	bl	15008c0 <OTP_Program_End>
 1500b5c:	e3a00000 	mov	r0, #0
 1500b60:	e8bd8010 	pop	{r4, pc}

01500b64 <do_burn_efuse_mptest2>:
 1500b64:	e92d4010 	push	{r4, lr}
 1500b68:	e3a00efe 	mov	r0, #4064	; 0xfe0
 1500b6c:	ebffff27 	bl	1500810 <OTP_JUDGE_BIT>
 1500b70:	e3000e0a 	movw	r0, #3594	; 0xe0a
 1500b74:	ebffff3c 	bl	150086c <OTP_Program_Start>
 1500b78:	ebffff50 	bl	15008c0 <OTP_Program_End>
 1500b7c:	e3a00000 	mov	r0, #0
 1500b80:	e8bd8010 	pop	{r4, pc}

01500b84 <do_burn_efuse_keysel>:
 1500b84:	e2403001 	sub	r3, r0, #1
 1500b88:	e3530002 	cmp	r3, #2
 1500b8c:	e92d4010 	push	{r4, lr}
 1500b90:	e1a04000 	mov	r4, r0
 1500b94:	8a000008 	bhi	1500bbc <do_burn_efuse_keysel+0x38>
 1500b98:	e3a00efe 	mov	r0, #4064	; 0xfe0
 1500b9c:	ebffff1b 	bl	1500810 <OTP_JUDGE_BIT>
 1500ba0:	e3140001 	tst	r4, #1
 1500ba4:	1a00000c 	bne	1500bdc <do_burn_efuse_keysel+0x58>
 1500ba8:	e3140002 	tst	r4, #2
 1500bac:	1a000007 	bne	1500bd0 <do_burn_efuse_keysel+0x4c>
 1500bb0:	ebffff42 	bl	15008c0 <OTP_Program_End>
 1500bb4:	e3a00000 	mov	r0, #0
 1500bb8:	e8bd8010 	pop	{r4, pc}
 1500bbc:	e30300e0 	movw	r0, #12512	; 0x30e0
 1500bc0:	e3400150 	movt	r0, #336	; 0x150
 1500bc4:	ebfffdc3 	bl	15002d8 <printf>
 1500bc8:	e3a00001 	mov	r0, #1
 1500bcc:	e8bd8010 	pop	{r4, pc}
 1500bd0:	e3000da1 	movw	r0, #3489	; 0xda1
 1500bd4:	ebffff24 	bl	150086c <OTP_Program_Start>
 1500bd8:	eafffff4 	b	1500bb0 <do_burn_efuse_keysel+0x2c>
 1500bdc:	e3a00eda 	mov	r0, #3488	; 0xda0
 1500be0:	ebffff21 	bl	150086c <OTP_Program_Start>
 1500be4:	e3140002 	tst	r4, #2
 1500be8:	0afffff0 	beq	1500bb0 <do_burn_efuse_keysel+0x2c>
 1500bec:	eafffff7 	b	1500bd0 <do_burn_efuse_keysel+0x4c>

01500bf0 <do_burn_efuse_hwchk>:
 1500bf0:	e2403001 	sub	r3, r0, #1
 1500bf4:	e3530002 	cmp	r3, #2
 1500bf8:	e92d4010 	push	{r4, lr}
 1500bfc:	e1a04000 	mov	r4, r0
 1500c00:	8a000008 	bhi	1500c28 <do_burn_efuse_hwchk+0x38>
 1500c04:	e3a00efe 	mov	r0, #4064	; 0xfe0
 1500c08:	ebffff00 	bl	1500810 <OTP_JUDGE_BIT>
 1500c0c:	e3140001 	tst	r4, #1
 1500c10:	1a00000c 	bne	1500c48 <do_burn_efuse_hwchk+0x58>
 1500c14:	e3140002 	tst	r4, #2
 1500c18:	1a000007 	bne	1500c3c <do_burn_efuse_hwchk+0x4c>
 1500c1c:	ebffff27 	bl	15008c0 <OTP_Program_End>
 1500c20:	e3a00000 	mov	r0, #0
 1500c24:	e8bd8010 	pop	{r4, pc}
 1500c28:	e30300f8 	movw	r0, #12536	; 0x30f8
 1500c2c:	e3400150 	movt	r0, #336	; 0x150
 1500c30:	ebfffda8 	bl	15002d8 <printf>
 1500c34:	e3a00001 	mov	r0, #1
 1500c38:	e8bd8010 	pop	{r4, pc}
 1500c3c:	e3000e0c 	movw	r0, #3596	; 0xe0c
 1500c40:	ebffff09 	bl	150086c <OTP_Program_Start>
 1500c44:	eafffff4 	b	1500c1c <do_burn_efuse_hwchk+0x2c>
 1500c48:	e3000e0b 	movw	r0, #3595	; 0xe0b
 1500c4c:	ebffff06 	bl	150086c <OTP_Program_Start>
 1500c50:	e3140002 	tst	r4, #2
 1500c54:	0afffff0 	beq	1500c1c <do_burn_efuse_hwchk+0x2c>
 1500c58:	eafffff7 	b	1500c3c <do_burn_efuse_hwchk+0x4c>

01500c5c <do_burn_efuse_all>:
 1500c5c:	e92d4010 	push	{r4, lr}
 1500c60:	e3034570 	movw	r4, #13680	; 0x3570
 1500c64:	e3404151 	movt	r4, #337	; 0x151
 1500c68:	e2842030 	add	r2, r4, #48	; 0x30
 1500c6c:	e3a01c01 	mov	r1, #256	; 0x100
 1500c70:	e3a00000 	mov	r0, #0
 1500c74:	ebffff1c 	bl	15008ec <start_program>
 1500c78:	e2842e13 	add	r2, r4, #304	; 0x130
 1500c7c:	e3a01010 	mov	r1, #16
 1500c80:	e3a00b02 	mov	r0, #2048	; 0x800
 1500c84:	ebffff18 	bl	15008ec <start_program>
 1500c88:	e2842d05 	add	r2, r4, #320	; 0x140
 1500c8c:	e3a01010 	mov	r1, #16
 1500c90:	e3a00c09 	mov	r0, #2304	; 0x900
 1500c94:	ebffff14 	bl	15008ec <start_program>
 1500c98:	e2842e15 	add	r2, r4, #336	; 0x150
 1500c9c:	e3a01010 	mov	r1, #16
 1500ca0:	e3a00c0a 	mov	r0, #2560	; 0xa00
 1500ca4:	ebffff10 	bl	15008ec <start_program>
 1500ca8:	e2842e16 	add	r2, r4, #352	; 0x160
 1500cac:	e3a01010 	mov	r1, #16
 1500cb0:	e3a00ed2 	mov	r0, #3360	; 0xd20
 1500cb4:	ebffff0c 	bl	15008ec <start_program>
 1500cb8:	ebffff79 	bl	1500aa4 <do_burn_efuse_secureboot>
 1500cbc:	ebffff80 	bl	1500ac4 <do_burn_efuse_bootenc>
 1500cc0:	ebffff8f 	bl	1500b04 <do_burn_efuse_loadsos>
 1500cc4:	ebffff96 	bl	1500b24 <do_burn_efuse_disonecore>
 1500cc8:	ebffff9d 	bl	1500b44 <do_burn_efuse_usb2sram>
 1500ccc:	ebffffa4 	bl	1500b64 <do_burn_efuse_mptest2>
 1500cd0:	e3a00001 	mov	r0, #1
 1500cd4:	ebffffaa 	bl	1500b84 <do_burn_efuse_keysel>
 1500cd8:	e3a00002 	mov	r0, #2
 1500cdc:	ebffffa8 	bl	1500b84 <do_burn_efuse_keysel>
 1500ce0:	e3a00001 	mov	r0, #1
 1500ce4:	ebffffc1 	bl	1500bf0 <do_burn_efuse_hwchk>
 1500ce8:	e3a00002 	mov	r0, #2
 1500cec:	ebffffbf 	bl	1500bf0 <do_burn_efuse_hwchk>
 1500cf0:	e3a00000 	mov	r0, #0
 1500cf4:	e8bd8010 	pop	{r4, pc}

01500cf8 <OTP_Get_Word>:
 1500cf8:	e3520000 	cmp	r2, #0
 1500cfc:	e3c00003 	bic	r0, r0, #3
 1500d00:	0a00001a 	beq	1500d70 <OTP_Get_Word+0x78>
 1500d04:	e280033e 	add	r0, r0, #-134217728	; 0xf8000000
 1500d08:	e30fcfff 	movw	ip, #65535	; 0xffff
 1500d0c:	e340c006 	movt	ip, #6
 1500d10:	e52de004 	push	{lr}		; (str lr, [sp, #-4]!)
 1500d14:	e0812102 	add	r2, r1, r2, lsl #2
 1500d18:	e2800a17 	add	r0, r0, #94208	; 0x17000
 1500d1c:	ea000004 	b	1500d34 <OTP_Get_Word+0x3c>
 1500d20:	e5903000 	ldr	r3, [r0]
 1500d24:	e2800004 	add	r0, r0, #4
 1500d28:	e4813004 	str	r3, [r1], #4
 1500d2c:	e1510002 	cmp	r1, r2
 1500d30:	0a00000c 	beq	1500d68 <OTP_Get_Word+0x70>
 1500d34:	e280331a 	add	r3, r0, #1744830464	; 0x68000000
 1500d38:	e153000c 	cmp	r3, ip
 1500d3c:	9afffff7 	bls	1500d20 <OTP_Get_Word+0x28>
 1500d40:	e2803467 	add	r3, r0, #1728053248	; 0x67000000
 1500d44:	e280e20a 	add	lr, r0, #-1610612736	; 0xa0000000
 1500d48:	e283360f 	add	r3, r3, #15728640	; 0xf00000
 1500d4c:	e3530402 	cmp	r3, #33554432	; 0x2000000
 1500d50:	259e3000 	ldrcs	r3, [lr]
 1500d54:	3afffff1 	bcc	1500d20 <OTP_Get_Word+0x28>
 1500d58:	e4813004 	str	r3, [r1], #4
 1500d5c:	e2800004 	add	r0, r0, #4
 1500d60:	e1510002 	cmp	r1, r2
 1500d64:	1afffff2 	bne	1500d34 <OTP_Get_Word+0x3c>
 1500d68:	e3a00000 	mov	r0, #0
 1500d6c:	e49df004 	pop	{pc}		; (ldr pc, [sp], #4)
 1500d70:	e3a00000 	mov	r0, #0
 1500d74:	e12fff1e 	bx	lr

01500d78 <OTP_Get_Byte>:
 1500d78:	e3520000 	cmp	r2, #0
 1500d7c:	e3c00003 	bic	r0, r0, #3
 1500d80:	0a00000f 	beq	1500dc4 <OTP_Get_Byte+0x4c>
 1500d84:	e52de004 	push	{lr}		; (str lr, [sp, #-4]!)
 1500d88:	e081e002 	add	lr, r1, r2
 1500d8c:	e1a031a0 	lsr	r3, r0, #3
 1500d90:	e2800008 	add	r0, r0, #8
 1500d94:	e3c3c003 	bic	ip, r3, #3
 1500d98:	e2033003 	and	r3, r3, #3
 1500d9c:	e28cc326 	add	ip, ip, #-1744830464	; 0x98000000
 1500da0:	e28cca17 	add	ip, ip, #94208	; 0x17000
 1500da4:	e1a03183 	lsl	r3, r3, #3
 1500da8:	e59cc000 	ldr	ip, [ip]
 1500dac:	e1a0333c 	lsr	r3, ip, r3
 1500db0:	e4c13001 	strb	r3, [r1], #1
 1500db4:	e151000e 	cmp	r1, lr
 1500db8:	1afffff3 	bne	1500d8c <OTP_Get_Byte+0x14>
 1500dbc:	e1a00002 	mov	r0, r2
 1500dc0:	e49df004 	pop	{pc}		; (ldr pc, [sp], #4)
 1500dc4:	e1a00002 	mov	r0, r2
 1500dc8:	e12fff1e 	bx	lr

01500dcc <read_id_test>:
 1500dcc:	e92d4010 	push	{r4, lr}
 1500dd0:	e300cff8 	movw	ip, #4088	; 0xff8
 1500dd4:	e240ea01 	sub	lr, r0, #4096	; 0x1000
 1500dd8:	e15e000c 	cmp	lr, ip
 1500ddc:	8a000003 	bhi	1500df0 <read_id_test+0x24>
 1500de0:	e0803001 	add	r3, r0, r1
 1500de4:	e301cff8 	movw	ip, #8184	; 0x1ff8
 1500de8:	e153000c 	cmp	r3, ip
 1500dec:	9a000001 	bls	1500df8 <read_id_test+0x2c>
 1500df0:	e3a00001 	mov	r0, #1
 1500df4:	e8bd8010 	pop	{r4, pc}
 1500df8:	e1a03002 	mov	r3, r2
 1500dfc:	e1a02001 	mov	r2, r1
 1500e00:	e1a01003 	mov	r1, r3
 1500e04:	ebffffdb 	bl	1500d78 <OTP_Get_Byte>
 1500e08:	e3a00000 	mov	r0, #0
 1500e0c:	e8bd8010 	pop	{r4, pc}

01500e10 <alloc_mcp_descriptor>:
 1500e10:	e92d4070 	push	{r4, r5, r6, lr}
 1500e14:	e3034b38 	movw	r4, #15160	; 0x3b38
 1500e18:	e3404151 	movt	r4, #337	; 0x151
 1500e1c:	e30f3837 	movw	r3, #63543	; 0xf837
 1500e20:	e34f3ebf 	movt	r3, #65215	; 0xfebf
 1500e24:	e30f27fe 	movw	r2, #63486	; 0xf7fe
 1500e28:	e34f2ebf 	movt	r2, #65215	; 0xfebf
 1500e2c:	e5945000 	ldr	r5, [r4]
 1500e30:	e0853003 	add	r3, r5, r3
 1500e34:	e3550000 	cmp	r5, #0
 1500e38:	11530002 	cmpne	r3, r2
 1500e3c:	8a000006 	bhi	1500e5c <alloc_mcp_descriptor+0x4c>
 1500e40:	e3a03505 	mov	r3, #20971520	; 0x1400000
 1500e44:	e3a02b02 	mov	r2, #2048	; 0x800
 1500e48:	e1a00003 	mov	r0, r3
 1500e4c:	e3a01000 	mov	r1, #0
 1500e50:	e5843000 	str	r3, [r4]
 1500e54:	eb000711 	bl	1502aa0 <memset>
 1500e58:	e5945000 	ldr	r5, [r4]
 1500e5c:	e3a02038 	mov	r2, #56	; 0x38
 1500e60:	e3a01000 	mov	r1, #0
 1500e64:	e1a00005 	mov	r0, r5
 1500e68:	eb00070c 	bl	1502aa0 <memset>
 1500e6c:	e5943000 	ldr	r3, [r4]
 1500e70:	e1a00005 	mov	r0, r5
 1500e74:	e2833c01 	add	r3, r3, #256	; 0x100
 1500e78:	e5843000 	str	r3, [r4]
 1500e7c:	e8bd8070 	pop	{r4, r5, r6, pc}

01500e80 <load_otp>:
 1500e80:	e3a01a05 	mov	r1, #20480	; 0x5000
 1500e84:	e3491801 	movt	r1, #38913	; 0x9801
 1500e88:	e3a00001 	mov	r0, #1
 1500e8c:	e1a02001 	mov	r2, r1
 1500e90:	e3a03801 	mov	r3, #65536	; 0x10000
 1500e94:	e581019c 	str	r0, [r1, #412]	; 0x19c
 1500e98:	e592019c 	ldr	r0, [r2, #412]	; 0x19c
 1500e9c:	e2100001 	ands	r0, r0, #1
 1500ea0:	012fff1e 	bxeq	lr
 1500ea4:	e2533001 	subs	r3, r3, #1
 1500ea8:	1afffffa 	bne	1500e98 <load_otp+0x18>
 1500eac:	e3e00000 	mvn	r0, #0
 1500eb0:	e12fff1e 	bx	lr

01500eb4 <do_mcp>:
 1500eb4:	e2503000 	subs	r3, r0, #0
 1500eb8:	0a00003d 	beq	1500fb4 <do_mcp+0x100>
 1500ebc:	e92d4070 	push	{r4, r5, r6, lr}
 1500ec0:	e3a05a05 	mov	r5, #20480	; 0x5000
 1500ec4:	e3495801 	movt	r5, #38913	; 0x9801
 1500ec8:	e3a0e002 	mov	lr, #2
 1500ecc:	e283c070 	add	ip, r3, #112	; 0x70
 1500ed0:	e3a02001 	mov	r2, #1
 1500ed4:	e3a010fe 	mov	r1, #254	; 0xfe
 1500ed8:	e5852934 	str	r2, [r5, #2356]	; 0x934
 1500edc:	e2832038 	add	r2, r3, #56	; 0x38
 1500ee0:	e5851908 	str	r1, [r5, #2312]	; 0x908
 1500ee4:	e3a01038 	mov	r1, #56	; 0x38
 1500ee8:	e585e900 	str	lr, [r5, #2304]	; 0x900
 1500eec:	e585390c 	str	r3, [r5, #2316]	; 0x90c
 1500ef0:	e585c910 	str	ip, [r5, #2320]	; 0x910
 1500ef4:	e5853914 	str	r3, [r5, #2324]	; 0x914
 1500ef8:	e5852918 	str	r2, [r5, #2328]	; 0x918
 1500efc:	eb0007b9 	bl	1502de8 <flush_cache>
 1500f00:	eb00061d 	bl	150277c <sync>
 1500f04:	f57ff06f 	isb	sy
 1500f08:	e3a03003 	mov	r3, #3
 1500f0c:	e5853900 	str	r3, [r5, #2304]	; 0x900
 1500f10:	eb000619 	bl	150277c <sync>
 1500f14:	e5953904 	ldr	r3, [r5, #2308]	; 0x904
 1500f18:	e3130006 	tst	r3, #6
 1500f1c:	030f4fff 	movweq	r4, #65535	; 0xffff
 1500f20:	0340407f 	movteq	r4, #127	; 0x7f
 1500f24:	0a000002 	beq	1500f34 <do_mcp+0x80>
 1500f28:	ea000009 	b	1500f54 <do_mcp+0xa0>
 1500f2c:	e2544001 	subs	r4, r4, #1
 1500f30:	0a000019 	beq	1500f9c <do_mcp+0xe8>
 1500f34:	e3a00001 	mov	r0, #1
 1500f38:	eb0005e2 	bl	15026c8 <mdelay>
 1500f3c:	eb00060e 	bl	150277c <sync>
 1500f40:	e5952904 	ldr	r2, [r5, #2308]	; 0x904
 1500f44:	e3a03a05 	mov	r3, #20480	; 0x5000
 1500f48:	e3493801 	movt	r3, #38913	; 0x9801
 1500f4c:	e3120006 	tst	r2, #6
 1500f50:	0afffff5 	beq	1500f2c <do_mcp+0x78>
 1500f54:	e3a03a05 	mov	r3, #20480	; 0x5000
 1500f58:	e3493801 	movt	r3, #38913	; 0x9801
 1500f5c:	e5932904 	ldr	r2, [r3, #2308]	; 0x904
 1500f60:	e3120002 	tst	r2, #2
 1500f64:	13a00000 	movne	r0, #0
 1500f68:	0a000006 	beq	1500f88 <do_mcp+0xd4>
 1500f6c:	e3a03a05 	mov	r3, #20480	; 0x5000
 1500f70:	e3493801 	movt	r3, #38913	; 0x9801
 1500f74:	e3a01002 	mov	r1, #2
 1500f78:	e3a02006 	mov	r2, #6
 1500f7c:	e5831900 	str	r1, [r3, #2304]	; 0x900
 1500f80:	e5832904 	str	r2, [r3, #2308]	; 0x904
 1500f84:	e8bd8070 	pop	{r4, r5, r6, pc}
 1500f88:	e5933904 	ldr	r3, [r3, #2308]	; 0x904
 1500f8c:	e3130004 	tst	r3, #4
 1500f90:	13e00000 	mvnne	r0, #0
 1500f94:	03e00001 	mvneq	r0, #1
 1500f98:	eafffff3 	b	1500f6c <do_mcp+0xb8>
 1500f9c:	e3a01002 	mov	r1, #2
 1500fa0:	e3a02006 	mov	r2, #6
 1500fa4:	e5831900 	str	r1, [r3, #2304]	; 0x900
 1500fa8:	e3e00002 	mvn	r0, #2
 1500fac:	e5832904 	str	r2, [r3, #2308]	; 0x904
 1500fb0:	e8bd8070 	pop	{r4, r5, r6, pc}
 1500fb4:	e3e00000 	mvn	r0, #0
 1500fb8:	e12fff1e 	bx	lr

01500fbc <swap_endian>:
 1500fbc:	e6bf0f30 	rev	r0, r0
 1500fc0:	e12fff1e 	bx	lr

01500fc4 <reverse_rsa_signature>:
 1500fc4:	e92d4030 	push	{r4, r5, lr}
 1500fc8:	e2801206 	add	r1, r0, #1610612736	; 0x60000000
 1500fcc:	e30fefff 	movw	lr, #65535	; 0xffff
 1500fd0:	e340e006 	movt	lr, #6
 1500fd4:	e24dd014 	sub	sp, sp, #20
 1500fd8:	e2814010 	add	r4, r1, #16
 1500fdc:	e1a0c00d 	mov	ip, sp
 1500fe0:	e1a03001 	mov	r3, r1
 1500fe4:	e283231a 	add	r2, r3, #1744830464	; 0x68000000
 1500fe8:	e152000e 	cmp	r2, lr
 1500fec:	8a00003f 	bhi	15010f0 <reverse_rsa_signature+0x12c>
 1500ff0:	e5932000 	ldr	r2, [r3]
 1500ff4:	e2833004 	add	r3, r3, #4
 1500ff8:	e6bf2f32 	rev	r2, r2
 1500ffc:	e1530004 	cmp	r3, r4
 1501000:	e48c2004 	str	r2, [ip], #4
 1501004:	1afffff6 	bne	1500fe4 <reverse_rsa_signature+0x20>
 1501008:	e2803332 	add	r3, r0, #-939524096	; 0xc8000000
 150100c:	e283e01c 	add	lr, r3, #28
 1501010:	e35e0807 	cmp	lr, #458752	; 0x70000
 1501014:	2a000080 	bcs	150121c <reverse_rsa_signature+0x258>
 1501018:	e591201c 	ldr	r2, [r1, #28]
 150101c:	e3530807 	cmp	r3, #458752	; 0x70000
 1501020:	e6bf2f32 	rev	r2, r2
 1501024:	2a000076 	bcs	1501204 <reverse_rsa_signature+0x240>
 1501028:	e5812000 	str	r2, [r1]
 150102c:	e2834018 	add	r4, r3, #24
 1501030:	e3540807 	cmp	r4, #458752	; 0x70000
 1501034:	2a00006c 	bcs	15011ec <reverse_rsa_signature+0x228>
 1501038:	e591c018 	ldr	ip, [r1, #24]
 150103c:	e2832004 	add	r2, r3, #4
 1501040:	e6bfcf3c 	rev	ip, ip
 1501044:	e3520807 	cmp	r2, #458752	; 0x70000
 1501048:	2a000061 	bcs	15011d4 <reverse_rsa_signature+0x210>
 150104c:	e2802246 	add	r2, r0, #1610612740	; 0x60000004
 1501050:	e582c000 	str	ip, [r2]
 1501054:	e2835014 	add	r5, r3, #20
 1501058:	e3550807 	cmp	r5, #458752	; 0x70000
 150105c:	2a000056 	bcs	15011bc <reverse_rsa_signature+0x1f8>
 1501060:	e591c014 	ldr	ip, [r1, #20]
 1501064:	e2832008 	add	r2, r3, #8
 1501068:	e6bfcf3c 	rev	ip, ip
 150106c:	e3520807 	cmp	r2, #458752	; 0x70000
 1501070:	2a00004b 	bcs	15011a4 <reverse_rsa_signature+0x1e0>
 1501074:	e2802286 	add	r2, r0, #1610612744	; 0x60000008
 1501078:	e582c000 	str	ip, [r2]
 150107c:	e283c010 	add	ip, r3, #16
 1501080:	e35c0807 	cmp	ip, #458752	; 0x70000
 1501084:	2a000040 	bcs	150118c <reverse_rsa_signature+0x1c8>
 1501088:	e5912010 	ldr	r2, [r1, #16]
 150108c:	e283300c 	add	r3, r3, #12
 1501090:	e6bf2f32 	rev	r2, r2
 1501094:	e3530807 	cmp	r3, #458752	; 0x70000
 1501098:	2a000035 	bcs	1501174 <reverse_rsa_signature+0x1b0>
 150109c:	e28032c6 	add	r3, r0, #1610612748	; 0x6000000c
 15010a0:	e5832000 	str	r2, [r3]
 15010a4:	e35c0807 	cmp	ip, #458752	; 0x70000
 15010a8:	e59d300c 	ldr	r3, [sp, #12]
 15010ac:	2a00002a 	bcs	150115c <reverse_rsa_signature+0x198>
 15010b0:	e5813010 	str	r3, [r1, #16]
 15010b4:	e3550807 	cmp	r5, #458752	; 0x70000
 15010b8:	e59d3008 	ldr	r3, [sp, #8]
 15010bc:	2a000020 	bcs	1501144 <reverse_rsa_signature+0x180>
 15010c0:	e5813014 	str	r3, [r1, #20]
 15010c4:	e3540807 	cmp	r4, #458752	; 0x70000
 15010c8:	e59d3004 	ldr	r3, [sp, #4]
 15010cc:	2a000016 	bcs	150112c <reverse_rsa_signature+0x168>
 15010d0:	e5813018 	str	r3, [r1, #24]
 15010d4:	e35e0807 	cmp	lr, #458752	; 0x70000
 15010d8:	e59d3000 	ldr	r3, [sp]
 15010dc:	2a00000a 	bcs	150110c <reverse_rsa_signature+0x148>
 15010e0:	e3a00000 	mov	r0, #0
 15010e4:	e581301c 	str	r3, [r1, #28]
 15010e8:	e28dd014 	add	sp, sp, #20
 15010ec:	e8bd8030 	pop	{r4, r5, pc}
 15010f0:	e2832467 	add	r2, r3, #1728053248	; 0x67000000
 15010f4:	e283520a 	add	r5, r3, #-1610612736	; 0xa0000000
 15010f8:	e282260f 	add	r2, r2, #15728640	; 0xf00000
 15010fc:	e3520402 	cmp	r2, #33554432	; 0x2000000
 1501100:	25952000 	ldrcs	r2, [r5]
 1501104:	2affffba 	bcs	1500ff4 <reverse_rsa_signature+0x30>
 1501108:	eaffffb8 	b	1500ff0 <reverse_rsa_signature+0x2c>
 150110c:	e2802173 	add	r2, r0, #-1073741796	; 0xc000001c
 1501110:	e282267f 	add	r2, r2, #133169152	; 0x7f00000
 1501114:	e3520402 	cmp	r2, #33554432	; 0x2000000
 1501118:	2580301c 	strcs	r3, [r0, #28]
 150111c:	3affffef 	bcc	15010e0 <reverse_rsa_signature+0x11c>
 1501120:	e3a00000 	mov	r0, #0
 1501124:	e28dd014 	add	sp, sp, #20
 1501128:	e8bd8030 	pop	{r4, r5, pc}
 150112c:	e2802163 	add	r2, r0, #-1073741800	; 0xc0000018
 1501130:	e282267f 	add	r2, r2, #133169152	; 0x7f00000
 1501134:	e3520402 	cmp	r2, #33554432	; 0x2000000
 1501138:	25803018 	strcs	r3, [r0, #24]
 150113c:	2affffe4 	bcs	15010d4 <reverse_rsa_signature+0x110>
 1501140:	eaffffe2 	b	15010d0 <reverse_rsa_signature+0x10c>
 1501144:	e2802153 	add	r2, r0, #-1073741804	; 0xc0000014
 1501148:	e282267f 	add	r2, r2, #133169152	; 0x7f00000
 150114c:	e3520402 	cmp	r2, #33554432	; 0x2000000
 1501150:	25803014 	strcs	r3, [r0, #20]
 1501154:	2affffda 	bcs	15010c4 <reverse_rsa_signature+0x100>
 1501158:	eaffffd8 	b	15010c0 <reverse_rsa_signature+0xfc>
 150115c:	e2802143 	add	r2, r0, #-1073741808	; 0xc0000010
 1501160:	e282267f 	add	r2, r2, #133169152	; 0x7f00000
 1501164:	e3520402 	cmp	r2, #33554432	; 0x2000000
 1501168:	25803010 	strcs	r3, [r0, #16]
 150116c:	2affffd0 	bcs	15010b4 <reverse_rsa_signature+0xf0>
 1501170:	eaffffce 	b	15010b0 <reverse_rsa_signature+0xec>
 1501174:	e2803133 	add	r3, r0, #-1073741812	; 0xc000000c
 1501178:	e283367f 	add	r3, r3, #133169152	; 0x7f00000
 150117c:	e3530402 	cmp	r3, #33554432	; 0x2000000
 1501180:	2580200c 	strcs	r2, [r0, #12]
 1501184:	2affffc6 	bcs	15010a4 <reverse_rsa_signature+0xe0>
 1501188:	eaffffc3 	b	150109c <reverse_rsa_signature+0xd8>
 150118c:	e2802143 	add	r2, r0, #-1073741808	; 0xc0000010
 1501190:	e282267f 	add	r2, r2, #133169152	; 0x7f00000
 1501194:	e3520402 	cmp	r2, #33554432	; 0x2000000
 1501198:	25902010 	ldrcs	r2, [r0, #16]
 150119c:	2affffba 	bcs	150108c <reverse_rsa_signature+0xc8>
 15011a0:	eaffffb8 	b	1501088 <reverse_rsa_signature+0xc4>
 15011a4:	e2802123 	add	r2, r0, #-1073741816	; 0xc0000008
 15011a8:	e282267f 	add	r2, r2, #133169152	; 0x7f00000
 15011ac:	e3520402 	cmp	r2, #33554432	; 0x2000000
 15011b0:	2580c008 	strcs	ip, [r0, #8]
 15011b4:	2affffb0 	bcs	150107c <reverse_rsa_signature+0xb8>
 15011b8:	eaffffad 	b	1501074 <reverse_rsa_signature+0xb0>
 15011bc:	e2802153 	add	r2, r0, #-1073741804	; 0xc0000014
 15011c0:	e282267f 	add	r2, r2, #133169152	; 0x7f00000
 15011c4:	e3520402 	cmp	r2, #33554432	; 0x2000000
 15011c8:	2590c014 	ldrcs	ip, [r0, #20]
 15011cc:	2affffa4 	bcs	1501064 <reverse_rsa_signature+0xa0>
 15011d0:	eaffffa2 	b	1501060 <reverse_rsa_signature+0x9c>
 15011d4:	e2802113 	add	r2, r0, #-1073741820	; 0xc0000004
 15011d8:	e282267f 	add	r2, r2, #133169152	; 0x7f00000
 15011dc:	e3520402 	cmp	r2, #33554432	; 0x2000000
 15011e0:	2580c004 	strcs	ip, [r0, #4]
 15011e4:	2affff9a 	bcs	1501054 <reverse_rsa_signature+0x90>
 15011e8:	eaffff97 	b	150104c <reverse_rsa_signature+0x88>
 15011ec:	e2802163 	add	r2, r0, #-1073741800	; 0xc0000018
 15011f0:	e282267f 	add	r2, r2, #133169152	; 0x7f00000
 15011f4:	e3520402 	cmp	r2, #33554432	; 0x2000000
 15011f8:	2590c018 	ldrcs	ip, [r0, #24]
 15011fc:	2affff8e 	bcs	150103c <reverse_rsa_signature+0x78>
 1501200:	eaffff8c 	b	1501038 <reverse_rsa_signature+0x74>
 1501204:	e280c4c7 	add	ip, r0, #-956301312	; 0xc7000000
 1501208:	e28cc60f 	add	ip, ip, #15728640	; 0xf00000
 150120c:	e35c0402 	cmp	ip, #33554432	; 0x2000000
 1501210:	25802000 	strcs	r2, [r0]
 1501214:	2affff84 	bcs	150102c <reverse_rsa_signature+0x68>
 1501218:	eaffff82 	b	1501028 <reverse_rsa_signature+0x64>
 150121c:	e2802173 	add	r2, r0, #-1073741796	; 0xc000001c
 1501220:	e282267f 	add	r2, r2, #133169152	; 0x7f00000
 1501224:	e3520402 	cmp	r2, #33554432	; 0x2000000
 1501228:	2590201c 	ldrcs	r2, [r0, #28]
 150122c:	2affff7a 	bcs	150101c <reverse_rsa_signature+0x58>
 1501230:	eaffff78 	b	1501018 <reverse_rsa_signature+0x54>

01501234 <AES_CBC_decrypt>:
 1501234:	e92d41f0 	push	{r4, r5, r6, r7, r8, lr}
 1501238:	e1a08000 	mov	r8, r0
 150123c:	e1a06001 	mov	r6, r1
 1501240:	e1a07002 	mov	r7, r2
 1501244:	e1a05003 	mov	r5, r3
 1501248:	ebfffef0 	bl	1500e10 <alloc_mcp_descriptor>
 150124c:	e2504000 	subs	r4, r0, #0
 1501250:	0a000017 	beq	15012b4 <AES_CBC_decrypt+0x80>
 1501254:	e3550000 	cmp	r5, #0
 1501258:	0a00000f 	beq	150129c <AES_CBC_decrypt+0x68>
 150125c:	e3a03045 	mov	r3, #69	; 0x45
 1501260:	e5843000 	str	r3, [r4]
 1501264:	e5953000 	ldr	r3, [r5]
 1501268:	e5843004 	str	r3, [r4, #4]
 150126c:	e5953004 	ldr	r3, [r5, #4]
 1501270:	e5843008 	str	r3, [r4, #8]
 1501274:	e5953008 	ldr	r3, [r5, #8]
 1501278:	e584300c 	str	r3, [r4, #12]
 150127c:	e595300c 	ldr	r3, [r5, #12]
 1501280:	e5843010 	str	r3, [r4, #16]
 1501284:	e584802c 	str	r8, [r4, #44]	; 0x2c
 1501288:	e1a00004 	mov	r0, r4
 150128c:	e5847030 	str	r7, [r4, #48]	; 0x30
 1501290:	e5846034 	str	r6, [r4, #52]	; 0x34
 1501294:	e8bd41f0 	pop	{r4, r5, r6, r7, r8, lr}
 1501298:	eaffff05 	b	1500eb4 <do_mcp>
 150129c:	ebfffef7 	bl	1500e80 <load_otp>
 15012a0:	e3500000 	cmp	r0, #0
 15012a4:	1a000004 	bne	15012bc <AES_CBC_decrypt+0x88>
 15012a8:	e3013045 	movw	r3, #4165	; 0x1045
 15012ac:	e5843000 	str	r3, [r4]
 15012b0:	eafffff3 	b	1501284 <AES_CBC_decrypt+0x50>
 15012b4:	e3e00000 	mvn	r0, #0
 15012b8:	e8bd81f0 	pop	{r4, r5, r6, r7, r8, pc}
 15012bc:	e3e00001 	mvn	r0, #1
 15012c0:	e8bd81f0 	pop	{r4, r5, r6, r7, r8, pc}

015012c4 <AES_CBC_encrypt>:
 15012c4:	e92d41f0 	push	{r4, r5, r6, r7, r8, lr}
 15012c8:	e1a08000 	mov	r8, r0
 15012cc:	e1a06001 	mov	r6, r1
 15012d0:	e1a07002 	mov	r7, r2
 15012d4:	e1a05003 	mov	r5, r3
 15012d8:	ebfffecc 	bl	1500e10 <alloc_mcp_descriptor>
 15012dc:	e2504000 	subs	r4, r0, #0
 15012e0:	0a000017 	beq	1501344 <AES_CBC_encrypt+0x80>
 15012e4:	e3550000 	cmp	r5, #0
 15012e8:	0a00000f 	beq	150132c <AES_CBC_encrypt+0x68>
 15012ec:	e3a03065 	mov	r3, #101	; 0x65
 15012f0:	e5843000 	str	r3, [r4]
 15012f4:	e5953000 	ldr	r3, [r5]
 15012f8:	e5843004 	str	r3, [r4, #4]
 15012fc:	e5953004 	ldr	r3, [r5, #4]
 1501300:	e5843008 	str	r3, [r4, #8]
 1501304:	e5953008 	ldr	r3, [r5, #8]
 1501308:	e584300c 	str	r3, [r4, #12]
 150130c:	e595300c 	ldr	r3, [r5, #12]
 1501310:	e5843010 	str	r3, [r4, #16]
 1501314:	e584802c 	str	r8, [r4, #44]	; 0x2c
 1501318:	e1a00004 	mov	r0, r4
 150131c:	e5847030 	str	r7, [r4, #48]	; 0x30
 1501320:	e5846034 	str	r6, [r4, #52]	; 0x34
 1501324:	e8bd41f0 	pop	{r4, r5, r6, r7, r8, lr}
 1501328:	eafffee1 	b	1500eb4 <do_mcp>
 150132c:	ebfffed3 	bl	1500e80 <load_otp>
 1501330:	e3500000 	cmp	r0, #0
 1501334:	1a000004 	bne	150134c <AES_CBC_encrypt+0x88>
 1501338:	e3013065 	movw	r3, #4197	; 0x1065
 150133c:	e5843000 	str	r3, [r4]
 1501340:	eafffff3 	b	1501314 <AES_CBC_encrypt+0x50>
 1501344:	e3e00000 	mvn	r0, #0
 1501348:	e8bd81f0 	pop	{r4, r5, r6, r7, r8, pc}
 150134c:	e3e00001 	mvn	r0, #1
 1501350:	e8bd81f0 	pop	{r4, r5, r6, r7, r8, pc}

01501354 <AES_ECB_decrypt>:
 1501354:	e92d41f0 	push	{r4, r5, r6, r7, r8, lr}
 1501358:	e1a08000 	mov	r8, r0
 150135c:	e1a06001 	mov	r6, r1
 1501360:	e1a07002 	mov	r7, r2
 1501364:	e1a05003 	mov	r5, r3
 1501368:	ebfffea8 	bl	1500e10 <alloc_mcp_descriptor>
 150136c:	e2504000 	subs	r4, r0, #0
 1501370:	0a000018 	beq	15013d8 <AES_ECB_decrypt+0x84>
 1501374:	e3550000 	cmp	r5, #0
 1501378:	0a00000f 	beq	15013bc <AES_ECB_decrypt+0x68>
 150137c:	e3a03005 	mov	r3, #5
 1501380:	e5843000 	str	r3, [r4]
 1501384:	e5953000 	ldr	r3, [r5]
 1501388:	e5843004 	str	r3, [r4, #4]
 150138c:	e5953004 	ldr	r3, [r5, #4]
 1501390:	e5843008 	str	r3, [r4, #8]
 1501394:	e5953008 	ldr	r3, [r5, #8]
 1501398:	e584300c 	str	r3, [r4, #12]
 150139c:	e595300c 	ldr	r3, [r5, #12]
 15013a0:	e5843010 	str	r3, [r4, #16]
 15013a4:	e584802c 	str	r8, [r4, #44]	; 0x2c
 15013a8:	e1a00004 	mov	r0, r4
 15013ac:	e5847030 	str	r7, [r4, #48]	; 0x30
 15013b0:	e5846034 	str	r6, [r4, #52]	; 0x34
 15013b4:	e8bd41f0 	pop	{r4, r5, r6, r7, r8, lr}
 15013b8:	eafffebd 	b	1500eb4 <do_mcp>
 15013bc:	ebfffeaf 	bl	1500e80 <load_otp>
 15013c0:	e3500000 	cmp	r0, #0
 15013c4:	1a000005 	bne	15013e0 <AES_ECB_decrypt+0x8c>
 15013c8:	e3a03a01 	mov	r3, #4096	; 0x1000
 15013cc:	e3403010 	movt	r3, #16
 15013d0:	e5843000 	str	r3, [r4]
 15013d4:	eafffff2 	b	15013a4 <AES_ECB_decrypt+0x50>
 15013d8:	e3e00000 	mvn	r0, #0
 15013dc:	e8bd81f0 	pop	{r4, r5, r6, r7, r8, pc}
 15013e0:	e3e00001 	mvn	r0, #1
 15013e4:	e8bd81f0 	pop	{r4, r5, r6, r7, r8, pc}

015013e8 <AES_ECB_encrypt>:
 15013e8:	e92d41f0 	push	{r4, r5, r6, r7, r8, lr}
 15013ec:	e1a08000 	mov	r8, r0
 15013f0:	e1a07001 	mov	r7, r1
 15013f4:	e1a06002 	mov	r6, r2
 15013f8:	e1a05003 	mov	r5, r3
 15013fc:	ebfffe83 	bl	1500e10 <alloc_mcp_descriptor>
 1501400:	e2504000 	subs	r4, r0, #0
 1501404:	0a000028 	beq	15014ac <AES_ECB_encrypt+0xc4>
 1501408:	e3550000 	cmp	r5, #0
 150140c:	0a000017 	beq	1501470 <AES_ECB_encrypt+0x88>
 1501410:	e3a03025 	mov	r3, #37	; 0x25
 1501414:	e5843000 	str	r3, [r4]
 1501418:	e5953000 	ldr	r3, [r5]
 150141c:	e5843004 	str	r3, [r4, #4]
 1501420:	e5953004 	ldr	r3, [r5, #4]
 1501424:	e5843008 	str	r3, [r4, #8]
 1501428:	e5953008 	ldr	r3, [r5, #8]
 150142c:	e584300c 	str	r3, [r4, #12]
 1501430:	e595300c 	ldr	r3, [r5, #12]
 1501434:	e5843010 	str	r3, [r4, #16]
 1501438:	e584802c 	str	r8, [r4, #44]	; 0x2c
 150143c:	e1a00004 	mov	r0, r4
 1501440:	e5846030 	str	r6, [r4, #48]	; 0x30
 1501444:	e5847034 	str	r7, [r4, #52]	; 0x34
 1501448:	ebfffe99 	bl	1500eb4 <do_mcp>
 150144c:	e2504000 	subs	r4, r0, #0
 1501450:	0a000001 	beq	150145c <AES_ECB_encrypt+0x74>
 1501454:	e1a00004 	mov	r0, r4
 1501458:	e8bd81f0 	pop	{r4, r5, r6, r7, r8, pc}
 150145c:	e1a00006 	mov	r0, r6
 1501460:	e1a01007 	mov	r1, r7
 1501464:	eb00065f 	bl	1502de8 <flush_cache>
 1501468:	e1a00004 	mov	r0, r4
 150146c:	e8bd81f0 	pop	{r4, r5, r6, r7, r8, pc}
 1501470:	ebfffe82 	bl	1500e80 <load_otp>
 1501474:	e3500000 	cmp	r0, #0
 1501478:	03013025 	movweq	r3, #4133	; 0x1025
 150147c:	05843000 	streq	r3, [r4]
 1501480:	0affffec 	beq	1501438 <AES_ECB_encrypt+0x50>
 1501484:	e3a030c4 	mov	r3, #196	; 0xc4
 1501488:	e303210c 	movw	r2, #12556	; 0x310c
 150148c:	e3402150 	movt	r2, #336	; 0x150
 1501490:	e303112c 	movw	r1, #12588	; 0x312c
 1501494:	e3401150 	movt	r1, #336	; 0x150
 1501498:	e3030134 	movw	r0, #12596	; 0x3134
 150149c:	e3400150 	movt	r0, #336	; 0x150
 15014a0:	ebfffb8c 	bl	15002d8 <printf>
 15014a4:	e3e00001 	mvn	r0, #1
 15014a8:	e8bd81f0 	pop	{r4, r5, r6, r7, r8, pc}
 15014ac:	e3a030be 	mov	r3, #190	; 0xbe
 15014b0:	e303210c 	movw	r2, #12556	; 0x310c
 15014b4:	e3402150 	movt	r2, #336	; 0x150
 15014b8:	e303112c 	movw	r1, #12588	; 0x312c
 15014bc:	e3401150 	movt	r1, #336	; 0x150
 15014c0:	e3030134 	movw	r0, #12596	; 0x3134
 15014c4:	e3400150 	movt	r0, #336	; 0x150
 15014c8:	ebfffb82 	bl	15002d8 <printf>
 15014cc:	e3e00000 	mvn	r0, #0
 15014d0:	e8bd81f0 	pop	{r4, r5, r6, r7, r8, pc}

015014d4 <AES_hash_one>:
 15014d4:	e92d4070 	push	{r4, r5, r6, lr}
 15014d8:	e1a06000 	mov	r6, r0
 15014dc:	e1a04001 	mov	r4, r1
 15014e0:	e1a05002 	mov	r5, r2
 15014e4:	ebfffe49 	bl	1500e10 <alloc_mcp_descriptor>
 15014e8:	e2503000 	subs	r3, r0, #0
 15014ec:	0a000012 	beq	150153c <AES_hash_one+0x68>
 15014f0:	e583602c 	str	r6, [r3, #44]	; 0x2c
 15014f4:	e30dcf39 	movw	ip, #57145	; 0xdf39
 15014f8:	e342cdc2 	movt	ip, #11714	; 0x2dc2
 15014fc:	e583c01c 	str	ip, [r3, #28]
 1501500:	e5835030 	str	r5, [r3, #48]	; 0x30
 1501504:	e30221d0 	movw	r2, #8656	; 0x21d0
 1501508:	e3442203 	movt	r2, #16899	; 0x4203
 150150c:	e5832020 	str	r2, [r3, #32]
 1501510:	e5834034 	str	r4, [r3, #52]	; 0x34
 1501514:	e30f2e23 	movw	r2, #65059	; 0xfe23
 1501518:	e34c2ef1 	movt	r2, #52977	; 0xcef1
 150151c:	e5832024 	str	r2, [r3, #36]	; 0x24
 1501520:	e3a01027 	mov	r1, #39	; 0x27
 1501524:	e3092d95 	movw	r2, #40341	; 0x9d95
 1501528:	e3472402 	movt	r2, #29698	; 0x7402
 150152c:	e5832028 	str	r2, [r3, #40]	; 0x28
 1501530:	e5831000 	str	r1, [r3]
 1501534:	e8bd4070 	pop	{r4, r5, r6, lr}
 1501538:	eafffe5d 	b	1500eb4 <do_mcp>
 150153c:	e3e00000 	mvn	r0, #0
 1501540:	e8bd8070 	pop	{r4, r5, r6, pc}

01501544 <AES_hash>:
 1501544:	e3520000 	cmp	r2, #0
 1501548:	13500000 	cmpne	r0, #0
 150154c:	0a000050 	beq	1501694 <AES_hash+0x150>
 1501550:	e3530000 	cmp	r3, #0
 1501554:	13510000 	cmpne	r1, #0
 1501558:	e92d41f0 	push	{r4, r5, r6, r7, r8, lr}
 150155c:	e1a06001 	mov	r6, r1
 1501560:	e1a07003 	mov	r7, r3
 1501564:	0a000048 	beq	150168c <AES_hash+0x148>
 1501568:	e1a08000 	mov	r8, r0
 150156c:	e1a04002 	mov	r4, r2
 1501570:	ebfffe26 	bl	1500e10 <alloc_mcp_descriptor>
 1501574:	e2505000 	subs	r5, r0, #0
 1501578:	0a000043 	beq	150168c <AES_hash+0x148>
 150157c:	e30d3f39 	movw	r3, #57145	; 0xdf39
 1501580:	e3423dc2 	movt	r3, #11714	; 0x2dc2
 1501584:	e30221d0 	movw	r2, #8656	; 0x21d0
 1501588:	e3442203 	movt	r2, #16899	; 0x4203
 150158c:	e585301c 	str	r3, [r5, #28]
 1501590:	e30f3e23 	movw	r3, #65059	; 0xfe23
 1501594:	e34c3ef1 	movt	r3, #52977	; 0xcef1
 1501598:	e5853024 	str	r3, [r5, #36]	; 0x24
 150159c:	e5852020 	str	r2, [r5, #32]
 15015a0:	e3a03027 	mov	r3, #39	; 0x27
 15015a4:	e3092d95 	movw	r2, #40341	; 0x9d95
 15015a8:	e3472402 	movt	r2, #29698	; 0x7402
 15015ac:	e5854030 	str	r4, [r5, #48]	; 0x30
 15015b0:	e5852028 	str	r2, [r5, #40]	; 0x28
 15015b4:	e5853000 	str	r3, [r5]
 15015b8:	ea000026 	b	1501658 <AES_hash+0x114>
 15015bc:	e3560000 	cmp	r6, #0
 15015c0:	0a00002f 	beq	1501684 <AES_hash+0x140>
 15015c4:	e5d41001 	ldrb	r1, [r4, #1]
 15015c8:	e5d43000 	ldrb	r3, [r4]
 15015cc:	e5d42003 	ldrb	r2, [r4, #3]
 15015d0:	e5d40002 	ldrb	r0, [r4, #2]
 15015d4:	e1a01801 	lsl	r1, r1, #16
 15015d8:	e1813c03 	orr	r3, r1, r3, lsl #24
 15015dc:	e5951034 	ldr	r1, [r5, #52]	; 0x34
 15015e0:	e1833002 	orr	r3, r3, r2
 15015e4:	e1833400 	orr	r3, r3, r0, lsl #8
 15015e8:	e585301c 	str	r3, [r5, #28]
 15015ec:	e0888001 	add	r8, r8, r1
 15015f0:	e5d41005 	ldrb	r1, [r4, #5]
 15015f4:	e5d43004 	ldrb	r3, [r4, #4]
 15015f8:	e5d42007 	ldrb	r2, [r4, #7]
 15015fc:	e5d40006 	ldrb	r0, [r4, #6]
 1501600:	e1a01801 	lsl	r1, r1, #16
 1501604:	e1813c03 	orr	r3, r1, r3, lsl #24
 1501608:	e1833002 	orr	r3, r3, r2
 150160c:	e1833400 	orr	r3, r3, r0, lsl #8
 1501610:	e5853020 	str	r3, [r5, #32]
 1501614:	e5d42009 	ldrb	r2, [r4, #9]
 1501618:	e5d40008 	ldrb	r0, [r4, #8]
 150161c:	e5d4100a 	ldrb	r1, [r4, #10]
 1501620:	e1a03802 	lsl	r3, r2, #16
 1501624:	e1833c00 	orr	r3, r3, r0, lsl #24
 1501628:	e1832002 	orr	r2, r3, r2
 150162c:	e1822401 	orr	r2, r2, r1, lsl #8
 1501630:	e5852024 	str	r2, [r5, #36]	; 0x24
 1501634:	e5d4100d 	ldrb	r1, [r4, #13]
 1501638:	e5d4200c 	ldrb	r2, [r4, #12]
 150163c:	e5d4300f 	ldrb	r3, [r4, #15]
 1501640:	e5d4000e 	ldrb	r0, [r4, #14]
 1501644:	e1a01801 	lsl	r1, r1, #16
 1501648:	e1812c02 	orr	r2, r1, r2, lsl #24
 150164c:	e1822003 	orr	r2, r2, r3
 1501650:	e1822400 	orr	r2, r2, r0, lsl #8
 1501654:	e5852028 	str	r2, [r5, #40]	; 0x28
 1501658:	e1560007 	cmp	r6, r7
 150165c:	e585802c 	str	r8, [r5, #44]	; 0x2c
 1501660:	31a03006 	movcc	r3, r6
 1501664:	21a03007 	movcs	r3, r7
 1501668:	e1a00005 	mov	r0, r5
 150166c:	e5853034 	str	r3, [r5, #52]	; 0x34
 1501670:	ebfffe0f 	bl	1500eb4 <do_mcp>
 1501674:	e3500000 	cmp	r0, #0
 1501678:	e0676006 	rsb	r6, r7, r6
 150167c:	0affffce 	beq	15015bc <AES_hash+0x78>
 1501680:	e8bd81f0 	pop	{r4, r5, r6, r7, r8, pc}
 1501684:	e1a00006 	mov	r0, r6
 1501688:	e8bd81f0 	pop	{r4, r5, r6, r7, r8, pc}
 150168c:	e3e00000 	mvn	r0, #0
 1501690:	e8bd81f0 	pop	{r4, r5, r6, r7, r8, pc}
 1501694:	e3e00000 	mvn	r0, #0
 1501698:	e12fff1e 	bx	lr

0150169c <SHA1_hash>:
 150169c:	e3520000 	cmp	r2, #0
 15016a0:	13500000 	cmpne	r0, #0
 15016a4:	0a00002b 	beq	1501758 <SHA1_hash+0xbc>
 15016a8:	e92d41f0 	push	{r4, r5, r6, r7, r8, lr}
 15016ac:	e1a07002 	mov	r7, r2
 15016b0:	e1a06000 	mov	r6, r0
 15016b4:	e1a04003 	mov	r4, r3
 15016b8:	e1a05001 	mov	r5, r1
 15016bc:	ebfffdd3 	bl	1500e10 <alloc_mcp_descriptor>
 15016c0:	e250c000 	subs	ip, r0, #0
 15016c4:	0a000025 	beq	1501760 <SHA1_hash+0xc4>
 15016c8:	e3540000 	cmp	r4, #0
 15016cc:	e3a03004 	mov	r3, #4
 15016d0:	e58c3000 	str	r3, [ip]
 15016d4:	0a00000f 	beq	1501718 <SHA1_hash+0x7c>
 15016d8:	e5943000 	ldr	r3, [r4]
 15016dc:	e58c3004 	str	r3, [ip, #4]
 15016e0:	e5943004 	ldr	r3, [r4, #4]
 15016e4:	e58c3008 	str	r3, [ip, #8]
 15016e8:	e5943008 	ldr	r3, [r4, #8]
 15016ec:	e58c300c 	str	r3, [ip, #12]
 15016f0:	e594300c 	ldr	r3, [r4, #12]
 15016f4:	e58c3010 	str	r3, [ip, #16]
 15016f8:	e5943010 	ldr	r3, [r4, #16]
 15016fc:	e58c3014 	str	r3, [ip, #20]
 1501700:	e58c602c 	str	r6, [ip, #44]	; 0x2c
 1501704:	e1a0000c 	mov	r0, ip
 1501708:	e58c7030 	str	r7, [ip, #48]	; 0x30
 150170c:	e58c5034 	str	r5, [ip, #52]	; 0x34
 1501710:	e8bd41f0 	pop	{r4, r5, r6, r7, r8, lr}
 1501714:	eafffde6 	b	1500eb4 <do_mcp>
 1501718:	e3022301 	movw	r2, #8961	; 0x2301
 150171c:	e3462745 	movt	r2, #26437	; 0x6745
 1501720:	e30a3b89 	movw	r3, #43913	; 0xab89
 1501724:	e34e3fcd 	movt	r3, #61389	; 0xefcd
 1501728:	e58c2004 	str	r2, [ip, #4]
 150172c:	e30d2cfe 	movw	r2, #56574	; 0xdcfe
 1501730:	e34928ba 	movt	r2, #39098	; 0x98ba
 1501734:	e58c200c 	str	r2, [ip, #12]
 1501738:	e58c3008 	str	r3, [ip, #8]
 150173c:	e3053476 	movw	r3, #21622	; 0x5476
 1501740:	e3413032 	movt	r3, #4146	; 0x1032
 1501744:	e58c3010 	str	r3, [ip, #16]
 1501748:	e30e31f0 	movw	r3, #57840	; 0xe1f0
 150174c:	e34c33d2 	movt	r3, #50130	; 0xc3d2
 1501750:	e58c3014 	str	r3, [ip, #20]
 1501754:	eaffffe9 	b	1501700 <SHA1_hash+0x64>
 1501758:	e3e00000 	mvn	r0, #0
 150175c:	e12fff1e 	bx	lr
 1501760:	e3e00000 	mvn	r0, #0
 1501764:	e8bd81f0 	pop	{r4, r5, r6, r7, r8, pc}

01501768 <do_RSA>:
 1501768:	e92d4070 	push	{r4, r5, r6, lr}
 150176c:	e1a04000 	mov	r4, r0
 1501770:	e1a05001 	mov	r5, r1
 1501774:	e24ddc01 	sub	sp, sp, #256	; 0x100
 1501778:	e1a06002 	mov	r6, r2
 150177c:	f57ff04f 	dsb	sy
 1501780:	eb0003fd 	bl	150277c <sync>
 1501784:	e3a03903 	mov	r3, #49152	; 0xc000
 1501788:	e3493804 	movt	r3, #38916	; 0x9804
 150178c:	e3550000 	cmp	r5, #0
 1501790:	e3a01002 	mov	r1, #2
 1501794:	e3a02000 	mov	r2, #0
 1501798:	e5831f08 	str	r1, [r3, #3848]	; 0xf08
 150179c:	e5832f80 	str	r2, [r3, #3968]	; 0xf80
 15017a0:	0a000049 	beq	15018cc <do_RSA+0x164>
 15017a4:	e3a00b33 	mov	r0, #52224	; 0xcc00
 15017a8:	e3490804 	movt	r0, #38916	; 0x9804
 15017ac:	e1a01005 	mov	r1, r5
 15017b0:	e3a02c01 	mov	r2, #256	; 0x100
 15017b4:	eb0004c9 	bl	1502ae0 <copy_memory>
 15017b8:	e3a01c01 	mov	r1, #256	; 0x100
 15017bc:	e3a00b33 	mov	r0, #52224	; 0xcc00
 15017c0:	e3490804 	movt	r0, #38916	; 0x9804
 15017c4:	eb000587 	bl	1502de8 <flush_cache>
 15017c8:	e3a02c01 	mov	r2, #256	; 0x100
 15017cc:	e3a01000 	mov	r1, #0
 15017d0:	e1a0000d 	mov	r0, sp
 15017d4:	eb0004ba 	bl	1502ac4 <set_memory>
 15017d8:	e1a0100d 	mov	r1, sp
 15017dc:	e3a02c01 	mov	r2, #256	; 0x100
 15017e0:	e3a03001 	mov	r3, #1
 15017e4:	e30c0d80 	movw	r0, #52608	; 0xcd80
 15017e8:	e3490804 	movt	r0, #38916	; 0x9804
 15017ec:	e7df3813 	bfi	r3, r3, #16, #16
 15017f0:	e58d3000 	str	r3, [sp]
 15017f4:	eb0004b9 	bl	1502ae0 <copy_memory>
 15017f8:	e1a01004 	mov	r1, r4
 15017fc:	e3a02c01 	mov	r2, #256	; 0x100
 1501800:	e30c0780 	movw	r0, #51072	; 0xc780
 1501804:	e3490804 	movt	r0, #38916	; 0x9804
 1501808:	eb0004b4 	bl	1502ae0 <copy_memory>
 150180c:	e3a02c01 	mov	r2, #256	; 0x100
 1501810:	e0841002 	add	r1, r4, r2
 1501814:	e3a00cc9 	mov	r0, #51456	; 0xc900
 1501818:	e3490804 	movt	r0, #38916	; 0x9804
 150181c:	e3a05903 	mov	r5, #49152	; 0xc000
 1501820:	e3495804 	movt	r5, #38916	; 0x9804
 1501824:	eb0004ad 	bl	1502ae0 <copy_memory>
 1501828:	e5943200 	ldr	r3, [r4, #512]	; 0x200
 150182c:	e6bf3f33 	rev	r3, r3
 1501830:	e5853f84 	str	r3, [r5, #3972]	; 0xf84
 1501834:	e5953f88 	ldr	r3, [r5, #3976]	; 0xf88
 1501838:	e3833102 	orr	r3, r3, #-2147483648	; 0x80000000
 150183c:	e5853f88 	str	r3, [r5, #3976]	; 0xf88
 1501840:	e5953f0c 	ldr	r3, [r5, #3852]	; 0xf0c
 1501844:	e3530023 	cmp	r3, #35	; 0x23
 1501848:	130043e9 	movwne	r4, #1001	; 0x3e9
 150184c:	1a000002 	bne	150185c <do_RSA+0xf4>
 1501850:	ea000006 	b	1501870 <do_RSA+0x108>
 1501854:	e2544001 	subs	r4, r4, #1
 1501858:	0a000015 	beq	15018b4 <do_RSA+0x14c>
 150185c:	e3a00001 	mov	r0, #1
 1501860:	eb000398 	bl	15026c8 <mdelay>
 1501864:	e5953f0c 	ldr	r3, [r5, #3852]	; 0xf0c
 1501868:	e3530023 	cmp	r3, #35	; 0x23
 150186c:	1afffff8 	bne	1501854 <do_RSA+0xec>
 1501870:	e3a02020 	mov	r2, #32
 1501874:	e1a00006 	mov	r0, r6
 1501878:	e0864002 	add	r4, r6, r2
 150187c:	e3a01cc9 	mov	r1, #51456	; 0xc900
 1501880:	e3491804 	movt	r1, #38916	; 0x9804
 1501884:	eb000495 	bl	1502ae0 <copy_memory>
 1501888:	e1a01004 	mov	r1, r4
 150188c:	e1a00006 	mov	r0, r6
 1501890:	eb000554 	bl	1502de8 <flush_cache>
 1501894:	e1a00006 	mov	r0, r6
 1501898:	ebfffdc9 	bl	1500fc4 <reverse_rsa_signature>
 150189c:	e1a00006 	mov	r0, r6
 15018a0:	e1a01004 	mov	r1, r4
 15018a4:	eb00054f 	bl	1502de8 <flush_cache>
 15018a8:	e3a00000 	mov	r0, #0
 15018ac:	e28ddc01 	add	sp, sp, #256	; 0x100
 15018b0:	e8bd8070 	pop	{r4, r5, r6, pc}
 15018b4:	e3030144 	movw	r0, #12612	; 0x3144
 15018b8:	e3400150 	movt	r0, #336	; 0x150
 15018bc:	eb0003d4 	bl	1502814 <prints>
 15018c0:	e3a00001 	mov	r0, #1
 15018c4:	e28ddc01 	add	sp, sp, #256	; 0x100
 15018c8:	e8bd8070 	pop	{r4, r5, r6, pc}
 15018cc:	e1a00005 	mov	r0, r5
 15018d0:	e3a01b33 	mov	r1, #52224	; 0xcc00
 15018d4:	e3491804 	movt	r1, #38916	; 0x9804
 15018d8:	e3a02040 	mov	r2, #64	; 0x40
 15018dc:	ebfffd05 	bl	1500cf8 <OTP_Get_Word>
 15018e0:	eaffffb4 	b	15017b8 <do_RSA+0x50>

015018e4 <SHA256_hash>:
 15018e4:	e3520000 	cmp	r2, #0
 15018e8:	13500000 	cmpne	r0, #0
 15018ec:	1a000001 	bne	15018f8 <SHA256_hash+0x14>
 15018f0:	e3a00093 	mov	r0, #147	; 0x93
 15018f4:	e12fff1e 	bx	lr
 15018f8:	e92d41f0 	push	{r4, r5, r6, r7, r8, lr}
 15018fc:	e1a07002 	mov	r7, r2
 1501900:	e1a06000 	mov	r6, r0
 1501904:	e1a04003 	mov	r4, r3
 1501908:	e1a05001 	mov	r5, r1
 150190c:	ebfffd3f 	bl	1500e10 <alloc_mcp_descriptor>
 1501910:	e250c000 	subs	ip, r0, #0
 1501914:	0a000019 	beq	1501980 <SHA256_hash+0x9c>
 1501918:	e3540000 	cmp	r4, #0
 150191c:	e3a0300b 	mov	r3, #11
 1501920:	e58c3000 	str	r3, [ip]
 1501924:	0a000017 	beq	1501988 <SHA256_hash+0xa4>
 1501928:	e5943000 	ldr	r3, [r4]
 150192c:	e58c3004 	str	r3, [ip, #4]
 1501930:	e5943004 	ldr	r3, [r4, #4]
 1501934:	e58c3008 	str	r3, [ip, #8]
 1501938:	e5943008 	ldr	r3, [r4, #8]
 150193c:	e58c300c 	str	r3, [ip, #12]
 1501940:	e594300c 	ldr	r3, [r4, #12]
 1501944:	e58c3010 	str	r3, [ip, #16]
 1501948:	e5943010 	ldr	r3, [r4, #16]
 150194c:	e58c3014 	str	r3, [ip, #20]
 1501950:	e5943014 	ldr	r3, [r4, #20]
 1501954:	e58c3018 	str	r3, [ip, #24]
 1501958:	e5943018 	ldr	r3, [r4, #24]
 150195c:	e58c301c 	str	r3, [ip, #28]
 1501960:	e594301c 	ldr	r3, [r4, #28]
 1501964:	e58c3020 	str	r3, [ip, #32]
 1501968:	e58c602c 	str	r6, [ip, #44]	; 0x2c
 150196c:	e1a0000c 	mov	r0, ip
 1501970:	e58c7030 	str	r7, [ip, #48]	; 0x30
 1501974:	e58c5034 	str	r5, [ip, #52]	; 0x34
 1501978:	e8bd41f0 	pop	{r4, r5, r6, r7, r8, lr}
 150197c:	eafffd4c 	b	1500eb4 <do_mcp>
 1501980:	e3a00094 	mov	r0, #148	; 0x94
 1501984:	e8bd81f0 	pop	{r4, r5, r6, r7, r8, pc}
 1501988:	e30e2667 	movw	r2, #58983	; 0xe667
 150198c:	e3462a09 	movt	r2, #27145	; 0x6a09
 1501990:	e30a3e85 	movw	r3, #44677	; 0xae85
 1501994:	e34b3b67 	movt	r3, #47975	; 0xbb67
 1501998:	e58c2004 	str	r2, [ip, #4]
 150199c:	e30f2372 	movw	r2, #62322	; 0xf372
 15019a0:	e3432c6e 	movt	r2, #15470	; 0x3c6e
 15019a4:	e58c200c 	str	r2, [ip, #12]
 15019a8:	e58c3008 	str	r3, [ip, #8]
 15019ac:	e305227f 	movw	r2, #21119	; 0x527f
 15019b0:	e345210e 	movt	r2, #20750	; 0x510e
 15019b4:	e58c2014 	str	r2, [ip, #20]
 15019b8:	e30f353a 	movw	r3, #62778	; 0xf53a
 15019bc:	e34a354f 	movt	r3, #42319	; 0xa54f
 15019c0:	e30d29ab 	movw	r2, #55723	; 0xd9ab
 15019c4:	e3412f83 	movt	r2, #8067	; 0x1f83
 15019c8:	e58c3010 	str	r3, [ip, #16]
 15019cc:	e306388c 	movw	r3, #26764	; 0x688c
 15019d0:	e3493b05 	movt	r3, #39685	; 0x9b05
 15019d4:	e58c3018 	str	r3, [ip, #24]
 15019d8:	e58c201c 	str	r2, [ip, #28]
 15019dc:	e30c3d19 	movw	r3, #52505	; 0xcd19
 15019e0:	e3453be0 	movt	r3, #23520	; 0x5be0
 15019e4:	e58c3020 	str	r3, [ip, #32]
 15019e8:	eaffffde 	b	1501968 <SHA256_hash+0x84>

015019ec <reverse_signature>:
 15019ec:	e2402001 	sub	r2, r0, #1
 15019f0:	e2803c01 	add	r3, r0, #256	; 0x100
 15019f4:	e280c080 	add	ip, r0, #128	; 0x80
 15019f8:	e5730001 	ldrb	r0, [r3, #-1]!
 15019fc:	e5f21001 	ldrb	r1, [r2, #1]!
 1501a00:	e153000c 	cmp	r3, ip
 1501a04:	e5c20000 	strb	r0, [r2]
 1501a08:	e5c31000 	strb	r1, [r3]
 1501a0c:	1afffff9 	bne	15019f8 <reverse_signature+0xc>
 1501a10:	e12fff1e 	bx	lr

01501a14 <R1>:
 1501a14:	e92d40f0 	push	{r4, r5, r6, r7, lr}
 1501a18:	e1a07000 	mov	r7, r0
 1501a1c:	e1a06001 	mov	r6, r1
 1501a20:	e24dd014 	sub	sp, sp, #20
 1501a24:	e3a01000 	mov	r1, #0
 1501a28:	e1a0000d 	mov	r0, sp
 1501a2c:	e30346f8 	movw	r4, #14072	; 0x36f8
 1501a30:	e3404151 	movt	r4, #337	; 0x151
 1501a34:	e1a05002 	mov	r5, r2
 1501a38:	eb000418 	bl	1502aa0 <memset>
 1501a3c:	e1a00004 	mov	r0, r4
 1501a40:	e3a02b01 	mov	r2, #1024	; 0x400
 1501a44:	e3a01000 	mov	r1, #0
 1501a48:	e3a0307e 	mov	r3, #126	; 0x7e
 1501a4c:	e5cd3000 	strb	r3, [sp]
 1501a50:	e3e03055 	mvn	r3, #85	; 0x55
 1501a54:	e5cd3001 	strb	r3, [sp, #1]
 1501a58:	e3a03025 	mov	r3, #37	; 0x25
 1501a5c:	e5cd3002 	strb	r3, [sp, #2]
 1501a60:	e3a03047 	mov	r3, #71	; 0x47
 1501a64:	e5cd3003 	strb	r3, [sp, #3]
 1501a68:	e3a03074 	mov	r3, #116	; 0x74
 1501a6c:	e5cd3004 	strb	r3, [sp, #4]
 1501a70:	e3a03005 	mov	r3, #5
 1501a74:	e5cd3005 	strb	r3, [sp, #5]
 1501a78:	e3a03030 	mov	r3, #48	; 0x30
 1501a7c:	e5cd3006 	strb	r3, [sp, #6]
 1501a80:	e3a03077 	mov	r3, #119	; 0x77
 1501a84:	e5cd3007 	strb	r3, [sp, #7]
 1501a88:	e3e0301b 	mvn	r3, #27
 1501a8c:	e5cd3008 	strb	r3, [sp, #8]
 1501a90:	e3a03068 	mov	r3, #104	; 0x68
 1501a94:	e5cd3009 	strb	r3, [sp, #9]
 1501a98:	e3a0300b 	mov	r3, #11
 1501a9c:	e5cd300a 	strb	r3, [sp, #10]
 1501aa0:	e3a0302d 	mov	r3, #45	; 0x2d
 1501aa4:	e5cd300b 	strb	r3, [sp, #11]
 1501aa8:	e3e0302e 	mvn	r3, #46	; 0x2e
 1501aac:	e5cd300c 	strb	r3, [sp, #12]
 1501ab0:	e3e03035 	mvn	r3, #53	; 0x35
 1501ab4:	e5cd300d 	strb	r3, [sp, #13]
 1501ab8:	e3e0300e 	mvn	r3, #14
 1501abc:	e5cd300e 	strb	r3, [sp, #14]
 1501ac0:	e3a03060 	mov	r3, #96	; 0x60
 1501ac4:	e5cd300f 	strb	r3, [sp, #15]
 1501ac8:	eb0003f4 	bl	1502aa0 <memset>
 1501acc:	e3570000 	cmp	r7, #0
 1501ad0:	1a000025 	bne	1501b6c <R1+0x158>
 1501ad4:	e1a0300d 	mov	r3, sp
 1501ad8:	e1a02004 	mov	r2, r4
 1501adc:	e1a01005 	mov	r1, r5
 1501ae0:	e1a00006 	mov	r0, r6
 1501ae4:	ebfffe1a 	bl	1501354 <AES_ECB_decrypt>
 1501ae8:	e1a01005 	mov	r1, r5
 1501aec:	e1a00004 	mov	r0, r4
 1501af0:	eb0004bc 	bl	1502de8 <flush_cache>
 1501af4:	e5dd3001 	ldrb	r3, [sp, #1]
 1501af8:	e5d42001 	ldrb	r2, [r4, #1]
 1501afc:	e1a00004 	mov	r0, r4
 1501b00:	e5ddc004 	ldrb	ip, [sp, #4]
 1501b04:	e1a01005 	mov	r1, r5
 1501b08:	e0222003 	eor	r2, r2, r3
 1501b0c:	e5d43004 	ldrb	r3, [r4, #4]
 1501b10:	e5c42001 	strb	r2, [r4, #1]
 1501b14:	e023300c 	eor	r3, r3, ip
 1501b18:	e5d42008 	ldrb	r2, [r4, #8]
 1501b1c:	e5dde008 	ldrb	lr, [sp, #8]
 1501b20:	e5c43004 	strb	r3, [r4, #4]
 1501b24:	e5ddc00a 	ldrb	ip, [sp, #10]
 1501b28:	e022200e 	eor	r2, r2, lr
 1501b2c:	e5d4300a 	ldrb	r3, [r4, #10]
 1501b30:	e5c42008 	strb	r2, [r4, #8]
 1501b34:	e023300c 	eor	r3, r3, ip
 1501b38:	e5c4300a 	strb	r3, [r4, #10]
 1501b3c:	eb0004a9 	bl	1502de8 <flush_cache>
 1501b40:	e1a02005 	mov	r2, r5
 1501b44:	e3a01000 	mov	r1, #0
 1501b48:	e1a0000d 	mov	r0, sp
 1501b4c:	eb0003d3 	bl	1502aa0 <memset>
 1501b50:	e1a01005 	mov	r1, r5
 1501b54:	e1a0000d 	mov	r0, sp
 1501b58:	eb0004a2 	bl	1502de8 <flush_cache>
 1501b5c:	e30306f8 	movw	r0, #14072	; 0x36f8
 1501b60:	e3400151 	movt	r0, #337	; 0x151
 1501b64:	e28dd014 	add	sp, sp, #20
 1501b68:	e8bd80f0 	pop	{r4, r5, r6, r7, pc}
 1501b6c:	e5d61001 	ldrb	r1, [r6, #1]
 1501b70:	e1a00006 	mov	r0, r6
 1501b74:	e5dd2001 	ldrb	r2, [sp, #1]
 1501b78:	e1a0300d 	mov	r3, sp
 1501b7c:	e5d6c004 	ldrb	ip, [r6, #4]
 1501b80:	e0222001 	eor	r2, r2, r1
 1501b84:	e5dd1004 	ldrb	r1, [sp, #4]
 1501b88:	e5d6e008 	ldrb	lr, [r6, #8]
 1501b8c:	e021100c 	eor	r1, r1, ip
 1501b90:	e5ddc008 	ldrb	ip, [sp, #8]
 1501b94:	e5d6700a 	ldrb	r7, [r6, #10]
 1501b98:	e02ee00c 	eor	lr, lr, ip
 1501b9c:	e5ddc00a 	ldrb	ip, [sp, #10]
 1501ba0:	e5c62001 	strb	r2, [r6, #1]
 1501ba4:	e1a02004 	mov	r2, r4
 1501ba8:	e5c61004 	strb	r1, [r6, #4]
 1501bac:	e02cc007 	eor	ip, ip, r7
 1501bb0:	e1a01005 	mov	r1, r5
 1501bb4:	e5c6e008 	strb	lr, [r6, #8]
 1501bb8:	e5c6c00a 	strb	ip, [r6, #10]
 1501bbc:	ebfffe09 	bl	15013e8 <AES_ECB_encrypt>
 1501bc0:	e1a01005 	mov	r1, r5
 1501bc4:	e1a00004 	mov	r0, r4
 1501bc8:	eb000486 	bl	1502de8 <flush_cache>
 1501bcc:	eaffffdb 	b	1501b40 <R1+0x12c>

01501bd0 <R0>:
 1501bd0:	e92d41f0 	push	{r4, r5, r6, r7, r8, lr}
 1501bd4:	e30386f8 	movw	r8, #14072	; 0x36f8
 1501bd8:	e3408151 	movt	r8, #337	; 0x151
 1501bdc:	e2424001 	sub	r4, r2, #1
 1501be0:	e1a05002 	mov	r5, r2
 1501be4:	e1a06000 	mov	r6, r0
 1501be8:	e1a07001 	mov	r7, r1
 1501bec:	e0884004 	add	r4, r8, r4
 1501bf0:	eb0002e1 	bl	150277c <sync>
 1501bf4:	e1a02006 	mov	r2, r6
 1501bf8:	e1a01005 	mov	r1, r5
 1501bfc:	e1a00007 	mov	r0, r7
 1501c00:	ebfffb39 	bl	15008ec <start_program>
 1501c04:	eb0002dc 	bl	150277c <sync>
 1501c08:	e1a02005 	mov	r2, r5
 1501c0c:	e3a01000 	mov	r1, #0
 1501c10:	e30306f8 	movw	r0, #14072	; 0x36f8
 1501c14:	e3400151 	movt	r0, #337	; 0x151
 1501c18:	eb0003a0 	bl	1502aa0 <memset>
 1501c1c:	e1a02005 	mov	r2, r5
 1501c20:	e30316f8 	movw	r1, #14072	; 0x36f8
 1501c24:	e3401151 	movt	r1, #337	; 0x151
 1501c28:	e1a00007 	mov	r0, r7
 1501c2c:	ebfffc51 	bl	1500d78 <OTP_Get_Byte>
 1501c30:	e1a01005 	mov	r1, r5
 1501c34:	e30306f8 	movw	r0, #14072	; 0x36f8
 1501c38:	e3400151 	movt	r0, #337	; 0x151
 1501c3c:	eb000469 	bl	1502de8 <flush_cache>
 1501c40:	eb0002cd 	bl	150277c <sync>
 1501c44:	eb0002cc 	bl	150277c <sync>
 1501c48:	e3550000 	cmp	r5, #0
 1501c4c:	0a00000d 	beq	1501c88 <R0+0xb8>
 1501c50:	e5d83000 	ldrb	r3, [r8]
 1501c54:	e5d62000 	ldrb	r2, [r6]
 1501c58:	e1520003 	cmp	r2, r3
 1501c5c:	030336f8 	movweq	r3, #14072	; 0x36f8
 1501c60:	01a02006 	moveq	r2, r6
 1501c64:	03403151 	movteq	r3, #337	; 0x151
 1501c68:	0a000004 	beq	1501c80 <R0+0xb0>
 1501c6c:	ea00000a 	b	1501c9c <R0+0xcc>
 1501c70:	e5f20001 	ldrb	r0, [r2, #1]!
 1501c74:	e5f31001 	ldrb	r1, [r3, #1]!
 1501c78:	e1500001 	cmp	r0, r1
 1501c7c:	1a000006 	bne	1501c9c <R0+0xcc>
 1501c80:	e1530004 	cmp	r3, r4
 1501c84:	1afffff9 	bne	1501c70 <R0+0xa0>
 1501c88:	e3030168 	movw	r0, #12648	; 0x3168
 1501c8c:	e3400150 	movt	r0, #336	; 0x150
 1501c90:	eb0002df 	bl	1502814 <prints>
 1501c94:	e3a00000 	mov	r0, #0
 1501c98:	e8bd81f0 	pop	{r4, r5, r6, r7, r8, pc}
 1501c9c:	e30326f0 	movw	r2, #14064	; 0x36f0
 1501ca0:	e3402151 	movt	r2, #337	; 0x151
 1501ca4:	e5d23000 	ldrb	r3, [r2]
 1501ca8:	e2833001 	add	r3, r3, #1
 1501cac:	e6ef3073 	uxtb	r3, r3
 1501cb0:	e5c23000 	strb	r3, [r2]
 1501cb4:	e3530004 	cmp	r3, #4
 1501cb8:	9affffcc 	bls	1501bf0 <R0+0x20>
 1501cbc:	e3a00001 	mov	r0, #1
 1501cc0:	e8bd81f0 	pop	{r4, r5, r6, r7, r8, pc}

01501cc4 <obfuse_getset>:
 1501cc4:	e92d4ff0 	push	{r4, r5, r6, r7, r8, r9, sl, fp, lr}
 1501cc8:	e303caf8 	movw	ip, #15096	; 0x3af8
 1501ccc:	e340c151 	movt	ip, #337	; 0x151
 1501cd0:	e24ddf9b 	sub	sp, sp, #620	; 0x26c
 1501cd4:	e3a06000 	mov	r6, #0
 1501cd8:	e303e158 	movw	lr, #12632	; 0x3158
 1501cdc:	e340e150 	movt	lr, #336	; 0x150
 1501ce0:	e1a04000 	mov	r4, r0
 1501ce4:	e1a09001 	mov	r9, r1
 1501ce8:	e58d6004 	str	r6, [sp, #4]
 1501cec:	e1a0a002 	mov	sl, r2
 1501cf0:	e58dc004 	str	ip, [sp, #4]
 1501cf4:	e28dc008 	add	ip, sp, #8
 1501cf8:	e59d5004 	ldr	r5, [sp, #4]
 1501cfc:	e1a0b003 	mov	fp, r3
 1501d00:	e59e0000 	ldr	r0, [lr]
 1501d04:	e3e08077 	mvn	r8, #119	; 0x77
 1501d08:	e3c5500f 	bic	r5, r5, #15
 1501d0c:	e58d5004 	str	r5, [sp, #4]
 1501d10:	e59d5004 	ldr	r5, [sp, #4]
 1501d14:	e3a07053 	mov	r7, #83	; 0x53
 1501d18:	e59e1004 	ldr	r1, [lr, #4]
 1501d1c:	e59e2008 	ldr	r2, [lr, #8]
 1501d20:	e2855010 	add	r5, r5, #16
 1501d24:	e59e300c 	ldr	r3, [lr, #12]
 1501d28:	e8ac000f 	stmia	ip!, {r0, r1, r2, r3}
 1501d2c:	e58d5004 	str	r5, [sp, #4]
 1501d30:	e1a01006 	mov	r1, r6
 1501d34:	e28d0068 	add	r0, sp, #104	; 0x68
 1501d38:	e3a02c02 	mov	r2, #512	; 0x200
 1501d3c:	e3a0c023 	mov	ip, #35	; 0x23
 1501d40:	e3e0305f 	mvn	r3, #95	; 0x5f
 1501d44:	e5cdc009 	strb	ip, [sp, #9]
 1501d48:	e3a0c03e 	mov	ip, #62	; 0x3e
 1501d4c:	e5cd300a 	strb	r3, [sp, #10]
 1501d50:	e3a0305f 	mov	r3, #95	; 0x5f
 1501d54:	e59d5004 	ldr	r5, [sp, #4]
 1501d58:	e5cd300c 	strb	r3, [sp, #12]
 1501d5c:	e3e0305e 	mvn	r3, #94	; 0x5e
 1501d60:	e5cd8008 	strb	r8, [sp, #8]
 1501d64:	e5cd300e 	strb	r3, [sp, #14]
 1501d68:	e3e03036 	mvn	r3, #54	; 0x36
 1501d6c:	e5cdc00b 	strb	ip, [sp, #11]
 1501d70:	e5cd300f 	strb	r3, [sp, #15]
 1501d74:	e3e0300d 	mvn	r3, #13
 1501d78:	e5cd700d 	strb	r7, [sp, #13]
 1501d7c:	e5cd3010 	strb	r3, [sp, #16]
 1501d80:	e3a03060 	mov	r3, #96	; 0x60
 1501d84:	e5cd3011 	strb	r3, [sp, #17]
 1501d88:	e3e03072 	mvn	r3, #114	; 0x72
 1501d8c:	e5cd3012 	strb	r3, [sp, #18]
 1501d90:	e3a03079 	mov	r3, #121	; 0x79
 1501d94:	e5cd3013 	strb	r3, [sp, #19]
 1501d98:	e3e03054 	mvn	r3, #84	; 0x54
 1501d9c:	e5cd3014 	strb	r3, [sp, #20]
 1501da0:	e3e03057 	mvn	r3, #87	; 0x57
 1501da4:	e5cd3015 	strb	r3, [sp, #21]
 1501da8:	e3e03037 	mvn	r3, #55	; 0x37
 1501dac:	e5cd3016 	strb	r3, [sp, #22]
 1501db0:	e3e0302f 	mvn	r3, #47	; 0x2f
 1501db4:	e5cd3017 	strb	r3, [sp, #23]
 1501db8:	eb000338 	bl	1502aa0 <memset>
 1501dbc:	e3540001 	cmp	r4, #1
 1501dc0:	0a00009e 	beq	1502040 <obfuse_getset+0x37c>
 1501dc4:	3a000095 	bcc	1502020 <obfuse_getset+0x35c>
 1501dc8:	e3540002 	cmp	r4, #2
 1501dcc:	0a000002 	beq	1501ddc <obfuse_getset+0x118>
 1501dd0:	e3a00001 	mov	r0, #1
 1501dd4:	e28ddf9b 	add	sp, sp, #620	; 0x26c
 1501dd8:	e8bd8ff0 	pop	{r4, r5, r6, r7, r8, r9, sl, fp, pc}
 1501ddc:	e59d3294 	ldr	r3, [sp, #660]	; 0x294
 1501de0:	e1a01009 	mov	r1, r9
 1501de4:	e28d0068 	add	r0, sp, #104	; 0x68
 1501de8:	e30376f0 	movw	r7, #14064	; 0x36f0
 1501dec:	e3407151 	movt	r7, #337	; 0x151
 1501df0:	e3c3400f 	bic	r4, r3, #15
 1501df4:	e1a02004 	mov	r2, r4
 1501df8:	ebfff93a 	bl	15002e8 <memcpy>
 1501dfc:	e28d3008 	add	r3, sp, #8
 1501e00:	e1a02005 	mov	r2, r5
 1501e04:	e1a01004 	mov	r1, r4
 1501e08:	e28d0068 	add	r0, sp, #104	; 0x68
 1501e0c:	ebfffd50 	bl	1501354 <AES_ECB_decrypt>
 1501e10:	e1a01004 	mov	r1, r4
 1501e14:	e1a00005 	mov	r0, r5
 1501e18:	eb0003f2 	bl	1502de8 <flush_cache>
 1501e1c:	e1a02004 	mov	r2, r4
 1501e20:	e1a01005 	mov	r1, r5
 1501e24:	e28d0028 	add	r0, sp, #40	; 0x28
 1501e28:	ebfff92e 	bl	15002e8 <memcpy>
 1501e2c:	e1a01004 	mov	r1, r4
 1501e30:	e28d0028 	add	r0, sp, #40	; 0x28
 1501e34:	eb0003eb 	bl	1502de8 <flush_cache>
 1501e38:	e1a01004 	mov	r1, r4
 1501e3c:	e1a0000a 	mov	r0, sl
 1501e40:	eb0003e8 	bl	1502de8 <flush_cache>
 1501e44:	e1a02004 	mov	r2, r4
 1501e48:	e1a0100a 	mov	r1, sl
 1501e4c:	e28d0068 	add	r0, sp, #104	; 0x68
 1501e50:	ebfff924 	bl	15002e8 <memcpy>
 1501e54:	e1a01004 	mov	r1, r4
 1501e58:	e28d0068 	add	r0, sp, #104	; 0x68
 1501e5c:	eb0003e1 	bl	1502de8 <flush_cache>
 1501e60:	e28d3008 	add	r3, sp, #8
 1501e64:	e1a02005 	mov	r2, r5
 1501e68:	e1a01004 	mov	r1, r4
 1501e6c:	e28d0068 	add	r0, sp, #104	; 0x68
 1501e70:	ebfffd37 	bl	1501354 <AES_ECB_decrypt>
 1501e74:	e1a01004 	mov	r1, r4
 1501e78:	e1a00005 	mov	r0, r5
 1501e7c:	eb0003d9 	bl	1502de8 <flush_cache>
 1501e80:	e1a02004 	mov	r2, r4
 1501e84:	e1a01005 	mov	r1, r5
 1501e88:	e28d0038 	add	r0, sp, #56	; 0x38
 1501e8c:	ebfff915 	bl	15002e8 <memcpy>
 1501e90:	e1a01004 	mov	r1, r4
 1501e94:	e28d0038 	add	r0, sp, #56	; 0x38
 1501e98:	eb0003d2 	bl	1502de8 <flush_cache>
 1501e9c:	e1a01004 	mov	r1, r4
 1501ea0:	e1a0000b 	mov	r0, fp
 1501ea4:	eb0003cf 	bl	1502de8 <flush_cache>
 1501ea8:	e1a02004 	mov	r2, r4
 1501eac:	e1a0100b 	mov	r1, fp
 1501eb0:	e28d0068 	add	r0, sp, #104	; 0x68
 1501eb4:	ebfff90b 	bl	15002e8 <memcpy>
 1501eb8:	e1a01004 	mov	r1, r4
 1501ebc:	e28d0068 	add	r0, sp, #104	; 0x68
 1501ec0:	eb0003c8 	bl	1502de8 <flush_cache>
 1501ec4:	e28d3008 	add	r3, sp, #8
 1501ec8:	e1a02005 	mov	r2, r5
 1501ecc:	e1a01004 	mov	r1, r4
 1501ed0:	e28d0068 	add	r0, sp, #104	; 0x68
 1501ed4:	ebfffd1e 	bl	1501354 <AES_ECB_decrypt>
 1501ed8:	e1a01004 	mov	r1, r4
 1501edc:	e1a00005 	mov	r0, r5
 1501ee0:	eb0003c0 	bl	1502de8 <flush_cache>
 1501ee4:	e1a02004 	mov	r2, r4
 1501ee8:	e1a01005 	mov	r1, r5
 1501eec:	e28d0048 	add	r0, sp, #72	; 0x48
 1501ef0:	ebfff8fc 	bl	15002e8 <memcpy>
 1501ef4:	e1a01004 	mov	r1, r4
 1501ef8:	e28d0048 	add	r0, sp, #72	; 0x48
 1501efc:	eb0003b9 	bl	1502de8 <flush_cache>
 1501f00:	e1a01004 	mov	r1, r4
 1501f04:	e59d0290 	ldr	r0, [sp, #656]	; 0x290
 1501f08:	eb0003b6 	bl	1502de8 <flush_cache>
 1501f0c:	e1a02004 	mov	r2, r4
 1501f10:	e59d1290 	ldr	r1, [sp, #656]	; 0x290
 1501f14:	e28d0068 	add	r0, sp, #104	; 0x68
 1501f18:	ebfff8f2 	bl	15002e8 <memcpy>
 1501f1c:	e1a01004 	mov	r1, r4
 1501f20:	e28d0068 	add	r0, sp, #104	; 0x68
 1501f24:	eb0003af 	bl	1502de8 <flush_cache>
 1501f28:	e28d3008 	add	r3, sp, #8
 1501f2c:	e1a02005 	mov	r2, r5
 1501f30:	e1a01004 	mov	r1, r4
 1501f34:	e28d0068 	add	r0, sp, #104	; 0x68
 1501f38:	ebfffd05 	bl	1501354 <AES_ECB_decrypt>
 1501f3c:	e1a01004 	mov	r1, r4
 1501f40:	e1a00005 	mov	r0, r5
 1501f44:	eb0003a7 	bl	1502de8 <flush_cache>
 1501f48:	e1a02004 	mov	r2, r4
 1501f4c:	e1a01005 	mov	r1, r5
 1501f50:	e28d0058 	add	r0, sp, #88	; 0x58
 1501f54:	ebfff8e3 	bl	15002e8 <memcpy>
 1501f58:	e1a01004 	mov	r1, r4
 1501f5c:	e28d0058 	add	r0, sp, #88	; 0x58
 1501f60:	eb0003a0 	bl	1502de8 <flush_cache>
 1501f64:	e1a01006 	mov	r1, r6
 1501f68:	e1a02004 	mov	r2, r4
 1501f6c:	e28d0018 	add	r0, sp, #24
 1501f70:	eb0002ca 	bl	1502aa0 <memset>
 1501f74:	e1a02004 	mov	r2, r4
 1501f78:	e28d1018 	add	r1, sp, #24
 1501f7c:	e3a00a01 	mov	r0, #4096	; 0x1000
 1501f80:	ebfffb7c 	bl	1500d78 <OTP_Get_Byte>
 1501f84:	e1a01004 	mov	r1, r4
 1501f88:	e28d0018 	add	r0, sp, #24
 1501f8c:	eb000395 	bl	1502de8 <flush_cache>
 1501f90:	eb0001f9 	bl	150277c <sync>
 1501f94:	e28d3028 	add	r3, sp, #40	; 0x28
 1501f98:	e28d2068 	add	r2, sp, #104	; 0x68
 1501f9c:	e1a01004 	mov	r1, r4
 1501fa0:	e28d0018 	add	r0, sp, #24
 1501fa4:	ebfffd0f 	bl	15013e8 <AES_ECB_encrypt>
 1501fa8:	e1a01004 	mov	r1, r4
 1501fac:	e28d0068 	add	r0, sp, #104	; 0x68
 1501fb0:	eb00038c 	bl	1502de8 <flush_cache>
 1501fb4:	e1a01006 	mov	r1, r6
 1501fb8:	e1a02004 	mov	r2, r4
 1501fbc:	e28d0018 	add	r0, sp, #24
 1501fc0:	eb0002b6 	bl	1502aa0 <memset>
 1501fc4:	e28d3068 	add	r3, sp, #104	; 0x68
 1501fc8:	e1a02005 	mov	r2, r5
 1501fcc:	e1a01004 	mov	r1, r4
 1501fd0:	e28d0038 	add	r0, sp, #56	; 0x38
 1501fd4:	ebfffd03 	bl	15013e8 <AES_ECB_encrypt>
 1501fd8:	e1a01004 	mov	r1, r4
 1501fdc:	e1a00005 	mov	r0, r5
 1501fe0:	eb000380 	bl	1502de8 <flush_cache>
 1501fe4:	e1a01004 	mov	r1, r4
 1501fe8:	e28d0038 	add	r0, sp, #56	; 0x38
 1501fec:	eb00037d 	bl	1502de8 <flush_cache>
 1501ff0:	e1a02004 	mov	r2, r4
 1501ff4:	e3a01d26 	mov	r1, #2432	; 0x980
 1501ff8:	e1a00005 	mov	r0, r5
 1501ffc:	e5c76000 	strb	r6, [r7]
 1502000:	ebfffef2 	bl	1501bd0 <R0>
 1502004:	e1a06000 	mov	r6, r0
 1502008:	eb0001db 	bl	150277c <sync>
 150200c:	e3560000 	cmp	r6, #0
 1502010:	0a00008c 	beq	1502248 <obfuse_getset+0x584>
 1502014:	e1a00006 	mov	r0, r6
 1502018:	e28ddf9b 	add	sp, sp, #620	; 0x26c
 150201c:	e8bd8ff0 	pop	{r4, r5, r6, r7, r8, r9, sl, fp, pc}
 1502020:	e59d2294 	ldr	r2, [sp, #660]	; 0x294
 1502024:	e3a01ed2 	mov	r1, #3360	; 0xd20
 1502028:	e1a00009 	mov	r0, r9
 150202c:	ebfffee7 	bl	1501bd0 <R0>
 1502030:	eb0001d1 	bl	150277c <sync>
 1502034:	e3a00001 	mov	r0, #1
 1502038:	e28ddf9b 	add	sp, sp, #620	; 0x26c
 150203c:	e8bd8ff0 	pop	{r4, r5, r6, r7, r8, r9, sl, fp, pc}
 1502040:	e59d3294 	ldr	r3, [sp, #660]	; 0x294
 1502044:	e1a01006 	mov	r1, r6
 1502048:	e3a02010 	mov	r2, #16
 150204c:	e28d0018 	add	r0, sp, #24
 1502050:	e3c3400f 	bic	r4, r3, #15
 1502054:	eb000291 	bl	1502aa0 <memset>
 1502058:	e1a01009 	mov	r1, r9
 150205c:	e1a02004 	mov	r2, r4
 1502060:	e28d0068 	add	r0, sp, #104	; 0x68
 1502064:	e5cd701f 	strb	r7, [sp, #31]
 1502068:	e3a03022 	mov	r3, #34	; 0x22
 150206c:	e5cd801d 	strb	r8, [sp, #29]
 1502070:	e5cd3019 	strb	r3, [sp, #25]
 1502074:	e3a0c07a 	mov	ip, #122	; 0x7a
 1502078:	e5cd3024 	strb	r3, [sp, #36]	; 0x24
 150207c:	e3e0706b 	mvn	r7, #107	; 0x6b
 1502080:	e5cdc018 	strb	ip, [sp, #24]
 1502084:	e3e0e061 	mvn	lr, #97	; 0x61
 1502088:	e5cd701a 	strb	r7, [sp, #26]
 150208c:	e3a0c041 	mov	ip, #65	; 0x41
 1502090:	e5cde01b 	strb	lr, [sp, #27]
 1502094:	e3a03062 	mov	r3, #98	; 0x62
 1502098:	e5cdc01c 	strb	ip, [sp, #28]
 150209c:	e3a0e004 	mov	lr, #4
 15020a0:	e5cd301e 	strb	r3, [sp, #30]
 15020a4:	e3a0c002 	mov	ip, #2
 15020a8:	e5cde020 	strb	lr, [sp, #32]
 15020ac:	e3e0307d 	mvn	r3, #125	; 0x7d
 15020b0:	e3a0e061 	mov	lr, #97	; 0x61
 15020b4:	e5cdc021 	strb	ip, [sp, #33]	; 0x21
 15020b8:	e5cde025 	strb	lr, [sp, #37]	; 0x25
 15020bc:	e3a0c011 	mov	ip, #17
 15020c0:	e5cd3023 	strb	r3, [sp, #35]	; 0x23
 15020c4:	e3e0305d 	mvn	r3, #93	; 0x5d
 15020c8:	e5cdc026 	strb	ip, [sp, #38]	; 0x26
 15020cc:	e5cd3027 	strb	r3, [sp, #39]	; 0x27
 15020d0:	e5cd6022 	strb	r6, [sp, #34]	; 0x22
 15020d4:	ebfff883 	bl	15002e8 <memcpy>
 15020d8:	e28d3008 	add	r3, sp, #8
 15020dc:	e1a02005 	mov	r2, r5
 15020e0:	e1a01004 	mov	r1, r4
 15020e4:	e28d0068 	add	r0, sp, #104	; 0x68
 15020e8:	ebfffc99 	bl	1501354 <AES_ECB_decrypt>
 15020ec:	e1a01004 	mov	r1, r4
 15020f0:	e1a00005 	mov	r0, r5
 15020f4:	eb00033b 	bl	1502de8 <flush_cache>
 15020f8:	e1a02004 	mov	r2, r4
 15020fc:	e1a01005 	mov	r1, r5
 1502100:	e28d0028 	add	r0, sp, #40	; 0x28
 1502104:	ebfff877 	bl	15002e8 <memcpy>
 1502108:	e1a01004 	mov	r1, r4
 150210c:	e28d0028 	add	r0, sp, #40	; 0x28
 1502110:	eb000334 	bl	1502de8 <flush_cache>
 1502114:	e1a02004 	mov	r2, r4
 1502118:	e1a01006 	mov	r1, r6
 150211c:	e1a00005 	mov	r0, r5
 1502120:	eb00025e 	bl	1502aa0 <memset>
 1502124:	e1a02004 	mov	r2, r4
 1502128:	e1a0100a 	mov	r1, sl
 150212c:	e28d0068 	add	r0, sp, #104	; 0x68
 1502130:	ebfff86c 	bl	15002e8 <memcpy>
 1502134:	e28d3008 	add	r3, sp, #8
 1502138:	e1a02005 	mov	r2, r5
 150213c:	e1a01004 	mov	r1, r4
 1502140:	e28d0068 	add	r0, sp, #104	; 0x68
 1502144:	ebfffc82 	bl	1501354 <AES_ECB_decrypt>
 1502148:	e1a01004 	mov	r1, r4
 150214c:	e1a00005 	mov	r0, r5
 1502150:	eb000324 	bl	1502de8 <flush_cache>
 1502154:	e1a02004 	mov	r2, r4
 1502158:	e1a01005 	mov	r1, r5
 150215c:	e28d0038 	add	r0, sp, #56	; 0x38
 1502160:	ebfff860 	bl	15002e8 <memcpy>
 1502164:	e1a01004 	mov	r1, r4
 1502168:	e28d0038 	add	r0, sp, #56	; 0x38
 150216c:	eb00031d 	bl	1502de8 <flush_cache>
 1502170:	e1a02004 	mov	r2, r4
 1502174:	e1a01006 	mov	r1, r6
 1502178:	e1a00005 	mov	r0, r5
 150217c:	eb000247 	bl	1502aa0 <memset>
 1502180:	e28d3028 	add	r3, sp, #40	; 0x28
 1502184:	e28d2068 	add	r2, sp, #104	; 0x68
 1502188:	e1a01004 	mov	r1, r4
 150218c:	e28d0018 	add	r0, sp, #24
 1502190:	ebfffc94 	bl	15013e8 <AES_ECB_encrypt>
 1502194:	e1a01004 	mov	r1, r4
 1502198:	e28d0068 	add	r0, sp, #104	; 0x68
 150219c:	eb000311 	bl	1502de8 <flush_cache>
 15021a0:	e1a02004 	mov	r2, r4
 15021a4:	e1a01006 	mov	r1, r6
 15021a8:	e28d0018 	add	r0, sp, #24
 15021ac:	eb00023b 	bl	1502aa0 <memset>
 15021b0:	e28d3068 	add	r3, sp, #104	; 0x68
 15021b4:	e1a02005 	mov	r2, r5
 15021b8:	e1a01004 	mov	r1, r4
 15021bc:	e28d0038 	add	r0, sp, #56	; 0x38
 15021c0:	ebfffc88 	bl	15013e8 <AES_ECB_encrypt>
 15021c4:	e1a01004 	mov	r1, r4
 15021c8:	e1a00005 	mov	r0, r5
 15021cc:	eb000305 	bl	1502de8 <flush_cache>
 15021d0:	e1a02004 	mov	r2, r4
 15021d4:	e1a01006 	mov	r1, r6
 15021d8:	e28d0038 	add	r0, sp, #56	; 0x38
 15021dc:	eb00022f 	bl	1502aa0 <memset>
 15021e0:	e1a02004 	mov	r2, r4
 15021e4:	e1a01006 	mov	r1, r6
 15021e8:	e28d0068 	add	r0, sp, #104	; 0x68
 15021ec:	eb00022b 	bl	1502aa0 <memset>
 15021f0:	e1a01004 	mov	r1, r4
 15021f4:	e28d0038 	add	r0, sp, #56	; 0x38
 15021f8:	eb0002fa 	bl	1502de8 <flush_cache>
 15021fc:	e1a01004 	mov	r1, r4
 1502200:	e28d0068 	add	r0, sp, #104	; 0x68
 1502204:	eb0002f7 	bl	1502de8 <flush_cache>
 1502208:	e30336f0 	movw	r3, #14064	; 0x36f0
 150220c:	e3403151 	movt	r3, #337	; 0x151
 1502210:	e1a02004 	mov	r2, r4
 1502214:	e3a01c09 	mov	r1, #2304	; 0x900
 1502218:	e1a00005 	mov	r0, r5
 150221c:	e5c36000 	strb	r6, [r3]
 1502220:	ebfffe6a 	bl	1501bd0 <R0>
 1502224:	e1a02004 	mov	r2, r4
 1502228:	e1a07000 	mov	r7, r0
 150222c:	e1a01006 	mov	r1, r6
 1502230:	e1a00005 	mov	r0, r5
 1502234:	eb000219 	bl	1502aa0 <memset>
 1502238:	eb00014f 	bl	150277c <sync>
 150223c:	e1a00007 	mov	r0, r7
 1502240:	e28ddf9b 	add	sp, sp, #620	; 0x26c
 1502244:	e8bd8ff0 	pop	{r4, r5, r6, r7, r8, r9, sl, fp, pc}
 1502248:	e28d3068 	add	r3, sp, #104	; 0x68
 150224c:	e1a02005 	mov	r2, r5
 1502250:	e1a01004 	mov	r1, r4
 1502254:	e28d0048 	add	r0, sp, #72	; 0x48
 1502258:	ebfffc62 	bl	15013e8 <AES_ECB_encrypt>
 150225c:	e1a01004 	mov	r1, r4
 1502260:	e1a00005 	mov	r0, r5
 1502264:	eb0002df 	bl	1502de8 <flush_cache>
 1502268:	e1a01004 	mov	r1, r4
 150226c:	e28d0048 	add	r0, sp, #72	; 0x48
 1502270:	eb0002dc 	bl	1502de8 <flush_cache>
 1502274:	e1a02004 	mov	r2, r4
 1502278:	e3a01d46 	mov	r1, #4480	; 0x1180
 150227c:	e1a00005 	mov	r0, r5
 1502280:	e5c76000 	strb	r6, [r7]
 1502284:	ebfffe51 	bl	1501bd0 <R0>
 1502288:	e1a06000 	mov	r6, r0
 150228c:	eb00013a 	bl	150277c <sync>
 1502290:	e3560000 	cmp	r6, #0
 1502294:	1affff5e 	bne	1502014 <obfuse_getset+0x350>
 1502298:	e28d3068 	add	r3, sp, #104	; 0x68
 150229c:	e1a02005 	mov	r2, r5
 15022a0:	e1a01004 	mov	r1, r4
 15022a4:	e28d0058 	add	r0, sp, #88	; 0x58
 15022a8:	ebfffc4e 	bl	15013e8 <AES_ECB_encrypt>
 15022ac:	e1a01004 	mov	r1, r4
 15022b0:	e1a00005 	mov	r0, r5
 15022b4:	eb0002cb 	bl	1502de8 <flush_cache>
 15022b8:	e1a01004 	mov	r1, r4
 15022bc:	e28d0058 	add	r0, sp, #88	; 0x58
 15022c0:	eb0002c8 	bl	1502de8 <flush_cache>
 15022c4:	e1a00005 	mov	r0, r5
 15022c8:	e1a02004 	mov	r2, r4
 15022cc:	e3a01d42 	mov	r1, #4224	; 0x1080
 15022d0:	e5c76000 	strb	r6, [r7]
 15022d4:	ebfffe3d 	bl	1501bd0 <R0>
 15022d8:	e1a05000 	mov	r5, r0
 15022dc:	eb000126 	bl	150277c <sync>
 15022e0:	e3550000 	cmp	r5, #0
 15022e4:	11a00005 	movne	r0, r5
 15022e8:	1afffeb9 	bne	1501dd4 <obfuse_getset+0x110>
 15022ec:	e1a01004 	mov	r1, r4
 15022f0:	e28d0028 	add	r0, sp, #40	; 0x28
 15022f4:	e5c75000 	strb	r5, [r7]
 15022f8:	eb0002ba 	bl	1502de8 <flush_cache>
 15022fc:	e1a02004 	mov	r2, r4
 1502300:	e28d1028 	add	r1, sp, #40	; 0x28
 1502304:	e3a00001 	mov	r0, #1
 1502308:	ebfffdc1 	bl	1501a14 <R1>
 150230c:	e1a02004 	mov	r2, r4
 1502310:	e1a01000 	mov	r1, r0
 1502314:	e28d0068 	add	r0, sp, #104	; 0x68
 1502318:	ebfff7f2 	bl	15002e8 <memcpy>
 150231c:	e1a01004 	mov	r1, r4
 1502320:	e28d0068 	add	r0, sp, #104	; 0x68
 1502324:	eb0002af 	bl	1502de8 <flush_cache>
 1502328:	e1a02004 	mov	r2, r4
 150232c:	e3a01c11 	mov	r1, #4352	; 0x1100
 1502330:	e28d0068 	add	r0, sp, #104	; 0x68
 1502334:	ebfffe25 	bl	1501bd0 <R0>
 1502338:	e1a04000 	mov	r4, r0
 150233c:	eb00010e 	bl	150277c <sync>
 1502340:	e1a00004 	mov	r0, r4
 1502344:	eafffea2 	b	1501dd4 <obfuse_getset+0x110>

01502348 <R2>:
 1502348:	e92d4010 	push	{r4, lr}
 150234c:	e3a02b01 	mov	r2, #1024	; 0x400
 1502350:	e3a01000 	mov	r1, #0
 1502354:	e24ddc06 	sub	sp, sp, #1536	; 0x600
 1502358:	e3a04005 	mov	r4, #5
 150235c:	e28d0c02 	add	r0, sp, #512	; 0x200
 1502360:	eb0001ce 	bl	1502aa0 <memset>
 1502364:	e3a02c01 	mov	r2, #256	; 0x100
 1502368:	e3a01000 	mov	r1, #0
 150236c:	e1a0000d 	mov	r0, sp
 1502370:	eb0001ca 	bl	1502aa0 <memset>
 1502374:	e3a02c01 	mov	r2, #256	; 0x100
 1502378:	e3a01000 	mov	r1, #0
 150237c:	e28d0c01 	add	r0, sp, #256	; 0x100
 1502380:	eb0001c6 	bl	1502aa0 <memset>
 1502384:	e28d1c02 	add	r1, sp, #512	; 0x200
 1502388:	e3a02c01 	mov	r2, #256	; 0x100
 150238c:	e3a00000 	mov	r0, #0
 1502390:	ebfffa78 	bl	1500d78 <OTP_Get_Byte>
 1502394:	e3a02020 	mov	r2, #32
 1502398:	e28d1c03 	add	r1, sp, #768	; 0x300
 150239c:	e3a00b02 	mov	r0, #2048	; 0x800
 15023a0:	ebfffa74 	bl	1500d78 <OTP_Get_Byte>
 15023a4:	e3a02010 	mov	r2, #16
 15023a8:	e28d1e32 	add	r1, sp, #800	; 0x320
 15023ac:	e3a00c09 	mov	r0, #2304	; 0x900
 15023b0:	ebfffa70 	bl	1500d78 <OTP_Get_Byte>
 15023b4:	e3a02010 	mov	r2, #16
 15023b8:	e28d1e33 	add	r1, sp, #816	; 0x330
 15023bc:	e3a00d26 	mov	r0, #2432	; 0x980
 15023c0:	ebfffa6c 	bl	1500d78 <OTP_Get_Byte>
 15023c4:	e3a02010 	mov	r2, #16
 15023c8:	e28d1d0d 	add	r1, sp, #832	; 0x340
 15023cc:	e3a00c0b 	mov	r0, #2816	; 0xb00
 15023d0:	ebfffa68 	bl	1500d78 <OTP_Get_Byte>
 15023d4:	e3a02010 	mov	r2, #16
 15023d8:	e28d1e35 	add	r1, sp, #848	; 0x350
 15023dc:	e3a00a01 	mov	r0, #4096	; 0x1000
 15023e0:	ebfffa64 	bl	1500d78 <OTP_Get_Byte>
 15023e4:	e3a02010 	mov	r2, #16
 15023e8:	e28d1e36 	add	r1, sp, #864	; 0x360
 15023ec:	e3a00d42 	mov	r0, #4224	; 0x1080
 15023f0:	ebfffa60 	bl	1500d78 <OTP_Get_Byte>
 15023f4:	e3a02010 	mov	r2, #16
 15023f8:	e28d1e37 	add	r1, sp, #880	; 0x370
 15023fc:	e3a00c11 	mov	r0, #4352	; 0x1100
 1502400:	ebfffa5c 	bl	1500d78 <OTP_Get_Byte>
 1502404:	e3a02010 	mov	r2, #16
 1502408:	e28d1d0e 	add	r1, sp, #896	; 0x380
 150240c:	e3a00d46 	mov	r0, #4480	; 0x1180
 1502410:	ebfffa58 	bl	1500d78 <OTP_Get_Byte>
 1502414:	e3000da2 	movw	r0, #3490	; 0xda2
 1502418:	ebfff8fc 	bl	1500810 <OTP_JUDGE_BIT>
 150241c:	e5cd0390 	strb	r0, [sp, #912]	; 0x390
 1502420:	e3000da4 	movw	r0, #3492	; 0xda4
 1502424:	ebfff8f9 	bl	1500810 <OTP_JUDGE_BIT>
 1502428:	e5cd0391 	strb	r0, [sp, #913]	; 0x391
 150242c:	e3000da6 	movw	r0, #3494	; 0xda6
 1502430:	ebfff8f6 	bl	1500810 <OTP_JUDGE_BIT>
 1502434:	e5cd0392 	strb	r0, [sp, #914]	; 0x392
 1502438:	e3000daf 	movw	r0, #3503	; 0xdaf
 150243c:	ebfff8f3 	bl	1500810 <OTP_JUDGE_BIT>
 1502440:	e5cd0393 	strb	r0, [sp, #915]	; 0x393
 1502444:	e3a00edb 	mov	r0, #3504	; 0xdb0
 1502448:	ebfff8f0 	bl	1500810 <OTP_JUDGE_BIT>
 150244c:	e5cd0394 	strb	r0, [sp, #916]	; 0x394
 1502450:	e3000db1 	movw	r0, #3505	; 0xdb1
 1502454:	ebfff8ed 	bl	1500810 <OTP_JUDGE_BIT>
 1502458:	e5cd0395 	strb	r0, [sp, #917]	; 0x395
 150245c:	e3000db2 	movw	r0, #3506	; 0xdb2
 1502460:	ebfff8ea 	bl	1500810 <OTP_JUDGE_BIT>
 1502464:	e5cd0396 	strb	r0, [sp, #918]	; 0x396
 1502468:	e3000db3 	movw	r0, #3507	; 0xdb3
 150246c:	ebfff8e7 	bl	1500810 <OTP_JUDGE_BIT>
 1502470:	e5cd0397 	strb	r0, [sp, #919]	; 0x397
 1502474:	e3000db4 	movw	r0, #3508	; 0xdb4
 1502478:	ebfff8e4 	bl	1500810 <OTP_JUDGE_BIT>
 150247c:	e5cd0398 	strb	r0, [sp, #920]	; 0x398
 1502480:	e3000db5 	movw	r0, #3509	; 0xdb5
 1502484:	ebfff8e1 	bl	1500810 <OTP_JUDGE_BIT>
 1502488:	e5cd0399 	strb	r0, [sp, #921]	; 0x399
 150248c:	e3000db6 	movw	r0, #3510	; 0xdb6
 1502490:	ebfff8de 	bl	1500810 <OTP_JUDGE_BIT>
 1502494:	e5cd039a 	strb	r0, [sp, #922]	; 0x39a
 1502498:	e3000db7 	movw	r0, #3511	; 0xdb7
 150249c:	ebfff8db 	bl	1500810 <OTP_JUDGE_BIT>
 15024a0:	e5cd039b 	strb	r0, [sp, #923]	; 0x39b
 15024a4:	e3000db8 	movw	r0, #3512	; 0xdb8
 15024a8:	ebfff8d8 	bl	1500810 <OTP_JUDGE_BIT>
 15024ac:	e5cd039c 	strb	r0, [sp, #924]	; 0x39c
 15024b0:	e3000dba 	movw	r0, #3514	; 0xdba
 15024b4:	ebfff8d5 	bl	1500810 <OTP_JUDGE_BIT>
 15024b8:	e5cd039d 	strb	r0, [sp, #925]	; 0x39d
 15024bc:	e3000dbb 	movw	r0, #3515	; 0xdbb
 15024c0:	ebfff8d2 	bl	1500810 <OTP_JUDGE_BIT>
 15024c4:	e5cd039e 	strb	r0, [sp, #926]	; 0x39e
 15024c8:	e3000dc2 	movw	r0, #3522	; 0xdc2
 15024cc:	ebfff8cf 	bl	1500810 <OTP_JUDGE_BIT>
 15024d0:	e5cd039f 	strb	r0, [sp, #927]	; 0x39f
 15024d4:	e3000e0b 	movw	r0, #3595	; 0xe0b
 15024d8:	ebfff8cc 	bl	1500810 <OTP_JUDGE_BIT>
 15024dc:	e5cd03a0 	strb	r0, [sp, #928]	; 0x3a0
 15024e0:	e3000e0c 	movw	r0, #3596	; 0xe0c
 15024e4:	ebfff8c9 	bl	1500810 <OTP_JUDGE_BIT>
 15024e8:	e5cd03a1 	strb	r0, [sp, #929]	; 0x3a1
 15024ec:	e3000e0e 	movw	r0, #3598	; 0xe0e
 15024f0:	ebfff8c6 	bl	1500810 <OTP_JUDGE_BIT>
 15024f4:	e5cd03a2 	strb	r0, [sp, #930]	; 0x3a2
 15024f8:	e3000e23 	movw	r0, #3619	; 0xe23
 15024fc:	ebfff8c3 	bl	1500810 <OTP_JUDGE_BIT>
 1502500:	e5cd03a3 	strb	r0, [sp, #931]	; 0x3a3
 1502504:	e3000e24 	movw	r0, #3620	; 0xe24
 1502508:	ebfff8c0 	bl	1500810 <OTP_JUDGE_BIT>
 150250c:	e3a03000 	mov	r3, #0
 1502510:	e1a0200d 	mov	r2, sp
 1502514:	e5cd03a4 	strb	r0, [sp, #932]	; 0x3a4
 1502518:	e30011a5 	movw	r1, #421	; 0x1a5
 150251c:	e28d0c02 	add	r0, sp, #512	; 0x200
 1502520:	ebfffcef 	bl	15018e4 <SHA256_hash>
 1502524:	e28d1c02 	add	r1, sp, #512	; 0x200
 1502528:	e30021a5 	movw	r2, #421	; 0x1a5
 150252c:	e303017c 	movw	r0, #12668	; 0x317c
 1502530:	e3400150 	movt	r0, #336	; 0x150
 1502534:	eb00012d 	bl	15029f0 <hexdump>
 1502538:	e1a0100d 	mov	r1, sp
 150253c:	e3a02020 	mov	r2, #32
 1502540:	e3030188 	movw	r0, #12680	; 0x3188
 1502544:	e3400150 	movt	r0, #336	; 0x150
 1502548:	eb000128 	bl	15029f0 <hexdump>
 150254c:	eb00008a 	bl	150277c <sync>
 1502550:	e1a0200d 	mov	r2, sp
 1502554:	e3a01020 	mov	r1, #32
 1502558:	e3a00c12 	mov	r0, #4608	; 0x1200
 150255c:	ebfff8e2 	bl	15008ec <start_program>
 1502560:	eb000085 	bl	150277c <sync>
 1502564:	e3a02020 	mov	r2, #32
 1502568:	e28d1c01 	add	r1, sp, #256	; 0x100
 150256c:	e3a00c12 	mov	r0, #4608	; 0x1200
 1502570:	ebfffa00 	bl	1500d78 <OTP_Get_Byte>
 1502574:	eb000080 	bl	150277c <sync>
 1502578:	e3a02020 	mov	r2, #32
 150257c:	e28d1c01 	add	r1, sp, #256	; 0x100
 1502580:	e3030198 	movw	r0, #12696	; 0x3198
 1502584:	e3400150 	movt	r0, #336	; 0x150
 1502588:	eb000118 	bl	15029f0 <hexdump>
 150258c:	e3a02020 	mov	r2, #32
 1502590:	e28d1c01 	add	r1, sp, #256	; 0x100
 1502594:	e1a0000d 	mov	r0, sp
 1502598:	ebfff75b 	bl	150030c <memcmp>
 150259c:	e3500000 	cmp	r0, #0
 15025a0:	0a000015 	beq	15025fc <R2+0x2b4>
 15025a4:	eb000074 	bl	150277c <sync>
 15025a8:	e2544001 	subs	r4, r4, #1
 15025ac:	1affffec 	bne	1502564 <R2+0x21c>
 15025b0:	e30301bc 	movw	r0, #12732	; 0x31bc
 15025b4:	e3400150 	movt	r0, #336	; 0x150
 15025b8:	eb000095 	bl	1502814 <prints>
 15025bc:	eb00006e 	bl	150277c <sync>
 15025c0:	e28d0c02 	add	r0, sp, #512	; 0x200
 15025c4:	e3a02b01 	mov	r2, #1024	; 0x400
 15025c8:	e3a01000 	mov	r1, #0
 15025cc:	eb000133 	bl	1502aa0 <memset>
 15025d0:	e1a0000d 	mov	r0, sp
 15025d4:	e3a02c01 	mov	r2, #256	; 0x100
 15025d8:	e3a01000 	mov	r1, #0
 15025dc:	eb00012f 	bl	1502aa0 <memset>
 15025e0:	e28d0c01 	add	r0, sp, #256	; 0x100
 15025e4:	e3a02c01 	mov	r2, #256	; 0x100
 15025e8:	e3a01000 	mov	r1, #0
 15025ec:	eb00012b 	bl	1502aa0 <memset>
 15025f0:	e3a00000 	mov	r0, #0
 15025f4:	e28ddc06 	add	sp, sp, #1536	; 0x600
 15025f8:	e8bd8010 	pop	{r4, pc}
 15025fc:	e30301a8 	movw	r0, #12712	; 0x31a8
 1502600:	e3400150 	movt	r0, #336	; 0x150
 1502604:	eb000082 	bl	1502814 <prints>
 1502608:	eaffffeb 	b	15025bc <R2+0x274>

0150260c <obfuse_judge>:
 150260c:	e3000da6 	movw	r0, #3494	; 0xda6
 1502610:	eafff87e 	b	1500810 <OTP_JUDGE_BIT>

01502614 <InitTimer>:
 1502614:	e3500001 	cmp	r0, #1
 1502618:	9a000001 	bls	1502624 <InitTimer+0x10>
 150261c:	e3e00000 	mvn	r0, #0
 1502620:	e12fff1e 	bx	lr
 1502624:	e3062d40 	movw	r2, #27968	; 0x6d40
 1502628:	e3422600 	movt	r2, #9728	; 0x2600
 150262c:	e0802002 	add	r2, r0, r2
 1502630:	e3a0ca0b 	mov	ip, #45056	; 0xb000
 1502634:	e349c801 	movt	ip, #38913	; 0x9801
 1502638:	e1a02102 	lsl	r2, r2, #2
 150263c:	e2800001 	add	r0, r0, #1
 1502640:	e92d4010 	push	{r4, lr}
 1502644:	e1a03300 	lsl	r3, r0, #6
 1502648:	e5821000 	str	r1, [r2]
 150264c:	e3a0e000 	mov	lr, #0
 1502650:	e3a04103 	mov	r4, #-1073741824	; 0xc0000000
 1502654:	e582e024 	str	lr, [r2, #36]	; 0x24
 1502658:	e3a00001 	mov	r0, #1
 150265c:	e582e018 	str	lr, [r2, #24]
 1502660:	e58c3008 	str	r3, [ip, #8]
 1502664:	e5824018 	str	r4, [r2, #24]
 1502668:	e8bd8010 	pop	{r4, pc}

0150266c <DisableTimer>:
 150266c:	e3500001 	cmp	r0, #1
 1502670:	93063d49 	movwls	r3, #27977	; 0x6d49
 1502674:	93a02000 	movls	r2, #0
 1502678:	93423600 	movtls	r3, #9728	; 0x2600
 150267c:	90803003 	addls	r3, r0, r3
 1502680:	93a00001 	movls	r0, #1
 1502684:	83e00000 	mvnhi	r0, #0
 1502688:	91a03103 	lslls	r3, r3, #2
 150268c:	95832000 	strls	r2, [r3]
 1502690:	9503200c 	strls	r2, [r3, #-12]
 1502694:	e12fff1e 	bx	lr

01502698 <SystemTimeout>:
 1502698:	e3500001 	cmp	r0, #1
 150269c:	9a000001 	bls	15026a8 <SystemTimeout+0x10>
 15026a0:	e3a00000 	mov	r0, #0
 15026a4:	e12fff1e 	bx	lr
 15026a8:	e3a03a0b 	mov	r3, #45056	; 0xb000
 15026ac:	e3493801 	movt	r3, #38913	; 0x9801
 15026b0:	e2800001 	add	r0, r0, #1
 15026b4:	e5933008 	ldr	r3, [r3, #8]
 15026b8:	e0133300 	ands	r3, r3, r0, lsl #6
 15026bc:	13a00001 	movne	r0, #1
 15026c0:	03a00000 	moveq	r0, #0
 15026c4:	e12fff1e 	bx	lr

015026c8 <mdelay>:
 15026c8:	e3043240 	movw	r3, #16960	; 0x4240
 15026cc:	e340300f 	movt	r3, #15
 15026d0:	e30c2ccd 	movw	r2, #52429	; 0xcccd
 15026d4:	e34c2ccc 	movt	r2, #52428	; 0xcccc
 15026d8:	e0000093 	mul	r0, r3, r0
 15026dc:	e3a03a0b 	mov	r3, #45056	; 0xb000
 15026e0:	e3493801 	movt	r3, #38913	; 0x9801
 15026e4:	e52de004 	push	{lr}		; (str lr, [sp, #-4]!)
 15026e8:	e0810290 	umull	r0, r1, r0, r2
 15026ec:	e3a0c000 	mov	ip, #0
 15026f0:	e3a0e040 	mov	lr, #64	; 0x40
 15026f4:	e3a00103 	mov	r0, #-1073741824	; 0xc0000000
 15026f8:	e1a02003 	mov	r2, r3
 15026fc:	e1a01221 	lsr	r1, r1, #4
 1502700:	e5831500 	str	r1, [r3, #1280]	; 0x500
 1502704:	e583c524 	str	ip, [r3, #1316]	; 0x524
 1502708:	e583c518 	str	ip, [r3, #1304]	; 0x518
 150270c:	e583e008 	str	lr, [r3, #8]
 1502710:	e5830518 	str	r0, [r3, #1304]	; 0x518
 1502714:	e5923008 	ldr	r3, [r2, #8]
 1502718:	e3130040 	tst	r3, #64	; 0x40
 150271c:	0afffffc 	beq	1502714 <mdelay+0x4c>
 1502720:	e49df004 	pop	{pc}		; (ldr pc, [sp], #4)

01502724 <udelay>:
 1502724:	e3a03ffa 	mov	r3, #1000	; 0x3e8
 1502728:	e30c2ccd 	movw	r2, #52429	; 0xcccd
 150272c:	e34c2ccc 	movt	r2, #52428	; 0xcccc
 1502730:	e0000093 	mul	r0, r3, r0
 1502734:	e3a03a0b 	mov	r3, #45056	; 0xb000
 1502738:	e3493801 	movt	r3, #38913	; 0x9801
 150273c:	e52de004 	push	{lr}		; (str lr, [sp, #-4]!)
 1502740:	e0810290 	umull	r0, r1, r0, r2
 1502744:	e3a0c000 	mov	ip, #0
 1502748:	e3a0e040 	mov	lr, #64	; 0x40
 150274c:	e3a00103 	mov	r0, #-1073741824	; 0xc0000000
 1502750:	e1a02003 	mov	r2, r3
 1502754:	e1a01221 	lsr	r1, r1, #4
 1502758:	e5831500 	str	r1, [r3, #1280]	; 0x500
 150275c:	e583c524 	str	ip, [r3, #1316]	; 0x524
 1502760:	e583c518 	str	ip, [r3, #1304]	; 0x518
 1502764:	e583e008 	str	lr, [r3, #8]
 1502768:	e5830518 	str	r0, [r3, #1304]	; 0x518
 150276c:	e5923008 	ldr	r3, [r2, #8]
 1502770:	e3130040 	tst	r3, #64	; 0x40
 1502774:	0afffffc 	beq	150276c <udelay+0x48>
 1502778:	e49df004 	pop	{pc}		; (ldr pc, [sp], #4)

0150277c <sync>:
 150277c:	e3a03000 	mov	r3, #0
 1502780:	ee073fba 	mcr	15, 0, r3, cr7, cr10, {5}
 1502784:	e3a02a0a 	mov	r2, #40960	; 0xa000
 1502788:	e3492801 	movt	r2, #38913	; 0x9801
 150278c:	e5823020 	str	r3, [r2, #32]
 1502790:	ee073fba 	mcr	15, 0, r3, cr7, cr10, {5}
 1502794:	e12fff1e 	bx	lr

01502798 <init_uart>:
 1502798:	e3a03a07 	mov	r3, #28672	; 0x7000
 150279c:	e3493800 	movt	r3, #38912	; 0x9800
 15027a0:	e92d4010 	push	{r4, lr}
 15027a4:	e5932310 	ldr	r2, [r3, #784]	; 0x310
 15027a8:	e3a01000 	mov	r1, #0
 15027ac:	e3a04090 	mov	r4, #144	; 0x90
 15027b0:	e3a0e00e 	mov	lr, #14
 15027b4:	e3c228ff 	bic	r2, r2, #16711680	; 0xff0000
 15027b8:	e3a0c003 	mov	ip, #3
 15027bc:	e3c22a0f 	bic	r2, r2, #61440	; 0xf000
 15027c0:	e3a000b7 	mov	r0, #183	; 0xb7
 15027c4:	e3822855 	orr	r2, r2, #5570560	; 0x550000
 15027c8:	e3822a05 	orr	r2, r2, #20480	; 0x5000
 15027cc:	e5832310 	str	r2, [r3, #784]	; 0x310
 15027d0:	e583480c 	str	r4, [r3, #2060]	; 0x80c
 15027d4:	e583e800 	str	lr, [r3, #2048]	; 0x800
 15027d8:	e5831804 	str	r1, [r3, #2052]	; 0x804
 15027dc:	e583c80c 	str	ip, [r3, #2060]	; 0x80c
 15027e0:	e5830808 	str	r0, [r3, #2056]	; 0x808
 15027e4:	e5831804 	str	r1, [r3, #2052]	; 0x804
 15027e8:	e8bd8010 	pop	{r4, pc}

015027ec <set_focus_uart>:
 15027ec:	e30326e4 	movw	r2, #14052	; 0x36e4
 15027f0:	e3402151 	movt	r2, #337	; 0x151
 15027f4:	e3500000 	cmp	r0, #0
 15027f8:	e3a01cb2 	mov	r1, #45568	; 0xb200
 15027fc:	e3491801 	movt	r1, #38913	; 0x9801
 1502800:	e3a03b1e 	mov	r3, #30720	; 0x7800
 1502804:	e3493800 	movt	r3, #38912	; 0x9800
 1502808:	11a03001 	movne	r3, r1
 150280c:	e5823000 	str	r3, [r2]
 1502810:	e12fff1e 	bx	lr

01502814 <prints>:
 1502814:	e5d03000 	ldrb	r3, [r0]
 1502818:	e3530000 	cmp	r3, #0
 150281c:	012fff1e 	bxeq	lr
 1502820:	e30326e4 	movw	r2, #14052	; 0x36e4
 1502824:	e3402151 	movt	r2, #337	; 0x151
 1502828:	e3a0c00d 	mov	ip, #13
 150282c:	e5922000 	ldr	r2, [r2]
 1502830:	e353000a 	cmp	r3, #10
 1502834:	11a01003 	movne	r1, r3
 1502838:	0a000008 	beq	1502860 <prints+0x4c>
 150283c:	e5923014 	ldr	r3, [r2, #20]
 1502840:	e2033060 	and	r3, r3, #96	; 0x60
 1502844:	e3530060 	cmp	r3, #96	; 0x60
 1502848:	1afffffb 	bne	150283c <prints+0x28>
 150284c:	e5821000 	str	r1, [r2]
 1502850:	e5f03001 	ldrb	r3, [r0, #1]!
 1502854:	e3530000 	cmp	r3, #0
 1502858:	1afffff4 	bne	1502830 <prints+0x1c>
 150285c:	e12fff1e 	bx	lr
 1502860:	e5923014 	ldr	r3, [r2, #20]
 1502864:	e2033060 	and	r3, r3, #96	; 0x60
 1502868:	e3530060 	cmp	r3, #96	; 0x60
 150286c:	1afffffb 	bne	1502860 <prints+0x4c>
 1502870:	e582c000 	str	ip, [r2]
 1502874:	e3a0100a 	mov	r1, #10
 1502878:	eaffffef 	b	150283c <prints+0x28>

0150287c <wait_done>:
 150287c:	e5903000 	ldr	r3, [r0]
 1502880:	e0033001 	and	r3, r3, r1
 1502884:	e1530002 	cmp	r3, r2
 1502888:	0a000012 	beq	15028d8 <wait_done+0x5c>
 150288c:	e92d41f0 	push	{r4, r5, r6, r7, r8, lr}
 1502890:	e1a07002 	mov	r7, r2
 1502894:	e1a06001 	mov	r6, r1
 1502898:	e1a05000 	mov	r5, r0
 150289c:	e3004bb9 	movw	r4, #3001	; 0xbb9
 15028a0:	ea000001 	b	15028ac <wait_done+0x30>
 15028a4:	e2544001 	subs	r4, r4, #1
 15028a8:	0a000006 	beq	15028c8 <wait_done+0x4c>
 15028ac:	e3a00001 	mov	r0, #1
 15028b0:	ebffff84 	bl	15026c8 <mdelay>
 15028b4:	e5953000 	ldr	r3, [r5]
 15028b8:	e0033006 	and	r3, r3, r6
 15028bc:	e1530007 	cmp	r3, r7
 15028c0:	1afffff7 	bne	15028a4 <wait_done+0x28>
 15028c4:	e8bd81f0 	pop	{r4, r5, r6, r7, r8, pc}
 15028c8:	e30301d8 	movw	r0, #12760	; 0x31d8
 15028cc:	e3400150 	movt	r0, #336	; 0x150
 15028d0:	e8bd41f0 	pop	{r4, r5, r6, r7, r8, lr}
 15028d4:	eaffffce 	b	1502814 <prints>
 15028d8:	e12fff1e 	bx	lr

015028dc <print_val>:
 15028dc:	e30336e4 	movw	r3, #14052	; 0x36e4
 15028e0:	e3403151 	movt	r3, #337	; 0x151
 15028e4:	e2411001 	sub	r1, r1, #1
 15028e8:	e5932000 	ldr	r2, [r3]
 15028ec:	e1a03101 	lsl	r3, r1, #2
 15028f0:	e1a03330 	lsr	r3, r0, r3
 15028f4:	e203300f 	and	r3, r3, #15
 15028f8:	e353000a 	cmp	r3, #10
 15028fc:	33a0c030 	movcc	ip, #48	; 0x30
 1502900:	23a0c037 	movcs	ip, #55	; 0x37
 1502904:	e08cc003 	add	ip, ip, r3
 1502908:	e5923014 	ldr	r3, [r2, #20]
 150290c:	e2033060 	and	r3, r3, #96	; 0x60
 1502910:	e3530060 	cmp	r3, #96	; 0x60
 1502914:	1afffffb 	bne	1502908 <print_val+0x2c>
 1502918:	e2411001 	sub	r1, r1, #1
 150291c:	e582c000 	str	ip, [r2]
 1502920:	e3710001 	cmn	r1, #1
 1502924:	1afffff0 	bne	15028ec <print_val+0x10>
 1502928:	e12fff1e 	bx	lr

0150292c <print_hex>:
 150292c:	e3a01008 	mov	r1, #8
 1502930:	eaffffe9 	b	15028dc <print_val>

01502934 <sys_dcache_flush_all>:
 1502934:	e12fff1e 	bx	lr

01502938 <put_char>:
 1502938:	e30336e4 	movw	r3, #14052	; 0x36e4
 150293c:	e3403151 	movt	r3, #337	; 0x151
 1502940:	e5932000 	ldr	r2, [r3]
 1502944:	e5923014 	ldr	r3, [r2, #20]
 1502948:	e2033060 	and	r3, r3, #96	; 0x60
 150294c:	e3530060 	cmp	r3, #96	; 0x60
 1502950:	1afffffb 	bne	1502944 <put_char+0xc>
 1502954:	e5820000 	str	r0, [r2]
 1502958:	e12fff1e 	bx	lr

0150295c <hexstr2int>:
 150295c:	e3a02010 	mov	r2, #16
 1502960:	e3a01000 	mov	r1, #0
 1502964:	eafff5f4 	b	150013c <strtoul>

01502968 <simple_malloc>:
 1502968:	e3032b3c 	movw	r2, #15164	; 0x3b3c
 150296c:	e3402151 	movt	r2, #337	; 0x151
 1502970:	e92d4010 	push	{r4, lr}
 1502974:	e5924000 	ldr	r4, [r2]
 1502978:	e080e004 	add	lr, r0, r4
 150297c:	e35e0401 	cmp	lr, #16777216	; 0x1000000
 1502980:	8a00000b 	bhi	15029b4 <simple_malloc+0x4c>
 1502984:	e303c6e4 	movw	ip, #14052	; 0x36e4
 1502988:	e340c151 	movt	ip, #337	; 0x151
 150298c:	e3100003 	tst	r0, #3
 1502990:	13c03003 	bicne	r3, r0, #3
 1502994:	e59c1004 	ldr	r1, [ip, #4]
 1502998:	12830004 	addne	r0, r3, #4
 150299c:	1080e004 	addne	lr, r0, r4
 15029a0:	e582e000 	str	lr, [r2]
 15029a4:	e0803001 	add	r3, r0, r1
 15029a8:	e1a00001 	mov	r0, r1
 15029ac:	e58c3004 	str	r3, [ip, #4]
 15029b0:	e8bd8010 	pop	{r4, pc}
 15029b4:	e3a00000 	mov	r0, #0
 15029b8:	e8bd8010 	pop	{r4, pc}

015029bc <is_hex_digit>:
 15029bc:	e2403030 	sub	r3, r0, #48	; 0x30
 15029c0:	e3530009 	cmp	r3, #9
 15029c4:	9a000007 	bls	15029e8 <is_hex_digit+0x2c>
 15029c8:	e2403041 	sub	r3, r0, #65	; 0x41
 15029cc:	e3530005 	cmp	r3, #5
 15029d0:	9a000004 	bls	15029e8 <is_hex_digit+0x2c>
 15029d4:	e2400061 	sub	r0, r0, #97	; 0x61
 15029d8:	e3500005 	cmp	r0, #5
 15029dc:	93a00000 	movls	r0, #0
 15029e0:	83e00000 	mvnhi	r0, #0
 15029e4:	e12fff1e 	bx	lr
 15029e8:	e3a00000 	mov	r0, #0
 15029ec:	e12fff1e 	bx	lr

015029f0 <hexdump>:
 15029f0:	e3520000 	cmp	r2, #0
 15029f4:	13510000 	cmpne	r1, #0
 15029f8:	e92d4070 	push	{r4, r5, r6, lr}
 15029fc:	03a04001 	moveq	r4, #1
 1502a00:	13a04000 	movne	r4, #0
 1502a04:	0a000021 	beq	1502a90 <hexdump+0xa0>
 1502a08:	e3500000 	cmp	r0, #0
 1502a0c:	e30331d0 	movw	r3, #12752	; 0x31d0
 1502a10:	e3403150 	movt	r3, #336	; 0x150
 1502a14:	01a00003 	moveq	r0, r3
 1502a18:	e1a05001 	mov	r5, r1
 1502a1c:	e1a06002 	mov	r6, r2
 1502a20:	ebffff7b 	bl	1502814 <prints>
 1502a24:	e30301ec 	movw	r0, #12780	; 0x31ec
 1502a28:	e3400150 	movt	r0, #336	; 0x150
 1502a2c:	ebffff78 	bl	1502814 <prints>
 1502a30:	e1a00005 	mov	r0, r5
 1502a34:	e3a01008 	mov	r1, #8
 1502a38:	e2455001 	sub	r5, r5, #1
 1502a3c:	ebffffa6 	bl	15028dc <print_val>
 1502a40:	e30301f4 	movw	r0, #12788	; 0x31f4
 1502a44:	e3400150 	movt	r0, #336	; 0x150
 1502a48:	ebffff71 	bl	1502814 <prints>
 1502a4c:	e3a01002 	mov	r1, #2
 1502a50:	e5f50001 	ldrb	r0, [r5, #1]!
 1502a54:	ebffffa0 	bl	15028dc <print_val>
 1502a58:	e204300f 	and	r3, r4, #15
 1502a5c:	e353000f 	cmp	r3, #15
 1502a60:	e30301f8 	movw	r0, #12792	; 0x31f8
 1502a64:	e3400150 	movt	r0, #336	; 0x150
 1502a68:	03020fa8 	movweq	r0, #12200	; 0x2fa8
 1502a6c:	03400150 	movteq	r0, #336	; 0x150
 1502a70:	e2844001 	add	r4, r4, #1
 1502a74:	ebffff66 	bl	1502814 <prints>
 1502a78:	e1540006 	cmp	r4, r6
 1502a7c:	1afffff2 	bne	1502a4c <hexdump+0x5c>
 1502a80:	e3020fa8 	movw	r0, #12200	; 0x2fa8
 1502a84:	e3400150 	movt	r0, #336	; 0x150
 1502a88:	e8bd4070 	pop	{r4, r5, r6, lr}
 1502a8c:	eaffff60 	b	1502814 <prints>
 1502a90:	e30301e4 	movw	r0, #12772	; 0x31e4
 1502a94:	e3400150 	movt	r0, #336	; 0x150
 1502a98:	e8bd4070 	pop	{r4, r5, r6, lr}
 1502a9c:	eaffff5c 	b	1502814 <prints>

01502aa0 <memset>:
 1502aa0:	e3520000 	cmp	r2, #0
 1502aa4:	e6ef1071 	uxtb	r1, r1
 1502aa8:	012fff1e 	bxeq	lr
 1502aac:	e0802002 	add	r2, r0, r2
 1502ab0:	e1a03000 	mov	r3, r0
 1502ab4:	e4c31001 	strb	r1, [r3], #1
 1502ab8:	e1530002 	cmp	r3, r2
 1502abc:	1afffffc 	bne	1502ab4 <memset+0x14>
 1502ac0:	e12fff1e 	bx	lr

01502ac4 <set_memory>:
 1502ac4:	e3520000 	cmp	r2, #0
 1502ac8:	012fff1e 	bxeq	lr
 1502acc:	e0802002 	add	r2, r0, r2
 1502ad0:	e4c01001 	strb	r1, [r0], #1
 1502ad4:	e1500002 	cmp	r0, r2
 1502ad8:	1afffffc 	bne	1502ad0 <set_memory+0xc>
 1502adc:	e12fff1e 	bx	lr

01502ae0 <copy_memory>:
 1502ae0:	e1813002 	orr	r3, r1, r2
 1502ae4:	e24dd008 	sub	sp, sp, #8
 1502ae8:	e1803003 	orr	r3, r0, r3
 1502aec:	e2133003 	ands	r3, r3, #3
 1502af0:	1a00000f 	bne	1502b34 <copy_memory+0x54>
 1502af4:	e58d3004 	str	r3, [sp, #4]
 1502af8:	e59d3004 	ldr	r3, [sp, #4]
 1502afc:	e1520003 	cmp	r2, r3
 1502b00:	9a000009 	bls	1502b2c <copy_memory+0x4c>
 1502b04:	e59d3004 	ldr	r3, [sp, #4]
 1502b08:	e59dc004 	ldr	ip, [sp, #4]
 1502b0c:	e791c00c 	ldr	ip, [r1, ip]
 1502b10:	e780c003 	str	ip, [r0, r3]
 1502b14:	e59d3004 	ldr	r3, [sp, #4]
 1502b18:	e2833004 	add	r3, r3, #4
 1502b1c:	e58d3004 	str	r3, [sp, #4]
 1502b20:	e59d3004 	ldr	r3, [sp, #4]
 1502b24:	e1520003 	cmp	r2, r3
 1502b28:	8afffff5 	bhi	1502b04 <copy_memory+0x24>
 1502b2c:	e28dd008 	add	sp, sp, #8
 1502b30:	e12fff1e 	bx	lr
 1502b34:	e3a03000 	mov	r3, #0
 1502b38:	e58d3004 	str	r3, [sp, #4]
 1502b3c:	e59d3004 	ldr	r3, [sp, #4]
 1502b40:	e1520003 	cmp	r2, r3
 1502b44:	9afffff8 	bls	1502b2c <copy_memory+0x4c>
 1502b48:	e59dc004 	ldr	ip, [sp, #4]
 1502b4c:	e59d3004 	ldr	r3, [sp, #4]
 1502b50:	e7d13003 	ldrb	r3, [r1, r3]
 1502b54:	e6ef3073 	uxtb	r3, r3
 1502b58:	e7c0300c 	strb	r3, [r0, ip]
 1502b5c:	e59d3004 	ldr	r3, [sp, #4]
 1502b60:	e2833001 	add	r3, r3, #1
 1502b64:	e58d3004 	str	r3, [sp, #4]
 1502b68:	e59d3004 	ldr	r3, [sp, #4]
 1502b6c:	e1520003 	cmp	r2, r3
 1502b70:	8afffff4 	bhi	1502b48 <copy_memory+0x68>
 1502b74:	e28dd008 	add	sp, sp, #8
 1502b78:	e12fff1e 	bx	lr

01502b7c <compare_memory>:
 1502b7c:	e3520000 	cmp	r2, #0
 1502b80:	0a000011 	beq	1502bcc <compare_memory+0x50>
 1502b84:	e52de004 	push	{lr}		; (str lr, [sp, #-4]!)
 1502b88:	e5d1e000 	ldrb	lr, [r1]
 1502b8c:	e5d0c000 	ldrb	ip, [r0]
 1502b90:	e15c000e 	cmp	ip, lr
 1502b94:	00802002 	addeq	r2, r0, r2
 1502b98:	02803001 	addeq	r3, r0, #1
 1502b9c:	0a000004 	beq	1502bb4 <compare_memory+0x38>
 1502ba0:	ea000007 	b	1502bc4 <compare_memory+0x48>
 1502ba4:	e4d3c001 	ldrb	ip, [r3], #1
 1502ba8:	e5f1e001 	ldrb	lr, [r1, #1]!
 1502bac:	e15c000e 	cmp	ip, lr
 1502bb0:	1a000003 	bne	1502bc4 <compare_memory+0x48>
 1502bb4:	e1530002 	cmp	r3, r2
 1502bb8:	1afffff9 	bne	1502ba4 <compare_memory+0x28>
 1502bbc:	e3a00000 	mov	r0, #0
 1502bc0:	e49df004 	pop	{pc}		; (ldr pc, [sp], #4)
 1502bc4:	e06e000c 	rsb	r0, lr, ip
 1502bc8:	e49df004 	pop	{pc}		; (ldr pc, [sp], #4)
 1502bcc:	e1a00002 	mov	r0, r2
 1502bd0:	e12fff1e 	bx	lr

01502bd4 <compare_str>:
 1502bd4:	e5d03000 	ldrb	r3, [r0]
 1502bd8:	e3530000 	cmp	r3, #0
 1502bdc:	0a000009 	beq	1502c08 <compare_str+0x34>
 1502be0:	e5d12000 	ldrb	r2, [r1]
 1502be4:	e1530002 	cmp	r3, r2
 1502be8:	0a000003 	beq	1502bfc <compare_str+0x28>
 1502bec:	ea000007 	b	1502c10 <compare_str+0x3c>
 1502bf0:	e5f12001 	ldrb	r2, [r1, #1]!
 1502bf4:	e1530002 	cmp	r3, r2
 1502bf8:	1a000004 	bne	1502c10 <compare_str+0x3c>
 1502bfc:	e5f03001 	ldrb	r3, [r0, #1]!
 1502c00:	e3530000 	cmp	r3, #0
 1502c04:	1afffff9 	bne	1502bf0 <compare_str+0x1c>
 1502c08:	e1a00003 	mov	r0, r3
 1502c0c:	e12fff1e 	bx	lr
 1502c10:	e0620003 	rsb	r0, r2, r3
 1502c14:	e12fff1e 	bx	lr

01502c18 <watchdog_reset>:
 1502c18:	e3a03a0b 	mov	r3, #45056	; 0xb000
 1502c1c:	e3493801 	movt	r3, #38913	; 0x9801
 1502c20:	e3a02000 	mov	r2, #0
 1502c24:	e3a000a5 	mov	r0, #165	; 0xa5
 1502c28:	e3a01001 	mov	r1, #1
 1502c2c:	e58305b0 	str	r0, [r3, #1456]	; 0x5b0
 1502c30:	e58315b4 	str	r1, [r3, #1460]	; 0x5b4
 1502c34:	e58325bc 	str	r2, [r3, #1468]	; 0x5bc
 1502c38:	e58325b0 	str	r2, [r3, #1456]	; 0x5b0
 1502c3c:	e12fff1e 	bx	lr

01502c40 <__div0>:
 1502c40:	e12fff1e 	bx	lr

01502c44 <v7_maint_dcache_all>:
 1502c44:	e92d43f0 	push	{r4, r5, r6, r7, r8, r9, lr}
 1502c48:	ee307f30 	mrc	15, 1, r7, cr0, cr0, {1}
 1502c4c:	e3a0e000 	mov	lr, #0
 1502c50:	e1a0500e 	mov	r5, lr
 1502c54:	ea000003 	b	1502c68 <v7_maint_dcache_all+0x24>
 1502c58:	e28ee003 	add	lr, lr, #3
 1502c5c:	e2855001 	add	r5, r5, #1
 1502c60:	e35e0015 	cmp	lr, #21
 1502c64:	0a000025 	beq	1502d00 <v7_maint_dcache_all+0xbc>
 1502c68:	e1a03e37 	lsr	r3, r7, lr
 1502c6c:	e2033007 	and	r3, r3, #7
 1502c70:	e2433002 	sub	r3, r3, #2
 1502c74:	e3530002 	cmp	r3, #2
 1502c78:	8afffff6 	bhi	1502c58 <v7_maint_dcache_all+0x14>
 1502c7c:	e1a06085 	lsl	r6, r5, #1
 1502c80:	ee406f10 	mcr	15, 2, r6, cr0, cr0, {0}
 1502c84:	ee304f10 	mrc	15, 1, r4, cr0, cr0, {0}
 1502c88:	e7e991d4 	ubfx	r9, r4, #3, #10
 1502c8c:	e2042007 	and	r2, r4, #7
 1502c90:	e289c001 	add	ip, r9, #1
 1502c94:	e2822004 	add	r2, r2, #4
 1502c98:	e1a0300c 	mov	r3, ip
 1502c9c:	e7ee46d4 	ubfx	r4, r4, #13, #15
 1502ca0:	e3e01000 	mvn	r1, #0
 1502ca4:	e1b030a3 	lsrs	r3, r3, #1
 1502ca8:	e2811001 	add	r1, r1, #1
 1502cac:	1afffffc 	bne	1502ca4 <v7_maint_dcache_all+0x60>
 1502cb0:	e11c0009 	tst	ip, r9
 1502cb4:	12811001 	addne	r1, r1, #1
 1502cb8:	e3500001 	cmp	r0, #1
 1502cbc:	e2618020 	rsb	r8, r1, #32
 1502cc0:	0a000011 	beq	1502d0c <v7_maint_dcache_all+0xc8>
 1502cc4:	e3500002 	cmp	r0, #2
 1502cc8:	1affffe2 	bne	1502c58 <v7_maint_dcache_all+0x14>
 1502ccc:	e186c819 	orr	ip, r6, r9, lsl r8
 1502cd0:	e1a03004 	mov	r3, r4
 1502cd4:	e18c1213 	orr	r1, ip, r3, lsl r2
 1502cd8:	ee071f5e 	mcr	15, 0, r1, cr7, cr14, {2}
 1502cdc:	e2533001 	subs	r3, r3, #1
 1502ce0:	2afffffb 	bcs	1502cd4 <v7_maint_dcache_all+0x90>
 1502ce4:	e2599001 	subs	r9, r9, #1
 1502ce8:	2afffff7 	bcs	1502ccc <v7_maint_dcache_all+0x88>
 1502cec:	f57ff04f 	dsb	sy
 1502cf0:	e28ee003 	add	lr, lr, #3
 1502cf4:	e2855001 	add	r5, r5, #1
 1502cf8:	e35e0015 	cmp	lr, #21
 1502cfc:	1affffd9 	bne	1502c68 <v7_maint_dcache_all+0x24>
 1502d00:	e8bd83f0 	pop	{r4, r5, r6, r7, r8, r9, pc}
 1502d04:	e2599001 	subs	r9, r9, #1
 1502d08:	3afffff7 	bcc	1502cec <v7_maint_dcache_all+0xa8>
 1502d0c:	e186c819 	orr	ip, r6, r9, lsl r8
 1502d10:	e1a03004 	mov	r3, r4
 1502d14:	e18c1213 	orr	r1, ip, r3, lsl r2
 1502d18:	ee071f56 	mcr	15, 0, r1, cr7, cr6, {2}
 1502d1c:	e2533001 	subs	r3, r3, #1
 1502d20:	2afffffb 	bcs	1502d14 <v7_maint_dcache_all+0xd0>
 1502d24:	eafffff6 	b	1502d04 <v7_maint_dcache_all+0xc0>

01502d28 <invalidate_icache_all>:
 1502d28:	e3a03000 	mov	r3, #0
 1502d2c:	ee073f15 	mcr	15, 0, r3, cr7, cr5, {0}
 1502d30:	ee073fd5 	mcr	15, 0, r3, cr7, cr5, {6}
 1502d34:	f57ff04f 	dsb	sy
 1502d38:	f57ff06f 	isb	sy
 1502d3c:	e12fff1e 	bx	lr

01502d40 <__v7_outer_cache_enable>:
 1502d40:	e12fff1e 	bx	lr

01502d44 <__v7_outer_cache_disable>:
 1502d44:	e12fff1e 	bx	lr

01502d48 <__v7_outer_cache_flush_all>:
 1502d48:	e12fff1e 	bx	lr

01502d4c <flush_dcache_all>:
 1502d4c:	e92d4010 	push	{r4, lr}
 1502d50:	e3a00002 	mov	r0, #2
 1502d54:	ebffffba 	bl	1502c44 <v7_maint_dcache_all>
 1502d58:	e8bd4010 	pop	{r4, lr}
 1502d5c:	eafffff9 	b	1502d48 <__v7_outer_cache_flush_all>

01502d60 <__v7_outer_cache_inval_all>:
 1502d60:	e12fff1e 	bx	lr

01502d64 <invalidate_dcache_all>:
 1502d64:	e92d4010 	push	{r4, lr}
 1502d68:	e3a00001 	mov	r0, #1
 1502d6c:	ebffffb4 	bl	1502c44 <v7_maint_dcache_all>
 1502d70:	e8bd4010 	pop	{r4, lr}
 1502d74:	eafffff9 	b	1502d60 <__v7_outer_cache_inval_all>

01502d78 <arm_init_before_mmu>:
 1502d78:	e92d4010 	push	{r4, lr}
 1502d7c:	ebffffef 	bl	1502d40 <__v7_outer_cache_enable>
 1502d80:	e3a00001 	mov	r0, #1
 1502d84:	ebffffae 	bl	1502c44 <v7_maint_dcache_all>
 1502d88:	ebfffff4 	bl	1502d60 <__v7_outer_cache_inval_all>
 1502d8c:	e3a03000 	mov	r3, #0
 1502d90:	ee083f17 	mcr	15, 0, r3, cr8, cr7, {0}
 1502d94:	ee083f16 	mcr	15, 0, r3, cr8, cr6, {0}
 1502d98:	ee083f15 	mcr	15, 0, r3, cr8, cr5, {0}
 1502d9c:	f57ff04f 	dsb	sy
 1502da0:	f57ff06f 	isb	sy
 1502da4:	e8bd8010 	pop	{r4, pc}

01502da8 <__v7_outer_cache_flush_range>:
 1502da8:	e12fff1e 	bx	lr

01502dac <flush_dcache_range>:
 1502dac:	ee302f10 	mrc	15, 1, r2, cr0, cr0, {0}
 1502db0:	e2022007 	and	r2, r2, #7
 1502db4:	e3a03001 	mov	r3, #1
 1502db8:	e2822004 	add	r2, r2, #4
 1502dbc:	e1a02213 	lsl	r2, r3, r2
 1502dc0:	e2623000 	rsb	r3, r2, #0
 1502dc4:	e0033000 	and	r3, r3, r0
 1502dc8:	e1510003 	cmp	r1, r3
 1502dcc:	3a000003 	bcc	1502de0 <flush_dcache_range+0x34>
 1502dd0:	ee073f3e 	mcr	15, 0, r3, cr7, cr14, {1}
 1502dd4:	e0833002 	add	r3, r3, r2
 1502dd8:	e1510003 	cmp	r1, r3
 1502ddc:	2afffffb 	bcs	1502dd0 <flush_dcache_range+0x24>
 1502de0:	f57ff04f 	dsb	sy
 1502de4:	eaffffef 	b	1502da8 <__v7_outer_cache_flush_range>

01502de8 <flush_cache>:
 1502de8:	e0801001 	add	r1, r0, r1
 1502dec:	eaffffee 	b	1502dac <flush_dcache_range>

01502df0 <__v7_outer_cache_inval_range>:
 1502df0:	e12fff1e 	bx	lr

01502df4 <invalidate_dcache_range>:
 1502df4:	e52de004 	push	{lr}		; (str lr, [sp, #-4]!)
 1502df8:	ee30cf10 	mrc	15, 1, ip, cr0, cr0, {0}
 1502dfc:	e20cc007 	and	ip, ip, #7
 1502e00:	e3a03001 	mov	r3, #1
 1502e04:	e28cc004 	add	ip, ip, #4
 1502e08:	e1a0cc13 	lsl	ip, r3, ip
 1502e0c:	e24ce001 	sub	lr, ip, #1
 1502e10:	e11e0000 	tst	lr, r0
 1502e14:	12402001 	subne	r2, r0, #1
 1502e18:	126c3000 	rsbne	r3, ip, #0
 1502e1c:	1082200c 	addne	r2, r2, ip
 1502e20:	01a03000 	moveq	r3, r0
 1502e24:	10033002 	andne	r3, r3, r2
 1502e28:	e11e0001 	tst	lr, r1
 1502e2c:	126c2000 	rsbne	r2, ip, #0
 1502e30:	01a02001 	moveq	r2, r1
 1502e34:	10022001 	andne	r2, r2, r1
 1502e38:	e1520003 	cmp	r2, r3
 1502e3c:	3a000003 	bcc	1502e50 <invalidate_dcache_range+0x5c>
 1502e40:	ee073f36 	mcr	15, 0, r3, cr7, cr6, {1}
 1502e44:	e083300c 	add	r3, r3, ip
 1502e48:	e1530002 	cmp	r3, r2
 1502e4c:	9afffffb 	bls	1502e40 <invalidate_dcache_range+0x4c>
 1502e50:	f57ff04f 	dsb	sy
 1502e54:	e49de004 	pop	{lr}		; (ldr lr, [sp], #4)
 1502e58:	eaffffe4 	b	1502df0 <__v7_outer_cache_inval_range>

Disassembly of section .rodata:

01502e5c <_ctype>:
 1502e5c:	08080808 	stmdaeq	r8, {r3, fp}
 1502e60:	08080808 	stmdaeq	r8, {r3, fp}
 1502e64:	28282808 	stmdacs	r8!, {r3, fp, sp}
 1502e68:	08082828 	stmdaeq	r8, {r3, r5, fp, sp}
 1502e6c:	08080808 	stmdaeq	r8, {r3, fp}
 1502e70:	08080808 	stmdaeq	r8, {r3, fp}
 1502e74:	08080808 	stmdaeq	r8, {r3, fp}
 1502e78:	08080808 	stmdaeq	r8, {r3, fp}
 1502e7c:	101010a0 	andsne	r1, r0, r0, lsr #1
 1502e80:	10101010 	andsne	r1, r0, r0, lsl r0
 1502e84:	10101010 	andsne	r1, r0, r0, lsl r0
 1502e88:	10101010 	andsne	r1, r0, r0, lsl r0
 1502e8c:	04040404 	streq	r0, [r4], #-1028	; 0x404
 1502e90:	04040404 	streq	r0, [r4], #-1028	; 0x404
 1502e94:	10100404 	andsne	r0, r0, r4, lsl #8
 1502e98:	10101010 	andsne	r1, r0, r0, lsl r0
 1502e9c:	41414110 	cmpmi	r1, r0, lsl r1
 1502ea0:	01414141 	cmpeq	r1, r1, asr #2
 1502ea4:	01010101 	tsteq	r1, r1, lsl #2
 1502ea8:	01010101 	tsteq	r1, r1, lsl #2
 1502eac:	01010101 	tsteq	r1, r1, lsl #2
 1502eb0:	01010101 	tsteq	r1, r1, lsl #2
 1502eb4:	10010101 	andne	r0, r1, r1, lsl #2
 1502eb8:	10101010 	andsne	r1, r0, r0, lsl r0
 1502ebc:	42424210 	submi	r4, r2, #16, 4
 1502ec0:	02424242 	subeq	r4, r2, #536870916	; 0x20000004
 1502ec4:	02020202 	andeq	r0, r2, #536870912	; 0x20000000
 1502ec8:	02020202 	andeq	r0, r2, #536870912	; 0x20000000
 1502ecc:	02020202 	andeq	r0, r2, #536870912	; 0x20000000
 1502ed0:	02020202 	andeq	r0, r2, #536870912	; 0x20000000
 1502ed4:	10020202 	andne	r0, r2, r2, lsl #4
 1502ed8:	08101010 	ldmdaeq	r0, {r4, ip}
	...
 1502efc:	101010a0 	andsne	r1, r0, r0, lsr #1
 1502f00:	10101010 	andsne	r1, r0, r0, lsl r0
 1502f04:	10101010 	andsne	r1, r0, r0, lsl r0
 1502f08:	10101010 	andsne	r1, r0, r0, lsl r0
 1502f0c:	10101010 	andsne	r1, r0, r0, lsl r0
 1502f10:	10101010 	andsne	r1, r0, r0, lsl r0
 1502f14:	10101010 	andsne	r1, r0, r0, lsl r0
 1502f18:	10101010 	andsne	r1, r0, r0, lsl r0
 1502f1c:	01010101 	tsteq	r1, r1, lsl #2
 1502f20:	01010101 	tsteq	r1, r1, lsl #2
 1502f24:	01010101 	tsteq	r1, r1, lsl #2
 1502f28:	01010101 	tsteq	r1, r1, lsl #2
 1502f2c:	01010101 	tsteq	r1, r1, lsl #2
 1502f30:	10010101 	andne	r0, r1, r1, lsl #2
 1502f34:	01010101 	tsteq	r1, r1, lsl #2
 1502f38:	02010101 	andeq	r0, r1, #1073741824	; 0x40000000
 1502f3c:	02020202 	andeq	r0, r2, #536870912	; 0x20000000
 1502f40:	02020202 	andeq	r0, r2, #536870912	; 0x20000000
 1502f44:	02020202 	andeq	r0, r2, #536870912	; 0x20000000
 1502f48:	02020202 	andeq	r0, r2, #536870912	; 0x20000000
 1502f4c:	02020202 	andeq	r0, r2, #536870912	; 0x20000000
 1502f50:	10020202 	andne	r0, r2, r2, lsl #4
 1502f54:	02020202 	andeq	r0, r2, #536870912	; 0x20000000
 1502f58:	02020202 	andeq	r0, r2, #536870912	; 0x20000000
 1502f5c:	7566650a 	strbvc	r6, [r6, #-1290]!	; 0x50a
 1502f60:	70206573 	eorvc	r6, r0, r3, ror r5
 1502f64:	72676f72 	rsbvc	r6, r7, #456	; 0x1c8
 1502f68:	656d6d61 	strbvs	r6, [sp, #-3425]!	; 0xd61
 1502f6c:	31762072 	cmncc	r6, r2, ror r0
 1502f70:	2035302e 	eorscs	r3, r5, lr, lsr #32
 1502f74:	72617473 	rsbvc	r7, r1, #1929379840	; 0x73000000
 1502f78:	2e2e2e74 	mcrcs	14, 1, r2, cr14, cr4, {3}
 1502f7c:	00000a2e 	andeq	r0, r0, lr, lsr #20
 1502f80:	726f6609 	rsbvc	r6, pc, #9437184	; 0x900000
 1502f84:	63657320 	cmnvs	r5, #32, 6	; 0x80000000
 1502f88:	20657275 	rsbcs	r7, r5, r5, ror r2
 1502f8c:	746f6f62 	strbtvc	r6, [pc], #-3938	; 1502f94 <_ctype+0x138>
 1502f90:	616c7020 	cmnvs	ip, r0, lsr #32
 1502f94:	726f6674 	rsbvc	r6, pc, #116, 12	; 0x7400000
 1502f98:	0a202c6d 	beq	1d0e154 <__bss_end__+0x7fa614>
 1502f9c:	00000000 	andeq	r0, r0, r0
 1502fa0:	20772d09 	rsbscs	r2, r7, r9, lsl #26
 1502fa4:	20617372 	rsbcs	r7, r1, r2, ror r3
 1502fa8:	0000000a 	andeq	r0, r0, sl
 1502fac:	6764756a 	strbvs	r7, [r4, -sl, ror #10]!
 1502fb0:	61662065 	cmnvs	r6, r5, rrx
 1502fb4:	0a206c69 	beq	1d1e160 <__bss_end__+0x80a620>
 1502fb8:	00000000 	andeq	r0, r0, r0
 1502fbc:	20772d09 	rsbscs	r2, r7, r9, lsl #26
 1502fc0:	2079656b 	rsbscs	r6, r9, fp, ror #10
 1502fc4:	0000000a 	andeq	r0, r0, sl
 1502fc8:	20772d09 	rsbscs	r2, r7, r9, lsl #26
 1502fcc:	64656573 	strbtvs	r6, [r5], #-1395	; 0x573
 1502fd0:	00000a20 	andeq	r0, r0, r0, lsr #20
 1502fd4:	20772d09 	rsbscs	r2, r7, r9, lsl #26
 1502fd8:	74737563 	ldrbtvc	r7, [r3], #-1379	; 0x563
 1502fdc:	0000000a 	andeq	r0, r0, sl
 1502fe0:	78616d09 	stmdavc	r1!, {r0, r3, r8, sl, fp, sp, lr}^
 1502fe4:	7563202e 	strbvc	r2, [r3, #-46]!	; 0x2e
 1502fe8:	645f7473 	ldrbvs	r7, [pc], #-1139	; 1502ff0 <_ctype+0x194>
 1502fec:	20617461 	rsbcs	r7, r1, r1, ror #8
 1502ff0:	676e656c 	strbvs	r6, [lr, -ip, ror #10]!
 1502ff4:	69206874 	stmdbvs	r0!, {r2, r4, r5, r6, fp, sp, lr}
 1502ff8:	36312073 			; <UNDEFINED> instruction: 0x36312073
 1502ffc:	00000a42 	andeq	r0, r0, r2, asr #20
 1503000:	20772d09 	rsbscs	r2, r7, r9, lsl #26
 1503004:	74737563 	ldrbtvc	r7, [r3], #-1379	; 0x563
 1503008:	7461645f 	strbtvc	r6, [r1], #-1119	; 0x45f
 150300c:	00000a61 	andeq	r0, r0, r1, ror #20
 1503010:	206f6e09 	rsbcs	r6, pc, r9, lsl #28
 1503014:	74737563 	ldrbtvc	r7, [r3], #-1379	; 0x563
 1503018:	7461645f 	strbtvc	r6, [r1], #-1119	; 0x45f
 150301c:	00000a61 	andeq	r0, r0, r1, ror #20
 1503020:	676f7270 			; <UNDEFINED> instruction: 0x676f7270
 1503024:	206d6172 	rsbcs	r6, sp, r2, ror r1
 1503028:	2050544f 	subscs	r5, r0, pc, asr #8
 150302c:	4b4f4b4f 	blmi	28d5d70 <__bss_end__+0x13c2230>
 1503030:	4b4f4b4f 	blmi	28d5d74 <__bss_end__+0x13c2234>
 1503034:	4b4f4b4f 	blmi	28d5d78 <__bss_end__+0x13c2238>
 1503038:	21212121 	teqcs	r1, r1, lsr #2
 150303c:	0a212121 	beq	1d4b4c8 <__bss_end__+0x837988>
 1503040:	00000000 	andeq	r0, r0, r0
 1503044:	676f7270 			; <UNDEFINED> instruction: 0x676f7270
 1503048:	206d6172 	rsbcs	r6, sp, r2, ror r1
 150304c:	2050544f 	subscs	r5, r0, pc, asr #8
 1503050:	6c696166 	stfvse	f6, [r9], #-408	; 0xfffffe68
 1503054:	6c696166 	stfvse	f6, [r9], #-408	; 0xfffffe68
 1503058:	6c696166 	stfvse	f6, [r9], #-408	; 0xfffffe68
 150305c:	21212121 	teqcs	r1, r1, lsr #2
 1503060:	0a212121 	beq	1d4b4ec <__bss_end__+0x8379ac>
 1503064:	00000000 	andeq	r0, r0, r0
 1503068:	30257830 	eorcc	r7, r5, r0, lsr r8
 150306c:	3a786c38 	bcc	331e154 <__bss_end__+0x1e0a614>
 1503070:	00000000 	andeq	r0, r0, r0
 1503074:	2a302520 	bcs	210c4fc <__bss_end__+0xbf89bc>
 1503078:	00000078 	andeq	r0, r0, r8, ror r0
 150307c:	0000002a 	andeq	r0, r0, sl, lsr #32
 1503080:	20202020 	eorcs	r2, r0, r0, lsr #32
 1503084:	0a73253a 	beq	31cc574 <__bss_end__+0x1cb8a34>
 1503088:	00000000 	andeq	r0, r0, r0
 150308c:	20202020 	eorcs	r2, r0, r0, lsr #32
 1503090:	000a2a3a 	andeq	r2, sl, sl, lsr sl
 1503094:	3d746572 	cfldr64cc	mvdx6, [r4, #-456]!	; 0xfffffe38
 1503098:	000a6425 	andeq	r6, sl, r5, lsr #8
 150309c:	5b776172 	blpl	32db66c <__bss_end__+0x1dc7b2c>
 15030a0:	20782520 	rsbscs	r2, r8, r0, lsr #10
 15030a4:	2020205d 	eorcs	r2, r0, sp, asr r0
 15030a8:	20202020 	eorcs	r2, r0, r0, lsr #32
 15030ac:	20636e65 	rsbcs	r6, r3, r5, ror #28
 15030b0:	7825205b 	stmdavc	r5!, {r0, r1, r3, r4, r6, sp}
 15030b4:	000a5d20 	andeq	r5, sl, r0, lsr #26
 15030b8:	5b636e65 	blpl	2ddea54 <__bss_end__+0x18caf14>
 15030bc:	20782520 	rsbscs	r2, r8, r0, lsr #10
 15030c0:	2020205d 	eorcs	r2, r0, sp, asr r0
 15030c4:	20202020 	eorcs	r2, r0, r0, lsr #32
 15030c8:	5b776172 	blpl	32db698 <__bss_end__+0x1dc7b58>
 15030cc:	5d782520 	cfldr64pl	mvdx2, [r8, #-128]!	; 0xffffff80
 15030d0:	0000000a 	andeq	r0, r0, sl
 15030d4:	20746f6e 	rsbscs	r6, r4, lr, ror #30
 15030d8:	6e727562 	cdpvs	5, 7, cr7, cr2, cr2, {3}
 15030dc:	00000a21 	andeq	r0, r0, r1, lsr #20
 15030e0:	65637865 	strbvs	r7, [r3, #-2149]!	; 0x865
 15030e4:	6b206465 	blvs	1d1c280 <__bss_end__+0x808740>
 15030e8:	65737965 	ldrbvs	r7, [r3, #-2405]!	; 0x965
 15030ec:	6176206c 	cmnvs	r6, ip, rrx
 15030f0:	0a65756c 	beq	2e606a8 <__bss_end__+0x194cb68>
 15030f4:	00000000 	andeq	r0, r0, r0
 15030f8:	65637865 	strbvs	r7, [r3, #-2149]!	; 0x865
 15030fc:	68206465 	stmdavs	r0!, {r0, r2, r5, r6, sl, sp, lr}
 1503100:	6b686377 	blvs	2f1bee4 <__bss_end__+0x1a083a4>
 1503104:	6c617620 	stclvs	6, cr7, [r1], #-128	; 0xffffff80
 1503108:	000a6575 	andeq	r6, sl, r5, ror r5

0150310c <__FUNCTION__.6529>:
 150310c:	5f534541 	svcpl	0x00534541
 1503110:	5f424345 	svcpl	0x00424345
 1503114:	72636e65 	rsbvc	r6, r3, #1616	; 0x650
 1503118:	00747079 	rsbseq	r7, r4, r9, ror r0

0150311c <Kh_key_default>:
 150311c:	ad0d8175 	stfged	f0, [sp, #-468]	; 0xfffffe2c
 1503120:	a0d732c0 	sbcsge	r3, r7, r0, asr #5
 1503124:	e56ef350 	strb	pc, [lr, #-848]!	; 0x350	; <UNPREDICTABLE>
 1503128:	c53ce48b 	ldrgt	lr, [ip, #-1163]!	; 0x48b
 150312c:	2e70636d 	cdpcs	3, 7, cr6, cr0, cr13, {3}
 1503130:	00000063 	andeq	r0, r0, r3, rrx
 1503134:	202a2a2a 	eorcs	r2, sl, sl, lsr #20
 1503138:	25207325 	strcs	r7, [r0, #-805]!	; 0x325
 150313c:	64252073 	strtvs	r2, [r5], #-115	; 0x73
 1503140:	0000000a 	andeq	r0, r0, sl
 1503144:	483e3d3d 	ldmdami	lr!, {r0, r2, r3, r4, r5, r8, sl, fp, ip, sp}
 1503148:	41535257 	cmpmi	r3, r7, asr r2
 150314c:	6d697420 	cfstrdvs	mvd7, [r9, #-128]!	; 0xffffff80
 1503150:	74756f65 	ldrbtvc	r6, [r5], #-3941	; 0xf65
 1503154:	000a2120 	andeq	r2, sl, r0, lsr #2

01503158 <.LANCHOR0>:
 1503158:	30002008 	andcc	r2, r0, r8
 150315c:	c001500f 	andgt	r5, r1, pc
 1503160:	700d6002 	andvc	r6, sp, r2
 1503164:	d008a00b 	andle	sl, r8, fp
 1503168:	61727261 	cmnvs	r2, r1, ror #4
 150316c:	6f632079 	svcvs	0x00632079
 1503170:	7261706d 	rsbvc	r7, r1, #109	; 0x6d
 1503174:	61702065 	cmnvs	r0, r5, rrx
 1503178:	000a7373 	andeq	r7, sl, r3, ror r3
 150317c:	756c6176 	strbvc	r6, [ip, #-374]!	; 0x176
 1503180:	203a2065 	eorscs	r2, sl, r5, rrx
 1503184:	00000000 	andeq	r0, r0, r0
 1503188:	65746e69 	ldrbvs	r6, [r4, #-3689]!	; 0xe69
 150318c:	74697267 	strbtvc	r7, [r9], #-615	; 0x267
 1503190:	203a2079 	eorscs	r2, sl, r9, ror r0
 1503194:	00000000 	andeq	r0, r0, r0
 1503198:	69206472 	stmdbvs	r0!, {r1, r4, r5, r6, sl, sp, lr}
 150319c:	6765746e 	strbvs	r7, [r5, -lr, ror #8]!
 15031a0:	79746972 	ldmdbvc	r4!, {r1, r4, r5, r6, r8, fp, sp, lr}^
 15031a4:	00203a20 	eoreq	r3, r0, r0, lsr #20
 15031a8:	69207277 	stmdbvs	r0!, {r0, r1, r2, r4, r5, r6, r9, ip, sp, lr}
 15031ac:	6765746e 	strbvs	r7, [r5, -lr, ror #8]!
 15031b0:	79746972 	ldmdbvc	r4!, {r1, r4, r5, r6, r8, fp, sp, lr}^
 15031b4:	6e6f6420 	cdpvs	4, 6, cr6, cr15, cr0, {1}
 15031b8:	00000a65 	andeq	r0, r0, r5, ror #20
 15031bc:	69207277 	stmdbvs	r0!, {r0, r1, r2, r4, r5, r6, r9, ip, sp, lr}
 15031c0:	6765746e 	strbvs	r7, [r5, -lr, ror #8]!
 15031c4:	79746972 	ldmdbvc	r4!, {r1, r4, r5, r6, r8, fp, sp, lr}^
 15031c8:	69616620 	stmdbvs	r1!, {r5, r9, sl, sp, lr}^
 15031cc:	00000a6c 	andeq	r0, r0, ip, ror #20

015031d0 <__FUNCTION__.3994>:
 15031d0:	64786568 	ldrbtvs	r6, [r8], #-1384	; 0x568
 15031d4:	00706d75 	rsbseq	r6, r0, r5, ror sp
 15031d8:	656d6954 	strbvs	r6, [sp, #-2388]!	; 0x954
 15031dc:	74756f20 	ldrbtvc	r6, [r5], #-3872	; 0xf20
 15031e0:	00000a20 	andeq	r0, r0, r0, lsr #20
 15031e4:	4c4c554e 	cfstr64mi	mvdx5, [ip], {78}	; 0x4e
 15031e8:	0000000a 	andeq	r0, r0, sl
 15031ec:	78302820 	ldmdavc	r0!, {r5, fp, sp}
 15031f0:	00000000 	andeq	r0, r0, r0
 15031f4:	00000a29 	andeq	r0, r0, r9, lsr #20
 15031f8:	00000020 	andeq	r0, r0, r0, lsr #32

Disassembly of section .data:

015131fc <rsa_pub_key>:
 15131fc:	ec39e4af 	cfldrs	mvf14, [r9], #-700	; 0xfffffd44
 1513200:	0016e5dd 			; <UNDEFINED> instruction: 0x0016e5dd
 1513204:	8465bb72 	strbthi	fp, [r5], #-2930	; 0xb72
 1513208:	bd4fa5dd 	cfstr64lt	mvdx10, [pc, #-884]	; 1512e9c <__FUNCTION__.3994+0xfccc>
 151320c:	e32ee3df 	teq	lr, #2080374787	; 0x7c000003
 1513210:	00db5c17 	sbcseq	r5, fp, r7, lsl ip
 1513214:	d2fe52ac 	rscsle	r5, lr, #172, 4	; 0xc000000a
 1513218:	ec2a71c3 	stfs	f7, [sl], #-780	; 0xfffffcf4
 151321c:	1d77452b 	cfldr64ne	mvdx4, [r7, #-172]!	; 0xffffff54
 1513220:	304c7f48 	subcc	r7, ip, r8, asr #30
 1513224:	7c2c34c7 	cfstrsvc	mvf3, [ip], #-796	; 0xfffffce4
 1513228:	01e5958f 	mvneq	r9, pc, lsl #11
 151322c:	1f9473d8 	svcne	0x009473d8
 1513230:	2710e662 	ldrcs	lr, [r0, -r2, ror #12]
 1513234:	acf87a98 	vldmiage	r8!, {s15-s166}
 1513238:	9f9b925a 	svcls	0x009b925a
 151323c:	1719b66e 	ldrne	fp, [r9, -lr, ror #12]
 1513240:	0c3d1971 	ldceq	9, cr1, [sp], #-452	; 0xfffffe3c
 1513244:	18f46303 	ldmne	r4!, {r0, r1, r8, r9, sp, lr}^
 1513248:	fcbfc6a4 	ldc2	6, cr12, [pc], #656	; 15134e0 <rsa_pub_tee_key+0xdc>
 151324c:	12ff9440 	rscsne	r9, pc, #64, 8	; 0x40000000
 1513250:	8ec0883f 	mcrhi	8, 6, r8, cr0, cr15, {1}
 1513254:	5481c382 	strpl	ip, [r1], #898	; 0x382
 1513258:	3dba11fa 	ldfccs	f1, [sl, #1000]!	; 0x3e8
 151325c:	9ef62b74 	vmovls.u8	r2, d6[7]
 1513260:	ffef1d46 			; <UNDEFINED> instruction: 0xffef1d46
 1513264:	894305d8 	stmdbhi	r3, {r3, r4, r6, r7, r8, sl}^
 1513268:	76ed8476 	uxtabvc	r8, sp, r6, ror #8
 151326c:	ad9060f3 	ldcge	0, cr6, [r0, #972]	; 0x3cc
 1513270:	38c2ccfa 	stmiacc	r2, {r1, r3, r4, r5, r6, r7, sl, fp, lr, pc}^
 1513274:	62c0ff88 	sbcvs	pc, r0, #136, 30	; 0x220
 1513278:	1579ec0a 	ldrbne	lr, [r9, #-3082]!	; 0xc0a
 151327c:	675e0048 	ldrbvs	r0, [lr, -r8, asr #32]
 1513280:	486be9a4 	stmdami	fp!, {r2, r5, r7, r8, fp, sp, lr, pc}^
 1513284:	0cde44d9 	cfldrdeq	mvd4, [lr], {217}	; 0xd9
 1513288:	56cf0ee8 	strbpl	r0, [pc], r8, ror #29
 151328c:	2618c91b 			; <UNDEFINED> instruction: 0x2618c91b
 1513290:	8a24e311 	bhi	1e4bedc <__bss_end__+0x93839c>
 1513294:	642f509c 	strtvs	r5, [pc], #-156	; 151329c <rsa_pub_key+0xa0>
 1513298:	48d88a99 	ldmmi	r8, {r0, r3, r4, r7, r9, fp, pc}^
 151329c:	629dd425 	addsvs	sp, sp, #620756992	; 0x25000000
 15132a0:	a8af95be 	stmiage	pc!, {r1, r2, r3, r4, r5, r7, r8, sl, ip, pc}	; <UNPREDICTABLE>
 15132a4:	9d305a0e 	vldmdbls	r0!, {s10-s23}
 15132a8:	6eeee264 	cdpvs	2, 14, cr14, cr14, cr4, {3}
 15132ac:	25d2f066 	ldrbcs	pc, [r2, #102]	; 0x66	; <UNPREDICTABLE>
 15132b0:	db143839 	blle	1a2139c <__bss_end__+0x50d85c>
 15132b4:	a86d03d4 	stmdage	sp!, {r2, r4, r6, r7, r8, r9}^
 15132b8:	fa80cb0f 	blx	ff545efc <__bss_end__+0xfe0323bc>
 15132bc:	def72263 	cdple	2, 15, cr2, cr7, cr3, {3}
 15132c0:	83944dbf 	orrshi	r4, r4, #12224	; 0x2fc0
 15132c4:	2ec53a81 	vdivcs.f32	s7, s11, s2
 15132c8:	a8c593d3 	stmiage	r5, {r0, r1, r4, r6, r7, r8, r9, ip, pc}^
 15132cc:	9374b09c 	cmnls	r4, #156	; 0x9c
 15132d0:	11fd65c8 	mvnsne	r6, r8, asr #11
 15132d4:	2a5e7165 	bcs	2caf870 <__bss_end__+0x179bd30>
 15132d8:	f148b0b7 			; <UNDEFINED> instruction: 0xf148b0b7
 15132dc:	41054302 	tstmi	r5, r2, lsl #6
 15132e0:	7a64a9a8 	bvc	2e3d988 <__bss_end__+0x1929e48>
 15132e4:	ab81b7ec 	blge	ff58129c <__bss_end__+0xfe06d75c>
 15132e8:	dad35f89 	ble	9eb114 <_back_addr-0xb14eec>
 15132ec:	0db8b8c3 	ldceq	8, cr11, [r8, #780]!	; 0x30c
 15132f0:	3f74dba1 	svccc	0x0074dba1
 15132f4:	af3f83eb 	svcge	0x003f83eb
 15132f8:	b9975438 	ldmiblt	r7, {r3, r4, r5, sl, ip, lr}

015132fc <rsa_pub_key_end>:
 15132fc:	00000000 	andeq	r0, r0, r0

01513300 <rsa_pub_fw_key>:
 1513300:	35c8bfd3 	strbcc	fp, [r8, #4051]	; 0xfd3
 1513304:	edbbc7b0 	ldc	7, cr12, [fp, #704]!	; 0x2c0
 1513308:	ba230033 	blt	1dd33dc <__bss_end__+0x8bf89c>
 151330c:	45ceb331 	strbmi	fp, [lr, #817]	; 0x331
 1513310:	82acf39f 	adchi	pc, ip, #2080374786	; 0x7c000002
 1513314:	98ba4376 	ldmls	sl!, {r1, r2, r4, r5, r6, r8, r9, lr}
 1513318:	7dbf238f 	ldcvc	3, cr2, [pc, #572]!	; 151355c <aes_seed+0x4>
 151331c:	045292d0 	ldrbeq	r9, [r2], #-720	; 0x2d0
 1513320:	4def37de 	stclmi	7, cr3, [pc, #888]!	; 15136a0 <aes_key_ks>
 1513324:	6a55d85a 	bvs	2a89494 <__bss_end__+0x1575954>
 1513328:	33b6e5b5 			; <UNDEFINED> instruction: 0x33b6e5b5
 151332c:	dbc36e4f 	blle	5eec70 <_back_addr-0xf11390>
 1513330:	63cd3d5d 	bicvs	r3, sp, #5952	; 0x1740
 1513334:	ee9c07ee 	cdp	7, 9, cr0, cr12, cr14, {7}
 1513338:	06e1f4b4 			; <UNDEFINED> instruction: 0x06e1f4b4
 151333c:	835a81aa 	cmphi	sl, #-2147483606	; 0x8000002a
 1513340:	1661bdb1 			; <UNDEFINED> instruction: 0x1661bdb1
 1513344:	2c2cd5cc 	cfstr32cs	mvfx13, [ip], #-816	; 0xfffffcd0
 1513348:	64afb177 	strtvs	fp, [pc], #375	; 1513350 <rsa_pub_fw_key+0x50>
 151334c:	95c681ce 	strbls	r8, [r6, #462]	; 0x1ce
 1513350:	307ff6b8 	ldrhtcc	pc, [pc], #-104	; <UNPREDICTABLE>
 1513354:	057e77d4 	ldrbeq	r7, [lr, #-2004]!	; 0x7d4
 1513358:	ad53fac7 	vldrge	s31, [r3, #-796]	; 0xfffffce4
 151335c:	9e6cd98a 	cdpls	9, 6, cr13, cr12, cr10, {4}
 1513360:	5eb83db9 	mrcpl	13, 5, r3, cr8, cr9, {5}
 1513364:	82e0e660 	rschi	lr, r0, #96, 12	; 0x6000000
 1513368:	c7c6f48a 	strbgt	pc, [r6, sl, lsl #9]	; <UNPREDICTABLE>
 151336c:	cc892978 	stcgt	9, cr2, [r9], {120}	; 0x78
 1513370:	81858d55 	orrhi	r8, r5, r5, asr sp
 1513374:	195dcfb8 	ldmdbne	sp, {r3, r4, r5, r7, r8, r9, sl, fp, lr, pc}^
 1513378:	da968380 	ble	ffab4180 <__bss_end__+0xfe5a0640>
 151337c:	51b8a7cc 			; <UNDEFINED> instruction: 0x51b8a7cc
 1513380:	09744000 	ldmdbeq	r4!, {lr}^
 1513384:	0df9c109 	ldfeqp	f4, [r9, #36]!	; 0x24
 1513388:	7299d6ae 	addsvc	sp, r9, #182452224	; 0xae00000
 151338c:	a810b832 	ldmdage	r0, {r1, r4, r5, fp, ip, sp, pc}
 1513390:	203e610b 	eorscs	r6, lr, fp, lsl #2
 1513394:	01f2bfeb 	mvnseq	fp, fp, ror #31
 1513398:	a7b2ced5 	sbfxge	ip, r5, #29, #19
 151339c:	ce5557fd 	mrcgt	7, 2, r5, cr5, cr13, {7}
 15133a0:	71f2b07b 	mvnsvc	fp, fp, ror r0
 15133a4:	8eec1c8d 	cdphi	12, 14, cr1, cr12, cr13, {4}
 15133a8:	84d9ad1f 	ldrbhi	sl, [r9], #3359	; 0xd1f
 15133ac:	c17be870 	cmngt	fp, r0, ror r8
 15133b0:	494ad860 	stmdbmi	sl, {r5, r6, fp, ip, lr, pc}^
 15133b4:	7bebaee7 	blvc	ffef58 <_back_addr-0x5010a8>
 15133b8:	0442e1dd 	strbeq	lr, [r2], #-477	; 0x1dd
 15133bc:	cfad0e27 	svcgt	0x00ad0e27
 15133c0:	b1d114c7 	bicslt	r1, r1, r7, asr #9
 15133c4:	3cbccbb5 	fldmiaxcc	ip!, {d12-d101}	;@ Deprecated
 15133c8:	49ac9671 	stmibmi	ip!, {r0, r4, r5, r6, r9, sl, ip, pc}
 15133cc:	d966c784 	stmdble	r6!, {r2, r7, r8, r9, sl, lr, pc}^
 15133d0:	e8a7962d 	stmia	r7!, {r0, r2, r3, r5, r9, sl, ip, pc}
 15133d4:	3c630143 	stfcce	f0, [r3], #-268	; 0xfffffef4
 15133d8:	4b1aaffe 	blmi	1bbf3d8 <__bss_end__+0x6ab898>
 15133dc:	b1aaacfd 	strdlt	sl, [sl, sp]!
 15133e0:	f937354f 			; <UNDEFINED> instruction: 0xf937354f
 15133e4:	e3f61eaf 	mvns	r1, #2800	; 0xaf0
 15133e8:	6e261ecc 	cdpvs	14, 2, cr1, cr6, cr12, {6}
 15133ec:	d2a7f5a5 	adcle	pc, r7, #692060160	; 0x29400000
 15133f0:	867b0e40 	ldrbthi	r0, [fp], -r0, asr #28
 15133f4:	09c69fe9 	stmibeq	r6, {r0, r3, r5, r6, r7, r8, r9, sl, fp, ip, pc}^
 15133f8:	d28288d9 	addle	r8, r2, #14221312	; 0xd90000
 15133fc:	95e48d81 	strbls	r8, [r4, #3457]!	; 0xd81

01513400 <rsa_pub_fw_key_end>:
 1513400:	00000000 	andeq	r0, r0, r0

01513404 <rsa_pub_tee_key>:
 1513404:	e262baf3 	rsb	fp, r2, #995328	; 0xf3000
 1513408:	e8dbd77a 	ldm	fp, {r1, r3, r4, r5, r6, r8, r9, sl, ip, lr, pc}^
 151340c:	30cb0248 	sbccc	r0, fp, r8, asr #4
 1513410:	f75f03fd 			; <UNDEFINED> instruction: 0xf75f03fd
 1513414:	27f36571 			; <UNDEFINED> instruction: 0x27f36571
 1513418:	161e23df 			; <UNDEFINED> instruction: 0x161e23df
 151341c:	d68c6128 	strle	r6, [ip], r8, lsr #2
 1513420:	c4827c88 	strgt	r7, [r2], #3208	; 0xc88
 1513424:	2fd9e52a 	svccs	0x00d9e52a
 1513428:	fd90539a 	ldc2	3, cr5, [r0, #616]	; 0x268
 151342c:	83e1b31b 	mvnhi	fp, #1811939328	; 0x6c000000
 1513430:	902a0e45 	eorls	r0, sl, r5, asr #28
 1513434:	a1b0d415 	lslsge	sp, r5, r4
 1513438:	f3731b6c 	vqrdmulh.s<illegal width 64>	<illegal reg q8.5>, <illegal reg q1.5>, q14
 151343c:	f8c50bb3 			; <UNDEFINED> instruction: 0xf8c50bb3
 1513440:	6a5c8bc6 	bvs	2c36360 <__bss_end__+0x1722820>
 1513444:	e7188186 	ldr	r8, [r8, -r6, lsl #3]
 1513448:	61a0e427 	lsrvs	lr, r7, #8
 151344c:	08427029 	stmdaeq	r2, {r0, r3, r5, ip, sp, lr}^
 1513450:	8249831f 	subhi	r8, r9, #2080374784	; 0x7c000000
 1513454:	fc6f5aa5 	stc2l	10, cr5, [pc], #-660	; 15131c8 <__FUNCTION__.3994+0xfff8>
 1513458:	9971534f 	ldmdbls	r1!, {r0, r1, r2, r3, r6, r8, r9, ip, lr}^
 151345c:	200a1605 	andcs	r1, sl, r5, lsl #12
 1513460:	5a3f168a 	bpl	24d8e90 <__bss_end__+0xfc5350>
 1513464:	3d550f64 	ldclcc	15, cr0, [r5, #-400]	; 0xfffffe70
 1513468:	41ae631f 			; <UNDEFINED> instruction: 0x41ae631f
 151346c:	2312cd31 	tstcs	r2, #3136	; 0xc40
 1513470:	803dc245 	eorshi	ip, sp, r5, asr #4
 1513474:	60c5915b 	sbcvs	r9, r5, fp, asr r1
 1513478:	fa7f9f37 	blx	34fb15c <__bss_end__+0x1fe761c>
 151347c:	2abfba77 	bcs	501e60 <_back_addr-0xffe1a0>
 1513480:	4dd632ed 	lfmmi	f3, 2, [r6, #948]	; 0x3b4
 1513484:	69324acd 	ldmdbvs	r2!, {r0, r2, r3, r6, r7, r9, fp, lr}
 1513488:	8f05be10 	svchi	0x0005be10
 151348c:	97f21362 	ldrbls	r1, [r2, r2, ror #6]!
 1513490:	0f377e78 	svceq	0x00377e78
 1513494:	7e2edda6 	cdpvc	13, 2, cr13, cr14, cr6, {5}
 1513498:	9df6f4f1 	cfldrdls	mvd15, [r6, #964]!	; 0x3c4
 151349c:	146e8f6e 	strbtne	r8, [lr], #-3950	; 0xf6e
 15134a0:	4d6def99 	stclmi	15, cr14, [sp, #-612]!	; 0xfffffd9c
 15134a4:	4e2db967 	cdpmi	9, 2, cr11, cr13, cr7, {3}
 15134a8:	f69fb74b 			; <UNDEFINED> instruction: 0xf69fb74b
 15134ac:	8fa07b14 	svchi	0x00a07b14
 15134b0:	d471048a 	ldrbtle	r0, [r1], #-1162	; 0x48a
 15134b4:	cd1984ba 	cfldrsgt	mvf8, [r9, #-744]	; 0xfffffd18
 15134b8:	dbcef46c 	blle	8d0670 <_back_addr-0xc2f990>
 15134bc:	81048ad3 	ldrdhi	r8, [r4, -r3]
 15134c0:	898db497 	stmibhi	sp, {r0, r1, r2, r4, r7, sl, ip, sp, pc}
 15134c4:	94010ef4 	strls	r0, [r1], #-3828	; 0xef4
 15134c8:	f718c6e1 			; <UNDEFINED> instruction: 0xf718c6e1
 15134cc:	a84f788c 	stmdage	pc, {r2, r3, r7, fp, ip, sp, lr}^	; <UNPREDICTABLE>
 15134d0:	b22ff5a6 	eorlt	pc, pc, #696254464	; 0x29800000
 15134d4:	5bad71cf 	blpl	6fc18 <_back_addr-0x14903e8>
 15134d8:	4034d568 	eorsmi	sp, r4, r8, ror #10
 15134dc:	dd2d3b72 	vpushle	{d3-<overflow reg d59>}
 15134e0:	70c386f4 	strdvc	r8, [r3], #100	; 0x64
 15134e4:	c5482dce 	strbgt	r2, [r8, #-3534]	; 0xdce
 15134e8:	465c0130 			; <UNDEFINED> instruction: 0x465c0130
 15134ec:	e4afe7ed 	strt	lr, [pc], #2029	; 15134f4 <rsa_pub_tee_key+0xf0>
 15134f0:	053f4719 	ldreq	r4, [pc, #-1817]!	; 1512ddf <__FUNCTION__.3994+0xfc0f>
 15134f4:	9696b7f3 			; <UNDEFINED> instruction: 0x9696b7f3
 15134f8:	9f7f8e81 	svcls	0x007f8e81
 15134fc:	d9306deb 	ldmdble	r0!, {r0, r1, r3, r5, r6, r7, r8, sl, fp, sp, lr}
 1513500:	a294635c 	addsge	r6, r4, #92, 6	; 0x70000001

01513504 <rsa_pub_tee_key_end>:
 1513504:	00000000 	andeq	r0, r0, r0

01513508 <aes_key>:
 1513508:	fb6d158d 	blx	3058b46 <__bss_end__+0x1b45006>
 151350c:	e0bc6b32 	adcs	r6, ip, r2, lsr fp
 1513510:	343822ab 	ldrtcc	r2, [r8], #-683	; 0x2ab
 1513514:	e2e1837f 	rsc	r8, r1, #-67108863	; 0xfc000001

01513518 <aes_key_end>:
 1513518:	00000000 	andeq	r0, r0, r0

0151351c <aes_key1>:
 151351c:	4bdb96d3 	blmi	bf9070 <_back_addr-0x906f90>
 1513520:	44433c67 	strbmi	r3, [r3], #-3175	; 0xc67
 1513524:	d13216c7 	teqle	r2, r7, asr #13
 1513528:	047ceb1b 	ldrbteq	lr, [ip], #-2843	; 0xb1b

0151352c <aes_key1_end>:
 151352c:	00000000 	andeq	r0, r0, r0

01513530 <aes_key2>:
 1513530:	1372fb2f 	cmnne	r2, #48128	; 0xbc00
 1513534:	4890504b 	ldmmi	r0, {r0, r1, r3, r6, ip, lr}
 1513538:	76e3cd0c 	strbtvc	ip, [r3], ip, lsl #26
 151353c:	ef2fc4bc 	svc	0x002fc4bc

01513540 <aes_key2_end>:
 1513540:	00000000 	andeq	r0, r0, r0

01513544 <aes_key3>:
 1513544:	b1b37e33 			; <UNDEFINED> instruction: 0xb1b37e33
 1513548:	8a286395 	bhi	1f2c3a4 <__bss_end__+0xa18864>
 151354c:	fb6497e9 	blx	2e394fa <__bss_end__+0x19259ba>
 1513550:	0c28c865 	stceq	8, cr12, [r8], #-404	; 0xfffffe6c

01513554 <aes_key3_end>:
 1513554:	00000000 	andeq	r0, r0, r0

01513558 <aes_seed>:
 1513558:	68710f2d 	ldmdavs	r1!, {r0, r2, r3, r5, r8, r9, sl, fp}^
 151355c:	33038c17 	movwcc	r8, #15383	; 0x3c17
 1513560:	667c3ddd 			; <UNDEFINED> instruction: 0x667c3ddd
 1513564:	0ff88e5a 	svceq	0x00f88e5a

01513568 <aes_seed_end>:
 1513568:	00000000 	andeq	r0, r0, r0

0151356c <cust_data>:
 151356c:	00000000 	andeq	r0, r0, r0

01513570 <arrayB>:
 1513570:	ffffffff 			; <UNDEFINED> instruction: 0xffffffff
 1513574:	ffffffff 			; <UNDEFINED> instruction: 0xffffffff
 1513578:	ffffffff 			; <UNDEFINED> instruction: 0xffffffff
 151357c:	ffffffff 			; <UNDEFINED> instruction: 0xffffffff

01513580 <arrayA>:
 1513580:	07050301 	streq	r0, [r5, -r1, lsl #6]
 1513584:	23211109 	teqcs	r1, #1073741826	; 0x40000002
 1513588:	31292725 	teqcc	r9, r5, lsr #14
 151358c:	39373533 	ldmdbcc	r7!, {r0, r1, r4, r5, r8, sl, ip, sp}

01513590 <arrayC>:
 1513590:	ffffffff 			; <UNDEFINED> instruction: 0xffffffff
 1513594:	ffffffff 			; <UNDEFINED> instruction: 0xffffffff
 1513598:	ffffffff 			; <UNDEFINED> instruction: 0xffffffff
 151359c:	ffffffff 			; <UNDEFINED> instruction: 0xffffffff

015135a0 <rsa_pub_key>:
 15135a0:	ec39e4af 	cfldrs	mvf14, [r9], #-700	; 0xfffffd44
 15135a4:	0016e5dd 			; <UNDEFINED> instruction: 0x0016e5dd
 15135a8:	8465bb72 	strbthi	fp, [r5], #-2930	; 0xb72
 15135ac:	bd4fa5dd 	cfstr64lt	mvdx10, [pc, #-884]	; 1513240 <rsa_pub_key+0x44>
 15135b0:	e32ee3df 	teq	lr, #2080374787	; 0x7c000003
 15135b4:	00db5c17 	sbcseq	r5, fp, r7, lsl ip
 15135b8:	d2fe52ac 	rscsle	r5, lr, #172, 4	; 0xc000000a
 15135bc:	ec2a71c3 	stfs	f7, [sl], #-780	; 0xfffffcf4
 15135c0:	1d77452b 	cfldr64ne	mvdx4, [r7, #-172]!	; 0xffffff54
 15135c4:	304c7f48 	subcc	r7, ip, r8, asr #30
 15135c8:	7c2c34c7 	cfstrsvc	mvf3, [ip], #-796	; 0xfffffce4
 15135cc:	01e5958f 	mvneq	r9, pc, lsl #11
 15135d0:	1f9473d8 	svcne	0x009473d8
 15135d4:	2710e662 	ldrcs	lr, [r0, -r2, ror #12]
 15135d8:	acf87a98 	vldmiage	r8!, {s15-s166}
 15135dc:	9f9b925a 	svcls	0x009b925a
 15135e0:	1719b66e 	ldrne	fp, [r9, -lr, ror #12]
 15135e4:	0c3d1971 	ldceq	9, cr1, [sp], #-452	; 0xfffffe3c
 15135e8:	18f46303 	ldmne	r4!, {r0, r1, r8, r9, sp, lr}^
 15135ec:	fcbfc6a4 	ldc2	6, cr12, [pc], #656	; 1513884 <v_array+0x18c>
 15135f0:	12ff9440 	rscsne	r9, pc, #64, 8	; 0x40000000
 15135f4:	8ec0883f 	mcrhi	8, 6, r8, cr0, cr15, {1}
 15135f8:	5481c382 	strpl	ip, [r1], #898	; 0x382
 15135fc:	3dba11fa 	ldfccs	f1, [sl, #1000]!	; 0x3e8
 1513600:	9ef62b74 	vmovls.u8	r2, d6[7]
 1513604:	ffef1d46 			; <UNDEFINED> instruction: 0xffef1d46
 1513608:	894305d8 	stmdbhi	r3, {r3, r4, r6, r7, r8, sl}^
 151360c:	76ed8476 	uxtabvc	r8, sp, r6, ror #8
 1513610:	ad9060f3 	ldcge	0, cr6, [r0, #972]	; 0x3cc
 1513614:	38c2ccfa 	stmiacc	r2, {r1, r3, r4, r5, r6, r7, sl, fp, lr, pc}^
 1513618:	62c0ff88 	sbcvs	pc, r0, #136, 30	; 0x220
 151361c:	1579ec0a 	ldrbne	lr, [r9, #-3082]!	; 0xc0a
 1513620:	675e0048 	ldrbvs	r0, [lr, -r8, asr #32]
 1513624:	486be9a4 	stmdami	fp!, {r2, r5, r7, r8, fp, sp, lr, pc}^
 1513628:	0cde44d9 	cfldrdeq	mvd4, [lr], {217}	; 0xd9
 151362c:	56cf0ee8 	strbpl	r0, [pc], r8, ror #29
 1513630:	2618c91b 			; <UNDEFINED> instruction: 0x2618c91b
 1513634:	8a24e311 	bhi	1e4c280 <__bss_end__+0x938740>
 1513638:	642f509c 	strtvs	r5, [pc], #-156	; 1513640 <rsa_pub_key+0xa0>
 151363c:	48d88a99 	ldmmi	r8, {r0, r3, r4, r7, r9, fp, pc}^
 1513640:	629dd425 	addsvs	sp, sp, #620756992	; 0x25000000
 1513644:	a8af95be 	stmiage	pc!, {r1, r2, r3, r4, r5, r7, r8, sl, ip, pc}	; <UNPREDICTABLE>
 1513648:	9d305a0e 	vldmdbls	r0!, {s10-s23}
 151364c:	6eeee264 	cdpvs	2, 14, cr14, cr14, cr4, {3}
 1513650:	25d2f066 	ldrbcs	pc, [r2, #102]	; 0x66	; <UNPREDICTABLE>
 1513654:	db143839 	blle	1a21740 <__bss_end__+0x50dc00>
 1513658:	a86d03d4 	stmdage	sp!, {r2, r4, r6, r7, r8, r9}^
 151365c:	fa80cb0f 	blx	ff5462a0 <__bss_end__+0xfe032760>
 1513660:	def72263 	cdple	2, 15, cr2, cr7, cr3, {3}
 1513664:	83944dbf 	orrshi	r4, r4, #12224	; 0x2fc0
 1513668:	2ec53a81 	vdivcs.f32	s7, s11, s2
 151366c:	a8c593d3 	stmiage	r5, {r0, r1, r4, r6, r7, r8, r9, ip, pc}^
 1513670:	9374b09c 	cmnls	r4, #156	; 0x9c
 1513674:	11fd65c8 	mvnsne	r6, r8, asr #11
 1513678:	2a5e7165 	bcs	2cafc14 <__bss_end__+0x179c0d4>
 151367c:	f148b0b7 			; <UNDEFINED> instruction: 0xf148b0b7
 1513680:	41054302 	tstmi	r5, r2, lsl #6
 1513684:	7a64a9a8 	bvc	2e3dd2c <__bss_end__+0x192a1ec>
 1513688:	ab81b7ec 	blge	ff581640 <__bss_end__+0xfe06db00>
 151368c:	dad35f89 	ble	9eb4b8 <_back_addr-0xb14b48>
 1513690:	0db8b8c3 	ldceq	8, cr11, [r8, #780]!	; 0x30c
 1513694:	3f74dba1 	svccc	0x0074dba1
 1513698:	af3f83eb 	svcge	0x003f83eb
 151369c:	b9975438 	ldmiblt	r7, {r3, r4, r5, sl, ip, lr}

015136a0 <aes_key_ks>:
 15136a0:	12efcdab 	rscne	ip, pc, #10944	; 0x2ac0
 15136a4:	68245713 	stmdavs	r4!, {r0, r1, r4, r8, r9, sl, ip, lr}
 15136a8:	d4c3b2a1 	strble	fp, [r3], #673	; 0x2a1
 15136ac:	beba9090 	mrclt	0, 5, r9, cr10, cr0, {4}

015136b0 <aes_key_kh>:
 15136b0:	12efcdab 	rscne	ip, pc, #10944	; 0x2ac0
 15136b4:	68245713 	stmdavs	r4!, {r0, r1, r4, r8, r9, sl, ip, lr}
 15136b8:	d4c3b2a1 	strble	fp, [r3], #673	; 0x2a1
 15136bc:	beba9090 	mrclt	0, 5, r9, cr10, cr0, {4}

015136c0 <aes_key_kn>:
 15136c0:	12efcdab 	rscne	ip, pc, #10944	; 0x2ac0
 15136c4:	68245713 	stmdavs	r4!, {r0, r1, r4, r8, r9, sl, ip, lr}
 15136c8:	d4c3b2a1 	strble	fp, [r3], #673	; 0x2a1
 15136cc:	beba9090 	mrclt	0, 5, r9, cr10, cr0, {4}

015136d0 <deviceID>:
 15136d0:	31445452 	cmpcc	r4, r2, asr r4
 15136d4:	30783931 	rsbscc	r3, r8, r1, lsr r9
 15136d8:	30303030 	eorscc	r3, r0, r0, lsr r0
 15136dc:	31303030 	teqcc	r0, r0, lsr r0
 15136e0:	00000000 	andeq	r0, r0, r0

015136e4 <UartReg>:
 15136e4:	98007800 	stmdals	r0, {fp, ip, sp, lr}

015136e8 <alloc_current.3981>:
 15136e8:	04000000 	streq	r0, [r0], #-0

Disassembly of section .bss:

015136f0 <otp_retry_cnt>:
	...

015136f8 <v_array>:
	...

01513af8 <dec_array>:
	...

01513b38 <mcp_dscpt_addr>:
 1513b38:	00000000 	andeq	r0, r0, r0

01513b3c <alloc_count.3982>:
 1513b3c:	00000000 	andeq	r0, r0, r0

Disassembly of section .comment:

00000000 <.comment>:
   0:	3a434347 	bcc	10d0d24 <_back_addr-0x42f2dc>
   4:	65522820 	ldrbvs	r2, [r2, #-2080]	; 0x820
   8:	65746c61 	ldrbvs	r6, [r4, #-3169]!	; 0xc61
   c:	5341206b 	movtpl	r2, #4203	; 0x106b
  10:	342d4b44 	strtcc	r4, [sp], #-2884	; 0xb44
  14:	332e392e 	teqcc	lr, #753664	; 0xb8000
  18:	69754220 	ldmdbvs	r5!, {r5, r9, lr}^
  1c:	3220646c 	eorcc	r6, r0, #108, 8	; 0x6c000000
  20:	29303831 	ldmdbcs	r0!, {r0, r4, r5, fp, ip, sp}
  24:	392e3420 	stmdbcc	lr!, {r5, sl, ip, sp}
  28:	3220332e 	eorcc	r3, r0, #-1207959552	; 0xb8000000
  2c:	30353130 	eorscc	r3, r5, r0, lsr r1
  30:	20333134 	eorscs	r3, r3, r4, lsr r1
  34:	65727028 	ldrbvs	r7, [r2, #-40]!	; 0x28
  38:	656c6572 	strbvs	r6, [ip, #-1394]!	; 0x572
  3c:	29657361 	stmdbcs	r5!, {r0, r5, r6, r8, r9, ip, sp, lr}^
	...

Disassembly of section .ARM.attributes:

00000000 <.ARM.attributes>:
   0:	00003241 	andeq	r3, r0, r1, asr #4
   4:	61656100 	cmnvs	r5, r0, lsl #2
   8:	01006962 	tsteq	r0, r2, ror #18
   c:	00000028 	andeq	r0, r0, r8, lsr #32
  10:	412d3805 	teqmi	sp, r5, lsl #16
  14:	070e0600 	streq	r0, [lr, -r0, lsl #12]
  18:	09010841 	stmdbeq	r1, {r0, r6, fp}
  1c:	0c030a02 	stceq	10, cr0, [r3], {2}
  20:	14041201 	strne	r1, [r4], #-513	; 0x201
  24:	17011501 	strne	r1, [r1, -r1, lsl #10]
  28:	1a011803 	bne	4603c <_back_addr-0x14b9fc4>
  2c:	2a012202 	bcs	4883c <_back_addr-0x14b77c4>
  30:	Address 0x00000030 is out of bounds.


Disassembly of section .debug_aranges:

00000000 <.debug_aranges>:
   0:	0000001c 	andeq	r0, r0, ip, lsl r0
   4:	00000002 	andeq	r0, r0, r2
   8:	00040000 	andeq	r0, r4, r0
   c:	00000000 	andeq	r0, r0, r0
  10:	01500000 	cmpeq	r0, r0
  14:	00000074 	andeq	r0, r0, r4, ror r0
	...
  20:	0000001c 	andeq	r0, r0, ip, lsl r0
  24:	00640002 	rsbeq	r0, r4, r2
  28:	00040000 	andeq	r0, r4, r0
  2c:	00000000 	andeq	r0, r0, r0
  30:	01500074 	cmpeq	r0, r4, ror r0
  34:	00000028 	andeq	r0, r0, r8, lsr #32
	...
  40:	0000001c 	andeq	r0, r0, ip, lsl r0
  44:	010f0002 	tsteq	pc, r2
  48:	00040000 	andeq	r0, r4, r0
  4c:	00000000 	andeq	r0, r0, r0
  50:	0150009c 			; <UNDEFINED> instruction: 0x0150009c
  54:	000000a0 	andeq	r0, r0, r0, lsr #1
	...
  60:	0000001c 	andeq	r0, r0, ip, lsl r0
  64:	01da0002 	bicseq	r0, sl, r2
  68:	00040000 	andeq	r0, r4, r0
  6c:	00000000 	andeq	r0, r0, r0
  70:	0150013c 	cmpeq	r0, ip, lsr r1
  74:	00000194 	muleq	r0, r4, r1
	...
  80:	00000014 	andeq	r0, r0, r4, lsl r0
  84:	03220002 	teqeq	r2, #2
  88:	00040000 	andeq	r0, r4, r0
	...
  98:	0000001c 	andeq	r0, r0, ip, lsl r0
  9c:	03740002 	cmneq	r4, #2
  a0:	00040000 	andeq	r0, r4, r0
  a4:	00000000 	andeq	r0, r0, r0
  a8:	015002d0 	ldrsbeq	r0, [r0, #-32]	; 0xffffffe0
  ac:	000002b4 			; <UNDEFINED> instruction: 0x000002b4
	...
  b8:	0000001c 	andeq	r0, r0, ip, lsl r0
  bc:	0a090002 	beq	2400cc <_back_addr-0x12bff34>
  c0:	00040000 	andeq	r0, r4, r0
  c4:	00000000 	andeq	r0, r0, r0
  c8:	01500584 	cmpeq	r0, r4, lsl #11
  cc:	0000088c 	andeq	r0, r0, ip, lsl #17
	...
  d8:	0000001c 	andeq	r0, r0, ip, lsl r0
  dc:	1e910002 	cdpne	0, 9, cr0, cr1, cr2, {0}
  e0:	00040000 	andeq	r0, r4, r0
  e4:	00000000 	andeq	r0, r0, r0
  e8:	01500e10 	cmpeq	r0, r0, lsl lr
  ec:	00000c04 	andeq	r0, r0, r4, lsl #24
	...
  f8:	0000001c 	andeq	r0, r0, ip, lsl r0
  fc:	32d80002 	sbcscc	r0, r8, #2
 100:	00040000 	andeq	r0, r4, r0
 104:	00000000 	andeq	r0, r0, r0
 108:	01501a14 	cmpeq	r0, r4, lsl sl
 10c:	00000c00 	andeq	r0, r0, r0, lsl #24
	...
 118:	0000001c 	andeq	r0, r0, ip, lsl r0
 11c:	4a8a0002 	bmi	fe28012c <__bss_end__+0xfcd6c5ec>
 120:	00040000 	andeq	r0, r4, r0
 124:	00000000 	andeq	r0, r0, r0
 128:	01502614 	cmpeq	r0, r4, lsl r6
 12c:	00000168 	andeq	r0, r0, r8, ror #2
	...
 138:	0000001c 	andeq	r0, r0, ip, lsl r0
 13c:	4d790002 	ldclmi	0, cr0, [r9, #-8]!
 140:	00040000 	andeq	r0, r4, r0
 144:	00000000 	andeq	r0, r0, r0
 148:	0150277c 	cmpeq	r0, ip, ror r7
 14c:	000004c8 	andeq	r0, r0, r8, asr #9
	...
 158:	0000001c 	andeq	r0, r0, ip, lsl r0
 15c:	5acd0002 	bpl	ff34016c <__bss_end__+0xfde2c62c>
 160:	00040000 	andeq	r0, r4, r0
 164:	00000000 	andeq	r0, r0, r0
 168:	01502c44 	cmpeq	r0, r4, asr #24
 16c:	00000218 	andeq	r0, r0, r8, lsl r2
	...

Disassembly of section .debug_info:

00000000 <.debug_info>:
       0:	00000060 	andeq	r0, r0, r0, rrx
       4:	00000002 	andeq	r0, r0, r2
       8:	01040000 	mrseq	r0, (UNDEF: 4)
       c:	00000000 	andeq	r0, r0, r0
      10:	01500000 	cmpeq	r0, r0
      14:	01500074 	cmpeq	r0, r4, ror r0
      18:	72617473 	rsbvc	r7, r1, #1929379840	; 0x73000000
      1c:	00532e74 	subseq	r2, r3, r4, ror lr
      20:	6361622f 	cmnvs	r1, #-268435454	; 0xf0000002
      24:	2f70756b 	svccs	0x0070756b
      28:	622f6477 	eorvs	r6, pc, #1996488704	; 0x77000000
      2c:	63746f6f 	cmnvs	r4, #444	; 0x1bc
      30:	2f65646f 	svccs	0x0065646f
      34:	6f6f6275 	svcvs	0x006f6275
      38:	78652f74 	stmdavc	r5!, {r2, r4, r5, r6, r8, r9, sl, fp, sp}^
      3c:	6c706d61 	ldclvs	13, cr6, [r0], #-388	; 0xfffffe7c
      40:	652f7365 	strvs	r7, [pc, #-869]!	; fffffce3 <__bss_end__+0xfeaec1a3>
      44:	65737566 	ldrbvs	r7, [r3, #-1382]!	; 0x566
      48:	6f72705f 	svcvs	0x0072705f
      4c:	6d617267 	sfmvs	f7, 2, [r1, #-412]!	; 0xfffffe64
      50:	0072656d 	rsbseq	r6, r2, sp, ror #10
      54:	20554e47 	subscs	r4, r5, r7, asr #28
      58:	32205341 	eorcc	r5, r0, #67108865	; 0x4000001
      5c:	2e34322e 	cdpcs	2, 3, cr3, cr4, cr14, {1}
      60:	80010030 	andhi	r0, r1, r0, lsr r0
      64:	000000a7 	andeq	r0, r0, r7, lsr #1
      68:	00140004 	andseq	r0, r4, r4
      6c:	01040000 	mrseq	r0, (UNDEF: 4)
      70:	00000060 	andeq	r0, r0, r0, rrx
      74:	00000001 	andeq	r0, r0, r1
      78:	00017100 	andeq	r7, r1, r0, lsl #2
      7c:	50007400 	andpl	r7, r0, r0, lsl #8
      80:	00002801 	andeq	r2, r0, r1, lsl #16
      84:	00005000 	andeq	r5, r0, r0
      88:	08010200 	stmdaeq	r1, {r9}
      8c:	00000010 	andeq	r0, r0, r0, lsl r0
      90:	12060102 	andne	r0, r6, #-2147483648	; 0x80000000
      94:	02000000 	andeq	r0, r0, #0
      98:	001e0702 	andseq	r0, lr, r2, lsl #14
      9c:	02020000 	andeq	r0, r2, #0
      a0:	00005605 	andeq	r5, r0, r5, lsl #12
      a4:	07040200 	streq	r0, [r4, -r0, lsl #4]
      a8:	0000003b 	andeq	r0, r0, fp, lsr r0
      ac:	69050403 	stmdbvs	r5, {r0, r1, sl}
      b0:	0200746e 	andeq	r7, r0, #1845493760	; 0x6e000000
      b4:	00310708 	eorseq	r0, r1, r8, lsl #14
      b8:	08020000 	stmdaeq	r2, {}	; <UNPREDICTABLE>
      bc:	00004805 	andeq	r4, r0, r5, lsl #16
      c0:	07040200 	streq	r0, [r4, -r0, lsl #4]
      c4:	00000036 	andeq	r0, r0, r6, lsr r0
      c8:	00000904 	andeq	r0, r0, r4, lsl #18
      cc:	483c0100 	ldmdami	ip!, {r8}
      d0:	74000000 	strvc	r0, [r0], #-0
      d4:	28015000 	stmdacs	r1, {ip, lr}
      d8:	01000000 	mrseq	r0, (UNDEF: 0)
      dc:	0000989c 	muleq	r0, ip, r8
      e0:	00730500 	rsbseq	r0, r3, r0, lsl #10
      e4:	00983c01 	addseq	r3, r8, r1, lsl #24
      e8:	00000000 	andeq	r0, r0, r0
      ec:	6c060000 	stcvs	0, cr0, [r6], {-0}
      f0:	483e0100 	ldmdami	lr!, {r8}
      f4:	2b000000 	blcs	fc <_back_addr-0x14fff04>
      f8:	00000000 	andeq	r0, r0, r0
      fc:	009e0407 	addseq	r0, lr, r7, lsl #8
     100:	a3080000 	movwge	r0, #32768	; 0x8000
     104:	02000000 	andeq	r0, r0, #0
     108:	00190801 	andseq	r0, r9, r1, lsl #16
     10c:	c7000000 	strgt	r0, [r0, -r0]
     110:	04000000 	streq	r0, [r0], #-0
     114:	00008800 	andeq	r8, r0, r0, lsl #16
     118:	60010400 	andvs	r0, r1, r0, lsl #8
     11c:	01000000 	mrseq	r0, (UNDEF: 0)
     120:	000001a5 	andeq	r0, r0, r5, lsr #3
     124:	00000171 	andeq	r0, r0, r1, ror r1
     128:	0150009c 			; <UNDEFINED> instruction: 0x0150009c
     12c:	000000a0 	andeq	r0, r0, r0, lsr #1
     130:	0000008a 	andeq	r0, r0, sl, lsl #1
     134:	10080102 	andne	r0, r8, r2, lsl #2
     138:	02000000 	andeq	r0, r0, #0
     13c:	00120601 	andseq	r0, r2, r1, lsl #12
     140:	02020000 	andeq	r0, r2, #0
     144:	00001e07 	andeq	r1, r0, r7, lsl #28
     148:	05020200 	streq	r0, [r2, #-512]	; 0x200
     14c:	00000056 	andeq	r0, r0, r6, asr r0
     150:	3b070402 	blcc	1c1160 <_back_addr-0x133eea0>
     154:	03000000 	movweq	r0, #0
     158:	6e690504 	cdpvs	5, 6, cr0, cr9, cr4, {0}
     15c:	08020074 	stmdaeq	r2, {r2, r4, r5, r6}
     160:	00003107 	andeq	r3, r0, r7, lsl #2
     164:	05080200 	streq	r0, [r8, #-512]	; 0x200
     168:	00000048 	andeq	r0, r0, r8, asr #32
     16c:	36070402 	strcc	r0, [r7], -r2, lsl #8
     170:	04000000 	streq	r0, [r0], #-0
     174:	000001ae 	andeq	r0, r0, lr, lsr #3
     178:	00b23e01 	adcseq	r3, r2, r1, lsl #28
     17c:	009c0000 	addseq	r0, ip, r0
     180:	00a00150 	adceq	r0, r0, r0, asr r1
     184:	9c010000 	stcls	0, cr0, [r1], {-0}
     188:	000000b2 	strheq	r0, [r0], -r2
     18c:	00317305 	eorseq	r7, r1, r5, lsl #6
     190:	00bf3f01 	adcseq	r3, pc, r1, lsl #30
     194:	005b0000 	subseq	r0, fp, r0
     198:	73060000 	movwvc	r0, #24576	; 0x6000
     19c:	40010032 	andmi	r0, r1, r2, lsr r0
     1a0:	000000bf 	strheq	r0, [r0], -pc	; <UNPREDICTABLE>
     1a4:	73075101 	movwvc	r5, #28929	; 0x7101
     1a8:	bf420100 	svclt	0x00420100
     1ac:	9f000000 	svcls	0x00000000
     1b0:	07000000 	streq	r0, [r0, -r0]
     1b4:	43010074 	movwmi	r0, #4212	; 0x1074
     1b8:	000000bf 	strheq	r0, [r0], -pc	; <UNPREDICTABLE>
     1bc:	000000d5 	ldrdeq	r0, [r0], -r5
     1c0:	b8040800 	stmdalt	r4, {fp}
     1c4:	02000000 	andeq	r0, r0, #0
     1c8:	00190801 	andseq	r0, r9, r1, lsl #16
     1cc:	04080000 	streq	r0, [r8], #-0
     1d0:	000000c5 	andeq	r0, r0, r5, asr #1
     1d4:	0000b809 	andeq	fp, r0, r9, lsl #16
     1d8:	01440000 	mrseq	r0, (UNDEF: 68)
     1dc:	00040000 	andeq	r0, r4, r0
     1e0:	0000010b 	andeq	r0, r0, fp, lsl #2
     1e4:	00600104 	rsbeq	r0, r0, r4, lsl #2
     1e8:	cb010000 	blgt	401f0 <_back_addr-0x14bfe10>
     1ec:	71000001 	tstvc	r0, r1
     1f0:	3c000001 	stccc	0, cr0, [r0], {1}
     1f4:	94015001 	strls	r5, [r1], #-1
     1f8:	e3000001 	movw	r0, #1
     1fc:	02000000 	andeq	r0, r0, #0
     200:	00100801 	andseq	r0, r0, r1, lsl #16
     204:	01020000 	mrseq	r0, (UNDEF: 2)
     208:	00001206 	andeq	r1, r0, r6, lsl #4
     20c:	07020200 	streq	r0, [r2, -r0, lsl #4]
     210:	0000001e 	andeq	r0, r0, lr, lsl r0
     214:	56050202 	strpl	r0, [r5], -r2, lsl #4
     218:	02000000 	andeq	r0, r0, #0
     21c:	003b0704 	eorseq	r0, fp, r4, lsl #14
     220:	04030000 	streq	r0, [r3], #-0
     224:	746e6905 	strbtvc	r6, [lr], #-2309	; 0x905
     228:	07080200 	streq	r0, [r8, -r0, lsl #4]
     22c:	00000031 	andeq	r0, r0, r1, lsr r0
     230:	48050802 	stmdami	r5, {r1, fp}
     234:	02000000 	andeq	r0, r0, #0
     238:	00360704 	eorseq	r0, r6, r4, lsl #14
     23c:	c3040000 	movwgt	r0, #16384	; 0x4000
     240:	01000001 	tsteq	r0, r1
     244:	00005d41 	andeq	r5, r0, r1, asr #26
     248:	50013c00 	andpl	r3, r1, r0, lsl #24
     24c:	00019401 	andeq	r9, r1, r1, lsl #8
     250:	0e9c0100 	fmleqe	f0, f4, f0
     254:	05000001 	streq	r0, [r0, #-1]
     258:	00727473 	rsbseq	r7, r2, r3, ror r4
     25c:	010e4201 	tsteq	lr, r1, lsl #4
     260:	01000000 	mrseq	r0, (UNDEF: 0)
     264:	b5060000 	strlt	r0, [r6, #-0]
     268:	01000001 	tsteq	r0, r1
     26c:	00012043 	andeq	r2, r1, r3, asr #32
     270:	07510100 	ldrbeq	r0, [r1, -r0, lsl #2]
     274:	000001d5 	ldrdeq	r0, [r0], -r5
     278:	00484401 	subeq	r4, r8, r1, lsl #8
     27c:	01370000 	teqeq	r7, r0
     280:	73080000 	movwvc	r0, #32768	; 0x8000
     284:	0e460100 	dvfeqs	f0, f6, f0
     288:	96000001 	strls	r0, [r0], -r1
     28c:	08000001 	stmdaeq	r0, {r0}
     290:	00636361 	rsbeq	r6, r3, r1, ror #6
     294:	005d4701 	subseq	r4, sp, r1, lsl #14
     298:	01ca0000 	biceq	r0, sl, r0
     29c:	da090000 	ble	2402a4 <_back_addr-0x12bfd5c>
     2a0:	01000001 	tsteq	r0, r1
     2a4:	00005d47 	andeq	r5, r0, r7, asr #26
     2a8:	00021a00 	andeq	r1, r2, r0, lsl #20
     2ac:	00630800 	rsbeq	r0, r3, r0, lsl #16
     2b0:	00484801 	subeq	r4, r8, r1, lsl #16
     2b4:	022d0000 	eoreq	r0, sp, #0
     2b8:	6e080000 	cdpvs	0, 0, cr0, cr8, cr0, {0}
     2bc:	01006765 	tsteq	r0, r5, ror #14
     2c0:	00004849 	andeq	r4, r0, r9, asr #16
     2c4:	00027900 	andeq	r7, r2, r0, lsl #18
     2c8:	6e610800 	cdpvs	8, 6, cr0, cr1, cr0, {0}
     2cc:	49010079 	stmdbmi	r1, {r0, r3, r4, r5, r6}
     2d0:	00000048 	andeq	r0, r0, r8, asr #32
     2d4:	00000299 	muleq	r0, r9, r2
     2d8:	0001bc09 	andeq	fp, r1, r9, lsl #24
     2dc:	48490100 	stmdami	r9, {r8}^
     2e0:	da000000 	ble	2e8 <_back_addr-0x14ffd18>
     2e4:	00000002 	andeq	r0, r0, r2
     2e8:	0114040a 	tsteq	r4, sl, lsl #8
     2ec:	190b0000 	stmdbne	fp, {}	; <UNPREDICTABLE>
     2f0:	02000001 	andeq	r0, r0, #1
     2f4:	00190801 	andseq	r0, r9, r1, lsl #16
     2f8:	040a0000 	streq	r0, [sl], #-0
     2fc:	00000126 	andeq	r0, r0, r6, lsr #2
     300:	0119040a 	tsteq	r9, sl, lsl #8
     304:	250c0000 	strcs	r0, [ip, #-0]
     308:	37000000 	strcc	r0, [r0, -r0]
     30c:	0d000001 	stceq	0, cr0, [r0, #-4]
     310:	01e10e00 	mvneq	r0, r0, lsl #28
     314:	12020000 	andne	r0, r2, #0
     318:	00000142 	andeq	r0, r0, r2, asr #2
     31c:	00012c0b 	andeq	r2, r1, fp, lsl #24
     320:	004e0000 	subeq	r0, lr, r0
     324:	00040000 	andeq	r0, r4, r0
     328:	000001cb 	andeq	r0, r0, fp, asr #3
     32c:	00600104 	rsbeq	r0, r0, r4, lsl #2
     330:	e8010000 	stmda	r1, {}	; <UNPREDICTABLE>
     334:	71000001 	tstvc	r0, r1
     338:	af000001 	svcge	0x00000001
     33c:	02000001 	andeq	r0, r0, #1
     340:	00000034 	andeq	r0, r0, r4, lsr r0
     344:	0000002d 	andeq	r0, r0, sp, lsr #32
     348:	00002d03 	andeq	r2, r0, r3, lsl #26
     34c:	0400ff00 	streq	pc, [r0], #-3840	; 0xf00
     350:	01f00704 	mvnseq	r0, r4, lsl #14
     354:	01040000 	mrseq	r0, (UNDEF: 4)
     358:	00001008 	andeq	r1, r0, r8
     35c:	01e10500 	mvneq	r0, r0, lsl #10
     360:	20010000 	andcs	r0, r1, r0
     364:	0000004c 	andeq	r0, r0, ip, asr #32
     368:	2e5c0305 	cdpcs	3, 5, cr0, cr12, cr5, {0}
     36c:	1d060150 	stfnes	f0, [r6, #-320]	; 0xfffffec0
     370:	00000000 	andeq	r0, r0, r0
     374:	00000691 	muleq	r0, r1, r6
     378:	02100004 	andseq	r0, r0, #4
     37c:	01040000 	mrseq	r0, (UNDEF: 4)
     380:	00000060 	andeq	r0, r0, r0, rrx
     384:	00028f01 	andeq	r8, r2, r1, lsl #30
     388:	00044800 	andeq	r4, r4, r0, lsl #16
     38c:	5002d000 	andpl	sp, r2, r0
     390:	0002b401 	andeq	fp, r2, r1, lsl #8
     394:	0001d700 	andeq	sp, r1, r0, lsl #14
     398:	08010200 	stmdaeq	r1, {r9}
     39c:	00000010 	andeq	r0, r0, r0, lsl r0
     3a0:	12060102 	andne	r0, r6, #-2147483648	; 0x80000000
     3a4:	02000000 	andeq	r0, r0, #0
     3a8:	001e0702 	andseq	r0, lr, r2, lsl #14
     3ac:	02020000 	andeq	r0, r2, #0
     3b0:	00005605 	andeq	r5, r0, r5, lsl #12
     3b4:	025b0300 	subseq	r0, fp, #0, 6
     3b8:	b4020000 	strlt	r0, [r2], #-0
     3bc:	0000004c 	andeq	r0, r0, ip, asr #32
     3c0:	3b070402 	blcc	1c13d0 <_back_addr-0x133ec30>
     3c4:	04000000 	streq	r0, [r0], #-0
     3c8:	6e690504 	cdpvs	5, 6, cr0, cr9, cr4, {0}
     3cc:	08020074 	stmdaeq	r2, {r2, r4, r5, r6}
     3d0:	00003107 	andeq	r3, r0, r7, lsl #2
     3d4:	05080200 	streq	r0, [r8, #-512]	; 0x200
     3d8:	00000048 	andeq	r0, r0, r8, asr #32
     3dc:	36070402 	strcc	r0, [r7], -r2, lsl #8
     3e0:	03000000 	movweq	r0, #0
     3e4:	00000a60 	andeq	r0, r0, r0, ror #20
     3e8:	0068e502 	rsbeq	lr, r8, r2, lsl #10
     3ec:	04050000 	streq	r0, [r5], #-0
     3f0:	00000080 	andeq	r0, r0, r0, lsl #1
     3f4:	00008506 	andeq	r8, r0, r6, lsl #10
     3f8:	08010200 	stmdaeq	r1, {r9}
     3fc:	00000019 	andeq	r0, r0, r9, lsl r0
     400:	8f030407 	svchi	0x00030407
     404:	000000b3 	strheq	r0, [r0], -r3
     408:	00020708 	andeq	r0, r2, r8, lsl #14
     40c:	8b080000 	blhi	200414 <_back_addr-0x12ffbec>
     410:	01000003 	tsteq	r0, r3
     414:	0003e208 	andeq	lr, r3, r8, lsl #4
     418:	19080200 	stmdbne	r8, {r9}
     41c:	03000002 	movweq	r0, #2
     420:	0002a208 	andeq	sl, r2, r8, lsl #4
     424:	03000400 	movweq	r0, #1024	; 0x400
     428:	00000360 	andeq	r0, r0, r0, ror #6
     42c:	008c9503 	addeq	r9, ip, r3, lsl #10
     430:	0c090000 	stceq	0, cr0, [r9], {-0}
     434:	01000004 	tsteq	r0, r4
     438:	00005326 	andeq	r5, r0, r6, lsr #6
     43c:	5002d000 	andpl	sp, r2, r0
     440:	00000801 	andeq	r0, r0, r1, lsl #16
     444:	0a9c0100 	beq	fe70084c <__bss_end__+0xfd1ecd0c>
     448:	000002c7 	andeq	r0, r0, r7, asr #5
     44c:	00532b01 	subseq	r2, r3, r1, lsl #22
     450:	02d80000 	sbcseq	r0, r8, #0
     454:	00100150 	andseq	r0, r0, r0, asr r1
     458:	9c010000 	stcls	0, cr0, [r1], {-0}
     45c:	000000fc 	strdeq	r0, [r0], -ip
     460:	746d660b 	strbtvc	r6, [sp], #-1547	; 0x60b
     464:	7a2b0100 	bvc	ac086c <_back_addr-0xa3f794>
     468:	02000000 	andeq	r0, r0, #0
     46c:	000c7091 	muleq	ip, r1, r0
     470:	0002620a 	andeq	r6, r2, sl, lsl #4
     474:	5f300100 	svcpl	0x00300100
     478:	e8000001 	stmda	r0, {r0}
     47c:	24015002 	strcs	r5, [r1], #-2
     480:	01000000 	mrseq	r0, (UNDEF: 0)
     484:	00015f9c 	muleq	r1, ip, pc	; <UNPREDICTABLE>
     488:	022f0d00 	eoreq	r0, pc, #0, 26
     48c:	30010000 	andcc	r0, r1, r0
     490:	0000015f 	andeq	r0, r0, pc, asr r1
     494:	730e5001 	movwvc	r5, #57345	; 0xe001
     498:	01006372 	tsteq	r0, r2, ror r3
     49c:	00016130 	andeq	r6, r1, r0, lsr r1
     4a0:	0002ed00 	andeq	lr, r2, r0, lsl #26
     4a4:	0cb40f00 	ldceq	15, cr0, [r4]
     4a8:	30010000 	andcc	r0, r1, r0
     4ac:	0000006f 	andeq	r0, r0, pc, rrx
     4b0:	0000030e 	andeq	r0, r0, lr, lsl #6
     4b4:	00031210 	andeq	r1, r3, r0, lsl r2
     4b8:	68310100 	ldmdavs	r1!, {r8}
     4bc:	68000001 	stmdavs	r0, {r0}
     4c0:	10000003 	andne	r0, r0, r3
     4c4:	00000300 	andeq	r0, r0, r0, lsl #6
     4c8:	01683201 	cmneq	r8, r1, lsl #4
     4cc:	037b0000 	cmneq	fp, #0
     4d0:	11000000 	mrsne	r0, (UNDEF: 0)
     4d4:	67040504 	strvs	r0, [r4, -r4, lsl #10]
     4d8:	12000001 	andne	r0, r0, #1
     4dc:	00850405 	addeq	r0, r5, r5, lsl #8
     4e0:	9b0a0000 	blls	2804e8 <_back_addr-0x127fb18>
     4e4:	01000002 	tsteq	r0, r2
     4e8:	00005340 	andeq	r5, r0, r0, asr #6
     4ec:	50030c00 	andpl	r0, r3, r0, lsl #24
     4f0:	00005801 	andeq	r5, r0, r1, lsl #16
     4f4:	e09c0100 	adds	r0, ip, r0, lsl #2
     4f8:	0e000001 	cdpeq	0, 0, cr0, cr0, cr1, {0}
     4fc:	01007363 	tsteq	r0, r3, ror #6
     500:	00016140 	andeq	r6, r1, r0, asr #2
     504:	0003a600 	andeq	sl, r3, r0, lsl #12
     508:	74630e00 	strbtvc	r0, [r3], #-3584	; 0xe00
     50c:	61400100 	mrsvs	r0, (UNDEF: 80)
     510:	f8000001 			; <UNDEFINED> instruction: 0xf8000001
     514:	0f000003 	svceq	0x00000003
     518:	00000cb4 			; <UNDEFINED> instruction: 0x00000cb4
     51c:	006f4001 	rsbeq	r4, pc, r1
     520:	04240000 	strteq	r0, [r4], #-0
     524:	73130000 	tstvc	r3, #0
     528:	01003175 	tsteq	r0, r5, ror r1
     52c:	0001e042 	andeq	lr, r1, r2, asr #32
     530:	0004a800 	andeq	sl, r4, r0, lsl #16
     534:	75731300 	ldrbvc	r1, [r3, #-768]!	; 0x300
     538:	42010032 	andmi	r0, r1, #50	; 0x32
     53c:	000001e0 	andeq	r0, r0, r0, ror #3
     540:	0000051c 	andeq	r0, r0, ip, lsl r5
     544:	73657213 	cmnvc	r5, #805306369	; 0x30000001
     548:	53430100 	movtpl	r0, #12544	; 0x3100
     54c:	90000000 	andls	r0, r0, r0
     550:	00000005 	andeq	r0, r0, r5
     554:	01e60405 	mvneq	r0, r5, lsl #8
     558:	25060000 	strcs	r0, [r6, #-0]
     55c:	0a000000 	beq	564 <_back_addr-0x14ffa9c>
     560:	00000277 	andeq	r0, r0, r7, ror r2
     564:	00534b01 	subseq	r4, r3, r1, lsl #22
     568:	03640000 	cmneq	r4, #0
     56c:	01d00150 	bicseq	r0, r0, r0, asr r1
     570:	9c010000 	stcls	0, cr0, [r1], {-0}
     574:	00000448 	andeq	r0, r0, r8, asr #8
     578:	00042d14 	andeq	r2, r4, r4, lsl sp
     57c:	414d0100 	mrsmi	r0, (UNDEF: 93)
     580:	14000000 	strne	r0, [r0], #-0
     584:	0000037e 	andeq	r0, r0, lr, ror r3
     588:	00414e01 	subeq	r4, r1, r1, lsl #28
     58c:	95140000 	ldrls	r0, [r4, #-0]
     590:	01000004 	tsteq	r0, r4
     594:	0000414f 	andeq	r4, r0, pc, asr #2
     598:	03231400 	teqeq	r3, #0, 8
     59c:	50010000 	andpl	r0, r1, r0
     5a0:	00000041 	andeq	r0, r0, r1, asr #32
     5a4:	00033114 	andeq	r3, r3, r4, lsl r1
     5a8:	41510100 	cmpmi	r1, r0, lsl #2
     5ac:	14000000 	strne	r0, [r0], #-0
     5b0:	000002dd 	ldrdeq	r0, [r0], -sp
     5b4:	00415201 	subeq	r5, r1, r1, lsl #4
     5b8:	ce140000 	cdpgt	0, 1, cr0, cr4, cr0, {0}
     5bc:	01000002 	tsteq	r0, r2
     5c0:	00004153 	andeq	r4, r0, r3, asr r1
     5c4:	65721300 	ldrbvs	r1, [r2, #-768]!	; 0x300
     5c8:	54010073 	strpl	r0, [r1], #-115	; 0x73
     5cc:	00000053 	andeq	r0, r0, r3, asr r0
     5d0:	0000061f 	andeq	r0, r0, pc, lsl r6
     5d4:	0002f915 	andeq	pc, r2, r5, lsl r9	; <UNPREDICTABLE>
     5d8:	53560100 	cmppl	r6, #0, 2
     5dc:	71000000 	mrsvc	r0, (UNDEF: 0)
     5e0:	0c000002 	stceq	0, cr0, [r0], {2}
     5e4:	03cc1500 	biceq	r1, ip, #0, 10
     5e8:	5e010000 	cdppl	0, 0, cr0, cr1, cr0, {0}
     5ec:	00000053 	andeq	r0, r0, r3, asr r0
     5f0:	00000282 	andeq	r0, r0, r2, lsl #5
     5f4:	6915000c 	ldmdbvs	r5, {r2, r3}
     5f8:	01000002 	tsteq	r0, r2
     5fc:	00005365 	andeq	r5, r0, r5, ror #6
     600:	00029300 	andeq	r9, r2, r0, lsl #6
     604:	15000c00 	strne	r0, [r0, #-3072]	; 0xc00
     608:	000003a7 	andeq	r0, r0, r7, lsr #7
     60c:	00538701 	subseq	r8, r3, r1, lsl #14
     610:	02a40000 	adceq	r0, r4, #0
     614:	000c0000 	andeq	r0, ip, r0
     618:	50037816 	andpl	r7, r3, r6, lsl r8
     61c:	00060101 	andeq	r0, r6, r1, lsl #2
     620:	0002bb00 	andeq	fp, r2, r0, lsl #22
     624:	50011700 	andpl	r1, r1, r0, lsl #14
     628:	2f5c0305 	svccs	0x005c0305
     62c:	16000150 			; <UNDEFINED> instruction: 0x16000150
     630:	01500384 	cmpeq	r0, r4, lsl #7
     634:	00000601 	andeq	r0, r0, r1, lsl #12
     638:	000002d2 	ldrdeq	r0, [r0], -r2
     63c:	05500117 	ldrbeq	r0, [r0, #-279]	; 0x117
     640:	502f8003 	eorpl	r8, pc, r3
     644:	90160001 	andsls	r0, r6, r1
     648:	01015003 	tsteq	r1, r3
     64c:	e9000006 	stmdb	r0, {r1, r2}
     650:	17000002 	strne	r0, [r0, -r2]
     654:	03055001 	movweq	r5, #20481	; 0x5001
     658:	01502fa0 	cmpeq	r0, r0, lsr #31
     65c:	03941800 	orrseq	r1, r4, #0, 16
     660:	06120150 			; <UNDEFINED> instruction: 0x06120150
     664:	a0180000 	andsge	r0, r8, r0
     668:	23015003 	movwcs	r5, #4099	; 0x1003
     66c:	16000006 	strne	r0, [r0], -r6
     670:	015003bc 	ldrheq	r0, [r0, #-60]	; 0xffffffc4
     674:	0000062a 	andeq	r0, r0, sl, lsr #12
     678:	0000030f 	andeq	r0, r0, pc, lsl #6
     67c:	02500117 	subseq	r0, r0, #-1073741819	; 0xc0000005
     680:	16000074 			; <UNDEFINED> instruction: 0x16000074
     684:	015003c8 	cmpeq	r0, r8, asr #7
     688:	00000601 	andeq	r0, r0, r1, lsl #12
     68c:	00000326 	andeq	r0, r0, r6, lsr #6
     690:	05500117 	ldrbeq	r0, [r0, #-279]	; 0x117
     694:	502fbc03 	eorpl	fp, pc, r3, lsl #24
     698:	fc160001 	ldc2	0, cr0, [r6], {1}
     69c:	3b015003 	blcc	546b0 <_back_addr-0x14ab950>
     6a0:	4c000006 	stcmi	0, cr0, [r0], {6}
     6a4:	17000003 	strne	r0, [r0, -r3]
     6a8:	31015001 	tstcc	r1, r1
     6ac:	02510117 	subseq	r0, r1, #-1073741819	; 0xc0000005
     6b0:	01170075 	tsteq	r7, r5, ror r0
     6b4:	00740253 	rsbseq	r0, r4, r3, asr r2
     6b8:	007d0217 	rsbseq	r0, sp, r7, lsl r2
     6bc:	00007402 	andeq	r7, r0, r2, lsl #8
     6c0:	50040418 	andpl	r0, r4, r8, lsl r4
     6c4:	00062301 	andeq	r2, r6, r1, lsl #6
     6c8:	04301600 	ldrteq	r1, [r0], #-1536	; 0x600
     6cc:	06010150 			; <UNDEFINED> instruction: 0x06010150
     6d0:	036c0000 	cmneq	ip, #0
     6d4:	01170000 	tsteq	r7, r0
     6d8:	c8030550 	stmdagt	r3, {r4, r6, r8, sl}
     6dc:	0001502f 	andeq	r5, r1, pc, lsr #32
     6e0:	50046c16 	andpl	r6, r4, r6, lsl ip
     6e4:	00063b01 	andeq	r3, r6, r1, lsl #22
     6e8:	00038500 	andeq	r8, r3, r0, lsl #10
     6ec:	50011700 	andpl	r1, r1, r0, lsl #14
     6f0:	01173201 	tsteq	r7, r1, lsl #4
     6f4:	00750251 	rsbseq	r0, r5, r1, asr r2
     6f8:	04741800 	ldrbteq	r1, [r4], #-2048	; 0x800
     6fc:	06230150 			; <UNDEFINED> instruction: 0x06230150
     700:	a0160000 	andsge	r0, r6, r0
     704:	01015004 	tsteq	r1, r4
     708:	a5000006 	strge	r0, [r0, #-6]
     70c:	17000003 	strne	r0, [r0, -r3]
     710:	03055001 	movweq	r5, #20481	; 0x5001
     714:	01502fd4 	ldrsbeq	r2, [r0, #-244]	; 0xffffff0c
     718:	04a41800 	strteq	r1, [r4], #2048	; 0x800
     71c:	066f0150 			; <UNDEFINED> instruction: 0x066f0150
     720:	a8180000 	ldmdage	r8, {}	; <UNPREDICTABLE>
     724:	23015004 	movwcs	r5, #4100	; 0x1004
     728:	16000006 	strne	r0, [r0], -r6
     72c:	015004c4 	cmpeq	r0, r4, asr #9
     730:	00000601 	andeq	r0, r0, r1, lsl #12
     734:	000003ce 	andeq	r0, r0, lr, asr #7
     738:	05500117 	ldrbeq	r0, [r0, #-279]	; 0x117
     73c:	50300003 	eorspl	r0, r0, r3
     740:	e0160001 	ands	r0, r6, r1
     744:	3b015004 	blcc	5475c <_back_addr-0x14ab8a4>
     748:	f4000006 	vst4.8	{d0-d3}, [r0], r6
     74c:	17000003 	strne	r0, [r0, -r3]
     750:	74025001 	strvc	r5, [r2], #-1
     754:	51011700 	tstpl	r1, r0, lsl #14
     758:	17007702 	strne	r7, [r0, -r2, lsl #14]
     75c:	74025201 	strvc	r5, [r2], #-513	; 0x201
     760:	53011700 	movwpl	r1, #5888	; 0x1700
     764:	00007402 	andeq	r7, r0, r2, lsl #8
     768:	5004e818 	andpl	lr, r4, r8, lsl r8
     76c:	00062301 	andeq	r2, r6, r1, lsl #6
     770:	04f41800 	ldrbteq	r1, [r4], #2048	; 0x800
     774:	06230150 			; <UNDEFINED> instruction: 0x06230150
     778:	08160000 	ldmdaeq	r6, {}	; <UNPREDICTABLE>
     77c:	01015005 	tsteq	r1, r5
     780:	1d000006 	stcne	0, cr0, [r0, #-24]	; 0xffffffe8
     784:	17000004 	strne	r0, [r0, -r4]
     788:	03055001 	movweq	r5, #20481	; 0x5001
     78c:	01502fac 	cmpeq	r0, ip, lsr #31
     790:	05201600 	streq	r1, [r0, #-1536]!	; 0x600
     794:	06010150 			; <UNDEFINED> instruction: 0x06010150
     798:	04340000 	ldrteq	r0, [r4], #-0
     79c:	01170000 	tsteq	r7, r0
     7a0:	e0030550 	and	r0, r3, r0, asr r5
     7a4:	0001502f 	andeq	r5, r1, pc, lsr #32
     7a8:	50053019 	andpl	r3, r5, r9, lsl r0
     7ac:	00060101 	andeq	r0, r6, r1, lsl #2
     7b0:	50011700 	andpl	r1, r1, r0, lsl #14
     7b4:	30100305 	andscc	r0, r0, r5, lsl #6
     7b8:	00000150 	andeq	r0, r0, r0, asr r1
     7bc:	00043e0a 	andeq	r3, r4, sl, lsl #28
     7c0:	53ba0100 			; <UNDEFINED> instruction: 0x53ba0100
     7c4:	34000000 	strcc	r0, [r0], #-0
     7c8:	50015005 	andpl	r5, r1, r5
     7cc:	01000000 	mrseq	r0, (UNDEF: 0)
     7d0:	0004eb9c 	muleq	r4, ip, fp
     7d4:	033f0f00 	teqeq	pc, #0, 30
     7d8:	ba010000 	blt	407e0 <_back_addr-0x14bf820>
     7dc:	00000053 	andeq	r0, r0, r3, asr r0
     7e0:	0000069a 	muleq	r0, sl, r6
     7e4:	0003050f 	andeq	r0, r3, pc, lsl #10
     7e8:	ebba0100 	bl	fee80bf0 <__bss_end__+0xfd96d0b0>
     7ec:	bb000004 	bllt	804 <_back_addr-0x14ff7fc>
     7f0:	13000006 	movwne	r0, #6
     7f4:	00746572 	rsbseq	r6, r4, r2, ror r5
     7f8:	0053bc01 	subseq	fp, r3, r1, lsl #24
     7fc:	06dc0000 	ldrbeq	r0, [ip], r0
     800:	441a0000 	ldrmi	r0, [sl], #-0
     804:	01000002 	tsteq	r0, r2
     808:	00004cbd 			; <UNDEFINED> instruction: 0x00004cbd
     80c:	03441500 	movteq	r1, #17664	; 0x4500
     810:	c2010000 	andgt	r0, r1, #0
     814:	00000053 	andeq	r0, r0, r3, asr r0
     818:	000004aa 	andeq	r0, r0, sl, lsr #9
     81c:	f915000c 			; <UNDEFINED> instruction: 0xf915000c
     820:	01000002 	tsteq	r0, r2
     824:	00005356 	andeq	r5, r0, r6, asr r3
     828:	0004bb00 	andeq	fp, r4, r0, lsl #22
     82c:	18000c00 	stmdane	r0, {sl, fp}
     830:	01500558 	cmpeq	r0, r8, asr r5
     834:	00000680 	andeq	r0, r0, r0, lsl #13
     838:	50056016 	andpl	r6, r5, r6, lsl r0
     83c:	00068701 	andeq	r8, r6, r1, lsl #14
     840:	0004d800 	andeq	sp, r4, r0, lsl #16
     844:	50011700 	andpl	r1, r1, r0, lsl #14
     848:	00007402 	andeq	r7, r0, r2, lsl #8
     84c:	50056418 	andpl	r6, r5, r8, lsl r4
     850:	0001eb01 	andeq	lr, r1, r1, lsl #22
     854:	057c1800 	ldrbeq	r1, [ip, #-2048]!	; 0x800
     858:	06010150 			; <UNDEFINED> instruction: 0x06010150
     85c:	05000000 	streq	r0, [r0, #-0]
     860:	0004f104 	andeq	pc, r4, r4, lsl #2
     864:	01680600 	cmneq	r8, r0, lsl #12
     868:	251b0000 	ldrcs	r0, [fp, #-0]
     86c:	01000000 	mrseq	r0, (UNDEF: 0)
     870:	1c000005 	stcne	0, cr0, [r0], {5}
     874:	03171a00 	tsteq	r7, #0, 20
     878:	07010000 	streq	r0, [r1, -r0]
     87c:	000004f6 	strdeq	r0, [r0], -r6
     880:	0002341a 	andeq	r3, r2, sl, lsl r4
     884:	25080100 	strcs	r0, [r8, #-256]	; 0x100
     888:	1a000000 	bne	890 <_back_addr-0x14ff770>
     88c:	0000030a 	andeq	r0, r0, sl, lsl #6
     890:	04f60901 	ldrbteq	r0, [r6], #2305	; 0x901
     894:	721a0000 	andsvc	r0, sl, #0
     898:	01000003 	tsteq	r0, r3
     89c:	0000250a 	andeq	r2, r0, sl, lsl #10
     8a0:	04121a00 	ldreq	r1, [r2], #-2560	; 0xa00
     8a4:	0b010000 	bleq	408ac <_back_addr-0x14bf754>
     8a8:	000004f6 	strdeq	r0, [r0], -r6
     8ac:	0003531a 	andeq	r5, r3, sl, lsl r3
     8b0:	250c0100 	strcs	r0, [ip, #-256]	; 0x100
     8b4:	1a000000 	bne	8bc <_back_addr-0x14ff744>
     8b8:	0000041b 	andeq	r0, r0, fp, lsl r4
     8bc:	04f60d01 	ldrbteq	r0, [r6], #3329	; 0xd01
     8c0:	881a0000 	ldmdahi	sl, {}	; <UNPREDICTABLE>
     8c4:	01000004 	tsteq	r0, r4
     8c8:	0000250e 	andeq	r2, r0, lr, lsl #10
     8cc:	04241a00 	strteq	r1, [r4], #-2560	; 0xa00
     8d0:	0f010000 	svceq	0x00010000
     8d4:	000004f6 	strdeq	r0, [r0], -r6
     8d8:	0002821a 	andeq	r8, r2, sl, lsl r2
     8dc:	25100100 	ldrcs	r0, [r0, #-256]	; 0x100
     8e0:	1a000000 	bne	8e8 <_back_addr-0x14ff718>
     8e4:	000003d9 	ldrdeq	r0, [r0], -r9
     8e8:	04f61101 	ldrbteq	r1, [r6], #257	; 0x101
     8ec:	ff1a0000 			; <UNDEFINED> instruction: 0xff1a0000
     8f0:	01000003 	tsteq	r0, r3
     8f4:	00002512 	andeq	r2, r0, r2, lsl r5
     8f8:	03f51a00 	mvnseq	r1, #0, 20
     8fc:	13010000 	movwne	r0, #4096	; 0x1000
     900:	000004f6 	strdeq	r0, [r0], -r6
     904:	0002b91a 	andeq	fp, r2, sl, lsl r9
     908:	25140100 	ldrcs	r0, [r4, #-256]	; 0x100
     90c:	1b000000 	blne	914 <_back_addr-0x14ff6ec>
     910:	00000025 	andeq	r0, r0, r5, lsr #32
     914:	000005ab 	andeq	r0, r0, fp, lsr #11
     918:	0005ab1d 	andeq	sl, r5, sp, lsl fp
     91c:	02003f00 	andeq	r3, r0, #0, 30
     920:	01f00704 	mvnseq	r0, r4, lsl #14
     924:	bd1e0000 	ldclt	0, cr0, [lr, #-0]
     928:	01000003 	tsteq	r0, r3
     92c:	00059b18 	andeq	r9, r5, r8, lsl fp
     930:	f8030500 			; <UNDEFINED> instruction: 0xf8030500
     934:	1b01513a 	blne	54e24 <_back_addr-0x14ab1dc>
     938:	00000025 	andeq	r0, r0, r5, lsr #32
     93c:	000005d4 	ldrdeq	r0, [r0], -r4
     940:	0005ab1f 	andeq	sl, r5, pc, lsl fp
     944:	0003ff00 	andeq	pc, r3, r0, lsl #30
     948:	0002531e 	andeq	r5, r2, lr, lsl r3
     94c:	c3190100 	tstgt	r9, #0, 2
     950:	05000005 	streq	r0, [r0, #-5]
     954:	5136f803 	teqpl	r6, r3, lsl #16
     958:	02eb1e01 	rsceq	r1, fp, #1, 28
     95c:	1a010000 	bne	40964 <_back_addr-0x14bf69c>
     960:	00000025 	andeq	r0, r0, r5, lsr #32
     964:	36f00305 	ldrbtcc	r0, [r0], r5, lsl #6
     968:	441a0151 	ldrmi	r0, [sl], #-337	; 0x151
     96c:	01000002 	tsteq	r0, r2
     970:	00004cbd 			; <UNDEFINED> instruction: 0x00004cbd
     974:	02f91500 	rscseq	r1, r9, #0, 10
     978:	56010000 	strpl	r0, [r1], -r0
     97c:	00000053 	andeq	r0, r0, r3, asr r0
     980:	00000612 	andeq	r0, r0, r2, lsl r6
     984:	cc15000c 	ldcgt	0, cr0, [r5], {12}
     988:	01000003 	tsteq	r0, r3
     98c:	0000535e 	andeq	r5, r0, lr, asr r3
     990:	00062300 	andeq	r2, r6, r0, lsl #6
     994:	20000c00 	andcs	r0, r0, r0, lsl #24
     998:	000003c7 	andeq	r0, r0, r7, asr #7
     99c:	69157303 	ldmdbvs	r5, {r0, r1, r8, r9, ip, sp, lr}
     9a0:	01000002 	tsteq	r0, r2
     9a4:	00005365 	andeq	r5, r0, r5, ror #6
     9a8:	00063b00 	andeq	r3, r6, r0, lsl #22
     9ac:	21000c00 	tstcs	r0, r0, lsl #24
     9b0:	000001f9 	strdeq	r0, [r0], -r9
     9b4:	00532101 	subseq	r2, r3, r1, lsl #2
     9b8:	06690000 	strbteq	r0, [r9], -r0
     9bc:	b3220000 	teqlt	r2, #0
     9c0:	22000000 	andcs	r0, r0, #0
     9c4:	00000669 	andeq	r0, r0, r9, ror #12
     9c8:	00066922 	andeq	r6, r6, r2, lsr #18
     9cc:	06692200 	strbteq	r2, [r9], -r0, lsl #4
     9d0:	69220000 	stmdbvs	r2!, {}	; <UNPREDICTABLE>
     9d4:	22000006 	andcs	r0, r0, #6
     9d8:	0000004c 	andeq	r0, r0, ip, asr #32
     9dc:	25040500 	strcs	r0, [r4, #-1280]	; 0x500
     9e0:	15000000 	strne	r0, [r0, #-0]
     9e4:	000003a7 	andeq	r0, r0, r7, lsr #7
     9e8:	00538701 	subseq	r8, r3, r1, lsl #14
     9ec:	06800000 	streq	r0, [r0], r0
     9f0:	000c0000 	andeq	r0, ip, r0
     9f4:	00039d20 	andeq	r9, r3, r0, lsr #26
     9f8:	23740300 	cmncs	r4, #0, 6
     9fc:	00000344 	andeq	r0, r0, r4, asr #6
     a00:	0053c201 	subseq	ip, r3, r1, lsl #4
     a04:	000c0000 	andeq	r0, ip, r0
     a08:	00148400 	andseq	r8, r4, r0, lsl #8
     a0c:	db000400 	blle	1a14 <_back_addr-0x14fe5ec>
     a10:	04000003 	streq	r0, [r0], #-3
     a14:	00006001 	andeq	r6, r0, r1
     a18:	069b0100 	ldreq	r0, [fp], r0, lsl #2
     a1c:	04480000 	strbeq	r0, [r8], #-0
     a20:	05840000 	streq	r0, [r4]
     a24:	088c0150 	stmeq	ip, {r4, r6, r8}
     a28:	033d0000 	teqeq	sp, #0
     a2c:	04020000 	streq	r0, [r2], #-0
     a30:	00003b07 	andeq	r3, r0, r7, lsl #22
     a34:	03040300 	movweq	r0, #17152	; 0x4300
     a38:	0000470f 	andeq	r4, r0, pc, lsl #14
     a3c:	078c0400 	streq	r0, [ip, r0, lsl #8]
     a40:	04000000 	streq	r0, [r0], #-0
     a44:	00000762 	andeq	r0, r0, r2, ror #14
     a48:	076d0401 	strbeq	r0, [sp, -r1, lsl #8]!
     a4c:	00020000 	andeq	r0, r2, r0
     a50:	0004bc05 	andeq	fp, r4, r5, lsl #24
     a54:	2c130300 	ldccs	3, cr0, [r3], {-0}
     a58:	02000000 	andeq	r0, r0, #0
     a5c:	00190801 	andseq	r0, r9, r1, lsl #16
     a60:	04060000 	streq	r0, [r6], #-0
     a64:	746e6905 	strbtvc	r6, [lr], #-2309	; 0x905
     a68:	074d0700 	strbeq	r0, [sp, -r0, lsl #14]
     a6c:	08040000 	stmdaeq	r4, {}	; <UNPREDICTABLE>
     a70:	00007f7f 	andeq	r7, r0, pc, ror pc
     a74:	052b0400 	streq	r0, [fp, #-1024]!	; 0x400
     a78:	04000000 	streq	r0, [r0], #-0
     a7c:	0000071c 	andeq	r0, r0, ip, lsl r7
     a80:	081d0401 	ldmdaeq	sp, {r0, sl}
     a84:	007f0000 	rsbseq	r0, pc, r0
     a88:	f0070402 			; <UNDEFINED> instruction: 0xf0070402
     a8c:	02000001 	andeq	r0, r0, #1
     a90:	00360704 	eorseq	r0, r6, r4, lsl #14
     a94:	02020000 	andeq	r0, r2, #0
     a98:	00001e07 	andeq	r1, r0, r7, lsl #28
     a9c:	05040200 	streq	r0, [r4, #-512]	; 0x200
     aa0:	0000004d 	andeq	r0, r0, sp, asr #32
     aa4:	48050802 	stmdami	r5, {r1, fp}
     aa8:	02000000 	andeq	r0, r0, #0
     aac:	00120601 	andseq	r0, r2, r1, lsl #12
     ab0:	b4050000 	strlt	r0, [r5], #-0
     ab4:	04000005 	streq	r0, [r0], #-5
     ab8:	0000b40c 	andeq	fp, r0, ip, lsl #8
     abc:	08010200 	stmdaeq	r1, {r9}
     ac0:	00000010 	andeq	r0, r0, r0, lsl r0
     ac4:	56050202 	strpl	r0, [r5], -r2, lsl #4
     ac8:	05000000 	streq	r0, [r0, #-0]
     acc:	000004d4 	ldrdeq	r0, [r0], -r4
     ad0:	008d0f04 	addeq	r0, sp, r4, lsl #30
     ad4:	d2050000 	andle	r0, r5, #0
     ad8:	04000005 	streq	r0, [r0], #-5
     adc:	00002512 	andeq	r2, r0, r2, lsl r5
     ae0:	07080200 	streq	r0, [r8, -r0, lsl #4]
     ae4:	00000031 	andeq	r0, r0, r1, lsr r0
     ae8:	0006e405 	andeq	lr, r6, r5, lsl #8
     aec:	255c0500 	ldrbcs	r0, [ip, #-1280]	; 0x500
     af0:	05000000 	streq	r0, [r0, #-0]
     af4:	000004a3 	andeq	r0, r0, r3, lsr #9
     af8:	00865d05 	addeq	r5, r6, r5, lsl #26
     afc:	e4050000 	str	r0, [r5], #-0
     b00:	05000007 	streq	r0, [r0, #-7]
     b04:	0000a96b 	andeq	sl, r0, fp, ror #18
     b08:	053b0500 	ldreq	r0, [fp, #-1280]!	; 0x500
     b0c:	6c050000 	stcvs	0, cr0, [r5], {-0}
     b10:	000000c2 	andeq	r0, r0, r2, asr #1
     b14:	00074405 	andeq	r4, r7, r5, lsl #8
     b18:	cd6d0500 	cfstr64gt	mvdx0, [sp, #-0]
     b1c:	05000000 	streq	r0, [r0, #-0]
     b20:	000007de 	ldrdeq	r0, [r0], -lr
     b24:	00b40b01 	adcseq	r0, r4, r1, lsl #22
     b28:	3c080000 	stccc	0, cr0, [r8], {-0}
     b2c:	02000007 	andeq	r0, r0, #7
     b30:	00002544 	andeq	r2, r0, r4, asr #10
     b34:	013d0300 	teqeq	sp, r0, lsl #6
     b38:	e4090000 	str	r0, [r9], #-0
     b3c:	02000009 	andeq	r0, r0, #9
     b40:	00002544 	andeq	r2, r0, r4, asr #10
     b44:	a90a0000 	stmdbge	sl, {}	; <UNPREDICTABLE>
     b48:	02000004 	andeq	r0, r0, #4
     b4c:	0160035f 	cmneq	r0, pc, asr r3
     b50:	e4090000 	str	r0, [r9], #-0
     b54:	02000009 	andeq	r0, r0, #9
     b58:	0000255f 	andeq	r2, r0, pc, asr r5
     b5c:	61760b00 	cmnvs	r6, r0, lsl #22
     b60:	5f02006c 	svcpl	0x0002006c
     b64:	00000025 	andeq	r0, r0, r5, lsr #32
     b68:	04da0c00 	ldrbeq	r0, [sl], #3072	; 0xc00
     b6c:	86010000 	strhi	r0, [r1], -r0
     b70:	00005901 	andeq	r5, r0, r1, lsl #18
     b74:	01c80100 	biceq	r0, r8, r0, lsl #2
     b78:	e80d0000 	stmda	sp, {}	; <UNPREDICTABLE>
     b7c:	01000004 	tsteq	r0, r4
     b80:	00b40186 	adcseq	r0, r4, r6, lsl #3
     b84:	490e0000 	stmdbmi	lr, {}	; <UNPREDICTABLE>
     b88:	01000008 	tsteq	r0, r8
     b8c:	000059df 	ldrdeq	r5, [r0], -pc	; <UNPREDICTABLE>
     b90:	00018e00 	andeq	r8, r1, r0, lsl #28
     b94:	10000f00 	andne	r0, r0, r0, lsl #30
     b98:	000001a1 	andeq	r0, r0, r1, lsr #3
     b9c:	0002c711 	andeq	ip, r2, r1, lsl r7
     ba0:	59840100 	stmibpl	r4, {r8}
     ba4:	0f000000 	svceq	0x00000000
     ba8:	b6100000 	ldrlt	r0, [r0], -r0
     bac:	12000001 	andne	r0, r0, #1
     bb0:	00000623 	andeq	r0, r0, r3, lsr #12
     bb4:	0059d301 	subseq	sp, r9, r1, lsl #6
     bb8:	0f000000 	svceq	0x00000000
     bbc:	1300000f 	movwne	r0, #15
     bc0:	00062312 	andeq	r2, r6, r2, lsl r3
     bc4:	59d30100 	ldmibpl	r3, {r8}^
     bc8:	00000000 	andeq	r0, r0, r0
     bcc:	00000f0f 	andeq	r0, r0, pc, lsl #30
     bd0:	07780c00 	ldrbeq	r0, [r8, -r0, lsl #24]!
     bd4:	a3010000 	movwge	r0, #4096	; 0x1000
     bd8:	00005901 	andeq	r5, r0, r1, lsl #18
     bdc:	02300100 	eorseq	r0, r0, #0, 2
     be0:	860d0000 	strhi	r0, [sp], -r0
     be4:	01000007 	tsteq	r0, r7
     be8:	00b401a3 	adcseq	r0, r4, r3, lsr #3
     bec:	490e0000 	stmdbmi	lr, {}	; <UNPREDICTABLE>
     bf0:	01000008 	tsteq	r0, r8
     bf4:	000059df 	ldrdeq	r5, [r0], -pc	; <UNPREDICTABLE>
     bf8:	0001f600 	andeq	pc, r1, r0, lsl #12
     bfc:	10000f00 	andne	r0, r0, r0, lsl #30
     c00:	00000209 	andeq	r0, r0, r9, lsl #4
     c04:	0002c711 	andeq	ip, r2, r1, lsl r7
     c08:	59840100 	stmibpl	r4, {r8}
     c0c:	0f000000 	svceq	0x00000000
     c10:	1e100000 	cdpne	0, 1, cr0, cr0, cr0, {0}
     c14:	12000002 	andne	r0, r0, #2
     c18:	00000623 	andeq	r0, r0, r3, lsr #12
     c1c:	0059d301 	subseq	sp, r9, r1, lsl #6
     c20:	0f000000 	svceq	0x00000000
     c24:	1300000f 	movwne	r0, #15
     c28:	00062312 	andeq	r2, r6, r2, lsl r3
     c2c:	59d30100 	ldmibpl	r3, {r8}^
     c30:	00000000 	andeq	r0, r0, r0
     c34:	00000f0f 	andeq	r0, r0, pc, lsl #30
     c38:	05441400 	strbeq	r1, [r4, #-1024]	; 0x400
     c3c:	74010000 	strvc	r0, [r1], #-0
     c40:	00000059 	andeq	r0, r0, r9, asr r0
     c44:	01500584 	cmpeq	r0, r4, lsl #11
     c48:	000001dc 	ldrdeq	r0, [r0], -ip
     c4c:	03ab9c01 			; <UNDEFINED> instruction: 0x03ab9c01
     c50:	e4150000 	ldr	r0, [r5], #-0
     c54:	01000009 	tsteq	r0, r9
     c58:	0000ea74 	andeq	lr, r0, r4, ror sl
     c5c:	0006fc00 	andeq	pc, r6, r0, lsl #24
     c60:	03fa1500 	mvnseq	r1, #0, 10
     c64:	74010000 	strvc	r0, [r1], #-0
     c68:	000003ab 	andeq	r0, r0, fp, lsr #7
     c6c:	00000756 	andeq	r0, r0, r6, asr r7
     c70:	0005fe15 	andeq	pc, r5, r5, lsl lr	; <UNPREDICTABLE>
     c74:	df740100 	svcle	0x00740100
     c78:	8e000000 	cdphi	0, 0, cr0, cr0, cr0, {0}
     c7c:	15000007 	strne	r0, [r0, #-7]
     c80:	000005ea 	andeq	r0, r0, sl, ror #11
     c84:	00df7401 	sbcseq	r7, pc, r1, lsl #8
     c88:	07af0000 	streq	r0, [pc, r0]!
     c8c:	b4150000 	ldrlt	r0, [r5], #-0
     c90:	0100000c 	tsteq	r0, ip
     c94:	0000df74 	andeq	sp, r0, r4, ror pc
     c98:	0007cd00 	andeq	ip, r7, r0, lsl #26
     c9c:	06071600 	streq	r1, [r7], -r0, lsl #12
     ca0:	74010000 	strvc	r0, [r1], #-0
     ca4:	000000df 	ldrdeq	r0, [r0], -pc	; <UNPREDICTABLE>
     ca8:	15049102 	strne	r9, [r4, #-258]	; 0x102
     cac:	00000560 	andeq	r0, r0, r0, ror #10
     cb0:	00df7401 	sbcseq	r7, pc, r1, lsl #8
     cb4:	08020000 	stmdaeq	r2, {}	; <UNPREDICTABLE>
     cb8:	36170000 	ldrcc	r0, [r7], -r0
     cbc:	44000008 	strmi	r0, [r0], #-8
     cc0:	02dc7701 	sbcseq	r7, ip, #262144	; 0x40000
     cc4:	75180000 	ldrvc	r0, [r8, #-0]
     cc8:	78010069 	stmdavc	r1, {r0, r3, r5, r6}
     ccc:	000003ad 	andeq	r0, r0, sp, lsr #7
     cd0:	00737518 	rsbseq	r7, r3, r8, lsl r5
     cd4:	03bd7901 			; <UNDEFINED> instruction: 0x03bd7901
     cd8:	75180000 	ldrvc	r0, [r8, #-0]
     cdc:	7a010063 	bvc	40e70 <_back_addr-0x14bf190>
     ce0:	000003cd 	andeq	r0, r0, sp, asr #7
     ce4:	626c1900 	rsbvs	r1, ip, #0, 18
     ce8:	b17b0100 	cmnlt	fp, r0, lsl #2
     cec:	03000002 	movweq	r0, #2
     cf0:	1a7f9491 	bne	1fe5f3c <__bss_end__+0xad23fc>
     cf4:	7c010069 	stcvc	0, cr0, [r1], {105}	; 0x69
     cf8:	00000059 	andeq	r0, r0, r9, asr r0
     cfc:	0000087d 	andeq	r0, r0, sp, ror r8
     d00:	0000001b 	andeq	r0, r0, fp, lsl r0
     d04:	02c70e00 	sbceq	r0, r7, #0, 28
     d08:	84010000 	strhi	r0, [r1], #-0
     d0c:	00000059 	andeq	r0, r0, r9, asr r0
     d10:	0000030d 	andeq	r0, r0, sp, lsl #6
     d14:	0c0e000f 	stceq	0, cr0, [lr], {15}
     d18:	01000004 	tsteq	r0, r4
     d1c:	000059aa 	andeq	r5, r0, sl, lsr #19
     d20:	00031e00 	andeq	r1, r3, r0, lsl #28
     d24:	1c000f00 	stcne	15, cr0, [r0], {-0}
     d28:	00000020 	andeq	r0, r0, r0, lsr #32
     d2c:	00000351 	andeq	r0, r0, r1, asr r3
     d30:	0100781a 	tsteq	r0, sl, lsl r8
     d34:	00010b8c 	andeq	r0, r1, ip, lsl #23
     d38:	0008ea00 	andeq	lr, r8, r0, lsl #20
     d3c:	06141d00 	ldreq	r1, [r4], -r0, lsl #26
     d40:	14110150 	ldrne	r0, [r1], #-336	; 0x150
     d44:	741e0000 	ldrvc	r0, [lr], #-0
     d48:	11015006 	tstne	r1, r6
     d4c:	1f000014 	svcne	0x00000014
     d50:	03055001 	movweq	r5, #20481	; 0x5001
     d54:	0150307c 	cmpeq	r0, ip, ror r0
     d58:	d4200000 	strtle	r0, [r0], #-0
     d5c:	11015005 	tstne	r1, r5
     d60:	6f000014 	svcvs	0x00000014
     d64:	1f000003 	svcne	0x00000003
     d68:	03055001 	movweq	r5, #20481	; 0x5001
     d6c:	01503068 	cmpeq	r0, r8, rrx
     d70:	0351011f 	cmpeq	r1, #-1073741817	; 0xc0000007
     d74:	0006007d 	andeq	r0, r6, sp, ror r0
     d78:	50071420 	andpl	r1, r7, r0, lsr #8
     d7c:	00141101 	andseq	r1, r4, r1, lsl #2
     d80:	00038d00 	andeq	r8, r3, r0, lsl #26
     d84:	50011f00 	andpl	r1, r1, r0, lsl #30
     d88:	30800305 	addcc	r0, r0, r5, lsl #6
     d8c:	011f0150 	tsteq	pc, r0, asr r1	; <UNPREDICTABLE>
     d90:	8c910351 	ldchi	3, cr0, [r1], {81}	; 0x51
     d94:	181d007f 	ldmdane	sp, {r0, r1, r2, r3, r4, r5, r6}
     d98:	22015007 	andcs	r5, r1, #7
     d9c:	1e000014 	mcrne	0, 0, r0, cr0, cr4, {0}
     da0:	01500750 	cmpeq	r0, r0, asr r7
     da4:	00001411 	andeq	r1, r0, r1, lsl r4
     da8:	0550011f 	ldrbeq	r0, [r0, #-287]	; 0x11f
     dac:	50308c03 	eorspl	r8, r0, r3, lsl #24
     db0:	00000001 	andeq	r0, r0, r1
     db4:	0b220421 	bleq	881e40 <_back_addr-0xc7e1c0>
     db8:	bd000001 	stclt	0, cr0, [r0, #-4]
     dbc:	23000003 	movwcs	r0, #3
     dc0:	0000007f 	andeq	r0, r0, pc, ror r0
     dc4:	00220010 	eoreq	r0, r2, r0, lsl r0
     dc8:	cd000001 	stcgt	0, cr0, [r0, #-4]
     dcc:	23000003 	movwcs	r0, #3
     dd0:	0000007f 	andeq	r0, r0, pc, ror r0
     dd4:	f5220020 			; <UNDEFINED> instruction: 0xf5220020
     dd8:	dd000000 	stcle	0, cr0, [r0, #-0]
     ddc:	23000003 	movwcs	r0, #3
     de0:	0000007f 	andeq	r0, r0, pc, ror r0
     de4:	06240040 	strteq	r0, [r4], -r0, asr #32
     de8:	01000007 	tsteq	r0, r7
     dec:	005901fe 	ldrsheq	r0, [r9], #-30	; 0xffffffe2
     df0:	07600000 	strbeq	r0, [r0, -r0]!
     df4:	00b00150 	adcseq	r0, r0, r0, asr r1
     df8:	9c010000 	stcls	0, cr0, [r1], {-0}
     dfc:	00000503 	andeq	r0, r0, r3, lsl #10
     e00:	79656b25 	stmdbvc	r5!, {r0, r2, r5, r8, r9, fp, sp, lr}^
     e04:	02080100 	andeq	r0, r8, #0, 2
     e08:	00000503 	andeq	r0, r0, r3, lsl #10
     e0c:	74657226 	strbtvc	r7, [r5], #-550	; 0x226
     e10:	02090100 	andeq	r0, r9, #0, 2
     e14:	00000059 	andeq	r0, r0, r9, asr r0
     e18:	00000908 	andeq	r0, r0, r8, lsl #18
     e1c:	00072c27 	andeq	r2, r7, r7, lsr #24
     e20:	020b0100 	andeq	r0, fp, #0, 2
     e24:	00000059 	andeq	r0, r0, r9, asr r0
     e28:	00000425 	andeq	r0, r0, r5, lsr #8
     e2c:	c70e000f 	strgt	r0, [lr, -pc]
     e30:	01000002 	tsteq	r0, r2
     e34:	00005984 	andeq	r5, r0, r4, lsl #19
     e38:	00043600 	andeq	r3, r4, r0, lsl #12
     e3c:	26000f00 	strcs	r0, [r0], -r0, lsl #30
     e40:	0e010069 	cdpeq	0, 0, cr0, cr1, cr9, {3}
     e44:	00005902 	andeq	r5, r0, r2, lsl #18
     e48:	00093c00 	andeq	r3, r9, r0, lsl #24
     e4c:	051b2700 	ldreq	r2, [fp, #-1792]	; 0x700
     e50:	15010000 	strne	r0, [r1, #-0]
     e54:	00005902 	andeq	r5, r0, r2, lsl #18
     e58:	00045600 	andeq	r5, r4, r0, lsl #12
     e5c:	20000f00 	andcs	r0, r0, r0, lsl #30
     e60:	01500788 	cmpeq	r0, r8, lsl #15
     e64:	00001433 	andeq	r1, r0, r3, lsr r4
     e68:	00000480 	andeq	r0, r0, r0, lsl #9
     e6c:	0550011f 	ldrbeq	r0, [r0, #-287]	; 0x11f
     e70:	51358003 	teqpl	r5, r3
     e74:	51011f01 	tstpl	r1, r1, lsl #30
     e78:	011f4001 	tsteq	pc, r1
     e7c:	70030552 	andvc	r0, r3, r2, asr r5
     e80:	1f015135 	svcne	0x00015135
     e84:	30015301 	andcc	r5, r1, r1, lsl #6
     e88:	079c2000 	ldreq	r2, [ip, r0]
     e8c:	14110150 	ldrne	r0, [r1], #-336	; 0x150
     e90:	04970000 	ldreq	r0, [r7], #0
     e94:	011f0000 	tsteq	pc, r0
     e98:	94030550 	strls	r0, [r3], #-1360	; 0x550
     e9c:	00015030 	andeq	r5, r1, r0, lsr r0
     ea0:	5007b020 	andpl	fp, r7, r0, lsr #32
     ea4:	00141101 	andseq	r1, r4, r1, lsl #2
     ea8:	0004ae00 	andeq	sl, r4, r0, lsl #28
     eac:	50011f00 	andpl	r1, r1, r0, lsl #30
     eb0:	309c0305 	addscc	r0, ip, r5, lsl #6
     eb4:	20000150 	andcs	r0, r0, r0, asr r1
     eb8:	015007d0 	ldrsbeq	r0, [r0, #-112]	; 0xffffff90
     ebc:	00001445 	andeq	r1, r0, r5, asr #8
     ec0:	000004d8 	ldrdeq	r0, [r0], -r8
     ec4:	0550011f 	ldrbeq	r0, [r0, #-287]	; 0x11f
     ec8:	51357003 	teqpl	r5, r3
     ecc:	51011f01 	tstpl	r1, r1, lsl #30
     ed0:	011f4001 	tsteq	pc, r1
     ed4:	90030552 	andls	r0, r3, r2, asr r5
     ed8:	1f015135 	svcne	0x00015135
     edc:	30015301 	andcc	r5, r1, r1, lsl #6
     ee0:	07e42000 	strbeq	r2, [r4, r0]!
     ee4:	14110150 	ldrne	r0, [r1], #-336	; 0x150
     ee8:	04ef0000 	strbteq	r0, [pc], #0	; ef0 <_back_addr-0x14ff110>
     eec:	011f0000 	tsteq	pc, r0
     ef0:	94030550 	strls	r0, [r3], #-1360	; 0x550
     ef4:	00015030 	andeq	r5, r1, r0, lsr r0
     ef8:	5007f81e 	andpl	pc, r7, lr, lsl r8	; <UNPREDICTABLE>
     efc:	00141101 	andseq	r1, r4, r1, lsl #2
     f00:	50011f00 	andpl	r1, r1, r0, lsl #30
     f04:	30b80305 	adcscc	r0, r8, r5, lsl #6
     f08:	00000150 	andeq	r0, r0, r0, asr r1
     f0c:	00002522 	andeq	r2, r0, r2, lsr #10
     f10:	00051300 	andeq	r1, r5, r0, lsl #6
     f14:	007f2300 	rsbseq	r2, pc, r0, lsl #6
     f18:	00030000 	andeq	r0, r3, r0
     f1c:	0005f024 	andeq	pc, r5, r4, lsr #32
     f20:	021f0100 	andseq	r0, pc, #0, 2
     f24:	00000025 	andeq	r0, r0, r5, lsr #32
     f28:	01500810 	cmpeq	r0, r0, lsl r8
     f2c:	00000030 	andeq	r0, r0, r0, lsr r0
     f30:	05bb9c01 	ldreq	r9, [fp, #3073]!	; 0xc01
     f34:	ae280000 	cdpge	0, 2, cr0, cr8, cr0, {0}
     f38:	01000007 	tsteq	r0, r7
     f3c:	0025021f 	eoreq	r0, r5, pc, lsl r2
     f40:	09b60000 	ldmibeq	r6!, {}	; <UNPREDICTABLE>
     f44:	ef290000 	svc	0x00290000
     f48:	01000004 	tsteq	r0, r4
     f4c:	00250221 	eoreq	r0, r5, r1, lsr #4
     f50:	09d70000 	ldmibeq	r7, {}^	; <UNPREDICTABLE>
     f54:	95290000 	strls	r0, [r9, #-0]!
     f58:	01000006 	tsteq	r0, r6
     f5c:	00250221 	eoreq	r0, r5, r1, lsr #4
     f60:	0a060000 	beq	180f68 <_back_addr-0x137f098>
     f64:	35290000 	strcc	r0, [r9, #-0]!
     f68:	01000006 	tsteq	r0, r6
     f6c:	00250222 	eoreq	r0, r5, r2, lsr #4
     f70:	0a280000 	beq	a00f78 <_back_addr-0xaff088>
     f74:	8f290000 	svchi	0x00290000
     f78:	01000006 	tsteq	r0, r6
     f7c:	00250222 	eoreq	r0, r5, r2, lsr #4
     f80:	0a8c0000 	beq	fe300f88 <__bss_end__+0xfcded448>
     f84:	cc290000 	stcgt	0, cr0, [r9], #-0
     f88:	01000007 	tsteq	r0, r7
     f8c:	00250222 	eoreq	r0, r5, r2, lsr #4
     f90:	0acc0000 	beq	ff300f98 <__bss_end__+0xfdded458>
     f94:	212a0000 	teqcs	sl, r0
     f98:	2c000001 	stccs	0, cr0, [r0], {1}
     f9c:	04015008 	streq	r5, [r1], #-8
     fa0:	01000000 	mrseq	r0, (UNDEF: 0)
     fa4:	312b022a 	teqcc	fp, sl, lsr #4
     fa8:	e0000001 	and	r0, r0, r1
     fac:	2c00000a 	stccs	0, cr0, [r0], {10}
     fb0:	0150082c 	cmpeq	r0, ip, lsr #16
     fb4:	00000004 	andeq	r0, r0, r4
     fb8:	0001312b 	andeq	r3, r1, fp, lsr #2
     fbc:	000ae000 	andeq	lr, sl, r0
     fc0:	00000000 	andeq	r0, r0, r0
     fc4:	00056824 	andeq	r6, r5, r4, lsr #16
     fc8:	01770100 	cmneq	r7, r0, lsl #2
     fcc:	00000059 	andeq	r0, r0, r9, asr r0
     fd0:	01500840 	cmpeq	r0, r0, asr #16
     fd4:	0000002c 	andeq	r0, r0, ip, lsr #32
     fd8:	06159c01 	ldreq	r9, [r5], -r1, lsl #24
     fdc:	72260000 	eorvc	r0, r6, #0
     fe0:	01007465 	tsteq	r0, r5, ror #8
     fe4:	00250179 	eoreq	r0, r5, r9, ror r1
     fe8:	0b170000 	bleq	5c0ff0 <_back_addr-0xf3f010>
     fec:	c70e0000 	strgt	r0, [lr, -r0]
     ff0:	01000002 	tsteq	r0, r2
     ff4:	00005984 	andeq	r5, r0, r4, lsl #19
     ff8:	0005f600 	andeq	pc, r5, r0, lsl #12
     ffc:	20000f00 	andcs	r0, r0, r0, lsl #30
    1000:	0150084c 	cmpeq	r0, ip, asr #16
    1004:	00000513 	andeq	r0, r0, r3, lsl r5
    1008:	0000060b 	andeq	r0, r0, fp, lsl #12
    100c:	0350011f 	cmpeq	r0, #-1073741817	; 0xc0000007
    1010:	000e0a0a 	andeq	r0, lr, sl, lsl #20
    1014:	5008641d 	andpl	r6, r8, sp, lsl r4
    1018:	00141101 	andseq	r1, r4, r1, lsl #2
    101c:	23240000 	teqcs	r4, #0
    1020:	01000006 	tsteq	r0, r6
    1024:	0059022e 	subseq	r0, r9, lr, lsr #4
    1028:	086c0000 	stmdaeq	ip!, {}^	; <UNPREDICTABLE>
    102c:	00540150 	subseq	r0, r4, r0, asr r1
    1030:	9c010000 	stcls	0, cr0, [r1], {-0}
    1034:	00000724 	andeq	r0, r0, r4, lsr #14
    1038:	0003b828 	andeq	fp, r3, r8, lsr #16
    103c:	022e0100 	eoreq	r0, lr, #0, 2
    1040:	00000059 	andeq	r0, r0, r9, asr r0
    1044:	00000b36 	andeq	r0, r0, r6, lsr fp
    1048:	0009e429 	andeq	lr, r9, r9, lsr #8
    104c:	02300100 	eorseq	r0, r0, #0, 2
    1050:	00000059 	andeq	r0, r0, r9, asr r0
    1054:	00000b57 	andeq	r0, r0, r7, asr fp
    1058:	0007ae29 	andeq	sl, r7, r9, lsr #28
    105c:	02300100 	eorseq	r0, r0, #0, 2
    1060:	00000059 	andeq	r0, r0, r9, asr r0
    1064:	00000b86 	andeq	r0, r0, r6, lsl #23
    1068:	00013d2d 	andeq	r3, r1, sp, lsr #26
    106c:	50087000 	andpl	r7, r8, r0
    1070:	00005801 	andeq	r5, r0, r1, lsl #16
    1074:	023a0100 	eorseq	r0, sl, #0, 2
    1078:	000006a0 	andeq	r0, r0, r0, lsr #13
    107c:	0001542b 	andeq	r5, r1, fp, lsr #8
    1080:	000bb800 	andeq	fp, fp, r0, lsl #16
    1084:	01492e00 	cmpeq	r9, r0, lsl #28
    1088:	e8800000 	stm	r0, {}	; <UNPREDICTABLE>
    108c:	1b79c085 	blne	1e712a8 <__bss_end__+0x95d768>
    1090:	00000058 	andeq	r0, r0, r8, asr r0
    1094:	0001492e 	andeq	r4, r1, lr, lsr #18
    1098:	85e88000 	strbhi	r8, [r8, #0]!
    109c:	542b79c0 	strtpl	r7, [fp], #-2496	; 0x9c0
    10a0:	b8000001 	stmdalt	r0, {r0}
    10a4:	0000000b 	andeq	r0, r0, fp
    10a8:	01212d00 	teqeq	r1, r0, lsl #26
    10ac:	087c0000 	ldmdaeq	ip!, {}^	; <UNPREDICTABLE>
    10b0:	00700150 	rsbseq	r0, r0, r0, asr r1
    10b4:	3c010000 	stccc	0, cr0, [r1], {-0}
    10b8:	0006cf02 	andeq	ip, r6, r2, lsl #30
    10bc:	01312e00 	teqeq	r1, r0, lsl #28
    10c0:	e8840000 	stm	r4, {}	; <UNPREDICTABLE>
    10c4:	1b79c085 	blne	1e712e0 <__bss_end__+0x95d7a0>
    10c8:	00000070 	andeq	r0, r0, r0, ror r0
    10cc:	0001312e 	andeq	r3, r1, lr, lsr #2
    10d0:	85e88400 	strbhi	r8, [r8, #1024]!	; 0x400
    10d4:	000079c0 	andeq	r7, r0, r0, asr #19
    10d8:	00013d2f 	andeq	r3, r1, pc, lsr #26
    10dc:	5008b000 	andpl	fp, r8, r0
    10e0:	00000401 	andeq	r0, r0, r1, lsl #8
    10e4:	023e0100 	eorseq	r0, lr, #0, 2
    10e8:	00000714 	andeq	r0, r0, r4, lsl r7
    10ec:	0001542b 	andeq	r5, r1, fp, lsr #8
    10f0:	000bfa00 	andeq	pc, fp, r0, lsl #20
    10f4:	01492e00 	cmpeq	r9, r0, lsl #28
    10f8:	e8800000 	stm	r0, {}	; <UNPREDICTABLE>
    10fc:	2c79c085 	ldclcs	0, cr12, [r9], #-532	; 0xfffffdec
    1100:	015008b0 	ldrheq	r0, [r0, #-128]	; 0xffffff80
    1104:	00000004 	andeq	r0, r0, r4
    1108:	0001492e 	andeq	r4, r1, lr, lsr #18
    110c:	85e88000 	strbhi	r8, [r8, #0]!
    1110:	542b79c0 	strtpl	r7, [fp], #-2496	; 0x9c0
    1114:	fa000001 	blx	1120 <_back_addr-0x14feee0>
    1118:	0000000b 	andeq	r0, r0, fp
    111c:	08b81e00 	ldmeq	r8!, {r9, sl, fp, ip}
    1120:	14570150 	ldrbne	r0, [r7], #-336	; 0x150
    1124:	011f0000 	tsteq	pc, r0
    1128:	00350150 	eorseq	r0, r5, r0, asr r1
    112c:	08493000 	stmdaeq	r9, {ip, sp}^
    1130:	49010000 	stmdbmi	r1, {}	; <UNPREDICTABLE>
    1134:	00005902 	andeq	r5, r0, r2, lsl #18
    1138:	5008c000 	andpl	ip, r8, r0
    113c:	00002c01 	andeq	r2, r0, r1, lsl #24
    1140:	d29c0100 	addsle	r0, ip, #0, 2
    1144:	31000007 	tstcc	r0, r7
    1148:	00000657 	andeq	r0, r0, r7, asr r6
    114c:	25024b01 	strcs	r4, [r2, #-2817]	; 0xb01
    1150:	00000000 	andeq	r0, r0, r0
    1154:	2d0080a0 	stccs	0, cr8, [r0, #-640]	; 0xfffffd80
    1158:	00000121 	andeq	r0, r0, r1, lsr #2
    115c:	015008c0 	cmpeq	r0, r0, asr #17
    1160:	00000088 	andeq	r0, r0, r8, lsl #1
    1164:	7d025201 	sfmvc	f5, 4, [r2, #-4]
    1168:	2e000007 	cdpcs	0, 0, cr0, cr0, cr7, {0}
    116c:	00000131 	andeq	r0, r0, r1, lsr r1
    1170:	c085e880 	addgt	lr, r5, r0, lsl #17
    1174:	00881b79 	addeq	r1, r8, r9, ror fp
    1178:	312e0000 	teqcc	lr, r0
    117c:	80000001 	andhi	r0, r0, r1
    1180:	79c085e8 	stmibvc	r0, {r3, r5, r6, r7, r8, sl, pc}^
    1184:	3d2f0000 	stccc	0, cr0, [pc, #-0]	; 118c <_back_addr-0x14fee74>
    1188:	d4000001 	strle	r0, [r0], #-1
    118c:	0c015008 	stceq	0, cr5, [r1], {8}
    1190:	01000000 	mrseq	r0, (UNDEF: 0)
    1194:	07c20254 			; <UNDEFINED> instruction: 0x07c20254
    1198:	54320000 	ldrtpl	r0, [r2], #-0
    119c:	00000001 	andeq	r0, r0, r1
    11a0:	2e0080a0 	cdpcs	0, 0, cr8, cr0, cr0, {5}
    11a4:	00000149 	andeq	r0, r0, r9, asr #2
    11a8:	c085e880 	addgt	lr, r5, r0, lsl #17
    11ac:	08d42c79 	ldmeq	r4, {r0, r3, r4, r5, r6, sl, fp, sp}^
    11b0:	000c0150 	andeq	r0, ip, r0, asr r1
    11b4:	492e0000 	stmdbmi	lr!, {}	; <UNPREDICTABLE>
    11b8:	80000001 	andhi	r0, r0, r1
    11bc:	79c085e8 	stmibvc	r0, {r3, r5, r6, r7, r8, sl, pc}^
    11c0:	00015432 	andeq	r5, r1, r2, lsr r4
    11c4:	80a00000 	adchi	r0, r0, r0
    11c8:	1e000000 	cdpne	0, 0, cr0, cr0, cr0, {0}
    11cc:	015008e4 	cmpeq	r0, r4, ror #17
    11d0:	00001457 	andeq	r1, r0, r7, asr r4
    11d4:	0150011f 	cmpeq	r0, pc, lsl r1
    11d8:	14000035 	strne	r0, [r0], #-53	; 0x35
    11dc:	00000269 	andeq	r0, r0, r9, ror #4
    11e0:	0059b901 	subseq	fp, r9, r1, lsl #18
    11e4:	08ec0000 	stmiaeq	ip!, {}^	; <UNPREDICTABLE>
    11e8:	00700150 	rsbseq	r0, r0, r0, asr r1
    11ec:	9c010000 	stcls	0, cr0, [r1], {-0}
    11f0:	000008b0 			; <UNDEFINED> instruction: 0x000008b0
    11f4:	00061a15 	andeq	r1, r6, r5, lsl sl
    11f8:	25b90100 	ldrcs	r0, [r9, #256]!	; 0x100
    11fc:	2f000000 	svccs	0x00000000
    1200:	1500000c 	strne	r0, [r0, #-12]
    1204:	000006e9 	andeq	r0, r0, r9, ror #13
    1208:	0025b901 	eoreq	fp, r5, r1, lsl #18
    120c:	0c5b0000 	mraeq	r0, fp, acc0
    1210:	b2150000 	andslt	r0, r5, #0
    1214:	01000004 	tsteq	r0, r4
    1218:	0008b0b9 	strheq	fp, [r8], -r9
    121c:	000c8700 	andeq	r8, ip, r0, lsl #14
    1220:	00691a00 	rsbeq	r1, r9, r0, lsl #20
    1224:	0025bb01 	eoreq	fp, r5, r1, lsl #22
    1228:	0cb30000 	ldceq	0, cr0, [r3]
    122c:	6a1a0000 	bvs	681234 <_back_addr-0xe7edcc>
    1230:	25bb0100 	ldrcs	r0, [fp, #256]!	; 0x100
    1234:	ea000000 	b	123c <_back_addr-0x14fedc4>
    1238:	3300000c 	movwcc	r0, #12
    123c:	0000054d 	andeq	r0, r0, sp, asr #10
    1240:	0025bc01 	eoreq	fp, r5, r1, lsl #24
    1244:	0d140000 	ldceq	0, cr0, [r4, #-0]
    1248:	71330000 	teqvc	r3, r0
    124c:	01000006 	tsteq	r0, r6
    1250:	000025bc 			; <UNDEFINED> instruction: 0x000025bc
    1254:	000d4400 	andeq	r4, sp, r0, lsl #8
    1258:	08490e00 	stmdaeq	r9, {r9, sl, fp}^
    125c:	df010000 	svcle	0x00010000
    1260:	00000059 	andeq	r0, r0, r9, asr r0
    1264:	00000861 	andeq	r0, r0, r1, ror #16
    1268:	a01c000f 	andsge	r0, ip, pc
    126c:	91000000 	mrsls	r0, (UNDEF: 0)
    1270:	0e000008 	cdpeq	0, 0, cr0, cr0, cr8, {0}
    1274:	00000623 	andeq	r0, r0, r3, lsr #12
    1278:	0059d301 	subseq	sp, r9, r1, lsl #6
    127c:	087b0000 	ldmdaeq	fp!, {}^	; <UNPREDICTABLE>
    1280:	000f0000 	andeq	r0, pc, r0
    1284:	5009481e 	andpl	r4, r9, lr, lsl r8
    1288:	00061501 	andeq	r1, r6, r1, lsl #10
    128c:	50011f00 	andpl	r1, r1, r0, lsl #30
    1290:	76007407 	strvc	r7, [r0], -r7, lsl #8
    1294:	1c312200 	lfmne	f2, 4, [r1], #-0
    1298:	04200000 	strteq	r0, [r0], #-0
    129c:	13015009 	movwne	r5, #4105	; 0x1009
    12a0:	a6000005 	strge	r0, [r0], -r5
    12a4:	1f000008 	svcne	0x00000008
    12a8:	0a035001 	beq	d52b4 <_back_addr-0x142ad4c>
    12ac:	34000fe0 	strcc	r0, [r0], #-4064	; 0xfe0
    12b0:	0150095c 	cmpeq	r0, ip, asr r9
    12b4:	00000724 	andeq	r0, r0, r4, lsr #14
    12b8:	16043500 	strne	r3, [r4], -r0, lsl #10
    12bc:	14000001 	strne	r0, [r0], #-1
    12c0:	000005d8 	ldrdeq	r0, [r0], -r8
    12c4:	0059e501 	subseq	lr, r9, r1, lsl #10
    12c8:	095c0000 	ldmdbeq	ip, {}^	; <UNPREDICTABLE>
    12cc:	00200150 	eoreq	r0, r0, r0, asr r1
    12d0:	9c010000 	stcls	0, cr0, [r1], {-0}
    12d4:	000008ef 	andeq	r0, r0, pc, ror #17
    12d8:	5009701e 	andpl	r7, r9, lr, lsl r0
    12dc:	0007d201 	andeq	sp, r7, r1, lsl #4
    12e0:	50011f00 	andpl	r1, r1, r0, lsl #30
    12e4:	011f3001 	tsteq	pc, r1
    12e8:	000a0351 	andeq	r0, sl, r1, asr r3
    12ec:	52011f01 	andpl	r1, r1, #1, 30
    12f0:	35a00305 	strcc	r0, [r0, #773]!	; 0x305
    12f4:	00000151 	andeq	r0, r0, r1, asr r1
    12f8:	00063d14 	andeq	r3, r6, r4, lsl sp
    12fc:	59ee0100 	stmibpl	lr!, {r8}^
    1300:	7c000000 	stcvc	0, cr0, [r0], {-0}
    1304:	3c015009 	stccc	0, cr5, [r1], {9}
    1308:	01000000 	mrseq	r0, (UNDEF: 0)
    130c:	00093f9c 	muleq	r9, ip, pc	; <UNPREDICTABLE>
    1310:	06101500 	ldreq	r1, [r0], -r0, lsl #10
    1314:	ee010000 	cdp	0, 0, cr0, cr1, cr0, {0}
    1318:	00000025 	andeq	r0, r0, r5, lsr #32
    131c:	00000d9b 	muleq	r0, fp, sp
    1320:	00055615 	andeq	r5, r5, r5, lsl r6
    1324:	25ee0100 	strbcs	r0, [lr, #256]!	; 0x100
    1328:	d5000000 	strle	r0, [r0, #-0]
    132c:	1500000d 	strne	r0, [r0, #-13]
    1330:	000004b2 			; <UNDEFINED> instruction: 0x000004b2
    1334:	08b0ee01 	ldmeq	r0!, {r0, r9, sl, fp, sp, lr, pc}
    1338:	0df30000 	ldcleq	0, cr0, [r3]
    133c:	b01d0000 	andslt	r0, sp, r0
    1340:	d2015009 	andle	r5, r1, #9
    1344:	00000007 	andeq	r0, r0, r7
    1348:	0006f424 	andeq	pc, r6, r4, lsr #8
    134c:	01c00100 	biceq	r0, r0, r0, lsl #2
    1350:	00000059 	andeq	r0, r0, r9, asr r0
    1354:	015009b8 	ldrheq	r0, [r0, #-152]	; 0xffffff68
    1358:	0000006c 	andeq	r0, r0, ip, rrx
    135c:	09cf9c01 	stmibeq	pc, {r0, sl, fp, ip, pc}^	; <UNPREDICTABLE>
    1360:	cb280000 	blgt	a01368 <_back_addr-0xafec98>
    1364:	01000004 	tsteq	r0, r4
    1368:	004701c0 	subeq	r0, r7, r0, asr #3
    136c:	0e140000 	cdpeq	0, 1, cr0, cr4, cr0, {0}
    1370:	e0200000 	eor	r0, r0, r0
    1374:	d2015009 	andle	r5, r1, #9
    1378:	8c000007 	stchi	0, cr0, [r0], {7}
    137c:	1f000009 	svcne	0x00000009
    1380:	0a035001 	beq	d538c <_back_addr-0x142ac74>
    1384:	011f0a00 	tsteq	pc, r0, lsl #20
    1388:	1f400151 	svcne	0x00400151
    138c:	03055201 	movweq	r5, #20993	; 0x5201
    1390:	015136c0 	cmpeq	r1, r0, asr #13
    1394:	09f82000 	ldmibeq	r8!, {sp}^
    1398:	07d20150 			; <UNDEFINED> instruction: 0x07d20150
    139c:	09af0000 	stmibeq	pc!, {}	; <UNPREDICTABLE>
    13a0:	011f0000 	tsteq	pc, r0
    13a4:	000a0350 	andeq	r0, sl, r0, asr r3
    13a8:	51011f08 	tstpl	r1, r8, lsl #30
    13ac:	011f4001 	tsteq	pc, r1
    13b0:	a0030552 	andge	r0, r3, r2, asr r5
    13b4:	00015136 	andeq	r5, r1, r6, lsr r1
    13b8:	500a101e 	andpl	r1, sl, lr, lsl r0
    13bc:	0007d201 	andeq	sp, r7, r1, lsl #4
    13c0:	50011f00 	andpl	r1, r1, r0, lsl #30
    13c4:	09000a03 	stmdbeq	r0, {r0, r1, r9, fp}
    13c8:	0151011f 	cmpeq	r1, pc, lsl r1
    13cc:	52011f40 	andpl	r1, r1, #64, 30	; 0x100
    13d0:	36b00305 	ldrtcc	r0, [r0], r5, lsl #6
    13d4:	00000151 	andeq	r0, r0, r1, asr r1
    13d8:	0007b524 	andeq	fp, r7, r4, lsr #10
    13dc:	01d20100 	bicseq	r0, r2, r0, lsl #2
    13e0:	00000059 	andeq	r0, r0, r9, asr r0
    13e4:	01500a24 	cmpeq	r0, r4, lsr #20
    13e8:	00000020 	andeq	r0, r0, r0, lsr #32
    13ec:	0a099c01 	beq	2683f8 <_back_addr-0x1297c08>
    13f0:	381e0000 	ldmdacc	lr, {}	; <UNPREDICTABLE>
    13f4:	d201500a 	andle	r5, r1, #10
    13f8:	1f000007 	svcne	0x00000007
    13fc:	0a035001 	beq	d5408 <_back_addr-0x142abf8>
    1400:	011f0d20 	tsteq	pc, r0, lsr #26
    1404:	1f400151 	svcne	0x00400151
    1408:	03055201 	movweq	r5, #20993	; 0x5201
    140c:	015136d0 	ldrsbeq	r3, [r1, #-96]	; 0xffffffa0
    1410:	81240000 	teqhi	r4, r0
    1414:	01000005 	tsteq	r0, r5
    1418:	00590118 	subseq	r0, r9, r8, lsl r1
    141c:	0a440000 	beq	1101424 <_back_addr-0x3febdc>
    1420:	00200150 	eoreq	r0, r0, r0, asr r1
    1424:	9c010000 	stcls	0, cr0, [r1], {-0}
    1428:	00000a79 	andeq	r0, r0, r9, ror sl
    142c:	0006230e 	andeq	r2, r6, lr, lsl #6
    1430:	59d30100 	ldmibpl	r3, {r8}^
    1434:	34000000 	strcc	r0, [r0], #-0
    1438:	0f00000a 	svceq	0x0000000a
    143c:	08490e00 	stmdaeq	r9, {r9, sl, fp}^
    1440:	df010000 	svcle	0x00010000
    1444:	00000059 	andeq	r0, r0, r9, asr r0
    1448:	00000a45 	andeq	r0, r0, r5, asr #20
    144c:	5020000f 	eorpl	r0, r0, pc
    1450:	1301500a 	movwne	r5, #4106	; 0x100a
    1454:	5a000005 	bpl	1470 <_back_addr-0x14feb90>
    1458:	1f00000a 	svcne	0x0000000a
    145c:	0a035001 	beq	d5468 <_back_addr-0x142ab98>
    1460:	20000fe0 	andcs	r0, r0, r0, ror #31
    1464:	01500a58 	cmpeq	r0, r8, asr sl
    1468:	00000615 	andeq	r0, r0, r5, lsl r6
    146c:	00000a6f 	andeq	r0, r0, pc, ror #20
    1470:	0350011f 	cmpeq	r0, #-1073741817	; 0xc0000007
    1474:	000da40a 	andeq	sl, sp, sl, lsl #8
    1478:	500a5c1d 	andpl	r5, sl, sp, lsl ip
    147c:	00072401 	andeq	r2, r7, r1, lsl #8
    1480:	ec240000 	stc	0, cr0, [r4], #-0
    1484:	01000007 	tsteq	r0, r7
    1488:	00590122 	subseq	r0, r9, r2, lsr #2
    148c:	0a640000 	beq	1901494 <__bss_end__+0x3ed954>
    1490:	00200150 	eoreq	r0, r0, r0, asr r1
    1494:	9c010000 	stcls	0, cr0, [r1], {-0}
    1498:	00000ae9 	andeq	r0, r0, r9, ror #21
    149c:	0006230e 	andeq	r2, r6, lr, lsl #6
    14a0:	59d30100 	ldmibpl	r3, {r8}^
    14a4:	a4000000 	strge	r0, [r0], #-0
    14a8:	0f00000a 	svceq	0x0000000a
    14ac:	08490e00 	stmdaeq	r9, {r9, sl, fp}^
    14b0:	df010000 	svcle	0x00010000
    14b4:	00000059 	andeq	r0, r0, r9, asr r0
    14b8:	00000ab5 			; <UNDEFINED> instruction: 0x00000ab5
    14bc:	7020000f 	eorvc	r0, r0, pc
    14c0:	1301500a 	movwne	r5, #4106	; 0x100a
    14c4:	ca000005 	bgt	14e0 <_back_addr-0x14feb20>
    14c8:	1f00000a 	svcne	0x0000000a
    14cc:	0a035001 	beq	d54d8 <_back_addr-0x142ab28>
    14d0:	20000fe0 	andcs	r0, r0, r0, ror #31
    14d4:	01500a78 	cmpeq	r0, r8, ror sl
    14d8:	00000615 	andeq	r0, r0, r5, lsl r6
    14dc:	00000adf 	ldrdeq	r0, [r0], -pc	; <UNPREDICTABLE>
    14e0:	0350011f 	cmpeq	r0, #-1073741817	; 0xc0000007
    14e4:	000db10a 	andeq	fp, sp, sl, lsl #2
    14e8:	500a7c1d 	andpl	r7, sl, sp, lsl ip
    14ec:	00072401 	andeq	r2, r7, r1, lsl #8
    14f0:	02240000 	eoreq	r0, r4, #0
    14f4:	01000005 	tsteq	r0, r5
    14f8:	0059012c 	subseq	r0, r9, ip, lsr #2
    14fc:	0a840000 	beq	fe101504 <__bss_end__+0xfcbed9c4>
    1500:	00200150 	eoreq	r0, r0, r0, asr r1
    1504:	9c010000 	stcls	0, cr0, [r1], {-0}
    1508:	00000b59 	andeq	r0, r0, r9, asr fp
    150c:	0006230e 	andeq	r2, r6, lr, lsl #6
    1510:	59d30100 	ldmibpl	r3, {r8}^
    1514:	14000000 	strne	r0, [r0], #-0
    1518:	0f00000b 	svceq	0x0000000b
    151c:	08490e00 	stmdaeq	r9, {r9, sl, fp}^
    1520:	df010000 	svcle	0x00010000
    1524:	00000059 	andeq	r0, r0, r9, asr r0
    1528:	00000b25 	andeq	r0, r0, r5, lsr #22
    152c:	9020000f 	eorls	r0, r0, pc
    1530:	1301500a 	movwne	r5, #4106	; 0x100a
    1534:	3a000005 	bcc	1550 <_back_addr-0x14feab0>
    1538:	1f00000b 	svcne	0x0000000b
    153c:	0a035001 	beq	d5548 <_back_addr-0x142aab8>
    1540:	20000fe0 	andcs	r0, r0, r0, ror #31
    1544:	01500a98 			; <UNDEFINED> instruction: 0x01500a98
    1548:	00000615 	andeq	r0, r0, r5, lsl r6
    154c:	00000b4f 	andeq	r0, r0, pc, asr #22
    1550:	0350011f 	cmpeq	r0, #-1073741817	; 0xc0000007
    1554:	000db20a 	andeq	fp, sp, sl, lsl #4
    1558:	500a9c1d 	andpl	r9, sl, sp, lsl ip
    155c:	00072401 	andeq	r2, r7, r1, lsl #8
    1560:	b9240000 	stmdblt	r4!, {}	; <UNPREDICTABLE>
    1564:	01000005 	tsteq	r0, r5
    1568:	00590137 	subseq	r0, r9, r7, lsr r1
    156c:	0aa40000 	beq	fe901574 <__bss_end__+0xfd3eda34>
    1570:	00200150 	eoreq	r0, r0, r0, asr r1
    1574:	9c010000 	stcls	0, cr0, [r1], {-0}
    1578:	00000bc9 	andeq	r0, r0, r9, asr #23
    157c:	0006230e 	andeq	r2, r6, lr, lsl #6
    1580:	59d30100 	ldmibpl	r3, {r8}^
    1584:	84000000 	strhi	r0, [r0], #-0
    1588:	0f00000b 	svceq	0x0000000b
    158c:	08490e00 	stmdaeq	r9, {r9, sl, fp}^
    1590:	df010000 	svcle	0x00010000
    1594:	00000059 	andeq	r0, r0, r9, asr r0
    1598:	00000b95 	muleq	r0, r5, fp
    159c:	b020000f 	eorlt	r0, r0, pc
    15a0:	1301500a 	movwne	r5, #4106	; 0x100a
    15a4:	aa000005 	bge	15c0 <_back_addr-0x14fea40>
    15a8:	1f00000b 	svcne	0x0000000b
    15ac:	0a035001 	beq	d55b8 <_back_addr-0x142aa48>
    15b0:	20000fe0 	andcs	r0, r0, r0, ror #31
    15b4:	01500ab8 	ldrheq	r0, [r0, #-168]	; 0xffffff58
    15b8:	00000615 	andeq	r0, r0, r5, lsl r6
    15bc:	00000bbf 			; <UNDEFINED> instruction: 0x00000bbf
    15c0:	0350011f 	cmpeq	r0, #-1073741817	; 0xc0000007
    15c4:	000da60a 	andeq	sl, sp, sl, lsl #12
    15c8:	500abc1d 	andpl	fp, sl, sp, lsl ip
    15cc:	00072401 	andeq	r2, r7, r1, lsl #8
    15d0:	79240000 	stmdbvc	r4!, {}	; <UNPREDICTABLE>
    15d4:	01000006 	tsteq	r0, r6
    15d8:	00590142 	subseq	r0, r9, r2, asr #2
    15dc:	0ac40000 	beq	ff1015e4 <__bss_end__+0xfdbedaa4>
    15e0:	00200150 	eoreq	r0, r0, r0, asr r1
    15e4:	9c010000 	stcls	0, cr0, [r1], {-0}
    15e8:	00000c39 	andeq	r0, r0, r9, lsr ip
    15ec:	0006230e 	andeq	r2, r6, lr, lsl #6
    15f0:	59d30100 	ldmibpl	r3, {r8}^
    15f4:	f4000000 	vst4.8	{d0-d3}, [r0], r0
    15f8:	0f00000b 	svceq	0x0000000b
    15fc:	08490e00 	stmdaeq	r9, {r9, sl, fp}^
    1600:	df010000 	svcle	0x00010000
    1604:	00000059 	andeq	r0, r0, r9, asr r0
    1608:	00000c05 	andeq	r0, r0, r5, lsl #24
    160c:	d020000f 	eorle	r0, r0, pc
    1610:	1301500a 	movwne	r5, #4106	; 0x100a
    1614:	1a000005 	bne	1630 <_back_addr-0x14fe9d0>
    1618:	1f00000c 	svcne	0x0000000c
    161c:	0a035001 	beq	d5628 <_back_addr-0x142a9d8>
    1620:	20000fe0 	andcs	r0, r0, r0, ror #31
    1624:	01500ad8 	ldrsbeq	r0, [r0, #-168]	; 0xffffff58
    1628:	00000615 	andeq	r0, r0, r5, lsl r6
    162c:	00000c2f 	andeq	r0, r0, pc, lsr #24
    1630:	0350011f 	cmpeq	r0, #-1073741817	; 0xc0000007
    1634:	000dbb0a 	andeq	fp, sp, sl, lsl #22
    1638:	500adc1d 	andpl	sp, sl, sp, lsl ip
    163c:	00072401 	andeq	r2, r7, r1, lsl #8
    1640:	a7240000 	strge	r0, [r4, -r0]!
    1644:	01000003 	tsteq	r0, r3
    1648:	005901d8 	ldrsbeq	r0, [r9], #-24	; 0xffffffe8
    164c:	0ae40000 	beq	ff901654 <__bss_end__+0xfe3edb14>
    1650:	00200150 	eoreq	r0, r0, r0, asr r1
    1654:	9c010000 	stcls	0, cr0, [r1], {-0}
    1658:	00000cad 	andeq	r0, r0, sp, lsr #25
    165c:	0003c727 	andeq	ip, r3, r7, lsr #14
    1660:	01e00100 	mvneq	r0, r0, lsl #2
    1664:	00000059 	andeq	r0, r0, r9, asr r0
    1668:	00000c65 	andeq	r0, r0, r5, ror #24
    166c:	5236000f 	eorspl	r0, r6, #15
    1670:	e1010032 	tst	r1, r2, lsr r0
    1674:	00005901 	andeq	r5, r0, r1, lsl #18
    1678:	000c7600 	andeq	r7, ip, r0, lsl #12
    167c:	1d000f00 	stcne	15, cr0, [r0, #-0]
    1680:	01500aec 	cmpeq	r0, ip, ror #21
    1684:	00000a09 	andeq	r0, r0, r9, lsl #20
    1688:	500af01d 	andpl	pc, sl, sp, lsl r0	; <UNPREDICTABLE>
    168c:	000bc901 	andeq	ip, fp, r1, lsl #18
    1690:	0af41d00 	beq	ffd08a98 <__bss_end__+0xfe7f4f58>
    1694:	0b590150 	bleq	1641bdc <__bss_end__+0x12e09c>
    1698:	f81d0000 			; <UNDEFINED> instruction: 0xf81d0000
    169c:	6801500a 	stmdavs	r1, {r1, r3, ip, lr}
    16a0:	1d000014 	stcne	0, cr0, [r0, #-80]	; 0xffffffb0
    16a4:	01500afc 	ldrsheq	r0, [r0, #-172]	; 0xffffff54
    16a8:	0000147a 	andeq	r1, r0, sl, ror r4
    16ac:	500b0434 	andpl	r0, fp, r4, lsr r4
    16b0:	00146801 	andseq	r6, r4, r1, lsl #16
    16b4:	a3240000 	teqge	r4, #0
    16b8:	01000006 	tsteq	r0, r6
    16bc:	0059014d 	subseq	r0, r9, sp, asr #2
    16c0:	0b040000 	bleq	1016c8 <_back_addr-0x13fe938>
    16c4:	00200150 	eoreq	r0, r0, r0, asr r1
    16c8:	9c010000 	stcls	0, cr0, [r1], {-0}
    16cc:	00000d1d 	andeq	r0, r0, sp, lsl sp
    16d0:	0006230e 	andeq	r2, r6, lr, lsl #6
    16d4:	59d30100 	ldmibpl	r3, {r8}^
    16d8:	d8000000 	stmdale	r0, {}	; <UNPREDICTABLE>
    16dc:	0f00000c 	svceq	0x0000000c
    16e0:	08490e00 	stmdaeq	r9, {r9, sl, fp}^
    16e4:	df010000 	svcle	0x00010000
    16e8:	00000059 	andeq	r0, r0, r9, asr r0
    16ec:	00000ce9 	andeq	r0, r0, r9, ror #25
    16f0:	1020000f 	eorne	r0, r0, pc
    16f4:	1301500b 	movwne	r5, #4107	; 0x100b
    16f8:	fe000005 	cdp2	0, 0, cr0, cr0, cr5, {0}
    16fc:	1f00000c 	svcne	0x0000000c
    1700:	0a035001 	beq	d570c <_back_addr-0x142a8f4>
    1704:	20000fe0 	andcs	r0, r0, r0, ror #31
    1708:	01500b18 	cmpeq	r0, r8, lsl fp
    170c:	00000615 	andeq	r0, r0, r5, lsl r6
    1710:	00000d13 	andeq	r0, r0, r3, lsl sp
    1714:	0350011f 	cmpeq	r0, #-1073741817	; 0xc0000007
    1718:	000e0e0a 	andeq	r0, lr, sl, lsl #28
    171c:	500b1c1d 	andpl	r1, fp, sp, lsl ip
    1720:	00072401 	andeq	r2, r7, r1, lsl #8
    1724:	9b240000 	blls	90172c <_back_addr-0xbfe8d4>
    1728:	01000005 	tsteq	r0, r5
    172c:	00590158 	subseq	r0, r9, r8, asr r1
    1730:	0b240000 	bleq	901738 <_back_addr-0xbfe8c8>
    1734:	00200150 	eoreq	r0, r0, r0, asr r1
    1738:	9c010000 	stcls	0, cr0, [r1], {-0}
    173c:	00000d8d 	andeq	r0, r0, sp, lsl #27
    1740:	0006230e 	andeq	r2, r6, lr, lsl #6
    1744:	59d30100 	ldmibpl	r3, {r8}^
    1748:	48000000 	stmdami	r0, {}	; <UNPREDICTABLE>
    174c:	0f00000d 	svceq	0x0000000d
    1750:	08490e00 	stmdaeq	r9, {r9, sl, fp}^
    1754:	df010000 	svcle	0x00010000
    1758:	00000059 	andeq	r0, r0, r9, asr r0
    175c:	00000d59 	andeq	r0, r0, r9, asr sp
    1760:	3020000f 	eorcc	r0, r0, pc
    1764:	1301500b 	movwne	r5, #4107	; 0x100b
    1768:	6e000005 	cdpvs	0, 0, cr0, cr0, cr5, {0}
    176c:	1f00000d 	svcne	0x0000000d
    1770:	0a035001 	beq	d577c <_back_addr-0x142a884>
    1774:	20000fe0 	andcs	r0, r0, r0, ror #31
    1778:	01500b38 	cmpeq	r0, r8, lsr fp
    177c:	00000615 	andeq	r0, r0, r5, lsl r6
    1780:	00000d83 	andeq	r0, r0, r3, lsl #27
    1784:	0350011f 	cmpeq	r0, #-1073741817	; 0xc0000007
    1788:	000e0f0a 	andeq	r0, lr, sl, lsl #30
    178c:	500b3c1d 	andpl	r3, fp, sp, lsl ip
    1790:	00072401 	andeq	r2, r7, r1, lsl #8
    1794:	97240000 	strls	r0, [r4, -r0]!
    1798:	01000007 	tsteq	r0, r7
    179c:	00590163 	subseq	r0, r9, r3, ror #2
    17a0:	0b440000 	bleq	11017a8 <_back_addr-0x3fe858>
    17a4:	00200150 	eoreq	r0, r0, r0, asr r1
    17a8:	9c010000 	stcls	0, cr0, [r1], {-0}
    17ac:	00000dfd 	strdeq	r0, [r0], -sp
    17b0:	0006230e 	andeq	r2, r6, lr, lsl #6
    17b4:	59d30100 	ldmibpl	r3, {r8}^
    17b8:	b8000000 	stmdalt	r0, {}	; <UNPREDICTABLE>
    17bc:	0f00000d 	svceq	0x0000000d
    17c0:	08490e00 	stmdaeq	r9, {r9, sl, fp}^
    17c4:	df010000 	svcle	0x00010000
    17c8:	00000059 	andeq	r0, r0, r9, asr r0
    17cc:	00000dc9 	andeq	r0, r0, r9, asr #27
    17d0:	5020000f 	eorpl	r0, r0, pc
    17d4:	1301500b 	movwne	r5, #4107	; 0x100b
    17d8:	de000005 	cdple	0, 0, cr0, cr0, cr5, {0}
    17dc:	1f00000d 	svcne	0x0000000d
    17e0:	0a035001 	beq	d57ec <_back_addr-0x142a814>
    17e4:	20000fe0 	andcs	r0, r0, r0, ror #31
    17e8:	01500b58 	cmpeq	r0, r8, asr fp
    17ec:	00000615 	andeq	r0, r0, r5, lsl r6
    17f0:	00000df3 	strdeq	r0, [r0], -r3
    17f4:	0350011f 	cmpeq	r0, #-1073741817	; 0xc0000007
    17f8:	000dc20a 	andeq	ip, sp, sl, lsl #4
    17fc:	500b5c1d 	andpl	r5, fp, sp, lsl ip
    1800:	00072401 	andeq	r2, r7, r1, lsl #8
    1804:	b9240000 	stmdblt	r4!, {}	; <UNPREDICTABLE>
    1808:	01000006 	tsteq	r0, r6
    180c:	0059016d 	subseq	r0, r9, sp, ror #2
    1810:	0b640000 	bleq	1901818 <__bss_end__+0x3edcd8>
    1814:	00200150 	eoreq	r0, r0, r0, asr r1
    1818:	9c010000 	stcls	0, cr0, [r1], {-0}
    181c:	00000e6d 	andeq	r0, r0, sp, ror #28
    1820:	0006230e 	andeq	r2, r6, lr, lsl #6
    1824:	59d30100 	ldmibpl	r3, {r8}^
    1828:	28000000 	stmdacs	r0, {}	; <UNPREDICTABLE>
    182c:	0f00000e 	svceq	0x0000000e
    1830:	08490e00 	stmdaeq	r9, {r9, sl, fp}^
    1834:	df010000 	svcle	0x00010000
    1838:	00000059 	andeq	r0, r0, r9, asr r0
    183c:	00000e39 	andeq	r0, r0, r9, lsr lr
    1840:	7020000f 	eorvc	r0, r0, pc
    1844:	1301500b 	movwne	r5, #4107	; 0x100b
    1848:	4e000005 	cdpmi	0, 0, cr0, cr0, cr5, {0}
    184c:	1f00000e 	svcne	0x0000000e
    1850:	0a035001 	beq	d585c <_back_addr-0x142a7a4>
    1854:	20000fe0 	andcs	r0, r0, r0, ror #31
    1858:	01500b78 	cmpeq	r0, r8, ror fp
    185c:	00000615 	andeq	r0, r0, r5, lsl r6
    1860:	00000e63 	andeq	r0, r0, r3, ror #28
    1864:	0350011f 	cmpeq	r0, #-1073741817	; 0xc0000007
    1868:	000e0a0a 	andeq	r0, lr, sl, lsl #20
    186c:	500b7c1d 	andpl	r7, fp, sp, lsl ip
    1870:	00072401 	andeq	r2, r7, r1, lsl #8
    1874:	60370000 	eorsvs	r0, r7, r0
    1878:	84000001 	strhi	r0, [r0], #-1
    187c:	6c01500b 	stcvs	0, cr5, [r1], {11}
    1880:	01000000 	mrseq	r0, (UNDEF: 0)
    1884:	000f349c 	muleq	pc, ip, r4	; <UNPREDICTABLE>
    1888:	01712b00 	cmneq	r1, r0, lsl #22
    188c:	0e670000 	cdpeq	0, 6, cr0, cr7, cr0, {0}
    1890:	7d380000 	ldcvc	0, cr0, [r8, #-0]
    1894:	00000001 	andeq	r0, r0, r1
    1898:	00000e96 	muleq	r0, r6, lr
    189c:	1c000f0f 	stcne	15, cr0, [r0], {15}
    18a0:	000000b8 	strheq	r0, [r0], -r8
    18a4:	00000f0b 	andeq	r0, r0, fp, lsl #30
    18a8:	0001712b 	andeq	r7, r1, fp, lsr #2
    18ac:	000ea100 	andeq	sl, lr, r0, lsl #2
    18b0:	00b81b00 	adcseq	r1, r8, r0, lsl #22
    18b4:	d0390000 	eorsle	r0, r9, r0
    18b8:	0c01500b 	stceq	0, cr5, [r1], {11}
    18bc:	cc000000 	stcgt	0, cr0, [r0], {-0}
    18c0:	1e00000e 	cdpne	0, 0, cr0, cr0, cr14, {0}
    18c4:	01500bd8 	ldrsbeq	r0, [r0, #-184]	; 0xffffff48
    18c8:	00000615 	andeq	r0, r0, r5, lsl r6
    18cc:	0350011f 	cmpeq	r0, #-1073741817	; 0xc0000007
    18d0:	000da10a 	andeq	sl, sp, sl, lsl #2
    18d4:	0bdc3900 	bleq	ff70fcdc <__bss_end__+0xfe1fc19c>
    18d8:	00080150 	andeq	r0, r8, r0, asr r1
    18dc:	0eeb0000 	cdpeq	0, 14, cr0, cr11, cr0, {0}
    18e0:	e41e0000 	ldr	r0, [lr], #-0
    18e4:	1501500b 	strne	r5, [r1, #-11]
    18e8:	1f000006 	svcne	0x00000006
    18ec:	0a035001 	beq	d58f8 <_back_addr-0x142a708>
    18f0:	00000da0 	andeq	r0, r0, r0, lsr #27
    18f4:	500ba020 	andpl	sl, fp, r0, lsr #32
    18f8:	00051301 	andeq	r1, r5, r1, lsl #6
    18fc:	000f0000 	andeq	r0, pc, r0
    1900:	50011f00 	andpl	r1, r1, r0, lsl #30
    1904:	0fe00a03 	svceq	0x00e00a03
    1908:	0bb41d00 	bleq	fed08d10 <__bss_end__+0xfd7f51d0>
    190c:	07240150 			; <UNDEFINED> instruction: 0x07240150
    1910:	00000000 	andeq	r0, r0, r0
    1914:	500bbc2c 	andpl	fp, fp, ip, lsr #24
    1918:	00001401 	andeq	r1, r0, r1, lsl #8
    191c:	01933a00 	orrseq	r3, r3, r0, lsl #20
    1920:	0f1f0000 	svceq	0x001f0000
    1924:	000f0000 	andeq	r0, pc, r0
    1928:	500bc81e 	andpl	ip, fp, lr, lsl r8
    192c:	00141101 	andseq	r1, r4, r1, lsl #2
    1930:	50011f00 	andpl	r1, r1, r0, lsl #30
    1934:	30e00305 	rsccc	r0, r0, r5, lsl #6
    1938:	00000150 	andeq	r0, r0, r0, asr r1
    193c:	01c83700 	biceq	r3, r8, r0, lsl #14
    1940:	0bf00000 	bleq	ffc01948 <__bss_end__+0xfe6ede08>
    1944:	006c0150 	rsbeq	r0, ip, r0, asr r1
    1948:	9c010000 	stcls	0, cr0, [r1], {-0}
    194c:	00000ffb 	strdeq	r0, [r0], -fp
    1950:	0001d92b 	andeq	sp, r1, fp, lsr #18
    1954:	000ebf00 	andeq	fp, lr, r0, lsl #30
    1958:	01e53800 	mvneq	r3, r0, lsl #16
    195c:	5d000000 	stcpl	0, cr0, [r0, #-0]
    1960:	0f00000f 	svceq	0x0000000f
    1964:	d01c000f 	andsle	r0, ip, pc
    1968:	d2000000 	andle	r0, r0, #0
    196c:	2b00000f 	blcs	19b0 <_back_addr-0x14fe650>
    1970:	000001d9 	ldrdeq	r0, [r0], -r9
    1974:	00000ef9 	strdeq	r0, [r0], -r9
    1978:	0000d01b 	andeq	sp, r0, fp, lsl r0
    197c:	0c3c3900 	ldceq	9, cr3, [ip], #-0
    1980:	000c0150 	andeq	r0, ip, r0, asr r1
    1984:	0f930000 	svceq	0x00930000
    1988:	441e0000 	ldrmi	r0, [lr], #-0
    198c:	1501500c 	strne	r5, [r1, #-12]
    1990:	1f000006 	svcne	0x00000006
    1994:	0a035001 	beq	d59a0 <_back_addr-0x142a660>
    1998:	00000e0c 	andeq	r0, r0, ip, lsl #28
    199c:	500c4839 	andpl	r4, ip, r9, lsr r8
    19a0:	00000801 	andeq	r0, r0, r1, lsl #16
    19a4:	000fb200 	andeq	fp, pc, r0, lsl #4
    19a8:	0c501e00 	mrrceq	14, 0, r1, r0, cr0
    19ac:	06150150 			; <UNDEFINED> instruction: 0x06150150
    19b0:	011f0000 	tsteq	pc, r0
    19b4:	0b0a0350 	bleq	2826fc <_back_addr-0x127d904>
    19b8:	2000000e 	andcs	r0, r0, lr
    19bc:	01500c0c 	cmpeq	r0, ip, lsl #24
    19c0:	00000513 	andeq	r0, r0, r3, lsl r5
    19c4:	00000fc7 	andeq	r0, r0, r7, asr #31
    19c8:	0350011f 	cmpeq	r0, #-1073741817	; 0xc0000007
    19cc:	000fe00a 	andeq	lr, pc, sl
    19d0:	500c201d 	andpl	r2, ip, sp, lsl r0
    19d4:	00072401 	andeq	r2, r7, r1, lsl #8
    19d8:	2c000000 	stccs	0, cr0, [r0], {-0}
    19dc:	01500c28 	cmpeq	r0, r8, lsr #24
    19e0:	00000014 	andeq	r0, r0, r4, lsl r0
    19e4:	0001fb3a 	andeq	pc, r1, sl, lsr fp	; <UNPREDICTABLE>
    19e8:	000fe600 	andeq	lr, pc, r0, lsl #12
    19ec:	1e000f00 	cdpne	15, 0, cr0, cr0, cr0, {0}
    19f0:	01500c34 	cmpeq	r0, r4, lsr ip
    19f4:	00001411 	andeq	r1, r0, r1, lsl r4
    19f8:	0550011f 	ldrbeq	r0, [r0, #-287]	; 0x11f
    19fc:	5030f803 	eorspl	pc, r0, r3, lsl #16
    1a00:	00000001 	andeq	r0, r0, r1
    1a04:	00065f24 	andeq	r5, r6, r4, lsr #30
    1a08:	01e50100 	mvneq	r0, r0, lsl #2
    1a0c:	00000059 	andeq	r0, r0, r9, asr r0
    1a10:	01500c5c 	cmpeq	r0, ip, asr ip
    1a14:	0000009c 	muleq	r0, ip, r0
    1a18:	11389c01 	teqne	r8, r1, lsl #24
    1a1c:	78200000 	stmdavc	r0!, {}	; <UNPREDICTABLE>
    1a20:	d201500c 	andle	r5, r1, #12
    1a24:	35000007 	strcc	r0, [r0, #-7]
    1a28:	1f000010 	svcne	0x00000010
    1a2c:	30015001 	andcc	r5, r1, r1
    1a30:	0351011f 	cmpeq	r1, #-1073741817	; 0xc0000007
    1a34:	1f01000a 	svcne	0x0001000a
    1a38:	74025201 	strvc	r5, [r2], #-513	; 0x201
    1a3c:	88200030 	stmdahi	r0!, {r4, r5}
    1a40:	d201500c 	andle	r5, r1, #12
    1a44:	56000007 	strpl	r0, [r0], -r7
    1a48:	1f000010 	svcne	0x00000010
    1a4c:	0a035001 	beq	d5a58 <_back_addr-0x142a5a8>
    1a50:	011f0800 	tsteq	pc, r0, lsl #16
    1a54:	1f400151 	svcne	0x00400151
    1a58:	74035201 	strvc	r5, [r3], #-513	; 0x201
    1a5c:	200002b0 			; <UNDEFINED> instruction: 0x200002b0
    1a60:	01500c98 			; <UNDEFINED> instruction: 0x01500c98
    1a64:	000007d2 	ldrdeq	r0, [r0], -r2
    1a68:	00001077 	andeq	r1, r0, r7, ror r0
    1a6c:	0350011f 	cmpeq	r0, #-1073741817	; 0xc0000007
    1a70:	1f09000a 	svcne	0x0009000a
    1a74:	40015101 	andmi	r5, r1, r1, lsl #2
    1a78:	0352011f 	cmpeq	r2, #-1073741817	; 0xc0000007
    1a7c:	0002c074 	andeq	ip, r2, r4, ror r0
    1a80:	500ca820 	andpl	sl, ip, r0, lsr #16
    1a84:	0007d201 	andeq	sp, r7, r1, lsl #4
    1a88:	00109800 	andseq	r9, r0, r0, lsl #16
    1a8c:	50011f00 	andpl	r1, r1, r0, lsl #30
    1a90:	0a000a03 	beq	42a4 <_back_addr-0x14fbd5c>
    1a94:	0151011f 	cmpeq	r1, pc, lsl r1
    1a98:	52011f40 	andpl	r1, r1, #64, 30	; 0x100
    1a9c:	02d07403 	sbcseq	r7, r0, #50331648	; 0x3000000
    1aa0:	0cb82000 	ldceq	0, cr2, [r8]
    1aa4:	07d20150 			; <UNDEFINED> instruction: 0x07d20150
    1aa8:	10b90000 	adcsne	r0, r9, r0
    1aac:	011f0000 	tsteq	pc, r0
    1ab0:	200a0350 	andcs	r0, sl, r0, asr r3
    1ab4:	51011f0d 	tstpl	r1, sp, lsl #30
    1ab8:	011f4001 	tsteq	pc, r1
    1abc:	e0740352 	rsbs	r0, r4, r2, asr r3
    1ac0:	bc1d0002 	ldclt	0, cr0, [sp], {2}
    1ac4:	5901500c 	stmdbpl	r1, {r2, r3, ip, lr}
    1ac8:	1d00000b 	stcne	0, cr0, [r0, #-44]	; 0xffffffd4
    1acc:	01500cc0 	cmpeq	r0, r0, asr #25
    1ad0:	00000bc9 	andeq	r0, r0, r9, asr #23
    1ad4:	500cc41d 	andpl	ip, ip, sp, lsl r4
    1ad8:	000cad01 	andeq	sl, ip, r1, lsl #26
    1adc:	0cc81d00 	stcleq	13, cr1, [r8], {0}
    1ae0:	0d1d0150 	ldfeqs	f0, [sp, #-320]	; 0xfffffec0
    1ae4:	cc1d0000 	ldcgt	0, cr0, [sp], {-0}
    1ae8:	8d01500c 	stchi	0, cr5, [r1, #-48]	; 0xffffffd0
    1aec:	1d00000d 	stcne	0, cr0, [r0, #-52]	; 0xffffffcc
    1af0:	01500cd0 	ldrsbeq	r0, [r0, #-192]	; 0xffffff40
    1af4:	00000dfd 	strdeq	r0, [r0], -sp
    1af8:	500cd820 	andpl	sp, ip, r0, lsr #16
    1afc:	00016001 	andeq	r6, r1, r1
    1b00:	00110200 	andseq	r0, r1, r0, lsl #4
    1b04:	50011f00 	andpl	r1, r1, r0, lsl #30
    1b08:	20003101 	andcs	r3, r0, r1, lsl #2
    1b0c:	01500ce0 	cmpeq	r0, r0, ror #25
    1b10:	00000160 	andeq	r0, r0, r0, ror #2
    1b14:	00001115 	andeq	r1, r0, r5, lsl r1
    1b18:	0150011f 	cmpeq	r0, pc, lsl r1
    1b1c:	e8200032 	stmda	r0!, {r1, r4, r5}
    1b20:	c801500c 	stmdagt	r1, {r2, r3, ip, lr}
    1b24:	28000001 	stmdacs	r0, {r0}
    1b28:	1f000011 	svcne	0x00000011
    1b2c:	31015001 	tstcc	r1, r1
    1b30:	0cf01e00 	ldcleq	14, cr1, [r0]
    1b34:	01c80150 	biceq	r0, r8, r0, asr r1
    1b38:	011f0000 	tsteq	pc, r0
    1b3c:	00320150 	eorseq	r0, r2, r0, asr r1
    1b40:	04f52400 	ldrbteq	r2, [r5], #1024	; 0x400
    1b44:	5f010000 	svcpl	0x00010000
    1b48:	00002502 	andeq	r2, r0, r2, lsl #10
    1b4c:	500cf800 	andpl	pc, ip, r0, lsl #16
    1b50:	00008001 	andeq	r8, r0, r1
    1b54:	d79c0100 	ldrle	r0, [ip, r0, lsl #2]
    1b58:	28000011 	stmdacs	r0, {r0, r4}
    1b5c:	000007ae 	andeq	r0, r0, lr, lsr #15
    1b60:	25025f01 	strcs	r5, [r2, #-3841]	; 0xf01
    1b64:	17000000 	strne	r0, [r0, -r0]
    1b68:	3b00000f 	blcc	1bac <_back_addr-0x14fe454>
    1b6c:	00727470 	rsbseq	r7, r2, r0, ror r4
    1b70:	d7025f01 	strle	r5, [r2, -r1, lsl #30]
    1b74:	38000011 	stmdacc	r0, {r0, r4}
    1b78:	3b00000f 	blcc	1bbc <_back_addr-0x14fe444>
    1b7c:	00746e63 	rsbseq	r6, r4, r3, ror #28
    1b80:	25025f01 	strcs	r5, [r2, #-3841]	; 0xf01
    1b84:	64000000 	strvs	r0, [r0], #-0
    1b88:	3c00000f 	stccc	0, cr0, [r0], {15}
    1b8c:	00746572 	rsbseq	r6, r4, r2, ror r5
    1b90:	25026101 	strcs	r6, [r2, #-257]	; 0x101
    1b94:	00000000 	andeq	r0, r0, r0
    1b98:	01006926 	tsteq	r0, r6, lsr #18
    1b9c:	00250262 	eoreq	r0, r5, r2, ror #4
    1ba0:	0f900000 	svceq	0x00900000
    1ba4:	11290000 	teqne	r9, r0
    1ba8:	01000007 	tsteq	r0, r7
    1bac:	00250263 	eoreq	r0, r5, r3, ror #4
    1bb0:	0fb00000 	svceq	0x00b00000
    1bb4:	213d0000 	teqcs	sp, r0
    1bb8:	08000001 	stmdaeq	r0, {r0}
    1bbc:	e801500d 	stmda	r1, {r0, r2, r3, ip, lr}
    1bc0:	01000000 	mrseq	r0, (UNDEF: 0)
    1bc4:	312b0267 	teqcc	fp, r7, ror #4
    1bc8:	2a000001 	bcs	1bd4 <_back_addr-0x14fe42c>
    1bcc:	1b000010 	blne	1c14 <_back_addr-0x14fe3ec>
    1bd0:	00000108 	andeq	r0, r0, r8, lsl #2
    1bd4:	0001312b 	andeq	r3, r1, fp, lsr #2
    1bd8:	00107000 	andseq	r7, r0, r0
    1bdc:	00000000 	andeq	r0, r0, r0
    1be0:	00250435 	eoreq	r0, r5, r5, lsr r4
    1be4:	05240000 	streq	r0, [r4, #-0]!
    1be8:	01000008 	tsteq	r0, r8
    1bec:	0059026c 	subseq	r0, r9, ip, ror #4
    1bf0:	0d780000 	ldcleq	0, cr0, [r8, #-0]
    1bf4:	00540150 	subseq	r0, r4, r0, asr r1
    1bf8:	9c010000 	stcls	0, cr0, [r1], {-0}
    1bfc:	000012c0 	andeq	r1, r0, r0, asr #5
    1c00:	0007ae28 	andeq	sl, r7, r8, lsr #28
    1c04:	026c0100 	rsbeq	r0, ip, #0, 2
    1c08:	00000059 	andeq	r0, r0, r9, asr r0
    1c0c:	00001094 	muleq	r0, r4, r0
    1c10:	7274703b 	rsbsvc	r7, r4, #59	; 0x3b
    1c14:	026c0100 	rsbeq	r0, ip, #0, 2
    1c18:	000012c0 	andeq	r1, r0, r0, asr #5
    1c1c:	000010b5 	strheq	r1, [r0], -r5
    1c20:	746e633e 	strbtvc	r6, [lr], #-830	; 0x33e
    1c24:	026c0100 	rsbeq	r0, ip, #0, 2
    1c28:	00000025 	andeq	r0, r0, r5, lsr #32
    1c2c:	723f5201 	eorsvc	r5, pc, #268435456	; 0x10000000
    1c30:	01007465 	tsteq	r0, r5, ror #8
    1c34:	0025026e 	eoreq	r0, r5, lr, ror #4
    1c38:	267f0000 	ldrbtcs	r0, [pc], -r0
    1c3c:	6f010069 	svcvs	0x00010069
    1c40:	00002502 	andeq	r2, r0, r2, lsl #10
    1c44:	0010e100 	andseq	lr, r0, r0, lsl #2
    1c48:	04ef2900 	strbteq	r2, [pc], #2304	; 1c50 <_back_addr-0x14fe3b0>
    1c4c:	70010000 	andvc	r0, r1, r0
    1c50:	00002502 	andeq	r2, r0, r2, lsl #10
    1c54:	00111200 	andseq	r1, r1, r0, lsl #4
    1c58:	06954000 	ldreq	r4, [r5], r0
    1c5c:	70010000 	andvc	r0, r1, r0
    1c60:	00002502 	andeq	r2, r0, r2, lsl #10
    1c64:	35290000 	strcc	r0, [r9, #-0]!
    1c68:	01000006 	tsteq	r0, r6
    1c6c:	00250271 	eoreq	r0, r5, r1, ror r2
    1c70:	11120000 	tstne	r2, r0
    1c74:	8f290000 	svchi	0x00290000
    1c78:	01000006 	tsteq	r0, r6
    1c7c:	00250271 	eoreq	r0, r5, r1, ror r2
    1c80:	11120000 	tstne	r2, r0
    1c84:	cc400000 	margt	acc0, r0, r0
    1c88:	01000007 	tsteq	r0, r7
    1c8c:	00250271 	eoreq	r0, r5, r1, ror r2
    1c90:	29000000 	stmdbcs	r0, {}	; <UNPREDICTABLE>
    1c94:	000007d3 	ldrdeq	r0, [r0], -r3
    1c98:	25027201 	strcs	r7, [r2, #-513]	; 0x201
    1c9c:	32000000 	andcc	r0, r0, #0
    1ca0:	2a000011 	bcs	1cec <_back_addr-0x14fe314>
    1ca4:	00000121 	andeq	r0, r0, r1, lsr #2
    1ca8:	01500da8 	cmpeq	r0, r8, lsr #27
    1cac:	00000004 	andeq	r0, r0, r4
    1cb0:	41027a01 	tstmi	r2, r1, lsl #20
    1cb4:	00000131 	andeq	r0, r0, r1, lsr r1
    1cb8:	500da82c 	andpl	sl, sp, ip, lsr #16
    1cbc:	00000401 	andeq	r0, r0, r1, lsl #8
    1cc0:	01314100 	teqeq	r1, r0, lsl #2
    1cc4:	00000000 	andeq	r0, r0, r0
    1cc8:	b4043500 	strlt	r3, [r4], #-1280	; 0x500
    1ccc:	24000000 	strcs	r0, [r0], #-0
    1cd0:	0000064a 	andeq	r0, r0, sl, asr #12
    1cd4:	59010301 	stmdbpl	r1, {r0, r8, r9}
    1cd8:	cc000000 	stcgt	0, cr0, [r0], {-0}
    1cdc:	4401500d 	strmi	r5, [r1], #-13
    1ce0:	01000000 	mrseq	r0, (UNDEF: 0)
    1ce4:	00133b9c 	mulseq	r3, ip, fp
    1ce8:	06102800 	ldreq	r2, [r0], -r0, lsl #16
    1cec:	03010000 	movweq	r0, #4096	; 0x1000
    1cf0:	00002501 	andeq	r2, r0, r1, lsl #10
    1cf4:	00117e00 	andseq	r7, r1, r0, lsl #28
    1cf8:	05562800 	ldrbeq	r2, [r6, #-2048]	; 0x800
    1cfc:	03010000 	movweq	r0, #4096	; 0x1000
    1d00:	00002501 	andeq	r2, r0, r1, lsl #10
    1d04:	0011b800 	andseq	fp, r1, r0, lsl #16
    1d08:	04b22800 	ldrteq	r2, [r2], #2048	; 0x800
    1d0c:	03010000 	movweq	r0, #4096	; 0x1000
    1d10:	0008b001 	andeq	fp, r8, r1
    1d14:	0011e400 	andseq	lr, r1, r0, lsl #8
    1d18:	08052700 	stmdaeq	r5, {r8, r9, sl, sp}
    1d1c:	14010000 	strne	r0, [r1], #-0
    1d20:	00005901 	andeq	r5, r0, r1, lsl #18
    1d24:	00132200 	andseq	r2, r3, r0, lsl #4
    1d28:	1e000f00 	cdpne	15, 0, cr0, cr0, cr0, {0}
    1d2c:	01500e08 	cmpeq	r0, r8, lsl #28
    1d30:	000011dd 	ldrdeq	r1, [r0], -sp
    1d34:	0351011f 	cmpeq	r1, #-1073741817	; 0xc0000007
    1d38:	1f5201f3 	svcne	0x005201f3
    1d3c:	f3035201 	vhsub.u8	d5, d3, d1
    1d40:	00005101 	andeq	r5, r0, r1, lsl #2
    1d44:	00002522 	andeq	r2, r0, r2, lsr #10
    1d48:	00134b00 	andseq	r4, r3, r0, lsl #22
    1d4c:	007f2300 	rsbseq	r2, pc, r0, lsl #6
    1d50:	003f0000 	eorseq	r0, pc, r0
    1d54:	00031742 	andeq	r1, r3, r2, asr #14
    1d58:	3b3e0100 	blcc	f82160 <_back_addr-0x57dea0>
    1d5c:	05000013 	streq	r0, [r0, #-19]
    1d60:	5135a003 	teqpl	r5, r3
    1d64:	082b4201 	stmdaeq	fp!, {r0, r9, lr}
    1d68:	52010000 	andpl	r0, r1, #0
    1d6c:	00000503 	andeq	r0, r0, r3, lsl #10
    1d70:	36c00305 	strbcc	r0, [r0], r5, lsl #6
    1d74:	12420151 	subne	r0, r2, #1073741844	; 0x40000014
    1d78:	01000008 	tsteq	r0, r8
    1d7c:	00050357 	andeq	r0, r5, r7, asr r3
    1d80:	b0030500 	andlt	r0, r3, r0, lsl #10
    1d84:	42015136 	andmi	r5, r1, #-2147483635	; 0x8000000d
    1d88:	0000083e 	andeq	r0, r0, lr, lsr r8
    1d8c:	05035c01 	streq	r5, [r3, #-3073]	; 0xc01
    1d90:	03050000 	movweq	r0, #20480	; 0x5000
    1d94:	015136a0 	cmpeq	r1, r0, lsr #13
    1d98:	0000b422 	andeq	fp, r0, r2, lsr #8
    1d9c:	00139f00 	andseq	r9, r3, r0, lsl #30
    1da0:	007f2300 	rsbseq	r2, pc, r0, lsl #6
    1da4:	00100000 	andseq	r0, r0, r0
    1da8:	0007c342 	andeq	ip, r7, r2, asr #6
    1dac:	8f610100 	svchi	0x00610100
    1db0:	05000013 	streq	r0, [r0, #-19]
    1db4:	5136d003 	teqpl	r6, r3
    1db8:	00b42201 	adcseq	r2, r4, r1, lsl #4
    1dbc:	13bb0000 			; <UNDEFINED> instruction: 0x13bb0000
    1dc0:	00430000 	subeq	r0, r3, r0
    1dc4:	0001e144 	andeq	lr, r1, r4, asr #2
    1dc8:	c6120600 	ldrgt	r0, [r2], -r0, lsl #12
    1dcc:	45000013 	strmi	r0, [r0, #-19]
    1dd0:	000013b0 			; <UNDEFINED> instruction: 0x000013b0
    1dd4:	0000b422 	andeq	fp, r0, r2, lsr #8
    1dd8:	0013db00 	andseq	sp, r3, r0, lsl #22
    1ddc:	007f2300 	rsbseq	r2, pc, r0, lsl #6
    1de0:	000f0000 	andeq	r0, pc, r0
    1de4:	0006cf46 	andeq	ip, r6, r6, asr #30
    1de8:	01fb0100 	mvnseq	r0, r0, lsl #2
    1dec:	000013cb 	andeq	r1, r0, fp, asr #7
    1df0:	35800305 	strcc	r0, [r0, #773]	; 0x305
    1df4:	d6460151 			; <UNDEFINED> instruction: 0xd6460151
    1df8:	01000006 	tsteq	r0, r6
    1dfc:	13cb01fc 	bicne	r0, fp, #252, 2	; 0x3f
    1e00:	03050000 	movweq	r0, #20480	; 0x5000
    1e04:	01513570 	cmpeq	r1, r0, ror r5
    1e08:	0006dd46 	andeq	sp, r6, r6, asr #26
    1e0c:	01fd0100 	mvnseq	r0, r0, lsl #2
    1e10:	000013cb 	andeq	r1, r0, fp, asr #7
    1e14:	35900305 	ldrcc	r0, [r0, #773]	; 0x305
    1e18:	c70e0151 	smlsdgt	lr, r1, r1, r0
    1e1c:	01000002 	tsteq	r0, r2
    1e20:	00005984 	andeq	r5, r0, r4, lsl #19
    1e24:	00142200 	andseq	r2, r4, r0, lsl #4
    1e28:	0e000f00 	cdpeq	15, 0, cr0, cr0, cr0, {0}
    1e2c:	0000040c 	andeq	r0, r0, ip, lsl #8
    1e30:	0059aa01 	subseq	sl, r9, r1, lsl #20
    1e34:	14330000 	ldrtne	r0, [r3], #-0
    1e38:	000f0000 	andeq	r0, pc, r0
    1e3c:	00072c27 	andeq	r2, r7, r7, lsr #24
    1e40:	020b0100 	andeq	r0, fp, #0, 2
    1e44:	00000059 	andeq	r0, r0, r9, asr r0
    1e48:	00001445 	andeq	r1, r0, r5, asr #8
    1e4c:	1b27000f 	blne	9c1e90 <_back_addr-0xb3e170>
    1e50:	01000005 	tsteq	r0, r5
    1e54:	00590215 	subseq	r0, r9, r5, lsl r2
    1e58:	14570000 	ldrbne	r0, [r7], #-0
    1e5c:	000f0000 	andeq	r0, pc, r0
    1e60:	00075b47 	andeq	r5, r7, r7, asr #22
    1e64:	682f0700 	stmdavs	pc!, {r8, r9, sl}	; <UNPREDICTABLE>
    1e68:	48000014 	stmdami	r0, {r2, r4}
    1e6c:	00000025 	andeq	r0, r0, r5, lsr #32
    1e70:	03c72700 	biceq	r2, r7, #0, 14
    1e74:	e0010000 	and	r0, r1, r0
    1e78:	00005901 	andeq	r5, r0, r1, lsl #18
    1e7c:	00147a00 	andseq	r7, r4, r0, lsl #20
    1e80:	49000f00 	stmdbmi	r0, {r8, r9, sl, fp}
    1e84:	01003252 	tsteq	r0, r2, asr r2
    1e88:	005901e1 	subseq	r0, r9, r1, ror #3
    1e8c:	000f0000 	andeq	r0, pc, r0
    1e90:	00144300 	andseq	r4, r4, r0, lsl #6
    1e94:	c5000400 	strgt	r0, [r0, #-1024]	; 0x400
    1e98:	04000007 	streq	r0, [r0], #-7
    1e9c:	00006001 	andeq	r6, r0, r1
    1ea0:	086e0100 	stmdaeq	lr!, {r8}^
    1ea4:	04480000 	strbeq	r0, [r8], #-0
    1ea8:	0e100000 	cdpeq	0, 1, cr0, cr0, cr0, {0}
    1eac:	0c040150 	stfeqs	f0, [r4], {80}	; 0x50
    1eb0:	06d20000 	ldrbeq	r0, [r2], r0
    1eb4:	04020000 	streq	r0, [r2], #-0
    1eb8:	0001f007 	andeq	pc, r1, r7
    1ebc:	07040200 	streq	r0, [r4, -r0, lsl #4]
    1ec0:	00000036 	andeq	r0, r0, r6, lsr r0
    1ec4:	69050403 	stmdbvs	r5, {r0, r1, sl}
    1ec8:	0200746e 	andeq	r7, r0, #1845493760	; 0x6e000000
    1ecc:	001e0702 	andseq	r0, lr, r2, lsl #14
    1ed0:	04020000 	streq	r0, [r2], #-0
    1ed4:	00004d05 	andeq	r4, r0, r5, lsl #26
    1ed8:	0a570400 	beq	15c2ee0 <__bss_end__+0xaf3a0>
    1edc:	1f030000 	svcne	0x00030000
    1ee0:	00000053 	andeq	r0, r0, r3, asr r0
    1ee4:	3b070402 	blcc	1c2ef4 <_back_addr-0x133d10c>
    1ee8:	02000000 	andeq	r0, r0, #0
    1eec:	00190801 	andseq	r0, r9, r1, lsl #16
    1ef0:	08020000 	stmdaeq	r2, {}	; <UNPREDICTABLE>
    1ef4:	00004805 	andeq	r4, r0, r5, lsl #16
    1ef8:	06010200 	streq	r0, [r1], -r0, lsl #4
    1efc:	00000012 	andeq	r0, r0, r2, lsl r0
    1f00:	10080102 	andne	r0, r8, r2, lsl #2
    1f04:	02000000 	andeq	r0, r0, #0
    1f08:	00560502 	subseq	r0, r6, r2, lsl #10
    1f0c:	08020000 	stmdaeq	r2, {}	; <UNPREDICTABLE>
    1f10:	00003107 	andeq	r3, r0, r7, lsl #2
    1f14:	06e40400 	strbteq	r0, [r4], r0, lsl #8
    1f18:	5c040000 	stcpl	0, cr0, [r4], {-0}
    1f1c:	00000053 	andeq	r0, r0, r3, asr r0
    1f20:	04060405 	streq	r0, [r6], #-1029	; 0x405
    1f24:	00000097 	muleq	r0, r7, r0
    1f28:	00005a07 	andeq	r5, r0, r7, lsl #20
    1f2c:	005a0800 	subseq	r0, sl, r0, lsl #16
    1f30:	00ac0000 	adceq	r0, ip, r0
    1f34:	25090000 	strcs	r0, [r9, #-0]
    1f38:	0f000000 	svceq	0x00000000
    1f3c:	0a6f0a00 	beq	1bc4744 <__bss_end__+0x6b0c04>
    1f40:	07040000 	streq	r0, [r4, -r0]
    1f44:	00d201ee 	sbcseq	r0, r2, lr, ror #3
    1f48:	ca0b0000 	bgt	2c1f50 <_back_addr-0x123e0b0>
    1f4c:	00000009 	andeq	r0, r0, r9
    1f50:	00093a0b 	andeq	r3, r9, fp, lsl #20
    1f54:	b90b0100 	stmdblt	fp, {r8}
    1f58:	02000008 	andeq	r0, r0, #8
    1f5c:	00097d0b 	andeq	r7, r9, fp, lsl #26
    1f60:	0c000300 	stceq	3, cr0, [r0], {-0}
    1f64:	0000085f 	andeq	r0, r0, pc, asr r8
    1f68:	27500538 	smmlarcs	r0, r8, r5, r0
    1f6c:	0d000001 	stceq	0, cr0, [r0, #-4]
    1f70:	000008c9 	andeq	r0, r0, r9, asr #17
    1f74:	00535205 	subseq	r5, r3, r5, lsl #4
    1f78:	0e000000 	cdpeq	0, 0, cr0, cr0, cr0, {0}
    1f7c:	0079656b 	rsbseq	r6, r9, fp, ror #10
    1f80:	01275305 	teqeq	r7, r5, lsl #6
    1f84:	0d040000 	stceq	0, cr0, [r4, #-0]
    1f88:	000008fd 	strdeq	r0, [r0], -sp
    1f8c:	01375405 	teqeq	r7, r5, lsl #8
    1f90:	0d1c0000 	ldceq	0, cr0, [ip, #-0]
    1f94:	0000094a 	andeq	r0, r0, sl, asr #18
    1f98:	00535505 	subseq	r5, r3, r5, lsl #10
    1f9c:	0d2c0000 	stceq	0, cr0, [ip, #-0]
    1fa0:	000008ce 	andeq	r0, r0, lr, asr #17
    1fa4:	00535605 	subseq	r5, r3, r5, lsl #12
    1fa8:	0d300000 	ldceq	0, cr0, [r0, #-0]
    1fac:	0000099a 	muleq	r0, sl, r9
    1fb0:	00535705 	subseq	r5, r3, r5, lsl #14
    1fb4:	00340000 	eorseq	r0, r4, r0
    1fb8:	00005308 	andeq	r5, r0, r8, lsl #6
    1fbc:	00013700 	andeq	r3, r1, r0, lsl #14
    1fc0:	00250900 	eoreq	r0, r5, r0, lsl #18
    1fc4:	00050000 	andeq	r0, r5, r0
    1fc8:	00005308 	andeq	r5, r0, r8, lsl #6
    1fcc:	00014700 	andeq	r4, r1, r0, lsl #14
    1fd0:	00250900 	eoreq	r0, r5, r0, lsl #18
    1fd4:	00030000 	andeq	r0, r3, r0
    1fd8:	0008ec04 	andeq	lr, r8, r4, lsl #24
    1fdc:	d2580500 	subsle	r0, r8, #0, 10
    1fe0:	0f000000 	svceq	0x00000000
    1fe4:	0000073c 	andeq	r0, r0, ip, lsr r7
    1fe8:	00534402 	subseq	r4, r3, r2, lsl #8
    1fec:	6e030000 	cdpvs	0, 0, cr0, cr3, cr0, {0}
    1ff0:	10000001 	andne	r0, r0, r1
    1ff4:	000009e4 	andeq	r0, r0, r4, ror #19
    1ff8:	00534402 	subseq	r4, r3, r2, lsl #8
    1ffc:	11000000 	mrsne	r0, (UNDEF: 0)
    2000:	000004a9 	andeq	r0, r0, r9, lsr #9
    2004:	91035f02 	tstls	r3, r2, lsl #30
    2008:	10000001 	andne	r0, r0, r1
    200c:	000009e4 	andeq	r0, r0, r4, ror #19
    2010:	00535f02 	subseq	r5, r3, r2, lsl #30
    2014:	76120000 	ldrvc	r0, [r2], -r0
    2018:	02006c61 	andeq	r6, r0, #24832	; 0x6100
    201c:	0000535f 	andeq	r5, r0, pc, asr r3
    2020:	6b130000 	blvs	4c2028 <_back_addr-0x103dfd8>
    2024:	01000009 	tsteq	r0, r9
    2028:	00330210 	eorseq	r0, r3, r0, lsl r2
    202c:	d5010000 	strle	r0, [r1, #-0]
    2030:	14000001 	strne	r0, [r0], #-1
    2034:	00000a39 	andeq	r0, r0, r9, lsr sl
    2038:	d5021001 	strle	r1, [r2, #-1]
    203c:	15000001 	strne	r0, [r0, #-1]
    2040:	00736572 	rsbseq	r6, r3, r2, ror r5
    2044:	33021501 	movwcc	r1, #9473	; 0x2501
    2048:	16000000 	strne	r0, [r0], -r0
    204c:	00000cb4 			; <UNDEFINED> instruction: 0x00000cb4
    2050:	33021601 	movwcc	r1, #9729	; 0x2601
    2054:	17000000 	strne	r0, [r0, -r0]
    2058:	000003c7 	andeq	r0, r0, r7, asr #7
    205c:	33015a01 	movwcc	r5, #6657	; 0x1a01
    2060:	18000000 	stmdane	r0, {}	; <UNPREDICTABLE>
    2064:	04060000 	streq	r0, [r6], #-0
    2068:	00000147 	andeq	r0, r0, r7, asr #2
    206c:	00092e19 	andeq	r2, r9, r9, lsl lr
    2070:	33470100 	movtcc	r0, #28928	; 0x7100
    2074:	01000000 	mrseq	r0, (UNDEF: 0)
    2078:	00000202 	andeq	r0, r0, r2, lsl #4
    207c:	0008a710 	andeq	sl, r8, r0, lsl r7
    2080:	53470100 	movtpl	r0, #28928	; 0x7100
    2084:	1a000000 	bne	208c <_back_addr-0x14fdf74>
    2088:	00000a50 	andeq	r0, r0, r0, asr sl
    208c:	00534901 	subseq	r4, r3, r1, lsl #18
    2090:	1b000000 	blne	2098 <_back_addr-0x14fdf68>
    2094:	00000859 	andeq	r0, r0, r9, asr r8
    2098:	d502ae01 	strle	sl, [r2, #-3585]	; 0xe01
    209c:	10000001 	andne	r0, r0, r1
    20a0:	7001500e 	andvc	r5, r1, lr
    20a4:	01000000 	mrseq	r0, (UNDEF: 0)
    20a8:	0002679c 	muleq	r2, ip, r7
    20ac:	0bb11c00 	bleq	fec490b4 <__bss_end__+0xfd735574>
    20b0:	b1010000 	mrslt	r0, (UNDEF: 1)
    20b4:	0001d502 	andeq	sp, r1, r2, lsl #10
    20b8:	1d550100 	ldfnee	f0, [r5, #-0]
    20bc:	01500e58 	cmpeq	r0, r8, asr lr
    20c0:	00001391 	muleq	r0, r1, r3
    20c4:	0000024b 	andeq	r0, r0, fp, asr #4
    20c8:	0350011e 	cmpeq	r0, #-2147483641	; 0x80000007
    20cc:	1e244444 	cdpne	4, 2, cr4, cr4, cr4, {2}
    20d0:	30015101 	andcc	r5, r1, r1, lsl #2
    20d4:	0352011e 	cmpeq	r2, #-2147483641	; 0x80000007
    20d8:	0008000a 	andeq	r0, r8, sl
    20dc:	500e6c1f 	andpl	r6, lr, pc, lsl ip
    20e0:	00139101 	andseq	r9, r3, r1, lsl #2
    20e4:	50011e00 	andpl	r1, r1, r0, lsl #28
    20e8:	1e007502 	cfsh32ne	mvfx7, mvfx0, #2
    20ec:	30015101 	andcc	r5, r1, r1, lsl #2
    20f0:	0252011e 	subseq	r0, r2, #-2147483641	; 0x80000007
    20f4:	00003808 	andeq	r3, r0, r8, lsl #16
    20f8:	000a7e1b 	andeq	r7, sl, fp, lsl lr
    20fc:	02de0100 	sbcseq	r0, lr, #0, 2
    2100:	00000033 	andeq	r0, r0, r3, lsr r0
    2104:	01500e80 	cmpeq	r0, r0, lsl #29
    2108:	00000034 	andeq	r0, r0, r4, lsr r0
    210c:	02f69c01 	rscseq	r9, r6, #256	; 0x100
    2110:	69200000 	stmdbvs	r0!, {}	; <UNPREDICTABLE>
    2114:	02e00100 	rsceq	r0, r0, #0, 2
    2118:	00000053 	andeq	r0, r0, r3, asr r0
    211c:	00001210 	andeq	r1, r0, r0, lsl r2
    2120:	00016e21 	andeq	r6, r1, r1, lsr #28
    2124:	500e8000 	andpl	r8, lr, r0
    2128:	00012001 	andeq	r2, r1, r1
    212c:	02e20100 	rsceq	r0, r2, #0, 2
    2130:	000002ca 	andeq	r0, r0, sl, asr #5
    2134:	00018522 	andeq	r8, r1, r2, lsr #10
    2138:	7a230100 	bvc	8c2540 <_back_addr-0xc3dac0>
    213c:	9c000001 	stcls	0, cr0, [r0], {1}
    2140:	79c085a3 	stmibvc	r0, {r0, r1, r5, r7, r8, sl, pc}^
    2144:	00012024 	andeq	r2, r1, r4, lsr #32
    2148:	01852200 	orreq	r2, r5, r0, lsl #4
    214c:	23010000 	movwcs	r0, #4096	; 0x1000
    2150:	0000017a 	andeq	r0, r0, sl, ror r1
    2154:	c085a39c 	umullgt	sl, r5, ip, r3
    2158:	25000079 	strcs	r0, [r0, #-121]	; 0x79
    215c:	00000152 	andeq	r0, r0, r2, asr r1
    2160:	01500e8c 	cmpeq	r0, ip, lsl #29
    2164:	00000138 	andeq	r0, r0, r8, lsr r1
    2168:	2302e401 	movwcs	lr, #9217	; 0x2401
    216c:	00000162 	andeq	r0, r0, r2, ror #2
    2170:	c085a39c 	umullgt	sl, r5, ip, r3
    2174:	01382479 	teqeq	r8, r9, ror r4
    2178:	62230000 	eorvs	r0, r3, #0
    217c:	9c000001 	stcls	0, cr0, [r0], {1}
    2180:	79c085a3 	stmibvc	r0, {r0, r1, r5, r7, r8, sl, pc}^
    2184:	26000000 	strcs	r0, [r0], -r0
    2188:	00000191 	muleq	r0, r1, r1
    218c:	01500eb4 	ldrheq	r0, [r0, #-228]	; 0xffffff1c
    2190:	00000108 	andeq	r0, r0, r8, lsl #2
    2194:	07419c01 	strbeq	r9, [r1, -r1, lsl #24]
    2198:	a2270000 	eorge	r0, r7, #0
    219c:	3c000001 	stccc	0, cr0, [r0], {1}
    21a0:	28000012 	stmdacs	r0, {r1, r4}
    21a4:	000001ae 	andeq	r0, r0, lr, lsr #3
    21a8:	0001ba29 	andeq	fp, r1, r9, lsr #20
    21ac:	00127300 	andseq	r7, r2, r0, lsl #6
    21b0:	01c62a00 	biceq	r2, r6, r0, lsl #20
    21b4:	2d000000 	stccs	0, cr0, [r0, #-0]
    21b8:	18000003 	stmdane	r0, {r0, r1}
    21bc:	6e210018 	mcrvs	0, 1, r0, cr1, cr8, {0}
    21c0:	c0000001 	andgt	r0, r0, r1
    21c4:	5001500e 	andpl	r5, r1, lr
    21c8:	01000001 	tsteq	r0, r1
    21cc:	036c021e 	cmneq	ip, #-536870911	; 0xe0000001
    21d0:	85270000 	strhi	r0, [r7, #-0]!
    21d4:	87000001 	strhi	r0, [r0, -r1]
    21d8:	27000012 	smladcs	r0, r2, r0, r0
    21dc:	0000017a 	andeq	r0, r0, sl, ror r1
    21e0:	0000129b 	muleq	r0, fp, r2
    21e4:	00015024 	andeq	r5, r1, r4, lsr #32
    21e8:	01852700 	orreq	r2, r5, r0, lsl #14
    21ec:	12870000 	addne	r0, r7, #0
    21f0:	7a270000 	bvc	9c21f8 <_back_addr-0xb3de08>
    21f4:	9b000001 	blls	2200 <_back_addr-0x14fde00>
    21f8:	00000012 	andeq	r0, r0, r2, lsl r0
    21fc:	016e2100 	cmneq	lr, r0, lsl #2
    2200:	0ec80000 	cdpeq	0, 12, cr0, cr8, cr0, {0}
    2204:	01700150 	cmneq	r0, r0, asr r1
    2208:	22010000 	andcs	r0, r1, #0
    220c:	0003ab02 	andeq	sl, r3, r2, lsl #22
    2210:	01852700 	orreq	r2, r5, r0, lsl #14
    2214:	12b30000 	adcsne	r0, r3, #0
    2218:	7a270000 	bvc	9c2220 <_back_addr-0xb3dde0>
    221c:	c7000001 	strgt	r0, [r0, -r1]
    2220:	24000012 	strcs	r0, [r0], #-18
    2224:	00000170 	andeq	r0, r0, r0, ror r1
    2228:	00018527 	andeq	r8, r1, r7, lsr #10
    222c:	0012b300 	andseq	fp, r2, r0, lsl #6
    2230:	017a2700 	cmneq	sl, r0, lsl #14
    2234:	12c70000 	sbcne	r0, r7, #0
    2238:	00000000 	andeq	r0, r0, r0
    223c:	00016e21 	andeq	r6, r1, r1, lsr #28
    2240:	500ed400 	andpl	sp, lr, r0, lsl #8
    2244:	00018801 	andeq	r8, r1, r1, lsl #16
    2248:	021f0100 	andseq	r0, pc, #0, 2
    224c:	000003ea 	andeq	r0, r0, sl, ror #7
    2250:	00018527 	andeq	r8, r1, r7, lsr #10
    2254:	0012df00 	andseq	sp, r2, r0, lsl #30
    2258:	017a2700 	cmneq	sl, r0, lsl #14
    225c:	12f40000 	rscsne	r0, r4, #0
    2260:	88240000 	stmdahi	r4!, {}	; <UNPREDICTABLE>
    2264:	27000001 	strcs	r0, [r0, -r1]
    2268:	00000185 	andeq	r0, r0, r5, lsl #3
    226c:	000012df 	ldrdeq	r1, [r0], -pc	; <UNPREDICTABLE>
    2270:	00017a27 	andeq	r7, r1, r7, lsr #20
    2274:	0012f400 	andseq	pc, r2, r0, lsl #8
    2278:	2b000000 	blcs	2280 <_back_addr-0x14fdd80>
    227c:	0000016e 	andeq	r0, r0, lr, ror #2
    2280:	01500eec 	cmpeq	r0, ip, ror #29
    2284:	00000004 	andeq	r0, r0, r4
    2288:	2d022501 	cfstr32cs	mvfx2, [r2, #-4]
    228c:	27000004 	strcs	r0, [r0, -r4]
    2290:	00000185 	andeq	r0, r0, r5, lsl #3
    2294:	0000130c 	andeq	r1, r0, ip, lsl #6
    2298:	00017a27 	andeq	r7, r1, r7, lsr #20
    229c:	00132d00 	andseq	r2, r3, r0, lsl #26
    22a0:	0eec2c00 	cdpeq	12, 14, cr2, cr12, cr0, {0}
    22a4:	00040150 	andeq	r0, r4, r0, asr r1
    22a8:	85270000 	strhi	r0, [r7, #-0]!
    22ac:	0c000001 	stceq	0, cr0, [r0], {1}
    22b0:	27000013 	smladcs	r0, r3, r0, r0
    22b4:	0000017a 	andeq	r0, r0, sl, ror r1
    22b8:	0000132d 	andeq	r1, r0, sp, lsr #6
    22bc:	6e2b0000 	cdpvs	0, 2, cr0, cr11, cr0, {0}
    22c0:	f0000001 			; <UNDEFINED> instruction: 0xf0000001
    22c4:	0401500e 	streq	r5, [r1], #-14
    22c8:	01000000 	mrseq	r0, (UNDEF: 0)
    22cc:	04700226 	ldrbteq	r0, [r0], #-550	; 0x226
    22d0:	85270000 	strhi	r0, [r7, #-0]!
    22d4:	45000001 	strmi	r0, [r0, #-1]
    22d8:	27000013 	smladcs	r0, r3, r0, r0
    22dc:	0000017a 	andeq	r0, r0, sl, ror r1
    22e0:	00001368 	andeq	r1, r0, r8, ror #6
    22e4:	500ef02c 	andpl	pc, lr, ip, lsr #32
    22e8:	00000401 	andeq	r0, r0, r1, lsl #8
    22ec:	01852700 	orreq	r2, r5, r0, lsl #14
    22f0:	13450000 	movtne	r0, #20480	; 0x5000
    22f4:	7a270000 	bvc	9c22fc <_back_addr-0xb3dd04>
    22f8:	68000001 	stmdavs	r0, {r0}
    22fc:	00000013 	andeq	r0, r0, r3, lsl r0
    2300:	016e2b00 	cmneq	lr, r0, lsl #22
    2304:	0ef40000 	cdpeq	0, 15, cr0, cr4, cr0, {0}
    2308:	00040150 	andeq	r0, r4, r0, asr r1
    230c:	27010000 	strcs	r0, [r1, -r0]
    2310:	0004b302 	andeq	fp, r4, r2, lsl #6
    2314:	01852700 	orreq	r2, r5, r0, lsl #14
    2318:	13800000 	orrne	r0, r0, #0
    231c:	7a270000 	bvc	9c2324 <_back_addr-0xb3dcdc>
    2320:	a1000001 	tstge	r0, r1
    2324:	2c000013 	stccs	0, cr0, [r0], {19}
    2328:	01500ef4 	ldrsheq	r0, [r0, #-228]	; 0xffffff1c
    232c:	00000004 	andeq	r0, r0, r4
    2330:	00018527 	andeq	r8, r1, r7, lsr #10
    2334:	00138000 	andseq	r8, r3, r0
    2338:	017a2700 	cmneq	sl, r0, lsl #14
    233c:	13a10000 			; <UNDEFINED> instruction: 0x13a10000
    2340:	00000000 	andeq	r0, r0, r0
    2344:	00016e2b 	andeq	r6, r1, fp, lsr #28
    2348:	500ef800 	andpl	pc, lr, r0, lsl #16
    234c:	00000401 	andeq	r0, r0, r1, lsl #8
    2350:	02280100 	eoreq	r0, r8, #0, 2
    2354:	000004f6 	strdeq	r0, [r0], -r6
    2358:	00018527 	andeq	r8, r1, r7, lsr #10
    235c:	0013b900 	andseq	fp, r3, r0, lsl #18
    2360:	017a2700 	cmneq	sl, r0, lsl #14
    2364:	13dc0000 	bicsne	r0, ip, #0
    2368:	f82c0000 			; <UNDEFINED> instruction: 0xf82c0000
    236c:	0401500e 	streq	r5, [r1], #-14
    2370:	27000000 	strcs	r0, [r0, -r0]
    2374:	00000185 	andeq	r0, r0, r5, lsl #3
    2378:	000013b9 			; <UNDEFINED> instruction: 0x000013b9
    237c:	00017a27 	andeq	r7, r1, r7, lsr #20
    2380:	0013dc00 	andseq	sp, r3, r0, lsl #24
    2384:	2b000000 	blcs	238c <_back_addr-0x14fdc74>
    2388:	0000016e 	andeq	r0, r0, lr, ror #2
    238c:	01500f08 	cmpeq	r0, r8, lsl #30
    2390:	00000008 	andeq	r0, r0, r8
    2394:	39027d01 	stmdbcc	r2, {r0, r8, sl, fp, ip, sp, lr}
    2398:	27000005 	strcs	r0, [r0, -r5]
    239c:	00000185 	andeq	r0, r0, r5, lsl #3
    23a0:	000013f4 	strdeq	r1, [r0], -r4
    23a4:	00017a27 	andeq	r7, r1, r7, lsr #20
    23a8:	00140800 	andseq	r0, r4, r0, lsl #16
    23ac:	0f082c00 	svceq	0x00082c00
    23b0:	00080150 	andeq	r0, r8, r0, asr r1
    23b4:	85270000 	strhi	r0, [r7, #-0]!
    23b8:	f4000001 	vst4.8	{d0-d3}, [r0], r1
    23bc:	27000013 	smladcs	r0, r3, r0, r0
    23c0:	0000017a 	andeq	r0, r0, sl, ror r1
    23c4:	00001408 	andeq	r1, r0, r8, lsl #8
    23c8:	142d0000 	strtne	r0, [sp], #-0
    23cc:	a001500f 	andge	r5, r1, pc
    23d0:	13000000 	movwne	r0, #0
    23d4:	27000007 	strcs	r0, [r0, -r7]
    23d8:	000001a2 	andeq	r0, r0, r2, lsr #3
    23dc:	00001420 	andeq	r1, r0, r0, lsr #8
    23e0:	500f142c 	andpl	r1, pc, ip, lsr #8
    23e4:	0000a001 	andeq	sl, r0, r1
    23e8:	01ae2900 			; <UNDEFINED> instruction: 0x01ae2900
    23ec:	14360000 	ldrtne	r0, [r6], #-0
    23f0:	ba290000 	blt	a423f8 <_back_addr-0xabdc08>
    23f4:	49000001 	stmdbmi	r0, {r0}
    23f8:	21000014 	tstcs	r0, r4, lsl r0
    23fc:	00000152 	andeq	r0, r0, r2, asr r1
    2400:	01500f14 	cmpeq	r0, r4, lsl pc
    2404:	000001a0 	andeq	r0, r0, r0, lsr #3
    2408:	97028001 	strls	r8, [r2, -r1]
    240c:	27000005 	strcs	r0, [r0, -r5]
    2410:	00000162 	andeq	r0, r0, r2, ror #2
    2414:	000014a5 	andeq	r1, r0, r5, lsr #9
    2418:	0001a024 	andeq	sl, r1, r4, lsr #32
    241c:	01622700 	cmneq	r2, r0, lsl #14
    2420:	14a50000 	strtne	r0, [r5], #0
    2424:	00000000 	andeq	r0, r0, r0
    2428:	0001522b 	andeq	r5, r1, fp, lsr #4
    242c:	500f5400 	andpl	r5, pc, r0, lsl #8
    2430:	00000c01 	andeq	r0, r0, r1, lsl #24
    2434:	029e0100 	addseq	r0, lr, #0, 2
    2438:	000005c8 	andeq	r0, r0, r8, asr #11
    243c:	00016227 	andeq	r6, r1, r7, lsr #4
    2440:	0014bd00 	andseq	fp, r4, r0, lsl #26
    2444:	0f542c00 	svceq	0x00542c00
    2448:	000c0150 	andeq	r0, ip, r0, asr r1
    244c:	62270000 	eorvs	r0, r7, #0
    2450:	bd000001 	stclt	0, cr0, [r0, #-4]
    2454:	00000014 	andeq	r0, r0, r4, lsl r0
    2458:	016e2100 	cmneq	lr, r0, lsl #2
    245c:	0f6c0000 	svceq	0x006c0000
    2460:	01b80150 			; <UNDEFINED> instruction: 0x01b80150
    2464:	a6010000 	strge	r0, [r1], -r0
    2468:	00060702 	andeq	r0, r6, r2, lsl #14
    246c:	01852700 	orreq	r2, r5, r0, lsl #14
    2470:	14d50000 	ldrbne	r0, [r5], #0
    2474:	7a270000 	bvc	9c247c <_back_addr-0xb3db84>
    2478:	e9000001 	stmdb	r0, {r0}
    247c:	24000014 	strcs	r0, [r0], #-20
    2480:	000001b8 			; <UNDEFINED> instruction: 0x000001b8
    2484:	00018527 	andeq	r8, r1, r7, lsr #10
    2488:	0014d500 	andseq	sp, r4, r0, lsl #10
    248c:	017a2700 	cmneq	sl, r0, lsl #14
    2490:	14e90000 	strbtne	r0, [r9], #0
    2494:	00000000 	andeq	r0, r0, r0
    2498:	00016e21 	andeq	r6, r1, r1, lsr #28
    249c:	500f7800 	andpl	r7, pc, r0, lsl #16
    24a0:	0001d001 	andeq	sp, r1, r1
    24a4:	02a70100 	adceq	r0, r7, #0, 2
    24a8:	00000646 	andeq	r0, r0, r6, asr #12
    24ac:	00018527 	andeq	r8, r1, r7, lsr #10
    24b0:	00150100 	andseq	r0, r5, r0, lsl #2
    24b4:	017a2700 	cmneq	sl, r0, lsl #14
    24b8:	15150000 	ldrne	r0, [r5, #-0]
    24bc:	d0240000 	eorle	r0, r4, r0
    24c0:	27000001 	strcs	r0, [r0, -r1]
    24c4:	00000185 	andeq	r0, r0, r5, lsl #3
    24c8:	00001501 	andeq	r1, r0, r1, lsl #10
    24cc:	00017a27 	andeq	r7, r1, r7, lsr #20
    24d0:	00151500 	andseq	r1, r5, r0, lsl #10
    24d4:	2b000000 	blcs	24dc <_back_addr-0x14fdb24>
    24d8:	00000152 	andeq	r0, r0, r2, asr r1
    24dc:	01500f88 	cmpeq	r0, r8, lsl #31
    24e0:	00000004 	andeq	r0, r0, r4
    24e4:	7702a001 	strvc	sl, [r2, -r1]
    24e8:	27000006 	strcs	r0, [r0, -r6]
    24ec:	00000162 	andeq	r0, r0, r2, ror #2
    24f0:	0000152d 	andeq	r1, r0, sp, lsr #10
    24f4:	500f882c 	andpl	r8, pc, ip, lsr #16
    24f8:	00000401 	andeq	r0, r0, r1, lsl #8
    24fc:	01622700 	cmneq	r2, r0, lsl #14
    2500:	152d0000 	strne	r0, [sp, #-0]!
    2504:	00000000 	andeq	r0, r0, r0
    2508:	00016e21 	andeq	r6, r1, r1, lsr #28
    250c:	500f9c00 	andpl	r9, pc, r0, lsl #24
    2510:	0001e801 	andeq	lr, r1, r1, lsl #16
    2514:	028c0100 	addeq	r0, ip, #0, 2
    2518:	000006b6 			; <UNDEFINED> instruction: 0x000006b6
    251c:	00018527 	andeq	r8, r1, r7, lsr #10
    2520:	00154500 	andseq	r4, r5, r0, lsl #10
    2524:	017a2700 	cmneq	sl, r0, lsl #14
    2528:	15590000 	ldrbne	r0, [r9, #-0]
    252c:	e8240000 	stmda	r4!, {}	; <UNPREDICTABLE>
    2530:	27000001 	strcs	r0, [r0, -r1]
    2534:	00000185 	andeq	r0, r0, r5, lsl #3
    2538:	00001545 	andeq	r1, r0, r5, asr #10
    253c:	00017a27 	andeq	r7, r1, r7, lsr #20
    2540:	00155900 	andseq	r5, r5, r0, lsl #18
    2544:	21000000 	mrscs	r0, (UNDEF: 0)
    2548:	0000016e 	andeq	r0, r0, lr, ror #2
    254c:	01500fa0 	cmpeq	r0, r0, lsr #31
    2550:	00000200 	andeq	r0, r0, r0, lsl #4
    2554:	f5028d01 			; <UNDEFINED> instruction: 0xf5028d01
    2558:	27000006 	strcs	r0, [r0, -r6]
    255c:	00000185 	andeq	r0, r0, r5, lsl #3
    2560:	00001571 	andeq	r1, r0, r1, ror r5
    2564:	00017a27 	andeq	r7, r1, r7, lsr #20
    2568:	00158500 	andseq	r8, r5, r0, lsl #10
    256c:	02002400 	andeq	r2, r0, #0, 8
    2570:	85270000 	strhi	r0, [r7, #-0]!
    2574:	71000001 	tstvc	r0, r1
    2578:	27000015 	smladcs	r0, r5, r0, r0
    257c:	0000017a 	andeq	r0, r0, sl, ror r1
    2580:	00001585 	andeq	r1, r0, r5, lsl #11
    2584:	3c1d0000 	ldccc	0, cr0, [sp], {-0}
    2588:	b001500f 	andlt	r5, r1, pc
    258c:	08000013 	stmdaeq	r0, {r0, r1, r4}
    2590:	1e000007 	cdpne	0, 0, cr0, cr0, cr7, {0}
    2594:	31015001 	tstcc	r1, r1
    2598:	0f402e00 	svceq	0x00402e00
    259c:	13c20150 	bicne	r0, r2, #80, 2
    25a0:	00000000 	andeq	r0, r0, r0
    25a4:	500f001d 	andpl	r0, pc, sp, lsl r0	; <UNPREDICTABLE>
    25a8:	0013d401 	andseq	sp, r3, r1, lsl #8
    25ac:	00072e00 	andeq	r2, r7, r0, lsl #28
    25b0:	50011e00 	andpl	r1, r1, r0, lsl #28
    25b4:	5001f303 	andpl	pc, r1, r3, lsl #6
    25b8:	0251011e 	subseq	r0, r1, #-2147483641	; 0x80000007
    25bc:	2e003808 	cdpcs	8, 0, cr3, cr0, cr8, {0}
    25c0:	01500f04 	cmpeq	r0, r4, lsl #30
    25c4:	000013c2 	andeq	r1, r0, r2, asr #7
    25c8:	500f142e 	andpl	r1, pc, lr, lsr #8
    25cc:	0013c201 	andseq	ip, r3, r1, lsl #4
    25d0:	db260000 	blle	9825d8 <_back_addr-0xb7da28>
    25d4:	bc000001 	stclt	0, cr0, [r0], {1}
    25d8:	0801500f 	stmdaeq	r1, {r0, r1, r2, r3, ip, lr}
    25dc:	01000000 	mrseq	r0, (UNDEF: 0)
    25e0:	0007679c 	muleq	r7, ip, r7
    25e4:	01eb2700 	mvneq	r2, r0, lsl #14
    25e8:	159d0000 	ldrne	r0, [sp]
    25ec:	f6290000 			; <UNDEFINED> instruction: 0xf6290000
    25f0:	be000001 	cdplt	0, 0, cr0, cr0, cr1, {0}
    25f4:	00000015 	andeq	r0, r0, r5, lsl r0
    25f8:	000a0b2f 	andeq	r0, sl, pc, lsr #22
    25fc:	33520100 	cmpcc	r2, #0, 2
    2600:	c4000000 	strgt	r0, [r0], #-0
    2604:	7001500f 	andvc	r5, r1, pc
    2608:	01000002 	tsteq	r0, r2
    260c:	000a539c 	muleq	sl, ip, r3
    2610:	09e43000 	stmibeq	r4!, {ip, sp}^
    2614:	52010000 	andpl	r0, r1, #0
    2618:	00000053 	andeq	r0, r0, r3, asr r0
    261c:	00001618 	andeq	r1, r0, r8, lsl r6
    2620:	00096031 	andeq	r6, r9, r1, lsr r0
    2624:	37540100 	ldrbcc	r0, [r4, -r0, lsl #2]
    2628:	02000001 	andeq	r0, r0, #1
    262c:	69326091 	ldmdbvs	r2!, {r0, r4, r7, sp, lr}
    2630:	53540100 	cmppl	r4, #0, 2
    2634:	63000000 	movwvs	r0, #0
    2638:	33000016 	movwcc	r0, #22
    263c:	00000152 	andeq	r0, r0, r2, asr r1
    2640:	01500fcc 	cmpeq	r0, ip, asr #31
    2644:	00000218 	andeq	r0, r0, r8, lsl r2
    2648:	07d65701 	ldrbeq	r5, [r6, r1, lsl #14]
    264c:	62270000 	eorvs	r0, r7, #0
    2650:	77000001 	strvc	r0, [r0, -r1]
    2654:	24000016 	strcs	r0, [r0], #-22
    2658:	00000238 	andeq	r0, r0, r8, lsr r2
    265c:	00016227 	andeq	r6, r1, r7, lsr #4
    2660:	0016b200 	andseq	fp, r6, r0, lsl #4
    2664:	33000000 	movwcc	r0, #0
    2668:	00000152 	andeq	r0, r0, r2, asr r1
    266c:	01501008 	cmpeq	r0, r8
    2670:	00000250 	andeq	r0, r0, r0, asr r2
    2674:	08025801 	stmdaeq	r2, {r0, fp, ip, lr}
    2678:	62270000 	eorvs	r0, r7, #0
    267c:	cb000001 	blgt	2688 <_back_addr-0x14fd978>
    2680:	24000016 	strcs	r0, [r0], #-22
    2684:	00000268 	andeq	r0, r0, r8, ror #4
    2688:	00016234 	andeq	r6, r1, r4, lsr r2
    268c:	1c700300 	ldclne	3, cr0, [r0], #-0
    2690:	3300009f 	movwcc	r0, #159	; 0x9f
    2694:	0000016e 	andeq	r0, r0, lr, ror #2
    2698:	0150101c 	cmpeq	r0, ip, lsl r0
    269c:	00000280 	andeq	r0, r0, r0, lsl #5
    26a0:	08385801 	ldmdaeq	r8!, {r0, fp, ip, lr}
    26a4:	85350000 	ldrhi	r0, [r5, #-0]!
    26a8:	27000001 	strcs	r0, [r0, -r1]
    26ac:	0000017a 	andeq	r0, r0, sl, ror r1
    26b0:	0000171c 	andeq	r1, r0, ip, lsl r7
    26b4:	00029824 	andeq	r9, r2, r4, lsr #16
    26b8:	01853500 	orreq	r3, r5, r0, lsl #10
    26bc:	7a270000 	bvc	9c26c4 <_back_addr-0xb3d93c>
    26c0:	67000001 	strvs	r0, [r0, -r1]
    26c4:	00000017 	andeq	r0, r0, r7, lsl r0
    26c8:	01523300 	cmpeq	r2, r0, lsl #6
    26cc:	102c0000 	eorne	r0, ip, r0
    26d0:	02b00150 	adcseq	r0, r0, #80, 2
    26d4:	59010000 	stmdbpl	r1, {}	; <UNPREDICTABLE>
    26d8:	00000864 	andeq	r0, r0, r4, ror #16
    26dc:	00016227 	andeq	r6, r1, r7, lsr #4
    26e0:	00177a00 	andseq	r7, r7, r0, lsl #20
    26e4:	02c82400 	sbceq	r2, r8, #0, 8
    26e8:	62270000 	eorvs	r0, r7, #0
    26ec:	cb000001 	blgt	26f8 <_back_addr-0x14fd908>
    26f0:	00000017 	andeq	r0, r0, r7, lsl r0
    26f4:	016e3300 	cmneq	lr, r0, lsl #6
    26f8:	103c0000 	eorsne	r0, ip, r0
    26fc:	02e00150 	rsceq	r0, r0, #80, 2
    2700:	59010000 	stmdbpl	r1, {}	; <UNPREDICTABLE>
    2704:	0000089a 	muleq	r0, sl, r8
    2708:	00018535 	andeq	r8, r1, r5, lsr r5
    270c:	017a2700 	cmneq	sl, r0, lsl #14
    2710:	17e00000 	strbne	r0, [r0, r0]!
    2714:	f8240000 			; <UNDEFINED> instruction: 0xf8240000
    2718:	35000002 	strcc	r0, [r0, #-2]
    271c:	00000185 	andeq	r0, r0, r5, lsl #3
    2720:	00017a27 	andeq	r7, r1, r7, lsr #20
    2724:	00183100 	andseq	r3, r8, r0, lsl #2
    2728:	33000000 	movwcc	r0, #0
    272c:	00000152 	andeq	r0, r0, r2, asr r1
    2730:	01501054 	cmpeq	r0, r4, asr r0
    2734:	00000310 	andeq	r0, r0, r0, lsl r3
    2738:	08c65a01 	stmiaeq	r6, {r0, r9, fp, ip, lr}^
    273c:	62270000 	eorvs	r0, r7, #0
    2740:	46000001 	strmi	r0, [r0], -r1
    2744:	24000018 	strcs	r0, [r0], #-24
    2748:	00000328 	andeq	r0, r0, r8, lsr #6
    274c:	00016227 	andeq	r6, r1, r7, lsr #4
    2750:	00189700 	andseq	r9, r8, r0, lsl #14
    2754:	33000000 	movwcc	r0, #0
    2758:	0000016e 	andeq	r0, r0, lr, ror #2
    275c:	01501064 	cmpeq	r0, r4, rrx
    2760:	00000340 	andeq	r0, r0, r0, asr #6
    2764:	08fc5a01 	ldmeq	ip!, {r0, r9, fp, ip, lr}^
    2768:	85350000 	ldrhi	r0, [r5, #-0]!
    276c:	27000001 	strcs	r0, [r0, -r1]
    2770:	0000017a 	andeq	r0, r0, sl, ror r1
    2774:	000018ac 	andeq	r1, r0, ip, lsr #17
    2778:	00035824 	andeq	r5, r3, r4, lsr #16
    277c:	01853500 	orreq	r3, r5, r0, lsl #10
    2780:	7a270000 	bvc	9c2788 <_back_addr-0xb3d878>
    2784:	fd000001 	stc2	0, cr0, [r0, #-4]
    2788:	00000018 	andeq	r0, r0, r8, lsl r0
    278c:	01523300 	cmpeq	r2, r0, lsl #6
    2790:	107c0000 	rsbsne	r0, ip, r0
    2794:	03700150 	cmneq	r0, #80, 2
    2798:	5b010000 	blpl	427a0 <_back_addr-0x14bd860>
    279c:	00000928 	andeq	r0, r0, r8, lsr #18
    27a0:	00016227 	andeq	r6, r1, r7, lsr #4
    27a4:	00191200 	andseq	r1, r9, r0, lsl #4
    27a8:	03882400 	orreq	r2, r8, #0, 8
    27ac:	62270000 	eorvs	r0, r7, #0
    27b0:	63000001 	movwvs	r0, #1
    27b4:	00000019 	andeq	r0, r0, r9, lsl r0
    27b8:	016e3300 	cmneq	lr, r0, lsl #6
    27bc:	108c0000 	addne	r0, ip, r0
    27c0:	03a00150 	moveq	r0, #80, 2
    27c4:	5b010000 	blpl	427cc <_back_addr-0x14bd834>
    27c8:	0000095e 	andeq	r0, r0, lr, asr r9
    27cc:	00018535 	andeq	r8, r1, r5, lsr r5
    27d0:	017a2700 	cmneq	sl, r0, lsl #14
    27d4:	19780000 	ldmdbne	r8!, {}^	; <UNPREDICTABLE>
    27d8:	b8240000 	stmdalt	r4!, {}	; <UNPREDICTABLE>
    27dc:	35000003 	strcc	r0, [r0, #-3]
    27e0:	00000185 	andeq	r0, r0, r5, lsl #3
    27e4:	00017a27 	andeq	r7, r1, r7, lsr #20
    27e8:	0019c900 	andseq	ip, r9, r0, lsl #18
    27ec:	33000000 	movwcc	r0, #0
    27f0:	0000016e 	andeq	r0, r0, lr, ror #2
    27f4:	015010a4 	cmpeq	r0, r4, lsr #1
    27f8:	000003d0 	ldrdeq	r0, [r0], -r0	; <UNPREDICTABLE>
    27fc:	099c5c01 	ldmibeq	ip, {r0, sl, fp, ip, lr}
    2800:	85270000 	strhi	r0, [r7, #-0]!
    2804:	de000001 	cdple	0, 0, cr0, cr0, cr1, {0}
    2808:	27000019 	smladcs	r0, r9, r0, r0
    280c:	0000017a 	andeq	r0, r0, sl, ror r1
    2810:	000019fc 	strdeq	r1, [r0], -ip
    2814:	0003f024 	andeq	pc, r3, r4, lsr #32
    2818:	01852700 	orreq	r2, r5, r0, lsl #14
    281c:	1a4d0000 	bne	1342824 <_back_addr-0x1bd7dc>
    2820:	7a270000 	bvc	9c2828 <_back_addr-0xb3d7d8>
    2824:	60000001 	andvs	r0, r0, r1
    2828:	0000001a 	andeq	r0, r0, sl, lsl r0
    282c:	016e3300 	cmneq	lr, r0, lsl #6
    2830:	10b40000 	adcsne	r0, r4, r0
    2834:	04080150 	streq	r0, [r8], #-336	; 0x150
    2838:	5d010000 	stcpl	0, cr0, [r1, #-0]
    283c:	000009da 	ldrdeq	r0, [r0], -sl
    2840:	00018527 	andeq	r8, r1, r7, lsr #10
    2844:	001a7500 	andseq	r7, sl, r0, lsl #10
    2848:	017a2700 	cmneq	sl, r0, lsl #14
    284c:	1a930000 	bne	fe4c2854 <__bss_end__+0xfcfaed14>
    2850:	28240000 	stmdacs	r4!, {}	; <UNPREDICTABLE>
    2854:	27000004 	strcs	r0, [r0, -r4]
    2858:	00000185 	andeq	r0, r0, r5, lsl #3
    285c:	00001ae4 	andeq	r1, r0, r4, ror #21
    2860:	00017a27 	andeq	r7, r1, r7, lsr #20
    2864:	001af700 	andseq	pc, sl, r0, lsl #14
    2868:	33000000 	movwcc	r0, #0
    286c:	0000016e 	andeq	r0, r0, lr, ror #2
    2870:	015010c4 	cmpeq	r0, r4, asr #1
    2874:	00000440 	andeq	r0, r0, r0, asr #8
    2878:	0a185e01 	beq	61a084 <_back_addr-0xee5f7c>
    287c:	85270000 	strhi	r0, [r7, #-0]!
    2880:	0c000001 	stceq	0, cr0, [r0], {1}
    2884:	2700001b 	smladcs	r0, fp, r0, r0
    2888:	0000017a 	andeq	r0, r0, sl, ror r1
    288c:	00001b2a 	andeq	r1, r0, sl, lsr #22
    2890:	00046024 	andeq	r6, r4, r4, lsr #32
    2894:	01852700 	orreq	r2, r5, r0, lsl #14
    2898:	1b7b0000 	blne	1ec28a0 <__bss_end__+0x9aed60>
    289c:	7a270000 	bvc	9c28a4 <_back_addr-0xb3d75c>
    28a0:	8e000001 	cdphi	0, 0, cr0, cr0, cr1, {0}
    28a4:	0000001b 	andeq	r0, r0, fp, lsl r0
    28a8:	016e3600 	cmneq	lr, r0, lsl #12
    28ac:	10d40000 	sbcsne	r0, r4, r0
    28b0:	04780150 	ldrbteq	r0, [r8], #-336	; 0x150
    28b4:	5f010000 	svcpl	0x00010000
    28b8:	00018527 	andeq	r8, r1, r7, lsr #10
    28bc:	001ba300 	andseq	sl, fp, r0, lsl #6
    28c0:	017a2700 	cmneq	sl, r0, lsl #14
    28c4:	1bc10000 	blne	ff0428cc <__bss_end__+0xfdb2ed8c>
    28c8:	a0240000 	eorge	r0, r4, r0
    28cc:	27000004 	strcs	r0, [r0, -r4]
    28d0:	00000185 	andeq	r0, r0, r5, lsl #3
    28d4:	00001c05 	andeq	r1, r0, r5, lsl #24
    28d8:	00017a27 	andeq	r7, r1, r7, lsr #20
    28dc:	001c1800 	andseq	r1, ip, r0, lsl #16
    28e0:	00000000 	andeq	r0, r0, r0
    28e4:	000a872f 	andeq	r8, sl, pc, lsr #14
    28e8:	33640100 	cmncc	r4, #0, 2
    28ec:	34000000 	strcc	r0, [r0], #-0
    28f0:	90015012 	andls	r5, r1, r2, lsl r0
    28f4:	01000000 	mrseq	r0, (UNDEF: 0)
    28f8:	000ad39c 	muleq	sl, ip, r3
    28fc:	094a3000 	stmdbeq	sl, {ip, sp}^
    2900:	64010000 	strvs	r0, [r1], #-0
    2904:	00000ad3 	ldrdeq	r0, [r0], -r3
    2908:	00001c3e 	andeq	r1, r0, lr, lsr ip
    290c:	00099a30 	andeq	r9, r9, r0, lsr sl
    2910:	53640100 	cmnpl	r4, #0, 2
    2914:	81000000 	mrshi	r0, (UNDEF: 0)
    2918:	3000001c 	andcc	r0, r0, ip, lsl r0
    291c:	000008ce 	andeq	r0, r0, lr, asr #17
    2920:	0ad36401 	beq	ff4db92c <__bss_end__+0xfdfc7dec>
    2924:	1cc40000 	stclne	0, cr0, [r4], {0}
    2928:	6b370000 	blvs	dc2930 <_back_addr-0x73d6d0>
    292c:	01007965 	tsteq	r0, r5, ror #18
    2930:	000ad964 	andeq	sp, sl, r4, ror #18
    2934:	001d0700 	andseq	r0, sp, r0, lsl #14
    2938:	0a393800 	beq	e50940 <_back_addr-0x6af6c0>
    293c:	66010000 	strvs	r0, [r1], -r0
    2940:	000001d5 	ldrdeq	r0, [r0], -r5
    2944:	00001d3e 	andeq	r1, r0, lr, lsr sp
    2948:	50124c2e 	andspl	r4, r2, lr, lsr #24
    294c:	00020201 	andeq	r0, r2, r1, lsl #4
    2950:	129c3900 	addsne	r3, ip, #0, 18
    2954:	01910150 	orrseq	r0, r1, r0, asr r1
    2958:	a02e0000 	eorge	r0, lr, r0
    295c:	67015012 	smladvs	r1, r2, r0, r5
    2960:	00000002 	andeq	r0, r0, r2
    2964:	006f0406 	rsbeq	r0, pc, r6, lsl #8
    2968:	04060000 	streq	r0, [r6], #-0
    296c:	00000053 	andeq	r0, r0, r3, asr r0
    2970:	00098a2f 	andeq	r8, r9, pc, lsr #20
    2974:	337f0100 	cmncc	pc, #0, 2
    2978:	c4000000 	strgt	r0, [r0], #-0
    297c:	90015012 	andls	r5, r1, r2, lsl r0
    2980:	01000000 	mrseq	r0, (UNDEF: 0)
    2984:	000b5f9c 	muleq	fp, ip, pc	; <UNPREDICTABLE>
    2988:	094a3000 	stmdbeq	sl, {ip, sp}^
    298c:	7f010000 	svcvc	0x00010000
    2990:	00000ad3 	ldrdeq	r0, [r0], -r3
    2994:	00001d93 	muleq	r0, r3, sp
    2998:	00099a30 	andeq	r9, r9, r0, lsr sl
    299c:	537f0100 	cmnpl	pc, #0, 2
    29a0:	d6000000 	strle	r0, [r0], -r0
    29a4:	3000001d 	andcc	r0, r0, sp, lsl r0
    29a8:	000008ce 	andeq	r0, r0, lr, asr #17
    29ac:	0ad37f01 	beq	ff4e25b8 <__bss_end__+0xfdfcea78>
    29b0:	1e190000 	cdpne	0, 1, cr0, cr9, cr0, {0}
    29b4:	6b370000 	blvs	dc29bc <_back_addr-0x73d644>
    29b8:	01007965 	tsteq	r0, r5, ror #18
    29bc:	000ad97f 	andeq	sp, sl, pc, ror r9
    29c0:	001e5c00 	andseq	r5, lr, r0, lsl #24
    29c4:	0a393800 	beq	e509cc <_back_addr-0x6af634>
    29c8:	81010000 	mrshi	r0, (UNDEF: 1)
    29cc:	000001d5 	ldrdeq	r0, [r0], -r5
    29d0:	00001e93 	muleq	r0, r3, lr
    29d4:	5012dc2e 	andspl	sp, r2, lr, lsr #24
    29d8:	00020201 	andeq	r0, r2, r1, lsl #4
    29dc:	132c3900 	teqne	ip, #0, 18
    29e0:	01910150 	orrseq	r0, r1, r0, asr r1
    29e4:	302e0000 	eorcc	r0, lr, r0
    29e8:	67015013 	smladvs	r1, r3, r0, r5
    29ec:	00000002 	andeq	r0, r0, r2
    29f0:	00051b2f 	andeq	r1, r5, pc, lsr #22
    29f4:	339a0100 	orrscc	r0, sl, #0, 2
    29f8:	54000000 	strpl	r0, [r0], #-0
    29fc:	94015013 	strls	r5, [r1], #-19
    2a00:	01000000 	mrseq	r0, (UNDEF: 0)
    2a04:	000bdf9c 	muleq	fp, ip, pc	; <UNPREDICTABLE>
    2a08:	094a3000 	stmdbeq	sl, {ip, sp}^
    2a0c:	9a010000 	bls	42a14 <_back_addr-0x14bd5ec>
    2a10:	00000ad3 	ldrdeq	r0, [r0], -r3
    2a14:	00001ee8 	andeq	r1, r0, r8, ror #29
    2a18:	00099a30 	andeq	r9, r9, r0, lsr sl
    2a1c:	539a0100 	orrspl	r0, sl, #0, 2
    2a20:	2b000000 	blcs	2a28 <_back_addr-0x14fd5d8>
    2a24:	3000001f 	andcc	r0, r0, pc, lsl r0
    2a28:	000008ce 	andeq	r0, r0, lr, asr #17
    2a2c:	0ad39a01 	beq	ff4e9238 <__bss_end__+0xfdfd56f8>
    2a30:	1f6e0000 	svcne	0x006e0000
    2a34:	6b370000 	blvs	dc2a3c <_back_addr-0x73d5c4>
    2a38:	01007965 	tsteq	r0, r5, ror #18
    2a3c:	000ad99a 	muleq	sl, sl, r9
    2a40:	001fb100 	andseq	fp, pc, r0, lsl #2
    2a44:	0a393800 	beq	e50a4c <_back_addr-0x6af5b4>
    2a48:	9c010000 	stcls	0, cr0, [r1], {-0}
    2a4c:	000001d5 	ldrdeq	r0, [r0], -r5
    2a50:	00001fe8 	andeq	r1, r0, r8, ror #31
    2a54:	50136c2e 	andspl	r6, r3, lr, lsr #24
    2a58:	00020201 	andeq	r0, r2, r1, lsl #4
    2a5c:	13bc3900 			; <UNDEFINED> instruction: 0x13bc3900
    2a60:	01910150 	orrseq	r0, r1, r0, asr r1
    2a64:	c02e0000 	eorgt	r0, lr, r0
    2a68:	67015013 	smladvs	r1, r3, r0, r5
    2a6c:	00000002 	andeq	r0, r0, r2
    2a70:	00072c2f 	andeq	r2, r7, pc, lsr #24
    2a74:	33b70100 			; <UNDEFINED> instruction: 0x33b70100
    2a78:	e8000000 	stmda	r0, {}	; <UNPREDICTABLE>
    2a7c:	ec015013 	stc	0, cr5, [r1], {19}
    2a80:	01000000 	mrseq	r0, (UNDEF: 0)
    2a84:	000cfc9c 	muleq	ip, ip, ip
    2a88:	094a3000 	stmdbeq	sl, {ip, sp}^
    2a8c:	b7010000 	strlt	r0, [r1, -r0]
    2a90:	00000ad3 	ldrdeq	r0, [r0], -r3
    2a94:	0000203d 	andeq	r2, r0, sp, lsr r0
    2a98:	00099a30 	andeq	r9, r9, r0, lsr sl
    2a9c:	53b70100 			; <UNDEFINED> instruction: 0x53b70100
    2aa0:	5b000000 	blpl	2aa8 <_back_addr-0x14fd558>
    2aa4:	30000020 	andcc	r0, r0, r0, lsr #32
    2aa8:	000008ce 	andeq	r0, r0, lr, asr #17
    2aac:	0ad3b701 	beq	ff4f06b8 <__bss_end__+0xfdfdcb78>
    2ab0:	20790000 	rsbscs	r0, r9, r0
    2ab4:	6b370000 	blvs	dc2abc <_back_addr-0x73d544>
    2ab8:	01007965 	tsteq	r0, r5, ror #18
    2abc:	000ad9b7 			; <UNDEFINED> instruction: 0x000ad9b7
    2ac0:	00209700 	eoreq	r9, r0, r0, lsl #14
    2ac4:	65723200 	ldrbvs	r3, [r2, #-512]!	; 0x200
    2ac8:	b9010074 	stmdblt	r1, {r2, r4, r5, r6}
    2acc:	00000033 	andeq	r0, r0, r3, lsr r0
    2ad0:	000020b5 	strheq	r2, [r0], -r5
    2ad4:	000a3938 	andeq	r3, sl, r8, lsr r9
    2ad8:	d5ba0100 	ldrle	r0, [sl, #256]!	; 0x100
    2adc:	e0000001 	and	r0, r0, r1
    2ae0:	3a000020 	bcc	2b68 <_back_addr-0x14fd498>
    2ae4:	00000953 	andeq	r0, r0, r3, asr r9
    2ae8:	00000cfc 	strdeq	r0, [r0], -ip
    2aec:	310c0305 	tstcc	ip, r5, lsl #6
    2af0:	002e0150 	eoreq	r0, lr, r0, asr r1
    2af4:	02015014 	andeq	r5, r1, #20
    2af8:	1d000002 	stcne	0, cr0, [r0, #-8]
    2afc:	0150144c 	cmpeq	r0, ip, asr #8
    2b00:	00000191 	muleq	r0, r1, r1
    2b04:	00000c7e 	andeq	r0, r0, lr, ror ip
    2b08:	0250011e 	subseq	r0, r0, #-2147483641	; 0x80000007
    2b0c:	1d000074 	stcne	0, cr0, [r0, #-464]	; 0xfffffe30
    2b10:	01501468 	cmpeq	r0, r8, ror #8
    2b14:	000013d4 	ldrdeq	r1, [r0], -r4
    2b18:	00000c98 	muleq	r0, r8, ip
    2b1c:	0250011e 	subseq	r0, r0, #-2147483641	; 0x80000007
    2b20:	011e0076 	tsteq	lr, r6, ror r0
    2b24:	00770251 	rsbseq	r0, r7, r1, asr r2
    2b28:	14742e00 	ldrbtne	r2, [r4], #-3584	; 0xe00
    2b2c:	02670150 	rsbeq	r0, r7, #80, 2
    2b30:	a41d0000 	ldrge	r0, [sp], #-0
    2b34:	eb015014 	bl	56b8c <_back_addr-0x14a9474>
    2b38:	d0000013 	andle	r0, r0, r3, lsl r0
    2b3c:	1e00000c 	cdpne	0, 0, cr0, cr0, cr12, {0}
    2b40:	03055001 	movweq	r5, #20481	; 0x5001
    2b44:	01503134 	cmpeq	r0, r4, lsr r1
    2b48:	0551011e 	ldrbeq	r0, [r1, #-286]	; 0x11e
    2b4c:	50312c03 	eorspl	r2, r1, r3, lsl #24
    2b50:	52011e01 	andpl	r1, r1, #1, 28
    2b54:	310c0305 	tstcc	ip, r5, lsl #6
    2b58:	011e0150 	tsteq	lr, r0, asr r1
    2b5c:	c4080253 	strgt	r0, [r8], #-595	; 0x253
    2b60:	14cc1f00 	strbne	r1, [ip], #3840	; 0xf00
    2b64:	13eb0150 	mvnne	r0, #80, 2
    2b68:	011e0000 	tsteq	lr, r0
    2b6c:	34030550 	strcc	r0, [r3], #-1360	; 0x550
    2b70:	1e015031 	mcrne	0, 0, r5, cr1, cr1, {1}
    2b74:	03055101 	movweq	r5, #20737	; 0x5101
    2b78:	0150312c 	cmpeq	r0, ip, lsr #2
    2b7c:	0552011e 	ldrbeq	r0, [r2, #-286]	; 0x11e
    2b80:	50310c03 	eorspl	r0, r1, r3, lsl #24
    2b84:	53011e01 	movwpl	r1, #7681	; 0x1e01
    2b88:	00be0802 	adcseq	r0, lr, r2, lsl #16
    2b8c:	009c0700 	addseq	r0, ip, r0, lsl #14
    2b90:	d72f0000 	strle	r0, [pc, -r0]!
    2b94:	01000008 	tsteq	r0, r8
    2b98:	000033e4 	andeq	r3, r0, r4, ror #7
    2b9c:	5014d400 	andspl	sp, r4, r0, lsl #8
    2ba0:	00007001 	andeq	r7, r0, r1
    2ba4:	699c0100 	ldmibvs	ip, {r8}
    2ba8:	3000000d 	andcc	r0, r0, sp
    2bac:	0000094a 	andeq	r0, r0, sl, asr #18
    2bb0:	0ad3e401 	beq	ff4fbbbc <__bss_end__+0xfdfe807c>
    2bb4:	212a0000 	teqcs	sl, r0
    2bb8:	9a300000 	bls	c02bc0 <_back_addr-0x8fd440>
    2bbc:	01000009 	tsteq	r0, r9
    2bc0:	000053e4 	andeq	r5, r0, r4, ror #7
    2bc4:	00216d00 	eoreq	r6, r1, r0, lsl #26
    2bc8:	08ce3000 	stmiaeq	lr, {ip, sp}^
    2bcc:	e4010000 	str	r0, [r1], #-0
    2bd0:	00000ad3 	ldrdeq	r0, [r0], -r3
    2bd4:	000021b0 			; <UNDEFINED> instruction: 0x000021b0
    2bd8:	000a3938 	andeq	r3, sl, r8, lsr r9
    2bdc:	d5e60100 	strble	r0, [r6, #256]!	; 0x100
    2be0:	f3000001 	vhadd.u8	d0, d0, d1
    2be4:	2e000021 	cdpcs	0, 0, cr0, cr0, cr1, {1}
    2be8:	015014e8 	cmpeq	r0, r8, ror #9
    2bec:	00000202 	andeq	r0, r0, r2, lsl #4
    2bf0:	50153c39 	andspl	r3, r5, r9, lsr ip
    2bf4:	00019101 	andeq	r9, r1, r1, lsl #2
    2bf8:	ab3b0000 	blge	ec2c00 <_back_addr-0x63d400>
    2bfc:	01000009 	tsteq	r0, r9
    2c00:	8f0102d3 	svchi	0x000102d3
    2c04:	1400000d 	strne	r0, [r0], #-13
    2c08:	00000a39 	andeq	r0, r0, r9, lsr sl
    2c0c:	d502d301 	strle	sp, [r2, #-769]	; 0x301
    2c10:	14000001 	strne	r0, [r0], #-1
    2c14:	000009ba 			; <UNDEFINED> instruction: 0x000009ba
    2c18:	d302d301 	movwle	sp, #8961	; 0x2301
    2c1c:	0000000a 	andeq	r0, r0, sl
    2c20:	0009c12f 	andeq	ip, r9, pc, lsr #2
    2c24:	33f90100 	mvnscc	r0, #0, 2
    2c28:	44000000 	strmi	r0, [r0], #-0
    2c2c:	58015015 	stmdapl	r1, {r0, r2, r4, ip, lr}
    2c30:	01000001 	tsteq	r0, r1
    2c34:	000e529c 	muleq	lr, ip, r2
    2c38:	094a3000 	stmdbeq	sl, {ip, sp}^
    2c3c:	f9010000 			; <UNDEFINED> instruction: 0xf9010000
    2c40:	00000ad3 	ldrdeq	r0, [r0], -r3
    2c44:	0000221c 	andeq	r2, r0, ip, lsl r2
    2c48:	00099a30 	andeq	r9, r9, r0, lsr sl
    2c4c:	53f90100 	mvnspl	r0, #0, 2
    2c50:	61000000 	mrsvs	r0, (UNDEF: 0)
    2c54:	30000022 	andcc	r0, r0, r2, lsr #32
    2c58:	000008ce 	andeq	r0, r0, lr, asr #17
    2c5c:	0ad3f901 	beq	ff501068 <__bss_end__+0xfdfed528>
    2c60:	228a0000 	addcs	r0, sl, #0
    2c64:	74300000 	ldrtvc	r0, [r0], #-0
    2c68:	01000008 	tsteq	r0, r8
    2c6c:	000053f9 	strdeq	r5, [r0], -r9
    2c70:	0022c100 	eoreq	ip, r2, r0, lsl #2
    2c74:	0a393800 	beq	e50c7c <_back_addr-0x6af384>
    2c78:	fb010000 	blx	42c82 <_back_addr-0x14bd37e>
    2c7c:	000001d5 	ldrdeq	r0, [r0], -r5
    2c80:	000022ea 	andeq	r2, r0, sl, ror #5
    2c84:	000a6738 	andeq	r6, sl, r8, lsr r7
    2c88:	d3fc0100 	mvnsle	r0, #0, 2
    2c8c:	0800000a 	stmdaeq	r0, {r1, r3}
    2c90:	32000023 	andcc	r0, r0, #35	; 0x23
    2c94:	00736572 	rsbseq	r6, r3, r2, ror r5
    2c98:	0033fd01 	eorseq	pc, r3, r1, lsl #26
    2c9c:	231b0000 	tstcs	fp, #0
    2ca0:	69210000 	stmdbvs	r1!, {}	; <UNPREDICTABLE>
    2ca4:	c400000d 	strgt	r0, [r0], #-13
    2ca8:	b8015015 	stmdalt	r1, {r0, r2, r4, ip, lr}
    2cac:	01000004 	tsteq	r0, r4
    2cb0:	0e38011e 	mrceq	1, 1, r0, cr8, cr14, {0}
    2cb4:	82270000 	eorhi	r0, r7, #0
    2cb8:	3b00000d 	blcc	2cf4 <_back_addr-0x14fd30c>
    2cbc:	27000023 	strcs	r0, [r0, -r3, lsr #32]
    2cc0:	00000d76 	andeq	r0, r0, r6, ror sp
    2cc4:	00002359 	andeq	r2, r0, r9, asr r3
    2cc8:	15742e00 	ldrbne	r2, [r4, #-3584]!	; 0xe00
    2ccc:	02020150 	andeq	r0, r2, #80, 2
    2cd0:	741f0000 	ldrvc	r0, [pc], #-0	; 2cd8 <_back_addr-0x14fd328>
    2cd4:	91015016 	tstls	r1, r6, lsl r0
    2cd8:	1e000001 	cdpne	0, 0, cr0, cr0, cr1, {0}
    2cdc:	75025001 	strvc	r5, [r2, #-1]
    2ce0:	3c000000 	stccc	0, cr0, [r0], {-0}
    2ce4:	00000a46 	andeq	r0, r0, r6, asr #20
    2ce8:	33012901 	movwcc	r2, #6401	; 0x1901
    2cec:	9c000000 	stcls	0, cr0, [r0], {-0}
    2cf0:	cc015016 	stcgt	0, cr5, [r1], {22}
    2cf4:	01000000 	mrseq	r0, (UNDEF: 0)
    2cf8:	000ece9c 	muleq	lr, ip, lr
    2cfc:	094a3d00 	stmdbeq	sl, {r8, sl, fp, ip, sp}^
    2d00:	29010000 	stmdbcs	r1, {}	; <UNPREDICTABLE>
    2d04:	000ad301 	andeq	sp, sl, r1, lsl #6
    2d08:	00237700 	eoreq	r7, r3, r0, lsl #14
    2d0c:	099a3d00 	ldmibeq	sl, {r8, sl, fp, ip, sp}
    2d10:	29010000 	stmdbcs	r1, {}	; <UNPREDICTABLE>
    2d14:	00005301 	andeq	r5, r0, r1, lsl #6
    2d18:	0023de00 	eoreq	sp, r3, r0, lsl #28
    2d1c:	08ce3d00 	stmiaeq	lr, {r8, sl, fp, ip, sp}^
    2d20:	29010000 	stmdbcs	r1, {}	; <UNPREDICTABLE>
    2d24:	000ad301 	andeq	sp, sl, r1, lsl #6
    2d28:	00243700 	eoreq	r3, r4, r0, lsl #14
    2d2c:	76693e00 	strbtvc	r3, [r9], -r0, lsl #28
    2d30:	01290100 	teqeq	r9, r0, lsl #2
    2d34:	00000ad9 	ldrdeq	r0, [r0], -r9
    2d38:	00002490 	muleq	r0, r0, r4
    2d3c:	000a393f 	andeq	r3, sl, pc, lsr r9
    2d40:	012b0100 	teqeq	fp, r0, lsl #2
    2d44:	000001d5 	ldrdeq	r0, [r0], -r5
    2d48:	000024dd 	ldrdeq	r2, [r0], -sp
    2d4c:	5016c02e 	andspl	ip, r6, lr, lsr #32
    2d50:	00020201 	andeq	r0, r2, r1, lsl #4
    2d54:	17183900 	ldrne	r3, [r8, -r0, lsl #18]
    2d58:	01910150 	orrseq	r0, r1, r0, asr r1
    2d5c:	3c000000 	stccc	0, cr0, [r0], {-0}
    2d60:	000008a0 	andeq	r0, r0, r0, lsr #17
    2d64:	33014e01 	movwcc	r4, #7681	; 0x1e01
    2d68:	68000000 	stmdavs	r0, {}	; <UNPREDICTABLE>
    2d6c:	7c015017 	stcvc	0, cr5, [r1], {23}
    2d70:	01000001 	tsteq	r0, r1
    2d74:	00126a9c 	mulseq	r2, ip, sl
    2d78:	09053d00 	stmdbeq	r5, {r8, sl, fp, ip, sp}
    2d7c:	4e010000 	cdpmi	0, 0, cr0, cr1, cr0, {0}
    2d80:	000ad301 	andeq	sp, sl, r1, lsl #6
    2d84:	00251c00 	eoreq	r1, r5, r0, lsl #24
    2d88:	09e03d00 	stmibeq	r0!, {r8, sl, fp, ip, sp}^
    2d8c:	4e010000 	cdpmi	0, 0, cr0, cr1, cr0, {0}
    2d90:	000ad301 	andeq	sp, sl, r1, lsl #6
    2d94:	00255300 	eoreq	r5, r5, r0, lsl #6
    2d98:	0a213d00 	beq	8521a0 <_back_addr-0xcade60>
    2d9c:	4e010000 	cdpmi	0, 0, cr0, cr1, cr0, {0}
    2da0:	000ad301 	andeq	sp, sl, r1, lsl #6
    2da4:	00258a00 	eoreq	r8, r5, r0, lsl #20
    2da8:	00691500 	rsbeq	r1, r9, r0, lsl #10
    2dac:	33015101 	movwcc	r5, #4353	; 0x1101
    2db0:	1c000000 	stcne	0, cr0, [r0], {-0}
    2db4:	000009fc 	strdeq	r0, [r0], -ip
    2db8:	6a015201 	bvs	575c4 <_back_addr-0x14a8a3c>
    2dbc:	03000012 	movweq	r0, #18
    2dc0:	3f7df091 	svccc	0x007df091
    2dc4:	000009db 	ldrdeq	r0, [r0], -fp
    2dc8:	53015301 	movwpl	r5, #4865	; 0x1301
    2dcc:	a8000000 	stmdage	r0, {}	; <UNPREDICTABLE>
    2dd0:	40000025 	andmi	r0, r0, r5, lsr #32
    2dd4:	000008e4 	andeq	r0, r0, r4, ror #17
    2dd8:	8a015401 	bhi	57de4 <_back_addr-0x14a821c>
    2ddc:	13000012 	movwne	r0, #18
    2de0:	0d303130 	ldfeqs	f3, [r0, #-192]!	; 0xffffff40
    2de4:	86600906 	strbthi	r0, [r0], -r6, lsl #18
    2de8:	03650148 	cmneq	r5, #72, 2
    2dec:	05010204 	streq	r0, [r1, #-516]	; 0x204
    2df0:	41200400 	teqmi	r0, r0, lsl #8
    2df4:	000003c7 	andeq	r0, r0, r7, asr #7
    2df8:	33015a01 	movwcc	r5, #6657	; 0x1a01
    2dfc:	74000000 	strvc	r0, [r0], #-0
    2e00:	1800000f 	stmdane	r0, {r0, r1, r2, r3}
    2e04:	04f54100 	ldrbteq	r4, [r5], #256	; 0x100
    2e08:	6c010000 	stcvs	0, cr0, [r1], {-0}
    2e0c:	00003301 	andeq	r3, r0, r1, lsl #6
    2e10:	000f8600 	andeq	r8, pc, r0, lsl #12
    2e14:	41001800 	tstmi	r0, r0, lsl #16
    2e18:	00000a2d 	andeq	r0, r0, sp, lsr #20
    2e1c:	33016e01 	movwcc	r6, #7681	; 0x1e01
    2e20:	98000000 	stmdals	r0, {}	; <UNPREDICTABLE>
    2e24:	1800000f 	stmdane	r0, {r0, r1, r2, r3}
    2e28:	09724100 	ldmdbeq	r2!, {r8, lr}^
    2e2c:	75010000 	strvc	r0, [r1, #-0]
    2e30:	00003301 	andeq	r3, r0, r1, lsl #6
    2e34:	000faa00 	andeq	sl, pc, r0, lsl #20
    2e38:	21001800 	tstcs	r0, r0, lsl #16
    2e3c:	0000016e 	andeq	r0, r0, lr, ror #2
    2e40:	01501784 	cmpeq	r0, r4, lsl #15
    2e44:	000004d8 	ldrdeq	r0, [r0], -r8
    2e48:	e5016201 	str	r6, [r1, #-513]	; 0x201
    2e4c:	2200000f 	andcs	r0, r0, #15
    2e50:	00000185 	andeq	r0, r0, r5, lsl #3
    2e54:	017a2302 	cmneq	sl, r2, lsl #6
    2e58:	9e880000 	cdpls	0, 8, cr0, cr8, cr0, {0}
    2e5c:	2479c093 	ldrbtcs	ip, [r9], #-147	; 0x93
    2e60:	000004d8 	ldrdeq	r0, [r0], -r8
    2e64:	00018522 	andeq	r8, r1, r2, lsr #10
    2e68:	7a230200 	bvc	8c3670 <_back_addr-0xc3c990>
    2e6c:	88000001 	stmdahi	r0, {r0}
    2e70:	79c0939e 	stmibvc	r0, {r1, r2, r3, r4, r7, r8, r9, ip, pc}^
    2e74:	6e210000 	cdpvs	0, 2, cr0, cr1, cr0, {0}
    2e78:	94000001 	strls	r0, [r0], #-1
    2e7c:	f8015017 			; <UNDEFINED> instruction: 0xf8015017
    2e80:	01000004 	tsteq	r0, r4
    2e84:	10200163 	eorne	r0, r0, r3, ror #2
    2e88:	85220000 	strhi	r0, [r2, #-0]!
    2e8c:	00000001 	andeq	r0, r0, r1
    2e90:	00017a23 	andeq	r7, r1, r3, lsr #20
    2e94:	939f8000 	orrsls	r8, pc, #0
    2e98:	f82479c0 			; <UNDEFINED> instruction: 0xf82479c0
    2e9c:	22000004 	andcs	r0, r0, #4
    2ea0:	00000185 	andeq	r0, r0, r5, lsl #3
    2ea4:	017a2300 	cmneq	sl, r0, lsl #6
    2ea8:	9f800000 	svcls	0x00800000
    2eac:	0079c093 			; <UNDEFINED> instruction: 0x0079c093
    2eb0:	016e2100 	cmneq	lr, r0, lsl #2
    2eb4:	181c0000 	ldmdane	ip, {}	; <UNPREDICTABLE>
    2eb8:	05100150 	ldreq	r0, [r0, #-336]	; 0x150
    2ebc:	81010000 	mrshi	r0, (UNDEF: 1)
    2ec0:	00105f01 	andseq	r5, r0, r1, lsl #30
    2ec4:	01852700 	orreq	r2, r5, r0, lsl #14
    2ec8:	260c0000 	strcs	r0, [ip], -r0
    2ecc:	7a270000 	bvc	9c2ed4 <_back_addr-0xb3d12c>
    2ed0:	43000001 	movwmi	r0, #1
    2ed4:	24000026 	strcs	r0, [r0], #-38	; 0x26
    2ed8:	00000510 	andeq	r0, r0, r0, lsl r5
    2edc:	00018527 	andeq	r8, r1, r7, lsr #10
    2ee0:	00260c00 	eoreq	r0, r6, r0, lsl #24
    2ee4:	017a2700 	cmneq	sl, r0, lsl #14
    2ee8:	26430000 	strbcs	r0, [r3], -r0
    2eec:	00000000 	andeq	r0, r0, r0
    2ef0:	0001522b 	andeq	r5, r1, fp, lsr #4
    2ef4:	50183400 	andspl	r3, r8, r0, lsl #8
    2ef8:	00000401 	andeq	r0, r0, r1, lsl #8
    2efc:	01850100 	orreq	r0, r5, r0, lsl #2
    2f00:	00001090 	muleq	r0, r0, r0
    2f04:	00016227 	andeq	r6, r1, r7, lsr #4
    2f08:	00265b00 	eoreq	r5, r6, r0, lsl #22
    2f0c:	18342c00 	ldmdane	r4!, {sl, fp, sp}
    2f10:	00040150 	andeq	r0, r4, r0, asr r1
    2f14:	62270000 	eorvs	r0, r7, #0
    2f18:	5b000001 	blpl	2f24 <_back_addr-0x14fd0dc>
    2f1c:	00000026 	andeq	r0, r0, r6, lsr #32
    2f20:	016e2b00 	cmneq	lr, r0, lsl #22
    2f24:	183c0000 	ldmdane	ip!, {}	; <UNPREDICTABLE>
    2f28:	00040150 	andeq	r0, r4, r0, asr r1
    2f2c:	85010000 	strhi	r0, [r1, #-0]
    2f30:	0010d301 	andseq	sp, r0, r1, lsl #6
    2f34:	01852700 	orreq	r2, r5, r0, lsl #14
    2f38:	26730000 	ldrbtcs	r0, [r3], -r0
    2f3c:	7a270000 	bvc	9c2f44 <_back_addr-0xb3d0bc>
    2f40:	93000001 	movwls	r0, #1
    2f44:	2c000026 	stccs	0, cr0, [r0], {38}	; 0x26
    2f48:	0150183c 	cmpeq	r0, ip, lsr r8
    2f4c:	00000004 	andeq	r0, r0, r4
    2f50:	00018527 	andeq	r8, r1, r7, lsr #10
    2f54:	00267300 	eoreq	r7, r6, r0, lsl #6
    2f58:	017a2700 	cmneq	sl, r0, lsl #14
    2f5c:	26930000 	ldrcs	r0, [r3], r0
    2f60:	00000000 	andeq	r0, r0, r0
    2f64:	00015221 	andeq	r5, r1, r1, lsr #4
    2f68:	50184000 	andspl	r4, r8, r0
    2f6c:	00052801 	andeq	r2, r5, r1, lsl #16
    2f70:	01860100 	orreq	r0, r6, r0, lsl #2
    2f74:	00001100 	andeq	r1, r0, r0, lsl #2
    2f78:	00016227 	andeq	r6, r1, r7, lsr #4
    2f7c:	0026ab00 	eoreq	sl, r6, r0, lsl #22
    2f80:	05282400 	streq	r2, [r8, #-1024]!	; 0x400
    2f84:	62270000 	eorvs	r0, r7, #0
    2f88:	ab000001 	blge	2f94 <_back_addr-0x14fd06c>
    2f8c:	00000026 	andeq	r0, r0, r6, lsr #32
    2f90:	18b42d00 	ldmne	r4!, {r8, sl, fp, sp}
    2f94:	00100150 	andseq	r0, r0, r0, asr r1
    2f98:	11330000 	teqne	r3, r0
    2f9c:	f9410000 			; <UNDEFINED> instruction: 0xf9410000
    2fa0:	01000002 	tsteq	r0, r2
    2fa4:	0033018a 	eorseq	r0, r3, sl, lsl #3
    2fa8:	111f0000 	tstne	pc, r0
    2fac:	00180000 	andseq	r0, r8, r0
    2fb0:	5018c01f 	andspl	ip, r8, pc, lsl r0
    2fb4:	00140201 	andseq	r0, r4, r1, lsl #4
    2fb8:	50011e00 	andpl	r1, r1, r0, lsl #28
    2fbc:	31440305 	cmpcc	r4, r5, lsl #6
    2fc0:	00000150 	andeq	r0, r0, r0, asr r1
    2fc4:	5017842e 	andspl	r8, r7, lr, lsr #8
    2fc8:	0013c201 	andseq	ip, r3, r1, lsl #4
    2fcc:	17b81d00 	ldrne	r1, [r8, r0, lsl #26]!
    2fd0:	14140150 	ldrne	r0, [r4], #-336	; 0x150
    2fd4:	11570000 	cmpne	r7, r0
    2fd8:	011e0000 	tsteq	lr, r0
    2fdc:	00750251 	rsbseq	r0, r5, r1, asr r2
    2fe0:	0352011e 	cmpeq	r2, #-2147483641	; 0x80000007
    2fe4:	0001000a 	andeq	r0, r1, sl
    2fe8:	5017c81d 	andspl	ip, r7, sp, lsl r8
    2fec:	0013d401 	andseq	sp, r3, r1, lsl #8
    2ff0:	00116c00 	andseq	r6, r1, r0, lsl #24
    2ff4:	51011e00 	tstpl	r1, r0, lsl #28
    2ff8:	01000a03 	tsteq	r0, r3, lsl #20
    2ffc:	17d81d00 	ldrbne	r1, [r8, r0, lsl #26]
    3000:	14260150 	strtne	r0, [r6], #-336	; 0x150
    3004:	118c0000 	orrne	r0, ip, r0
    3008:	011e0000 	tsteq	lr, r0
    300c:	007d0250 	rsbseq	r0, sp, r0, asr r2
    3010:	0151011e 	cmpeq	r1, lr, lsl r1
    3014:	52011e30 	andpl	r1, r1, #48, 28	; 0x300
    3018:	01000a03 	tsteq	r0, r3, lsl #20
    301c:	17f81d00 	ldrbne	r1, [r8, r0, lsl #26]!
    3020:	14140150 	ldrne	r0, [r4], #-336	; 0x150
    3024:	11a70000 			; <UNDEFINED> instruction: 0x11a70000
    3028:	011e0000 	tsteq	lr, r0
    302c:	007d0251 	rsbseq	r0, sp, r1, asr r2
    3030:	0352011e 	cmpeq	r2, #-2147483641	; 0x80000007
    3034:	0001000a 	andeq	r0, r1, sl
    3038:	50180c1d 	andspl	r0, r8, sp, lsl ip
    303c:	00141401 	andseq	r1, r4, r1, lsl #8
    3040:	0011c200 	andseq	ip, r1, r0, lsl #4
    3044:	51011e00 	tstpl	r1, r0, lsl #28
    3048:	1e007402 	cdpne	4, 0, cr7, cr0, cr2, {0}
    304c:	0a035201 	beq	d7858 <_back_addr-0x14287a8>
    3050:	1d000100 	stfnes	f0, [r0, #-0]
    3054:	01501828 	cmpeq	r0, r8, lsr #16
    3058:	00001414 	andeq	r1, r0, r4, lsl r4
    305c:	000011de 	ldrdeq	r1, [r0], -lr
    3060:	0351011e 	cmpeq	r1, #-2147483641	; 0x80000007
    3064:	1e028074 	mcrne	0, 0, r8, cr2, cr4, {3}
    3068:	0a035201 	beq	d7874 <_back_addr-0x142878c>
    306c:	1d000100 	stfnes	f0, [r0, #-0]
    3070:	01501864 	cmpeq	r0, r4, ror #16
    3074:	000013b0 			; <UNDEFINED> instruction: 0x000013b0
    3078:	000011f1 	strdeq	r1, [r0], -r1	; <UNPREDICTABLE>
    307c:	0150011e 	cmpeq	r0, lr, lsl r1
    3080:	881d0031 	ldmdahi	sp, {r0, r4, r5}
    3084:	14015018 	strne	r5, [r1], #-24
    3088:	0b000014 	bleq	30e0 <_back_addr-0x14fcf20>
    308c:	1e000012 	mcrne	0, 0, r0, cr0, cr2, {0}
    3090:	76025001 	strvc	r5, [r2], -r1
    3094:	52011e00 	andpl	r1, r1, #0, 28
    3098:	00200802 	eoreq	r0, r0, r2, lsl #16
    309c:	5018941d 	andspl	r9, r8, sp, lsl r4
    30a0:	0013d401 	andseq	sp, r3, r1, lsl #8
    30a4:	00122500 	andseq	r2, r2, r0, lsl #10
    30a8:	50011e00 	andpl	r1, r1, r0, lsl #28
    30ac:	1e007602 	cfmadd32ne	mvax0, mvfx7, mvfx0, mvfx2
    30b0:	74025101 	strvc	r5, [r2], #-257	; 0x101
    30b4:	9c1d0000 	ldcls	0, cr0, [sp], {-0}
    30b8:	67015018 	smladvs	r1, r8, r0, r5
    30bc:	39000007 	stmdbcc	r0, {r0, r1, r2}
    30c0:	1e000012 	mcrne	0, 0, r0, cr0, cr2, {0}
    30c4:	76025001 	strvc	r5, [r2], -r1
    30c8:	a81d0000 	ldmdage	sp, {}	; <UNPREDICTABLE>
    30cc:	d4015018 	strle	r5, [r1], #-24
    30d0:	53000013 	movwpl	r0, #19
    30d4:	1e000012 	mcrne	0, 0, r0, cr0, cr2, {0}
    30d8:	76025001 	strvc	r5, [r2], -r1
    30dc:	51011e00 	tstpl	r1, r0, lsl #28
    30e0:	00007402 	andeq	r7, r0, r2, lsl #8
    30e4:	5018e01f 	andspl	lr, r8, pc, lsl r0
    30e8:	00143801 	andseq	r3, r4, r1, lsl #16
    30ec:	50011e00 	andpl	r1, r1, r0, lsl #28
    30f0:	1e007502 	cfsh32ne	mvfx7, mvfx0, #2
    30f4:	08025201 	stmdaeq	r2, {r0, r9, ip, lr}
    30f8:	08000040 	stmdaeq	r0, {r6}
    30fc:	00000053 	andeq	r0, r0, r3, asr r0
    3100:	0000127a 	andeq	r1, r0, sl, ror r2
    3104:	00002509 	andeq	r2, r0, r9, lsl #10
    3108:	08003f00 	stmdaeq	r0, {r8, r9, sl, fp, ip, sp}
    310c:	0000005a 	andeq	r0, r0, sl, asr r0
    3110:	0000128a 	andeq	r1, r0, sl, lsl #5
    3114:	00002509 	andeq	r2, r0, r9, lsl #10
    3118:	07001200 	streq	r1, [r0, -r0, lsl #4]
    311c:	0000127a 	andeq	r1, r0, sl, ror r2
    3120:	0008ad3c 	andeq	sl, r8, ip, lsr sp
    3124:	01960100 	orrseq	r0, r6, r0, lsl #2
    3128:	00000033 	andeq	r0, r0, r3, lsr r0
    312c:	015018e4 	cmpeq	r0, r4, ror #17
    3130:	00000108 	andeq	r0, r0, r8, lsl #2
    3134:	130b9c01 	movwne	r9, #48129	; 0xbc01
    3138:	4a3d0000 	bmi	f43140 <_back_addr-0x5bcec0>
    313c:	01000009 	tsteq	r0, r9
    3140:	0ad30196 	beq	ff4c37a0 <__bss_end__+0xfdfafc60>
    3144:	26c30000 	strbcs	r0, [r3], r0
    3148:	9a3d0000 	bls	f43150 <_back_addr-0x5bceb0>
    314c:	01000009 	tsteq	r0, r9
    3150:	00530196 			; <UNDEFINED> instruction: 0x00530196
    3154:	271f0000 	ldrcs	r0, [pc, -r0]
    3158:	ce3d0000 	cdpgt	0, 3, cr0, cr13, cr0, {0}
    315c:	01000008 	tsteq	r0, r8
    3160:	0ad30196 	beq	ff4c37c0 <__bss_end__+0xfdfafc80>
    3164:	27620000 	strbcs	r0, [r2, -r0]!
    3168:	693e0000 	ldmdbvs	lr!, {}	; <UNPREDICTABLE>
    316c:	96010076 			; <UNDEFINED> instruction: 0x96010076
    3170:	000ad901 	andeq	sp, sl, r1, lsl #18
    3174:	0027a500 	eoreq	sl, r7, r0, lsl #10
    3178:	0a393f00 	beq	e52d80 <_back_addr-0x6ad280>
    317c:	98010000 	stmdals	r1, {}	; <UNPREDICTABLE>
    3180:	0001d501 	andeq	sp, r1, r1, lsl #10
    3184:	0027dc00 	eoreq	sp, r7, r0, lsl #24
    3188:	19102e00 	ldmdbne	r0, {r9, sl, fp, sp}
    318c:	02020150 	andeq	r0, r2, #80, 2
    3190:	80390000 	eorshi	r0, r9, r0
    3194:	91015019 	tstls	r1, r9, lsl r0
    3198:	00000001 	andeq	r0, r0, r1
    319c:	00087f42 	andeq	r7, r8, r2, asr #30
    31a0:	02ee0100 	rsceq	r0, lr, #0, 2
    31a4:	015019ec 	cmpeq	r0, ip, ror #19
    31a8:	00000028 	andeq	r0, r0, r8, lsr #32
    31ac:	134e9c01 	movtne	r9, #60417	; 0xec01
    31b0:	143d0000 	ldrtne	r0, [sp], #-0
    31b4:	01000009 	tsteq	r0, r9
    31b8:	0ad302ee 	beq	ff4c3d78 <__bss_end__+0xfdfb0238>
    31bc:	281b0000 	ldmdacs	fp, {}	; <UNPREDICTABLE>
    31c0:	911c0000 	tstls	ip, r0
    31c4:	01000008 	tsteq	r0, r8
    31c8:	006f02f0 	strdeq	r0, [pc], #-32	; <UNPREDICTABLE>
    31cc:	51010000 	mrspl	r0, (UNDEF: 1)
    31d0:	01006920 	tsteq	r0, r0, lsr #18
    31d4:	005302f1 	ldrsheq	r0, [r3], #-33	; 0xffffffdf
    31d8:	283c0000 	ldmdacs	ip!, {}	; <UNPREDICTABLE>
    31dc:	43000000 	movwmi	r0, #0
    31e0:	000009a1 	andeq	r0, r0, r1, lsr #19
    31e4:	5303e706 	movwpl	lr, #14086	; 0x3706
    31e8:	00000000 	andeq	r0, r0, r0
    31ec:	44002000 	strmi	r2, [r0], #-0
    31f0:	00000896 	muleq	r0, r6, r8
    31f4:	ac01f607 	stcge	6, cr15, [r1], {7}
    31f8:	45000000 	strmi	r0, [r0, #-0]
    31fc:	00000244 	andeq	r0, r0, r4, asr #4
    3200:	00532801 	subseq	r2, r3, r1, lsl #16
    3204:	03050000 	movweq	r0, #20480	; 0x5000
    3208:	01513b38 	cmpeq	r1, r8, lsr fp
    320c:	00091f45 	andeq	r1, r9, r5, asr #30
    3210:	8c290100 	stfhis	f0, [r9], #-0
    3214:	05000013 	streq	r0, [r0, #-19]
    3218:	50311c03 	eorspl	r1, r1, r3, lsl #24
    321c:	01370701 	teqeq	r7, r1, lsl #14
    3220:	3f460000 	svccc	0x00460000
    3224:	0800000a 	stmdaeq	r0, {r1, r3}
    3228:	00008f47 	andeq	r8, r0, r7, asr #30
    322c:	0013b000 	andseq	fp, r3, r0
    3230:	008f4700 	addeq	r4, pc, r0, lsl #14
    3234:	33470000 	movtcc	r0, #28672	; 0x7000
    3238:	47000000 	strmi	r0, [r0, -r0]
    323c:	00000048 	andeq	r0, r0, r8, asr #32
    3240:	09f54800 	ldmibeq	r5!, {fp, lr}^
    3244:	0d060000 	stceq	0, cr0, [r6, #-0]
    3248:	0013c203 	andseq	ip, r3, r3, lsl #4
    324c:	002c4700 	eoreq	r4, ip, r0, lsl #14
    3250:	41000000 	mrsmi	r0, (UNDEF: 0)
    3254:	000003c7 	andeq	r0, r0, r7, asr #7
    3258:	33015a01 	movwcc	r5, #6657	; 0x1a01
    325c:	d4000000 	strle	r0, [r0], #-0
    3260:	18000013 	stmdane	r0, {r0, r1, r4}
    3264:	09e94800 	stmibeq	r9!, {fp, lr}^
    3268:	f0060000 			; <UNDEFINED> instruction: 0xf0060000
    326c:	0013eb02 	andseq	lr, r3, r2, lsl #22
    3270:	002c4700 	eoreq	r4, ip, r0, lsl #14
    3274:	2c470000 	marcs	acc0, r0, r7
    3278:	00000000 	andeq	r0, r0, r0
    327c:	0002c749 	andeq	ip, r2, r9, asr #14
    3280:	034d0600 	movteq	r0, #54784	; 0xd600
    3284:	00000033 	andeq	r0, r0, r3, lsr r0
    3288:	00001402 	andeq	r1, r0, r2, lsl #8
    328c:	00009147 	andeq	r9, r0, r7, asr #2
    3290:	41001800 	tstmi	r0, r0, lsl #16
    3294:	000002f9 	strdeq	r0, [r0], -r9
    3298:	33018a01 	movwcc	r8, #6657	; 0x1a01
    329c:	14000000 	strne	r0, [r0], #-0
    32a0:	18000014 	stmdane	r0, {r2, r4}
    32a4:	0a2d4100 	beq	b536ac <_back_addr-0x9ac954>
    32a8:	6e010000 	cdpvs	0, 0, cr0, cr1, cr0, {0}
    32ac:	00003301 	andeq	r3, r0, r1, lsl #6
    32b0:	00142600 	andseq	r2, r4, r0, lsl #12
    32b4:	41001800 	tstmi	r0, r0, lsl #16
    32b8:	00000972 	andeq	r0, r0, r2, ror r9
    32bc:	33017501 	movwcc	r7, #5377	; 0x1501
    32c0:	38000000 	stmdacc	r0, {}	; <UNPREDICTABLE>
    32c4:	18000014 	stmdane	r0, {r2, r4}
    32c8:	04f51700 	ldrbteq	r1, [r5], #1792	; 0x700
    32cc:	6c010000 	stcvs	0, cr0, [r1], {-0}
    32d0:	00003301 	andeq	r3, r0, r1, lsl #6
    32d4:	00001800 	andeq	r1, r0, r0, lsl #16
    32d8:	000017ae 	andeq	r1, r0, lr, lsr #15
    32dc:	0bd20004 	bleq	ff4832f4 <__bss_end__+0xfdf6f7b4>
    32e0:	01040000 	mrseq	r0, (UNDEF: 4)
    32e4:	00000060 	andeq	r0, r0, r0, rrx
    32e8:	000ae001 	andeq	lr, sl, r1
    32ec:	00044800 	andeq	r4, r4, r0, lsl #16
    32f0:	501a1400 	andspl	r1, sl, r0, lsl #8
    32f4:	000c0001 	andeq	r0, ip, r1
    32f8:	000b9a00 	andeq	r9, fp, r0, lsl #20
    32fc:	07040200 	streq	r0, [r4, -r0, lsl #4]
    3300:	0000003b 	andeq	r0, r0, fp, lsr r0
    3304:	f0070402 			; <UNDEFINED> instruction: 0xf0070402
    3308:	02000001 	andeq	r0, r0, #1
    330c:	00100801 	andseq	r0, r0, r1, lsl #16
    3310:	01020000 	mrseq	r0, (UNDEF: 2)
    3314:	00001206 	andeq	r1, r0, r6, lsl #4
    3318:	07020200 	streq	r0, [r2, -r0, lsl #4]
    331c:	0000001e 	andeq	r0, r0, lr, lsl r0
    3320:	56050202 	strpl	r0, [r5], -r2, lsl #4
    3324:	03000000 	movweq	r0, #0
    3328:	6e690504 	cdpvs	5, 6, cr0, cr9, cr4, {0}
    332c:	08020074 	stmdaeq	r2, {r2, r4, r5, r6}
    3330:	00003107 	andeq	r3, r0, r7, lsl #2
    3334:	05080200 	streq	r0, [r8, #-512]	; 0x200
    3338:	00000048 	andeq	r0, r0, r8, asr #32
    333c:	36070402 	strcc	r0, [r7], -r2, lsl #8
    3340:	04000000 	streq	r0, [r0], #-0
    3344:	00000a60 	andeq	r0, r0, r0, ror #20
    3348:	0064e502 	rsbeq	lr, r4, r2, lsl #10
    334c:	04050000 	streq	r0, [r5], #-0
    3350:	0000007c 	andeq	r0, r0, ip, ror r0
    3354:	00008106 	andeq	r8, r0, r6, lsl #2
    3358:	08010200 	stmdaeq	r1, {r9}
    335c:	00000019 	andeq	r0, r0, r9, lsl r0
    3360:	8f030407 	svchi	0x00030407
    3364:	000000af 	andeq	r0, r0, pc, lsr #1
    3368:	00020708 	andeq	r0, r2, r8, lsl #14
    336c:	8b080000 	blhi	203374 <_back_addr-0x12fcc8c>
    3370:	01000003 	tsteq	r0, r3
    3374:	0003e208 	andeq	lr, r3, r8, lsl #4
    3378:	19080200 	stmdbne	r8, {r9}
    337c:	03000002 	movweq	r0, #2
    3380:	0002a208 	andeq	sl, r2, r8, lsl #4
    3384:	04000400 	streq	r0, [r0], #-1024	; 0x400
    3388:	00000360 	andeq	r0, r0, r0, ror #6
    338c:	00889503 	addeq	r9, r8, r3, lsl #10
    3390:	52090000 	andpl	r0, r9, #0
    3394:	f1010031 	setend	le
    3398:	00032501 	andeq	r2, r3, r1, lsl #10
    339c:	501a1400 	andspl	r1, sl, r0, lsl #8
    33a0:	0001bc01 	andeq	fp, r1, r1, lsl #24
    33a4:	259c0100 	ldrcs	r0, [ip, #256]	; 0x100
    33a8:	0a000003 	beq	33bc <_back_addr-0x14fcc44>
    33ac:	000008c9 	andeq	r0, r0, r9, asr #17
    33b0:	3301f101 	movwcc	pc, #4353	; 0x1101	; <UNPREDICTABLE>
    33b4:	89000000 	stmdbhi	r0, {}	; <UNPREDICTABLE>
    33b8:	0a000028 	beq	3460 <_back_addr-0x14fcba0>
    33bc:	000008a7 	andeq	r0, r0, r7, lsr #17
    33c0:	2501f101 	strcs	pc, [r1, #-257]	; 0x101
    33c4:	aa000003 	bge	33d8 <_back_addr-0x14fcc28>
    33c8:	0b000028 	bleq	3470 <_back_addr-0x14fcb90>
    33cc:	006e656c 	rsbeq	r6, lr, ip, ror #10
    33d0:	2501f101 	strcs	pc, [r1, #-257]	; 0x101
    33d4:	c8000000 	stmdagt	r0, {}	; <UNPREDICTABLE>
    33d8:	0c000028 	stceq	0, cr0, [r0], {40}	; 0x28
    33dc:	00746572 	rsbseq	r6, r4, r2, ror r5
    33e0:	4f01f301 	svcmi	0x0001f301
    33e4:	e6000000 	str	r0, [r0], -r0
    33e8:	0d000028 	stceq	0, cr0, [r0, #-160]	; 0xffffff60
    33ec:	f4010069 	vst4.16	{d0-d3}, [r1 :128], r9
    33f0:	00002501 	andeq	r2, r0, r1, lsl #10
    33f4:	6b0e0000 	blvs	3833fc <_back_addr-0x117cc04>
    33f8:	f601006b 			; <UNDEFINED> instruction: 0xf601006b
    33fc:	00032b01 	andeq	r2, r3, r1, lsl #22
    3400:	93019500 	movwls	r9, #5376	; 0x1500
    3404:	939f3201 	orrsls	r3, pc, #268435456	; 0x10000000
    3408:	939f3101 	orrsls	r3, pc, #1073741824	; 0x40000000
    340c:	9f210801 	svcls	0x00210801
    3410:	4a080193 	bmi	203a64 <_back_addr-0x12fc59c>
    3414:	0801939f 	stmdaeq	r1, {r0, r1, r2, r3, r4, r7, r8, r9, ip, pc}
    3418:	01939f2c 	orrseq	r9, r3, ip, lsr #30
    341c:	939f8509 	orrsls	r8, pc, #37748736	; 0x2400000
    3420:	9f820901 	svcls	0x00820901
    3424:	7a080193 	bvc	203a78 <_back_addr-0x12fc588>
    3428:	0801939f 	stmdaeq	r1, {r0, r1, r2, r3, r4, r7, r8, r9, ip, pc}
    342c:	01939f21 	orrseq	r9, r3, r1, lsr #30
    3430:	939f3408 	orrsls	r3, pc, #8, 8	; 0x8000000
    3434:	9f3d0801 	svcls	0x003d0801
    3438:	9f440193 	svcls	0x00440193
    343c:	01930193 			; <UNDEFINED> instruction: 0x01930193
    3440:	01939f44 	orrseq	r9, r3, r4, asr #30
    3444:	939f9909 	orrsls	r9, pc, #147456	; 0x24000
    3448:	9f200801 	svcls	0x00200801
    344c:	a2090193 	andge	r0, r9, #-1073741788	; 0xc0000024
    3450:	3201939f 	andcc	r9, r1, #2080374786	; 0x7c000002
    3454:	0801939f 	stmdaeq	r1, {r0, r1, r2, r3, r4, r7, r8, r9, ip, pc}
    3458:	01939f22 	orrseq	r9, r3, r2, lsr #30
    345c:	939fb509 	orrsls	fp, pc, #37748736	; 0x2400000
    3460:	939f4b01 	orrsls	r4, pc, #1024	; 0x400
    3464:	9f210801 	svcls	0x00210801
    3468:	9f4a0193 	svcls	0x004a0193
    346c:	71080193 			; <UNDEFINED> instruction: 0x71080193
    3470:	0801939f 	stmdaeq	r1, {r0, r1, r2, r3, r4, r7, r8, r9, ip, pc}
    3474:	01939f22 	orrseq	r9, r3, r2, lsr #30
    3478:	939fa009 	orrsls	sl, pc, #9
    347c:	9f2d0801 	svcls	0x002d0801
    3480:	31080193 			; <UNDEFINED> instruction: 0x31080193
    3484:	3a01939f 	bcc	68308 <_back_addr-0x1497cf8>
    3488:	0801939f 	stmdaeq	r1, {r0, r1, r2, r3, r4, r7, r8, r9, ip, pc}
    348c:	01939f34 	orrseq	r9, r3, r4, lsr pc
    3490:	939f2908 	orrsls	r2, pc, #8, 18	; 0x20000
    3494:	03e09301 	mvneq	r9, #67108864	; 0x4000000
    3498:	3631720e 	ldrtcc	r7, [r1], -lr, lsl #4
    349c:	02080100 	andeq	r0, r8, #0, 2
    34a0:	0000033c 	andeq	r0, r0, ip, lsr r3
    34a4:	0f589102 	svceq	0x00589102
    34a8:	000009e9 	andeq	r0, r0, r9, ror #19
    34ac:	004f7501 	subeq	r7, pc, r1, lsl #10
    34b0:	01e00000 	mvneq	r0, r0
    34b4:	00100000 	andseq	r0, r0, r0
    34b8:	501ad411 	andspl	sp, sl, r1, lsl r4
    34bc:	00006c01 	andeq	r6, r0, r1, lsl #24
    34c0:	00025500 	andeq	r5, r2, r0, lsl #10
    34c4:	09e90f00 	stmibeq	r9!, {r8, r9, sl, fp}^
    34c8:	75010000 	strvc	r0, [r1, #-0]
    34cc:	0000004f 	andeq	r0, r0, pc, asr #32
    34d0:	000001fe 	strdeq	r0, [r0], -lr
    34d4:	e8120010 	ldmda	r2, {r4}
    34d8:	7e01501a 	mcrvc	0, 0, r5, cr1, cr10, {0}
    34dc:	24000016 	strcs	r0, [r0], #-22
    34e0:	13000002 	movwne	r0, #2
    34e4:	76025001 	strvc	r5, [r2], -r1
    34e8:	51011300 	mrspl	r1, SP_irq
    34ec:	13007502 	movwne	r7, #1282	; 0x502
    34f0:	74025201 	strvc	r5, [r2], #-513	; 0x201
    34f4:	53011300 	movwpl	r1, #4864	; 0x1300
    34f8:	00007d02 	andeq	r7, r0, r2, lsl #26
    34fc:	501af412 	andspl	pc, sl, r2, lsl r4	; <UNPREDICTABLE>
    3500:	0016a801 	andseq	sl, r6, r1, lsl #16
    3504:	00023e00 	andeq	r3, r2, r0, lsl #28
    3508:	50011300 	andpl	r1, r1, r0, lsl #6
    350c:	13007402 	movwne	r7, #1026	; 0x402
    3510:	75025101 	strvc	r5, [r2, #-257]	; 0x101
    3514:	40140000 	andsmi	r0, r4, r0
    3518:	a801501b 	stmdage	r1, {r0, r1, r3, r4, ip, lr}
    351c:	13000016 	movwne	r0, #22
    3520:	74025001 	strvc	r5, [r2], #-1
    3524:	51011300 	mrspl	r1, SP_irq
    3528:	00007502 	andeq	r7, r0, r2, lsl #10
    352c:	1b6c1100 	blne	1b07934 <__bss_end__+0x5f3df4>
    3530:	00600150 	rsbeq	r0, r0, r0, asr r1
    3534:	02b00000 	adcseq	r0, r0, #0
    3538:	e90f0000 	stmdb	pc, {}	; <UNPREDICTABLE>
    353c:	01000009 	tsteq	r0, r9
    3540:	00004f75 	andeq	r4, r0, r5, ror pc
    3544:	00027300 	andeq	r7, r2, r0, lsl #6
    3548:	12001000 	andne	r1, r0, #0
    354c:	01501bc0 	cmpeq	r0, r0, asr #23
    3550:	000016b9 			; <UNDEFINED> instruction: 0x000016b9
    3554:	00000299 	muleq	r0, r9, r2
    3558:	02500113 	subseq	r0, r0, #-1073741820	; 0xc0000004
    355c:	01130076 	tsteq	r3, r6, ror r0
    3560:	00750251 	rsbseq	r0, r5, r1, asr r2
    3564:	02520113 	subseq	r0, r2, #-1073741820	; 0xc0000004
    3568:	01130074 	tsteq	r3, r4, ror r0
    356c:	007d0253 	rsbseq	r0, sp, r3, asr r2
    3570:	1bcc1400 	blne	ff308578 <__bss_end__+0xfddf4a38>
    3574:	16a80150 	ssatne	r0, #9, r0, asr #2
    3578:	01130000 	tsteq	r3, r0
    357c:	00740250 	rsbseq	r0, r4, r0, asr r2
    3580:	02510113 	subseq	r0, r1, #-1073741820	; 0xc0000004
    3584:	00000075 	andeq	r0, r0, r5, ror r0
    3588:	501a3c12 	andspl	r3, sl, r2, lsl ip
    358c:	0016dd01 	andseq	sp, r6, r1, lsl #26
    3590:	0002cf00 	andeq	ip, r2, r0, lsl #30
    3594:	50011300 	andpl	r1, r1, r0, lsl #6
    3598:	13007d02 	movwne	r7, #3330	; 0xd02
    359c:	30015101 	andcc	r5, r1, r1, lsl #2
    35a0:	02520113 	subseq	r0, r2, #-1073741820	; 0xc0000004
    35a4:	12000075 	andne	r0, r0, #117	; 0x75
    35a8:	01501acc 	cmpeq	r0, ip, asr #21
    35ac:	000016dd 	ldrdeq	r1, [r0], -sp
    35b0:	000002ef 	andeq	r0, r0, pc, ror #5
    35b4:	02500113 	subseq	r0, r0, #-1073741820	; 0xc0000004
    35b8:	01130074 	tsteq	r3, r4, ror r0
    35bc:	13300151 	teqne	r0, #1073741844	; 0x40000014
    35c0:	0a035201 	beq	d7dcc <_back_addr-0x1428234>
    35c4:	12000400 	andne	r0, r0, #0, 8
    35c8:	01501b50 	cmpeq	r0, r0, asr fp
    35cc:	000016dd 	ldrdeq	r1, [r0], -sp
    35d0:	0000030e 	andeq	r0, r0, lr, lsl #6
    35d4:	02500113 	subseq	r0, r0, #-1073741820	; 0xc0000004
    35d8:	0113007d 	tsteq	r3, sp, ror r0
    35dc:	13300151 	teqne	r0, #1073741844	; 0x40000014
    35e0:	75025201 	strvc	r5, [r2, #-513]	; 0x201
    35e4:	5c140000 	ldcpl	0, cr0, [r4], {-0}
    35e8:	a801501b 	stmdage	r1, {r0, r1, r3, r4, ip, lr}
    35ec:	13000016 	movwne	r0, #22
    35f0:	7d025001 	stcvc	0, cr5, [r2, #-4]
    35f4:	51011300 	mrspl	r1, SP_irq
    35f8:	00007502 	andeq	r7, r0, r2, lsl #10
    35fc:	33040500 	movwcc	r0, #17664	; 0x4500
    3600:	15000000 	strne	r0, [r0, #-0]
    3604:	00000033 	andeq	r0, r0, r3, lsr r0
    3608:	0000033c 	andeq	r0, r0, ip, lsr r3
    360c:	00002c16 	andeq	r2, r0, r6, lsl ip
    3610:	0001ff00 	andeq	pc, r1, r0, lsl #30
    3614:	00003315 	andeq	r3, r0, r5, lsl r3
    3618:	00034c00 	andeq	r4, r3, r0, lsl #24
    361c:	002c1700 	eoreq	r1, ip, r0, lsl #14
    3620:	000f0000 	andeq	r0, pc, r0
    3624:	00305209 	eorseq	r5, r0, r9, lsl #4
    3628:	25024201 	strcs	r4, [r2, #-513]	; 0x201
    362c:	d0000000 	andle	r0, r0, r0
    3630:	f401501b 	vst4.8	{d5-d8}, [r1 :64], fp
    3634:	01000000 	mrseq	r0, (UNDEF: 0)
    3638:	0004949c 	muleq	r4, ip, r4
    363c:	0a9e0a00 	beq	fe785e44 <__bss_end__+0xfd272304>
    3640:	42010000 	andmi	r0, r1, #0
    3644:	00032502 	andeq	r2, r3, r2, lsl #10
    3648:	00290600 	eoreq	r0, r9, r0, lsl #12
    364c:	07d80a00 	ldrbeq	r0, [r8, r0, lsl #20]
    3650:	42010000 	andmi	r0, r1, #0
    3654:	00002502 	andeq	r2, r0, r2, lsl #10
    3658:	00292400 	eoreq	r2, r9, r0, lsl #8
    365c:	656c0b00 	strbvs	r0, [ip, #-2816]!	; 0xb00
    3660:	4201006e 	andmi	r0, r1, #110	; 0x6e
    3664:	00002502 	andeq	r2, r0, r2, lsl #10
    3668:	00294200 	eoreq	r4, r9, r0, lsl #4
    366c:	00690c00 	rsbeq	r0, r9, r0, lsl #24
    3670:	25024401 	strcs	r4, [r2, #-1025]	; 0x401
    3674:	60000000 	andvs	r0, r0, r0
    3678:	18000029 	stmdane	r0, {r0, r3, r5}
    367c:	00000ab3 			; <UNDEFINED> instruction: 0x00000ab3
    3680:	f0024501 			; <UNDEFINED> instruction: 0xf0024501
    3684:	1901501b 	stmdbne	r1, {r0, r1, r3, r4, ip, lr}
    3688:	00000269 	andeq	r0, r0, r9, ror #4
    368c:	4f024801 	svcmi	0x00024801
    3690:	c1000000 	mrsgt	r0, (UNDEF: 0)
    3694:	10000003 	andne	r0, r0, r3
    3698:	08050f00 	stmdaeq	r5, {r8, r9, sl, fp}
    369c:	d7010000 	strle	r0, [r1, -r0]
    36a0:	0000004f 	andeq	r0, r0, pc, asr #32
    36a4:	000003d2 	ldrdeq	r0, [r0], -r2
    36a8:	e90f0010 	stmdb	pc, {r4}	; <UNPREDICTABLE>
    36ac:	01000009 	tsteq	r0, r9
    36b0:	00004f75 	andeq	r4, r0, r5, ror pc
    36b4:	0003e300 	andeq	lr, r3, r0, lsl #6
    36b8:	19001000 	stmdbne	r0, {ip}
    36bc:	000002f9 	strdeq	r0, [r0], -r9
    36c0:	4f027a01 	svcmi	0x00027a01
    36c4:	f5000000 			; <UNDEFINED> instruction: 0xf5000000
    36c8:	10000003 	andne	r0, r0, r3
    36cc:	1bf41a00 	blne	ffd09ed4 <__bss_end__+0xfe7f6394>
    36d0:	16fe0150 	usatne	r0, #30, r0, asr #2
    36d4:	04120000 	ldreq	r0, [r2], #-0
    36d8:	0501501c 	streq	r5, [r1, #-28]
    36dc:	1e000017 	mcrne	0, 0, r0, cr0, cr7, {0}
    36e0:	13000004 	movwne	r0, #4
    36e4:	77025001 	strvc	r5, [r2, -r1]
    36e8:	51011300 	mrspl	r1, SP_irq
    36ec:	13007502 	movwne	r7, #1282	; 0x502
    36f0:	76025201 	strvc	r5, [r2], -r1, lsl #4
    36f4:	081a0000 	ldmdaeq	sl, {}	; <UNPREDICTABLE>
    36f8:	fe01501c 	mcr2	0, 0, r5, cr1, cr12, {0}
    36fc:	12000016 	andne	r0, r0, #22
    3700:	01501c1c 	cmpeq	r0, ip, lsl ip
    3704:	000016dd 	ldrdeq	r1, [r0], -sp
    3708:	00000440 	andeq	r0, r0, r0, asr #8
    370c:	01510113 	cmpeq	r1, r3, lsl r1
    3710:	52011330 	andpl	r1, r1, #48, 6	; 0xc0000000
    3714:	00007502 	andeq	r7, r0, r2, lsl #10
    3718:	501c3012 	andspl	r3, ip, r2, lsl r0
    371c:	00171701 	andseq	r1, r7, r1, lsl #14
    3720:	00045a00 	andeq	r5, r4, r0, lsl #20
    3724:	50011300 	andpl	r1, r1, r0, lsl #6
    3728:	13007702 	movwne	r7, #1794	; 0x702
    372c:	75025201 	strvc	r5, [r2, #-513]	; 0x201
    3730:	40120000 	andsmi	r0, r2, r0
    3734:	a801501c 	stmdage	r1, {r2, r3, r4, ip, lr}
    3738:	6e000016 	mcrvs	0, 0, r0, cr0, cr6, {0}
    373c:	13000004 	movwne	r0, #4
    3740:	75025101 	strvc	r5, [r2, #-257]	; 0x101
    3744:	441a0000 	ldrmi	r0, [sl], #-0
    3748:	fe01501c 	mcr2	0, 0, r5, cr1, cr12, {0}
    374c:	1a000016 	bne	37ac <_back_addr-0x14fc854>
    3750:	01501c48 	cmpeq	r0, r8, asr #24
    3754:	000016fe 	strdeq	r1, [r0], -lr
    3758:	501c9414 	andspl	r9, ip, r4, lsl r4
    375c:	00172801 	andseq	r2, r7, r1, lsl #16
    3760:	50011300 	andpl	r1, r1, r0, lsl #6
    3764:	31680305 	cmncc	r8, r5, lsl #6
    3768:	00000150 	andeq	r0, r0, r0, asr r1
    376c:	0001f91b 	andeq	pc, r1, fp, lsl r9	; <UNPREDICTABLE>
    3770:	4f180100 	svcmi	0x00180100
    3774:	c4000000 	strgt	r0, [r0], #-0
    3778:	8401501c 	strhi	r5, [r1], #-28
    377c:	01000006 	tsteq	r0, r6
    3780:	000ffb9c 	muleq	pc, ip, fp	; <UNPREDICTABLE>
    3784:	10461c00 	subne	r1, r6, r0, lsl #24
    3788:	18010000 	stmdane	r1, {}	; <UNPREDICTABLE>
    378c:	000000af 	andeq	r0, r0, pc, lsr #1
    3790:	00002980 	andeq	r2, r0, r0, lsl #19
    3794:	000af11c 	andeq	pc, sl, ip, lsl r1	; <UNPREDICTABLE>
    3798:	25180100 	ldrcs	r0, [r8, #-256]	; 0x100
    379c:	de000003 	cdple	0, 0, cr0, cr0, cr3, {0}
    37a0:	1c000029 	stcne	0, cr0, [r0], {41}	; 0x29
    37a4:	00000abf 			; <UNDEFINED> instruction: 0x00000abf
    37a8:	03251801 	teqeq	r5, #65536	; 0x10000
    37ac:	29fc0000 	ldmibcs	ip!, {}^	; <UNPREDICTABLE>
    37b0:	ca1c0000 	bgt	7037b8 <_back_addr-0xdfc848>
    37b4:	0100000a 	tsteq	r0, sl
    37b8:	00032518 	andeq	r2, r3, r8, lsl r5
    37bc:	002a1a00 	eoreq	r1, sl, r0, lsl #20
    37c0:	0ad51d00 	beq	ff54abc8 <__bss_end__+0xfe037088>
    37c4:	18010000 	stmdane	r1, {}	; <UNPREDICTABLE>
    37c8:	00000325 	andeq	r0, r0, r5, lsr #6
    37cc:	1e009102 	mvfnes	f1, f2
    37d0:	006e656c 	rsbeq	r6, lr, ip, ror #10
    37d4:	00251801 	eoreq	r1, r5, r1, lsl #16
    37d8:	2a380000 	bcs	e037e0 <_back_addr-0x6fc820>
    37dc:	721f0000 	andsvc	r0, pc, #0
    37e0:	01007465 	tsteq	r0, r5, ror #8
    37e4:	00004f1a 	andeq	r4, r0, sl, lsl pc
    37e8:	002a8b00 	eoreq	r8, sl, r0, lsl #22
    37ec:	6b6b2000 	blvs	1acb7f4 <__bss_end__+0x5b7cb4>
    37f0:	2b1b0100 	blcs	6c3bf8 <_back_addr-0xe3c408>
    37f4:	95000003 	strls	r0, [r0, #-3]
    37f8:	32019301 	andcc	r9, r1, #67108864	; 0x4000000
    37fc:	3101939f 			; <UNDEFINED> instruction: 0x3101939f
    3800:	0801939f 	stmdaeq	r1, {r0, r1, r2, r3, r4, r7, r8, r9, ip, pc}
    3804:	01939f21 	orrseq	r9, r3, r1, lsr #30
    3808:	939f4a08 	orrsls	r4, pc, #8, 20	; 0x8000
    380c:	9f2c0801 	svcls	0x002c0801
    3810:	85090193 	strhi	r0, [r9, #-403]	; 0x193
    3814:	0901939f 	stmdbeq	r1, {r0, r1, r2, r3, r4, r7, r8, r9, ip, pc}
    3818:	01939f82 	orrseq	r9, r3, r2, lsl #31
    381c:	939f7a08 	orrsls	r7, pc, #8, 20	; 0x8000
    3820:	9f210801 	svcls	0x00210801
    3824:	34080193 	strcc	r0, [r8], #-403	; 0x193
    3828:	0801939f 	stmdaeq	r1, {r0, r1, r2, r3, r4, r7, r8, r9, ip, pc}
    382c:	01939f3d 	orrseq	r9, r3, sp, lsr pc
    3830:	01939f44 	orrseq	r9, r3, r4, asr #30
    3834:	9f440193 	svcls	0x00440193
    3838:	99090193 	stmdbls	r9, {r0, r1, r4, r7, r8}
    383c:	0801939f 	stmdaeq	r1, {r0, r1, r2, r3, r4, r7, r8, r9, ip, pc}
    3840:	01939f20 	orrseq	r9, r3, r0, lsr #30
    3844:	939fa209 	orrsls	sl, pc, #-1879048192	; 0x90000000
    3848:	939f3201 	orrsls	r3, pc, #268435456	; 0x10000000
    384c:	9f220801 	svcls	0x00220801
    3850:	b5090193 	strlt	r0, [r9, #-403]	; 0x193
    3854:	4b01939f 	blmi	686d8 <_back_addr-0x1497928>
    3858:	0801939f 	stmdaeq	r1, {r0, r1, r2, r3, r4, r7, r8, r9, ip, pc}
    385c:	01939f21 	orrseq	r9, r3, r1, lsr #30
    3860:	01939f4a 	orrseq	r9, r3, sl, asr #30
    3864:	939f7108 	orrsls	r7, pc, #8, 2
    3868:	9f220801 	svcls	0x00220801
    386c:	a0090193 	mulge	r9, r3, r1
    3870:	0801939f 	stmdaeq	r1, {r0, r1, r2, r3, r4, r7, r8, r9, ip, pc}
    3874:	01939f2d 	orrseq	r9, r3, sp, lsr #30
    3878:	939f3108 	orrsls	r3, pc, #8, 2
    387c:	939f3a01 	orrsls	r3, pc, #4096	; 0x1000
    3880:	9f340801 	svcls	0x00340801
    3884:	29080193 	stmdbcs	r8, {r0, r1, r4, r7, r8}
    3888:	9301939f 	movwls	r9, #5023	; 0x139f
    388c:	722003e0 	eorvc	r0, r0, #224, 6	; 0x80000003
    3890:	01003031 	tsteq	r0, r1, lsr r0
    3894:	00033c2d 	andeq	r3, r3, sp, lsr #24
    3898:	f8910300 			; <UNDEFINED> instruction: 0xf8910300
    389c:	3172207a 	cmncc	r2, sl, ror r0
    38a0:	33010031 	movwcc	r0, #4145	; 0x1031
    38a4:	0000032b 	andeq	r0, r0, fp, lsr #6
    38a8:	7bd89103 	blvc	ff627cbc <__bss_end__+0xfe11417c>
    38ac:	32317220 	eorscc	r7, r1, #32, 4
    38b0:	3c340100 	ldfccs	f0, [r4], #-0
    38b4:	03000003 	movweq	r0, #3
    38b8:	207b8891 			; <UNDEFINED> instruction: 0x207b8891
    38bc:	00333172 	eorseq	r3, r3, r2, ror r1
    38c0:	033c3501 	teqeq	ip, #4194304	; 0x400000
    38c4:	91030000 	mrsls	r0, (UNDEF: 3)
    38c8:	72207b98 	eorvc	r7, r0, #152, 22	; 0x26000
    38cc:	01003431 	tsteq	r0, r1, lsr r4
    38d0:	00033c36 	andeq	r3, r3, r6, lsr ip
    38d4:	a8910300 	ldmge	r1, {r8, r9}
    38d8:	3172207b 	cmncc	r2, fp, ror r0
    38dc:	37010035 	smladxcc	r1, r5, r0, r0
    38e0:	0000033c 	andeq	r0, r0, ip, lsr r3
    38e4:	7bb89103 	blvc	fee27cf8 <__bss_end__+0xfd9141b8>
    38e8:	36317220 	ldrtcc	r7, [r1], -r0, lsr #4
    38ec:	3c380100 	ldfccs	f0, [r8], #-0
    38f0:	03000003 	movweq	r0, #3
    38f4:	217bc891 			; <UNDEFINED> instruction: 0x217bc891
    38f8:	39010069 	stmdbcc	r1, {r0, r3, r5, r6}
    38fc:	00000025 	andeq	r0, r0, r5, lsr #32
    3900:	0aab2200 	beq	feacc108 <__bss_end__+0xfd5b85c8>
    3904:	3a010000 	bcc	4390c <_back_addr-0x14bc6f4>
    3908:	00000ffb 	strdeq	r0, [r0], -fp
    390c:	7af49103 	bvc	ffd27d20 <__bss_end__+0xfe8141e0>
    3910:	000a9e23 	andeq	r9, sl, r3, lsr #28
    3914:	003b0100 	eorseq	r0, fp, r0, lsl #2
    3918:	30000010 	andcc	r0, r0, r0, lsl r0
    391c:	2400002b 	strcs	r0, [r0], #-43	; 0x2b
    3920:	000007d8 	ldrdeq	r0, [r0], -r8
    3924:	004f3c01 	subeq	r3, pc, r1, lsl #24
    3928:	25000000 	strcs	r0, [r0, #-0]
    392c:	00000540 	andeq	r0, r0, r0, asr #10
    3930:	00000fdc 	ldrdeq	r0, [r0], -ip
    3934:	0002620f 	andeq	r6, r2, pc, lsl #4
    3938:	4f730100 	svcmi	0x00730100
    393c:	6d000000 	stcvs	0, cr0, [r0, #-0]
    3940:	10000006 	andne	r0, r0, r6
    3944:	09e90f00 	stmibeq	r9!, {r8, r9, sl, fp}^
    3948:	75010000 	strvc	r0, [r1, #-0]
    394c:	0000004f 	andeq	r0, r0, pc, asr #32
    3950:	0000067e 	andeq	r0, r0, lr, ror r6
    3954:	050f0010 	streq	r0, [pc, #-16]	; 394c <_back_addr-0x14fc6b4>
    3958:	01000008 	tsteq	r0, r8
    395c:	00004fd7 	ldrdeq	r4, [r0], -r7
    3960:	00068f00 	andeq	r8, r6, r0, lsl #30
    3964:	12001000 	andne	r1, r0, #0
    3968:	01501dfc 	ldrsheq	r1, [r0, #-220]	; 0xffffff24
    396c:	0000173a 	andeq	r1, r0, sl, lsr r7
    3970:	000006b0 			; <UNDEFINED> instruction: 0x000006b0
    3974:	03500113 	cmpeq	r0, #-1073741820	; 0xc0000004
    3978:	137bd091 	cmnne	fp, #145	; 0x91
    397c:	79025101 	stmdbvc	r2, {r0, r8, ip, lr}
    3980:	52011300 	andpl	r1, r1, #0, 6
    3984:	00007402 	andeq	r7, r0, r2, lsl #8
    3988:	501e1012 	andspl	r1, lr, r2, lsl r0
    398c:	00167e01 	andseq	r7, r6, r1, lsl #28
    3990:	0006d800 	andeq	sp, r6, r0, lsl #16
    3994:	50011300 	andpl	r1, r1, r0, lsl #6
    3998:	7bd09103 	blvc	ff427dac <__bss_end__+0xfdf1426c>
    399c:	02510113 	subseq	r0, r1, #-1073741820	; 0xc0000004
    39a0:	01130074 	tsteq	r3, r4, ror r0
    39a4:	00750252 	rsbseq	r0, r5, r2, asr r2
    39a8:	03530113 	cmpeq	r3, #-1073741820	; 0xc0000004
    39ac:	007af091 			; <UNDEFINED> instruction: 0x007af091
    39b0:	501e1c12 	andspl	r1, lr, r2, lsl ip
    39b4:	0016a801 	andseq	sl, r6, r1, lsl #16
    39b8:	0006f200 	andeq	pc, r6, r0, lsl #4
    39bc:	50011300 	andpl	r1, r1, r0, lsl #6
    39c0:	13007502 	movwne	r7, #1282	; 0x502
    39c4:	74025101 	strvc	r5, [r2], #-257	; 0x101
    39c8:	2c120000 	ldccs	0, cr0, [r2], {-0}
    39cc:	3a01501e 	bcc	57a4c <_back_addr-0x14a85b4>
    39d0:	13000017 	movwne	r0, #23
    39d4:	13000007 	movwne	r0, #7
    39d8:	91035001 	tstls	r3, r1
    39dc:	01137b90 			; <UNDEFINED> instruction: 0x01137b90
    39e0:	00750251 	rsbseq	r0, r5, r1, asr r2
    39e4:	02520113 	subseq	r0, r2, #-1073741820	; 0xc0000004
    39e8:	12000074 	andne	r0, r0, #116	; 0x74
    39ec:	01501e38 	cmpeq	r0, r8, lsr lr
    39f0:	000016a8 	andeq	r1, r0, r8, lsr #13
    39f4:	0000072e 	andeq	r0, r0, lr, lsr #14
    39f8:	03500113 	cmpeq	r0, #-1073741820	; 0xc0000004
    39fc:	137b9091 	cmnne	fp, #145	; 0x91
    3a00:	74025101 	strvc	r5, [r2], #-257	; 0x101
    3a04:	44120000 	ldrmi	r0, [r2], #-0
    3a08:	a801501e 	stmdage	r1, {r1, r2, r3, r4, ip, lr}
    3a0c:	48000016 	stmdami	r0, {r1, r2, r4}
    3a10:	13000007 	movwne	r0, #7
    3a14:	7a025001 	bvc	97a20 <_back_addr-0x14685e0>
    3a18:	51011300 	mrspl	r1, SP_irq
    3a1c:	00007402 	andeq	r7, r0, r2, lsl #8
    3a20:	501e5412 	andspl	r5, lr, r2, lsl r4
    3a24:	00173a01 	andseq	r3, r7, r1, lsl #20
    3a28:	00076900 	andeq	r6, r7, r0, lsl #18
    3a2c:	50011300 	andpl	r1, r1, r0, lsl #6
    3a30:	7bd09103 	blvc	ff427e44 <__bss_end__+0xfdf14304>
    3a34:	02510113 	subseq	r0, r1, #-1073741820	; 0xc0000004
    3a38:	0113007a 	tsteq	r3, sl, ror r0
    3a3c:	00740252 	rsbseq	r0, r4, r2, asr r2
    3a40:	1e601200 	cdpne	2, 6, cr1, cr0, cr0, {0}
    3a44:	16a80150 	ssatne	r0, #9, r0, asr #2
    3a48:	07840000 	streq	r0, [r4, r0]
    3a4c:	01130000 	tsteq	r3, r0
    3a50:	d0910350 	addsle	r0, r1, r0, asr r3
    3a54:	5101137b 	tstpl	r1, fp, ror r3
    3a58:	00007402 	andeq	r7, r0, r2, lsl #8
    3a5c:	501e7412 	andspl	r7, lr, r2, lsl r4
    3a60:	00167e01 	andseq	r7, r6, r1, lsl #28
    3a64:	0007ac00 	andeq	sl, r7, r0, lsl #24
    3a68:	50011300 	andpl	r1, r1, r0, lsl #6
    3a6c:	7bd09103 	blvc	ff427e80 <__bss_end__+0xfdf14340>
    3a70:	02510113 	subseq	r0, r1, #-1073741820	; 0xc0000004
    3a74:	01130074 	tsteq	r3, r4, ror r0
    3a78:	00750252 	rsbseq	r0, r5, r2, asr r2
    3a7c:	03530113 	cmpeq	r3, #-1073741820	; 0xc0000004
    3a80:	007af091 			; <UNDEFINED> instruction: 0x007af091
    3a84:	501e8012 	andspl	r8, lr, r2, lsl r0
    3a88:	0016a801 	andseq	sl, r6, r1, lsl #16
    3a8c:	0007c600 	andeq	ip, r7, r0, lsl #12
    3a90:	50011300 	andpl	r1, r1, r0, lsl #6
    3a94:	13007502 	movwne	r7, #1282	; 0x502
    3a98:	74025101 	strvc	r5, [r2], #-257	; 0x101
    3a9c:	90120000 	andsls	r0, r2, r0
    3aa0:	3a01501e 	bcc	57b20 <_back_addr-0x14a84e0>
    3aa4:	e7000017 	smlad	r0, r7, r0, r0
    3aa8:	13000007 	movwne	r0, #7
    3aac:	91035001 	tstls	r3, r1
    3ab0:	01137ba0 	tsteq	r3, r0, lsr #23
    3ab4:	00750251 	rsbseq	r0, r5, r1, asr r2
    3ab8:	02520113 	subseq	r0, r2, #-1073741820	; 0xc0000004
    3abc:	12000074 	andne	r0, r0, #116	; 0x74
    3ac0:	01501e9c 			; <UNDEFINED> instruction: 0x01501e9c
    3ac4:	000016a8 	andeq	r1, r0, r8, lsr #13
    3ac8:	00000802 	andeq	r0, r0, r2, lsl #16
    3acc:	03500113 	cmpeq	r0, #-1073741820	; 0xc0000004
    3ad0:	137ba091 	cmnne	fp, #145	; 0x91
    3ad4:	74025101 	strvc	r5, [r2], #-257	; 0x101
    3ad8:	a8120000 	ldmdage	r2, {}	; <UNPREDICTABLE>
    3adc:	a801501e 	stmdage	r1, {r1, r2, r3, r4, ip, lr}
    3ae0:	1c000016 	stcne	0, cr0, [r0], {22}
    3ae4:	13000008 	movwne	r0, #8
    3ae8:	7b025001 	blvc	97af4 <_back_addr-0x146850c>
    3aec:	51011300 	mrspl	r1, SP_irq
    3af0:	00007402 	andeq	r7, r0, r2, lsl #8
    3af4:	501eb812 	andspl	fp, lr, r2, lsl r8
    3af8:	00173a01 	andseq	r3, r7, r1, lsl #20
    3afc:	00083d00 	andeq	r3, r8, r0, lsl #26
    3b00:	50011300 	andpl	r1, r1, r0, lsl #6
    3b04:	7bd09103 	blvc	ff427f18 <__bss_end__+0xfdf143d8>
    3b08:	02510113 	subseq	r0, r1, #-1073741820	; 0xc0000004
    3b0c:	0113007b 	tsteq	r3, fp, ror r0
    3b10:	00740252 	rsbseq	r0, r4, r2, asr r2
    3b14:	1ec41200 	cdpne	2, 12, cr1, cr4, cr0, {0}
    3b18:	16a80150 	ssatne	r0, #9, r0, asr #2
    3b1c:	08580000 	ldmdaeq	r8, {}^	; <UNPREDICTABLE>
    3b20:	01130000 	tsteq	r3, r0
    3b24:	d0910350 	addsle	r0, r1, r0, asr r3
    3b28:	5101137b 	tstpl	r1, fp, ror r3
    3b2c:	00007402 	andeq	r7, r0, r2, lsl #8
    3b30:	501ed812 	andspl	sp, lr, r2, lsl r8
    3b34:	00167e01 	andseq	r7, r6, r1, lsl #28
    3b38:	00088000 	andeq	r8, r8, r0
    3b3c:	50011300 	andpl	r1, r1, r0, lsl #6
    3b40:	7bd09103 	blvc	ff427f54 <__bss_end__+0xfdf14414>
    3b44:	02510113 	subseq	r0, r1, #-1073741820	; 0xc0000004
    3b48:	01130074 	tsteq	r3, r4, ror r0
    3b4c:	00750252 	rsbseq	r0, r5, r2, asr r2
    3b50:	03530113 	cmpeq	r3, #-1073741820	; 0xc0000004
    3b54:	007af091 			; <UNDEFINED> instruction: 0x007af091
    3b58:	501ee412 	andspl	lr, lr, r2, lsl r4
    3b5c:	0016a801 	andseq	sl, r6, r1, lsl #16
    3b60:	00089a00 	andeq	r9, r8, r0, lsl #20
    3b64:	50011300 	andpl	r1, r1, r0, lsl #6
    3b68:	13007502 	movwne	r7, #1282	; 0x502
    3b6c:	74025101 	strvc	r5, [r2], #-257	; 0x101
    3b70:	f4120000 			; <UNDEFINED> instruction: 0xf4120000
    3b74:	3a01501e 	bcc	57bf4 <_back_addr-0x14a840c>
    3b78:	bb000017 	bllt	3bdc <_back_addr-0x14fc424>
    3b7c:	13000008 	movwne	r0, #8
    3b80:	91035001 	tstls	r3, r1
    3b84:	01137bb0 			; <UNDEFINED> instruction: 0x01137bb0
    3b88:	00750251 	rsbseq	r0, r5, r1, asr r2
    3b8c:	02520113 	subseq	r0, r2, #-1073741820	; 0xc0000004
    3b90:	12000074 	andne	r0, r0, #116	; 0x74
    3b94:	01501f00 	cmpeq	r0, r0, lsl #30
    3b98:	000016a8 	andeq	r1, r0, r8, lsr #13
    3b9c:	000008d6 	ldrdeq	r0, [r0], -r6
    3ba0:	03500113 	cmpeq	r0, #-1073741820	; 0xc0000004
    3ba4:	137bb091 	cmnne	fp, #145	; 0x91
    3ba8:	74025101 	strvc	r5, [r2], #-257	; 0x101
    3bac:	0c120000 	ldceq	0, cr0, [r2], {-0}
    3bb0:	a801501f 	stmdage	r1, {r0, r1, r2, r3, r4, ip, lr}
    3bb4:	f1000016 	cps	#22
    3bb8:	13000008 	movwne	r0, #8
    3bbc:	91035001 	tstls	r3, r1
    3bc0:	01130678 	tsteq	r3, r8, ror r6
    3bc4:	00740251 	rsbseq	r0, r4, r1, asr r2
    3bc8:	1f1c1200 	svcne	0x001c1200
    3bcc:	173a0150 			; <UNDEFINED> instruction: 0x173a0150
    3bd0:	09130000 	ldmdbeq	r3, {}	; <UNPREDICTABLE>
    3bd4:	01130000 	tsteq	r3, r0
    3bd8:	d0910350 	addsle	r0, r1, r0, asr r3
    3bdc:	5101137b 	tstpl	r1, fp, ror r3
    3be0:	06789103 	ldrbteq	r9, [r8], -r3, lsl #2
    3be4:	02520113 	subseq	r0, r2, #-1073741820	; 0xc0000004
    3be8:	12000074 	andne	r0, r0, #116	; 0x74
    3bec:	01501f28 	cmpeq	r0, r8, lsr #30
    3bf0:	000016a8 	andeq	r1, r0, r8, lsr #13
    3bf4:	0000092e 	andeq	r0, r0, lr, lsr #18
    3bf8:	03500113 	cmpeq	r0, #-1073741820	; 0xc0000004
    3bfc:	137bd091 	cmnne	fp, #145	; 0x91
    3c00:	74025101 	strvc	r5, [r2], #-257	; 0x101
    3c04:	3c120000 	ldccc	0, cr0, [r2], {-0}
    3c08:	7e01501f 	mcrvc	0, 0, r5, cr1, cr15, {0}
    3c0c:	56000016 			; <UNDEFINED> instruction: 0x56000016
    3c10:	13000009 	movwne	r0, #9
    3c14:	91035001 	tstls	r3, r1
    3c18:	01137bd0 			; <UNDEFINED> instruction: 0x01137bd0
    3c1c:	00740251 	rsbseq	r0, r4, r1, asr r2
    3c20:	02520113 	subseq	r0, r2, #-1073741820	; 0xc0000004
    3c24:	01130075 	tsteq	r3, r5, ror r0
    3c28:	f0910353 			; <UNDEFINED> instruction: 0xf0910353
    3c2c:	4812007a 	ldmdami	r2, {r1, r3, r4, r5, r6}
    3c30:	a801501f 	stmdage	r1, {r0, r1, r2, r3, r4, ip, lr}
    3c34:	70000016 	andvc	r0, r0, r6, lsl r0
    3c38:	13000009 	movwne	r0, #9
    3c3c:	75025001 	strvc	r5, [r2, #-1]
    3c40:	51011300 	mrspl	r1, SP_irq
    3c44:	00007402 	andeq	r7, r0, r2, lsl #8
    3c48:	501f5812 	andspl	r5, pc, r2, lsl r8	; <UNPREDICTABLE>
    3c4c:	00173a01 	andseq	r3, r7, r1, lsl #20
    3c50:	00099100 	andeq	r9, r9, r0, lsl #2
    3c54:	50011300 	andpl	r1, r1, r0, lsl #6
    3c58:	7bc09103 	blvc	ff02806c <__bss_end__+0xfdb1452c>
    3c5c:	02510113 	subseq	r0, r1, #-1073741820	; 0xc0000004
    3c60:	01130075 	tsteq	r3, r5, ror r0
    3c64:	00740252 	rsbseq	r0, r4, r2, asr r2
    3c68:	1f641200 	svcne	0x00641200
    3c6c:	16a80150 	ssatne	r0, #9, r0, asr #2
    3c70:	09ac0000 	stmibeq	ip!, {}	; <UNPREDICTABLE>
    3c74:	01130000 	tsteq	r3, r0
    3c78:	c0910350 	addsgt	r0, r1, r0, asr r3
    3c7c:	5101137b 	tstpl	r1, fp, ror r3
    3c80:	00007402 	andeq	r7, r0, r2, lsl #8
    3c84:	501f7412 	andspl	r7, pc, r2, lsl r4	; <UNPREDICTABLE>
    3c88:	0016dd01 	andseq	sp, r6, r1, lsl #26
    3c8c:	0009cd00 	andeq	ip, r9, r0, lsl #26
    3c90:	50011300 	andpl	r1, r1, r0, lsl #6
    3c94:	7b809103 	blvc	fe0280a8 <__bss_end__+0xfcb14568>
    3c98:	02510113 	subseq	r0, r1, #-1073741820	; 0xc0000004
    3c9c:	01130076 	tsteq	r3, r6, ror r0
    3ca0:	00740252 	rsbseq	r0, r4, r2, asr r2
    3ca4:	1f841200 	svcne	0x00841200
    3ca8:	17170150 			; <UNDEFINED> instruction: 0x17170150
    3cac:	09ef0000 	stmibeq	pc!, {}^	; <UNPREDICTABLE>
    3cb0:	01130000 	tsteq	r3, r0
    3cb4:	000a0350 	andeq	r0, sl, r0, asr r3
    3cb8:	51011310 	tstpl	r1, r0, lsl r3
    3cbc:	7b809103 	blvc	fe0280d0 <__bss_end__+0xfcb14590>
    3cc0:	02520113 	subseq	r0, r2, #-1073741820	; 0xc0000004
    3cc4:	12000074 	andne	r0, r0, #116	; 0x74
    3cc8:	01501f90 			; <UNDEFINED> instruction: 0x01501f90
    3ccc:	000016a8 	andeq	r1, r0, r8, lsr #13
    3cd0:	00000a0a 	andeq	r0, r0, sl, lsl #20
    3cd4:	03500113 	cmpeq	r0, #-1073741820	; 0xc0000004
    3cd8:	137b8091 	cmnne	fp, #145	; 0x91
    3cdc:	74025101 	strvc	r5, [r2], #-257	; 0x101
    3ce0:	941a0000 	ldrls	r0, [sl], #-0
    3ce4:	fe01501f 	mcr2	0, 0, r5, cr1, cr15, {0}
    3ce8:	12000016 	andne	r0, r0, #22
    3cec:	01501fa8 	cmpeq	r0, r8, lsr #31
    3cf0:	000016b9 			; <UNDEFINED> instruction: 0x000016b9
    3cf4:	00000a3c 	andeq	r0, r0, ip, lsr sl
    3cf8:	03500113 	cmpeq	r0, #-1073741820	; 0xc0000004
    3cfc:	137b8091 	cmnne	fp, #145	; 0x91
    3d00:	74025101 	strvc	r5, [r2], #-257	; 0x101
    3d04:	52011300 	andpl	r1, r1, #0, 6
    3d08:	7bd09103 	blvc	ff42811c <__bss_end__+0xfdf145dc>
    3d0c:	03530113 	cmpeq	r3, #-1073741820	; 0xc0000004
    3d10:	007b9091 			; <UNDEFINED> instruction: 0x007b9091
    3d14:	501fb412 	andspl	fp, pc, r2, lsl r4	; <UNPREDICTABLE>
    3d18:	0016a801 	andseq	sl, r6, r1, lsl #16
    3d1c:	000a5700 	andeq	r5, sl, r0, lsl #14
    3d20:	50011300 	andpl	r1, r1, r0, lsl #6
    3d24:	7bd09103 	blvc	ff428138 <__bss_end__+0xfdf145f8>
    3d28:	02510113 	subseq	r0, r1, #-1073741820	; 0xc0000004
    3d2c:	12000074 	andne	r0, r0, #116	; 0x74
    3d30:	01501fc4 	cmpeq	r0, r4, asr #31
    3d34:	000016dd 	ldrdeq	r1, [r0], -sp
    3d38:	00000a78 	andeq	r0, r0, r8, ror sl
    3d3c:	03500113 	cmpeq	r0, #-1073741820	; 0xc0000004
    3d40:	137b8091 	cmnne	fp, #145	; 0x91
    3d44:	76025101 	strvc	r5, [r2], -r1, lsl #2
    3d48:	52011300 	andpl	r1, r1, #0, 6
    3d4c:	00007402 	andeq	r7, r0, r2, lsl #8
    3d50:	501fd812 	andspl	sp, pc, r2, lsl r8	; <UNPREDICTABLE>
    3d54:	0016b901 	andseq	fp, r6, r1, lsl #18
    3d58:	000aa000 	andeq	sl, sl, r0
    3d5c:	50011300 	andpl	r1, r1, r0, lsl #6
    3d60:	7ba09103 	blvc	fe828174 <__bss_end__+0xfd314634>
    3d64:	02510113 	subseq	r0, r1, #-1073741820	; 0xc0000004
    3d68:	01130074 	tsteq	r3, r4, ror r0
    3d6c:	00750252 	rsbseq	r0, r5, r2, asr r2
    3d70:	03530113 	cmpeq	r3, #-1073741820	; 0xc0000004
    3d74:	007bd091 			; <UNDEFINED> instruction: 0x007bd091
    3d78:	501fe412 	andspl	lr, pc, r2, lsl r4	; <UNPREDICTABLE>
    3d7c:	0016a801 	andseq	sl, r6, r1, lsl #16
    3d80:	000aba00 	andeq	fp, sl, r0, lsl #20
    3d84:	50011300 	andpl	r1, r1, r0, lsl #6
    3d88:	13007502 	movwne	r7, #1282	; 0x502
    3d8c:	74025101 	strvc	r5, [r2], #-257	; 0x101
    3d90:	f0120000 			; <UNDEFINED> instruction: 0xf0120000
    3d94:	a801501f 	stmdage	r1, {r0, r1, r2, r3, r4, ip, lr}
    3d98:	d5000016 	strle	r0, [r0, #-22]
    3d9c:	1300000a 	movwne	r0, #10
    3da0:	91035001 	tstls	r3, r1
    3da4:	01137ba0 	tsteq	r3, r0, lsr #23
    3da8:	00740251 	rsbseq	r0, r4, r1, asr r2
    3dac:	20041200 	andcs	r1, r4, r0, lsl #4
    3db0:	034c0150 	movteq	r0, #49488	; 0xc150
    3db4:	0af60000 	beq	ffd83dbc <__bss_end__+0xfe87027c>
    3db8:	01130000 	tsteq	r3, r0
    3dbc:	00750250 	rsbseq	r0, r5, r0, asr r2
    3dc0:	03510113 	cmpeq	r1, #-1073741820	; 0xc0000004
    3dc4:	1309800a 	movwne	r8, #36874	; 0x900a
    3dc8:	74025201 	strvc	r5, [r2], #-513	; 0x201
    3dcc:	0c1a0000 	ldceq	0, cr0, [sl], {-0}
    3dd0:	fe015020 	cdp2	0, 0, cr5, cr1, cr0, {1}
    3dd4:	12000016 	andne	r0, r0, #22
    3dd8:	01502030 	cmpeq	r0, r0, lsr r0
    3ddc:	0000034c 	andeq	r0, r0, ip, asr #6
    3de0:	00000b21 	andeq	r0, r0, r1, lsr #22
    3de4:	02500113 	subseq	r0, r0, #-1073741820	; 0xc0000004
    3de8:	01130079 	tsteq	r3, r9, ror r0
    3dec:	200a0351 	andcs	r0, sl, r1, asr r3
    3df0:	5201130d 	andpl	r1, r1, #872415232	; 0x34000000
    3df4:	067c9103 	ldrbteq	r9, [ip], -r3, lsl #2
    3df8:	20341a00 	eorscs	r1, r4, r0, lsl #20
    3dfc:	16fe0150 	usatne	r0, #30, r0, asr #2
    3e00:	58120000 	ldmdapl	r2, {}	; <UNPREDICTABLE>
    3e04:	dd015020 	stcle	0, cr5, [r1, #-128]	; 0xffffff80
    3e08:	4a000016 	bmi	3e68 <_back_addr-0x14fc198>
    3e0c:	1300000b 	movwne	r0, #11
    3e10:	91035001 	tstls	r3, r1
    3e14:	01137b80 	tsteq	r3, r0, lsl #23
    3e18:	00760251 	rsbseq	r0, r6, r1, asr r2
    3e1c:	01520113 	cmpeq	r2, r3, lsl r1
    3e20:	d8120040 	ldmdale	r2, {r6}
    3e24:	3a015020 	bcc	57eac <_back_addr-0x14a8154>
    3e28:	6b000017 	blvs	3e8c <_back_addr-0x14fc174>
    3e2c:	1300000b 	movwne	r0, #11
    3e30:	91035001 	tstls	r3, r1
    3e34:	01137bd0 			; <UNDEFINED> instruction: 0x01137bd0
    3e38:	00790251 	rsbseq	r0, r9, r1, asr r2
    3e3c:	02520113 	subseq	r0, r2, #-1073741820	; 0xc0000004
    3e40:	12000074 	andne	r0, r0, #116	; 0x74
    3e44:	015020ec 	cmpeq	r0, ip, ror #1
    3e48:	0000167e 	andeq	r1, r0, lr, ror r6
    3e4c:	00000b93 	muleq	r0, r3, fp
    3e50:	03500113 	cmpeq	r0, #-1073741820	; 0xc0000004
    3e54:	137bd091 	cmnne	fp, #145	; 0x91
    3e58:	74025101 	strvc	r5, [r2], #-257	; 0x101
    3e5c:	52011300 	andpl	r1, r1, #0, 6
    3e60:	13007502 	movwne	r7, #1282	; 0x502
    3e64:	91035301 	tstls	r3, r1, lsl #6
    3e68:	12007af0 	andne	r7, r0, #240, 20	; 0xf0000
    3e6c:	015020f8 	ldrsheq	r2, [r0, #-8]
    3e70:	000016a8 	andeq	r1, r0, r8, lsr #13
    3e74:	00000bad 	andeq	r0, r0, sp, lsr #23
    3e78:	02500113 	subseq	r0, r0, #-1073741820	; 0xc0000004
    3e7c:	01130075 	tsteq	r3, r5, ror r0
    3e80:	00740251 	rsbseq	r0, r4, r1, asr r2
    3e84:	21081200 	mrscs	r1, R8_fiq
    3e88:	173a0150 			; <UNDEFINED> instruction: 0x173a0150
    3e8c:	0bce0000 	bleq	ff383e94 <__bss_end__+0xfde70354>
    3e90:	01130000 	tsteq	r3, r0
    3e94:	90910350 	addsls	r0, r1, r0, asr r3
    3e98:	5101137b 	tstpl	r1, fp, ror r3
    3e9c:	13007502 	movwne	r7, #1282	; 0x502
    3ea0:	74025201 	strvc	r5, [r2], #-513	; 0x201
    3ea4:	14120000 	ldrne	r0, [r2], #-0
    3ea8:	a8015021 	stmdage	r1, {r0, r5, ip, lr}
    3eac:	e9000016 	stmdb	r0, {r1, r2, r4}
    3eb0:	1300000b 	movwne	r0, #11
    3eb4:	91035001 	tstls	r3, r1
    3eb8:	01137b90 			; <UNDEFINED> instruction: 0x01137b90
    3ebc:	00740251 	rsbseq	r0, r4, r1, asr r2
    3ec0:	21241200 	teqcs	r4, r0, lsl #4
    3ec4:	16dd0150 			; <UNDEFINED> instruction: 0x16dd0150
    3ec8:	0c090000 	stceq	0, cr0, [r9], {-0}
    3ecc:	01130000 	tsteq	r3, r0
    3ed0:	00750250 	rsbseq	r0, r5, r0, asr r2
    3ed4:	02510113 	subseq	r0, r1, #-1073741820	; 0xc0000004
    3ed8:	01130076 	tsteq	r3, r6, ror r0
    3edc:	00740252 	rsbseq	r0, r4, r2, asr r2
    3ee0:	21341200 	teqcs	r4, r0, lsl #4
    3ee4:	173a0150 			; <UNDEFINED> instruction: 0x173a0150
    3ee8:	0c2a0000 	stceq	0, cr0, [sl], #-0
    3eec:	01130000 	tsteq	r3, r0
    3ef0:	d0910350 	addsle	r0, r1, r0, asr r3
    3ef4:	5101137b 	tstpl	r1, fp, ror r3
    3ef8:	13007a02 	movwne	r7, #2562	; 0xa02
    3efc:	74025201 	strvc	r5, [r2], #-513	; 0x201
    3f00:	48120000 	ldmdami	r2, {}	; <UNPREDICTABLE>
    3f04:	7e015021 	cdpvc	0, 0, cr5, cr1, cr1, {1}
    3f08:	52000016 	andpl	r0, r0, #22
    3f0c:	1300000c 	movwne	r0, #12
    3f10:	91035001 	tstls	r3, r1
    3f14:	01137bd0 			; <UNDEFINED> instruction: 0x01137bd0
    3f18:	00740251 	rsbseq	r0, r4, r1, asr r2
    3f1c:	02520113 	subseq	r0, r2, #-1073741820	; 0xc0000004
    3f20:	01130075 	tsteq	r3, r5, ror r0
    3f24:	f0910353 			; <UNDEFINED> instruction: 0xf0910353
    3f28:	5412007a 	ldrpl	r0, [r2], #-122	; 0x7a
    3f2c:	a8015021 	stmdage	r1, {r0, r5, ip, lr}
    3f30:	6c000016 	stcvs	0, cr0, [r0], {22}
    3f34:	1300000c 	movwne	r0, #12
    3f38:	75025001 	strvc	r5, [r2, #-1]
    3f3c:	51011300 	mrspl	r1, SP_irq
    3f40:	00007402 	andeq	r7, r0, r2, lsl #8
    3f44:	50216412 	eorpl	r6, r1, r2, lsl r4
    3f48:	00173a01 	andseq	r3, r7, r1, lsl #20
    3f4c:	000c8d00 	andeq	r8, ip, r0, lsl #26
    3f50:	50011300 	andpl	r1, r1, r0, lsl #6
    3f54:	7ba09103 	blvc	fe828368 <__bss_end__+0xfd314828>
    3f58:	02510113 	subseq	r0, r1, #-1073741820	; 0xc0000004
    3f5c:	01130075 	tsteq	r3, r5, ror r0
    3f60:	00740252 	rsbseq	r0, r4, r2, asr r2
    3f64:	21701200 	cmncs	r0, r0, lsl #4
    3f68:	16a80150 	ssatne	r0, #9, r0, asr #2
    3f6c:	0ca80000 	stceq	0, cr0, [r8]
    3f70:	01130000 	tsteq	r3, r0
    3f74:	a0910350 	addsge	r0, r1, r0, asr r3
    3f78:	5101137b 	tstpl	r1, fp, ror r3
    3f7c:	00007402 	andeq	r7, r0, r2, lsl #8
    3f80:	50218012 	eorpl	r8, r1, r2, lsl r0
    3f84:	0016dd01 	andseq	sp, r6, r1, lsl #26
    3f88:	000cc800 	andeq	ip, ip, r0, lsl #16
    3f8c:	50011300 	andpl	r1, r1, r0, lsl #6
    3f90:	13007502 	movwne	r7, #1282	; 0x502
    3f94:	76025101 	strvc	r5, [r2], -r1, lsl #2
    3f98:	52011300 	andpl	r1, r1, #0, 6
    3f9c:	00007402 	andeq	r7, r0, r2, lsl #8
    3fa0:	50219412 	eorpl	r9, r1, r2, lsl r4
    3fa4:	0016b901 	andseq	fp, r6, r1, lsl #18
    3fa8:	000cf100 	andeq	pc, ip, r0, lsl #2
    3fac:	50011300 	andpl	r1, r1, r0, lsl #6
    3fb0:	7b809103 	blvc	fe0283c4 <__bss_end__+0xfcb14884>
    3fb4:	02510113 	subseq	r0, r1, #-1073741820	; 0xc0000004
    3fb8:	01130074 	tsteq	r3, r4, ror r0
    3fbc:	d0910352 	addsle	r0, r1, r2, asr r3
    3fc0:	5301137b 	movwpl	r1, #4987	; 0x137b
    3fc4:	7b909103 	blvc	fe4283d8 <__bss_end__+0xfcf14898>
    3fc8:	21a01200 	lslcs	r1, r0, #4
    3fcc:	16a80150 	ssatne	r0, #9, r0, asr #2
    3fd0:	0d0c0000 	stceq	0, cr0, [ip, #-0]
    3fd4:	01130000 	tsteq	r3, r0
    3fd8:	d0910350 	addsle	r0, r1, r0, asr r3
    3fdc:	5101137b 	tstpl	r1, fp, ror r3
    3fe0:	00007402 	andeq	r7, r0, r2, lsl #8
    3fe4:	5021b012 	eorpl	fp, r1, r2, lsl r0
    3fe8:	0016dd01 	andseq	sp, r6, r1, lsl #26
    3fec:	000d2d00 	andeq	r2, sp, r0, lsl #26
    3ff0:	50011300 	andpl	r1, r1, r0, lsl #6
    3ff4:	7b809103 	blvc	fe028408 <__bss_end__+0xfcb148c8>
    3ff8:	02510113 	subseq	r0, r1, #-1073741820	; 0xc0000004
    3ffc:	01130076 	tsteq	r3, r6, ror r0
    4000:	00740252 	rsbseq	r0, r4, r2, asr r2
    4004:	21c41200 	biccs	r1, r4, r0, lsl #4
    4008:	16b90150 	ssatne	r0, #26, r0, asr #2
    400c:	0d550000 	ldcleq	0, cr0, [r5, #-0]
    4010:	01130000 	tsteq	r3, r0
    4014:	a0910350 	addsge	r0, r1, r0, asr r3
    4018:	5101137b 	tstpl	r1, fp, ror r3
    401c:	13007402 	movwne	r7, #1026	; 0x402
    4020:	75025201 	strvc	r5, [r2, #-513]	; 0x201
    4024:	53011300 	movwpl	r1, #4864	; 0x1300
    4028:	7bd09103 	blvc	ff42843c <__bss_end__+0xfdf148fc>
    402c:	21d01200 	bicscs	r1, r0, r0, lsl #4
    4030:	16a80150 	ssatne	r0, #9, r0, asr #2
    4034:	0d6f0000 	stcleq	0, cr0, [pc, #-0]	; 403c <_back_addr-0x14fbfc4>
    4038:	01130000 	tsteq	r3, r0
    403c:	00750250 	rsbseq	r0, r5, r0, asr r2
    4040:	02510113 	subseq	r0, r1, #-1073741820	; 0xc0000004
    4044:	12000074 	andne	r0, r0, #116	; 0x74
    4048:	015021e0 	cmpeq	r0, r0, ror #3
    404c:	000016dd 	ldrdeq	r1, [r0], -sp
    4050:	00000d90 	muleq	r0, r0, sp
    4054:	03500113 	cmpeq	r0, #-1073741820	; 0xc0000004
    4058:	137ba091 	cmnne	fp, #145	; 0x91
    405c:	76025101 	strvc	r5, [r2], -r1, lsl #2
    4060:	52011300 	andpl	r1, r1, #0, 6
    4064:	00007402 	andeq	r7, r0, r2, lsl #8
    4068:	5021f012 	eorpl	pc, r1, r2, lsl r0	; <UNPREDICTABLE>
    406c:	0016dd01 	andseq	sp, r6, r1, lsl #26
    4070:	000db100 	andeq	fp, sp, r0, lsl #2
    4074:	50011300 	andpl	r1, r1, r0, lsl #6
    4078:	7bd09103 	blvc	ff42848c <__bss_end__+0xfdf1494c>
    407c:	02510113 	subseq	r0, r1, #-1073741820	; 0xc0000004
    4080:	01130076 	tsteq	r3, r6, ror r0
    4084:	00740252 	rsbseq	r0, r4, r2, asr r2
    4088:	21fc1200 	mvnscs	r1, r0, lsl #4
    408c:	16a80150 	ssatne	r0, #9, r0, asr #2
    4090:	0dcc0000 	stcleq	0, cr0, [ip]
    4094:	01130000 	tsteq	r3, r0
    4098:	a0910350 	addsge	r0, r1, r0, asr r3
    409c:	5101137b 	tstpl	r1, fp, ror r3
    40a0:	00007402 	andeq	r7, r0, r2, lsl #8
    40a4:	50220812 	eorpl	r0, r2, r2, lsl r8
    40a8:	0016a801 	andseq	sl, r6, r1, lsl #16
    40ac:	000de700 	andeq	lr, sp, r0, lsl #14
    40b0:	50011300 	andpl	r1, r1, r0, lsl #6
    40b4:	7bd09103 	blvc	ff4284c8 <__bss_end__+0xfdf14988>
    40b8:	02510113 	subseq	r0, r1, #-1073741820	; 0xc0000004
    40bc:	12000074 	andne	r0, r0, #116	; 0x74
    40c0:	01502224 	cmpeq	r0, r4, lsr #4
    40c4:	0000034c 	andeq	r0, r0, ip, asr #6
    40c8:	00000e08 	andeq	r0, r0, r8, lsl #28
    40cc:	02500113 	subseq	r0, r0, #-1073741820	; 0xc0000004
    40d0:	01130075 	tsteq	r3, r5, ror r0
    40d4:	000a0351 	andeq	r0, sl, r1, asr r3
    40d8:	52011309 	andpl	r1, r1, #603979776	; 0x24000000
    40dc:	00007402 	andeq	r7, r0, r2, lsl #8
    40e0:	50223812 	eorpl	r3, r2, r2, lsl r8
    40e4:	0016dd01 	andseq	sp, r6, r1, lsl #26
    40e8:	000e2800 	andeq	r2, lr, r0, lsl #16
    40ec:	50011300 	andpl	r1, r1, r0, lsl #6
    40f0:	13007502 	movwne	r7, #1282	; 0x502
    40f4:	76025101 	strvc	r5, [r2], -r1, lsl #2
    40f8:	52011300 	andpl	r1, r1, #0, 6
    40fc:	00007402 	andeq	r7, r0, r2, lsl #8
    4100:	50223c1a 	eorpl	r3, r2, sl, lsl ip
    4104:	0016fe01 	andseq	pc, r6, r1, lsl #28
    4108:	225c1200 	subscs	r1, ip, #0, 4
    410c:	16b90150 	ssatne	r0, #26, r0, asr #2
    4110:	0e590000 	cdpeq	0, 5, cr0, cr9, cr0, {0}
    4114:	01130000 	tsteq	r3, r0
    4118:	b0910350 	addslt	r0, r1, r0, asr r3
    411c:	5101137b 	tstpl	r1, fp, ror r3
    4120:	13007402 	movwne	r7, #1026	; 0x402
    4124:	75025201 	strvc	r5, [r2, #-513]	; 0x201
    4128:	53011300 	movwpl	r1, #4864	; 0x1300
    412c:	7bd09103 	blvc	ff428540 <__bss_end__+0xfdf14a00>
    4130:	22681200 	rsbcs	r1, r8, #0, 4
    4134:	16a80150 	ssatne	r0, #9, r0, asr #2
    4138:	0e730000 	cdpeq	0, 7, cr0, cr3, cr0, {0}
    413c:	01130000 	tsteq	r3, r0
    4140:	00750250 	rsbseq	r0, r5, r0, asr r2
    4144:	02510113 	subseq	r0, r1, #-1073741820	; 0xc0000004
    4148:	12000074 	andne	r0, r0, #116	; 0x74
    414c:	01502274 	cmpeq	r0, r4, ror r2
    4150:	000016a8 	andeq	r1, r0, r8, lsr #13
    4154:	00000e8e 	andeq	r0, r0, lr, lsl #29
    4158:	03500113 	cmpeq	r0, #-1073741820	; 0xc0000004
    415c:	137bb091 	cmnne	fp, #145	; 0x91
    4160:	74025101 	strvc	r5, [r2], #-257	; 0x101
    4164:	88120000 	ldmdahi	r2, {}	; <UNPREDICTABLE>
    4168:	4c015022 	stcmi	0, cr5, [r1], {34}	; 0x22
    416c:	af000003 	svcge	0x00000003
    4170:	1300000e 	movwne	r0, #14
    4174:	75025001 	strvc	r5, [r2, #-1]
    4178:	51011300 	mrspl	r1, SP_irq
    417c:	11800a03 	orrne	r0, r0, r3, lsl #20
    4180:	02520113 	subseq	r0, r2, #-1073741820	; 0xc0000004
    4184:	1a000074 	bne	435c <_back_addr-0x14fbca4>
    4188:	01502290 			; <UNDEFINED> instruction: 0x01502290
    418c:	000016fe 	strdeq	r1, [r0], -lr
    4190:	5022ac12 	eorpl	sl, r2, r2, lsl ip
    4194:	0016b901 	andseq	fp, r6, r1, lsl #18
    4198:	000ee000 	andeq	lr, lr, r0
    419c:	50011300 	andpl	r1, r1, r0, lsl #6
    41a0:	7bc09103 	blvc	ff0285b4 <__bss_end__+0xfdb14a74>
    41a4:	02510113 	subseq	r0, r1, #-1073741820	; 0xc0000004
    41a8:	01130074 	tsteq	r3, r4, ror r0
    41ac:	00750252 	rsbseq	r0, r5, r2, asr r2
    41b0:	03530113 	cmpeq	r3, #-1073741820	; 0xc0000004
    41b4:	007bd091 			; <UNDEFINED> instruction: 0x007bd091
    41b8:	5022b812 	eorpl	fp, r2, r2, lsl r8
    41bc:	0016a801 	andseq	sl, r6, r1, lsl #16
    41c0:	000efa00 	andeq	pc, lr, r0, lsl #20
    41c4:	50011300 	andpl	r1, r1, r0, lsl #6
    41c8:	13007502 	movwne	r7, #1282	; 0x502
    41cc:	74025101 	strvc	r5, [r2], #-257	; 0x101
    41d0:	c4120000 	ldrgt	r0, [r2], #-0
    41d4:	a8015022 	stmdage	r1, {r1, r5, ip, lr}
    41d8:	15000016 	strne	r0, [r0, #-22]
    41dc:	1300000f 	movwne	r0, #15
    41e0:	91035001 	tstls	r3, r1
    41e4:	01137bc0 	tsteq	r3, r0, asr #23
    41e8:	00740251 	rsbseq	r0, r4, r1, asr r2
    41ec:	22d81200 	sbcscs	r1, r8, #0, 4
    41f0:	034c0150 	movteq	r0, #49488	; 0xc150
    41f4:	0f360000 	svceq	0x00360000
    41f8:	01130000 	tsteq	r3, r0
    41fc:	00750250 	rsbseq	r0, r5, r0, asr r2
    4200:	03510113 	cmpeq	r1, #-1073741820	; 0xc0000004
    4204:	1310800a 	tstne	r0, #10
    4208:	74025201 	strvc	r5, [r2], #-513	; 0x201
    420c:	e01a0000 	ands	r0, sl, r0
    4210:	fe015022 	cdp2	0, 0, cr5, cr1, cr2, {1}
    4214:	12000016 	andne	r0, r0, #22
    4218:	015022fc 	ldrsheq	r2, [r0, #-44]	; 0xffffffd4
    421c:	000016a8 	andeq	r1, r0, r8, lsr #13
    4220:	00000f5a 	andeq	r0, r0, sl, asr pc
    4224:	03500113 	cmpeq	r0, #-1073741820	; 0xc0000004
    4228:	137b9091 	cmnne	fp, #145	; 0x91
    422c:	74025101 	strvc	r5, [r2], #-257	; 0x101
    4230:	0c120000 	ldceq	0, cr0, [r2], {-0}
    4234:	ba015023 	blt	582c8 <_back_addr-0x14a7d38>
    4238:	7a000000 	bvc	4240 <_back_addr-0x14fbdc0>
    423c:	1300000f 	movwne	r0, #15
    4240:	31015001 	tstcc	r1, r1
    4244:	03510113 	cmpeq	r1, #-1073741820	; 0xc0000004
    4248:	137b9091 	cmnne	fp, #145	; 0x91
    424c:	74025201 	strvc	r5, [r2], #-513	; 0x201
    4250:	1c120000 	ldcne	0, cr0, [r2], {-0}
    4254:	3a015023 	bcc	582e8 <_back_addr-0x14a7d18>
    4258:	95000017 	strls	r0, [r0, #-23]
    425c:	1300000f 	movwne	r0, #15
    4260:	91035001 	tstls	r3, r1
    4264:	01137bd0 			; <UNDEFINED> instruction: 0x01137bd0
    4268:	00740252 	rsbseq	r0, r4, r2, asr r2
    426c:	23281200 	teqcs	r8, #0, 4
    4270:	16a80150 	ssatne	r0, #9, r0, asr #2
    4274:	0fb00000 	svceq	0x00b00000
    4278:	01130000 	tsteq	r3, r0
    427c:	d0910350 	addsle	r0, r1, r0, asr r3
    4280:	5101137b 	tstpl	r1, fp, ror r3
    4284:	00007402 	andeq	r7, r0, r2, lsl #8
    4288:	50233812 	eorpl	r3, r3, r2, lsl r8
    428c:	00034c01 	andeq	r4, r3, r1, lsl #24
    4290:	000fd200 	andeq	sp, pc, r0, lsl #4
    4294:	50011300 	andpl	r1, r1, r0, lsl #6
    4298:	7bd09103 	blvc	ff4286ac <__bss_end__+0xfdf14b6c>
    429c:	03510113 	cmpeq	r1, #-1073741820	; 0xc0000004
    42a0:	1311000a 	tstne	r1, #10
    42a4:	74025201 	strvc	r5, [r2], #-513	; 0x201
    42a8:	401a0000 	andsmi	r0, sl, r0
    42ac:	fe015023 	cdp2	0, 0, cr5, cr1, cr3, {1}
    42b0:	00000016 	andeq	r0, r0, r6, lsl r0
    42b4:	501dbc14 	andspl	fp, sp, r4, lsl ip
    42b8:	0016dd01 	andseq	sp, r6, r1, lsl #26
    42bc:	50011300 	andpl	r1, r1, r0, lsl #6
    42c0:	7bd09103 	blvc	ff4286d4 <__bss_end__+0xfdf14b94>
    42c4:	02510113 	subseq	r0, r1, #-1073741820	; 0xc0000004
    42c8:	01130076 	tsteq	r3, r6, ror r0
    42cc:	000a0352 	andeq	r0, sl, r2, asr r3
    42d0:	26000002 	strcs	r0, [r0], -r2
    42d4:	00000025 	andeq	r0, r0, r5, lsr #32
    42d8:	10060405 	andne	r0, r6, r5, lsl #8
    42dc:	33260000 	teqcc	r6, #0
    42e0:	27000000 	strcs	r0, [r0, -r0]
    42e4:	01003252 	tsteq	r0, r2, asr r2
    42e8:	004f027e 	subeq	r0, pc, lr, ror r2	; <UNPREDICTABLE>
    42ec:	23480000 	movtcs	r0, #32768	; 0x8000
    42f0:	02c40150 	sbceq	r0, r4, #80, 2
    42f4:	9c010000 	stcls	0, cr0, [r1], {-0}
    42f8:	000015ee 	andeq	r1, r0, lr, ror #11
    42fc:	0100690c 	tsteq	r0, ip, lsl #18
    4300:	004f0280 	subeq	r0, pc, r0, lsl #5
    4304:	2b700000 	blcs	1c0430c <__bss_end__+0x6f07cc>
    4308:	97280000 	strls	r0, [r8, -r0]!
    430c:	0100000a 	tsteq	r0, sl
    4310:	15ee0281 	strbne	r0, [lr, #641]!	; 0x281
    4314:	91030000 	mrsls	r0, (UNDEF: 3)
    4318:	ec2977f8 	stc	7, cr7, [r9], #-992	; 0xfffffc20
    431c:	0100000a 	tsteq	r0, sl
    4320:	00330282 	eorseq	r0, r3, r2, lsl #5
    4324:	0e000000 	cdpeq	0, 0, cr0, cr0, cr0, {0}
    4328:	00676973 	rsbeq	r6, r7, r3, ror r9
    432c:	ff028301 			; <UNDEFINED> instruction: 0xff028301
    4330:	03000015 	movweq	r0, #21
    4334:	2873f891 	ldmdacs	r3!, {r0, r4, r7, fp, ip, sp, lr, pc}^
    4338:	00000afb 	strdeq	r0, [r0], -fp
    433c:	ff028401 			; <UNDEFINED> instruction: 0xff028401
    4340:	03000015 	movweq	r0, #21
    4344:	0f75f891 	svceq	0x0075f891
    4348:	00000805 	andeq	r0, r0, r5, lsl #16
    434c:	004fd701 	subeq	sp, pc, r1, lsl #14
    4350:	10800000 	addne	r0, r0, r0
    4354:	00100000 	andseq	r0, r0, r0
    4358:	0005f019 	andeq	pc, r5, r9, lsl r0	; <UNPREDICTABLE>
    435c:	02930100 	addseq	r0, r3, #0, 2
    4360:	0000004f 	andeq	r0, r0, pc, asr #32
    4364:	00001092 	muleq	r0, r2, r0
    4368:	69190010 	ldmdbvs	r9, {r4}
    436c:	01000002 	tsteq	r0, r2
    4370:	004f0248 	subeq	r0, pc, r8, asr #4
    4374:	10a40000 	adcne	r0, r4, r0
    4378:	00100000 	andseq	r0, r0, r0
    437c:	00056825 	andeq	r6, r5, r5, lsr #16
    4380:	00116c00 	andseq	r6, r1, r0, lsl #24
    4384:	029b1900 	addseq	r1, fp, #0, 18
    4388:	b5010000 	strlt	r0, [r1, #-0]
    438c:	00004f02 	andeq	r4, r0, r2, lsl #30
    4390:	0010bf00 	andseq	fp, r0, r0, lsl #30
    4394:	11001000 	mrsne	r1, (UNDEF: 0)
    4398:	015025fc 	ldrsheq	r2, [r0, #-92]	; 0xffffffa4
    439c:	00000010 	andeq	r0, r0, r0, lsl r0
    43a0:	000010f2 	strdeq	r1, [r0], -r2
    43a4:	0002f919 	andeq	pc, r2, r9, lsl r9	; <UNPREDICTABLE>
    43a8:	027a0100 	rsbseq	r0, sl, #0, 2
    43ac:	0000004f 	andeq	r0, r0, pc, asr #32
    43b0:	000010de 	ldrdeq	r1, [r0], -lr
    43b4:	08140010 	ldmdaeq	r4, {r4}
    43b8:	28015026 	stmdacs	r1, {r1, r2, r5, ip, lr}
    43bc:	13000017 	movwne	r0, #23
    43c0:	03055001 	movweq	r5, #20481	; 0x5001
    43c4:	015031a8 	cmpeq	r0, r8, lsr #3
    43c8:	74120000 	ldrvc	r0, [r2], #-0
    43cc:	17015025 	strne	r5, [r1, -r5, lsr #32]
    43d0:	14000017 	strne	r0, [r0], #-23
    43d4:	13000011 	movwne	r0, #17
    43d8:	0a035001 	beq	d83e4 <_back_addr-0x1427c1c>
    43dc:	01131200 	tsteq	r3, r0, lsl #4
    43e0:	f0910351 			; <UNDEFINED> instruction: 0xf0910351
    43e4:	52011375 	andpl	r1, r1, #-738197503	; 0xd4000001
    43e8:	00200802 	eoreq	r0, r0, r2, lsl #16
    43ec:	5025781a 	eorpl	r7, r5, sl, lsl r8
    43f0:	0016fe01 	andseq	pc, r6, r1, lsl #28
    43f4:	258c1200 	strcs	r1, [ip, #512]	; 0x200
    43f8:	174b0150 	smlsldne	r0, fp, r0, r1
    43fc:	11410000 	mrsne	r0, (UNDEF: 65)
    4400:	01130000 	tsteq	r3, r0
    4404:	98030550 	stmdals	r3, {r4, r6, r8, sl}
    4408:	13015031 	movwne	r5, #4145	; 0x1031
    440c:	91035101 	tstls	r3, r1, lsl #2
    4410:	011375f0 			; <UNDEFINED> instruction: 0x011375f0
    4414:	20080252 	andcs	r0, r8, r2, asr r2
    4418:	259c1200 	ldrcs	r1, [ip, #512]	; 0x200
    441c:	176d0150 			; <UNDEFINED> instruction: 0x176d0150
    4420:	11620000 	cmnne	r2, r0
    4424:	01130000 	tsteq	r3, r0
    4428:	007d0250 	rsbseq	r0, sp, r0, asr r2
    442c:	03510113 	cmpeq	r1, #-1073741820	; 0xc0000004
    4430:	1375f091 	cmnne	r5, #145	; 0x91
    4434:	08025201 	stmdaeq	r2, {r0, r9, ip, lr}
    4438:	a81a0020 	ldmdage	sl, {r5}
    443c:	fe015025 	cdp2	0, 0, cr5, cr1, cr5, {1}
    4440:	00000016 	andeq	r0, r0, r6, lsl r0
    4444:	5025b011 	eorpl	fp, r5, r1, lsl r0
    4448:	00000c01 	andeq	r0, r0, r1, lsl #24
    444c:	00119f00 	andseq	r9, r1, r0, lsl #30
    4450:	02f91900 	rscseq	r1, r9, #0, 18
    4454:	7a010000 	bvc	4445c <_back_addr-0x14bbba4>
    4458:	00004f02 	andeq	r4, r0, r2, lsl #30
    445c:	00118b00 	andseq	r8, r1, r0, lsl #22
    4460:	14001000 	strne	r1, [r0], #-0
    4464:	015025bc 	ldrheq	r2, [r0, #-92]	; 0xffffffa4
    4468:	00001728 	andeq	r1, r0, r8, lsr #14
    446c:	05500113 	ldrbeq	r0, [r0, #-275]	; 0x113
    4470:	5031bc03 	eorspl	fp, r1, r3, lsl #24
    4474:	12000001 	andne	r0, r0, #1
    4478:	01502364 	cmpeq	r0, r4, ror #6
    447c:	000016dd 	ldrdeq	r1, [r0], -sp
    4480:	000011c0 	andeq	r1, r0, r0, asr #3
    4484:	03500113 	cmpeq	r0, #-1073741820	; 0xc0000004
    4488:	1377f091 	cmnne	r7, #145	; 0x91
    448c:	30015101 	andcc	r5, r1, r1, lsl #2
    4490:	03520113 	cmpeq	r2, #-1073741820	; 0xc0000004
    4494:	0004000a 	andeq	r0, r4, sl
    4498:	50237412 	eorpl	r7, r3, r2, lsl r4
    449c:	0016dd01 	andseq	sp, r6, r1, lsl #26
    44a0:	0011e000 	andseq	lr, r1, r0
    44a4:	50011300 	andpl	r1, r1, r0, lsl #6
    44a8:	13007d02 	movwne	r7, #3330	; 0xd02
    44ac:	30015101 	andcc	r5, r1, r1, lsl #2
    44b0:	03520113 	cmpeq	r2, #-1073741820	; 0xc0000004
    44b4:	0001000a 	andeq	r0, r1, sl
    44b8:	50238412 	eorpl	r8, r3, r2, lsl r4
    44bc:	0016dd01 	andseq	sp, r6, r1, lsl #26
    44c0:	00120100 	andseq	r0, r2, r0, lsl #2
    44c4:	50011300 	andpl	r1, r1, r0, lsl #6
    44c8:	75f09103 	ldrbvc	r9, [r0, #259]!	; 0x103
    44cc:	01510113 	cmpeq	r1, r3, lsl r1
    44d0:	52011330 	andpl	r1, r1, #48, 6	; 0xc0000000
    44d4:	01000a03 	tsteq	r0, r3, lsl #20
    44d8:	23941200 	orrscs	r1, r4, #0, 4
    44dc:	17170150 			; <UNDEFINED> instruction: 0x17170150
    44e0:	12220000 	eorne	r0, r2, #0
    44e4:	01130000 	tsteq	r3, r0
    44e8:	13300150 	teqne	r0, #80, 2
    44ec:	91035101 	tstls	r3, r1, lsl #2
    44f0:	011377f0 			; <UNDEFINED> instruction: 0x011377f0
    44f4:	000a0352 	andeq	r0, sl, r2, asr r3
    44f8:	a4120001 	ldrge	r0, [r2], #-1
    44fc:	17015023 	strne	r5, [r1, -r3, lsr #32]
    4500:	44000017 	strmi	r0, [r0], #-23
    4504:	13000012 	movwne	r0, #18
    4508:	0a035001 	beq	d8514 <_back_addr-0x1427aec>
    450c:	01130800 	tsteq	r3, r0, lsl #16
    4510:	f0910351 			; <UNDEFINED> instruction: 0xf0910351
    4514:	52011379 	andpl	r1, r1, #-469762047	; 0xe4000001
    4518:	00200802 	eoreq	r0, r0, r2, lsl #16
    451c:	5023b412 	eorpl	fp, r3, r2, lsl r4
    4520:	00171701 	andseq	r1, r7, r1, lsl #14
    4524:	00126500 	andseq	r6, r2, r0, lsl #10
    4528:	50011300 	andpl	r1, r1, r0, lsl #6
    452c:	09000a03 	stmdbeq	r0, {r0, r1, r9, fp}
    4530:	03510113 	cmpeq	r1, #-1073741820	; 0xc0000004
    4534:	137a9091 	cmnne	sl, #145	; 0x91
    4538:	40015201 	andmi	r5, r1, r1, lsl #4
    453c:	23c41200 	biccs	r1, r4, #0, 4
    4540:	17170150 			; <UNDEFINED> instruction: 0x17170150
    4544:	12860000 	addne	r0, r6, #0
    4548:	01130000 	tsteq	r3, r0
    454c:	800a0350 	andhi	r0, sl, r0, asr r3
    4550:	51011309 	tstpl	r1, r9, lsl #6
    4554:	7aa09103 	bvc	fe828968 <__bss_end__+0xfd314e28>
    4558:	01520113 	cmpeq	r2, r3, lsl r1
    455c:	d4120040 	ldrle	r0, [r2], #-64	; 0x40
    4560:	17015023 	strne	r5, [r1, -r3, lsr #32]
    4564:	a7000017 	smladge	r0, r7, r0, r0
    4568:	13000012 	movwne	r0, #18
    456c:	0a035001 	beq	d8578 <_back_addr-0x1427a88>
    4570:	01130b00 	tsteq	r3, r0, lsl #22
    4574:	b0910351 	addslt	r0, r1, r1, asr r3
    4578:	5201137a 	andpl	r1, r1, #-402653183	; 0xe8000001
    457c:	12004001 	andne	r4, r0, #1
    4580:	015023e4 	cmpeq	r0, r4, ror #7
    4584:	00001717 	andeq	r1, r0, r7, lsl r7
    4588:	000012c8 	andeq	r1, r0, r8, asr #5
    458c:	03500113 	cmpeq	r0, #-1073741820	; 0xc0000004
    4590:	1310000a 	tstne	r0, #10
    4594:	91035101 	tstls	r3, r1, lsl #2
    4598:	01137ac0 	tsteq	r3, r0, asr #21
    459c:	00400152 	subeq	r0, r0, r2, asr r1
    45a0:	5023f412 	eorpl	pc, r3, r2, lsl r4	; <UNPREDICTABLE>
    45a4:	00171701 	andseq	r1, r7, r1, lsl #14
    45a8:	0012e900 	andseq	lr, r2, r0, lsl #18
    45ac:	50011300 	andpl	r1, r1, r0, lsl #6
    45b0:	10800a03 	addne	r0, r0, r3, lsl #20
    45b4:	03510113 	cmpeq	r1, #-1073741820	; 0xc0000004
    45b8:	137ad091 	cmnne	sl, #145	; 0x91
    45bc:	40015201 	andmi	r5, r1, r1, lsl #4
    45c0:	24041200 	strcs	r1, [r4], #-512	; 0x200
    45c4:	17170150 			; <UNDEFINED> instruction: 0x17170150
    45c8:	130a0000 	movwne	r0, #40960	; 0xa000
    45cc:	01130000 	tsteq	r3, r0
    45d0:	000a0350 	andeq	r0, sl, r0, asr r3
    45d4:	51011311 	tstpl	r1, r1, lsl r3
    45d8:	7ae09103 	bvc	ff8289ec <__bss_end__+0xfe314eac>
    45dc:	01520113 	cmpeq	r2, r3, lsl r1
    45e0:	14120040 	ldrne	r0, [r2], #-64	; 0x40
    45e4:	17015024 	strne	r5, [r1, -r4, lsr #32]
    45e8:	2b000017 	blcs	464c <_back_addr-0x14fb9b4>
    45ec:	13000013 	movwne	r0, #19
    45f0:	0a035001 	beq	d85fc <_back_addr-0x1427a04>
    45f4:	01131180 	tsteq	r3, r0, lsl #3
    45f8:	f0910351 			; <UNDEFINED> instruction: 0xf0910351
    45fc:	5201137a 	andpl	r1, r1, #-402653183	; 0xe8000001
    4600:	12004001 	andne	r4, r0, #1
    4604:	0150241c 	cmpeq	r0, ip, lsl r4
    4608:	0000177f 	andeq	r1, r0, pc, ror r7
    460c:	00001340 	andeq	r1, r0, r0, asr #6
    4610:	03500113 	cmpeq	r0, #-1073741820	; 0xc0000004
    4614:	000da20a 	andeq	sl, sp, sl, lsl #4
    4618:	50242812 	eorpl	r2, r4, r2, lsl r8
    461c:	00177f01 	andseq	r7, r7, r1, lsl #30
    4620:	00135500 	andseq	r5, r3, r0, lsl #10
    4624:	50011300 	andpl	r1, r1, r0, lsl #6
    4628:	0da40a03 	stceq	10, cr0, [r4, #12]!
    462c:	24341200 	ldrtcs	r1, [r4], #-512	; 0x200
    4630:	177f0150 			; <UNDEFINED> instruction: 0x177f0150
    4634:	136a0000 	cmnne	sl, #0
    4638:	01130000 	tsteq	r3, r0
    463c:	a60a0350 			; <UNDEFINED> instruction: 0xa60a0350
    4640:	4012000d 	andsmi	r0, r2, sp
    4644:	7f015024 	svcvc	0x00015024
    4648:	7f000017 	svcvc	0x00000017
    464c:	13000013 	movwne	r0, #19
    4650:	0a035001 	beq	d865c <_back_addr-0x14279a4>
    4654:	12000daf 	andne	r0, r0, #11200	; 0x2bc0
    4658:	0150244c 	cmpeq	r0, ip, asr #8
    465c:	0000177f 	andeq	r1, r0, pc, ror r7
    4660:	00001394 	muleq	r0, r4, r3
    4664:	03500113 	cmpeq	r0, #-1073741820	; 0xc0000004
    4668:	000db00a 	andeq	fp, sp, sl
    466c:	50245812 	eorpl	r5, r4, r2, lsl r8
    4670:	00177f01 	andseq	r7, r7, r1, lsl #30
    4674:	0013a900 	andseq	sl, r3, r0, lsl #18
    4678:	50011300 	andpl	r1, r1, r0, lsl #6
    467c:	0db10a03 	ldceq	10, cr0, [r1, #12]!
    4680:	24641200 	strbtcs	r1, [r4], #-512	; 0x200
    4684:	177f0150 			; <UNDEFINED> instruction: 0x177f0150
    4688:	13be0000 			; <UNDEFINED> instruction: 0x13be0000
    468c:	01130000 	tsteq	r3, r0
    4690:	b20a0350 	andlt	r0, sl, #80, 6	; 0x40000001
    4694:	7012000d 	andsvc	r0, r2, sp
    4698:	7f015024 	svcvc	0x00015024
    469c:	d3000017 	movwle	r0, #23
    46a0:	13000013 	movwne	r0, #19
    46a4:	0a035001 	beq	d86b0 <_back_addr-0x1427950>
    46a8:	12000db3 	andne	r0, r0, #11456	; 0x2cc0
    46ac:	0150247c 	cmpeq	r0, ip, ror r4
    46b0:	0000177f 	andeq	r1, r0, pc, ror r7
    46b4:	000013e8 	andeq	r1, r0, r8, ror #7
    46b8:	03500113 	cmpeq	r0, #-1073741820	; 0xc0000004
    46bc:	000db40a 	andeq	fp, sp, sl, lsl #8
    46c0:	50248812 	eorpl	r8, r4, r2, lsl r8
    46c4:	00177f01 	andseq	r7, r7, r1, lsl #30
    46c8:	0013fd00 	andseq	pc, r3, r0, lsl #26
    46cc:	50011300 	andpl	r1, r1, r0, lsl #6
    46d0:	0db50a03 	ldceq	10, cr0, [r5, #12]!
    46d4:	24941200 	ldrcs	r1, [r4], #512	; 0x200
    46d8:	177f0150 			; <UNDEFINED> instruction: 0x177f0150
    46dc:	14120000 	ldrne	r0, [r2], #-0
    46e0:	01130000 	tsteq	r3, r0
    46e4:	b60a0350 			; <UNDEFINED> instruction: 0xb60a0350
    46e8:	a012000d 	andsge	r0, r2, sp
    46ec:	7f015024 	svcvc	0x00015024
    46f0:	27000017 	smladcs	r0, r7, r0, r0
    46f4:	13000014 	movwne	r0, #20
    46f8:	0a035001 	beq	d8704 <_back_addr-0x14278fc>
    46fc:	12000db7 	andne	r0, r0, #11712	; 0x2dc0
    4700:	015024ac 	cmpeq	r0, ip, lsr #9
    4704:	0000177f 	andeq	r1, r0, pc, ror r7
    4708:	0000143c 	andeq	r1, r0, ip, lsr r4
    470c:	03500113 	cmpeq	r0, #-1073741820	; 0xc0000004
    4710:	000db80a 	andeq	fp, sp, sl, lsl #16
    4714:	5024b812 	eorpl	fp, r4, r2, lsl r8
    4718:	00177f01 	andseq	r7, r7, r1, lsl #30
    471c:	00145100 	andseq	r5, r4, r0, lsl #2
    4720:	50011300 	andpl	r1, r1, r0, lsl #6
    4724:	0dba0a03 	ldceq	10, cr0, [sl, #12]!
    4728:	24c41200 	strbcs	r1, [r4], #512	; 0x200
    472c:	177f0150 			; <UNDEFINED> instruction: 0x177f0150
    4730:	14660000 	strbtne	r0, [r6], #-0
    4734:	01130000 	tsteq	r3, r0
    4738:	bb0a0350 	bllt	285480 <_back_addr-0x127ab80>
    473c:	d012000d 	andsle	r0, r2, sp
    4740:	7f015024 	svcvc	0x00015024
    4744:	7b000017 	blvc	47a8 <_back_addr-0x14fb858>
    4748:	13000014 	movwne	r0, #20
    474c:	0a035001 	beq	d8758 <_back_addr-0x14278a8>
    4750:	12000dc2 	andne	r0, r0, #12416	; 0x3080
    4754:	015024dc 	ldrsbeq	r2, [r0, #-76]	; 0xffffffb4
    4758:	0000177f 	andeq	r1, r0, pc, ror r7
    475c:	00001490 	muleq	r0, r0, r4
    4760:	03500113 	cmpeq	r0, #-1073741820	; 0xc0000004
    4764:	000e0b0a 	andeq	r0, lr, sl, lsl #22
    4768:	5024e812 	eorpl	lr, r4, r2, lsl r8
    476c:	00177f01 	andseq	r7, r7, r1, lsl #30
    4770:	0014a500 	andseq	sl, r4, r0, lsl #10
    4774:	50011300 	andpl	r1, r1, r0, lsl #6
    4778:	0e0c0a03 	vmlaeq.f32	s0, s24, s6
    477c:	24f41200 	ldrbtcs	r1, [r4], #512	; 0x200
    4780:	177f0150 			; <UNDEFINED> instruction: 0x177f0150
    4784:	14ba0000 	ldrtne	r0, [sl], #0
    4788:	01130000 	tsteq	r3, r0
    478c:	0e0a0350 	mcreq	3, 0, r0, cr10, cr0, {2}
    4790:	0012000e 	andseq	r0, r2, lr
    4794:	7f015025 	svcvc	0x00015025
    4798:	cf000017 	svcgt	0x00000017
    479c:	13000014 	movwne	r0, #20
    47a0:	0a035001 	beq	d87ac <_back_addr-0x1427854>
    47a4:	12000e23 	andne	r0, r0, #560	; 0x230
    47a8:	0150250c 	cmpeq	r0, ip, lsl #10
    47ac:	0000177f 	andeq	r1, r0, pc, ror r7
    47b0:	000014e4 	andeq	r1, r0, r4, ror #9
    47b4:	03500113 	cmpeq	r0, #-1073741820	; 0xc0000004
    47b8:	000e240a 	andeq	r2, lr, sl, lsl #8
    47bc:	50252412 	eorpl	r2, r5, r2, lsl r4
    47c0:	00179101 	andseq	r9, r7, r1, lsl #2
    47c4:	00150b00 	andseq	r0, r5, r0, lsl #22
    47c8:	50011300 	andpl	r1, r1, r0, lsl #6
    47cc:	77f09103 	ldrbvc	r9, [r0, r3, lsl #2]!
    47d0:	03510113 	cmpeq	r1, #-1073741820	; 0xc0000004
    47d4:	1301a50a 	movwne	sl, #5386	; 0x150a
    47d8:	7d025201 	sfmvc	f5, 4, [r2, #-4]
    47dc:	53011300 	movwpl	r1, #4864	; 0x1300
    47e0:	12003001 	andne	r3, r0, #1
    47e4:	01502538 	cmpeq	r0, r8, lsr r5
    47e8:	0000174b 	andeq	r1, r0, fp, asr #14
    47ec:	00001530 	andeq	r1, r0, r0, lsr r5
    47f0:	05500113 	ldrbeq	r0, [r0, #-275]	; 0x113
    47f4:	50317c03 	eorspl	r7, r1, r3, lsl #24
    47f8:	51011301 	tstpl	r1, r1, lsl #6
    47fc:	77f09103 	ldrbvc	r9, [r0, r3, lsl #2]!
    4800:	03520113 	cmpeq	r2, #-1073741820	; 0xc0000004
    4804:	0001a50a 	andeq	sl, r1, sl, lsl #10
    4808:	50254c12 	eorpl	r4, r5, r2, lsl ip
    480c:	00174b01 	andseq	r4, r7, r1, lsl #22
    4810:	00155300 	andseq	r5, r5, r0, lsl #6
    4814:	50011300 	andpl	r1, r1, r0, lsl #6
    4818:	31880305 	orrcc	r0, r8, r5, lsl #6
    481c:	01130150 	tsteq	r3, r0, asr r1
    4820:	007d0251 	rsbseq	r0, sp, r1, asr r2
    4824:	02520113 	subseq	r0, r2, #-1073741820	; 0xc0000004
    4828:	1a002008 	bne	c850 <_back_addr-0x14f37b0>
    482c:	01502550 	cmpeq	r0, r0, asr r5
    4830:	000016fe 	strdeq	r1, [r0], -lr
    4834:	50256012 	eorpl	r6, r5, r2, lsl r0
    4838:	00170501 	andseq	r0, r7, r1, lsl #10
    483c:	00157d00 	andseq	r7, r5, r0, lsl #26
    4840:	50011300 	andpl	r1, r1, r0, lsl #6
    4844:	12000a03 	andne	r0, r0, #12288	; 0x3000
    4848:	02510113 	subseq	r0, r1, #-1073741820	; 0xc0000004
    484c:	01132008 	tsteq	r3, r8
    4850:	007d0252 	rsbseq	r0, sp, r2, asr r2
    4854:	25641a00 	strbcs	r1, [r4, #-2560]!	; 0xa00
    4858:	16fe0150 	usatne	r0, #30, r0, asr #2
    485c:	c01a0000 	andsgt	r0, sl, r0
    4860:	fe015025 	cdp2	0, 0, cr5, cr1, cr5, {1}
    4864:	12000016 	andne	r0, r0, #22
    4868:	015025d0 	ldrsbeq	r2, [r0, #-80]	; 0xffffffb0
    486c:	000016dd 	ldrdeq	r1, [r0], -sp
    4870:	000015b0 			; <UNDEFINED> instruction: 0x000015b0
    4874:	03500113 	cmpeq	r0, #-1073741820	; 0xc0000004
    4878:	1377f091 	cmnne	r7, #145	; 0x91
    487c:	30015101 	andcc	r5, r1, r1, lsl #2
    4880:	03520113 	cmpeq	r2, #-1073741820	; 0xc0000004
    4884:	0004000a 	andeq	r0, r4, sl
    4888:	5025e012 	eorpl	lr, r5, r2, lsl r0
    488c:	0016dd01 	andseq	sp, r6, r1, lsl #26
    4890:	0015d000 	andseq	sp, r5, r0
    4894:	50011300 	andpl	r1, r1, r0, lsl #6
    4898:	13007d02 	movwne	r7, #3330	; 0xd02
    489c:	30015101 	andcc	r5, r1, r1, lsl #2
    48a0:	03520113 	cmpeq	r2, #-1073741820	; 0xc0000004
    48a4:	0001000a 	andeq	r0, r1, sl
    48a8:	5025f014 	eorpl	pc, r5, r4, lsl r0	; <UNPREDICTABLE>
    48ac:	0016dd01 	andseq	sp, r6, r1, lsl #26
    48b0:	50011300 	andpl	r1, r1, r0, lsl #6
    48b4:	75f09103 	ldrbvc	r9, [r0, #259]!	; 0x103
    48b8:	01510113 	cmpeq	r1, r3, lsl r1
    48bc:	52011330 	andpl	r1, r1, #48, 6	; 0xc0000000
    48c0:	01000a03 	tsteq	r0, r3, lsl #20
    48c4:	33150000 	tstcc	r5, #0
    48c8:	ff000000 			; <UNDEFINED> instruction: 0xff000000
    48cc:	16000015 			; <UNDEFINED> instruction: 0x16000015
    48d0:	0000002c 	andeq	r0, r0, ip, lsr #32
    48d4:	150003ff 	strne	r0, [r0, #-1023]	; 0x3ff
    48d8:	00000033 	andeq	r0, r0, r3, lsr r0
    48dc:	0000160f 	andeq	r1, r0, pc, lsl #12
    48e0:	00002c17 	andeq	r2, r0, r7, lsl ip
    48e4:	2a00ff00 	bcs	444ec <_back_addr-0x14bbb14>
    48e8:	000003cc 	andeq	r0, r0, ip, asr #7
    48ec:	4f02c701 	svcmi	0x0002c701
    48f0:	0c000000 	stceq	0, cr0, [r0], {-0}
    48f4:	08015026 	stmdaeq	r1, {r1, r2, r5, ip, lr}
    48f8:	01000000 	mrseq	r0, (UNDEF: 0)
    48fc:	00164d9c 	mulseq	r6, ip, sp
    4900:	05f01900 	ldrbeq	r1, [r0, #2304]!	; 0x900
    4904:	93010000 	movwls	r0, #4096	; 0x1000
    4908:	00004f02 	andeq	r4, r0, r2, lsl #30
    490c:	00163b00 	andseq	r3, r6, r0, lsl #22
    4910:	2b001000 	blcs	8918 <_back_addr-0x14f76e8>
    4914:	01502614 	cmpeq	r0, r4, lsl r6
    4918:	0000177f 	andeq	r1, r0, pc, ror r7
    491c:	03500113 	cmpeq	r0, #-1073741820	; 0xc0000004
    4920:	000da60a 	andeq	sl, sp, sl, lsl #12
    4924:	00331500 	eorseq	r1, r3, r0, lsl #10
    4928:	165d0000 	ldrbne	r0, [sp], -r0
    492c:	2c170000 	ldccs	0, cr0, [r7], {-0}
    4930:	3f000000 	svccc	0x00000000
    4934:	03bd2c00 			; <UNDEFINED> instruction: 0x03bd2c00
    4938:	04010000 	streq	r0, [r1], #-0
    493c:	0000164d 	andeq	r1, r0, sp, asr #12
    4940:	0002532c 	andeq	r5, r2, ip, lsr #6
    4944:	ee050100 	adfs	f0, f5, f0
    4948:	2c000015 	stccs	0, cr0, [r0], {21}
    494c:	000002eb 	andeq	r0, r0, fp, ror #5
    4950:	00330601 	eorseq	r0, r3, r1, lsl #12
    4954:	1b2d0000 	blne	b4495c <_back_addr-0x9bb6a4>
    4958:	04000005 	streq	r0, [r0], #-5
    495c:	00004f88 	andeq	r4, r0, r8, lsl #31
    4960:	0016a200 	andseq	sl, r6, r0, lsl #4
    4964:	03252e00 	teqeq	r5, #0, 28
    4968:	252e0000 	strcs	r0, [lr, #-0]!
    496c:	2e000000 	cdpcs	0, 0, cr0, cr0, cr0, {0}
    4970:	00000325 	andeq	r0, r0, r5, lsr #6
    4974:	0016a22e 	andseq	sl, r6, lr, lsr #4
    4978:	04050000 	streq	r0, [r5], #-0
    497c:	00000025 	andeq	r0, r0, r5, lsr #32
    4980:	0009e90f 	andeq	lr, r9, pc, lsl #18
    4984:	4f750100 	svcmi	0x00750100
    4988:	b9000000 	stmdblt	r0, {}	; <UNPREDICTABLE>
    498c:	10000016 	andne	r0, r0, r6, lsl r0
    4990:	072c2d00 	streq	r2, [ip, -r0, lsl #26]!
    4994:	89040000 	stmdbhi	r4, {}	; <UNPREDICTABLE>
    4998:	0000004f 	andeq	r0, r0, pc, asr #32
    499c:	000016dd 	ldrdeq	r1, [r0], -sp
    49a0:	0003252e 	andeq	r2, r3, lr, lsr #10
    49a4:	00252e00 	eoreq	r2, r5, r0, lsl #28
    49a8:	252e0000 	strcs	r0, [lr, #-0]!
    49ac:	2e000003 	cdpcs	0, 0, cr0, cr0, cr3, {0}
    49b0:	000016a2 	andeq	r1, r0, r2, lsr #13
    49b4:	0a3f2d00 	beq	fcfdbc <_back_addr-0x530244>
    49b8:	88030000 	stmdahi	r3, {}	; <UNPREDICTABLE>
    49bc:	000016fc 	strdeq	r1, [r0], -ip
    49c0:	000016fc 	strdeq	r1, [r0], -ip
    49c4:	0016fc2e 	andseq	pc, r6, lr, lsr #24
    49c8:	004f2e00 	subeq	r2, pc, r0, lsl #28
    49cc:	6b2e0000 	blvs	b849d4 <_back_addr-0x97b62c>
    49d0:	00000000 	andeq	r0, r0, r0
    49d4:	c730042f 	ldrgt	r0, [r0, -pc, lsr #8]!
    49d8:	03000003 	movweq	r0, #3
    49dc:	02691973 	rsbeq	r1, r9, #1884160	; 0x1cc000
    49e0:	48010000 	stmdami	r1, {}	; <UNPREDICTABLE>
    49e4:	00004f02 	andeq	r4, r0, r2, lsl #30
    49e8:	00171700 	andseq	r1, r7, r0, lsl #14
    49ec:	0f001000 	svceq	0x00001000
    49f0:	00000805 	andeq	r0, r0, r5, lsl #16
    49f4:	004fd701 	subeq	sp, pc, r1, lsl #14
    49f8:	17280000 	strne	r0, [r8, -r0]!
    49fc:	00100000 	andseq	r0, r0, r0
    4a00:	0002f919 	andeq	pc, r2, r9, lsl r9	; <UNPREDICTABLE>
    4a04:	027a0100 	rsbseq	r0, sl, #0, 2
    4a08:	0000004f 	andeq	r0, r0, pc, asr #32
    4a0c:	0000173a 	andeq	r1, r0, sl, lsr r7
    4a10:	620f0010 	andvs	r0, pc, #16
    4a14:	01000002 	tsteq	r0, r2
    4a18:	00004f73 	andeq	r4, r0, r3, ror pc
    4a1c:	00174b00 	andseq	r4, r7, r0, lsl #22
    4a20:	31001000 	mrscc	r1, (UNDEF: 0)
    4a24:	00000aa3 	andeq	r0, r0, r3, lsr #21
    4a28:	17668703 	strbne	r8, [r6, -r3, lsl #14]!
    4a2c:	762e0000 	strtvc	r0, [lr], -r0
    4a30:	2e000000 	cdpcs	0, 0, cr0, cr0, cr0, {0}
    4a34:	00001766 	andeq	r1, r0, r6, ror #14
    4a38:	0000252e 	andeq	r2, r0, lr, lsr #10
    4a3c:	04050000 	streq	r0, [r5], #-0
    4a40:	0000176c 	andeq	r1, r0, ip, ror #14
    4a44:	029b1932 	addseq	r1, fp, #819200	; 0xc8000
    4a48:	b5010000 	strlt	r0, [r1, #-0]
    4a4c:	00004f02 	andeq	r4, r0, r2, lsl #30
    4a50:	00177f00 	andseq	r7, r7, r0, lsl #30
    4a54:	19001000 	stmdbne	r0, {ip}
    4a58:	000005f0 	strdeq	r0, [r0], -r0	; <UNPREDICTABLE>
    4a5c:	4f029301 	svcmi	0x00029301
    4a60:	91000000 	mrsls	r0, (UNDEF: 0)
    4a64:	10000017 	andne	r0, r0, r7, lsl r0
    4a68:	08ad3300 	stmiaeq	sp!, {r8, r9, ip, sp}
    4a6c:	8d040000 	stchi	0, cr0, [r4, #-0]
    4a70:	0000004f 	andeq	r0, r0, pc, asr #32
    4a74:	0003252e 	andeq	r2, r3, lr, lsr #10
    4a78:	00252e00 	eoreq	r2, r5, r0, lsl #28
    4a7c:	252e0000 	strcs	r0, [lr, #-0]!
    4a80:	2e000003 	cdpcs	0, 0, cr0, cr0, cr3, {0}
    4a84:	000016a2 	andeq	r1, r0, r2, lsr #13
    4a88:	02eb0000 	rsceq	r0, fp, #0
    4a8c:	00040000 	andeq	r0, r4, r0
    4a90:	00000ea6 	andeq	r0, r0, r6, lsr #29
    4a94:	00600104 	rsbeq	r0, r0, r4, lsl #2
    4a98:	15010000 	strne	r0, [r1, #-0]
    4a9c:	4800000b 	stmdami	r0, {r0, r1, r3}
    4aa0:	14000004 	strne	r0, [r0], #-4
    4aa4:	68015026 	stmdavs	r1, {r1, r2, r5, ip, lr}
    4aa8:	80000001 	andhi	r0, r0, r1
    4aac:	0200000e 	andeq	r0, r0, #14
    4ab0:	000007de 	ldrdeq	r0, [r0], -lr
    4ab4:	0030b002 	eorseq	fp, r0, r2
    4ab8:	01030000 	mrseq	r0, (UNDEF: 3)
    4abc:	00001008 	andeq	r1, r0, r8
    4ac0:	06010300 	streq	r0, [r1], -r0, lsl #6
    4ac4:	00000012 	andeq	r0, r0, r2, lsl r0
    4ac8:	1e070203 	cdpne	2, 0, cr0, cr7, cr3, {0}
    4acc:	03000000 	movweq	r0, #0
    4ad0:	00560502 	subseq	r0, r6, r2, lsl #10
    4ad4:	5b020000 	blpl	84adc <_back_addr-0x147b524>
    4ad8:	02000002 	andeq	r0, r0, #2
    4adc:	000057b4 			; <UNDEFINED> instruction: 0x000057b4
    4ae0:	07040300 	streq	r0, [r4, -r0, lsl #6]
    4ae4:	0000003b 	andeq	r0, r0, fp, lsr r0
    4ae8:	69050404 	stmdbvs	r5, {r2, sl}
    4aec:	0300746e 	movweq	r7, #1134	; 0x46e
    4af0:	00310708 	eorseq	r0, r1, r8, lsl #14
    4af4:	08030000 	stmdaeq	r3, {}	; <UNPREDICTABLE>
    4af8:	00004805 	andeq	r4, r0, r5, lsl #16
    4afc:	0b020200 	bleq	85304 <_back_addr-0x147acfc>
    4b00:	b8020000 	stmdalt	r2, {}	; <UNPREDICTABLE>
    4b04:	00000025 	andeq	r0, r0, r5, lsr #32
    4b08:	36070403 	strcc	r0, [r7], -r3, lsl #8
    4b0c:	05000000 	streq	r0, [r0, #-0]
    4b10:	00000b6e 	andeq	r0, r0, lr, ror #22
    4b14:	004c1301 	subeq	r1, ip, r1, lsl #6
    4b18:	ac010000 	stcge	0, cr0, [r1], {-0}
    4b1c:	06000000 	streq	r0, [r0], -r0
    4b20:	00000b2a 	andeq	r0, r0, sl, lsr #22
    4b24:	00571301 	subseq	r1, r7, r1, lsl #6
    4b28:	67060000 	strvs	r0, [r6, -r0]
    4b2c:	0100000b 	tsteq	r0, fp
    4b30:	00005713 	andeq	r5, r0, r3, lsl r7
    4b34:	07050000 	streq	r0, [r5, -r0]
    4b38:	0100000b 	tsteq	r0, fp
    4b3c:	0000733d 	andeq	r7, r0, sp, lsr r3
    4b40:	00de0100 	sbcseq	r0, lr, r0, lsl #2
    4b44:	2a060000 	bcs	184b4c <_back_addr-0x137b4b4>
    4b48:	0100000b 	tsteq	r0, fp
    4b4c:	00004c3d 	andeq	r4, r0, sp, lsr ip
    4b50:	0b570600 	bleq	15c6358 <__bss_end__+0xb2818>
    4b54:	3d010000 	stccc	0, cr0, [r1, #-0]
    4b58:	0000004c 	andeq	r0, r0, ip, asr #32
    4b5c:	000b5d07 	andeq	r5, fp, r7, lsl #26
    4b60:	733f0100 	teqvc	pc, #0, 2
    4b64:	00000000 	andeq	r0, r0, r0
    4b68:	00008508 	andeq	r8, r0, r8, lsl #10
    4b6c:	50261400 	eorpl	r1, r6, r0, lsl #8
    4b70:	00005801 	andeq	r5, r0, r1, lsl #16
    4b74:	189c0100 	ldmne	ip, {r8}
    4b78:	09000001 	stmdbeq	r0, {r0}
    4b7c:	00000095 	muleq	r0, r5, r0
    4b80:	00002bc0 	andeq	r2, r0, r0, asr #23
    4b84:	0000a00a 	andeq	sl, r0, sl
    4b88:	0b510100 	bleq	1444f90 <_back_addr-0xbb070>
    4b8c:	00000580 	andeq	r0, r0, r0, lsl #11
    4b90:	0000a00a 	andeq	sl, r0, sl
    4b94:	09510100 	ldmdbeq	r1, {r8}^
    4b98:	00000095 	muleq	r0, r5, r0
    4b9c:	00002c07 	andeq	r2, r0, r7, lsl #24
    4ba0:	1d0c0000 	stcne	0, cr0, [ip, #-0]
    4ba4:	0100000b 	tsteq	r0, fp
    4ba8:	00004c2e 	andeq	r4, r0, lr, lsr #24
    4bac:	50266c00 	eorpl	r6, r6, r0, lsl #24
    4bb0:	00002c01 	andeq	r2, r0, r1, lsl #24
    4bb4:	419c0100 	orrsmi	r0, ip, r0, lsl #2
    4bb8:	0d000001 	stceq	0, cr0, [r0, #-4]
    4bbc:	00000b2a 	andeq	r0, r0, sl, lsr #22
    4bc0:	004c2e01 	subeq	r2, ip, r1, lsl #28
    4bc4:	2c350000 	ldccs	0, cr0, [r5], #-0
    4bc8:	08000000 	stmdaeq	r0, {}	; <UNPREDICTABLE>
    4bcc:	000000ac 	andeq	r0, r0, ip, lsr #1
    4bd0:	01502698 			; <UNDEFINED> instruction: 0x01502698
    4bd4:	00000030 	andeq	r0, r0, r0, lsr r0
    4bd8:	01949c01 	orrseq	r9, r4, r1, lsl #24
    4bdc:	bc090000 	stclt	0, cr0, [r9], {-0}
    4be0:	56000000 	strpl	r0, [r0], -r0
    4be4:	0a00002c 	beq	4c9c <_back_addr-0x14fb364>
    4be8:	000000c7 	andeq	r0, r0, r7, asr #1
    4bec:	d20e5101 	andle	r5, lr, #1073741824	; 0x40000000
    4bf0:	00000000 	andeq	r0, r0, r0
    4bf4:	5026a80f 	eorpl	sl, r6, pc, lsl #16
    4bf8:	00001401 	andeq	r1, r0, r1, lsl #8
    4bfc:	00c70a00 	sbceq	r0, r7, r0, lsl #20
    4c00:	51010000 	mrspl	r0, (UNDEF: 1)
    4c04:	0000bc09 	andeq	fp, r0, r9, lsl #24
    4c08:	002c9000 	eoreq	r9, ip, r0
    4c0c:	26a80f00 	strtcs	r0, [r8], r0, lsl #30
    4c10:	00140150 	andseq	r0, r4, r0, asr r1
    4c14:	d2100000 	andsle	r0, r0, #0
    4c18:	00000000 	andeq	r0, r0, r0
    4c1c:	f5110000 			; <UNDEFINED> instruction: 0xf5110000
    4c20:	01000009 	tsteq	r0, r9
    4c24:	5026c85e 	eorpl	ip, r6, lr, asr r8
    4c28:	00005c01 	andeq	r5, r0, r1, lsl #24
    4c2c:	439c0100 	orrsmi	r0, ip, #0, 2
    4c30:	0d000002 	stceq	0, cr0, [r0, #-8]
    4c34:	00000b32 	andeq	r0, r0, r2, lsr fp
    4c38:	00575e01 	subseq	r5, r7, r1, lsl #28
    4c3c:	2cbe0000 	ldccs	0, cr0, [lr]
    4c40:	4d120000 	ldcmi	0, cr0, [r2, #-0]
    4c44:	0100000b 	tsteq	r0, fp
    4c48:	00004c60 	andeq	r4, r0, r0, ror #24
    4c4c:	002cdf00 	eoreq	sp, ip, r0, lsl #30
    4c50:	00851300 	addeq	r1, r5, r0, lsl #6
    4c54:	26dc0000 	ldrbcs	r0, [ip], r0
    4c58:	05980150 	ldreq	r0, [r8, #336]	; 0x150
    4c5c:	68010000 	stmdavs	r1, {}	; <UNPREDICTABLE>
    4c60:	000001fb 	strdeq	r0, [r0], -fp
    4c64:	0000a00a 	andeq	sl, r0, sl
    4c68:	14510100 	ldrbne	r0, [r1], #-256	; 0x100
    4c6c:	00000095 	muleq	r0, r5, r0
    4c70:	05980b00 	ldreq	r0, [r8, #2816]	; 0xb00
    4c74:	a00a0000 	andge	r0, sl, r0
    4c78:	01000000 	mrseq	r0, (UNDEF: 0)
    4c7c:	00951451 	addseq	r1, r5, r1, asr r4
    4c80:	00000000 	andeq	r0, r0, r0
    4c84:	00ac1500 	adceq	r1, ip, r0, lsl #10
    4c88:	26f80000 	ldrbtcs	r0, [r8], r0
    4c8c:	05b80150 	ldreq	r0, [r8, #336]!	; 0x150
    4c90:	6b010000 	blvs	44c98 <_back_addr-0x14bb368>
    4c94:	0000c70a 	andeq	ip, r0, sl, lsl #14
    4c98:	14510100 	ldrbne	r0, [r1], #-256	; 0x100
    4c9c:	000000bc 	strheq	r0, [r0], -ip
    4ca0:	05b80b00 	ldreq	r0, [r8, #2816]!	; 0xb00
    4ca4:	d20e0000 	andle	r0, lr, #0
    4ca8:	00000000 	andeq	r0, r0, r0
    4cac:	0005b80b 	andeq	fp, r5, fp, lsl #16
    4cb0:	00c70a00 	sbceq	r0, r7, r0, lsl #20
    4cb4:	51010000 	mrspl	r0, (UNDEF: 1)
    4cb8:	0000bc14 	andeq	fp, r0, r4, lsl ip
    4cbc:	b80b0000 	stmdalt	fp, {}	; <UNPREDICTABLE>
    4cc0:	10000005 	andne	r0, r0, r5
    4cc4:	000000d2 	ldrdeq	r0, [r0], -r2
    4cc8:	00000000 	andeq	r0, r0, r0
    4ccc:	075b1600 	ldrbeq	r1, [fp, -r0, lsl #12]
    4cd0:	6d010000 	stcvs	0, cr0, [r1, #-0]
    4cd4:	01502724 	cmpeq	r0, r4, lsr #14
    4cd8:	00000058 	andeq	r0, r0, r8, asr r0
    4cdc:	3f0d9c01 	svccc	0x000d9c01
    4ce0:	0100000b 	tsteq	r0, fp
    4ce4:	0000576d 	andeq	r5, r0, sp, ror #14
    4ce8:	002cfe00 	eoreq	pc, ip, r0, lsl #28
    4cec:	0b4d1200 	bleq	13494f4 <_back_addr-0x1b6b0c>
    4cf0:	6f010000 	svcvs	0x00010000
    4cf4:	0000004c 	andeq	r0, r0, ip, asr #32
    4cf8:	00002d1f 	andeq	r2, r0, pc, lsl sp
    4cfc:	00008513 	andeq	r8, r0, r3, lsl r5
    4d00:	50273400 	eorpl	r3, r7, r0, lsl #8
    4d04:	0005d001 	andeq	sp, r5, r1
    4d08:	a6750100 	ldrbtge	r0, [r5], -r0, lsl #2
    4d0c:	0a000002 	beq	4d1c <_back_addr-0x14fb2e4>
    4d10:	000000a0 	andeq	r0, r0, r0, lsr #1
    4d14:	95145101 	ldrls	r5, [r4, #-257]	; 0x101
    4d18:	00000000 	andeq	r0, r0, r0
    4d1c:	0005d00b 	andeq	sp, r5, fp
    4d20:	00a00a00 	adceq	r0, r0, r0, lsl #20
    4d24:	51010000 	mrspl	r0, (UNDEF: 1)
    4d28:	00009514 	andeq	r9, r0, r4, lsl r5
    4d2c:	00000000 	andeq	r0, r0, r0
    4d30:	0000ac15 	andeq	sl, r0, r5, lsl ip
    4d34:	50275000 	eorpl	r5, r7, r0
    4d38:	0005f001 	andeq	pc, r5, r1
    4d3c:	0a780100 	beq	1e05144 <__bss_end__+0x8f1604>
    4d40:	000000c7 	andeq	r0, r0, r7, asr #1
    4d44:	bc145101 	ldflts	f5, [r4], {1}
    4d48:	00000000 	andeq	r0, r0, r0
    4d4c:	0005f00b 	andeq	pc, r5, fp
    4d50:	00d20e00 	sbcseq	r0, r2, r0, lsl #28
    4d54:	0b000000 	bleq	4d5c <_back_addr-0x14fb2a4>
    4d58:	000005f0 	strdeq	r0, [r0], -r0	; <UNPREDICTABLE>
    4d5c:	0000c70a 	andeq	ip, r0, sl, lsl #14
    4d60:	14510100 	ldrbne	r0, [r1], #-256	; 0x100
    4d64:	000000bc 	strheq	r0, [r0], -ip
    4d68:	05f00b00 	ldrbeq	r0, [r0, #2816]!	; 0xb00
    4d6c:	d2100000 	andsle	r0, r0, #0
	...
    4d78:	000d5000 	andeq	r5, sp, r0
    4d7c:	e5000400 	str	r0, [r0, #-1024]	; 0x400
    4d80:	0400000f 	streq	r0, [r0], #-15
    4d84:	00006001 	andeq	r6, r0, r1
    4d88:	0bca0100 	bleq	ff285190 <__bss_end__+0xfdd71650>
    4d8c:	04480000 	strbeq	r0, [r8], #-0
    4d90:	277c0000 	ldrbcs	r0, [ip, -r0]!
    4d94:	04c80150 	strbeq	r0, [r8], #336	; 0x150
    4d98:	0f9d0000 	svceq	0x009d0000
    4d9c:	de020000 	cdple	0, 0, cr0, cr2, cr0, {0}
    4da0:	02000007 	andeq	r0, r0, #7
    4da4:	000030b0 	strheq	r3, [r0], -r0
    4da8:	08010300 	stmdaeq	r1, {r8, r9}
    4dac:	00000010 	andeq	r0, r0, r0, lsl r0
    4db0:	12060103 	andne	r0, r6, #-1073741824	; 0xc0000000
    4db4:	03000000 	movweq	r0, #0
    4db8:	001e0702 	andseq	r0, lr, r2, lsl #14
    4dbc:	02030000 	andeq	r0, r3, #0
    4dc0:	00005605 	andeq	r5, r0, r5, lsl #12
    4dc4:	025b0200 	subseq	r0, fp, #0, 4
    4dc8:	b4020000 	strlt	r0, [r2], #-0
    4dcc:	00000057 	andeq	r0, r0, r7, asr r0
    4dd0:	3b070403 	blcc	1c5de4 <_back_addr-0x133a21c>
    4dd4:	04000000 	streq	r0, [r0], #-0
    4dd8:	6e690504 	cdpvs	5, 6, cr0, cr9, cr4, {0}
    4ddc:	08030074 	stmdaeq	r3, {r2, r4, r5, r6}
    4de0:	00003107 	andeq	r3, r0, r7, lsl #2
    4de4:	05080300 	streq	r0, [r8, #-768]	; 0x300
    4de8:	00000048 	andeq	r0, r0, r8, asr #32
    4dec:	36070403 	strcc	r0, [r7], -r3, lsl #8
    4df0:	02000000 	andeq	r0, r0, #0
    4df4:	00000a60 	andeq	r0, r0, r0, ror #20
    4df8:	0073e502 	rsbseq	lr, r3, r2, lsl #10
    4dfc:	04050000 	streq	r0, [r5], #-0
    4e00:	0000008b 	andeq	r0, r0, fp, lsl #1
    4e04:	00009006 	andeq	r9, r0, r6
    4e08:	08010300 	stmdaeq	r1, {r8, r9}
    4e0c:	00000019 	andeq	r0, r0, r9, lsl r0
    4e10:	2f030407 	svccs	0x00030407
    4e14:	000000be 	strheq	r0, [r0], -lr
    4e18:	4c4c4408 	cfstrdmi	mvd4, [ip], {8}
    4e1c:	4c320300 	ldcmi	3, cr0, [r2], #-0
    4e20:	04000000 	streq	r0, [r0], #-0
    4e24:	09001808 	stmdbeq	r0, {r3, fp, ip}
    4e28:	00000b9d 	muleq	r0, sp, fp
    4e2c:	004c3303 	subeq	r3, ip, r3, lsl #6
    4e30:	18040000 	stmdane	r4, {}	; <UNPREDICTABLE>
    4e34:	07000000 	streq	r0, [r0, -r0]
    4e38:	e5370304 	ldr	r0, [r7, #-772]!	; 0x304
    4e3c:	08000000 	stmdaeq	r0, {}	; <UNPREDICTABLE>
    4e40:	00444252 	subeq	r4, r4, r2, asr r2
    4e44:	004c3a03 	subeq	r3, ip, r3, lsl #20
    4e48:	08040000 	stmdaeq	r4, {}	; <UNPREDICTABLE>
    4e4c:	9d090018 	stcls	0, cr0, [r9, #-96]	; 0xffffffa0
    4e50:	0300000b 	movweq	r0, #11
    4e54:	00004c3b 	andeq	r4, r0, fp, lsr ip
    4e58:	00180400 	andseq	r0, r8, r0, lsl #8
    4e5c:	04070000 	streq	r0, [r7], #-0
    4e60:	010c3f03 	tsteq	ip, r3, lsl #30
    4e64:	54080000 	strpl	r0, [r8], #-0
    4e68:	03004448 	movweq	r4, #1096	; 0x448
    4e6c:	00004c42 	andeq	r4, r0, r2, asr #24
    4e70:	18080400 	stmdane	r8, {sl}
    4e74:	0b9d0900 	bleq	fe74727c <__bss_end__+0xfd23373c>
    4e78:	43030000 	movwmi	r0, #12288	; 0x3000
    4e7c:	0000004c 	andeq	r0, r0, ip, asr #32
    4e80:	00001804 	andeq	r1, r0, r4, lsl #16
    4e84:	0d7c0a00 	vldmdbeq	ip!, {s1-s0}
    4e88:	03040000 	movweq	r0, #16384	; 0x4000
    4e8c:	0001452c 	andeq	r4, r1, ip, lsr #10
    4e90:	0ca80b00 	vstmiaeq	r8!, {d0-d-1}
    4e94:	2e030000 	cdpcs	0, 0, cr0, cr3, cr0, {0}
    4e98:	0000004c 	andeq	r0, r0, ip, asr #32
    4e9c:	000dd70b 	andeq	sp, sp, fp, lsl #14
    4ea0:	97350300 	ldrls	r0, [r5, -r0, lsl #6]!
    4ea4:	0b000000 	bleq	4eac <_back_addr-0x14fb154>
    4ea8:	00000b78 	andeq	r0, r0, r8, ror fp
    4eac:	00be3d03 	adcseq	r3, lr, r3, lsl #26
    4eb0:	800b0000 	andhi	r0, fp, r0
    4eb4:	0300000b 	movweq	r0, #11
    4eb8:	0000e545 	andeq	lr, r0, r5, asr #10
    4ebc:	7d020000 	stcvc	0, cr0, [r2, #-0]
    4ec0:	0300000d 	movweq	r0, #13
    4ec4:	00010c47 	andeq	r0, r1, r7, asr #24
    4ec8:	03040700 	movweq	r0, #18176	; 0x4700
    4ecc:	0001774c 	andeq	r7, r1, ip, asr #14
    4ed0:	4c440800 	mcrrmi	8, 0, r0, r4, cr0
    4ed4:	4f03004d 	svcmi	0x0003004d
    4ed8:	0000004c 	andeq	r0, r0, ip, asr #32
    4edc:	00180804 	andseq	r0, r8, r4, lsl #16
    4ee0:	000b9d09 	andeq	r9, fp, r9, lsl #26
    4ee4:	4c500300 	mrrcmi	3, 0, r0, r0, cr0	; <UNPREDICTABLE>
    4ee8:	04000000 	streq	r0, [r0], #-0
    4eec:	00000018 	andeq	r0, r0, r8, lsl r0
    4ef0:	53030407 	movwpl	r0, #13319	; 0x3407
    4ef4:	000001cb 	andeq	r0, r0, fp, asr #3
    4ef8:	000dbc09 	andeq	fp, sp, r9, lsl #24
    4efc:	4c560300 	mrrcmi	3, 0, r0, r6, cr0
    4f00:	04000000 	streq	r0, [r0], #-0
    4f04:	09001f01 	stmdbeq	r0, {r0, r8, r9, sl, fp, ip}
    4f08:	00000bc4 	andeq	r0, r0, r4, asr #23
    4f0c:	004c5703 	subeq	r5, ip, r3, lsl #14
    4f10:	01040000 	mrseq	r0, (UNDEF: 4)
    4f14:	1c09001e 	stcne	0, cr0, [r9], {30}
    4f18:	0300000c 	movweq	r0, #12
    4f1c:	00004c58 	andeq	r4, r0, r8, asr ip
    4f20:	1d010400 	cfstrsne	mvf0, [r1, #-0]
    4f24:	0d610900 	stcleq	9, cr0, [r1, #-0]
    4f28:	59030000 	stmdbpl	r3, {}	; <UNPREDICTABLE>
    4f2c:	0000004c 	andeq	r0, r0, ip, asr #32
    4f30:	001c0104 	andseq	r0, ip, r4, lsl #2
    4f34:	000b9d09 	andeq	r9, fp, r9, lsl #26
    4f38:	4c5a0300 	mrrcmi	3, 0, r0, sl, cr0
    4f3c:	04000000 	streq	r0, [r0], #-0
    4f40:	0000001c 	andeq	r0, r0, ip, lsl r0
    4f44:	000d500a 	andeq	r5, sp, sl
    4f48:	49030400 	stmdbmi	r3, {sl}
    4f4c:	000001f9 	strdeq	r0, [r0], -r9
    4f50:	000ca80b 	andeq	sl, ip, fp, lsl #16
    4f54:	4c4b0300 	mcrrmi	3, 0, r0, fp, cr0
    4f58:	0b000000 	bleq	4f60 <_back_addr-0x14fb0a0>
    4f5c:	00000dd7 	ldrdeq	r0, [r0], -r7
    4f60:	01505103 	cmpeq	r0, r3, lsl #2
    4f64:	780b0000 	stmdavc	fp, {}	; <UNPREDICTABLE>
    4f68:	0300000b 	movweq	r0, #11
    4f6c:	0001775b 	andeq	r7, r1, fp, asr r7
    4f70:	51020000 	mrspl	r0, (UNDEF: 2)
    4f74:	0300000d 	movweq	r0, #13
    4f78:	0001cb5d 	andeq	ip, r1, sp, asr fp
    4f7c:	03040700 	movweq	r0, #18176	; 0x4700
    4f80:	00025862 	andeq	r5, r2, r2, ror #16
    4f84:	0c960900 	ldceq	9, cr0, [r6], {0}
    4f88:	65030000 	strvs	r0, [r3, #-0]
    4f8c:	0000004c 	andeq	r0, r0, ip, asr #32
    4f90:	001f0104 	andseq	r0, pc, r4, lsl #2
    4f94:	44494908 	strbmi	r4, [r9], #-2312	; 0x908
    4f98:	4c670300 	stclmi	3, cr0, [r7], #-0
    4f9c:	04000000 	streq	r0, [r0], #-0
    4fa0:	09001c03 	stmdbeq	r0, {r0, r1, sl, fp, ip}
    4fa4:	00000c27 	andeq	r0, r0, r7, lsr #24
    4fa8:	004c6d03 	subeq	r6, ip, r3, lsl #26
    4fac:	02040000 	andeq	r0, r4, #0
    4fb0:	3b09001a 	blcc	245020 <_back_addr-0x12bafe0>
    4fb4:	0300000c 	movweq	r0, #12
    4fb8:	00004c6e 	andeq	r4, r0, lr, ror #24
    4fbc:	18020400 	stmdane	r2, {sl}
    4fc0:	0c310900 	ldceq	9, cr0, [r1], #-0
    4fc4:	71030000 	mrsvc	r0, (UNDEF: 3)
    4fc8:	0000004c 	andeq	r0, r0, ip, asr #32
    4fcc:	00001804 	andeq	r1, r0, r4, lsl #16
    4fd0:	03040700 	movweq	r0, #18176	; 0x4700
    4fd4:	0002ca74 	andeq	ip, r2, r4, ror sl
    4fd8:	0d990900 	ldceq	9, cr0, [r9]
    4fdc:	77030000 	strvc	r0, [r3, -r0]
    4fe0:	0000004c 	andeq	r0, r0, ip, asr #32
    4fe4:	001f0104 	andseq	r0, pc, r4, lsl #2
    4fe8:	000d9f09 	andeq	r9, sp, r9, lsl #30
    4fec:	4c7c0300 	ldclmi	3, cr0, [ip], #-0
    4ff0:	04000000 	streq	r0, [r0], #-0
    4ff4:	09001e01 	stmdbeq	r0, {r0, r9, sl, fp, ip}
    4ff8:	00000cd4 	ldrdeq	r0, [r0], -r4
    4ffc:	004c7e03 	subeq	r7, ip, r3, lsl #28
    5000:	01040000 	mrseq	r0, (UNDEF: 4)
    5004:	a609001d 			; <UNDEFINED> instruction: 0xa609001d
    5008:	0300000b 	movweq	r0, #11
    500c:	00004c80 	andeq	r4, r0, r0, lsl #25
    5010:	1c010400 	cfstrsne	mvf0, [r1], {-0}
    5014:	0c270900 	stceq	9, cr0, [r7], #-0
    5018:	81030000 	mrshi	r0, (UNDEF: 3)
    501c:	0000004c 	andeq	r0, r0, ip, asr #32
    5020:	001a0204 	andseq	r0, sl, r4, lsl #4
    5024:	000c8109 	andeq	r8, ip, r9, lsl #2
    5028:	4c820300 	stcmi	3, cr0, [r2], {0}
    502c:	04000000 	streq	r0, [r0], #-0
    5030:	09001802 	stmdbeq	r0, {r1, fp, ip}
    5034:	00000c31 	andeq	r0, r0, r1, lsr ip
    5038:	004c8803 	subeq	r8, ip, r3, lsl #16
    503c:	18040000 	stmdane	r4, {}	; <UNPREDICTABLE>
    5040:	0a000000 	beq	5048 <_back_addr-0x14fafb8>
    5044:	00000cf0 	strdeq	r0, [r0], -r0	; <UNPREDICTABLE>
    5048:	f85f0304 			; <UNDEFINED> instruction: 0xf85f0304
    504c:	0b000002 	bleq	505c <_back_addr-0x14fafa4>
    5050:	00000ca8 	andeq	r0, r0, r8, lsr #25
    5054:	004c6103 	subeq	r6, ip, r3, lsl #2
    5058:	d70b0000 	strle	r0, [fp, -r0]
    505c:	0300000d 	movweq	r0, #13
    5060:	00020472 	andeq	r0, r2, r2, ror r4
    5064:	0b780b00 	bleq	1e07c6c <__bss_end__+0x8f412c>
    5068:	89030000 	stmdbhi	r3, {}	; <UNPREDICTABLE>
    506c:	00000258 	andeq	r0, r0, r8, asr r2
    5070:	0cf10200 	lfmeq	f0, 2, [r1]
    5074:	8b030000 	blhi	c507c <_back_addr-0x143af84>
    5078:	000002ca 	andeq	r0, r0, sl, asr #5
    507c:	90030407 	andls	r0, r3, r7, lsl #8
    5080:	00000375 	andeq	r0, r0, r5, ror r3
    5084:	534c5708 	movtpl	r5, #50952	; 0xc708
    5088:	4c930300 	ldcmi	3, cr0, [r3], {0}
    508c:	04000000 	streq	r0, [r0], #-0
    5090:	08001e02 	stmdaeq	r0, {r1, r9, sl, fp, ip}
    5094:	00505453 	subseq	r5, r0, r3, asr r4
    5098:	004c9803 	subeq	r9, ip, r3, lsl #16
    509c:	01040000 	mrseq	r0, (UNDEF: 4)
    50a0:	5008001d 	andpl	r0, r8, sp, lsl r0
    50a4:	03004e45 	movweq	r4, #3653	; 0xe45
    50a8:	00004c9b 	muleq	r0, fp, ip
    50ac:	1c010400 	cfstrsne	mvf0, [r1], {-0}
    50b0:	50450800 	subpl	r0, r5, r0, lsl #16
    50b4:	9c030053 	stcls	0, cr0, [r3], {83}	; 0x53
    50b8:	0000004c 	andeq	r0, r0, ip, asr #32
    50bc:	001a0204 	andseq	r0, sl, r4, lsl #4
    50c0:	4b524208 	blmi	14958e8 <_back_addr-0x6a718>
    50c4:	4ca10300 	stcmi	3, cr0, [r1]
    50c8:	04000000 	streq	r0, [r0], #-0
    50cc:	09001901 	stmdbeq	r0, {r0, r8, fp, ip}
    50d0:	00000bda 	ldrdeq	r0, [r0], -sl
    50d4:	004ca403 	subeq	sl, ip, r3, lsl #8
    50d8:	01040000 	mrseq	r0, (UNDEF: 4)
    50dc:	9d090018 	stcls	0, cr0, [r9, #-96]	; 0xffffffa0
    50e0:	0300000b 	movweq	r0, #11
    50e4:	00004ca5 	andeq	r4, r0, r5, lsr #25
    50e8:	00180400 	andseq	r0, r8, r0, lsl #8
    50ec:	0f0a0000 	svceq	0x000a0000
    50f0:	0400000c 	streq	r0, [r0], #-12
    50f4:	03988d03 	orrseq	r8, r8, #3, 26	; 0xc0
    50f8:	a80b0000 	stmdage	fp, {}	; <UNPREDICTABLE>
    50fc:	0300000c 	movweq	r0, #12
    5100:	00004c8f 	andeq	r4, r0, pc, lsl #25
    5104:	0dd00b00 	vldreq	d16, [r0]
    5108:	a6030000 	strge	r0, [r3], -r0
    510c:	00000303 	andeq	r0, r0, r3, lsl #6
    5110:	0c100200 	lfmeq	f0, 4, [r0], {-0}
    5114:	a8030000 	stmdage	r3, {}	; <UNPREDICTABLE>
    5118:	00000375 	andeq	r0, r0, r5, ror r3
    511c:	ad030407 	cfstrsge	mvf0, [r3, #-28]	; 0xffffffe4
    5120:	000003f7 	strdeq	r0, [r0], -r7
    5124:	52544408 	subspl	r4, r4, #8, 8	; 0x8000000
    5128:	4cb00300 	ldcmi	3, cr0, [r0]
    512c:	04000000 	streq	r0, [r0], #-0
    5130:	08001f01 	stmdaeq	r0, {r0, r8, r9, sl, fp, ip}
    5134:	00535452 	subseq	r5, r3, r2, asr r4
    5138:	004cb303 	subeq	fp, ip, r3, lsl #6
    513c:	01040000 	mrseq	r0, (UNDEF: 4)
    5140:	2709001e 	smladcs	r9, lr, r0, r0
    5144:	0300000c 	movweq	r0, #12
    5148:	00004cb6 			; <UNDEFINED> instruction: 0x00004cb6
    514c:	1c020400 	cfstrsne	mvf0, [r2], {-0}
    5150:	0c310900 	ldceq	9, cr0, [r1], #-0
    5154:	b7030000 	strlt	r0, [r3, -r0]
    5158:	0000004c 	andeq	r0, r0, ip, asr #32
    515c:	00011b04 	andeq	r1, r1, r4, lsl #22
    5160:	000ccf09 	andeq	ip, ip, r9, lsl #30
    5164:	4cb80300 	ldcmi	3, cr0, [r8]
    5168:	04000000 	streq	r0, [r0], #-0
    516c:	00000001 	andeq	r0, r0, r1
    5170:	000d670a 	andeq	r6, sp, sl, lsl #14
    5174:	aa030400 	bge	c617c <_back_addr-0x1439e84>
    5178:	0000041a 	andeq	r0, r0, sl, lsl r4
    517c:	000ca80b 	andeq	sl, ip, fp, lsl #16
    5180:	4cac0300 	stcmi	3, cr0, [ip]
    5184:	0b000000 	bleq	518c <_back_addr-0x14fae74>
    5188:	00000dd0 	ldrdeq	r0, [r0], -r0	; <UNPREDICTABLE>
    518c:	03a3b903 			; <UNDEFINED> instruction: 0x03a3b903
    5190:	02000000 	andeq	r0, r0, #0
    5194:	00000d68 	andeq	r0, r0, r8, ror #26
    5198:	03f7bb03 	mvnseq	fp, #3072	; 0xc00
    519c:	04070000 	streq	r0, [r7], #-0
    51a0:	04b0c003 	ldrteq	ip, [r0], #3
    51a4:	44080000 	strmi	r0, [r8], #-0
    51a8:	c3030052 	movwgt	r0, #12370	; 0x3052
    51ac:	0000004c 	andeq	r0, r0, ip, asr #32
    51b0:	001f0104 	andseq	r0, pc, r4, lsl #2
    51b4:	00454f08 	subeq	r4, r5, r8, lsl #30
    51b8:	004cc703 	subeq	ip, ip, r3, lsl #14
    51bc:	01040000 	mrseq	r0, (UNDEF: 4)
    51c0:	5008001e 	andpl	r0, r8, lr, lsl r0
    51c4:	cc030045 	stcgt	0, cr0, [r3], {69}	; 0x45
    51c8:	0000004c 	andeq	r0, r0, ip, asr #32
    51cc:	001d0104 	andseq	r0, sp, r4, lsl #2
    51d0:	00454608 	subeq	r4, r5, r8, lsl #12
    51d4:	004ccd03 	subeq	ip, ip, r3, lsl #26
    51d8:	01040000 	mrseq	r0, (UNDEF: 4)
    51dc:	4208001c 	andmi	r0, r8, #28
    51e0:	ce030049 	cdpgt	0, 0, cr0, cr3, cr9, {2}
    51e4:	0000004c 	andeq	r0, r0, ip, asr #32
    51e8:	001b0104 	andseq	r0, fp, r4, lsl #2
    51ec:	000c5709 	andeq	r5, ip, r9, lsl #14
    51f0:	4ccf0300 	stclmi	3, cr0, [pc], {0}
    51f4:	04000000 	streq	r0, [r0], #-0
    51f8:	09001a01 	stmdbeq	r0, {r0, r9, fp, ip}
    51fc:	00000c74 	andeq	r0, r0, r4, ror ip
    5200:	004cd203 	subeq	sp, ip, r3, lsl #4
    5204:	01040000 	mrseq	r0, (UNDEF: 4)
    5208:	52080019 	andpl	r0, r8, #25
    520c:	03004546 	movweq	r4, #1350	; 0x546
    5210:	00004cd5 	ldrdeq	r4, [r0], -r5
    5214:	18010400 	stmdane	r1, {sl}
    5218:	0b9d0900 	bleq	fe747620 <__bss_end__+0xfd233ae0>
    521c:	d7030000 	strle	r0, [r3, -r0]
    5220:	0000004c 	andeq	r0, r0, ip, asr #32
    5224:	00001804 	andeq	r1, r0, r4, lsl #16
    5228:	0bea0a00 	bleq	ffa87a30 <__bss_end__+0xfe573ef0>
    522c:	03040000 	movweq	r0, #16384	; 0x4000
    5230:	0004d3bd 			; <UNDEFINED> instruction: 0x0004d3bd
    5234:	0ca80b00 	vstmiaeq	r8!, {d0-d-1}
    5238:	bf030000 	svclt	0x00030000
    523c:	0000004c 	andeq	r0, r0, ip, asr #32
    5240:	000dd00b 	andeq	sp, sp, fp
    5244:	25d80300 	ldrbcs	r0, [r8, #768]	; 0x300
    5248:	00000004 	andeq	r0, r0, r4
    524c:	000beb02 	andeq	lr, fp, r2, lsl #22
    5250:	b0da0300 	sbcslt	r0, sl, r0, lsl #6
    5254:	07000004 	streq	r0, [r0, -r4]
    5258:	4fdf0304 	svcmi	0x00df0304
    525c:	09000005 	stmdbeq	r0, {r0, r2}
    5260:	00000c64 	andeq	r0, r0, r4, ror #24
    5264:	004ce303 	subeq	lr, ip, r3, lsl #6
    5268:	01040000 	mrseq	r0, (UNDEF: 4)
    526c:	2709001f 	smladcs	r9, pc, r0, r0	; <UNPREDICTABLE>
    5270:	0300000c 	movweq	r0, #12
    5274:	00004ce5 	andeq	r4, r0, r5, ror #25
    5278:	1c030400 	cfstrsne	mvf0, [r3], {-0}
    527c:	54430800 	strbpl	r0, [r3], #-2048	; 0x800
    5280:	e6030053 			; <UNDEFINED> instruction: 0xe6030053
    5284:	0000004c 	andeq	r0, r0, ip, asr #32
    5288:	001b0104 	andseq	r0, fp, r4, lsl #2
    528c:	52534408 	subspl	r4, r3, #8, 8	; 0x8000000
    5290:	4ce90300 	stclmi	3, cr0, [r9]
    5294:	04000000 	streq	r0, [r0], #-0
    5298:	08001a01 	stmdaeq	r0, {r0, r9, fp, ip}
    529c:	03004952 	movweq	r4, #2386	; 0x952
    52a0:	00004cec 	andeq	r4, r0, ip, ror #25
    52a4:	19010400 	stmdbne	r1, {sl}
    52a8:	43440800 	movtmi	r0, #18432	; 0x4800
    52ac:	ef030044 	svc	0x00030044
    52b0:	0000004c 	andeq	r0, r0, ip, asr #32
    52b4:	00180104 	andseq	r0, r8, r4, lsl #2
    52b8:	000c3109 	andeq	r3, ip, r9, lsl #2
    52bc:	4cf20300 	ldclmi	3, cr0, [r2]
    52c0:	04000000 	streq	r0, [r0], #-0
    52c4:	00000018 	andeq	r0, r0, r8, lsl r0
    52c8:	000d1a0a 	andeq	r1, sp, sl, lsl #20
    52cc:	dc030400 	cfstrsle	mvf0, [r3], {-0}
    52d0:	00000572 	andeq	r0, r0, r2, ror r5
    52d4:	000ca80b 	andeq	sl, ip, fp, lsl #16
    52d8:	4cde0300 	ldclmi	3, cr0, [lr], {0}
    52dc:	0b000000 	bleq	52e4 <_back_addr-0x14fad1c>
    52e0:	00000dd0 	ldrdeq	r0, [r0], -r0	; <UNPREDICTABLE>
    52e4:	04def403 	ldrbeq	pc, [lr], #1027	; 0x403	; <UNPREDICTABLE>
    52e8:	02000000 	andeq	r0, r0, #0
    52ec:	00000d1b 	andeq	r0, r0, fp, lsl sp
    52f0:	054ff603 	strbeq	pc, [pc, #-1539]	; 4cf5 <_back_addr-0x14fb30b>	; <UNPREDICTABLE>
    52f4:	04070000 	streq	r0, [r7], #-0
    52f8:	05a4fb03 	streq	pc, [r4, #2819]!	; 0xb03
    52fc:	53080000 	movwpl	r0, #32768	; 0x8000
    5300:	03005243 	movweq	r5, #579	; 0x243
    5304:	00004cfe 	strdeq	r4, [r0], -lr
    5308:	18080400 	stmdane	r8, {sl}
    530c:	0b9d0900 	bleq	fe747714 <__bss_end__+0xfd233bd4>
    5310:	ff030000 			; <UNDEFINED> instruction: 0xff030000
    5314:	0000004c 	andeq	r0, r0, ip, asr #32
    5318:	00001804 	andeq	r1, r0, r4, lsl #16
    531c:	0da50a00 	stceq	10, cr0, [r5]
    5320:	03040000 	movweq	r0, #16384	; 0x4000
    5324:	0005c8f8 	strdeq	ip, [r5], -r8
    5328:	0ca80b00 	vstmiaeq	r8!, {d0-d-1}
    532c:	fa030000 	blx	c5334 <_back_addr-0x143accc>
    5330:	0000004c 	andeq	r0, r0, ip, asr #32
    5334:	000dd00c 	andeq	sp, sp, ip
    5338:	01000300 	mrseq	r0, LR_irq
    533c:	0000057d 	andeq	r0, r0, sp, ror r5
    5340:	0da60d00 	stceq	13, cr0, [r6]
    5344:	02030000 	andeq	r0, r3, #0
    5348:	0005a401 	andeq	sl, r5, r1, lsl #8
    534c:	0cc60e00 	stcleq	14, cr0, [r6], {0}
    5350:	03200000 	teqeq	r0, #0
    5354:	064a0105 	strbeq	r0, [sl], -r5, lsl #2
    5358:	da0f0000 	ble	3c5360 <_back_addr-0x113aca0>
    535c:	0300000c 	movweq	r0, #12
    5360:	01450107 	cmpeq	r5, r7, lsl #2
    5364:	0f000000 	svceq	0x00000000
    5368:	00000bb9 			; <UNDEFINED> instruction: 0x00000bb9
    536c:	f9010803 			; <UNDEFINED> instruction: 0xf9010803
    5370:	04000001 	streq	r0, [r0], #-1
    5374:	000bdf0f 	andeq	sp, fp, pc, lsl #30
    5378:	01090300 	mrseq	r0, (UNDEF: 57)
    537c:	000002f8 	strdeq	r0, [r0], -r8
    5380:	0d910f08 	ldceq	15, cr0, [r1, #32]
    5384:	0a030000 	beq	c538c <_back_addr-0x143ac74>
    5388:	00039801 	andeq	r9, r3, r1, lsl #16
    538c:	480f0c00 	stmdami	pc, {sl, fp}	; <UNPREDICTABLE>
    5390:	0300000d 	movweq	r0, #13
    5394:	041a010b 	ldreq	r0, [sl], #-267	; 0x10b
    5398:	0f100000 	svceq	0x00100000
    539c:	00000c79 	andeq	r0, r0, r9, ror ip
    53a0:	d3010c03 	movwle	r0, #7171	; 0x1c03
    53a4:	14000004 	strne	r0, [r0], #-4
    53a8:	000c420f 	andeq	r4, ip, pc, lsl #4
    53ac:	010d0300 	mrseq	r0, SP_mon
    53b0:	00000572 	andeq	r0, r0, r2, ror r5
    53b4:	0c5c0f18 	mrrceq	15, 1, r0, ip, cr8
    53b8:	0e030000 	cdpeq	0, 0, cr0, cr3, cr0, {0}
    53bc:	0005c801 	andeq	ip, r5, r1, lsl #16
    53c0:	0d001c00 	stceq	12, cr1, [r0, #-0]
    53c4:	00000cc7 	andeq	r0, r0, r7, asr #25
    53c8:	d4011003 	strle	r1, [r1], #-3
    53cc:	10000005 	andne	r0, r0, r5
    53d0:	00000d2f 	andeq	r0, r0, pc, lsr #26
    53d4:	6e016701 	cdpvs	7, 0, cr6, cr1, cr1, {0}
    53d8:	11000006 	tstne	r0, r6
    53dc:	00000ce8 	andeq	r0, r0, r8, ror #25
    53e0:	066e6701 	strbteq	r6, [lr], -r1, lsl #14
    53e4:	05000000 	streq	r0, [r0, #-0]
    53e8:	00003004 	andeq	r3, r0, r4
    53ec:	0d101200 	lfmeq	f1, 4, [r0, #-0]
    53f0:	8e010000 	cdphi	0, 0, cr0, cr1, cr0, {0}
    53f4:	00068c01 	andeq	r8, r6, r1, lsl #24
    53f8:	0c211100 	stfeqs	f1, [r1], #-0
    53fc:	8e010000 	cdphi	0, 0, cr0, cr1, cr0, {0}
    5400:	00000057 	andeq	r0, r0, r7, asr r0
    5404:	09721200 	ldmdbeq	r2!, {r9, ip}^
    5408:	f6010000 			; <UNDEFINED> instruction: 0xf6010000
    540c:	0006c301 	andeq	ip, r6, r1, lsl #6
    5410:	73641300 	cmnvc	r4, #0, 6
    5414:	f6010074 			; <UNDEFINED> instruction: 0xf6010074
    5418:	000006c3 	andeq	r0, r0, r3, asr #13
    541c:	000c2111 	andeq	r2, ip, r1, lsl r1
    5420:	25f60100 	ldrbcs	r0, [r6, #256]!	; 0x100
    5424:	11000000 	mrsne	r0, (UNDEF: 0)
    5428:	0000049e 	muleq	r0, lr, r4
    542c:	004cf601 	subeq	pc, ip, r1, lsl #12
    5430:	69140000 	ldmdbvs	r4, {}	; <UNPREDICTABLE>
    5434:	4cf80100 	ldfmie	f0, [r8]
    5438:	00000000 	andeq	r0, r0, r0
    543c:	c7160415 			; <UNDEFINED> instruction: 0xc7160415
    5440:	01000003 	tsteq	r0, r3
    5444:	50277c33 	eorpl	r7, r7, r3, lsr ip
    5448:	00001c01 	andeq	r1, r0, r1, lsl #24
    544c:	179c0100 	ldrne	r0, [ip, r0, lsl #2]
    5450:	0000039d 	muleq	r0, sp, r3
    5454:	27984801 	ldrcs	r4, [r8, r1, lsl #16]
    5458:	00540150 	subseq	r0, r4, r0, asr r1
    545c:	9c010000 	stcls	0, cr0, [r1], {-0}
    5460:	0000070a 	andeq	r0, r0, sl, lsl #14
    5464:	00065718 	andeq	r5, r6, r8, lsl r7
    5468:	574a0100 	strbpl	r0, [sl, -r0, lsl #2]
    546c:	3e000000 	cdpcc	0, 0, cr0, cr0, cr0, {0}
    5470:	1900002d 	stmdbne	r0, {r0, r2, r3, r5}
    5474:	00000c4a 	andeq	r0, r0, sl, asr #24
    5478:	00574b01 	subseq	r4, r7, r1, lsl #22
    547c:	50000000 	andpl	r0, r0, r0
    5480:	17000055 	smlsdne	r0, r5, r0, r0
    5484:	00000344 	andeq	r0, r0, r4, asr #6
    5488:	27ec6201 	strbcs	r6, [ip, r1, lsl #4]!
    548c:	00280150 	eoreq	r0, r8, r0, asr r1
    5490:	9c010000 	stcls	0, cr0, [r1], {-0}
    5494:	0000072d 	andeq	r0, r0, sp, lsr #14
    5498:	000c861a 	andeq	r8, ip, sl, lsl r6
    549c:	5e620100 	powpls	f0, f2, f0
    54a0:	01000000 	mrseq	r0, (UNDEF: 0)
    54a4:	f9170050 			; <UNDEFINED> instruction: 0xf9170050
    54a8:	01000002 	tsteq	r0, r2
    54ac:	5028146e 	eorpl	r1, r8, lr, ror #8
    54b0:	00006801 	andeq	r6, r0, r1, lsl #16
    54b4:	959c0100 	ldrls	r0, [ip, #256]	; 0x100
    54b8:	1b000007 	blne	54dc <_back_addr-0x14fab24>
    54bc:	01006863 	tsteq	r0, r3, ror #16
    54c0:	0000856e 	andeq	r8, r0, lr, ror #10
    54c4:	002d5900 	eoreq	r5, sp, r0, lsl #18
    54c8:	68631c00 	stmdavs	r3!, {sl, fp, ip}^
    54cc:	72010038 	andvc	r0, r1, #56	; 0x38
    54d0:	00000030 	andeq	r0, r0, r0, lsr r0
    54d4:	00002d91 	muleq	r0, r1, sp
    54d8:	0006561d 	andeq	r5, r6, sp, lsl r6
    54dc:	50282800 	eorpl	r2, r8, r0, lsl #16
    54e0:	00060801 	andeq	r0, r6, r1, lsl #16
    54e4:	78780100 	ldmdavc	r8!, {r8}^
    54e8:	1e000007 	cdpne	0, 0, cr0, cr0, cr7, {0}
    54ec:	00000662 	andeq	r0, r0, r2, ror #12
    54f0:	06561f00 	ldrbeq	r1, [r6], -r0, lsl #30
    54f4:	283c0000 	ldmdacs	ip!, {}	; <UNPREDICTABLE>
    54f8:	00140150 	andseq	r0, r4, r0, asr r1
    54fc:	7b010000 	blvc	45504 <_back_addr-0x14baafc>
    5500:	00066220 	andeq	r6, r6, r0, lsr #4
    5504:	c9f20600 	ldmibgt	r2!, {r9, sl}^
    5508:	00000054 	andeq	r0, r0, r4, asr r0
    550c:	05170000 	ldreq	r0, [r7, #-0]
    5510:	0100000c 	tsteq	r0, ip
    5514:	50287c3a 	eorpl	r7, r8, sl, lsr ip
    5518:	00006001 	andeq	r6, r0, r1
    551c:	229c0100 	addscs	r0, ip, #0, 2
    5520:	21000008 	tstcs	r0, r8
    5524:	000009e4 	andeq	r0, r0, r4, ror #19
    5528:	08223a01 	stmdaeq	r2!, {r0, r9, fp, ip, sp}
    552c:	2db00000 	ldccs	0, cr0, [r0]
    5530:	43210000 	teqmi	r1, #0
    5534:	0100000d 	tsteq	r0, sp
    5538:	00004c3a 	andeq	r4, r0, sl, lsr ip
    553c:	002de700 	eoreq	lr, sp, r0, lsl #14
    5540:	0c212100 	stfeqs	f2, [r1], #-0
    5544:	3a010000 	bcc	4554c <_back_addr-0x14baab4>
    5548:	0000004c 	andeq	r0, r0, ip, asr #32
    554c:	00002e1e 	andeq	r2, r0, lr, lsl lr
    5550:	01006e1c 	tsteq	r0, ip, lsl lr
    5554:	00005e3b 	andeq	r5, r0, fp, lsr lr
    5558:	002e5500 	eoreq	r5, lr, r0, lsl #10
    555c:	06202200 	strteq	r2, [r0], -r0, lsl #4
    5560:	f5230000 			; <UNDEFINED> instruction: 0xf5230000
    5564:	01000009 	tsteq	r0, r9
    5568:	00005e43 	andeq	r5, r0, r3, asr #28
    556c:	0007fa00 	andeq	pc, r7, r0, lsl #20
    5570:	25002400 	strcs	r2, [r0, #-1024]	; 0x400
    5574:	015028b4 	ldrheq	r2, [r0, #-132]	; 0xffffff7c
    5578:	00000d35 	andeq	r0, r0, r5, lsr sp
    557c:	0000080d 	andeq	r0, r0, sp, lsl #16
    5580:	01500126 	cmpeq	r0, r6, lsr #2
    5584:	d8270031 	stmdale	r7!, {r0, r4, r5}
    5588:	2d015028 	stccs	0, cr5, [r1, #-160]	; 0xffffff60
    558c:	26000007 	strcs	r0, [r0], -r7
    5590:	03055001 	movweq	r5, #20481	; 0x5001
    5594:	015031d8 	ldrsbeq	r3, [r0, #-24]	; 0xffffffe8
    5598:	05000000 	streq	r0, [r0, #-0]
    559c:	00082804 	andeq	r2, r8, r4, lsl #16
    55a0:	004c2800 	subeq	r2, ip, r0, lsl #16
    55a4:	b2170000 	andslt	r0, r7, #0
    55a8:	0100000d 	tsteq	r0, sp
    55ac:	5028dc80 	eorpl	sp, r8, r0, lsl #25
    55b0:	00005001 	andeq	r5, r0, r1
    55b4:	899c0100 	ldmibhi	ip, {r8}
    55b8:	29000008 	stmdbcs	r0, {r3}
    55bc:	006c6176 	rsbeq	r6, ip, r6, ror r1
    55c0:	004c8001 	subeq	r8, ip, r1
    55c4:	50010000 	andpl	r0, r1, r0
    55c8:	6e656c1b 	mcrvs	12, 3, r6, cr5, cr11, {0}
    55cc:	4c800100 	stfmis	f0, [r0], {0}
    55d0:	b9000000 	stmdblt	r0, {}	; <UNPREDICTABLE>
    55d4:	1c00002e 	stcne	0, cr0, [r0], {46}	; 0x2e
    55d8:	01006863 	tsteq	r0, r3, ror #16
    55dc:	00003083 	andeq	r3, r0, r3, lsl #1
    55e0:	002ed700 	eoreq	sp, lr, r0, lsl #14
    55e4:	06562a00 	ldrbeq	r2, [r6], -r0, lsl #20
    55e8:	29080000 	stmdbcs	r8, {}	; <UNPREDICTABLE>
    55ec:	06400150 			; <UNDEFINED> instruction: 0x06400150
    55f0:	89010000 	stmdbhi	r1, {}	; <UNPREDICTABLE>
    55f4:	00066220 	andeq	r6, r6, r0, lsr #4
    55f8:	d7f20600 	ldrble	r0, [r2, r0, lsl #12]!
    55fc:	00000055 	andeq	r0, r0, r5, asr r0
    5600:	742b0000 	strtvc	r0, [fp], #-0
    5604:	2c000006 	stccs	0, cr0, [r0], {6}
    5608:	08015029 	stmdaeq	r1, {r0, r3, r5, ip, lr}
    560c:	01000000 	mrseq	r0, (UNDEF: 0)
    5610:	0008bc9c 	muleq	r8, ip, ip
    5614:	06802c00 	streq	r2, [r0], r0, lsl #24
    5618:	2ef50000 	cdpcs	0, 15, cr0, cr5, cr0, {0}
    561c:	34270000 	strtcc	r0, [r7], #-0
    5620:	2d015029 	stccs	0, cr5, [r1, #-164]	; 0xffffff5c
    5624:	26000008 	strcs	r0, [r0], -r8
    5628:	f3035001 	vhadd.u8	d5, d3, d1
    562c:	01265001 	teqeq	r6, r1
    5630:	00380151 	eorseq	r0, r8, r1, asr r1
    5634:	0b881600 	bleq	fe20ae3c <__bss_end__+0xfccf72fc>
    5638:	9a010000 	bls	45640 <_back_addr-0x14ba9c0>
    563c:	01502934 	cmpeq	r0, r4, lsr r9
    5640:	00000004 	andeq	r0, r0, r4
    5644:	d1179c01 	tstle	r7, r1, lsl #24
    5648:	0100000b 	tsteq	r0, fp
    564c:	502938a0 	eorpl	r3, r9, r0, lsr #17
    5650:	00002401 	andeq	r2, r0, r1, lsl #8
    5654:	0b9c0100 	bleq	fe705a5c <__bss_end__+0xfd1f1f1c>
    5658:	29000009 	stmdbcs	r0, {r0, r3}
    565c:	01006863 	tsteq	r0, r3, ror #16
    5660:	000090a0 	andeq	r9, r0, r0, lsr #1
    5664:	1f500100 	svcne	0x00500100
    5668:	00000656 	andeq	r0, r0, r6, asr r6
    566c:	01502944 	cmpeq	r0, r4, asr #18
    5670:	00000018 	andeq	r0, r0, r8, lsl r0
    5674:	6220a401 	eorvs	sl, r0, #16777216	; 0x1000000
    5678:	06000006 	streq	r0, [r0], -r6
    567c:	00565bf2 	ldrsheq	r5, [r6], #-178	; 0xffffff4e
    5680:	00000000 	andeq	r0, r0, r0
    5684:	000c692d 	andeq	r6, ip, sp, lsr #18
    5688:	57a80100 	strpl	r0, [r8, r0, lsl #2]!
    568c:	5c000000 	stcpl	0, cr0, [r0], {-0}
    5690:	0c015029 	stceq	0, cr5, [r1], {41}	; 0x29
    5694:	01000000 	mrseq	r0, (UNDEF: 0)
    5698:	00095e9c 	muleq	r9, ip, lr
    569c:	00731b00 	rsbseq	r1, r3, r0, lsl #22
    56a0:	095ea801 	ldmdbeq	lr, {r0, fp, sp, pc}^
    56a4:	2f160000 	svccs	0x00160000
    56a8:	c3230000 	teqgt	r3, #0
    56ac:	01000001 	tsteq	r0, r1
    56b0:	00005eaa 	andeq	r5, r0, sl, lsr #29
    56b4:	00094200 	andeq	r4, r9, r0, lsl #4
    56b8:	27002400 	strcs	r2, [r0, -r0, lsl #8]
    56bc:	01502968 	cmpeq	r0, r8, ror #18
    56c0:	00000d46 	andeq	r0, r0, r6, asr #26
    56c4:	03500126 	cmpeq	r0, #-2147483639	; 0x80000009
    56c8:	265001f3 			; <UNDEFINED> instruction: 0x265001f3
    56cc:	30015101 	andcc	r5, r1, r1, lsl #2
    56d0:	01520126 	cmpeq	r2, r6, lsr #2
    56d4:	05000040 	streq	r0, [r0, #-64]	; 0x40
    56d8:	00009004 	andeq	r9, r0, r4
    56dc:	0bf72d00 	bleq	ffdd0ae4 <__bss_end__+0xfe8bcfa4>
    56e0:	ad010000 	stcge	0, cr0, [r1, #-0]
    56e4:	000006c3 	andeq	r0, r0, r3, asr #13
    56e8:	01502968 	cmpeq	r0, r8, ror #18
    56ec:	00000054 	andeq	r0, r0, r4, asr r0
    56f0:	09bc9c01 	ldmibeq	ip!, {r0, sl, fp, ip, pc}
    56f4:	27210000 	strcs	r0, [r1, -r0]!
    56f8:	0100000d 	tsteq	r0, sp
    56fc:	000057ad 	andeq	r5, r0, sp, lsr #15
    5700:	002f3700 	eoreq	r3, pc, r0, lsl #14
    5704:	0bab2e00 	bleq	fead0f0c <__bss_end__+0xfd5bd3cc>
    5708:	af010000 	svcge	0x00010000
    570c:	00000057 	andeq	r0, r0, r7, asr r0
    5710:	36e80305 	strbtcc	r0, [r8], r5, lsl #6
    5714:	ae2e0151 	mcrge	1, 1, r0, cr14, cr1, {2}
    5718:	0100000c 	tsteq	r0, ip
    571c:	000057b0 			; <UNDEFINED> instruction: 0x000057b0
    5720:	3c030500 	cfstr32cc	mvfx0, [r3], {-0}
    5724:	1c01513b 	stfnes	f5, [r1], {59}	; 0x3b
    5728:	b1010070 	tstlt	r1, r0, ror r0
    572c:	000006c3 	andeq	r0, r0, r3, asr #13
    5730:	00002f6e 	andeq	r2, r0, lr, ror #30
    5734:	0c9b2d00 	ldceq	13, cr2, [fp], {0}
    5738:	c2010000 	andgt	r0, r1, #0
    573c:	0000005e 	andeq	r0, r0, lr, asr r0
    5740:	015029bc 	ldrheq	r2, [r0, #-156]	; 0xffffff64
    5744:	00000034 	andeq	r0, r0, r4, lsr r0
    5748:	09e39c01 	stmibeq	r3!, {r0, sl, fp, ip, pc}^
    574c:	631b0000 	tstvs	fp, #0
    5750:	90c20100 	sbcls	r0, r2, r0, lsl #2
    5754:	81000000 	mrshi	r0, (UNDEF: 0)
    5758:	0000002f 	andeq	r0, r0, pc, lsr #32
    575c:	000aa317 	andeq	sl, sl, r7, lsl r3
    5760:	f0ce0100 			; <UNDEFINED> instruction: 0xf0ce0100
    5764:	b0015029 	andlt	r5, r1, r9, lsr #32
    5768:	01000000 	mrseq	r0, (UNDEF: 0)
    576c:	000b1b9c 	muleq	fp, ip, fp
    5770:	74731b00 	ldrbtvc	r1, [r3], #-2816	; 0xb00
    5774:	ce010072 	mcrgt	0, 0, r0, cr1, cr2, {3}
    5778:	00000085 	andeq	r0, r0, r5, lsl #1
    577c:	00002fbb 			; <UNDEFINED> instruction: 0x00002fbb
    5780:	6675621b 			; <UNDEFINED> instruction: 0x6675621b
    5784:	1bce0100 	blne	ff385b8c <__bss_end__+0xfde7204c>
    5788:	f500000b 			; <UNDEFINED> instruction: 0xf500000b
    578c:	2100002f 	tstcs	r0, pc, lsr #32
    5790:	0000099a 	muleq	r0, sl, r9
    5794:	0057ce01 	subseq	ip, r7, r1, lsl #28
    5798:	30520000 	subscc	r0, r2, r0
    579c:	691c0000 	ldmdbvs	ip, {}	; <UNPREDICTABLE>
    57a0:	57d00100 	ldrbpl	r0, [r0, r0, lsl #2]
    57a4:	97000000 	strls	r0, [r0, -r0]
    57a8:	1c000030 	stcne	0, cr0, [r0], {48}	; 0x30
    57ac:	00727470 	rsbseq	r7, r2, r0, ror r4
    57b0:	095ed101 	ldmdbeq	lr, {r0, r8, ip, lr, pc}^
    57b4:	2ff50000 	svccs	0x00f50000
    57b8:	532f0000 	teqpl	pc, #0
    57bc:	39000009 	stmdbcc	r0, {r0, r3}
    57c0:	0500000b 	streq	r0, [r0, #-11]
    57c4:	5031d003 	eorspl	sp, r1, r3
    57c8:	06743001 	ldrbteq	r3, [r4], -r1
    57cc:	2a300000 	bcs	c057d4 <_back_addr-0x8fa82c>
    57d0:	00100150 	andseq	r0, r0, r0, asr r1
    57d4:	da010000 	ble	457dc <_back_addr-0x14ba824>
    57d8:	00000a82 	andeq	r0, r0, r2, lsl #21
    57dc:	0006802c 	andeq	r8, r6, ip, lsr #32
    57e0:	0030c200 	eorseq	ip, r0, r0, lsl #4
    57e4:	2a403100 	bcs	1011bec <_back_addr-0x4ee414>
    57e8:	082d0150 	stmdaeq	sp!, {r4, r6, r8}
    57ec:	01260000 	teqeq	r6, r0
    57f0:	01750250 	cmneq	r5, r0, asr r2
    57f4:	01510126 	cmpeq	r1, r6, lsr #2
    57f8:	25000038 	strcs	r0, [r0, #-56]	; 0x38
    57fc:	01502a24 	cmpeq	r0, r4, lsr #20
    5800:	0000072d 	andeq	r0, r0, sp, lsr #14
    5804:	00000aa6 	andeq	r0, r0, r6, lsr #21
    5808:	12500126 	subsne	r0, r0, #-2147483639	; 0x80000009
    580c:	5031d003 	eorspl	sp, r1, r3
    5810:	5001f301 	andpl	pc, r1, r1, lsl #6
    5814:	305001f3 	ldrshcc	r0, [r0], #-19	; 0xffffffed
    5818:	00012829 	andeq	r2, r1, r9, lsr #16
    581c:	25001316 	strcs	r1, [r0, #-790]	; 0x316
    5820:	01502a30 	cmpeq	r0, r0, lsr sl
    5824:	0000072d 	andeq	r0, r0, sp, lsr #14
    5828:	00000abd 			; <UNDEFINED> instruction: 0x00000abd
    582c:	05500126 	ldrbeq	r0, [r0, #-294]	; 0x126
    5830:	5031ec03 	eorspl	lr, r1, r3, lsl #24
    5834:	4c250001 	stcmi	0, cr0, [r5], #-4
    5838:	2d01502a 	stccs	0, cr5, [r1, #-168]	; 0xffffff58
    583c:	d4000007 	strle	r0, [r0], #-7
    5840:	2600000a 	strcs	r0, [r0], -sl
    5844:	03055001 	movweq	r5, #20481	; 0x5001
    5848:	015031f4 	ldrsheq	r3, [r0, #-20]	; 0xffffffec
    584c:	2a582500 	bcs	160ec54 <__bss_end__+0xfb114>
    5850:	082d0150 	stmdaeq	sp!, {r4, r6, r8}
    5854:	0ae70000 	beq	ff9c585c <__bss_end__+0xfe4b1d1c>
    5858:	01260000 	teqeq	r6, r0
    585c:	00320151 	eorseq	r0, r2, r1, asr r1
    5860:	502a7832 	eorpl	r7, sl, r2, lsr r8
    5864:	00072d01 	andeq	r2, r7, r1, lsl #26
    5868:	2a903300 	bcs	fe412470 <__bss_end__+0xfcefe930>
    586c:	072d0150 			; <UNDEFINED> instruction: 0x072d0150
    5870:	0b070000 	bleq	1c5878 <_back_addr-0x133a788>
    5874:	01260000 	teqeq	r6, r0
    5878:	a8030550 	stmdage	r3, {r4, r6, r8, sl}
    587c:	0001502f 	andeq	r5, r1, pc, lsr #32
    5880:	502aa027 	eorpl	sl, sl, r7, lsr #32
    5884:	00072d01 	andeq	r2, r7, r1, lsl #26
    5888:	50012600 	andpl	r2, r1, r0, lsl #12
    588c:	31e40305 	mvncc	r0, r5, lsl #6
    5890:	00000150 	andeq	r0, r0, r0, asr r1
    5894:	0b210405 	bleq	8468b0 <_back_addr-0xcb9750>
    5898:	35340000 	ldrcc	r0, [r4, #-0]!
    589c:	00000090 	muleq	r0, r0, r0
    58a0:	00000b32 	andeq	r0, r0, r2, lsr fp
    58a4:	000b3236 	andeq	r3, fp, r6, lsr r2
    58a8:	03000700 	movweq	r0, #1792	; 0x700
    58ac:	01f00704 	mvnseq	r0, r4, lsl #14
    58b0:	22060000 	andcs	r0, r6, #0
    58b4:	2d00000b 	stccs	0, cr0, [r0, #-44]	; 0xffffffd4
    58b8:	00000a3f 	andeq	r0, r0, pc, lsr sl
    58bc:	06c3f001 	strbeq	pc, [r3], r1	; <UNPREDICTABLE>
    58c0:	2aa00000 	bcs	fe8058c8 <__bss_end__+0xfd2f1d88>
    58c4:	00240150 	eoreq	r0, r4, r0, asr r1
    58c8:	9c010000 	stcls	0, cr0, [r1], {-0}
    58cc:	00000bb5 			; <UNDEFINED> instruction: 0x00000bb5
    58d0:	01007329 	tsteq	r0, r9, lsr #6
    58d4:	0006c3f0 	strdeq	ip, [r6], -r0
    58d8:	1b500100 	blne	1405ce0 <_back_addr-0xfa320>
    58dc:	f0010063 			; <UNDEFINED> instruction: 0xf0010063
    58e0:	0000005e 	andeq	r0, r0, lr, asr r0
    58e4:	000030fb 	strdeq	r3, [r0], -fp
    58e8:	000cb421 	andeq	fp, ip, r1, lsr #8
    58ec:	7af00100 	bvc	ffc05cf4 <__bss_end__+0xfe6f21b4>
    58f0:	1c000000 	stcne	0, cr0, [r0], {-0}
    58f4:	2a000031 	bcs	59c0 <_back_addr-0x14fa640>
    58f8:	0000068c 	andeq	r0, r0, ip, lsl #13
    58fc:	01502aa0 	cmpeq	r0, r0, lsr #21
    5900:	00000658 	andeq	r0, r0, r8, asr r6
    5904:	ae2cf201 	cdpge	2, 2, cr15, cr12, cr1, {0}
    5908:	3d000006 	stccc	0, cr0, [r0, #-24]	; 0xffffffe8
    590c:	20000031 	andcs	r0, r0, r1, lsr r0
    5910:	000006a3 	andeq	r0, r0, r3, lsr #13
    5914:	98205101 	stmdals	r0!, {r0, r8, ip, lr}
    5918:	01000006 	tsteq	r0, r6
    591c:	06582250 			; <UNDEFINED> instruction: 0x06582250
    5920:	b9370000 	ldmdblt	r7!, {}	; <UNPREDICTABLE>
    5924:	5e000006 	cdppl	0, 0, cr0, cr0, cr6, {0}
    5928:	00000031 	andeq	r0, r0, r1, lsr r0
    592c:	8c2b0000 	stchi	0, cr0, [fp], #-0
    5930:	c4000006 	strgt	r0, [r0], #-6
    5934:	1c01502a 	stcne	0, cr5, [r1], {42}	; 0x2a
    5938:	01000000 	mrseq	r0, (UNDEF: 0)
    593c:	000beb9c 	muleq	fp, ip, fp
    5940:	06982c00 	ldreq	r2, [r8], r0, lsl #24
    5944:	31720000 	cmncc	r2, r0
    5948:	a3200000 	teqge	r0, #0
    594c:	01000006 	tsteq	r0, r6
    5950:	06ae2c51 	ssateq	r2, #15, r1, asr #24
    5954:	31930000 	orrscc	r0, r3, r0
    5958:	b9370000 	ldmdblt	r7!, {}	; <UNPREDICTABLE>
    595c:	b4000006 	strlt	r0, [r0], #-6
    5960:	00000031 	andeq	r0, r0, r1, lsr r0
    5964:	000a2d17 	andeq	r2, sl, r7, lsl sp
    5968:	e0fd0100 	rscs	r0, sp, r0, lsl #2
    596c:	9c01502a 	stcls	0, cr5, [r1], {42}	; 0x2a
    5970:	01000000 	mrseq	r0, (UNDEF: 0)
    5974:	000c349c 	muleq	ip, ip, r4
    5978:	73642900 	cmnvc	r4, #0, 18
    597c:	fd010074 	stc2	0, cr0, [r1, #-464]	; 0xfffffe30
    5980:	000006c3 	andeq	r0, r0, r3, asr #13
    5984:	73295001 	teqvc	r9, #1
    5988:	01006372 	tsteq	r0, r2, ror r3
    598c:	0006c3fd 	strdeq	ip, [r6], -sp
    5990:	1a510100 	bne	1445d98 <_back_addr-0xba268>
    5994:	0000049e 	muleq	r0, lr, r4
    5998:	0057fd01 	subseq	pc, r7, r1, lsl #26
    599c:	52010000 	andpl	r0, r1, #0
    59a0:	01006938 	tsteq	r0, r8, lsr r9
    59a4:	000c34ff 	strdeq	r3, [ip], -pc	; <UNPREDICTABLE>
    59a8:	7c910200 	lfmvc	f0, 4, [r1], {0}
    59ac:	00572800 	subseq	r2, r7, r0, lsl #16
    59b0:	c1390000 	teqgt	r9, r0
    59b4:	0100000d 	tsteq	r0, sp
    59b8:	005e010c 	subseq	r0, lr, ip, lsl #2
    59bc:	2b7c0000 	blcs	1f059c4 <__bss_end__+0x9f1e84>
    59c0:	00580150 	subseq	r0, r8, r0, asr r1
    59c4:	9c010000 	stcls	0, cr0, [r1], {-0}
    59c8:	00000cae 	andeq	r0, r0, lr, lsr #25
    59cc:	0031733a 	eorseq	r7, r1, sl, lsr r3
    59d0:	c3010c01 	movwgt	r0, #7169	; 0x1c01
    59d4:	ec000006 	stc	0, cr0, [r0], {6}
    59d8:	3a000031 	bcc	5aa4 <_back_addr-0x14fa55c>
    59dc:	01003273 	tsteq	r0, r3, ror r2
    59e0:	06c3010c 	strbeq	r0, [r3], ip, lsl #2
    59e4:	323f0000 	eorscc	r0, pc, #0
    59e8:	9e3b0000 	cdpls	0, 3, cr0, cr11, cr0, {0}
    59ec:	01000004 	tsteq	r0, r4
    59f0:	004c010c 	subeq	r0, ip, ip, lsl #2
    59f4:	326b0000 	rsbcc	r0, fp, #0
    59f8:	693c0000 	ldmdbvs	ip!, {}	; <UNPREDICTABLE>
    59fc:	010e0100 	mrseq	r0, (UNDEF: 30)
    5a00:	0000004c 	andeq	r0, r0, ip, asr #32
    5a04:	00003297 	muleq	r0, r7, r2
    5a08:	0031703c 	eorseq	r7, r1, ip, lsr r0
    5a0c:	5e010f01 	cdppl	15, 0, cr0, cr1, cr1, {0}
    5a10:	ec000009 	stc	0, cr0, [r0], {9}
    5a14:	3c000031 	stccc	0, cr0, [r0], {49}	; 0x31
    5a18:	01003270 	tsteq	r0, r0, ror r2
    5a1c:	095e010f 	ldmdbeq	lr, {r0, r1, r2, r3, r8}^
    5a20:	32f90000 	rscscc	r0, r9, #0
    5a24:	39000000 	stmdbcc	r0, {}	; <UNPREDICTABLE>
    5a28:	00000cba 			; <UNDEFINED> instruction: 0x00000cba
    5a2c:	5e011c01 	cdppl	12, 0, cr1, cr1, cr1, {0}
    5a30:	d4000000 	strle	r0, [r0], #-0
    5a34:	4401502b 	strmi	r5, [r1], #-43	; 0x2b
    5a38:	01000000 	mrseq	r0, (UNDEF: 0)
    5a3c:	000cf59c 	muleq	ip, ip, r5
    5a40:	31733a00 	cmncc	r3, r0, lsl #20
    5a44:	011c0100 	tsteq	ip, r0, lsl #2
    5a48:	00000085 	andeq	r0, r0, r5, lsl #1
    5a4c:	00003325 	andeq	r3, r0, r5, lsr #6
    5a50:	0032733a 	eorseq	r7, r2, sl, lsr r3
    5a54:	85011c01 	strhi	r1, [r1, #-3073]	; 0xc01
    5a58:	46000000 	strmi	r0, [r0], -r0
    5a5c:	3c000033 	stccc	0, cr0, [r0], {51}	; 0x33
    5a60:	1e010069 	cdpne	0, 0, cr0, cr1, cr9, {3}
    5a64:	00004c01 	andeq	r4, r0, r1, lsl #24
    5a68:	00336700 	eorseq	r6, r3, r0, lsl #14
    5a6c:	013d0000 	teqeq	sp, r0
    5a70:	0100000d 	tsteq	r0, sp
    5a74:	2c18012a 	ldfcss	f0, [r8], {42}	; 0x2a
    5a78:	00280150 	eoreq	r0, r8, r0, asr r1
    5a7c:	9c010000 	stcls	0, cr0, [r1], {-0}
    5a80:	000d3c3d 	andeq	r3, sp, sp, lsr ip
    5a84:	01470100 	mrseq	r0, (UNDEF: 87)
    5a88:	01502c40 	cmpeq	r0, r0, asr #24
    5a8c:	00000004 	andeq	r0, r0, r4
    5a90:	742e9c01 	strtvc	r9, [lr], #-3073	; 0xc01
    5a94:	0100000d 	tsteq	r0, sp
    5a98:	000d2a15 	andeq	r2, sp, r5, lsl sl
    5a9c:	e4030500 	str	r0, [r3], #-1280	; 0x500
    5aa0:	05015136 	streq	r5, [r1, #-310]	; 0x136
    5aa4:	000d3004 	andeq	r3, sp, r4
    5aa8:	064a2800 	strbeq	r2, [sl], -r0, lsl #16
    5aac:	f5230000 			; <UNDEFINED> instruction: 0xf5230000
    5ab0:	01000009 	tsteq	r0, r9
    5ab4:	00005e43 	andeq	r5, r0, r3, asr #28
    5ab8:	000d4600 	andeq	r4, sp, r0, lsl #12
    5abc:	3e002400 	cfcpyscc	mvf2, mvf0
    5ac0:	000001c3 	andeq	r0, r0, r3, asr #3
    5ac4:	005eaa01 	subseq	sl, lr, r1, lsl #20
    5ac8:	00240000 	eoreq	r0, r4, r0
    5acc:	0008f500 	andeq	pc, r8, r0, lsl #10
    5ad0:	5b000400 	blpl	6ad8 <_back_addr-0x14f9528>
    5ad4:	04000013 	streq	r0, [r0], #-19
    5ad8:	00006001 	andeq	r6, r0, r1
    5adc:	0ed90100 	cdpeq	1, 13, cr0, cr9, cr0, {0}
    5ae0:	04480000 	strbeq	r0, [r8], #-0
    5ae4:	2c440000 	marcs	acc0, r0, r4
    5ae8:	02180150 	andseq	r0, r8, #80, 2
    5aec:	112f0000 	teqne	pc, r0
    5af0:	04020000 	streq	r0, [r2], #-0
    5af4:	0001f007 	andeq	pc, r1, r7
    5af8:	07040200 	streq	r0, [r4, -r0, lsl #4]
    5afc:	00000036 	andeq	r0, r0, r6, lsr r0
    5b00:	69050403 	stmdbvs	r5, {r0, r1, sl}
    5b04:	0200746e 	andeq	r7, r0, #1845493760	; 0x6e000000
    5b08:	001e0702 	andseq	r0, lr, r2, lsl #14
    5b0c:	04020000 	streq	r0, [r2], #-0
    5b10:	00004d05 	andeq	r4, r0, r5, lsl #26
    5b14:	07040200 	streq	r0, [r4, -r0, lsl #4]
    5b18:	0000003b 	andeq	r0, r0, fp, lsr r0
    5b1c:	19080102 	stmdbne	r8, {r1, r8}
    5b20:	02000000 	andeq	r0, r0, #0
    5b24:	00480508 	subeq	r0, r8, r8, lsl #10
    5b28:	01020000 	mrseq	r0, (UNDEF: 2)
    5b2c:	00001206 	andeq	r1, r0, r6, lsl #4
    5b30:	08010200 	stmdaeq	r1, {r9}
    5b34:	00000010 	andeq	r0, r0, r0, lsl r0
    5b38:	56050202 	strpl	r0, [r5], -r2, lsl #4
    5b3c:	02000000 	andeq	r0, r0, #0
    5b40:	00310708 	eorseq	r0, r1, r8, lsl #14
    5b44:	73040000 	movwvc	r0, #16384	; 0x4000
    5b48:	03003233 	movweq	r3, #563	; 0x233
    5b4c:	00003324 	andeq	r3, r0, r4, lsr #6
    5b50:	33750400 	cmncc	r5, #0, 8
    5b54:	25030032 	strcs	r0, [r3, #-50]	; 0x32
    5b58:	00000048 	andeq	r0, r0, r8, asr #32
    5b5c:	000a6f05 	andeq	r6, sl, r5, lsl #30
    5b60:	ee050400 	cfcpys	mvf0, mvf5
    5b64:	0000b501 	andeq	fp, r0, r1, lsl #10
    5b68:	09ca0600 	stmibeq	sl, {r9, sl}^
    5b6c:	06000000 	streq	r0, [r0], -r0
    5b70:	0000093a 	andeq	r0, r0, sl, lsr r9
    5b74:	08b90601 	ldmeq	r9!, {r0, r9, sl}
    5b78:	06020000 	streq	r0, [r2], -r0
    5b7c:	0000097d 	andeq	r0, r0, sp, ror r9
    5b80:	df070003 	svcle	0x00070003
    5b84:	0100000d 	tsteq	r0, sp
    5b88:	00e30127 	rsceq	r0, r3, r7, lsr #2
    5b8c:	24080000 	strcs	r0, [r8], #-0
    5b90:	01000010 	tsteq	r0, r0, lsl r0
    5b94:	00008427 	andeq	r8, r0, r7, lsr #8
    5b98:	10460800 	subne	r0, r6, r0, lsl #16
    5b9c:	27010000 	strcs	r0, [r1, -r0]
    5ba0:	00000084 	andeq	r0, r0, r4, lsl #1
    5ba4:	000de309 	andeq	lr, sp, r9, lsl #6
    5ba8:	84280100 	strthi	r0, [r8], #-256	; 0x100
    5bac:	00000000 	andeq	r0, r0, r0
    5bb0:	000fae0a 	andeq	sl, pc, sl, lsl #28
    5bb4:	842e0100 	strthi	r0, [lr], #-256	; 0x100
    5bb8:	01000000 	mrseq	r0, (UNDEF: 0)
    5bbc:	000000ff 	strdeq	r0, [r0], -pc	; <UNPREDICTABLE>
    5bc0:	000fb209 	andeq	fp, pc, r9, lsl #4
    5bc4:	84300100 	ldrthi	r0, [r0], #-256	; 0x100
    5bc8:	00000000 	andeq	r0, r0, r0
    5bcc:	000ec80a 	andeq	ip, lr, sl, lsl #16
    5bd0:	791b0200 	ldmdbvc	fp, {r9}
    5bd4:	03000000 	movweq	r0, #0
    5bd8:	0000012f 	andeq	r0, r0, pc, lsr #2
    5bdc:	02006e0b 	andeq	r6, r0, #11, 28	; 0xb0
    5be0:	0000841b 	andeq	r8, r0, fp, lsl r4
    5be4:	0f330900 	svceq	0x00330900
    5be8:	1d020000 	stcne	0, cr0, [r2, #-0]
    5bec:	00000079 	andeq	r0, r0, r9, ror r0
    5bf0:	00089109 	andeq	r9, r8, r9, lsl #2
    5bf4:	841e0200 	ldrhi	r0, [lr], #-512	; 0x200
    5bf8:	00000000 	andeq	r0, r0, r0
    5bfc:	000e1d07 	andeq	r1, lr, r7, lsl #26
    5c00:	01400100 	mrseq	r0, (UNDEF: 80)
    5c04:	00000194 	muleq	r0, r4, r1
    5c08:	00102408 	andseq	r2, r0, r8, lsl #8
    5c0c:	84400100 	strbhi	r0, [r0], #-256	; 0x100
    5c10:	08000000 	stmdaeq	r0, {}	; <UNPREDICTABLE>
    5c14:	00000f39 	andeq	r0, r0, r9, lsr pc
    5c18:	00844001 	addeq	r4, r4, r1
    5c1c:	05080000 	streq	r0, [r8, #-0]
    5c20:	0100000f 	tsteq	r0, pc
    5c24:	00008441 	andeq	r8, r0, r1, asr #8
    5c28:	0f0e0800 	svceq	0x000e0800
    5c2c:	41010000 	mrsmi	r0, (UNDEF: 1)
    5c30:	00000084 	andeq	r0, r0, r4, lsl #1
    5c34:	000f5208 	andeq	r5, pc, r8, lsl #4
    5c38:	84420100 	strbhi	r0, [r2], #-256	; 0x100
    5c3c:	0c000000 	stceq	0, cr0, [r0], {-0}
    5c40:	00796177 	rsbseq	r6, r9, r7, ror r1
    5c44:	00334401 	eorseq	r4, r3, r1, lsl #8
    5c48:	730c0000 	movwvc	r0, #49152	; 0xc000
    5c4c:	01007465 	tsteq	r0, r5, ror #8
    5c50:	00003344 	andeq	r3, r0, r4, asr #6
    5c54:	0e330900 	cdpeq	9, 3, cr0, cr3, cr0, {0}
    5c58:	44010000 	strmi	r0, [r1], #-0
    5c5c:	00000033 	andeq	r0, r0, r3, lsr r0
    5c60:	0f700700 	svceq	0x00700700
    5c64:	58010000 	stmdapl	r1, {}	; <UNPREDICTABLE>
    5c68:	0001f901 	andeq	pc, r1, r1, lsl #18
    5c6c:	10240800 	eorne	r0, r4, r0, lsl #16
    5c70:	58010000 	stmdapl	r1, {}	; <UNPREDICTABLE>
    5c74:	00000084 	andeq	r0, r0, r4, lsl #1
    5c78:	000f3908 	andeq	r3, pc, r8, lsl #18
    5c7c:	84580100 	ldrbhi	r0, [r8], #-256	; 0x100
    5c80:	08000000 	stmdaeq	r0, {}	; <UNPREDICTABLE>
    5c84:	00000f05 	andeq	r0, r0, r5, lsl #30
    5c88:	00845901 	addeq	r5, r4, r1, lsl #18
    5c8c:	0e080000 	cdpeq	0, 0, cr0, cr8, cr0, {0}
    5c90:	0100000f 	tsteq	r0, pc
    5c94:	00008459 	andeq	r8, r0, r9, asr r4
    5c98:	0f520800 	svceq	0x00520800
    5c9c:	5a010000 	bpl	45ca4 <_back_addr-0x14ba35c>
    5ca0:	00000084 	andeq	r0, r0, r4, lsl #1
    5ca4:	7961770c 	stmdbvc	r1!, {r2, r3, r8, r9, sl, ip, sp, lr}^
    5ca8:	335c0100 	cmpcc	ip, #0, 2
    5cac:	0c000000 	stceq	0, cr0, [r0], {-0}
    5cb0:	00746573 	rsbseq	r6, r4, r3, ror r5
    5cb4:	00335c01 	eorseq	r5, r3, r1, lsl #24
    5cb8:	33090000 	movwcc	r0, #36864	; 0x9000
    5cbc:	0100000e 	tsteq	r0, lr
    5cc0:	0000335c 	andeq	r3, r0, ip, asr r3
    5cc4:	000a0000 	andeq	r0, sl, r0
    5cc8:	0100000e 	tsteq	r0, lr
    5ccc:	00008437 	andeq	r8, r0, r7, lsr r4
    5cd0:	02150100 	andseq	r0, r5, #0, 2
    5cd4:	04090000 	streq	r0, [r9], #-0
    5cd8:	0100000e 	tsteq	r0, lr
    5cdc:	00008439 	andeq	r8, r0, r9, lsr r4
    5ce0:	e4070000 	str	r0, [r7], #-0
    5ce4:	0100000e 	tsteq	r0, lr
    5ce8:	024e01a6 	subeq	r0, lr, #-2147483607	; 0x80000029
    5cec:	60080000 	andvs	r0, r8, r0
    5cf0:	0100000f 	tsteq	r0, pc
    5cf4:	000084a6 	andeq	r8, r0, r6, lsr #9
    5cf8:	0f930800 	svceq	0x00930800
    5cfc:	a7010000 	strge	r0, [r1, -r0]
    5d00:	00000084 	andeq	r0, r0, r4, lsl #1
    5d04:	000f5708 	andeq	r5, pc, r8, lsl #14
    5d08:	84a70100 	strthi	r0, [r7], #256	; 0x100
    5d0c:	0c000000 	stceq	0, cr0, [r0], {-0}
    5d10:	0061766d 	rsbeq	r7, r1, sp, ror #12
    5d14:	0084a901 	addeq	sl, r4, r1, lsl #18
    5d18:	0d000000 	stceq	0, cr0, [r0, #-0]
    5d1c:	0000105c 	andeq	r1, r0, ip, asr r0
    5d20:	0e01fb01 	vmlaeq.f64	d15, d1, d1
    5d24:	00000ea0 	andeq	r0, r0, r0, lsr #29
    5d28:	0701ed01 	streq	lr, [r1, -r1, lsl #26]
    5d2c:	00000e83 	andeq	r0, r0, r3, lsl #29
    5d30:	c3017301 	movwgt	r7, #4865	; 0x1301
    5d34:	08000002 	stmdaeq	r0, {r1}
    5d38:	00001024 	andeq	r1, r0, r4, lsr #32
    5d3c:	00847301 	addeq	r7, r4, r1, lsl #6
    5d40:	66080000 	strvs	r0, [r8], -r0
    5d44:	0100000f 	tsteq	r0, pc
    5d48:	00008473 	andeq	r8, r0, r3, ror r4
    5d4c:	0fb20900 	svceq	0x00b20900
    5d50:	75010000 	strvc	r0, [r1, #-0]
    5d54:	00000084 	andeq	r0, r0, r4, lsl #1
    5d58:	000f3909 	andeq	r3, pc, r9, lsl #18
    5d5c:	84760100 	ldrbthi	r0, [r6], #-256	; 0x100
    5d60:	09000000 	stmdbeq	r0, {}	; <UNPREDICTABLE>
    5d64:	00000f05 	andeq	r0, r0, r5, lsl #30
    5d68:	00847601 	addeq	r7, r4, r1, lsl #12
    5d6c:	52090000 	andpl	r0, r9, #0
    5d70:	0100000f 	tsteq	r0, pc
    5d74:	00008476 	andeq	r8, r0, r6, ror r4
    5d78:	0f000900 	svceq	0x00000900
    5d7c:	76010000 	strvc	r0, [r1], -r0
    5d80:	00000084 	andeq	r0, r0, r4, lsl #1
    5d84:	000f0e09 	andeq	r0, pc, r9, lsl #28
    5d88:	84770100 	ldrbthi	r0, [r7], #-256	; 0x100
    5d8c:	00000000 	andeq	r0, r0, r0
    5d90:	000e6f0f 	andeq	r6, lr, pc, lsl #30
    5d94:	44960100 	ldrmi	r0, [r6], #256	; 0x100
    5d98:	e401502c 	str	r5, [r1], #-44	; 0x2c
    5d9c:	01000000 	mrseq	r0, (UNDEF: 0)
    5da0:	0004cc9c 	muleq	r4, ip, ip
    5da4:	0f661000 	svceq	0x00661000
    5da8:	96010000 	strls	r0, [r1], -r0
    5dac:	00000084 	andeq	r0, r0, r4, lsl #1
    5db0:	24115001 	ldrcs	r5, [r1], #-1
    5db4:	01000010 	tsteq	r0, r0, lsl r0
    5db8:	00008498 	muleq	r0, r8, r4
    5dbc:	0033b000 	eorseq	fp, r3, r0
    5dc0:	10401100 	subne	r1, r0, r0, lsl #2
    5dc4:	98010000 	stmdals	r1, {}	; <UNPREDICTABLE>
    5dc8:	00000084 	andeq	r0, r0, r4, lsl #1
    5dcc:	000033cf 	andeq	r3, r0, pc, asr #7
    5dd0:	000f4211 	andeq	r4, pc, r1, lsl r2	; <UNPREDICTABLE>
    5dd4:	84980100 	ldrhi	r0, [r8], #256	; 0x100
    5dd8:	5b000000 	blpl	5de0 <_back_addr-0x14fa220>
    5ddc:	12000034 	andne	r0, r0, #52	; 0x34
    5de0:	00000e04 	andeq	r0, r0, r4, lsl #28
    5de4:	00849a01 	addeq	r9, r4, r1, lsl #20
    5de8:	57010000 	strpl	r0, [r1, -r0]
    5dec:	0001f913 	andeq	pc, r1, r3, lsl r9	; <UNPREDICTABLE>
    5df0:	502c4800 	eorpl	r4, ip, r0, lsl #16
    5df4:	00000401 	andeq	r0, r0, r1, lsl #8
    5df8:	449a0100 	ldrmi	r0, [sl], #256	; 0x100
    5dfc:	14000003 	strne	r0, [r0], #-3
    5e00:	01502c48 	cmpeq	r0, r8, asr #24
    5e04:	00000004 	andeq	r0, r0, r4
    5e08:	00020915 	andeq	r0, r2, r5, lsl r9
    5e0c:	00570100 	subseq	r0, r7, r0, lsl #2
    5e10:	025e1600 	subseq	r1, lr, #0, 12
    5e14:	2c7c0000 	ldclcs	0, cr0, [ip], #-0
    5e18:	06700150 			; <UNDEFINED> instruction: 0x06700150
    5e1c:	a1010000 	mrsge	r0, (UNDEF: 1)
    5e20:	00027517 	andeq	r7, r2, r7, lsl r5
    5e24:	026a1800 	rsbeq	r1, sl, #0, 16
    5e28:	347a0000 	ldrbtcc	r0, [sl], #-0
    5e2c:	70190000 	andsvc	r0, r9, r0
    5e30:	1a000006 	bne	5e50 <_back_addr-0x14fa1b0>
    5e34:	00000280 	andeq	r0, r0, r0, lsl #5
    5e38:	00028b1b 	andeq	r8, r2, fp, lsl fp
    5e3c:	0034a500 	eorseq	sl, r4, r0, lsl #10
    5e40:	02961b00 	addseq	r1, r6, #0, 22
    5e44:	34c70000 	strbcc	r0, [r7], #0
    5e48:	a11b0000 	tstge	fp, r0
    5e4c:	e4000002 	str	r0, [r0], #-2
    5e50:	1b000034 	blne	5f28 <_back_addr-0x14fa0d8>
    5e54:	000002ac 	andeq	r0, r0, ip, lsr #5
    5e58:	00003513 	andeq	r3, r0, r3, lsl r5
    5e5c:	0002b71b 	andeq	fp, r2, fp, lsl r7
    5e60:	00352600 	eorseq	r2, r5, r0, lsl #12
    5e64:	00b51300 	adcseq	r1, r5, r0, lsl #6
    5e68:	2c7c0000 	ldclcs	0, cr0, [ip], #-0
    5e6c:	00080150 	andeq	r0, r8, r0, asr r1
    5e70:	79010000 	stmdbvc	r1, {}	; <UNPREDICTABLE>
    5e74:	000003d1 	ldrdeq	r0, [r0], -r1
    5e78:	0000cc18 	andeq	ip, r0, r8, lsl ip
    5e7c:	00354400 	eorseq	r4, r5, r0, lsl #8
    5e80:	00c11800 	sbceq	r1, r1, r0, lsl #16
    5e84:	347a0000 	ldrbtcc	r0, [sl], #-0
    5e88:	7c140000 	ldcvc	0, cr0, [r4], {-0}
    5e8c:	0801502c 	stmdaeq	r1, {r2, r3, r5, ip, lr}
    5e90:	1b000000 	blne	5e98 <_back_addr-0x14fa168>
    5e94:	000000d7 	ldrdeq	r0, [r0], -r7
    5e98:	00003564 	andeq	r3, r0, r4, ror #10
    5e9c:	e3130000 	tst	r3, #0
    5ea0:	84000000 	strhi	r0, [r0], #-0
    5ea4:	0401502c 	streq	r5, [r1], #-44	; 0x2c
    5ea8:	01000000 	mrseq	r0, (UNDEF: 0)
    5eac:	0003f87b 	andeq	pc, r3, fp, ror r8	; <UNPREDICTABLE>
    5eb0:	2c841400 	cfstrscs	mvf1, [r4], {0}
    5eb4:	00040150 	andeq	r0, r4, r0, asr r1
    5eb8:	f31b0000 	vhadd.u16	d0, d11, d0
    5ebc:	82000000 	andhi	r0, r0, #0
    5ec0:	00000035 	andeq	r0, r0, r5, lsr r0
    5ec4:	00ff1c00 	rscseq	r1, pc, r0, lsl #24
    5ec8:	2c980000 	ldccs	0, cr0, [r8], {0}
    5ecc:	06880150 	pkhtbeq	r0, r8, r0, asr #2
    5ed0:	8a010000 	bhi	45ed8 <_back_addr-0x14ba128>
    5ed4:	00000429 	andeq	r0, r0, r9, lsr #8
    5ed8:	00010f17 	andeq	r0, r1, r7, lsl pc
    5edc:	06881900 	streq	r1, [r8], r0, lsl #18
    5ee0:	181b0000 	ldmdane	fp, {}	; <UNPREDICTABLE>
    5ee4:	95000001 	strls	r0, [r0, #-1]
    5ee8:	1b000035 	blne	5fc4 <_back_addr-0x14fa03c>
    5eec:	00000123 	andeq	r0, r0, r3, lsr #2
    5ef0:	000035b5 			; <UNDEFINED> instruction: 0x000035b5
    5ef4:	94130000 	ldrls	r0, [r3], #-0
    5ef8:	d0000001 	andle	r0, r0, r1
    5efc:	2001502c 	andcs	r5, r1, ip, lsr #32
    5f00:	01000000 	mrseq	r0, (UNDEF: 0)
    5f04:	00047b91 	muleq	r4, r1, fp
    5f08:	01cc1700 	biceq	r1, ip, r0, lsl #14
    5f0c:	c1170000 	tstgt	r7, r0
    5f10:	17000001 	strne	r0, [r0, -r1]
    5f14:	000001b6 			; <UNDEFINED> instruction: 0x000001b6
    5f18:	0001ab17 	andeq	sl, r1, r7, lsl fp
    5f1c:	01a01700 	lsleq	r1, r0, #14
    5f20:	d0140000 	andsle	r0, r4, r0
    5f24:	2001502c 	andcs	r5, r1, ip, lsr #32
    5f28:	1b000000 	blne	5f30 <_back_addr-0x14fa0d0>
    5f2c:	000001d7 	ldrdeq	r0, [r0], -r7
    5f30:	000035c8 	andeq	r3, r0, r8, asr #11
    5f34:	0001e21b 	andeq	lr, r1, fp, lsl r2
    5f38:	0035e800 	eorseq	lr, r5, r0, lsl #16
    5f3c:	01ed1b00 	mvneq	r1, r0, lsl #22
    5f40:	36080000 	strcc	r0, [r8], -r0
    5f44:	00000000 	andeq	r0, r0, r0
    5f48:	00012f1d 	andeq	r2, r1, sp, lsl pc
    5f4c:	502d0400 	eorpl	r0, sp, r0, lsl #8
    5f50:	00002401 	andeq	r2, r0, r1, lsl #8
    5f54:	178e0100 	strne	r0, [lr, r0, lsl #2]
    5f58:	00000167 	andeq	r0, r0, r7, ror #2
    5f5c:	00015c17 	andeq	r5, r1, r7, lsl ip
    5f60:	01511700 	cmpeq	r1, r0, lsl #14
    5f64:	46170000 	ldrmi	r0, [r7], -r0
    5f68:	17000001 	strne	r0, [r0, -r1]
    5f6c:	0000013b 	andeq	r0, r0, fp, lsr r1
    5f70:	502d0414 	eorpl	r0, sp, r4, lsl r4
    5f74:	00002401 	andeq	r2, r0, r1, lsl #8
    5f78:	01721b00 	cmneq	r2, r0, lsl #22
    5f7c:	362e0000 	strtcc	r0, [lr], -r0
    5f80:	7d1b0000 	ldcvc	0, cr0, [fp, #-0]
    5f84:	59000001 	stmdbpl	r0, {r0}
    5f88:	1b000036 	blne	6068 <_back_addr-0x14f9f98>
    5f8c:	00000188 	andeq	r0, r0, r8, lsl #3
    5f90:	00003686 	andeq	r3, r0, r6, lsl #13
    5f94:	00000000 	andeq	r0, r0, r0
    5f98:	0dea1e00 	stcleq	14, cr1, [sl]
    5f9c:	50010000 	andpl	r0, r1, r0
    5fa0:	502d2801 	eorpl	r2, sp, r1, lsl #16
    5fa4:	00001801 	andeq	r1, r0, r1, lsl #16
    5fa8:	1e9c0100 	fmlnee	f0, f4, f0
    5fac:	00000ff3 	strdeq	r0, [r0], -r3
    5fb0:	40016a01 	andmi	r6, r1, r1, lsl #20
    5fb4:	0401502d 	streq	r5, [r1], #-45	; 0x2d
    5fb8:	01000000 	mrseq	r0, (UNDEF: 0)
    5fbc:	100b1e9c 	mulne	fp, ip, lr
    5fc0:	70010000 	andvc	r0, r1, r0
    5fc4:	502d4401 	eorpl	r4, sp, r1, lsl #8
    5fc8:	00000401 	andeq	r0, r0, r1, lsl #8
    5fcc:	1e9c0100 	fmlnee	f0, f4, f0
    5fd0:	00000f18 	andeq	r0, r0, r8, lsl pc
    5fd4:	48017601 	stmdami	r1, {r0, r9, sl, ip, sp, lr}
    5fd8:	0401502d 	streq	r5, [r1], #-45	; 0x2d
    5fdc:	01000000 	mrseq	r0, (UNDEF: 0)
    5fe0:	104b1f9c 	umaalne	r1, fp, ip, pc	; <UNPREDICTABLE>
    5fe4:	06010000 	streq	r0, [r1], -r0
    5fe8:	502d4c01 	eorpl	r4, sp, r1, lsl #24
    5fec:	00001401 	andeq	r1, r0, r1, lsl #8
    5ff0:	439c0100 	orrsmi	r0, ip, #0, 2
    5ff4:	20000005 	andcs	r0, r0, r5
    5ff8:	01502d58 	cmpeq	r0, r8, asr sp
    5ffc:	000002c3 	andeq	r0, r0, r3, asr #5
    6000:	0000053d 	andeq	r0, r0, sp, lsr r5
    6004:	01500121 	cmpeq	r0, r1, lsr #2
    6008:	60220032 	eorvs	r0, r2, r2, lsr r0
    600c:	0001502d 	andeq	r5, r1, sp, lsr #32
    6010:	000ead1e 	andeq	sl, lr, lr, lsl sp
    6014:	017c0100 	cmneq	ip, r0, lsl #2
    6018:	01502d60 	cmpeq	r0, r0, ror #26
    601c:	00000004 	andeq	r0, r0, r4
    6020:	4e239c01 	cdpmi	12, 2, cr9, cr3, cr1, {0}
    6024:	64000002 	strvs	r0, [r0], #-2
    6028:	1401502d 	strne	r5, [r1], #-45	; 0x2d
    602c:	01000000 	mrseq	r0, (UNDEF: 0)
    6030:	0005819c 	muleq	r5, ip, r1
    6034:	2d702000 	ldclcs	0, cr2, [r0, #-0]
    6038:	02c30150 	sbceq	r0, r3, #80, 2
    603c:	057b0000 	ldrbeq	r0, [fp, #-0]!
    6040:	01210000 	teqeq	r1, r0
    6044:	00310150 	eorseq	r0, r1, r0, asr r1
    6048:	502d7822 	eorpl	r7, sp, r2, lsr #16
    604c:	d61f0001 	ldrle	r0, [pc], -r1
    6050:	0100000f 	tsteq	r0, pc
    6054:	2d780125 	ldfcse	f0, [r8, #-148]!	; 0xffffff6c
    6058:	00300150 	eorseq	r0, r0, r0, asr r1
    605c:	9c010000 	stcls	0, cr0, [r1], {-0}
    6060:	000005da 	ldrdeq	r0, [r0], -sl
    6064:	00024e24 	andeq	r4, r2, r4, lsr #28
    6068:	502d8000 	eorpl	r8, sp, r0
    606c:	00000c01 	andeq	r0, r0, r1, lsl #24
    6070:	01280100 	teqeq	r8, r0, lsl #2
    6074:	000005c4 	andeq	r0, r0, r4, asr #11
    6078:	502d8820 	eorpl	r8, sp, r0, lsr #16
    607c:	0002c301 	andeq	ip, r2, r1, lsl #6
    6080:	0005be00 	andeq	fp, r5, r0, lsl #28
    6084:	50012100 	andpl	r2, r1, r0, lsl #2
    6088:	25003101 	strcs	r3, [r0, #-257]	; 0x101
    608c:	01502d8c 	cmpeq	r0, ip, lsl #27
    6090:	02562600 	subseq	r2, r6, #0, 12
    6094:	2d8c0000 	stccs	0, cr0, [ip]
    6098:	001c0150 	andseq	r0, ip, r0, asr r1
    609c:	29010000 	stmdbcs	r1, {}	; <UNPREDICTABLE>
    60a0:	2d802501 	cfstr32cs	mvfx2, [r0, #4]
    60a4:	1f000150 	svcne	0x00000150
    60a8:	00000e52 	andeq	r0, r0, r2, asr lr
    60ac:	a8018201 	stmdage	r1, {r0, r9, pc}
    60b0:	0401502d 	streq	r5, [r1], #-45	; 0x2d
    60b4:	01000000 	mrseq	r0, (UNDEF: 0)
    60b8:	00060d9c 	muleq	r6, ip, sp
    60bc:	0f602700 	svceq	0x00602700
    60c0:	82010000 	andhi	r0, r1, #0
    60c4:	00008401 	andeq	r8, r0, r1, lsl #8
    60c8:	28500100 	ldmdacs	r0, {r8}^
    60cc:	00646e65 	rsbeq	r6, r4, r5, ror #28
    60d0:	84018201 	strhi	r8, [r1], #-513	; 0x201
    60d4:	01000000 	mrseq	r0, (UNDEF: 0)
    60d8:	2a070051 	bcs	1c6224 <_back_addr-0x1339ddc>
    60dc:	01000010 	tsteq	r0, r0, lsl r0
    60e0:	065101d3 			; <UNDEFINED> instruction: 0x065101d3
    60e4:	60080000 	andvs	r0, r8, r0
    60e8:	0100000f 	tsteq	r0, pc
    60ec:	000084d3 	ldrdeq	r8, [r0], -r3
    60f0:	0f930800 	svceq	0x00930800
    60f4:	d3010000 	movwle	r0, #4096	; 0x1000
    60f8:	00000084 	andeq	r0, r0, r4, lsl #1
    60fc:	000fea08 	andeq	lr, pc, r8, lsl #20
    6100:	84d30100 	ldrbhi	r0, [r3], #256	; 0x100
    6104:	09000000 	stmdbeq	r0, {}	; <UNPREDICTABLE>
    6108:	00000f57 	andeq	r0, r0, r7, asr pc
    610c:	0084d501 	addeq	sp, r4, r1, lsl #10
    6110:	b2090000 	andlt	r0, r9, #0
    6114:	0100000f 	tsteq	r0, pc
    6118:	000084d5 	ldrdeq	r8, [r0], -r5
    611c:	0a1f0000 	beq	7c6124 <_back_addr-0xd39edc>
    6120:	0100000e 	tsteq	r0, lr
    6124:	2dac011e 	stfcss	f0, [ip, #120]!	; 0x78
    6128:	003c0150 	eorseq	r0, ip, r0, asr r1
    612c:	9c010000 	stcls	0, cr0, [r1], {-0}
    6130:	00000737 	andeq	r0, r0, r7, lsr r7
    6134:	000f6029 	andeq	r6, pc, r9, lsr #32
    6138:	011e0100 	tsteq	lr, r0, lsl #2
    613c:	0000002c 	andeq	r0, r0, ip, lsr #32
    6140:	000036b7 			; <UNDEFINED> instruction: 0x000036b7
    6144:	000f9329 	andeq	r9, pc, r9, lsr #6
    6148:	011e0100 	tsteq	lr, r0, lsl #2
    614c:	0000002c 	andeq	r0, r0, ip, lsr #32
    6150:	000036d8 	ldrdeq	r3, [r0], -r8
    6154:	00060d24 	andeq	r0, r6, r4, lsr #26
    6158:	502dac00 	eorpl	sl, sp, r0, lsl #24
    615c:	00003801 	andeq	r3, r0, r1, lsl #16
    6160:	01200100 	teqeq	r0, r0, lsl #2
    6164:	00000731 	andeq	r0, r0, r1, lsr r7
    6168:	00062f2a 	andeq	r2, r6, sl, lsr #30
    616c:	24180400 	ldrcs	r0, [r8], #-1024	; 0x400
    6170:	d8000006 	stmdale	r0, {r1, r2}
    6174:	18000036 	stmdane	r0, {r1, r2, r4, r5}
    6178:	00000619 	andeq	r0, r0, r9, lsl r6
    617c:	000036b7 			; <UNDEFINED> instruction: 0x000036b7
    6180:	502dac14 	eorpl	sl, sp, r4, lsl ip
    6184:	00003801 	andeq	r3, r0, r1, lsl #16
    6188:	063a1b00 	ldrteq	r1, [sl], -r0, lsl #22
    618c:	36f90000 	ldrbtcc	r0, [r9], r0
    6190:	451a0000 	ldrmi	r0, [sl, #-0]
    6194:	13000006 	movwne	r0, #6
    6198:	000000e3 	andeq	r0, r0, r3, ror #1
    619c:	01502dac 	cmpeq	r0, ip, lsr #27
    61a0:	00000004 	andeq	r0, r0, r4
    61a4:	06f1d701 	ldrbteq	sp, [r1], r1, lsl #14
    61a8:	ac140000 	ldcge	0, cr0, [r4], {-0}
    61ac:	0401502d 	streq	r5, [r1], #-45	; 0x2d
    61b0:	1b000000 	blne	61b8 <_back_addr-0x14f9e48>
    61b4:	000000f3 	strdeq	r0, [r0], -r3
    61b8:	0000371d 	andeq	r3, r0, sp, lsl r7
    61bc:	151d0000 	ldrne	r0, [sp, #-0]
    61c0:	c0000002 	andgt	r0, r0, r2
    61c4:	2001502d 	andcs	r5, r1, sp, lsr #32
    61c8:	01000000 	mrseq	r0, (UNDEF: 0)
    61cc:	023718e1 	eorseq	r1, r7, #14745600	; 0xe10000
    61d0:	37300000 	ldrcc	r0, [r0, -r0]!
    61d4:	2c180000 	ldccs	0, cr0, [r8], {-0}
    61d8:	43000002 	movwmi	r0, #2
    61dc:	18000037 	stmdane	r0, {r0, r1, r2, r4, r5}
    61e0:	00000221 	andeq	r0, r0, r1, lsr #4
    61e4:	00003764 	andeq	r3, r0, r4, ror #14
    61e8:	502dc014 	eorpl	ip, sp, r4, lsl r0
    61ec:	00002001 	andeq	r2, r0, r1
    61f0:	02421b00 	subeq	r1, r2, #0, 22
    61f4:	37930000 	ldrcc	r0, [r3, r0]
    61f8:	00000000 	andeq	r0, r0, r0
    61fc:	e8220000 	stmda	r2!, {}	; <UNPREDICTABLE>
    6200:	0001502d 	andeq	r5, r1, sp, lsr #32
    6204:	0009e91f 	andeq	lr, r9, pc, lsl r9
    6208:	01300100 	teqeq	r0, r0, lsl #2
    620c:	01502de8 	cmpeq	r0, r8, ror #27
    6210:	00000008 	andeq	r0, r0, r8
    6214:	078a9c01 	streq	r9, [sl, r1, lsl #24]
    6218:	60290000 	eorvs	r0, r9, r0
    621c:	0100000f 	tsteq	r0, pc
    6220:	002c0130 	eoreq	r0, ip, r0, lsr r1
    6224:	37a60000 	strcc	r0, [r6, r0]!
    6228:	9e290000 	cdpls	0, 2, cr0, cr9, cr0, {0}
    622c:	01000004 	tsteq	r0, r4
    6230:	002c0130 	eoreq	r0, ip, r0, lsr r1
    6234:	37c70000 	strbcc	r0, [r7, r0]
    6238:	f02b0000 			; <UNDEFINED> instruction: 0xf02b0000
    623c:	5101502d 	tstpl	r1, sp, lsr #32
    6240:	21000006 	tstcs	r0, r6
    6244:	f3035001 	vhadd.u8	d5, d3, d1
    6248:	01215001 	teqeq	r1, r1
    624c:	01f30751 	mvnseq	r0, r1, asr r7
    6250:	5101f350 	tstpl	r1, r0, asr r3
    6254:	1f000022 	svcne	0x00000022
    6258:	00000fb9 			; <UNDEFINED> instruction: 0x00000fb9
    625c:	f0018801 			; <UNDEFINED> instruction: 0xf0018801
    6260:	0401502d 	streq	r5, [r1], #-45	; 0x2d
    6264:	01000000 	mrseq	r0, (UNDEF: 0)
    6268:	0007bd9c 	muleq	r7, ip, sp
    626c:	0f602700 	svceq	0x00602700
    6270:	88010000 	stmdahi	r1, {}	; <UNPREDICTABLE>
    6274:	00008401 	andeq	r8, r0, r1, lsl #8
    6278:	28500100 	ldmdacs	r0, {r8}^
    627c:	00646e65 	rsbeq	r6, r4, r5, ror #28
    6280:	84018801 	strhi	r8, [r1], #-2049	; 0x801
    6284:	01000000 	mrseq	r0, (UNDEF: 0)
    6288:	98070051 	stmdals	r7, {r0, r4, r6}
    628c:	0100000f 	tsteq	r0, pc
    6290:	07f601b3 			; <UNDEFINED> instruction: 0x07f601b3
    6294:	60080000 	andvs	r0, r8, r0
    6298:	0100000f 	tsteq	r0, pc
    629c:	000084b3 			; <UNDEFINED> instruction: 0x000084b3
    62a0:	0f930800 	svceq	0x00930800
    62a4:	b3010000 	movwlt	r0, #4096	; 0x1000
    62a8:	00000084 	andeq	r0, r0, r4, lsl #1
    62ac:	000f5708 	andeq	r5, pc, r8, lsl #14
    62b0:	84b30100 	ldrthi	r0, [r3], #256	; 0x100
    62b4:	0c000000 	stceq	0, cr0, [r0], {-0}
    62b8:	0061766d 	rsbeq	r7, r1, sp, ror #12
    62bc:	0084b501 	addeq	fp, r4, r1, lsl #10
    62c0:	1f000000 	svcne	0x00000000
    62c4:	00000e3a 	andeq	r0, r0, sl, lsr lr
    62c8:	f4011101 	vst4.8	{d1,d3,d5,d7}, [r1], r1
    62cc:	6801502d 	stmdavs	r1, {r0, r2, r3, r5, ip, lr}
    62d0:	01000000 	mrseq	r0, (UNDEF: 0)
    62d4:	0008dc9c 	muleq	r8, ip, ip
    62d8:	0f602900 	svceq	0x00602900
    62dc:	11010000 	mrsne	r0, (UNDEF: 1)
    62e0:	00002c01 	andeq	r2, r0, r1, lsl #24
    62e4:	0037e800 	eorseq	lr, r7, r0, lsl #16
    62e8:	0f932900 	svceq	0x00932900
    62ec:	11010000 	mrsne	r0, (UNDEF: 1)
    62f0:	00002c01 	andeq	r2, r0, r1, lsl #24
    62f4:	00380900 	eorseq	r0, r8, r0, lsl #18
    62f8:	060d2400 	streq	r2, [sp], -r0, lsl #8
    62fc:	2df80000 	ldclcs	0, cr0, [r8]
    6300:	005c0150 	subseq	r0, ip, r0, asr r1
    6304:	14010000 	strne	r0, [r1], #-0
    6308:	0008d601 	andeq	sp, r8, r1, lsl #12
    630c:	062f2a00 	strteq	r2, [pc], -r0, lsl #20
    6310:	18030000 	stmdane	r3, {}	; <UNPREDICTABLE>
    6314:	00000624 	andeq	r0, r0, r4, lsr #12
    6318:	00003809 	andeq	r3, r0, r9, lsl #16
    631c:	00061918 	andeq	r1, r6, r8, lsl r9
    6320:	0037e800 	eorseq	lr, r7, r0, lsl #16
    6324:	2df81400 	cfldrdcs	mvd1, [r8]
    6328:	005c0150 	subseq	r0, ip, r0, asr r1
    632c:	3a1b0000 	bcc	6c6334 <_back_addr-0xe39ccc>
    6330:	2a000006 	bcs	6350 <_back_addr-0x14f9cb0>
    6334:	1a000038 	bne	641c <_back_addr-0x14f9be4>
    6338:	00000645 	andeq	r0, r0, r5, asr #12
    633c:	0000e313 	andeq	lr, r0, r3, lsl r3
    6340:	502df800 	eorpl	pc, sp, r0, lsl #16
    6344:	00000401 	andeq	r0, r0, r1, lsl #8
    6348:	96d70100 	ldrbls	r0, [r7], r0, lsl #2
    634c:	14000008 	strne	r0, [r0], #-8
    6350:	01502df8 	ldrsheq	r2, [r0, #-216]	; 0xffffff28
    6354:	00000004 	andeq	r0, r0, r4
    6358:	0000f31b 	andeq	pc, r0, fp, lsl r3	; <UNPREDICTABLE>
    635c:	00384e00 	eorseq	r4, r8, r0, lsl #28
    6360:	1d000000 	stcne	0, cr0, [r0, #-0]
    6364:	000007bd 			; <UNDEFINED> instruction: 0x000007bd
    6368:	01502e0c 	cmpeq	r0, ip, lsl #28
    636c:	00000044 	andeq	r0, r0, r4, asr #32
    6370:	df18e401 	svcle	0x0018e401
    6374:	61000007 	tstvs	r0, r7
    6378:	18000038 	stmdane	r0, {r3, r4, r5}
    637c:	000007d4 	ldrdeq	r0, [r0], -r4
    6380:	00003874 	andeq	r3, r0, r4, ror r8
    6384:	0007c918 	andeq	ip, r7, r8, lsl r9
    6388:	00389200 	eorseq	r9, r8, r0, lsl #4
    638c:	2e0c1400 	cfcpyscs	mvf1, mvf12
    6390:	00440150 	subeq	r0, r4, r0, asr r1
    6394:	ea1b0000 	b	6c639c <_back_addr-0xe39c64>
    6398:	b0000007 	andlt	r0, r0, r7
    639c:	00000038 	andeq	r0, r0, r8, lsr r0
    63a0:	22000000 	andcs	r0, r0, #0
    63a4:	01502e5c 	cmpeq	r0, ip, asr lr
    63a8:	09a12c00 	stmibeq	r1!, {sl, fp, sp}
    63ac:	e7040000 	str	r0, [r4, -r0]
    63b0:	00004803 	andeq	r4, r0, r3, lsl #16
    63b4:	20000000 	andcs	r0, r0, r0
    63b8:	08962d00 	ldmeq	r6, {r8, sl, fp, sp}
    63bc:	f6050000 			; <UNDEFINED> instruction: 0xf6050000
    63c0:	00008f01 	andeq	r8, r0, r1, lsl #30
	...

Disassembly of section .debug_abbrev:

00000000 <.debug_abbrev>:
       0:	10001101 	andne	r1, r0, r1, lsl #2
       4:	12011106 	andne	r1, r1, #-2147483647	; 0x80000001
       8:	1b080301 	blne	200c14 <_back_addr-0x12ff3ec>
       c:	13082508 	movwne	r2, #34056	; 0x8508
      10:	00000005 	andeq	r0, r0, r5
      14:	25011101 	strcs	r1, [r1, #-257]	; 0x101
      18:	030b130e 	movweq	r1, #45838	; 0xb30e
      1c:	110e1b0e 	tstne	lr, lr, lsl #22
      20:	10061201 	andne	r1, r6, r1, lsl #4
      24:	02000017 	andeq	r0, r0, #23
      28:	0b0b0024 	bleq	2c00c0 <_back_addr-0x123ff40>
      2c:	0e030b3e 	vmoveq.16	d3[0], r0
      30:	24030000 	strcs	r0, [r3], #-0
      34:	3e0b0b00 	vmlacc.f64	d0, d11, d0
      38:	0008030b 	andeq	r0, r8, fp, lsl #6
      3c:	012e0400 	teqeq	lr, r0, lsl #8
      40:	0e03193f 	mcreq	9, 0, r1, cr3, cr15, {1}
      44:	0b3b0b3a 	bleq	ec2d34 <_back_addr-0x63d2cc>
      48:	13491927 	movtne	r1, #39207	; 0x9927
      4c:	06120111 			; <UNDEFINED> instruction: 0x06120111
      50:	42971840 	addsmi	r1, r7, #64, 16	; 0x400000
      54:	00130119 	andseq	r0, r3, r9, lsl r1
      58:	00050500 	andeq	r0, r5, r0, lsl #10
      5c:	0b3a0803 	bleq	e82070 <_back_addr-0x67df90>
      60:	13490b3b 	movtne	r0, #39739	; 0x9b3b
      64:	00001702 	andeq	r1, r0, r2, lsl #14
      68:	03003406 	movweq	r3, #1030	; 0x406
      6c:	3b0b3a08 	blcc	2ce894 <_back_addr-0x123176c>
      70:	0213490b 	andseq	r4, r3, #180224	; 0x2c000
      74:	07000017 	smladeq	r0, r7, r0, r0
      78:	0b0b000f 	bleq	2c00bc <_back_addr-0x123ff44>
      7c:	00001349 	andeq	r1, r0, r9, asr #6
      80:	49002608 	stmdbmi	r0, {r3, r9, sl, sp}
      84:	00000013 	andeq	r0, r0, r3, lsl r0
      88:	25011101 	strcs	r1, [r1, #-257]	; 0x101
      8c:	030b130e 	movweq	r1, #45838	; 0xb30e
      90:	110e1b0e 	tstne	lr, lr, lsl #22
      94:	10061201 	andne	r1, r6, r1, lsl #4
      98:	02000017 	andeq	r0, r0, #23
      9c:	0b0b0024 	bleq	2c0134 <_back_addr-0x123fecc>
      a0:	0e030b3e 	vmoveq.16	d3[0], r0
      a4:	24030000 	strcs	r0, [r3], #-0
      a8:	3e0b0b00 	vmlacc.f64	d0, d11, d0
      ac:	0008030b 	andeq	r0, r8, fp, lsl #6
      b0:	012e0400 	teqeq	lr, r0, lsl #8
      b4:	0e03193f 	mcreq	9, 0, r1, cr3, cr15, {1}
      b8:	0b3b0b3a 	bleq	ec2da8 <_back_addr-0x63d258>
      bc:	13491927 	movtne	r1, #39207	; 0x9927
      c0:	06120111 			; <UNDEFINED> instruction: 0x06120111
      c4:	42971840 	addsmi	r1, r7, #64, 16	; 0x400000
      c8:	00130119 	andseq	r0, r3, r9, lsl r1
      cc:	00050500 	andeq	r0, r5, r0, lsl #10
      d0:	0b3a0803 	bleq	e820e4 <_back_addr-0x67df1c>
      d4:	13490b3b 	movtne	r0, #39739	; 0x9b3b
      d8:	00001702 	andeq	r1, r0, r2, lsl #14
      dc:	03000506 	movweq	r0, #1286	; 0x506
      e0:	3b0b3a08 	blcc	2ce908 <_back_addr-0x12316f8>
      e4:	0213490b 	andseq	r4, r3, #180224	; 0x2c000
      e8:	07000018 	smladeq	r0, r8, r0, r0
      ec:	08030034 	stmdaeq	r3, {r2, r4, r5}
      f0:	0b3b0b3a 	bleq	ec2de0 <_back_addr-0x63d220>
      f4:	17021349 	strne	r1, [r2, -r9, asr #6]
      f8:	0f080000 	svceq	0x00080000
      fc:	490b0b00 	stmdbmi	fp, {r8, r9, fp}
     100:	09000013 	stmdbeq	r0, {r0, r1, r4}
     104:	13490026 	movtne	r0, #36902	; 0x9026
     108:	01000000 	mrseq	r0, (UNDEF: 0)
     10c:	0e250111 	mcreq	1, 1, r0, cr5, cr1, {0}
     110:	0e030b13 	vmoveq.32	d3[0], r0
     114:	01110e1b 	tsteq	r1, fp, lsl lr
     118:	17100612 			; <UNDEFINED> instruction: 0x17100612
     11c:	24020000 	strcs	r0, [r2], #-0
     120:	3e0b0b00 	vmlacc.f64	d0, d11, d0
     124:	000e030b 	andeq	r0, lr, fp, lsl #6
     128:	00240300 	eoreq	r0, r4, r0, lsl #6
     12c:	0b3e0b0b 	bleq	f82d60 <_back_addr-0x57d2a0>
     130:	00000803 	andeq	r0, r0, r3, lsl #16
     134:	3f012e04 	svccc	0x00012e04
     138:	3a0e0319 	bcc	380da4 <_back_addr-0x117f25c>
     13c:	270b3b0b 	strcs	r3, [fp, -fp, lsl #22]
     140:	11134919 	tstne	r3, r9, lsl r9
     144:	40061201 	andmi	r1, r6, r1, lsl #4
     148:	19429718 	stmdbne	r2, {r3, r4, r8, r9, sl, ip, pc}^
     14c:	00001301 	andeq	r1, r0, r1, lsl #6
     150:	03000505 	movweq	r0, #1285	; 0x505
     154:	3b0b3a08 	blcc	2ce97c <_back_addr-0x1231684>
     158:	0213490b 	andseq	r4, r3, #180224	; 0x2c000
     15c:	06000017 			; <UNDEFINED> instruction: 0x06000017
     160:	0e030005 	cdpeq	0, 0, cr0, cr3, cr5, {0}
     164:	0b3b0b3a 	bleq	ec2e54 <_back_addr-0x63d1ac>
     168:	18021349 	stmdane	r2, {r0, r3, r6, r8, r9, ip}
     16c:	05070000 	streq	r0, [r7, #-0]
     170:	3a0e0300 	bcc	380d78 <_back_addr-0x117f288>
     174:	490b3b0b 	stmdbmi	fp, {r0, r1, r3, r8, r9, fp, ip, sp}
     178:	00170213 	andseq	r0, r7, r3, lsl r2
     17c:	00340800 	eorseq	r0, r4, r0, lsl #16
     180:	0b3a0803 	bleq	e82194 <_back_addr-0x67de6c>
     184:	13490b3b 	movtne	r0, #39739	; 0x9b3b
     188:	00001702 	andeq	r1, r0, r2, lsl #14
     18c:	03003409 	movweq	r3, #1033	; 0x409
     190:	3b0b3a0e 	blcc	2ce9d0 <_back_addr-0x1231630>
     194:	0213490b 	andseq	r4, r3, #180224	; 0x2c000
     198:	0a000017 	beq	1fc <_back_addr-0x14ffe04>
     19c:	0b0b000f 	bleq	2c01e0 <_back_addr-0x123fe20>
     1a0:	00001349 	andeq	r1, r0, r9, asr #6
     1a4:	4900260b 	stmdbmi	r0, {r0, r1, r3, r9, sl, sp}
     1a8:	0c000013 	stceq	0, cr0, [r0], {19}
     1ac:	13490101 	movtne	r0, #37121	; 0x9101
     1b0:	00001301 	andeq	r1, r0, r1, lsl #6
     1b4:	0000210d 	andeq	r2, r0, sp, lsl #2
     1b8:	00340e00 	eorseq	r0, r4, r0, lsl #28
     1bc:	0b3a0e03 	bleq	e839d0 <_back_addr-0x67c630>
     1c0:	13490b3b 	movtne	r0, #39739	; 0x9b3b
     1c4:	193c193f 	ldmdbne	ip!, {r0, r1, r2, r3, r4, r5, r8, fp, ip}
     1c8:	01000000 	mrseq	r0, (UNDEF: 0)
     1cc:	0e250111 	mcreq	1, 1, r0, cr5, cr1, {0}
     1d0:	0e030b13 	vmoveq.32	d3[0], r0
     1d4:	17100e1b 			; <UNDEFINED> instruction: 0x17100e1b
     1d8:	01020000 	mrseq	r0, (UNDEF: 2)
     1dc:	01134901 	tsteq	r3, r1, lsl #18
     1e0:	03000013 	movweq	r0, #19
     1e4:	13490021 	movtne	r0, #36897	; 0x9021
     1e8:	00000b2f 	andeq	r0, r0, pc, lsr #22
     1ec:	0b002404 	bleq	9204 <_back_addr-0x14f6dfc>
     1f0:	030b3e0b 	movweq	r3, #48651	; 0xbe0b
     1f4:	0500000e 	streq	r0, [r0, #-14]
     1f8:	0e030034 	mcreq	0, 0, r0, cr3, cr4, {1}
     1fc:	0b3b0b3a 	bleq	ec2eec <_back_addr-0x63d114>
     200:	193f1349 	ldmdbne	pc!, {r0, r3, r6, r8, r9, ip}	; <UNPREDICTABLE>
     204:	00001802 	andeq	r1, r0, r2, lsl #16
     208:	49002606 	stmdbmi	r0, {r1, r2, r9, sl, sp}
     20c:	00000013 	andeq	r0, r0, r3, lsl r0
     210:	25011101 	strcs	r1, [r1, #-257]	; 0x101
     214:	030b130e 	movweq	r1, #45838	; 0xb30e
     218:	110e1b0e 	tstne	lr, lr, lsl #22
     21c:	10061201 	andne	r1, r6, r1, lsl #4
     220:	02000017 	andeq	r0, r0, #23
     224:	0b0b0024 	bleq	2c02bc <_back_addr-0x123fd44>
     228:	0e030b3e 	vmoveq.16	d3[0], r0
     22c:	16030000 	strne	r0, [r3], -r0
     230:	3a0e0300 	bcc	380e38 <_back_addr-0x117f1c8>
     234:	490b3b0b 	stmdbmi	fp, {r0, r1, r3, r8, r9, fp, ip, sp}
     238:	04000013 	streq	r0, [r0], #-19
     23c:	0b0b0024 	bleq	2c02d4 <_back_addr-0x123fd2c>
     240:	08030b3e 	stmdaeq	r3, {r1, r2, r3, r4, r5, r8, r9, fp}
     244:	0f050000 	svceq	0x00050000
     248:	490b0b00 	stmdbmi	fp, {r8, r9, fp}
     24c:	06000013 			; <UNDEFINED> instruction: 0x06000013
     250:	13490026 	movtne	r0, #36902	; 0x9026
     254:	04070000 	streq	r0, [r7], #-0
     258:	3a0b0b01 	bcc	2c2e64 <_back_addr-0x123d19c>
     25c:	010b3b0b 	tsteq	fp, fp, lsl #22
     260:	08000013 	stmdaeq	r0, {r0, r1, r4}
     264:	0e030028 	cdpeq	0, 0, cr0, cr3, cr8, {1}
     268:	00000d1c 	andeq	r0, r0, ip, lsl sp
     26c:	3f002e09 	svccc	0x00002e09
     270:	3a0e0319 	bcc	380edc <_back_addr-0x117f124>
     274:	490b3b0b 	stmdbmi	fp, {r0, r1, r3, r8, r9, fp, ip, sp}
     278:	12011113 	andne	r1, r1, #-1073741820	; 0xc0000004
     27c:	97184006 	ldrls	r4, [r8, -r6]
     280:	00001942 	andeq	r1, r0, r2, asr #18
     284:	3f012e0a 	svccc	0x00012e0a
     288:	3a0e0319 	bcc	380ef4 <_back_addr-0x117f10c>
     28c:	270b3b0b 	strcs	r3, [fp, -fp, lsl #22]
     290:	11134919 	tstne	r3, r9, lsl r9
     294:	40061201 	andmi	r1, r6, r1, lsl #4
     298:	19429718 	stmdbne	r2, {r3, r4, r8, r9, sl, ip, pc}^
     29c:	00001301 	andeq	r1, r0, r1, lsl #6
     2a0:	0300050b 	movweq	r0, #1291	; 0x50b
     2a4:	3b0b3a08 	blcc	2ceacc <_back_addr-0x1231534>
     2a8:	0213490b 	andseq	r4, r3, #180224	; 0x2c000
     2ac:	0c000018 	stceq	0, cr0, [r0], {24}
     2b0:	00000018 	andeq	r0, r0, r8, lsl r0
     2b4:	0300050d 	movweq	r0, #1293	; 0x50d
     2b8:	3b0b3a0e 	blcc	2ceaf8 <_back_addr-0x1231508>
     2bc:	0213490b 	andseq	r4, r3, #180224	; 0x2c000
     2c0:	0e000018 	mcreq	0, 0, r0, cr0, cr8, {0}
     2c4:	08030005 	stmdaeq	r3, {r0, r2}
     2c8:	0b3b0b3a 	bleq	ec2fb8 <_back_addr-0x63d048>
     2cc:	17021349 	strne	r1, [r2, -r9, asr #6]
     2d0:	050f0000 	streq	r0, [pc, #-0]	; 2d8 <_back_addr-0x14ffd28>
     2d4:	3a0e0300 	bcc	380edc <_back_addr-0x117f124>
     2d8:	490b3b0b 	stmdbmi	fp, {r0, r1, r3, r8, r9, fp, ip, sp}
     2dc:	00170213 	andseq	r0, r7, r3, lsl r2
     2e0:	00341000 	eorseq	r1, r4, r0
     2e4:	0b3a0e03 	bleq	e83af8 <_back_addr-0x67c508>
     2e8:	13490b3b 	movtne	r0, #39739	; 0x9b3b
     2ec:	00001702 	andeq	r1, r0, r2, lsl #14
     2f0:	0b000f11 	bleq	3f3c <_back_addr-0x14fc0c4>
     2f4:	1200000b 	andne	r0, r0, #11
     2f8:	00000026 	andeq	r0, r0, r6, lsr #32
     2fc:	03003413 	movweq	r3, #1043	; 0x413
     300:	3b0b3a08 	blcc	2ceb28 <_back_addr-0x12314d8>
     304:	0213490b 	andseq	r4, r3, #180224	; 0x2c000
     308:	14000017 	strne	r0, [r0], #-23
     30c:	0e030034 	mcreq	0, 0, r0, cr3, cr4, {1}
     310:	0b3b0b3a 	bleq	ec3000 <_back_addr-0x63d000>
     314:	00001349 	andeq	r1, r0, r9, asr #6
     318:	3f012e15 	svccc	0x00012e15
     31c:	3a0e0319 	bcc	380f88 <_back_addr-0x117f078>
     320:	490b3b0b 	stmdbmi	fp, {r0, r1, r3, r8, r9, fp, ip, sp}
     324:	01193c13 	tsteq	r9, r3, lsl ip
     328:	16000013 			; <UNDEFINED> instruction: 0x16000013
     32c:	01018289 	smlabbeq	r1, r9, r2, r8
     330:	13310111 	teqne	r1, #1073741828	; 0x40000004
     334:	00001301 	andeq	r1, r0, r1, lsl #6
     338:	01828a17 	orreq	r8, r2, r7, lsl sl
     33c:	91180200 	tstls	r8, r0, lsl #4
     340:	00001842 	andeq	r1, r0, r2, asr #16
     344:	01828918 	orreq	r8, r2, r8, lsl r9
     348:	31011100 	mrscc	r1, (UNDEF: 17)
     34c:	19000013 	stmdbne	r0, {r0, r1, r4}
     350:	01018289 	smlabbeq	r1, r9, r2, r8
     354:	13310111 	teqne	r1, #1073741828	; 0x40000004
     358:	341a0000 	ldrcc	r0, [sl], #-0
     35c:	3a0e0300 	bcc	380f64 <_back_addr-0x117f09c>
     360:	490b3b0b 	stmdbmi	fp, {r0, r1, r3, r8, r9, fp, ip, sp}
     364:	3c193f13 	ldccc	15, cr3, [r9], {19}
     368:	1b000019 	blne	3d4 <_back_addr-0x14ffc2c>
     36c:	13490101 	movtne	r0, #37121	; 0x9101
     370:	00001301 	andeq	r1, r0, r1, lsl #6
     374:	0000211c 	andeq	r2, r0, ip, lsl r1
     378:	00211d00 	eoreq	r1, r1, r0, lsl #26
     37c:	0b2f1349 	bleq	bc50a8 <_back_addr-0x93af58>
     380:	341e0000 	ldrcc	r0, [lr], #-0
     384:	3a0e0300 	bcc	380f8c <_back_addr-0x117f074>
     388:	490b3b0b 	stmdbmi	fp, {r0, r1, r3, r8, r9, fp, ip, sp}
     38c:	02193f13 	andseq	r3, r9, #19, 30	; 0x4c
     390:	1f000018 	svcne	0x00000018
     394:	13490021 	movtne	r0, #36897	; 0x9021
     398:	0000052f 	andeq	r0, r0, pc, lsr #10
     39c:	3f002e20 	svccc	0x00002e20
     3a0:	3a0e0319 	bcc	38100c <_back_addr-0x117eff4>
     3a4:	270b3b0b 	strcs	r3, [fp, -fp, lsl #22]
     3a8:	00193c19 	andseq	r3, r9, r9, lsl ip
     3ac:	012e2100 	teqeq	lr, r0, lsl #2
     3b0:	0e03193f 	mcreq	9, 0, r1, cr3, cr15, {1}
     3b4:	0b3b0b3a 	bleq	ec30a4 <_back_addr-0x63cf5c>
     3b8:	13491927 	movtne	r1, #39207	; 0x9927
     3bc:	1301193c 	movwne	r1, #6460	; 0x193c
     3c0:	05220000 	streq	r0, [r2, #-0]!
     3c4:	00134900 	andseq	r4, r3, r0, lsl #18
     3c8:	012e2300 	teqeq	lr, r0, lsl #6
     3cc:	0e03193f 	mcreq	9, 0, r1, cr3, cr15, {1}
     3d0:	0b3b0b3a 	bleq	ec30c0 <_back_addr-0x63cf40>
     3d4:	193c1349 	ldmdbne	ip!, {r0, r3, r6, r8, r9, ip}
     3d8:	01000000 	mrseq	r0, (UNDEF: 0)
     3dc:	0e250111 	mcreq	1, 1, r0, cr5, cr1, {0}
     3e0:	0e030b13 	vmoveq.32	d3[0], r0
     3e4:	01110e1b 	tsteq	r1, fp, lsl lr
     3e8:	17100612 			; <UNDEFINED> instruction: 0x17100612
     3ec:	24020000 	strcs	r0, [r2], #-0
     3f0:	3e0b0b00 	vmlacc.f64	d0, d11, d0
     3f4:	000e030b 	andeq	r0, lr, fp, lsl #6
     3f8:	01040300 	mrseq	r0, LR_abt
     3fc:	0b3a0b0b 	bleq	e83030 <_back_addr-0x67cfd0>
     400:	13010b3b 	movwne	r0, #6971	; 0x1b3b
     404:	28040000 	stmdacs	r4, {}	; <UNPREDICTABLE>
     408:	1c0e0300 	stcne	3, cr0, [lr], {-0}
     40c:	0500000d 	streq	r0, [r0, #-13]
     410:	0e030016 	mcreq	0, 0, r0, cr3, cr6, {0}
     414:	0b3b0b3a 	bleq	ec3104 <_back_addr-0x63cefc>
     418:	00001349 	andeq	r1, r0, r9, asr #6
     41c:	0b002406 	bleq	943c <_back_addr-0x14f6bc4>
     420:	030b3e0b 	movweq	r3, #48651	; 0xbe0b
     424:	07000008 	streq	r0, [r0, -r8]
     428:	0e030104 	adfeqs	f0, f3, f4
     42c:	0b3a0b0b 	bleq	e83060 <_back_addr-0x67cfa0>
     430:	13010b3b 	movwne	r0, #6971	; 0x1b3b
     434:	2e080000 	cdpcs	0, 0, cr0, cr8, cr0, {0}
     438:	3a0e0301 	bcc	381044 <_back_addr-0x117efbc>
     43c:	270b3b0b 	strcs	r3, [fp, -fp, lsl #22]
     440:	20134919 	andscs	r4, r3, r9, lsl r9
     444:	0013010b 	andseq	r0, r3, fp, lsl #2
     448:	00050900 	andeq	r0, r5, r0, lsl #18
     44c:	0b3a0e03 	bleq	e83c60 <_back_addr-0x67c3a0>
     450:	13490b3b 	movtne	r0, #39739	; 0x9b3b
     454:	2e0a0000 	cdpcs	0, 0, cr0, cr10, cr0, {0}
     458:	3a0e0301 	bcc	381064 <_back_addr-0x117ef9c>
     45c:	270b3b0b 	strcs	r3, [fp, -fp, lsl #22]
     460:	010b2019 	tsteq	fp, r9, lsl r0
     464:	0b000013 	bleq	4b8 <_back_addr-0x14ffb48>
     468:	08030005 	stmdaeq	r3, {r0, r2}
     46c:	0b3b0b3a 	bleq	ec315c <_back_addr-0x63cea4>
     470:	00001349 	andeq	r1, r0, r9, asr #6
     474:	3f012e0c 	svccc	0x00012e0c
     478:	3a0e0319 	bcc	3810e4 <_back_addr-0x117ef1c>
     47c:	27053b0b 	strcs	r3, [r5, -fp, lsl #22]
     480:	20134919 	andscs	r4, r3, r9, lsl r9
     484:	0013010b 	andseq	r0, r3, fp, lsl #2
     488:	00050d00 	andeq	r0, r5, r0, lsl #26
     48c:	0b3a0e03 	bleq	e83ca0 <_back_addr-0x67c360>
     490:	1349053b 	movtne	r0, #38203	; 0x953b
     494:	2e0e0000 	cdpcs	0, 0, cr0, cr14, cr0, {0}
     498:	03193f01 	tsteq	r9, #1, 30
     49c:	3b0b3a0e 	blcc	2cecdc <_back_addr-0x1231324>
     4a0:	3c13490b 	ldccc	9, cr4, [r3], {11}
     4a4:	00130119 	andseq	r0, r3, r9, lsl r1
     4a8:	00180f00 	andseq	r0, r8, r0, lsl #30
     4ac:	0b100000 	bleq	4004b4 <_back_addr-0x10ffb4c>
     4b0:	00130101 	andseq	r0, r3, r1, lsl #2
     4b4:	012e1100 	teqeq	lr, r0, lsl #2
     4b8:	0e03193f 	mcreq	9, 0, r1, cr3, cr15, {1}
     4bc:	0b3b0b3a 	bleq	ec31ac <_back_addr-0x63ce54>
     4c0:	193c1349 	ldmdbne	ip!, {r0, r3, r6, r8, r9, ip}
     4c4:	2e120000 	cdpcs	0, 1, cr0, cr2, cr0, {0}
     4c8:	03193f01 	tsteq	r9, #1, 30
     4cc:	3b0b3a0e 	blcc	2ced0c <_back_addr-0x12312f4>
     4d0:	2013490b 	andscs	r4, r3, fp, lsl #18
     4d4:	1300000b 	movwne	r0, #11
     4d8:	0000010b 	andeq	r0, r0, fp, lsl #2
     4dc:	3f012e14 	svccc	0x00012e14
     4e0:	3a0e0319 	bcc	38114c <_back_addr-0x117eeb4>
     4e4:	270b3b0b 	strcs	r3, [fp, -fp, lsl #22]
     4e8:	11134919 	tstne	r3, r9, lsl r9
     4ec:	40061201 	andmi	r1, r6, r1, lsl #4
     4f0:	19429718 	stmdbne	r2, {r3, r4, r8, r9, sl, ip, pc}^
     4f4:	00001301 	andeq	r1, r0, r1, lsl #6
     4f8:	03000515 	movweq	r0, #1301	; 0x515
     4fc:	3b0b3a0e 	blcc	2ced3c <_back_addr-0x12312c4>
     500:	0213490b 	andseq	r4, r3, #180224	; 0x2c000
     504:	16000017 			; <UNDEFINED> instruction: 0x16000017
     508:	0e030005 	cdpeq	0, 0, cr0, cr3, cr5, {0}
     50c:	0b3b0b3a 	bleq	ec31fc <_back_addr-0x63ce04>
     510:	18021349 	stmdane	r2, {r0, r3, r6, r8, r9, ip}
     514:	17170000 	ldrne	r0, [r7, -r0]
     518:	0b0e0301 	bleq	381124 <_back_addr-0x117eedc>
     51c:	3b0b3a0b 	blcc	2ced50 <_back_addr-0x12312b0>
     520:	0013010b 	andseq	r0, r3, fp, lsl #2
     524:	000d1800 	andeq	r1, sp, r0, lsl #16
     528:	0b3a0803 	bleq	e8253c <_back_addr-0x67dac4>
     52c:	13490b3b 	movtne	r0, #39739	; 0x9b3b
     530:	34190000 	ldrcc	r0, [r9], #-0
     534:	3a080300 	bcc	20113c <_back_addr-0x12feec4>
     538:	490b3b0b 	stmdbmi	fp, {r0, r1, r3, r8, r9, fp, ip, sp}
     53c:	00180213 	andseq	r0, r8, r3, lsl r2
     540:	00341a00 	eorseq	r1, r4, r0, lsl #20
     544:	0b3a0803 	bleq	e82558 <_back_addr-0x67daa8>
     548:	13490b3b 	movtne	r0, #39739	; 0x9b3b
     54c:	00001702 	andeq	r1, r0, r2, lsl #14
     550:	55010b1b 	strpl	r0, [r1, #-2843]	; 0xb1b
     554:	1c000017 	stcne	0, cr0, [r0], {23}
     558:	1755010b 	ldrbne	r0, [r5, -fp, lsl #2]
     55c:	00001301 	andeq	r1, r0, r1, lsl #6
     560:	0182891d 	orreq	r8, r2, sp, lsl r9
     564:	31011100 	mrscc	r1, (UNDEF: 17)
     568:	1e000013 	mcrne	0, 0, r0, cr0, cr3, {0}
     56c:	01018289 	smlabbeq	r1, r9, r2, r8
     570:	13310111 	teqne	r1, #1073741828	; 0x40000004
     574:	8a1f0000 	bhi	7c057c <_back_addr-0xd3fa84>
     578:	02000182 	andeq	r0, r0, #-2147483616	; 0x80000020
     57c:	18429118 	stmdane	r2, {r3, r4, r8, ip, pc}^
     580:	89200000 	stmdbhi	r0!, {}	; <UNPREDICTABLE>
     584:	11010182 	smlabbne	r1, r2, r1, r0
     588:	01133101 	tsteq	r3, r1, lsl #2
     58c:	21000013 	tstcs	r0, r3, lsl r0
     590:	0b0b000f 	bleq	2c05d4 <_back_addr-0x123fa2c>
     594:	01220000 	teqeq	r2, r0
     598:	01134901 	tsteq	r3, r1, lsl #18
     59c:	23000013 	movwcs	r0, #19
     5a0:	13490021 	movtne	r0, #36897	; 0x9021
     5a4:	00000b2f 	andeq	r0, r0, pc, lsr #22
     5a8:	3f012e24 	svccc	0x00012e24
     5ac:	3a0e0319 	bcc	381218 <_back_addr-0x117ede8>
     5b0:	27053b0b 	strcs	r3, [r5, -fp, lsl #22]
     5b4:	11134919 	tstne	r3, r9, lsl r9
     5b8:	40061201 	andmi	r1, r6, r1, lsl #4
     5bc:	19429718 	stmdbne	r2, {r3, r4, r8, r9, sl, ip, pc}^
     5c0:	00001301 	andeq	r1, r0, r1, lsl #6
     5c4:	03003425 	movweq	r3, #1061	; 0x425
     5c8:	3b0b3a08 	blcc	2cedf0 <_back_addr-0x1231210>
     5cc:	00134905 	andseq	r4, r3, r5, lsl #18
     5d0:	00342600 	eorseq	r2, r4, r0, lsl #12
     5d4:	0b3a0803 	bleq	e825e8 <_back_addr-0x67da18>
     5d8:	1349053b 	movtne	r0, #38203	; 0x953b
     5dc:	00001702 	andeq	r1, r0, r2, lsl #14
     5e0:	3f012e27 	svccc	0x00012e27
     5e4:	3a0e0319 	bcc	381250 <_back_addr-0x117edb0>
     5e8:	49053b0b 	stmdbmi	r5, {r0, r1, r3, r8, r9, fp, ip, sp}
     5ec:	01193c13 	tsteq	r9, r3, lsl ip
     5f0:	28000013 	stmdacs	r0, {r0, r1, r4}
     5f4:	0e030005 	cdpeq	0, 0, cr0, cr3, cr5, {0}
     5f8:	053b0b3a 	ldreq	r0, [fp, #-2874]!	; 0xb3a
     5fc:	17021349 	strne	r1, [r2, -r9, asr #6]
     600:	34290000 	strtcc	r0, [r9], #-0
     604:	3a0e0300 	bcc	38120c <_back_addr-0x117edf4>
     608:	49053b0b 	stmdbmi	r5, {r0, r1, r3, r8, r9, fp, ip, sp}
     60c:	00170213 	andseq	r0, r7, r3, lsl r2
     610:	011d2a00 	tsteq	sp, r0, lsl #20
     614:	01111331 	tsteq	r1, r1, lsr r3
     618:	0b580612 	bleq	1601e68 <__bss_end__+0xee328>
     61c:	00000559 	andeq	r0, r0, r9, asr r5
     620:	3100052b 	tstcc	r0, fp, lsr #10
     624:	00170213 	andseq	r0, r7, r3, lsl r2
     628:	010b2c00 	tsteq	fp, r0, lsl #24
     62c:	06120111 			; <UNDEFINED> instruction: 0x06120111
     630:	1d2d0000 	stcne	0, cr0, [sp, #-0]
     634:	52133101 	andspl	r3, r3, #1073741824	; 0x40000000
     638:	58175501 	ldmdapl	r7, {r0, r8, sl, ip, lr}
     63c:	0105590b 	tsteq	r5, fp, lsl #18
     640:	2e000013 	mcrcs	0, 0, r0, cr0, cr3, {0}
     644:	13310005 	teqne	r1, #5
     648:	00000d1c 	andeq	r0, r0, ip, lsl sp
     64c:	31011d2f 	tstcc	r1, pc, lsr #26
     650:	12011113 	andne	r1, r1, #-1073741820	; 0xc0000004
     654:	590b5806 	stmdbpl	fp, {r1, r2, fp, ip, lr}
     658:	00130105 	andseq	r0, r3, r5, lsl #2
     65c:	012e3000 	teqeq	lr, r0
     660:	0e03193f 	mcreq	9, 0, r1, cr3, cr15, {1}
     664:	053b0b3a 	ldreq	r0, [fp, #-2874]!	; 0xb3a
     668:	01111349 	tsteq	r1, r9, asr #6
     66c:	18400612 	stmdane	r0, {r1, r4, r9, sl}^
     670:	01194297 			; <UNDEFINED> instruction: 0x01194297
     674:	31000013 	tstcc	r0, r3, lsl r0
     678:	0e030034 	mcreq	0, 0, r0, cr3, cr4, {1}
     67c:	053b0b3a 	ldreq	r0, [fp, #-2874]!	; 0xb3a
     680:	061c1349 	ldreq	r1, [ip], -r9, asr #6
     684:	05320000 	ldreq	r0, [r2, #-0]!
     688:	1c133100 	ldfnes	f3, [r3], {-0}
     68c:	33000006 	movwcc	r0, #6
     690:	0e030034 	mcreq	0, 0, r0, cr3, cr4, {1}
     694:	0b3b0b3a 	bleq	ec3384 <_back_addr-0x63cc7c>
     698:	17021349 	strne	r1, [r2, -r9, asr #6]
     69c:	89340000 	ldmdbhi	r4!, {}	; <UNPREDICTABLE>
     6a0:	11000182 	smlabbne	r0, r2, r1, r0
     6a4:	19429501 	stmdbne	r2, {r0, r8, sl, ip, pc}^
     6a8:	00001331 	andeq	r1, r0, r1, lsr r3
     6ac:	0b000f35 	bleq	4388 <_back_addr-0x14fbc78>
     6b0:	0013490b 	andseq	r4, r3, fp, lsl #18
     6b4:	012e3600 	teqeq	lr, r0, lsl #12
     6b8:	0803193f 	stmdaeq	r3, {r0, r1, r2, r3, r4, r5, r8, fp, ip}
     6bc:	053b0b3a 	ldreq	r0, [fp, #-2874]!	; 0xb3a
     6c0:	193c1349 	ldmdbne	ip!, {r0, r3, r6, r8, r9, ip}
     6c4:	00001301 	andeq	r1, r0, r1, lsl #6
     6c8:	31012e37 	tstcc	r1, r7, lsr lr
     6cc:	12011113 	andne	r1, r1, #-1073741820	; 0xc0000004
     6d0:	97184006 	ldrls	r4, [r8, -r6]
     6d4:	13011942 	movwne	r1, #6466	; 0x1942
     6d8:	2e380000 	cdpcs	0, 3, cr0, cr8, cr0, {0}
     6dc:	20134701 	andscs	r4, r3, r1, lsl #14
     6e0:	0013010b 	andseq	r0, r3, fp, lsl #2
     6e4:	010b3900 	tsteq	fp, r0, lsl #18
     6e8:	06120111 			; <UNDEFINED> instruction: 0x06120111
     6ec:	00001301 	andeq	r1, r0, r1, lsl #6
     6f0:	47012e3a 	smladxmi	r1, sl, lr, r2
     6f4:	01193c13 	tsteq	r9, r3, lsl ip
     6f8:	3b000013 	blcc	74c <_back_addr-0x14ff8b4>
     6fc:	08030005 	stmdaeq	r3, {r0, r2}
     700:	053b0b3a 	ldreq	r0, [fp, #-2874]!	; 0xb3a
     704:	17021349 	strne	r1, [r2, -r9, asr #6]
     708:	343c0000 	ldrtcc	r0, [ip], #-0
     70c:	3a080300 	bcc	201314 <_back_addr-0x12fecec>
     710:	49053b0b 	stmdbmi	r5, {r0, r1, r3, r8, r9, fp, ip, sp}
     714:	000b1c13 	andeq	r1, fp, r3, lsl ip
     718:	011d3d00 	tsteq	sp, r0, lsl #26
     71c:	01521331 	cmpeq	r2, r1, lsr r3
     720:	0b581755 	bleq	160647c <__bss_end__+0xf293c>
     724:	00000559 	andeq	r0, r0, r9, asr r5
     728:	0300053e 	movweq	r0, #1342	; 0x53e
     72c:	3b0b3a08 	blcc	2cef54 <_back_addr-0x12310ac>
     730:	02134905 	andseq	r4, r3, #81920	; 0x14000
     734:	3f000018 	svccc	0x00000018
     738:	08030034 	stmdaeq	r3, {r2, r4, r5}
     73c:	053b0b3a 	ldreq	r0, [fp, #-2874]!	; 0xb3a
     740:	0d1c1349 	ldceq	3, cr1, [ip, #-292]	; 0xfffffedc
     744:	34400000 	strbcc	r0, [r0], #-0
     748:	3a0e0300 	bcc	381350 <_back_addr-0x117ecb0>
     74c:	49053b0b 	stmdbmi	r5, {r0, r1, r3, r8, r9, fp, ip, sp}
     750:	000b1c13 	andeq	r1, fp, r3, lsl ip
     754:	00054100 	andeq	r4, r5, r0, lsl #2
     758:	00001331 	andeq	r1, r0, r1, lsr r3
     75c:	03003442 	movweq	r3, #1090	; 0x442
     760:	3b0b3a0e 	blcc	2cefa0 <_back_addr-0x1231060>
     764:	0213490b 	andseq	r4, r3, #180224	; 0x2c000
     768:	43000018 	movwmi	r0, #24
     76c:	00000021 	andeq	r0, r0, r1, lsr #32
     770:	03003444 	movweq	r3, #1092	; 0x444
     774:	3b0b3a0e 	blcc	2cefb4 <_back_addr-0x123104c>
     778:	3f13490b 	svccc	0x0013490b
     77c:	00193c19 	andseq	r3, r9, r9, lsl ip
     780:	00264500 	eoreq	r4, r6, r0, lsl #10
     784:	00001349 	andeq	r1, r0, r9, asr #6
     788:	03003446 	movweq	r3, #1094	; 0x446
     78c:	3b0b3a0e 	blcc	2cefcc <_back_addr-0x1231034>
     790:	3f134905 	svccc	0x00134905
     794:	00180219 	andseq	r0, r8, r9, lsl r2
     798:	012e4700 	teqeq	lr, r0, lsl #14
     79c:	0e03193f 	mcreq	9, 0, r1, cr3, cr15, {1}
     7a0:	0b3b0b3a 	bleq	ec3490 <_back_addr-0x63cb70>
     7a4:	193c1927 	ldmdbne	ip!, {r0, r1, r2, r5, r8, fp, ip}
     7a8:	00001301 	andeq	r1, r0, r1, lsl #6
     7ac:	49000548 	stmdbmi	r0, {r3, r6, r8, sl}
     7b0:	49000013 	stmdbmi	r0, {r0, r1, r4}
     7b4:	193f012e 	ldmdbne	pc!, {r1, r2, r3, r5, r8}	; <UNPREDICTABLE>
     7b8:	0b3a0803 	bleq	e827cc <_back_addr-0x67d834>
     7bc:	1349053b 	movtne	r0, #38203	; 0x953b
     7c0:	0000193c 	andeq	r1, r0, ip, lsr r9
     7c4:	01110100 	tsteq	r1, r0, lsl #2
     7c8:	0b130e25 	bleq	4c4064 <_back_addr-0x103bf9c>
     7cc:	0e1b0e03 	cdpeq	14, 1, cr0, cr11, cr3, {0}
     7d0:	06120111 			; <UNDEFINED> instruction: 0x06120111
     7d4:	00001710 	andeq	r1, r0, r0, lsl r7
     7d8:	0b002402 	bleq	97e8 <_back_addr-0x14f6818>
     7dc:	030b3e0b 	movweq	r3, #48651	; 0xbe0b
     7e0:	0300000e 	movweq	r0, #14
     7e4:	0b0b0024 	bleq	2c087c <_back_addr-0x123f784>
     7e8:	08030b3e 	stmdaeq	r3, {r1, r2, r3, r4, r5, r8, r9, fp}
     7ec:	16040000 	strne	r0, [r4], -r0
     7f0:	3a0e0300 	bcc	3813f8 <_back_addr-0x117ec08>
     7f4:	490b3b0b 	stmdbmi	fp, {r0, r1, r3, r8, r9, fp, ip, sp}
     7f8:	05000013 	streq	r0, [r0, #-19]
     7fc:	0b0b000f 	bleq	2c0840 <_back_addr-0x123f7c0>
     800:	0f060000 	svceq	0x00060000
     804:	490b0b00 	stmdbmi	fp, {r8, r9, fp}
     808:	07000013 	smladeq	r0, r3, r0, r0
     80c:	13490026 	movtne	r0, #36902	; 0x9026
     810:	01080000 	mrseq	r0, (UNDEF: 8)
     814:	01134901 	tsteq	r3, r1, lsl #18
     818:	09000013 	stmdbeq	r0, {r0, r1, r4}
     81c:	13490021 	movtne	r0, #36897	; 0x9021
     820:	00000b2f 	andeq	r0, r0, pc, lsr #22
     824:	0301040a 	movweq	r0, #5130	; 0x140a
     828:	3a0b0b0e 	bcc	2c3468 <_back_addr-0x123cb98>
     82c:	01053b0b 	tsteq	r5, fp, lsl #22
     830:	0b000013 	bleq	884 <_back_addr-0x14ff77c>
     834:	0e030028 	cdpeq	0, 0, cr0, cr3, cr8, {1}
     838:	00000d1c 	andeq	r0, r0, ip, lsl sp
     83c:	0301130c 	movweq	r1, #4876	; 0x130c
     840:	3a0b0b0e 	bcc	2c3480 <_back_addr-0x123cb80>
     844:	010b3b0b 	tsteq	fp, fp, lsl #22
     848:	0d000013 	stceq	0, cr0, [r0, #-76]	; 0xffffffb4
     84c:	0e03000d 	cdpeq	0, 0, cr0, cr3, cr13, {0}
     850:	0b3b0b3a 	bleq	ec3540 <_back_addr-0x63cac0>
     854:	0b381349 	bleq	e05580 <_back_addr-0x6faa80>
     858:	0d0e0000 	stceq	0, cr0, [lr, #-0]
     85c:	3a080300 	bcc	201464 <_back_addr-0x12feb9c>
     860:	490b3b0b 	stmdbmi	fp, {r0, r1, r3, r8, r9, fp, ip, sp}
     864:	000b3813 	andeq	r3, fp, r3, lsl r8
     868:	012e0f00 	teqeq	lr, r0, lsl #30
     86c:	0b3a0e03 	bleq	e84080 <_back_addr-0x67bf80>
     870:	19270b3b 	stmdbne	r7!, {r0, r1, r3, r4, r5, r8, r9, fp}
     874:	0b201349 	bleq	8055a0 <_back_addr-0xcfaa60>
     878:	00001301 	andeq	r1, r0, r1, lsl #6
     87c:	03000510 	movweq	r0, #1296	; 0x510
     880:	3b0b3a0e 	blcc	2cf0c0 <_back_addr-0x1230f40>
     884:	0013490b 	andseq	r4, r3, fp, lsl #18
     888:	012e1100 	teqeq	lr, r0, lsl #2
     88c:	0b3a0e03 	bleq	e840a0 <_back_addr-0x67bf60>
     890:	19270b3b 	stmdbne	r7!, {r0, r1, r3, r4, r5, r8, r9, fp}
     894:	13010b20 	movwne	r0, #6944	; 0x1b20
     898:	05120000 	ldreq	r0, [r2, #-0]
     89c:	3a080300 	bcc	2014a4 <_back_addr-0x12feb5c>
     8a0:	490b3b0b 	stmdbmi	fp, {r0, r1, r3, r8, r9, fp, ip, sp}
     8a4:	13000013 	movwne	r0, #19
     8a8:	0e03012e 	adfeqsp	f0, f3, #0.5
     8ac:	053b0b3a 	ldreq	r0, [fp, #-2874]!	; 0xb3a
     8b0:	13491927 	movtne	r1, #39207	; 0x9927
     8b4:	13010b20 	movwne	r0, #6944	; 0x1b20
     8b8:	05140000 	ldreq	r0, [r4, #-0]
     8bc:	3a0e0300 	bcc	3814c4 <_back_addr-0x117eb3c>
     8c0:	49053b0b 	stmdbmi	r5, {r0, r1, r3, r8, r9, fp, ip, sp}
     8c4:	15000013 	strne	r0, [r0, #-19]
     8c8:	08030034 	stmdaeq	r3, {r2, r4, r5}
     8cc:	053b0b3a 	ldreq	r0, [fp, #-2874]!	; 0xb3a
     8d0:	00001349 	andeq	r1, r0, r9, asr #6
     8d4:	03003416 	movweq	r3, #1046	; 0x416
     8d8:	3b0b3a0e 	blcc	2cf118 <_back_addr-0x1230ee8>
     8dc:	00134905 	andseq	r4, r3, r5, lsl #18
     8e0:	012e1700 	teqeq	lr, r0, lsl #14
     8e4:	0e03193f 	mcreq	9, 0, r1, cr3, cr15, {1}
     8e8:	053b0b3a 	ldreq	r0, [fp, #-2874]!	; 0xb3a
     8ec:	193c1349 	ldmdbne	ip!, {r0, r3, r6, r8, r9, ip}
     8f0:	18180000 	ldmdane	r8, {}	; <UNPREDICTABLE>
     8f4:	19000000 	stmdbne	r0, {}	; <UNPREDICTABLE>
     8f8:	193f012e 	ldmdbne	pc!, {r1, r2, r3, r5, r8}	; <UNPREDICTABLE>
     8fc:	0b3a0e03 	bleq	e84110 <_back_addr-0x67bef0>
     900:	19270b3b 	stmdbne	r7!, {r0, r1, r3, r4, r5, r8, r9, fp}
     904:	0b201349 	bleq	805630 <_back_addr-0xcfa9d0>
     908:	00001301 	andeq	r1, r0, r1, lsl #6
     90c:	0300341a 	movweq	r3, #1050	; 0x41a
     910:	3b0b3a0e 	blcc	2cf150 <_back_addr-0x1230eb0>
     914:	0013490b 	andseq	r4, r3, fp, lsl #18
     918:	012e1b00 	teqeq	lr, r0, lsl #22
     91c:	0b3a0e03 	bleq	e84130 <_back_addr-0x67bed0>
     920:	1927053b 	stmdbne	r7!, {r0, r1, r3, r4, r5, r8, sl}
     924:	01111349 	tsteq	r1, r9, asr #6
     928:	18400612 	stmdane	r0, {r1, r4, r9, sl}^
     92c:	01194297 			; <UNDEFINED> instruction: 0x01194297
     930:	1c000013 	stcne	0, cr0, [r0], {19}
     934:	0e030034 	mcreq	0, 0, r0, cr3, cr4, {1}
     938:	053b0b3a 	ldreq	r0, [fp, #-2874]!	; 0xb3a
     93c:	18021349 	stmdane	r2, {r0, r3, r6, r8, r9, ip}
     940:	891d0000 	ldmdbhi	sp, {}	; <UNPREDICTABLE>
     944:	11010182 	smlabbne	r1, r2, r1, r0
     948:	01133101 	tsteq	r3, r1, lsl #2
     94c:	1e000013 	mcrne	0, 0, r0, cr0, cr3, {0}
     950:	0001828a 	andeq	r8, r1, sl, lsl #5
     954:	42911802 	addsmi	r1, r1, #131072	; 0x20000
     958:	1f000018 	svcne	0x00000018
     95c:	01018289 	smlabbeq	r1, r9, r2, r8
     960:	13310111 	teqne	r1, #1073741828	; 0x40000004
     964:	34200000 	strtcc	r0, [r0], #-0
     968:	3a080300 	bcc	201570 <_back_addr-0x12fea90>
     96c:	49053b0b 	stmdbmi	r5, {r0, r1, r3, r8, r9, fp, ip, sp}
     970:	00170213 	andseq	r0, r7, r3, lsl r2
     974:	011d2100 	tsteq	sp, r0, lsl #2
     978:	01521331 	cmpeq	r2, r1, lsr r3
     97c:	0b581755 	bleq	16066d8 <__bss_end__+0xf2b98>
     980:	13010559 	movwne	r0, #5465	; 0x1559
     984:	05220000 	streq	r0, [r2, #-0]!
     988:	1c133100 	ldfnes	f3, [r3], {-0}
     98c:	2300000b 	movwcs	r0, #11
     990:	13310005 	teqne	r1, #5
     994:	00000d1c 	andeq	r0, r0, ip, lsl sp
     998:	55010b24 	strpl	r0, [r1, #-2852]	; 0xb24
     99c:	25000017 	strcs	r0, [r0, #-23]
     9a0:	1331011d 	teqne	r1, #1073741831	; 0x40000007
     9a4:	17550152 			; <UNDEFINED> instruction: 0x17550152
     9a8:	05590b58 	ldrbeq	r0, [r9, #-2904]	; 0xb58
     9ac:	2e260000 	cdpcs	0, 2, cr0, cr6, cr0, {0}
     9b0:	11133101 	tstne	r3, r1, lsl #2
     9b4:	40061201 	andmi	r1, r6, r1, lsl #4
     9b8:	19429718 	stmdbne	r2, {r3, r4, r8, r9, sl, ip, pc}^
     9bc:	00001301 	andeq	r1, r0, r1, lsl #6
     9c0:	31000527 	tstcc	r0, r7, lsr #10
     9c4:	00170213 	andseq	r0, r7, r3, lsl r2
     9c8:	00342800 	eorseq	r2, r4, r0, lsl #16
     9cc:	00001331 	andeq	r1, r0, r1, lsr r3
     9d0:	31003429 	tstcc	r0, r9, lsr #8
     9d4:	00170213 	andseq	r0, r7, r3, lsl r2
     9d8:	012e2a00 	teqeq	lr, r0, lsl #20
     9dc:	0b201347 	bleq	805700 <_back_addr-0xcfa900>
     9e0:	00001301 	andeq	r1, r0, r1, lsl #6
     9e4:	31011d2b 	tstcc	r1, fp, lsr #26
     9e8:	12011113 	andne	r1, r1, #-1073741820	; 0xc0000004
     9ec:	590b5806 	stmdbpl	fp, {r1, r2, fp, ip, lr}
     9f0:	00130105 	andseq	r0, r3, r5, lsl #2
     9f4:	010b2c00 	tsteq	fp, r0, lsl #24
     9f8:	06120111 			; <UNDEFINED> instruction: 0x06120111
     9fc:	0b2d0000 	bleq	b40a04 <_back_addr-0x9bf5fc>
     a00:	12011101 	andne	r1, r1, #1073741824	; 0x40000000
     a04:	00130106 	andseq	r0, r3, r6, lsl #2
     a08:	82892e00 	addhi	r2, r9, #0, 28
     a0c:	01110001 	tsteq	r1, r1
     a10:	00001331 	andeq	r1, r0, r1, lsr r3
     a14:	3f012e2f 	svccc	0x00012e2f
     a18:	3a0e0319 	bcc	381684 <_back_addr-0x117e97c>
     a1c:	270b3b0b 	strcs	r3, [fp, -fp, lsl #22]
     a20:	11134919 	tstne	r3, r9, lsl r9
     a24:	40061201 	andmi	r1, r6, r1, lsl #4
     a28:	19429718 	stmdbne	r2, {r3, r4, r8, r9, sl, ip, pc}^
     a2c:	00001301 	andeq	r1, r0, r1, lsl #6
     a30:	03000530 	movweq	r0, #1328	; 0x530
     a34:	3b0b3a0e 	blcc	2cf274 <_back_addr-0x1230d8c>
     a38:	0213490b 	andseq	r4, r3, #180224	; 0x2c000
     a3c:	31000017 	tstcc	r0, r7, lsl r0
     a40:	0e030034 	mcreq	0, 0, r0, cr3, cr4, {1}
     a44:	0b3b0b3a 	bleq	ec3734 <_back_addr-0x63c8cc>
     a48:	18021349 	stmdane	r2, {r0, r3, r6, r8, r9, ip}
     a4c:	34320000 	ldrtcc	r0, [r2], #-0
     a50:	3a080300 	bcc	201658 <_back_addr-0x12fe9a8>
     a54:	490b3b0b 	stmdbmi	fp, {r0, r1, r3, r8, r9, fp, ip, sp}
     a58:	00170213 	andseq	r0, r7, r3, lsl r2
     a5c:	011d3300 	tsteq	sp, r0, lsl #6
     a60:	01521331 	cmpeq	r2, r1, lsr r3
     a64:	0b581755 	bleq	16067c0 <__bss_end__+0xf2c80>
     a68:	13010b59 	movwne	r0, #7001	; 0x1b59
     a6c:	05340000 	ldreq	r0, [r4, #-0]!
     a70:	02133100 	andseq	r3, r3, #0, 2
     a74:	35000018 	strcc	r0, [r0, #-24]
     a78:	13310005 	teqne	r1, #5
     a7c:	1d360000 	ldcne	0, cr0, [r6, #-0]
     a80:	52133101 	andspl	r3, r3, #1073741824	; 0x40000000
     a84:	58175501 	ldmdapl	r7, {r0, r8, sl, ip, lr}
     a88:	000b590b 	andeq	r5, fp, fp, lsl #18
     a8c:	00053700 	andeq	r3, r5, r0, lsl #14
     a90:	0b3a0803 	bleq	e82aa4 <_back_addr-0x67d55c>
     a94:	13490b3b 	movtne	r0, #39739	; 0x9b3b
     a98:	00001702 	andeq	r1, r0, r2, lsl #14
     a9c:	03003438 	movweq	r3, #1080	; 0x438
     aa0:	3b0b3a0e 	blcc	2cf2e0 <_back_addr-0x1230d20>
     aa4:	0213490b 	andseq	r4, r3, #180224	; 0x2c000
     aa8:	39000017 	stmdbcc	r0, {r0, r1, r2, r4}
     aac:	00018289 	andeq	r8, r1, r9, lsl #5
     ab0:	42950111 	addsmi	r0, r5, #1073741828	; 0x40000004
     ab4:	00133119 	andseq	r3, r3, r9, lsl r1
     ab8:	00343a00 	eorseq	r3, r4, r0, lsl #20
     abc:	13490e03 	movtne	r0, #40451	; 0x9e03
     ac0:	18021934 	stmdane	r2, {r2, r4, r5, r8, fp, ip}
     ac4:	2e3b0000 	cdpcs	0, 3, cr0, cr11, cr0, {0}
     ac8:	3a0e0301 	bcc	3816d4 <_back_addr-0x117e92c>
     acc:	27053b0b 	strcs	r3, [r5, -fp, lsl #22]
     ad0:	010b2019 	tsteq	fp, r9, lsl r0
     ad4:	3c000013 	stccc	0, cr0, [r0], {19}
     ad8:	193f012e 	ldmdbne	pc!, {r1, r2, r3, r5, r8}	; <UNPREDICTABLE>
     adc:	0b3a0e03 	bleq	e842f0 <_back_addr-0x67bd10>
     ae0:	1927053b 	stmdbne	r7!, {r0, r1, r3, r4, r5, r8, sl}
     ae4:	01111349 	tsteq	r1, r9, asr #6
     ae8:	18400612 	stmdane	r0, {r1, r4, r9, sl}^
     aec:	01194297 			; <UNDEFINED> instruction: 0x01194297
     af0:	3d000013 	stccc	0, cr0, [r0, #-76]	; 0xffffffb4
     af4:	0e030005 	cdpeq	0, 0, cr0, cr3, cr5, {0}
     af8:	053b0b3a 	ldreq	r0, [fp, #-2874]!	; 0xb3a
     afc:	17021349 	strne	r1, [r2, -r9, asr #6]
     b00:	053e0000 	ldreq	r0, [lr, #-0]!
     b04:	3a080300 	bcc	20170c <_back_addr-0x12fe8f4>
     b08:	49053b0b 	stmdbmi	r5, {r0, r1, r3, r8, r9, fp, ip, sp}
     b0c:	00170213 	andseq	r0, r7, r3, lsl r2
     b10:	00343f00 	eorseq	r3, r4, r0, lsl #30
     b14:	0b3a0e03 	bleq	e84328 <_back_addr-0x67bcd8>
     b18:	1349053b 	movtne	r0, #38203	; 0x953b
     b1c:	00001702 	andeq	r1, r0, r2, lsl #14
     b20:	03003440 	movweq	r3, #1088	; 0x440
     b24:	3b0b3a0e 	blcc	2cf364 <_back_addr-0x1230c9c>
     b28:	1c134905 	ldcne	9, cr4, [r3], {5}
     b2c:	4100000a 	tstmi	r0, sl
     b30:	193f012e 	ldmdbne	pc!, {r1, r2, r3, r5, r8}	; <UNPREDICTABLE>
     b34:	0b3a0e03 	bleq	e84348 <_back_addr-0x67bcb8>
     b38:	1349053b 	movtne	r0, #38203	; 0x953b
     b3c:	1301193c 	movwne	r1, #6460	; 0x193c
     b40:	2e420000 	cdpcs	0, 4, cr0, cr2, cr0, {0}
     b44:	03193f01 	tsteq	r9, #1, 30
     b48:	3b0b3a0e 	blcc	2cf388 <_back_addr-0x1230c78>
     b4c:	11192705 	tstne	r9, r5, lsl #14
     b50:	40061201 	andmi	r1, r6, r1, lsl #4
     b54:	19429718 	stmdbne	r2, {r3, r4, r8, r9, sl, ip, pc}^
     b58:	00001301 	andeq	r1, r0, r1, lsl #6
     b5c:	03003443 	movweq	r3, #1091	; 0x443
     b60:	3b0b3a0e 	blcc	2cf3a0 <_back_addr-0x1230c60>
     b64:	1c134905 	ldcne	9, cr4, [r3], {5}
     b68:	44000006 	strmi	r0, [r0], #-6
     b6c:	0e030034 	mcreq	0, 0, r0, cr3, cr4, {1}
     b70:	053b0b3a 	ldreq	r0, [fp, #-2874]!	; 0xb3a
     b74:	193f1349 	ldmdbne	pc!, {r0, r3, r6, r8, r9, ip}	; <UNPREDICTABLE>
     b78:	0000193c 	andeq	r1, r0, ip, lsr r9
     b7c:	03003445 	movweq	r3, #1093	; 0x445
     b80:	3b0b3a0e 	blcc	2cf3c0 <_back_addr-0x1230c40>
     b84:	3f13490b 	svccc	0x0013490b
     b88:	00180219 	andseq	r0, r8, r9, lsl r2
     b8c:	012e4600 	teqeq	lr, r0, lsl #12
     b90:	0e03193f 	mcreq	9, 0, r1, cr3, cr15, {1}
     b94:	0b3b0b3a 	bleq	ec3884 <_back_addr-0x63c77c>
     b98:	13491927 	movtne	r1, #39207	; 0x9927
     b9c:	1301193c 	movwne	r1, #6460	; 0x193c
     ba0:	05470000 	strbeq	r0, [r7, #-0]
     ba4:	00134900 	andseq	r4, r3, r0, lsl #18
     ba8:	012e4800 	teqeq	lr, r0, lsl #16
     bac:	0e03193f 	mcreq	9, 0, r1, cr3, cr15, {1}
     bb0:	053b0b3a 	ldreq	r0, [fp, #-2874]!	; 0xb3a
     bb4:	193c1927 	ldmdbne	ip!, {r0, r1, r2, r5, r8, fp, ip}
     bb8:	00001301 	andeq	r1, r0, r1, lsl #6
     bbc:	3f012e49 	svccc	0x00012e49
     bc0:	3a0e0319 	bcc	38182c <_back_addr-0x117e7d4>
     bc4:	27053b0b 	strcs	r3, [r5, -fp, lsl #22]
     bc8:	3c134919 	ldccc	9, cr4, [r3], {25}
     bcc:	00130119 	andseq	r0, r3, r9, lsl r1
     bd0:	11010000 	mrsne	r0, (UNDEF: 1)
     bd4:	130e2501 	movwne	r2, #58625	; 0xe501
     bd8:	1b0e030b 	blne	38180c <_back_addr-0x117e7f4>
     bdc:	1201110e 	andne	r1, r1, #-2147483645	; 0x80000003
     be0:	00171006 	andseq	r1, r7, r6
     be4:	00240200 	eoreq	r0, r4, r0, lsl #4
     be8:	0b3e0b0b 	bleq	f8381c <_back_addr-0x57c7e4>
     bec:	00000e03 	andeq	r0, r0, r3, lsl #28
     bf0:	0b002403 	bleq	9c04 <_back_addr-0x14f63fc>
     bf4:	030b3e0b 	movweq	r3, #48651	; 0xbe0b
     bf8:	04000008 	streq	r0, [r0], #-8
     bfc:	0e030016 	mcreq	0, 0, r0, cr3, cr6, {0}
     c00:	0b3b0b3a 	bleq	ec38f0 <_back_addr-0x63c710>
     c04:	00001349 	andeq	r1, r0, r9, asr #6
     c08:	0b000f05 	bleq	4824 <_back_addr-0x14fb7dc>
     c0c:	0013490b 	andseq	r4, r3, fp, lsl #18
     c10:	00260600 	eoreq	r0, r6, r0, lsl #12
     c14:	00001349 	andeq	r1, r0, r9, asr #6
     c18:	0b010407 	bleq	41c3c <_back_addr-0x14be3c4>
     c1c:	3b0b3a0b 	blcc	2cf450 <_back_addr-0x1230bb0>
     c20:	0013010b 	andseq	r0, r3, fp, lsl #2
     c24:	00280800 	eoreq	r0, r8, r0, lsl #16
     c28:	0d1c0e03 	ldceq	14, cr0, [ip, #-12]
     c2c:	2e090000 	cdpcs	0, 0, cr0, cr9, cr0, {0}
     c30:	03193f01 	tsteq	r9, #1, 30
     c34:	3b0b3a08 	blcc	2cf45c <_back_addr-0x1230ba4>
     c38:	49192705 	ldmdbmi	r9, {r0, r2, r8, r9, sl, sp}
     c3c:	12011113 	andne	r1, r1, #-1073741820	; 0xc0000004
     c40:	97184006 	ldrls	r4, [r8, -r6]
     c44:	13011942 	movwne	r1, #6466	; 0x1942
     c48:	050a0000 	streq	r0, [sl, #-0]
     c4c:	3a0e0300 	bcc	381854 <_back_addr-0x117e7ac>
     c50:	49053b0b 	stmdbmi	r5, {r0, r1, r3, r8, r9, fp, ip, sp}
     c54:	00170213 	andseq	r0, r7, r3, lsl r2
     c58:	00050b00 	andeq	r0, r5, r0, lsl #22
     c5c:	0b3a0803 	bleq	e82c70 <_back_addr-0x67d390>
     c60:	1349053b 	movtne	r0, #38203	; 0x953b
     c64:	00001702 	andeq	r1, r0, r2, lsl #14
     c68:	0300340c 	movweq	r3, #1036	; 0x40c
     c6c:	3b0b3a08 	blcc	2cf494 <_back_addr-0x1230b6c>
     c70:	02134905 	andseq	r4, r3, #81920	; 0x14000
     c74:	0d000017 	stceq	0, cr0, [r0, #-92]	; 0xffffffa4
     c78:	08030034 	stmdaeq	r3, {r2, r4, r5}
     c7c:	053b0b3a 	ldreq	r0, [fp, #-2874]!	; 0xb3a
     c80:	0b1c1349 	bleq	7059ac <_back_addr-0xdfa654>
     c84:	340e0000 	strcc	r0, [lr], #-0
     c88:	3a080300 	bcc	201890 <_back_addr-0x12fe770>
     c8c:	49053b0b 	stmdbmi	r5, {r0, r1, r3, r8, r9, fp, ip, sp}
     c90:	00180213 	andseq	r0, r8, r3, lsl r2
     c94:	012e0f00 	teqeq	lr, r0, lsl #30
     c98:	0e03193f 	mcreq	9, 0, r1, cr3, cr15, {1}
     c9c:	0b3b0b3a 	bleq	ec398c <_back_addr-0x63c674>
     ca0:	193c1349 	ldmdbne	ip!, {r0, r3, r6, r8, r9, ip}
     ca4:	00001301 	andeq	r1, r0, r1, lsl #6
     ca8:	00001810 	andeq	r1, r0, r0, lsl r8
     cac:	010b1100 	mrseq	r1, (UNDEF: 27)
     cb0:	06120111 			; <UNDEFINED> instruction: 0x06120111
     cb4:	00001301 	andeq	r1, r0, r1, lsl #6
     cb8:	01828912 	orreq	r8, r2, r2, lsl r9
     cbc:	31011101 	tstcc	r1, r1, lsl #2
     cc0:	00130113 	andseq	r0, r3, r3, lsl r1
     cc4:	828a1300 	addhi	r1, sl, #0, 6
     cc8:	18020001 	stmdane	r2, {r0}
     ccc:	00184291 	mulseq	r8, r1, r2
     cd0:	82891400 	addhi	r1, r9, #0, 8
     cd4:	01110101 	tsteq	r1, r1, lsl #2
     cd8:	00001331 	andeq	r1, r0, r1, lsr r3
     cdc:	49010115 	stmdbmi	r1, {r0, r2, r4, r8}
     ce0:	00130113 	andseq	r0, r3, r3, lsl r1
     ce4:	00211600 	eoreq	r1, r1, r0, lsl #12
     ce8:	052f1349 	streq	r1, [pc, #-841]!	; 9a7 <_back_addr-0x14ff659>
     cec:	21170000 	tstcs	r7, r0
     cf0:	2f134900 	svccs	0x00134900
     cf4:	1800000b 	stmdane	r0, {r0, r1, r3}
     cf8:	0e03000a 	cdpeq	0, 0, cr0, cr3, cr10, {0}
     cfc:	053b0b3a 	ldreq	r0, [fp, #-2874]!	; 0xb3a
     d00:	00000111 	andeq	r0, r0, r1, lsl r1
     d04:	3f012e19 	svccc	0x00012e19
     d08:	3a0e0319 	bcc	381974 <_back_addr-0x117e68c>
     d0c:	49053b0b 	stmdbmi	r5, {r0, r1, r3, r8, r9, fp, ip, sp}
     d10:	01193c13 	tsteq	r9, r3, lsl ip
     d14:	1a000013 	bne	d68 <_back_addr-0x14ff298>
     d18:	00018289 	andeq	r8, r1, r9, lsl #5
     d1c:	13310111 	teqne	r1, #1073741828	; 0x40000004
     d20:	2e1b0000 	cdpcs	0, 1, cr0, cr11, cr0, {0}
     d24:	03193f01 	tsteq	r9, #1, 30
     d28:	3b0b3a0e 	blcc	2cf568 <_back_addr-0x1230a98>
     d2c:	4919270b 	ldmdbmi	r9, {r0, r1, r3, r8, r9, sl, sp}
     d30:	12011113 	andne	r1, r1, #-1073741820	; 0xc0000004
     d34:	97184006 	ldrls	r4, [r8, -r6]
     d38:	13011942 	movwne	r1, #6466	; 0x1942
     d3c:	051c0000 	ldreq	r0, [ip, #-0]
     d40:	3a0e0300 	bcc	381948 <_back_addr-0x117e6b8>
     d44:	490b3b0b 	stmdbmi	fp, {r0, r1, r3, r8, r9, fp, ip, sp}
     d48:	00170213 	andseq	r0, r7, r3, lsl r2
     d4c:	00051d00 	andeq	r1, r5, r0, lsl #26
     d50:	0b3a0e03 	bleq	e84564 <_back_addr-0x67ba9c>
     d54:	13490b3b 	movtne	r0, #39739	; 0x9b3b
     d58:	00001802 	andeq	r1, r0, r2, lsl #16
     d5c:	0300051e 	movweq	r0, #1310	; 0x51e
     d60:	3b0b3a08 	blcc	2cf588 <_back_addr-0x1230a78>
     d64:	0213490b 	andseq	r4, r3, #180224	; 0x2c000
     d68:	1f000017 	svcne	0x00000017
     d6c:	08030034 	stmdaeq	r3, {r2, r4, r5}
     d70:	0b3b0b3a 	bleq	ec3a60 <_back_addr-0x63c5a0>
     d74:	17021349 	strne	r1, [r2, -r9, asr #6]
     d78:	34200000 	strtcc	r0, [r0], #-0
     d7c:	3a080300 	bcc	201984 <_back_addr-0x12fe67c>
     d80:	490b3b0b 	stmdbmi	fp, {r0, r1, r3, r8, r9, fp, ip, sp}
     d84:	00180213 	andseq	r0, r8, r3, lsl r2
     d88:	00342100 	eorseq	r2, r4, r0, lsl #2
     d8c:	0b3a0803 	bleq	e82da0 <_back_addr-0x67d260>
     d90:	13490b3b 	movtne	r0, #39739	; 0x9b3b
     d94:	00000b1c 	andeq	r0, r0, ip, lsl fp
     d98:	03003422 	movweq	r3, #1058	; 0x422
     d9c:	3b0b3a0e 	blcc	2cf5dc <_back_addr-0x1230a24>
     da0:	0213490b 	andseq	r4, r3, #180224	; 0x2c000
     da4:	23000018 	movwcs	r0, #24
     da8:	0e030034 	mcreq	0, 0, r0, cr3, cr4, {1}
     dac:	0b3b0b3a 	bleq	ec3a9c <_back_addr-0x63c564>
     db0:	17021349 	strne	r1, [r2, -r9, asr #6]
     db4:	34240000 	strtcc	r0, [r4], #-0
     db8:	3a0e0300 	bcc	3819c0 <_back_addr-0x117e640>
     dbc:	490b3b0b 	stmdbmi	fp, {r0, r1, r3, r8, r9, fp, ip, sp}
     dc0:	000b1c13 	andeq	r1, fp, r3, lsl ip
     dc4:	010b2500 	tsteq	fp, r0, lsl #10
     dc8:	13011755 	movwne	r1, #5973	; 0x1755
     dcc:	35260000 	strcc	r0, [r6, #-0]!
     dd0:	00134900 	andseq	r4, r3, r0, lsl #18
     dd4:	012e2700 	teqeq	lr, r0, lsl #14
     dd8:	0803193f 	stmdaeq	r3, {r0, r1, r2, r3, r4, r5, r8, fp, ip}
     ddc:	053b0b3a 	ldreq	r0, [fp, #-2874]!	; 0xb3a
     de0:	01111349 	tsteq	r1, r9, asr #6
     de4:	18400612 	stmdane	r0, {r1, r4, r9, sl}^
     de8:	01194297 			; <UNDEFINED> instruction: 0x01194297
     dec:	28000013 	stmdacs	r0, {r0, r1, r4}
     df0:	0e030034 	mcreq	0, 0, r0, cr3, cr4, {1}
     df4:	053b0b3a 	ldreq	r0, [fp, #-2874]!	; 0xb3a
     df8:	18021349 	stmdane	r2, {r0, r3, r6, r8, r9, ip}
     dfc:	34290000 	strtcc	r0, [r9], #-0
     e00:	3a0e0300 	bcc	381a08 <_back_addr-0x117e5f8>
     e04:	49053b0b 	stmdbmi	r5, {r0, r1, r3, r8, r9, fp, ip, sp}
     e08:	000b1c13 	andeq	r1, fp, r3, lsl ip
     e0c:	012e2a00 	teqeq	lr, r0, lsl #20
     e10:	0e03193f 	mcreq	9, 0, r1, cr3, cr15, {1}
     e14:	053b0b3a 	ldreq	r0, [fp, #-2874]!	; 0xb3a
     e18:	01111349 	tsteq	r1, r9, asr #6
     e1c:	18400612 	stmdane	r0, {r1, r4, r9, sl}^
     e20:	01194297 			; <UNDEFINED> instruction: 0x01194297
     e24:	2b000013 	blcs	e78 <_back_addr-0x14ff188>
     e28:	01018289 	smlabbeq	r1, r9, r2, r8
     e2c:	42950111 	addsmi	r0, r5, #1073741828	; 0x40000004
     e30:	00133119 	andseq	r3, r3, r9, lsl r1
     e34:	00342c00 	eorseq	r2, r4, r0, lsl #24
     e38:	0b3a0e03 	bleq	e8464c <_back_addr-0x67b9b4>
     e3c:	13490b3b 	movtne	r0, #39739	; 0x9b3b
     e40:	193c193f 	ldmdbne	ip!, {r0, r1, r2, r3, r4, r5, r8, fp, ip}
     e44:	2e2d0000 	cdpcs	0, 2, cr0, cr13, cr0, {0}
     e48:	03193f01 	tsteq	r9, #1, 30
     e4c:	3b0b3a0e 	blcc	2cf68c <_back_addr-0x1230974>
     e50:	4919270b 	ldmdbmi	r9, {r0, r1, r3, r8, r9, sl, sp}
     e54:	01193c13 	tsteq	r9, r3, lsl ip
     e58:	2e000013 	mcrcs	0, 0, r0, cr0, cr3, {0}
     e5c:	13490005 	movtne	r0, #36869	; 0x9005
     e60:	0f2f0000 	svceq	0x002f0000
     e64:	000b0b00 	andeq	r0, fp, r0, lsl #22
     e68:	002e3000 	eoreq	r3, lr, r0
     e6c:	0e03193f 	mcreq	9, 0, r1, cr3, cr15, {1}
     e70:	0b3b0b3a 	bleq	ec3b60 <_back_addr-0x63c4a0>
     e74:	193c1927 	ldmdbne	ip!, {r0, r1, r2, r5, r8, fp, ip}
     e78:	2e310000 	cdpcs	0, 3, cr0, cr1, cr0, {0}
     e7c:	03193f01 	tsteq	r9, #1, 30
     e80:	3b0b3a0e 	blcc	2cf6c0 <_back_addr-0x1230940>
     e84:	3c19270b 	ldccc	7, cr2, [r9], {11}
     e88:	00130119 	andseq	r0, r3, r9, lsl r1
     e8c:	00263200 	eoreq	r3, r6, r0, lsl #4
     e90:	2e330000 	cdpcs	0, 3, cr0, cr3, cr0, {0}
     e94:	03193f01 	tsteq	r9, #1, 30
     e98:	3b0b3a0e 	blcc	2cf6d8 <_back_addr-0x1230928>
     e9c:	4919270b 	ldmdbmi	r9, {r0, r1, r3, r8, r9, sl, sp}
     ea0:	00193c13 	andseq	r3, r9, r3, lsl ip
     ea4:	11010000 	mrsne	r0, (UNDEF: 1)
     ea8:	130e2501 	movwne	r2, #58625	; 0xe501
     eac:	1b0e030b 	blne	381ae0 <_back_addr-0x117e520>
     eb0:	1201110e 	andne	r1, r1, #-2147483645	; 0x80000003
     eb4:	00171006 	andseq	r1, r7, r6
     eb8:	00160200 	andseq	r0, r6, r0, lsl #4
     ebc:	0b3a0e03 	bleq	e846d0 <_back_addr-0x67b930>
     ec0:	13490b3b 	movtne	r0, #39739	; 0x9b3b
     ec4:	24030000 	strcs	r0, [r3], #-0
     ec8:	3e0b0b00 	vmlacc.f64	d0, d11, d0
     ecc:	000e030b 	andeq	r0, lr, fp, lsl #6
     ed0:	00240400 	eoreq	r0, r4, r0, lsl #8
     ed4:	0b3e0b0b 	bleq	f83b08 <_back_addr-0x57c4f8>
     ed8:	00000803 	andeq	r0, r0, r3, lsl #16
     edc:	3f012e05 	svccc	0x00012e05
     ee0:	3a0e0319 	bcc	381b4c <_back_addr-0x117e4b4>
     ee4:	270b3b0b 	strcs	r3, [fp, -fp, lsl #22]
     ee8:	20134919 	andscs	r4, r3, r9, lsl r9
     eec:	0013010b 	andseq	r0, r3, fp, lsl #2
     ef0:	00050600 	andeq	r0, r5, r0, lsl #12
     ef4:	0b3a0e03 	bleq	e84708 <_back_addr-0x67b8f8>
     ef8:	13490b3b 	movtne	r0, #39739	; 0x9b3b
     efc:	34070000 	strcc	r0, [r7], #-0
     f00:	3a0e0300 	bcc	381b08 <_back_addr-0x117e4f8>
     f04:	490b3b0b 	stmdbmi	fp, {r0, r1, r3, r8, r9, fp, ip, sp}
     f08:	08000013 	stmdaeq	r0, {r0, r1, r4}
     f0c:	1331012e 	teqne	r1, #-2147483637	; 0x8000000b
     f10:	06120111 			; <UNDEFINED> instruction: 0x06120111
     f14:	42971840 	addsmi	r1, r7, #64, 16	; 0x400000
     f18:	00130119 	andseq	r0, r3, r9, lsl r1
     f1c:	00050900 	andeq	r0, r5, r0, lsl #18
     f20:	17021331 	smladxne	r2, r1, r3, r1
     f24:	050a0000 	streq	r0, [sl, #-0]
     f28:	02133100 	andseq	r3, r3, #0, 2
     f2c:	0b000018 	bleq	f94 <_back_addr-0x14ff06c>
     f30:	1755010b 	ldrbne	r0, [r5, -fp, lsl #2]
     f34:	2e0c0000 	cdpcs	0, 0, cr0, cr12, cr0, {0}
     f38:	03193f01 	tsteq	r9, #1, 30
     f3c:	3b0b3a0e 	blcc	2cf77c <_back_addr-0x1230884>
     f40:	4919270b 	ldmdbmi	r9, {r0, r1, r3, r8, r9, sl, sp}
     f44:	12011113 	andne	r1, r1, #-1073741820	; 0xc0000004
     f48:	97184006 	ldrls	r4, [r8, -r6]
     f4c:	13011942 	movwne	r1, #6466	; 0x1942
     f50:	050d0000 	streq	r0, [sp, #-0]
     f54:	3a0e0300 	bcc	381b5c <_back_addr-0x117e4a4>
     f58:	490b3b0b 	stmdbmi	fp, {r0, r1, r3, r8, r9, fp, ip, sp}
     f5c:	00170213 	andseq	r0, r7, r3, lsl r2
     f60:	00340e00 	eorseq	r0, r4, r0, lsl #28
     f64:	0b1c1331 	bleq	705c30 <_back_addr-0xdfa3d0>
     f68:	0b0f0000 	bleq	3c0f70 <_back_addr-0x113f090>
     f6c:	12011101 	andne	r1, r1, #1073741824	; 0x40000000
     f70:	10000006 	andne	r0, r0, r6
     f74:	13310034 	teqne	r1, #52	; 0x34
     f78:	2e110000 	cdpcs	0, 1, cr0, cr1, cr0, {0}
     f7c:	03193f01 	tsteq	r9, #1, 30
     f80:	3b0b3a0e 	blcc	2cf7c0 <_back_addr-0x1230840>
     f84:	1119270b 	tstne	r9, fp, lsl #14
     f88:	40061201 	andmi	r1, r6, r1, lsl #4
     f8c:	19429718 	stmdbne	r2, {r3, r4, r8, r9, sl, ip, pc}^
     f90:	00001301 	andeq	r1, r0, r1, lsl #6
     f94:	03003412 	movweq	r3, #1042	; 0x412
     f98:	3b0b3a0e 	blcc	2cf7d8 <_back_addr-0x1230828>
     f9c:	0213490b 	andseq	r4, r3, #180224	; 0x2c000
     fa0:	13000017 	movwne	r0, #23
     fa4:	1331011d 	teqne	r1, #1073741831	; 0x40000007
     fa8:	17550152 			; <UNDEFINED> instruction: 0x17550152
     fac:	0b590b58 	bleq	1643d14 <__bss_end__+0x1301d4>
     fb0:	00001301 	andeq	r1, r0, r1, lsl #6
     fb4:	31000514 	tstcc	r0, r4, lsl r5
     fb8:	000b1c13 	andeq	r1, fp, r3, lsl ip
     fbc:	011d1500 	tsteq	sp, r0, lsl #10
     fc0:	01521331 	cmpeq	r2, r1, lsr r3
     fc4:	0b581755 	bleq	1606d20 <__bss_end__+0xf31e0>
     fc8:	00000b59 	andeq	r0, r0, r9, asr fp
     fcc:	3f012e16 	svccc	0x00012e16
     fd0:	3a0e0319 	bcc	381c3c <_back_addr-0x117e3c4>
     fd4:	270b3b0b 	strcs	r3, [fp, -fp, lsl #22]
     fd8:	12011119 	andne	r1, r1, #1073741830	; 0x40000006
     fdc:	97184006 	ldrls	r4, [r8, -r6]
     fe0:	00001942 	andeq	r1, r0, r2, asr #18
     fe4:	01110100 	tsteq	r1, r0, lsl #2
     fe8:	0b130e25 	bleq	4c4884 <_back_addr-0x103b77c>
     fec:	0e1b0e03 	cdpeq	14, 1, cr0, cr11, cr3, {0}
     ff0:	06120111 			; <UNDEFINED> instruction: 0x06120111
     ff4:	00001710 	andeq	r1, r0, r0, lsl r7
     ff8:	03001602 	movweq	r1, #1538	; 0x602
     ffc:	3b0b3a0e 	blcc	2cf83c <_back_addr-0x12307c4>
    1000:	0013490b 	andseq	r4, r3, fp, lsl #18
    1004:	00240300 	eoreq	r0, r4, r0, lsl #6
    1008:	0b3e0b0b 	bleq	f83c3c <_back_addr-0x57c3c4>
    100c:	00000e03 	andeq	r0, r0, r3, lsl #28
    1010:	0b002404 	bleq	a028 <_back_addr-0x14f5fd8>
    1014:	030b3e0b 	movweq	r3, #48651	; 0xbe0b
    1018:	05000008 	streq	r0, [r0, #-8]
    101c:	0b0b000f 	bleq	2c1060 <_back_addr-0x123efa0>
    1020:	00001349 	andeq	r1, r0, r9, asr #6
    1024:	49002606 	stmdbmi	r0, {r1, r2, r9, sl, sp}
    1028:	07000013 	smladeq	r0, r3, r0, r0
    102c:	0b0b0113 	bleq	2c1480 <_back_addr-0x123eb80>
    1030:	0b3b0b3a 	bleq	ec3d20 <_back_addr-0x63c2e0>
    1034:	00001301 	andeq	r1, r0, r1, lsl #6
    1038:	03000d08 	movweq	r0, #3336	; 0xd08
    103c:	3b0b3a08 	blcc	2cf864 <_back_addr-0x123079c>
    1040:	0b13490b 	bleq	4d3474 <_back_addr-0x102cb8c>
    1044:	0c0b0d0b 	stceq	13, cr0, [fp], {11}
    1048:	000b380b 	andeq	r3, fp, fp, lsl #16
    104c:	000d0900 	andeq	r0, sp, r0, lsl #18
    1050:	0b3a0e03 	bleq	e84864 <_back_addr-0x67b79c>
    1054:	13490b3b 	movtne	r0, #39739	; 0x9b3b
    1058:	0b0d0b0b 	bleq	343c8c <_back_addr-0x11bc374>
    105c:	0b380b0c 	bleq	e03c94 <_back_addr-0x6fc36c>
    1060:	170a0000 	strne	r0, [sl, -r0]
    1064:	0b0e0301 	bleq	381c70 <_back_addr-0x117e390>
    1068:	3b0b3a0b 	blcc	2cf89c <_back_addr-0x1230764>
    106c:	0013010b 	andseq	r0, r3, fp, lsl #2
    1070:	000d0b00 	andeq	r0, sp, r0, lsl #22
    1074:	0b3a0e03 	bleq	e84888 <_back_addr-0x67b778>
    1078:	13490b3b 	movtne	r0, #39739	; 0x9b3b
    107c:	0d0c0000 	stceq	0, cr0, [ip, #-0]
    1080:	3a0e0300 	bcc	381c88 <_back_addr-0x117e378>
    1084:	49053b0b 	stmdbmi	r5, {r0, r1, r3, r8, r9, fp, ip, sp}
    1088:	0d000013 	stceq	0, cr0, [r0, #-76]	; 0xffffffb4
    108c:	0e030016 	mcreq	0, 0, r0, cr3, cr6, {0}
    1090:	053b0b3a 	ldreq	r0, [fp, #-2874]!	; 0xb3a
    1094:	00001349 	andeq	r1, r0, r9, asr #6
    1098:	0301130e 	movweq	r1, #4878	; 0x130e
    109c:	3a0b0b0e 	bcc	2c3cdc <_back_addr-0x123c324>
    10a0:	01053b0b 	tsteq	r5, fp, lsl #22
    10a4:	0f000013 	svceq	0x00000013
    10a8:	0e03000d 	cdpeq	0, 0, cr0, cr3, cr13, {0}
    10ac:	053b0b3a 	ldreq	r0, [fp, #-2874]!	; 0xb3a
    10b0:	0b381349 	bleq	e05ddc <_back_addr-0x6fa224>
    10b4:	2e100000 	cdpcs	0, 1, cr0, cr0, cr0, {0}
    10b8:	3a0e0301 	bcc	381cc4 <_back_addr-0x117e33c>
    10bc:	270b3b0b 	strcs	r3, [fp, -fp, lsl #22]
    10c0:	010b2019 	tsteq	fp, r9, lsl r0
    10c4:	11000013 	tstne	r0, r3, lsl r0
    10c8:	0e030005 	cdpeq	0, 0, cr0, cr3, cr5, {0}
    10cc:	0b3b0b3a 	bleq	ec3dbc <_back_addr-0x63c244>
    10d0:	00001349 	andeq	r1, r0, r9, asr #6
    10d4:	3f012e12 	svccc	0x00012e12
    10d8:	3a0e0319 	bcc	381d44 <_back_addr-0x117e2bc>
    10dc:	270b3b0b 	strcs	r3, [fp, -fp, lsl #22]
    10e0:	010b2019 	tsteq	fp, r9, lsl r0
    10e4:	13000013 	movwne	r0, #19
    10e8:	08030005 	stmdaeq	r3, {r0, r2}
    10ec:	0b3b0b3a 	bleq	ec3ddc <_back_addr-0x63c224>
    10f0:	00001349 	andeq	r1, r0, r9, asr #6
    10f4:	03003414 	movweq	r3, #1044	; 0x414
    10f8:	3b0b3a08 	blcc	2cf920 <_back_addr-0x12306e0>
    10fc:	0013490b 	andseq	r4, r3, fp, lsl #18
    1100:	000f1500 	andeq	r1, pc, r0, lsl #10
    1104:	00000b0b 	andeq	r0, r0, fp, lsl #22
    1108:	3f002e16 	svccc	0x00002e16
    110c:	3a0e0319 	bcc	381d78 <_back_addr-0x117e288>
    1110:	270b3b0b 	strcs	r3, [fp, -fp, lsl #22]
    1114:	12011119 	andne	r1, r1, #1073741830	; 0x40000006
    1118:	97184006 	ldrls	r4, [r8, -r6]
    111c:	00001942 	andeq	r1, r0, r2, asr #18
    1120:	3f012e17 	svccc	0x00012e17
    1124:	3a0e0319 	bcc	381d90 <_back_addr-0x117e270>
    1128:	270b3b0b 	strcs	r3, [fp, -fp, lsl #22]
    112c:	12011119 	andne	r1, r1, #1073741830	; 0x40000006
    1130:	97184006 	ldrls	r4, [r8, -r6]
    1134:	13011942 	movwne	r1, #6466	; 0x1942
    1138:	34180000 	ldrcc	r0, [r8], #-0
    113c:	3a0e0300 	bcc	381d44 <_back_addr-0x117e2bc>
    1140:	490b3b0b 	stmdbmi	fp, {r0, r1, r3, r8, r9, fp, ip, sp}
    1144:	00170213 	andseq	r0, r7, r3, lsl r2
    1148:	00341900 	eorseq	r1, r4, r0, lsl #18
    114c:	0b3a0e03 	bleq	e84960 <_back_addr-0x67b6a0>
    1150:	13490b3b 	movtne	r0, #39739	; 0x9b3b
    1154:	0000061c 	andeq	r0, r0, ip, lsl r6
    1158:	0300051a 	movweq	r0, #1306	; 0x51a
    115c:	3b0b3a0e 	blcc	2cf99c <_back_addr-0x1230664>
    1160:	0213490b 	andseq	r4, r3, #180224	; 0x2c000
    1164:	1b000018 	blne	11cc <_back_addr-0x14fee34>
    1168:	08030005 	stmdaeq	r3, {r0, r2}
    116c:	0b3b0b3a 	bleq	ec3e5c <_back_addr-0x63c1a4>
    1170:	17021349 	strne	r1, [r2, -r9, asr #6]
    1174:	341c0000 	ldrcc	r0, [ip], #-0
    1178:	3a080300 	bcc	201d80 <_back_addr-0x12fe280>
    117c:	490b3b0b 	stmdbmi	fp, {r0, r1, r3, r8, r9, fp, ip, sp}
    1180:	00170213 	andseq	r0, r7, r3, lsl r2
    1184:	011d1d00 	tsteq	sp, r0, lsl #26
    1188:	01521331 	cmpeq	r2, r1, lsr r3
    118c:	0b581755 	bleq	1606ee8 <__bss_end__+0xf33a8>
    1190:	13010b59 	movwne	r0, #7001	; 0x1b59
    1194:	051e0000 	ldreq	r0, [lr, #-0]
    1198:	00133100 	andseq	r3, r3, r0, lsl #2
    119c:	011d1f00 	tsteq	sp, r0, lsl #30
    11a0:	01111331 	tsteq	r1, r1, lsr r3
    11a4:	0b580612 	bleq	16029f4 <__bss_end__+0xeeeb4>
    11a8:	00000b59 	andeq	r0, r0, r9, asr fp
    11ac:	31000520 	tstcc	r0, r0, lsr #10
    11b0:	00180213 	andseq	r0, r8, r3, lsl r2
    11b4:	00052100 	andeq	r2, r5, r0, lsl #2
    11b8:	0b3a0e03 	bleq	e849cc <_back_addr-0x67b634>
    11bc:	13490b3b 	movtne	r0, #39739	; 0x9b3b
    11c0:	00001702 	andeq	r1, r0, r2, lsl #14
    11c4:	55010b22 	strpl	r0, [r1, #-2850]	; 0xb22
    11c8:	23000017 	movwcs	r0, #23
    11cc:	193f012e 	ldmdbne	pc!, {r1, r2, r3, r5, r8}	; <UNPREDICTABLE>
    11d0:	0b3a0e03 	bleq	e849e4 <_back_addr-0x67b61c>
    11d4:	13490b3b 	movtne	r0, #39739	; 0x9b3b
    11d8:	1301193c 	movwne	r1, #6460	; 0x193c
    11dc:	18240000 	stmdane	r4!, {}	; <UNPREDICTABLE>
    11e0:	25000000 	strcs	r0, [r0, #-0]
    11e4:	01018289 	smlabbeq	r1, r9, r2, r8
    11e8:	13310111 	teqne	r1, #1073741828	; 0x40000004
    11ec:	00001301 	andeq	r1, r0, r1, lsl #6
    11f0:	01828a26 	orreq	r8, r2, r6, lsr #20
    11f4:	91180200 	tstls	r8, r0, lsl #4
    11f8:	00001842 	andeq	r1, r0, r2, asr #16
    11fc:	01828927 	orreq	r8, r2, r7, lsr #18
    1200:	95011101 	strls	r1, [r1, #-257]	; 0x101
    1204:	13311942 	teqne	r1, #1081344	; 0x108000
    1208:	35280000 	strcc	r0, [r8, #-0]!
    120c:	00134900 	andseq	r4, r3, r0, lsl #18
    1210:	00052900 	andeq	r2, r5, r0, lsl #18
    1214:	0b3a0803 	bleq	e83228 <_back_addr-0x67cdd8>
    1218:	13490b3b 	movtne	r0, #39739	; 0x9b3b
    121c:	00001802 	andeq	r1, r0, r2, lsl #16
    1220:	31011d2a 	tstcc	r1, sl, lsr #26
    1224:	55015213 	strpl	r5, [r1, #-531]	; 0x213
    1228:	590b5817 	stmdbpl	fp, {r0, r1, r2, r4, fp, ip, lr}
    122c:	2b00000b 	blcs	1260 <_back_addr-0x14feda0>
    1230:	1331012e 	teqne	r1, #-2147483637	; 0x8000000b
    1234:	06120111 			; <UNDEFINED> instruction: 0x06120111
    1238:	42971840 	addsmi	r1, r7, #64, 16	; 0x400000
    123c:	00130119 	andseq	r0, r3, r9, lsl r1
    1240:	00052c00 	andeq	r2, r5, r0, lsl #24
    1244:	17021331 	smladxne	r2, r1, r3, r1
    1248:	2e2d0000 	cdpcs	0, 2, cr0, cr13, cr0, {0}
    124c:	03193f01 	tsteq	r9, #1, 30
    1250:	3b0b3a0e 	blcc	2cfa90 <_back_addr-0x1230570>
    1254:	4919270b 	ldmdbmi	r9, {r0, r1, r3, r8, r9, sl, sp}
    1258:	12011113 	andne	r1, r1, #-1073741820	; 0xc0000004
    125c:	97184006 	ldrls	r4, [r8, -r6]
    1260:	13011942 	movwne	r1, #6466	; 0x1942
    1264:	342e0000 	strtcc	r0, [lr], #-0
    1268:	3a0e0300 	bcc	381e70 <_back_addr-0x117e190>
    126c:	490b3b0b 	stmdbmi	fp, {r0, r1, r3, r8, r9, fp, ip, sp}
    1270:	00180213 	andseq	r0, r8, r3, lsl r2
    1274:	00342f00 	eorseq	r2, r4, r0, lsl #30
    1278:	13490e03 	movtne	r0, #40451	; 0x9e03
    127c:	18021934 	stmdane	r2, {r2, r4, r5, r8, fp, ip}
    1280:	1d300000 	ldcne	0, cr0, [r0, #-0]
    1284:	11133101 	tstne	r3, r1, lsl #2
    1288:	58061201 	stmdapl	r6, {r0, r9, ip}
    128c:	010b590b 	tsteq	fp, fp, lsl #18
    1290:	31000013 	tstcc	r0, r3, lsl r0
    1294:	01018289 	smlabbeq	r1, r9, r2, r8
    1298:	13310111 	teqne	r1, #1073741828	; 0x40000004
    129c:	89320000 	ldmdbhi	r2!, {}	; <UNPREDICTABLE>
    12a0:	11000182 	smlabbne	r0, r2, r1, r0
    12a4:	00133101 	andseq	r3, r3, r1, lsl #2
    12a8:	82893300 	addhi	r3, r9, #0, 6
    12ac:	01110101 	tsteq	r1, r1, lsl #2
    12b0:	31194295 			; <UNDEFINED> instruction: 0x31194295
    12b4:	00130113 	andseq	r0, r3, r3, lsl r1
    12b8:	00263400 	eoreq	r3, r6, r0, lsl #8
    12bc:	01350000 	teqeq	r5, r0
    12c0:	01134901 	tsteq	r3, r1, lsl #18
    12c4:	36000013 			; <UNDEFINED> instruction: 0x36000013
    12c8:	13490021 	movtne	r0, #36897	; 0x9021
    12cc:	00000b2f 	andeq	r0, r0, pc, lsr #22
    12d0:	31003437 	tstcc	r0, r7, lsr r4
    12d4:	00170213 	andseq	r0, r7, r3, lsl r2
    12d8:	00343800 	eorseq	r3, r4, r0, lsl #16
    12dc:	0b3a0803 	bleq	e832f0 <_back_addr-0x67cd10>
    12e0:	13490b3b 	movtne	r0, #39739	; 0x9b3b
    12e4:	00001802 	andeq	r1, r0, r2, lsl #16
    12e8:	3f012e39 	svccc	0x00012e39
    12ec:	3a0e0319 	bcc	381f58 <_back_addr-0x117e0a8>
    12f0:	27053b0b 	strcs	r3, [r5, -fp, lsl #22]
    12f4:	11134919 	tstne	r3, r9, lsl r9
    12f8:	40061201 	andmi	r1, r6, r1, lsl #4
    12fc:	19429718 	stmdbne	r2, {r3, r4, r8, r9, sl, ip, pc}^
    1300:	00001301 	andeq	r1, r0, r1, lsl #6
    1304:	0300053a 	movweq	r0, #1338	; 0x53a
    1308:	3b0b3a08 	blcc	2cfb30 <_back_addr-0x12304d0>
    130c:	02134905 	andseq	r4, r3, #81920	; 0x14000
    1310:	3b000017 	blcc	1374 <_back_addr-0x14fec8c>
    1314:	0e030005 	cdpeq	0, 0, cr0, cr3, cr5, {0}
    1318:	053b0b3a 	ldreq	r0, [fp, #-2874]!	; 0xb3a
    131c:	17021349 	strne	r1, [r2, -r9, asr #6]
    1320:	343c0000 	ldrtcc	r0, [ip], #-0
    1324:	3a080300 	bcc	201f2c <_back_addr-0x12fe0d4>
    1328:	49053b0b 	stmdbmi	r5, {r0, r1, r3, r8, r9, fp, ip, sp}
    132c:	00170213 	andseq	r0, r7, r3, lsl r2
    1330:	002e3d00 	eoreq	r3, lr, r0, lsl #26
    1334:	0e03193f 	mcreq	9, 0, r1, cr3, cr15, {1}
    1338:	053b0b3a 	ldreq	r0, [fp, #-2874]!	; 0xb3a
    133c:	01111927 	tsteq	r1, r7, lsr #18
    1340:	18400612 	stmdane	r0, {r1, r4, r9, sl}^
    1344:	00194297 	mulseq	r9, r7, r2
    1348:	012e3e00 	teqeq	lr, r0, lsl #28
    134c:	0e03193f 	mcreq	9, 0, r1, cr3, cr15, {1}
    1350:	0b3b0b3a 	bleq	ec4040 <_back_addr-0x63bfc0>
    1354:	193c1349 	ldmdbne	ip!, {r0, r3, r6, r8, r9, ip}
    1358:	01000000 	mrseq	r0, (UNDEF: 0)
    135c:	0e250111 	mcreq	1, 1, r0, cr5, cr1, {0}
    1360:	0e030b13 	vmoveq.32	d3[0], r0
    1364:	01110e1b 	tsteq	r1, fp, lsl lr
    1368:	17100612 			; <UNDEFINED> instruction: 0x17100612
    136c:	24020000 	strcs	r0, [r2], #-0
    1370:	3e0b0b00 	vmlacc.f64	d0, d11, d0
    1374:	000e030b 	andeq	r0, lr, fp, lsl #6
    1378:	00240300 	eoreq	r0, r4, r0, lsl #6
    137c:	0b3e0b0b 	bleq	f83fb0 <_back_addr-0x57c050>
    1380:	00000803 	andeq	r0, r0, r3, lsl #16
    1384:	03001604 	movweq	r1, #1540	; 0x604
    1388:	3b0b3a08 	blcc	2cfbb0 <_back_addr-0x1230450>
    138c:	0013490b 	andseq	r4, r3, fp, lsl #18
    1390:	01040500 	tsteq	r4, r0, lsl #10
    1394:	0b0b0e03 	bleq	2c4ba8 <_back_addr-0x123b458>
    1398:	053b0b3a 	ldreq	r0, [fp, #-2874]!	; 0xb3a
    139c:	00001301 	andeq	r1, r0, r1, lsl #6
    13a0:	03002806 	movweq	r2, #2054	; 0x806
    13a4:	000d1c0e 	andeq	r1, sp, lr, lsl #24
    13a8:	012e0700 	teqeq	lr, r0, lsl #14
    13ac:	0b3a0e03 	bleq	e84bc0 <_back_addr-0x67b440>
    13b0:	19270b3b 	stmdbne	r7!, {r0, r1, r3, r4, r5, r8, r9, fp}
    13b4:	13010b20 	movwne	r0, #6944	; 0x1b20
    13b8:	05080000 	streq	r0, [r8, #-0]
    13bc:	3a0e0300 	bcc	381fc4 <_back_addr-0x117e03c>
    13c0:	490b3b0b 	stmdbmi	fp, {r0, r1, r3, r8, r9, fp, ip, sp}
    13c4:	09000013 	stmdbeq	r0, {r0, r1, r4}
    13c8:	0e030034 	mcreq	0, 0, r0, cr3, cr4, {1}
    13cc:	0b3b0b3a 	bleq	ec40bc <_back_addr-0x63bf44>
    13d0:	00001349 	andeq	r1, r0, r9, asr #6
    13d4:	03012e0a 	movweq	r2, #7690	; 0x1e0a
    13d8:	3b0b3a0e 	blcc	2cfc18 <_back_addr-0x12303e8>
    13dc:	4919270b 	ldmdbmi	r9, {r0, r1, r3, r8, r9, sl, sp}
    13e0:	010b2013 	tsteq	fp, r3, lsl r0
    13e4:	0b000013 	bleq	1438 <_back_addr-0x14febc8>
    13e8:	08030005 	stmdaeq	r3, {r0, r2}
    13ec:	0b3b0b3a 	bleq	ec40dc <_back_addr-0x63bf24>
    13f0:	00001349 	andeq	r1, r0, r9, asr #6
    13f4:	0300340c 	movweq	r3, #1036	; 0x40c
    13f8:	3b0b3a08 	blcc	2cfc20 <_back_addr-0x12303e0>
    13fc:	0013490b 	andseq	r4, r3, fp, lsl #18
    1400:	002e0d00 	eoreq	r0, lr, r0, lsl #26
    1404:	0e03193f 	mcreq	9, 0, r1, cr3, cr15, {1}
    1408:	0b3b0b3a 	bleq	ec40f8 <_back_addr-0x63bf08>
    140c:	0b201927 	bleq	8078b0 <_back_addr-0xcf8750>
    1410:	2e0e0000 	cdpcs	0, 0, cr0, cr14, cr0, {0}
    1414:	3a0e0300 	bcc	38201c <_back_addr-0x117dfe4>
    1418:	270b3b0b 	strcs	r3, [fp, -fp, lsl #22]
    141c:	000b2019 	andeq	r2, fp, r9, lsl r0
    1420:	012e0f00 	teqeq	lr, r0, lsl #30
    1424:	0b3a0e03 	bleq	e84c38 <_back_addr-0x67b3c8>
    1428:	19270b3b 	stmdbne	r7!, {r0, r1, r3, r4, r5, r8, r9, fp}
    142c:	06120111 			; <UNDEFINED> instruction: 0x06120111
    1430:	42971840 	addsmi	r1, r7, #64, 16	; 0x400000
    1434:	00130119 	andseq	r0, r3, r9, lsl r1
    1438:	00051000 	andeq	r1, r5, r0
    143c:	0b3a0e03 	bleq	e84c50 <_back_addr-0x67b3b0>
    1440:	13490b3b 	movtne	r0, #39739	; 0x9b3b
    1444:	00001802 	andeq	r1, r0, r2, lsl #16
    1448:	03003411 	movweq	r3, #1041	; 0x411
    144c:	3b0b3a0e 	blcc	2cfc8c <_back_addr-0x1230374>
    1450:	0213490b 	andseq	r4, r3, #180224	; 0x2c000
    1454:	12000017 	andne	r0, r0, #23
    1458:	0e030034 	mcreq	0, 0, r0, cr3, cr4, {1}
    145c:	0b3b0b3a 	bleq	ec414c <_back_addr-0x63beb4>
    1460:	18021349 	stmdane	r2, {r0, r3, r6, r8, r9, ip}
    1464:	1d130000 	ldcne	0, cr0, [r3, #-0]
    1468:	11133101 	tstne	r3, r1, lsl #2
    146c:	58061201 	stmdapl	r6, {r0, r9, ip}
    1470:	010b590b 	tsteq	fp, fp, lsl #18
    1474:	14000013 	strne	r0, [r0], #-19
    1478:	0111010b 	tsteq	r1, fp, lsl #2
    147c:	00000612 	andeq	r0, r0, r2, lsl r6
    1480:	31003415 	tstcc	r0, r5, lsl r4
    1484:	00180213 	andseq	r0, r8, r3, lsl r2
    1488:	011d1600 	tsteq	sp, r0, lsl #12
    148c:	01521331 	cmpeq	r2, r1, lsr r3
    1490:	0b581755 	bleq	16071ec <__bss_end__+0xf36ac>
    1494:	00000b59 	andeq	r0, r0, r9, asr fp
    1498:	31000517 	tstcc	r0, r7, lsl r5
    149c:	18000013 	stmdane	r0, {r0, r1, r4}
    14a0:	13310005 	teqne	r1, #5
    14a4:	00001702 	andeq	r1, r0, r2, lsl #14
    14a8:	55010b19 	strpl	r0, [r1, #-2841]	; 0xb19
    14ac:	1a000017 	bne	1510 <_back_addr-0x14feaf0>
    14b0:	13310034 	teqne	r1, #52	; 0x34
    14b4:	341b0000 	ldrcc	r0, [fp], #-0
    14b8:	02133100 	andseq	r3, r3, #0, 2
    14bc:	1c000017 	stcne	0, cr0, [r0], {23}
    14c0:	1331011d 	teqne	r1, #1073741831	; 0x40000007
    14c4:	17550152 			; <UNDEFINED> instruction: 0x17550152
    14c8:	0b590b58 	bleq	1644230 <__bss_end__+0x1306f0>
    14cc:	00001301 	andeq	r1, r0, r1, lsl #6
    14d0:	31011d1d 	tstcc	r1, sp, lsl sp
    14d4:	12011113 	andne	r1, r1, #-1073741820	; 0xc0000004
    14d8:	590b5806 	stmdbpl	fp, {r1, r2, fp, ip, lr}
    14dc:	1e00000b 	cdpne	0, 0, cr0, cr0, cr11, {0}
    14e0:	193f002e 	ldmdbne	pc!, {r1, r2, r3, r5}	; <UNPREDICTABLE>
    14e4:	0b3a0e03 	bleq	e84cf8 <_back_addr-0x67b308>
    14e8:	1927053b 	stmdbne	r7!, {r0, r1, r3, r4, r5, r8, sl}
    14ec:	06120111 			; <UNDEFINED> instruction: 0x06120111
    14f0:	42971840 	addsmi	r1, r7, #64, 16	; 0x400000
    14f4:	1f000019 	svcne	0x00000019
    14f8:	193f012e 	ldmdbne	pc!, {r1, r2, r3, r5, r8}	; <UNPREDICTABLE>
    14fc:	0b3a0e03 	bleq	e84d10 <_back_addr-0x67b2f0>
    1500:	1927053b 	stmdbne	r7!, {r0, r1, r3, r4, r5, r8, sl}
    1504:	06120111 			; <UNDEFINED> instruction: 0x06120111
    1508:	42971840 	addsmi	r1, r7, #64, 16	; 0x400000
    150c:	00130119 	andseq	r0, r3, r9, lsl r1
    1510:	82892000 	addhi	r2, r9, #0
    1514:	01110101 	tsteq	r1, r1, lsl #2
    1518:	13011331 	movwne	r1, #4913	; 0x1331
    151c:	8a210000 	bhi	841524 <_back_addr-0xcbeadc>
    1520:	02000182 	andeq	r0, r0, #-2147483616	; 0x80000020
    1524:	18429118 	stmdane	r2, {r3, r4, r8, ip, pc}^
    1528:	89220000 	stmdbhi	r2!, {}	; <UNPREDICTABLE>
    152c:	11000182 	smlabbne	r0, r2, r1, r0
    1530:	19429501 	stmdbne	r2, {r0, r8, sl, ip, pc}^
    1534:	2e230000 	cdpcs	0, 2, cr0, cr3, cr0, {0}
    1538:	11133101 	tstne	r3, r1, lsl #2
    153c:	40061201 	andmi	r1, r6, r1, lsl #4
    1540:	19429718 	stmdbne	r2, {r3, r4, r8, r9, sl, ip, pc}^
    1544:	00001301 	andeq	r1, r0, r1, lsl #6
    1548:	31011d24 	tstcc	r1, r4, lsr #26
    154c:	12011113 	andne	r1, r1, #-1073741820	; 0xc0000004
    1550:	590b5806 	stmdbpl	fp, {r1, r2, fp, ip, lr}
    1554:	00130105 	andseq	r0, r3, r5, lsl #2
    1558:	82892500 	addhi	r2, r9, #0, 10
    155c:	01110001 	tsteq	r1, r1
    1560:	1d260000 	stcne	0, cr0, [r6, #-0]
    1564:	11133100 	tstne	r3, r0, lsl #2
    1568:	58061201 	stmdapl	r6, {r0, r9, ip}
    156c:	0005590b 	andeq	r5, r5, fp, lsl #18
    1570:	00052700 	andeq	r2, r5, r0, lsl #14
    1574:	0b3a0e03 	bleq	e84d88 <_back_addr-0x67b278>
    1578:	1349053b 	movtne	r0, #38203	; 0x953b
    157c:	00001802 	andeq	r1, r0, r2, lsl #16
    1580:	03000528 	movweq	r0, #1320	; 0x528
    1584:	3b0b3a08 	blcc	2cfdac <_back_addr-0x1230254>
    1588:	02134905 	andseq	r4, r3, #81920	; 0x14000
    158c:	29000018 	stmdbcs	r0, {r3, r4}
    1590:	0e030005 	cdpeq	0, 0, cr0, cr3, cr5, {0}
    1594:	053b0b3a 	ldreq	r0, [fp, #-2874]!	; 0xb3a
    1598:	17021349 	strne	r1, [r2, -r9, asr #6]
    159c:	052a0000 	streq	r0, [sl, #-0]!
    15a0:	1c133100 	ldfnes	f3, [r3], {-0}
    15a4:	2b00000b 	blcs	15d8 <_back_addr-0x14fea28>
    15a8:	01018289 	smlabbeq	r1, r9, r2, r8
    15ac:	42950111 	addsmi	r0, r5, #1073741828	; 0x40000004
    15b0:	00133119 	andseq	r3, r3, r9, lsl r1
    15b4:	00342c00 	eorseq	r2, r4, r0, lsl #24
    15b8:	0b3a0e03 	bleq	e84dcc <_back_addr-0x67b234>
    15bc:	1349053b 	movtne	r0, #38203	; 0x953b
    15c0:	0000061c 	andeq	r0, r0, ip, lsl r6
    15c4:	0300342d 	movweq	r3, #1069	; 0x42d
    15c8:	3b0b3a0e 	blcc	2cfe08 <_back_addr-0x12301f8>
    15cc:	3f134905 	svccc	0x00134905
    15d0:	00193c19 	andseq	r3, r9, r9, lsl ip
	...

Disassembly of section .debug_line:

00000000 <.debug_line>:
       0:	0000004c 	andeq	r0, r0, ip, asr #32
       4:	001e0002 	andseq	r0, lr, r2
       8:	01020000 	mrseq	r0, (UNDEF: 2)
       c:	000d0efb 	strdeq	r0, [sp], -fp
      10:	01010101 	tsteq	r1, r1, lsl #2
      14:	01000000 	mrseq	r0, (UNDEF: 0)
      18:	00010000 	andeq	r0, r1, r0
      1c:	72617473 	rsbvc	r7, r1, #1929379840	; 0x73000000
      20:	00532e74 	subseq	r2, r3, r4, ror lr
      24:	00000000 	andeq	r0, r0, r0
      28:	0c020500 	cfstr32eq	mvfx0, [r2], {-0}
      2c:	03015000 	movweq	r5, #4096	; 0x1000
      30:	2f2f010e 	svccs	0x002f010e
      34:	2f2f302f 	svccs	0x002f302f
      38:	2f2f302f 	svccs	0x002f302f
      3c:	2f2f2f30 	svccs	0x002f2f30
      40:	2f312f2f 	svccs	0x00312f2f
      44:	302f2f2f 	eorcc	r2, pc, pc, lsr #30
      48:	022f2f2f 	eoreq	r2, pc, #47, 30	; 0xbc
      4c:	01010002 	tsteq	r1, r2
      50:	00000036 	andeq	r0, r0, r6, lsr r0
      54:	001f0002 	andseq	r0, pc, r2
      58:	01020000 	mrseq	r0, (UNDEF: 2)
      5c:	000d0efb 	strdeq	r0, [sp], -fp
      60:	01010101 	tsteq	r1, r1, lsl #2
      64:	01000000 	mrseq	r0, (UNDEF: 0)
      68:	00010000 	andeq	r0, r1, r0
      6c:	6c727473 	cfldrdvs	mvd7, [r2], #-460	; 0xfffffe34
      70:	632e6e65 	teqvs	lr, #1616	; 0x650
      74:	00000000 	andeq	r0, r0, r0
      78:	02050000 	andeq	r0, r5, #0
      7c:	01500074 	cmpeq	r0, r4, ror r0
      80:	15013c03 	strne	r3, [r1, #-3075]	; 0xc03
      84:	000402f8 	strdeq	r0, [r4], -r8
      88:	00550101 	subseq	r0, r5, r1, lsl #2
      8c:	00020000 	andeq	r0, r2, r0
      90:	0000001f 	andeq	r0, r0, pc, lsl r0
      94:	0efb0102 	cdpeq	1, 15, cr0, cr11, cr2, {0}
      98:	0101000d 	tsteq	r1, sp
      9c:	00000101 	andeq	r0, r0, r1, lsl #2
      a0:	00000100 	andeq	r0, r0, r0, lsl #2
      a4:	74730001 	ldrbtvc	r0, [r3], #-1
      a8:	72747372 	rsbsvc	r7, r4, #-939524095	; 0xc8000001
      ac:	0000632e 	andeq	r6, r0, lr, lsr #6
      b0:	00000000 	andeq	r0, r0, r0
      b4:	009c0205 	addseq	r0, ip, r5, lsl #4
      b8:	c0030150 	andgt	r0, r3, r0, asr r1
      bc:	62160100 	andsvs	r0, r6, #0, 2
      c0:	04020035 	streq	r0, [r2], #-53	; 0x35
      c4:	82066901 	andhi	r6, r6, #16384	; 0x4000
      c8:	02006806 	andeq	r6, r0, #393216	; 0x60000
      cc:	684e0104 	stmdavs	lr, {r2, r8}^
      d0:	7003a3f0 	strdvc	sl, [r3], -r0
      d4:	2e150382 	cdpcs	3, 1, cr0, cr5, cr2, {4}
      d8:	032e6b03 	teqeq	lr, #3072	; 0xc00
      dc:	02022e15 	andeq	r2, r2, #336	; 0x150
      e0:	c8010100 	stmdagt	r1, {r8}
      e4:	02000000 	andeq	r0, r0, #0
      e8:	00007300 	andeq	r7, r0, r0, lsl #6
      ec:	fb010200 	blx	408f6 <_back_addr-0x14bf70a>
      f0:	01000d0e 	tsteq	r0, lr, lsl #26
      f4:	00010101 	andeq	r0, r1, r1, lsl #2
      f8:	00010000 	andeq	r0, r1, r0
      fc:	622f0100 	eorvs	r0, pc, #0, 2
     100:	756b6361 	strbvc	r6, [fp, #-865]!	; 0x361
     104:	64772f70 	ldrbtvs	r2, [r7], #-3952	; 0xf70
     108:	6f6f622f 	svcvs	0x006f622f
     10c:	646f6374 	strbtvs	r6, [pc], #-884	; 114 <_back_addr-0x14ffeec>
     110:	62752f65 	rsbsvs	r2, r5, #404	; 0x194
     114:	2f746f6f 	svccs	0x00746f6f
     118:	6d617865 	stclvs	8, cr7, [r1, #-404]!	; 0xfffffe6c
     11c:	73656c70 	cmnvc	r5, #112, 24	; 0x7000
     120:	7566652f 	strbvc	r6, [r6, #-1327]!	; 0x52f
     124:	705f6573 	subsvc	r6, pc, r3, ror r5	; <UNPREDICTABLE>
     128:	72676f72 	rsbvc	r6, r7, #456	; 0x1c8
     12c:	656d6d61 	strbvs	r6, [sp, #-3425]!	; 0xd61
     130:	6e692f72 	mcrvs	15, 3, r2, cr9, cr2, {3}
     134:	64756c63 	ldrbtvs	r6, [r5], #-3171	; 0xc63
     138:	76642f65 	strbtvc	r2, [r4], -r5, ror #30
     13c:	6f6f6272 	svcvs	0x006f6272
     140:	6e695f74 	mcrvs	15, 3, r5, cr9, cr4, {3}
     144:	73000063 	movwvc	r0, #99	; 0x63
     148:	6f747274 	svcvs	0x00747274
     14c:	632e6c75 	teqvs	lr, #29952	; 0x7500
     150:	00000000 	andeq	r0, r0, r0
     154:	70797463 	rsbsvc	r7, r9, r3, ror #8
     158:	00682e65 	rsbeq	r2, r8, r5, ror #28
     15c:	00000001 	andeq	r0, r0, r1
     160:	3c020500 	cfstr32cc	mvfx0, [r2], {-0}
     164:	03015001 	movweq	r5, #4097	; 0x1001
     168:	660100c4 	strvs	r0, [r1], -r4, asr #1
     16c:	01040200 	mrseq	r0, R12_usr
     170:	00660b03 	rsbeq	r0, r6, r3, lsl #22
     174:	4b010402 	blmi	41184 <_back_addr-0x14bee7c>
     178:	4c2f4f83 	stcmi	15, cr4, [pc], #-524	; ffffff74 <__bss_end__+0xfeaec434>
     17c:	01040200 	mrseq	r0, R12_usr
     180:	88064a06 	stmdahi	r6, {r1, r2, r9, fp, lr}
     184:	2d67659f 	cfstr64cs	mvdx6, [r7, #-636]!	; 0xfffffd84
     188:	040200db 	streq	r0, [r2], #-219	; 0xdb
     18c:	660b0301 	strvs	r0, [fp], -r1, lsl #6
     190:	70032cdd 	ldrdvc	r2, [r3], -sp
     194:	2d4b2f2e 	stclcs	15, cr2, [fp, #-184]	; 0xffffff48
     198:	4c854b30 	vstmiami	r5, {d4-d27}
     19c:	522f4b4c 	eorpl	r4, pc, #76, 22	; 0x13000
     1a0:	57039f68 	strpl	r9, [r3, -r8, ror #30]
     1a4:	2d848982 	stccs	9, cr8, [r4, #520]	; 0x208
     1a8:	08022d30 	stmdaeq	r2, {r4, r5, r8, sl, fp, sp}
     1ac:	24010100 	strcs	r0, [r1], #-256	; 0x100
     1b0:	02000000 	andeq	r0, r0, #0
     1b4:	00001e00 	andeq	r1, r0, r0, lsl #28
     1b8:	fb010200 	blx	409c2 <_back_addr-0x14bf63e>
     1bc:	01000d0e 	tsteq	r0, lr, lsl #26
     1c0:	00010101 	andeq	r0, r1, r1, lsl #2
     1c4:	00010000 	andeq	r0, r1, r0
     1c8:	63000100 	movwvs	r0, #256	; 0x100
     1cc:	65707974 	ldrbvs	r7, [r0, #-2420]!	; 0x974
     1d0:	0000632e 	andeq	r6, r0, lr, lsr #6
     1d4:	62000000 	andvs	r0, r0, #0
     1d8:	02000001 	andeq	r0, r0, #1
     1dc:	0000d500 	andeq	sp, r0, r0, lsl #10
     1e0:	fb010200 	blx	409ea <_back_addr-0x14bf616>
     1e4:	01000d0e 	tsteq	r0, lr, lsl #26
     1e8:	00010101 	andeq	r0, r1, r1, lsl #2
     1ec:	00010000 	andeq	r0, r1, r0
     1f0:	682f0100 	stmdavs	pc!, {r8}	; <UNPREDICTABLE>
     1f4:	2f656d6f 	svccs	0x00656d6f
     1f8:	69756f6c 	ldmdbvs	r5!, {r2, r3, r5, r6, r8, r9, sl, fp, sp, lr}^
     1fc:	61682f73 	smcvs	33523	; 0x82f3
     200:	6b2f6b6e 	blvs	bdafc0 <_back_addr-0x925040>
     204:	6e696c79 	mcrvs	12, 3, r6, cr9, cr9, {3}
     208:	6f6f622f 	svcvs	0x006f622f
     20c:	646f6374 	strbtvs	r6, [pc], #-884	; 214 <_back_addr-0x14ffdec>
     210:	62752f65 	rsbsvs	r2, r5, #404	; 0x194
     214:	2f746f6f 	svccs	0x00746f6f
     218:	6d617865 	stclvs	8, cr7, [r1, #-404]!	; 0xfffffe6c
     21c:	73656c70 	cmnvc	r5, #112, 24	; 0x7000
     220:	7566652f 	strbvc	r6, [r6, #-1327]!	; 0x52f
     224:	705f6573 	subsvc	r6, pc, r3, ror r5	; <UNPREDICTABLE>
     228:	72676f72 	rsbvc	r6, r7, #456	; 0x1c8
     22c:	656d6d61 	strbvs	r6, [sp, #-3425]!	; 0xd61
     230:	6e692f72 	mcrvs	15, 3, r2, cr9, cr2, {3}
     234:	64756c63 	ldrbtvs	r6, [r5], #-3171	; 0xc63
     238:	682f0065 	stmdavs	pc!, {r0, r2, r5, r6}	; <UNPREDICTABLE>
     23c:	2f656d6f 	svccs	0x00656d6f
     240:	69756f6c 	ldmdbvs	r5!, {r2, r3, r5, r6, r8, r9, sl, fp, sp, lr}^
     244:	61682f73 	smcvs	33523	; 0x82f3
     248:	6b2f6b6e 	blvs	bdb008 <_back_addr-0x924ff8>
     24c:	6e696c79 	mcrvs	12, 3, r6, cr9, cr9, {3}
     250:	6f6f622f 	svcvs	0x006f622f
     254:	646f6374 	strbtvs	r6, [pc], #-884	; 25c <_back_addr-0x14ffda4>
     258:	62752f65 	rsbsvs	r2, r5, #404	; 0x194
     25c:	2f746f6f 	svccs	0x00746f6f
     260:	6d617865 	stclvs	8, cr7, [r1, #-404]!	; 0xfffffe6c
     264:	73656c70 	cmnvc	r5, #112, 24	; 0x7000
     268:	7566652f 	strbvc	r6, [r6, #-1327]!	; 0x52f
     26c:	705f6573 	subsvc	r6, pc, r3, ror r5	; <UNPREDICTABLE>
     270:	72676f72 	rsbvc	r6, r7, #456	; 0x1c8
     274:	656d6d61 	strbvs	r6, [sp, #-3425]!	; 0xd61
     278:	6e692f72 	mcrvs	15, 3, r2, cr9, cr2, {3}
     27c:	64756c63 	ldrbtvs	r6, [r5], #-3171	; 0xc63
     280:	76642f65 	strbtvc	r2, [r4], -r5, ror #30
     284:	6f6f6272 	svcvs	0x006f6272
     288:	6e695f74 	mcrvs	15, 3, r5, cr9, cr4, {3}
     28c:	65000063 	strvs	r0, [r0, #-99]	; 0x63
     290:	65737566 	ldrbvs	r7, [r3, #-1382]!	; 0x566
     294:	6e69616d 	powvsez	f6, f1, #5.0
     298:	0000632e 	andeq	r6, r0, lr, lsr #6
     29c:	79730000 	ldmdbvc	r3!, {}^	; <UNPREDICTABLE>
     2a0:	66656473 			; <UNDEFINED> instruction: 0x66656473
     2a4:	00682e73 	rsbeq	r2, r8, r3, ror lr
     2a8:	75000001 	strvc	r0, [r0, #-1]
     2ac:	2e6c6974 	mcrcs	9, 3, r6, cr12, cr4, {3}
     2b0:	00020068 	andeq	r0, r2, r8, rrx
     2b4:	05000000 	streq	r0, [r0, #-0]
     2b8:	5002d002 	andpl	sp, r2, r2
     2bc:	01260301 	teqeq	r6, r1, lsl #6
     2c0:	68304d14 	ldmdavs	r0!, {r2, r4, r8, sl, fp, lr}
     2c4:	4e498316 	mcrmi	3, 2, r8, cr9, cr6, {0}
     2c8:	162e0903 	strtne	r0, [lr], -r3, lsl #18
     2cc:	004fd14b 	subeq	sp, pc, fp, asr #2
     2d0:	81020402 	tsthi	r2, r2, lsl #8
     2d4:	31322a86 	teqcc	r2, r6, lsl #21
     2d8:	032e0a03 	teqeq	lr, #12288	; 0x3000
     2dc:	0a034a76 	beq	d2cbc <_back_addr-0x142d344>
     2e0:	6967322e 	stmdbvs	r7!, {r1, r2, r3, r5, r9, ip, sp}^
     2e4:	6803306b 	stmdavs	r3, {r0, r1, r3, r5, r6, ip, sp}
     2e8:	4a18034a 	bmi	601018 <_back_addr-0xefefe8>
     2ec:	62036a69 	andvs	r6, r3, #430080	; 0x69000
     2f0:	661e0382 	ldrvs	r0, [lr], -r2, lsl #7
     2f4:	360330d7 			; <UNDEFINED> instruction: 0x360330d7
     2f8:	66520366 	ldrbvs	r0, [r2], -r6, ror #6
     2fc:	665f0346 	ldrbvs	r0, [pc], -r6, asr #6
     300:	f1662603 			; <UNDEFINED> instruction: 0xf1662603
     304:	0336832f 	teqeq	r6, #-1140850688	; 0xbc000000
     308:	31036652 	tstcc	r3, r2, asr r6
     30c:	322f699e 	eorcc	r6, pc, #2588672	; 0x278000
     310:	9d6b504c 	stclls	0, cr5, [fp, #-304]!	; 0xfffffed0
     314:	4c2f4b2f 	stcmi	11, cr4, [pc], #-188	; 260 <_back_addr-0x14ffda0>
     318:	2d4a4403 	cfstrdcs	mvd4, [sl, #-12]
     31c:	6600c503 	strvs	ip, [r0], -r3, lsl #10
     320:	68666b03 	stmdavs	r6!, {r0, r1, r8, r9, fp, sp, lr}^
     324:	032e0e03 	teqeq	lr, #3, 28	; 0x30
     328:	4b16821b 	blmi	5a0b9c <_back_addr-0xf5f464>
     32c:	2f4b3245 	svccs	0x004b3245
     330:	2f304b2f 	svccs	0x00304b2f
     334:	4c302c30 	ldcmi	12, cr2, [r0], #-192	; 0xffffff40
     338:	01000402 	tsteq	r0, r2, lsl #8
     33c:	00039101 	andeq	r9, r3, r1, lsl #2
     340:	26000200 	strcs	r0, [r0], -r0, lsl #4
     344:	02000001 	andeq	r0, r0, #1
     348:	0d0efb01 	vstreq	d15, [lr, #-4]
     34c:	01010100 	mrseq	r0, (UNDEF: 17)
     350:	00000001 	andeq	r0, r0, r1
     354:	01000001 	tsteq	r0, r1
     358:	6c636e69 	stclvs	14, cr6, [r3], #-420	; 0xfffffe5c
     35c:	2f656475 	svccs	0x00656475
     360:	62727664 	rsbsvs	r7, r2, #100, 12	; 0x6400000
     364:	5f746f6f 	svcpl	0x00746f6f
     368:	00636e69 	rsbeq	r6, r3, r9, ror #28
     36c:	6d6f682f 	stclvs	8, cr6, [pc, #-188]!	; 2b8 <_back_addr-0x14ffd48>
     370:	6f6c2f65 	svcvs	0x006c2f65
     374:	2f736975 	svccs	0x00736975
     378:	6b6e6168 	blvs	1b98920 <__bss_end__+0x684de0>
     37c:	6c796b2f 	ldclvs	11, cr6, [r9], #-188	; 0xffffff44
     380:	622f6e69 	eorvs	r6, pc, #1680	; 0x690
     384:	63746f6f 	cmnvs	r4, #444	; 0x1bc
     388:	2f65646f 	svccs	0x0065646f
     38c:	6f6f6275 	svcvs	0x006f6275
     390:	78652f74 	stmdavc	r5!, {r2, r4, r5, r6, r8, r9, sl, fp, sp}^
     394:	6c706d61 	ldclvs	13, cr6, [r0], #-388	; 0xfffffe7c
     398:	652f7365 	strvs	r7, [pc, #-869]!	; 3b <_back_addr-0x14fffc5>
     39c:	65737566 	ldrbvs	r7, [r3, #-1382]!	; 0x566
     3a0:	6f72705f 	svcvs	0x0072705f
     3a4:	6d617267 	sfmvs	f7, 2, [r1, #-412]!	; 0xfffffe64
     3a8:	2f72656d 	svccs	0x0072656d
     3ac:	2e2f2e2e 	cdpcs	14, 2, cr2, cr15, cr14, {1}
     3b0:	6e692f2e 	cdpvs	15, 6, cr2, cr9, cr14, {1}
     3b4:	64756c63 	ldrbtvs	r6, [r5], #-3171	; 0xc63
     3b8:	73612f65 	cmnvc	r1, #404	; 0x194
     3bc:	682f006d 	stmdavs	pc!, {r0, r2, r3, r5, r6}	; <UNPREDICTABLE>
     3c0:	2f656d6f 	svccs	0x00656d6f
     3c4:	69756f6c 	ldmdbvs	r5!, {r2, r3, r5, r6, r8, r9, sl, fp, sp, lr}^
     3c8:	61682f73 	smcvs	33523	; 0x82f3
     3cc:	6b2f6b6e 	blvs	bdb18c <_back_addr-0x924e74>
     3d0:	6e696c79 	mcrvs	12, 3, r6, cr9, cr9, {3}
     3d4:	6f6f622f 	svcvs	0x006f622f
     3d8:	646f6374 	strbtvs	r6, [pc], #-884	; 3e0 <_back_addr-0x14ffc20>
     3dc:	62752f65 	rsbsvs	r2, r5, #404	; 0x194
     3e0:	2f746f6f 	svccs	0x00746f6f
     3e4:	6d617865 	stclvs	8, cr7, [r1, #-404]!	; 0xfffffe6c
     3e8:	73656c70 	cmnvc	r5, #112, 24	; 0x7000
     3ec:	7566652f 	strbvc	r6, [r6, #-1327]!	; 0x52f
     3f0:	705f6573 	subsvc	r6, pc, r3, ror r5	; <UNPREDICTABLE>
     3f4:	72676f72 	rsbvc	r6, r7, #456	; 0x1c8
     3f8:	656d6d61 	strbvs	r6, [sp, #-3425]!	; 0xd61
     3fc:	6e692f72 	mcrvs	15, 3, r2, cr9, cr2, {3}
     400:	64756c63 	ldrbtvs	r6, [r5], #-3171	; 0xc63
     404:	76642f65 	strbtvc	r2, [r4], -r5, ror #30
     408:	6f6f6272 	svcvs	0x006f6272
     40c:	6e695f74 	mcrvs	15, 3, r5, cr9, cr4, {3}
     410:	65000063 	strvs	r0, [r0, #-99]	; 0x63
     414:	65737566 	ldrbvs	r7, [r3, #-1382]!	; 0x566
     418:	0000632e 	andeq	r6, r0, lr, lsr #6
     41c:	6f690000 	svcvs	0x00690000
     420:	0100682e 	tsteq	r0, lr, lsr #16
     424:	746f0000 	strbtvc	r0, [pc], #-0	; 42c <_back_addr-0x14ffbd4>
     428:	65725f70 	ldrbvs	r5, [r2, #-3952]!	; 0xf70
     42c:	00682e67 	rsbeq	r2, r8, r7, ror #28
     430:	74000000 	strvc	r0, [r0], #-0
     434:	73657079 	cmnvc	r5, #121	; 0x79
     438:	0200682e 	andeq	r6, r0, #3014656	; 0x2e0000
     43c:	79740000 	ldmdbvc	r4!, {}^	; <UNPREDICTABLE>
     440:	2e736570 	mrccs	5, 3, r6, cr3, cr0, {3}
     444:	00000068 	andeq	r0, r0, r8, rrx
     448:	79746300 	ldmdbvc	r4!, {r8, r9, sp, lr}^
     44c:	682e6570 	stmdavs	lr!, {r4, r5, r6, r8, sl, sp, lr}
     450:	00000300 	andeq	r0, r0, r0, lsl #6
     454:	656d6974 	strbvs	r6, [sp, #-2420]!	; 0x974
     458:	00682e72 	rsbeq	r2, r8, r2, ror lr
     45c:	63000001 	movwvs	r0, #1
     460:	616d6d6f 	cmnvs	sp, pc, ror #26
     464:	682e646e 	stmdavs	lr!, {r1, r2, r3, r5, r6, sl, sp, lr}
     468:	00000000 	andeq	r0, r0, r0
     46c:	02050000 	andeq	r0, r5, #0
     470:	01500584 	cmpeq	r0, r4, lsl #11
     474:	0100f403 	tsteq	r0, r3, lsl #8
     478:	66090366 	strvs	r0, [r9], -r6, ror #6
     47c:	4c2f4b4b 	stcmi	11, cr4, [pc], #-300	; 358 <_back_addr-0x14ffca8>
     480:	032e1203 	teqeq	lr, #805306368	; 0x30000000
     484:	dd2f2e6e 	stcle	14, cr2, [pc, #-440]!	; 2d4 <_back_addr-0x14ffd2c>
     488:	034a1103 	movteq	r1, #41219	; 0xa103
     48c:	0a034a6f 	beq	d2e50 <_back_addr-0x142d1b0>
     490:	2e7603f2 	mrccs	3, 3, r0, cr6, cr2, {7}
     494:	032e0d03 	teqeq	lr, #3, 26	; 0xc0
     498:	2f302e73 	svccs	0x00302e73
     49c:	304b3049 	subcc	r3, fp, r9, asr #32
     4a0:	2f4c4c2c 	svccs	0x004c4c2c
     4a4:	74033165 	strvc	r3, [r3], #-357	; 0x165
     4a8:	2e0c034a 	cdpcs	3, 0, cr0, cr12, cr10, {2}
     4ac:	032e7403 	teqeq	lr, #50331648	; 0x3000000
     4b0:	73032e0d 	movwvc	r2, #15885	; 0x3e0d
     4b4:	6611032e 	ldrvs	r0, [r1], -lr, lsr #6
     4b8:	02003e08 	andeq	r3, r0, #8, 28	; 0x80
     4bc:	00650104 	rsbeq	r0, r5, r4, lsl #2
     4c0:	49020402 	stmdbmi	r2, {r1, sl}
     4c4:	2c30814b 	ldfcsd	f0, [r0], #-300	; 0xfffffed4
     4c8:	682c304e 	stmdavs	ip!, {r1, r2, r3, r6, ip, sp}
     4cc:	312b892f 	teqcc	fp, pc, lsr #18
     4d0:	034d2d2c 	movteq	r2, #56620	; 0xdd2c
     4d4:	2b032e59 	blcs	cbe40 <_back_addr-0x14341c0>
     4d8:	76032f4a 	strvc	r2, [r3], -sl, asr #30
     4dc:	0332884a 	teqeq	r2, #4849664	; 0x4a0000
     4e0:	034a02d0 	movteq	r0, #41680	; 0xa2d0
     4e4:	21082e0c 	tstcs	r8, ip, lsl #28
     4e8:	03040200 	movweq	r0, #16896	; 0x4200
     4ec:	040200a3 	streq	r0, [r2], #-163	; 0xa3
     4f0:	bb509c03 	bllt	1427504 <_back_addr-0xd8afc>
     4f4:	03040200 	movweq	r0, #16896	; 0x4200
     4f8:	040200a1 	streq	r0, [r2], #-161	; 0xa1
     4fc:	85509c03 	ldrbhi	r9, [r0, #-3075]	; 0xc03
     500:	2f302f16 	svccs	0x00302f16
     504:	02044b30 	andeq	r4, r4, #48, 22	; 0xc000
     508:	2e7ca003 	cdpcs	0, 7, cr10, cr12, cr3, {0}
     50c:	e0030104 	and	r0, r3, r4, lsl #2
     510:	034b2e03 	movteq	r2, #48643	; 0xbe03
     514:	334a7ecc 	movtcc	r7, #44748	; 0xaecc
     518:	2c302f4b 	ldccs	15, cr2, [r0], #-300	; 0xfffffed4
     51c:	ab034d30 	blge	d39e4 <_back_addr-0x142c61c>
     520:	04164a01 	ldreq	r4, [r6], #-2561	; 0xa01
     524:	7cb30302 	ldcvc	3, cr0, [r3], #8
     528:	0301042e 	movweq	r0, #5166	; 0x142e
     52c:	044a03cc 	strbeq	r0, [sl], #-972	; 0x3cc
     530:	7c990302 	ldcvc	3, cr0, [r9], {2}
     534:	0301042e 	movweq	r0, #5166	; 0x142e
     538:	042e03ef 	strteq	r0, [lr], #-1007	; 0x3ef
     53c:	7cac0302 	stcvc	3, cr0, [ip], #8
     540:	04020066 	streq	r0, [r2], #-102	; 0x66
     544:	2e650301 	cdpcs	3, 6, cr0, cr5, cr1, {0}
     548:	02000104 	andeq	r0, r0, #4, 2
     54c:	f1030104 			; <UNDEFINED> instruction: 0xf1030104
     550:	304c6603 	subcc	r6, ip, r3, lsl #12
     554:	042e6f03 	strteq	r6, [lr], #-3843	; 0xf03
     558:	7cb70302 	ldcvc	3, cr0, [r7], #8
     55c:	0301042e 	movweq	r0, #5166	; 0x142e
     560:	352e03da 	strcc	r0, [lr, #-986]!	; 0x3da
     564:	0302044d 	movweq	r0, #9293	; 0x244d
     568:	04017c81 	streq	r7, [r1], #-3201	; 0xc81
     56c:	03ff0301 	mvnseq	r0, #67108864	; 0x4000000
     570:	0302044a 	movweq	r0, #9290	; 0x244a
     574:	042e7c81 	strteq	r7, [lr], #-3201	; 0xc81
     578:	048b0301 	streq	r0, [fp], #769	; 0x301
     57c:	0302042e 	movweq	r0, #9262	; 0x242e
     580:	042e7c90 	strteq	r7, [lr], #-3216	; 0xc90
     584:	03f00301 	mvnseq	r0, #67108864	; 0x4000000
     588:	dd033566 	cfstr32le	mvfx3, [r3, #-408]	; 0xfffffe68
     58c:	032e4a7c 	teqeq	lr, #124, 20	; 0x7c000
     590:	73034a0d 	movwvc	r4, #14861	; 0x3a0d
     594:	2e0d032e 	cdpcs	3, 0, cr0, cr13, cr14, {1}
     598:	04020030 	streq	r0, [r2], #-48	; 0x30
     59c:	069e0602 	ldreq	r0, [lr], r2, lsl #12
     5a0:	2f2f2d89 	svccs	0x002f2d89
     5a4:	2e76034c 	cdpcs	3, 7, cr0, cr6, cr12, {2}
     5a8:	032e0a03 	teqeq	lr, #12288	; 0x3000
     5ac:	1a032e76 	bne	cbf8c <_back_addr-0x1434074>
     5b0:	32352a66 	eorscc	r2, r5, #417792	; 0x66000
     5b4:	89306984 	ldmdbhi	r0!, {r2, r7, r8, fp, sp, lr}
     5b8:	2e0b039c 	mcrcs	3, 0, r0, cr11, cr12, {4}
     5bc:	c1032f2c 	tstgt	r3, ip, lsr #30
     5c0:	2d134a01 	vldrcs	s8, [r3, #-4]
     5c4:	8209032f 	andhi	r0, r9, #-1140850688	; 0xbc000000
     5c8:	4a750387 	bmi	1d413ec <__bss_end__+0x82d8ac>
     5cc:	03820b03 	orreq	r0, r2, #3072	; 0xc00
     5d0:	a18a4a78 	orrge	r4, sl, r8, ror sl
     5d4:	c303842f 	movwgt	r8, #13359	; 0x342f
     5d8:	4b32667e 	blmi	c99fd8 <_back_addr-0x866028>
     5dc:	324c304b 	subcc	r3, ip, #75	; 0x4b
     5e0:	4c304b4b 	ldcmi	11, cr4, [r0], #-300	; 0xfffffed4
     5e4:	304b4b32 	subcc	r4, fp, r2, lsr fp
     5e8:	4b4b324d 	blmi	12ccf24 <_back_addr-0x2330dc>
     5ec:	4b324d30 	blmi	c93ab4 <_back_addr-0x86c54c>
     5f0:	8e03304b 	cdphi	0, 0, cr3, cr3, cr11, {2}
     5f4:	312f4a01 	teqcc	pc, r1, lsl #20
     5f8:	302f2f30 	eorcc	r2, pc, r0, lsr pc	; <UNPREDICTABLE>
     5fc:	7eec032d 	cdpvc	3, 14, cr0, cr12, cr13, {1}
     600:	4b4b322e 	blmi	12ccec0 <_back_addr-0x233140>
     604:	4b324d30 	blmi	c93acc <_back_addr-0x86c534>
     608:	324d304b 	subcc	r3, sp, #75	; 0x4b
     60c:	4c304b4b 	ldcmi	11, cr4, [r0], #-300	; 0xfffffed4
     610:	304b4b32 	subcc	r4, fp, r2, lsr fp
     614:	134a1103 	movtne	r1, #41219	; 0xa103
     618:	342f2e49 	strtcc	r2, [pc], #-3657	; 620 <_back_addr-0x14ff9e0>
     61c:	4c51514d 	ldfmie	f5, [r1], {77}	; 0x4d
     620:	672e6903 	strvs	r6, [lr, -r3, lsl #18]!
     624:	034a1203 	movteq	r1, #41475	; 0xa203
     628:	034c6679 	movteq	r6, #50809	; 0xc679
     62c:	4913660c 	ldmdbmi	r3, {r2, r3, r9, sl, sp, lr}
     630:	4d342f2e 	ldcmi	15, cr2, [r4, #-184]!	; 0xffffff48
     634:	034c5151 	movteq	r5, #49489	; 0xc151
     638:	03672e69 	cmneq	r7, #1680	; 0x690
     63c:	79034a12 	stmdbvc	r3, {r1, r4, r9, fp, lr}
     640:	31034c66 	tstcc	r3, r6, ror #24
     644:	83bb2f66 			; <UNDEFINED> instruction: 0x83bb2f66
     648:	2f848383 	svccs	0x00848383
     64c:	2f2f2f2f 	svccs	0x002f2f2f
     650:	4b4b4b2f 	blmi	12d3314 <_back_addr-0x22ccec>
     654:	00e7034d 	rsceq	r0, r7, sp, asr #6
     658:	302c174a 	eorcc	r1, ip, sl, asr #14
     65c:	e1030204 	tst	r3, r4, lsl #4
     660:	01044a7b 	tsteq	r4, fp, ror sl
     664:	4a049a03 	bmi	126e78 <_back_addr-0x13d9188>
     668:	e9030204 	stmdb	r3, {r2, r9}
     66c:	0104827b 	tsteq	r4, fp, ror r2
     670:	4a049e03 	bmi	127e84 <_back_addr-0x13d817c>
     674:	0002042c 	andeq	r0, r2, ip, lsr #8
     678:	03030402 	movweq	r0, #13314	; 0x3402
     67c:	a0667be1 	rsbge	r7, r6, r1, ror #23
     680:	01042b31 	tsteq	r4, r1, lsr fp
     684:	2e049f03 	cdpcs	15, 0, cr9, cr4, cr3, {0}
     688:	1a854f48 	bne	fe1543b0 <__bss_end__+0xfcc40870>
     68c:	78032f2d 	stmdavc	r3, {r0, r2, r3, r5, r8, r9, sl, fp, sp}
     690:	0402002e 	streq	r0, [r2], #-46	; 0x2e
     694:	4a0a0303 	bmi	2812a8 <_back_addr-0x127ed58>
     698:	03040200 	movweq	r0, #16896	; 0x4200
     69c:	0402002f 	streq	r0, [r2], #-47	; 0x2f
     6a0:	02004b03 	andeq	r4, r0, #3072	; 0xc00
     6a4:	042f0304 	strteq	r0, [pc], #-772	; 6ac <_back_addr-0x14ff954>
     6a8:	04020002 	streq	r0, [r2], #-2
     6ac:	7bd10303 	blvc	ff4412c0 <__bss_end__+0xfdf2d780>
     6b0:	00010466 	andeq	r0, r1, r6, ror #8
     6b4:	03030402 	movweq	r0, #13314	; 0x3402
     6b8:	002e04af 	eoreq	r0, lr, pc, lsr #9
     6bc:	45030402 	strmi	r0, [r3, #-1026]	; 0x402
     6c0:	7d870352 	stcvc	3, cr0, [r7, #328]	; 0x148
     6c4:	80893082 	addhi	r3, r9, r2, lsl #1
     6c8:	642e0b03 	strtvs	r0, [lr], #-2819	; 0xb03
     6cc:	0004024b 	andeq	r0, r4, fp, asr #4
     6d0:	04c40101 	strbeq	r0, [r4], #257	; 0x101
     6d4:	00020000 	andeq	r0, r2, r0
     6d8:	00000172 	andeq	r0, r0, r2, ror r1
     6dc:	0efb0102 	cdpeq	1, 15, cr0, cr11, cr2, {0}
     6e0:	0101000d 	tsteq	r1, sp
     6e4:	00000101 	andeq	r0, r0, r1, lsl #2
     6e8:	00000100 	andeq	r0, r0, r0, lsl #2
     6ec:	636e6901 	cmnvs	lr, #16384	; 0x4000
     6f0:	6564756c 	strbvs	r7, [r4, #-1388]!	; 0x56c
     6f4:	7276642f 	rsbsvc	r6, r6, #788529152	; 0x2f000000
     6f8:	746f6f62 	strbtvc	r6, [pc], #-3938	; 700 <_back_addr-0x14ff900>
     6fc:	636e695f 	cmnvs	lr, #1556480	; 0x17c000
     700:	6f682f00 	svcvs	0x00682f00
     704:	6c2f656d 	cfstr32vs	mvfx6, [pc], #-436	; 558 <_back_addr-0x14ffaa8>
     708:	7369756f 	cmnvc	r9, #465567744	; 0x1bc00000
     70c:	6e61682f 	cdpvs	8, 6, cr6, cr1, cr15, {1}
     710:	796b2f6b 	stmdbvc	fp!, {r0, r1, r3, r5, r6, r8, r9, sl, fp, sp}^
     714:	2f6e696c 	svccs	0x006e696c
     718:	746f6f62 	strbtvc	r6, [pc], #-3938	; 720 <_back_addr-0x14ff8e0>
     71c:	65646f63 	strbvs	r6, [r4, #-3939]!	; 0xf63
     720:	6f62752f 	svcvs	0x0062752f
     724:	652f746f 	strvs	r7, [pc, #-1135]!	; 2bd <_back_addr-0x14ffd43>
     728:	706d6178 	rsbvc	r6, sp, r8, ror r1
     72c:	2f73656c 	svccs	0x0073656c
     730:	73756665 	cmnvc	r5, #105906176	; 0x6500000
     734:	72705f65 	rsbsvc	r5, r0, #404	; 0x194
     738:	6172676f 	cmnvs	r2, pc, ror #14
     73c:	72656d6d 	rsbvc	r6, r5, #6976	; 0x1b40
     740:	2f2e2e2f 	svccs	0x002e2e2f
     744:	692f2e2e 	stmdbvs	pc!, {r1, r2, r3, r5, r9, sl, fp, sp}	; <UNPREDICTABLE>
     748:	756c636e 	strbvc	r6, [ip, #-878]!	; 0x36e
     74c:	612f6564 	teqvs	pc, r4, ror #10
     750:	2f006d73 	svccs	0x00006d73
     754:	656d6f68 	strbvs	r6, [sp, #-3944]!	; 0xf68
     758:	756f6c2f 	strbvc	r6, [pc, #-3119]!	; fffffb31 <__bss_end__+0xfeaebff1>
     75c:	682f7369 	stmdavs	pc!, {r0, r3, r5, r6, r8, r9, ip, sp, lr}	; <UNPREDICTABLE>
     760:	2f6b6e61 	svccs	0x006b6e61
     764:	696c796b 	stmdbvs	ip!, {r0, r1, r3, r5, r6, r8, fp, ip, sp, lr}^
     768:	6f622f6e 	svcvs	0x00622f6e
     76c:	6f63746f 	svcvs	0x0063746f
     770:	752f6564 	strvc	r6, [pc, #-1380]!	; 214 <_back_addr-0x14ffdec>
     774:	746f6f62 	strbtvc	r6, [pc], #-3938	; 77c <_back_addr-0x14ff884>
     778:	6178652f 	cmnvs	r8, pc, lsr #10
     77c:	656c706d 	strbvs	r7, [ip, #-109]!	; 0x6d
     780:	66652f73 	uqsub16vs	r2, r5, r3
     784:	5f657375 	svcpl	0x00657375
     788:	676f7270 			; <UNDEFINED> instruction: 0x676f7270
     78c:	6d6d6172 	stfvse	f6, [sp, #-456]!	; 0xfffffe38
     790:	2e2f7265 	cdpcs	2, 2, cr7, cr15, cr5, {3}
     794:	2e2e2f2e 	cdpcs	15, 2, cr2, cr14, cr14, {1}
     798:	636e692f 	cmnvs	lr, #770048	; 0xbc000
     79c:	6564756c 	strbvs	r7, [r4, #-1388]!	; 0x56c
     7a0:	6e696c2f 	cdpvs	12, 6, cr6, cr9, cr15, {1}
     7a4:	2f007875 	svccs	0x00007875
     7a8:	656d6f68 	strbvs	r6, [sp, #-3944]!	; 0xf68
     7ac:	756f6c2f 	strbvc	r6, [pc, #-3119]!	; fffffb85 <__bss_end__+0xfeaec045>
     7b0:	682f7369 	stmdavs	pc!, {r0, r3, r5, r6, r8, r9, ip, sp, lr}	; <UNPREDICTABLE>
     7b4:	2f6b6e61 	svccs	0x006b6e61
     7b8:	696c796b 	stmdbvs	ip!, {r0, r1, r3, r5, r6, r8, fp, ip, sp, lr}^
     7bc:	6f622f6e 	svcvs	0x00622f6e
     7c0:	6f63746f 	svcvs	0x0063746f
     7c4:	752f6564 	strvc	r6, [pc, #-1380]!	; 268 <_back_addr-0x14ffd98>
     7c8:	746f6f62 	strbtvc	r6, [pc], #-3938	; 7d0 <_back_addr-0x14ff830>
     7cc:	6178652f 	cmnvs	r8, pc, lsr #10
     7d0:	656c706d 	strbvs	r7, [ip, #-109]!	; 0x6d
     7d4:	66652f73 	uqsub16vs	r2, r5, r3
     7d8:	5f657375 	svcpl	0x00657375
     7dc:	676f7270 			; <UNDEFINED> instruction: 0x676f7270
     7e0:	6d6d6172 	stfvse	f6, [sp, #-456]!	; 0xfffffe38
     7e4:	2e2f7265 	cdpcs	2, 2, cr7, cr15, cr5, {3}
     7e8:	2e2e2f2e 	cdpcs	15, 2, cr2, cr14, cr14, {1}
     7ec:	636e692f 	cmnvs	lr, #770048	; 0xbc000
     7f0:	6564756c 	strbvs	r7, [r4, #-1388]!	; 0x56c
     7f4:	636d0000 	cmnvs	sp, #0
     7f8:	00632e70 	rsbeq	r2, r3, r0, ror lr
     7fc:	69000000 	stmdbvs	r0, {}	; <UNPREDICTABLE>
     800:	00682e6f 	rsbeq	r2, r8, pc, ror #28
     804:	70000001 	andvc	r0, r0, r1
     808:	7869736f 	stmdavc	r9!, {r0, r1, r2, r3, r5, r6, r8, r9, ip, sp, lr}^
     80c:	7079745f 	rsbsvc	r7, r9, pc, asr r4
     810:	682e7365 	stmdavs	lr!, {r0, r2, r5, r6, r8, r9, ip, sp, lr}
     814:	00000200 	andeq	r0, r0, r0, lsl #4
     818:	65707974 	ldrbvs	r7, [r0, #-2420]!	; 0x974
     81c:	00682e73 	rsbeq	r2, r8, r3, ror lr
     820:	6d000003 	stcvs	0, cr0, [r0, #-12]
     824:	682e7063 	stmdavs	lr!, {r0, r1, r5, r6, ip, sp, lr}
     828:	00000000 	andeq	r0, r0, r0
     82c:	6d6d6f63 	stclvs	15, cr6, [sp, #-396]!	; 0xfffffe74
     830:	682e6e6f 	stmdavs	lr!, {r0, r1, r2, r3, r5, r6, r9, sl, fp, sp, lr}
     834:	00000400 	andeq	r0, r0, r0, lsl #8
     838:	2e74656e 	cdpcs	5, 7, cr6, cr4, cr14, {3}
     83c:	00040068 	andeq	r0, r4, r8, rrx
     840:	72747300 	rsbsvc	r7, r4, #0, 6
     844:	2e676e69 	cdpcs	14, 6, cr6, cr7, cr9, {3}
     848:	00030068 	andeq	r0, r3, r8, rrx
     84c:	05000000 	streq	r0, [r0, #-0]
     850:	500e1002 	andpl	r1, lr, r2
     854:	05ae0301 	streq	r0, [lr, #769]!	; 0x301
     858:	2e0b0301 	cdpcs	3, 0, cr0, cr11, cr1, {0}
     85c:	64305a08 	ldrtvs	r5, [r0], #-2568	; 0xa08
     860:	03834e30 	orreq	r4, r3, #48, 28	; 0x300
     864:	73032e0d 	movwvc	r2, #15885	; 0x3e0d
     868:	4a0d032e 	bmi	341528 <_back_addr-0x11bead8>
     86c:	042e0f03 	strteq	r0, [lr], #-3843	; 0xf03
     870:	7b870302 	blvc	fe1c1480 <__bss_end__+0xfccad940>
     874:	66650301 	strbtvs	r0, [r5], -r1, lsl #6
     878:	032e1b03 	teqeq	lr, #3072	; 0xc00
     87c:	01044a65 	tsteq	r4, r5, ror #20
     880:	2e059903 	cdpcs	9, 0, cr9, cr5, cr3, {0}
     884:	02040200 	andeq	r0, r4, #0, 4
     888:	032f5249 	teqeq	pc, #-1879048188	; 0x90000004
     88c:	192e7ea5 	stmdbne	lr!, {r0, r2, r5, r7, r9, sl, fp, ip, sp, lr}
     890:	044a7903 	strbeq	r7, [sl], #-2307	; 0x903
     894:	7cd50302 	ldclvc	3, cr0, [r5], {2}
     898:	0301042e 	movweq	r0, #5166	; 0x142e
     89c:	046603c0 	strbteq	r0, [r6], #-960	; 0x3c0
     8a0:	7cc00302 	stclvc	3, cr0, [r0], {2}
     8a4:	0301042e 	movweq	r0, #5166	; 0x142e
     8a8:	046603c2 	strbteq	r0, [r6], #-962	; 0x3c2
     8ac:	7cbe0302 	ldcvc	3, cr0, [lr], #8
     8b0:	0301042e 	movweq	r0, #5166	; 0x142e
     8b4:	042e03c4 	strteq	r0, [lr], #-964	; 0x3c4
     8b8:	7cbc0302 	ldcvc	3, cr0, [ip], #8
     8bc:	0301042e 	movweq	r0, #5166	; 0x142e
     8c0:	039e03c4 	orrseq	r0, lr, #196, 6	; 0x10000003
     8c4:	2f2e00cf 	svccs	0x002e00cf
     8c8:	ec030204 	sfm	f0, 4, [r3], {4}
     8cc:	01042e7b 	tsteq	r4, fp, ror lr
     8d0:	4a049803 	bmi	1268e4 <_back_addr-0x13d971c>
     8d4:	cd030204 	sfmgt	f0, 4, [r3, #-16]
     8d8:	01042e7b 	tsteq	r4, fp, ror lr
     8dc:	2e04b503 	cfsh32cs	mvfx11, mvfx4, #3
     8e0:	4a0e03a0 	bmi	381768 <_back_addr-0x117e898>
     8e4:	0302044b 	movweq	r0, #9291	; 0x244b
     8e8:	042e7bba 	strteq	r7, [lr], #-3002	; 0xbba
     8ec:	04b50301 	ldrteq	r0, [r5], #769	; 0x301
     8f0:	03020466 	movweq	r0, #9318	; 0x2466
     8f4:	044a7bcb 	strbeq	r7, [sl], #-3019	; 0xbcb
     8f8:	04d30301 	ldrbeq	r0, [r3], #769	; 0x301
     8fc:	042d2f66 	strteq	r2, [sp], #-3942	; 0xf66
     900:	7bc80302 	blvc	ff201510 <__bss_end__+0xfdced9d0>
     904:	d665032e 	strbtle	r0, [r5], -lr, lsr #6
     908:	d8030104 	stmdale	r3, {r2, r8}
     90c:	02042e04 	andeq	r2, r4, #4, 28	; 0x40
     910:	827bc303 	rsbshi	ip, fp, #201326592	; 0xc000000
     914:	a8030104 	stmdage	r3, {r2, r8}
     918:	02046604 	andeq	r6, r4, #4, 12	; 0x400000
     91c:	2e7bd803 	cdpcs	8, 7, cr13, cr11, cr3, {0}
     920:	b3030104 	movwlt	r0, #12548	; 0x3104
     924:	af034a03 	svcge	0x00034a03
     928:	4d1a4a7c 	vldrmi	s8, [sl, #-496]	; 0xfffffe10
     92c:	73030204 	movwvc	r0, #12804	; 0x3204
     930:	0301044a 	movweq	r0, #5194	; 0x144a
     934:	04664a0d 	strbteq	r4, [r6], #-2573	; 0xa0d
     938:	04020002 	streq	r0, [r2], #-2
     93c:	4a730303 	bmi	1cc1550 <__bss_end__+0x7ada10>
     940:	0301044d 	movweq	r0, #5197	; 0x144d
     944:	2d2f660d 	stccs	6, cr6, [pc, #-52]!	; 918 <_back_addr-0x14ff6e8>
     948:	70030204 	andvc	r0, r3, r4, lsl #4
     94c:	1803852e 	stmdane	r3, {r1, r2, r3, r5, r8, sl, pc}
     950:	6203692e 	andvs	r6, r3, #753664	; 0xb8000
     954:	1803692e 	stmdane	r3, {r1, r2, r3, r5, r8, fp, sp, lr}
     958:	6203852e 	andvs	r8, r3, #192937984	; 0xb800000
     95c:	1803694a 	stmdane	r3, {r1, r3, r6, r8, fp, sp, lr}
     960:	6203852e 	andvs	r8, r3, #192937984	; 0xb800000
     964:	1803694a 	stmdane	r3, {r1, r3, r6, r8, fp, sp, lr}
     968:	0447852e 	strbeq	r8, [r7], #-1326	; 0x52e
     96c:	02042901 	andeq	r2, r4, #16384	; 0x4000
     970:	042b3133 	strteq	r3, [fp], #-307	; 0x133
     974:	02042a01 	andeq	r2, r4, #4096	; 0x1000
     978:	042b3132 	strteq	r3, [fp], #-306	; 0x132
     97c:	02042b01 	andeq	r2, r4, #1024	; 0x400
     980:	042b3131 	strteq	r3, [fp], #-305	; 0x131
     984:	02042c01 	andeq	r2, r4, #256	; 0x100
     988:	2f010430 	svccs	0x00010430
     98c:	04300204 	ldrteq	r0, [r0], #-516	; 0x204
     990:	02042c01 	andeq	r2, r4, #256	; 0x100
     994:	319e6603 	orrscc	r6, lr, r3, lsl #12
     998:	4a1b032b 	bmi	6c164c <_back_addr-0xe3e9b4>
     99c:	01042b69 	tsteq	r4, r9, ror #22
     9a0:	6702042d 	strvs	r0, [r2, -sp, lsr #8]
     9a4:	2ba12b69 	blcs	fe84b750 <__bss_end__+0xfd337c10>
     9a8:	2ba12ba1 	blcs	fe84b834 <__bss_end__+0xfd337cf4>
     9ac:	694a6503 	stmdbvs	sl, {r0, r1, r8, sl, sp, lr}^
     9b0:	4a1b032b 	bmi	6c1664 <_back_addr-0xe3e99c>
     9b4:	65032b69 	strvs	r2, [r3, #-2921]	; 0xb69
     9b8:	032b694a 	teqeq	fp, #1212416	; 0x128000
     9bc:	2b694a1b 	blcs	1a53230 <__bss_end__+0x53f6f0>
     9c0:	694a6503 	stmdbvs	sl, {r0, r1, r8, sl, sp, lr}^
     9c4:	4a1b032b 	bmi	6c1678 <_back_addr-0xe3e988>
     9c8:	65032b69 	strvs	r2, [r3, #-2921]	; 0xb69
     9cc:	042b694a 	strteq	r6, [fp], #-2378	; 0x94a
     9d0:	4a1d0301 	bmi	7415dc <_back_addr-0xdbea24>
     9d4:	4d2f852e 	cfstr32mi	mvfx8, [pc, #-184]!	; 924 <_back_addr-0x14ff6dc>
     9d8:	4b4b4b51 	blmi	12d3724 <_back_addr-0x22c8dc>
     9dc:	2c314c4b 	ldccs	12, cr4, [r1], #-300	; 0xfffffed4
     9e0:	032d302f 	teqeq	sp, #47	; 0x2f
     9e4:	03692e71 	cmneq	r9, #1808	; 0x710
     9e8:	034e667a 	movteq	r6, #59002	; 0xe67a
     9ec:	2e312e0f 	cdpcs	14, 3, cr2, cr1, cr15, {0}
     9f0:	514d2f85 	smlalbbpl	r2, sp, r5, pc	; <UNPREDICTABLE>
     9f4:	4b4b4b4b 	blmi	12d3728 <_back_addr-0x22c8d8>
     9f8:	2f2c314c 	svccs	0x002c314c
     9fc:	71032d30 	tstvc	r3, r0, lsr sp
     a00:	7a03692e 	bvc	daec0 <_back_addr-0x1425140>
     a04:	0f034e66 	svceq	0x00034e66
     a08:	852e312e 	strhi	r3, [lr, #-302]!	; 0x12e
     a0c:	4b524d2f 	blmi	1493ed0 <_back_addr-0x6c130>
     a10:	4c4b4b4b 	mcrrmi	11, 4, r4, fp, cr11
     a14:	302f2c31 	eorcc	r2, pc, r1, lsr ip	; <UNPREDICTABLE>
     a18:	2e71032d 	cdpcs	3, 7, cr0, cr1, cr13, {1}
     a1c:	82790369 	rsbshi	r0, r9, #-1543503871	; 0xa4000001
     a20:	2e0f034f 	cdpcs	3, 0, cr0, cr15, cr15, {2}
     a24:	2f862e32 	svccs	0x00862e32
     a28:	4a09034f 	bmi	24176c <_back_addr-0x12be894>
     a2c:	4b4b4b4b 	blmi	12d3760 <_back_addr-0x22c8a0>
     a30:	2f2c3150 	svccs	0x002c3150
     a34:	09032f2f 	stmdbeq	r3, {r0, r1, r2, r3, r5, r8, r9, sl, fp, sp}
     a38:	2e790366 	cdpcs	3, 7, cr0, cr9, cr6, {3}
     a3c:	4f9e6803 	svcmi	0x009e6803
     a40:	03f32f45 	mvnseq	r2, #276	; 0x114
     a44:	03f34a79 	mvnseq	r4, #495616	; 0x79000
     a48:	692e4a26 	stmdbvs	lr!, {r1, r2, r5, r9, fp, lr}
     a4c:	4a09032f 	bmi	241710 <_back_addr-0x12be8f0>
     a50:	6b2a6b2a 	blvs	a9b700 <_back_addr-0xa64900>
     a54:	6232632a 	eorsvs	r6, r2, #-1476395008	; 0xa8000000
     a58:	2d2e0903 	stccs	9, cr0, [lr, #-12]!
     a5c:	69174e2f 	ldmdbvs	r7, {r0, r1, r2, r3, r5, r9, sl, fp, lr}
     a60:	6e4a7803 	cdpvs	8, 4, cr7, cr10, cr3, {0}
     a64:	4b4f2f69 	blmi	13cc810 <_back_addr-0x1337f0>
     a68:	2c653049 	stclcs	0, cr3, [r5], #-292	; 0xfffffedc
     a6c:	2a2c4c32 	bcs	b13b3c <_back_addr-0x9ec4c4>
     a70:	032e0903 	teqeq	lr, #49152	; 0xc000
     a74:	bc032e09 	stclt	14, cr2, [r3], {9}
     a78:	c7034a03 	strgt	r4, [r3, -r3, lsl #20]
     a7c:	b903ba7c 	stmdblt	r3, {r2, r3, r4, r5, r6, r9, fp, ip, sp, pc}
     a80:	c7034a03 	strgt	r4, [r3, -r3, lsl #20]
     a84:	ba034a7c 	blt	d347c <_back_addr-0x142cb84>
     a88:	21082e03 	tstcs	r8, r3, lsl #28
     a8c:	7cba03f3 	ldcvc	3, cr0, [sl], #972	; 0x3cc
     a90:	2f2d2008 	svccs	0x002d2008
     a94:	2f312b4d 	svccs	0x00312b4d
     a98:	0d03312b 	stfeqs	f3, [r3, #-172]	; 0xffffff54
     a9c:	2e5a0366 	cdpcs	3, 5, cr0, cr10, cr6, {3}
     aa0:	32662603 	rsbcc	r2, r6, #3145728	; 0x300000
     aa4:	2fa46315 	svccs	0x00a46315
     aa8:	034c2c4f 	movteq	r2, #52303	; 0xcc4f
     aac:	4b4b2e09 	blmi	12cc2d8 <_back_addr-0x233d28>
     ab0:	334d4b4b 	movtcc	r4, #56139	; 0xdb4b
     ab4:	2d322f2a 	ldccs	15, cr2, [r2, #-168]!	; 0xffffff58
     ab8:	4b2e6d03 	blmi	b9becc <_back_addr-0x964134>
     abc:	30653049 	rsbcc	r3, r5, r9, asr #32
     ac0:	82100367 	andshi	r0, r0, #-1677721599	; 0x9c000001
     ac4:	0a038285 	beq	e14e0 <_back_addr-0x141eb20>
     ac8:	02042f2e 	andeq	r2, r4, #46, 30	; 0xb8
     acc:	2e7e8c03 	cdpcs	12, 7, cr8, cr14, cr3, {0}
     ad0:	85030104 	strhi	r0, [r3, #-260]	; 0x104
     ad4:	02044a02 	andeq	r4, r4, #8192	; 0x2000
     ad8:	2e7dfb03 	vaddcs.f64	d31, d13, d3
     adc:	85030104 	strhi	r0, [r3, #-260]	; 0x104
     ae0:	a1318202 	teqge	r1, r2, lsl #4
     ae4:	2f498486 	svccs	0x00498486
     ae8:	a22f4b49 	eorge	r4, pc, #74752	; 0x12400
     aec:	ea030204 	b	c1304 <_back_addr-0x143ecfc>
     af0:	0104827d 	tsteq	r4, sp, ror r2
     af4:	4a029603 	bmi	a6308 <_back_addr-0x1459cf8>
     af8:	ea030204 	b	c1310 <_back_addr-0x143ecf0>
     afc:	6503667d 	strvs	r6, [r3, #-1661]	; 0x67d
     b00:	0301042e 	movweq	r0, #5166	; 0x142e
     b04:	042e02ba 	strteq	r0, [lr], #-698	; 0x2ba
     b08:	7de10302 	stclvc	3, cr0, [r1, #8]!
     b0c:	2e65032e 	cdpcs	3, 6, cr0, cr5, cr14, {1}
     b10:	bb030104 	bllt	c0f28 <_back_addr-0x143f0d8>
     b14:	4e852e02 	cdpmi	14, 8, cr2, cr5, cr2, {0}
     b18:	be030204 	cdplt	2, 0, cr0, cr3, cr4, {0}
     b1c:	01044a7d 	tsteq	r4, sp, ror sl
     b20:	2e02bb03 	vmlacs.f64	d11, d2, d3
     b24:	4b4a0a03 	blmi	1283338 <_back_addr-0x27ccc8>
     b28:	4b67672d 	blmi	19da7e4 <__bss_end__+0x4c6ca4>
     b2c:	75032f67 	strvc	r2, [r3, #-3943]	; 0xf67
     b30:	0a03674a 	beq	da860 <_back_addr-0x14257a0>
     b34:	4a57032e 	bmi	15c17f4 <__bss_end__+0xadcb4>
     b38:	15ba2b03 	ldrne	r2, [sl, #2819]!	; 0xb03
     b3c:	2e2b0367 	cdpcs	3, 2, cr0, cr11, cr7, {3}
     b40:	a52e5103 	strge	r5, [lr, #-259]!	; 0x103
     b44:	4c2c502f 	stcmi	0, cr5, [ip], #-188	; 0xffffff44
     b48:	4b2e0b03 	blmi	b8375c <_back_addr-0x97c8a4>
     b4c:	4b4b4b4b 	blmi	12d3880 <_back_addr-0x22c780>
     b50:	034d4b4b 	movteq	r4, #56139	; 0xdb4b
     b54:	76032e0b 	strvc	r2, [r3], -fp, lsl #28
     b58:	2e09032e 	cdpcs	3, 0, cr0, cr9, cr14, {1}
     b5c:	5b032d30 	blpl	cc024 <_back_addr-0x1433fdc>
     b60:	2e26032e 	cdpcs	3, 2, cr0, cr6, cr14, {1}
     b64:	4b2e6003 	blmi	b98b78 <_back_addr-0x967488>
     b68:	31653049 	cmncc	r5, r9, asr #32
     b6c:	30474d65 	subcc	r4, r7, r5, ror #26
     b70:	c2032f67 	andgt	r2, r3, #412	; 0x19c
     b74:	02008202 	andeq	r8, r0, #536870912	; 0x20000000
     b78:	006c0304 	rsbeq	r0, ip, r4, lsl #6
     b7c:	2d030402 	cfstrscs	mvf0, [r3, #-8]
     b80:	03040200 	movweq	r0, #16896	; 0x4200
     b84:	0402002d 	streq	r0, [r2], #-45	; 0x2d
     b88:	02003003 	andeq	r3, r0, #3
     b8c:	002f0304 	eoreq	r0, pc, r4, lsl #6
     b90:	2b030402 	blcs	c1ba0 <_back_addr-0x143e460>
     b94:	00020233 	andeq	r0, r2, r3, lsr r2
     b98:	02e20101 	rsceq	r0, r2, #1073741824	; 0x40000000
     b9c:	00020000 	andeq	r0, r2, r0
     ba0:	000000de 	ldrdeq	r0, [r0], -lr
     ba4:	0efb0102 	cdpeq	1, 15, cr0, cr11, cr2, {0}
     ba8:	0101000d 	tsteq	r1, sp
     bac:	00000101 	andeq	r0, r0, r1, lsl #2
     bb0:	00000100 	andeq	r0, r0, r0, lsl #2
     bb4:	6f682f01 	svcvs	0x00682f01
     bb8:	6c2f656d 	cfstr32vs	mvfx6, [pc], #-436	; a0c <_back_addr-0x14ff5f4>
     bbc:	7369756f 	cmnvc	r9, #465567744	; 0x1bc00000
     bc0:	6e61682f 	cdpvs	8, 6, cr6, cr1, cr15, {1}
     bc4:	796b2f6b 	stmdbvc	fp!, {r0, r1, r3, r5, r6, r8, r9, sl, fp, sp}^
     bc8:	2f6e696c 	svccs	0x006e696c
     bcc:	746f6f62 	strbtvc	r6, [pc], #-3938	; bd4 <_back_addr-0x14ff42c>
     bd0:	65646f63 	strbvs	r6, [r4, #-3939]!	; 0xf63
     bd4:	6f62752f 	svcvs	0x0062752f
     bd8:	652f746f 	strvs	r7, [pc, #-1135]!	; 771 <_back_addr-0x14ff88f>
     bdc:	706d6178 	rsbvc	r6, sp, r8, ror r1
     be0:	2f73656c 	svccs	0x0073656c
     be4:	73756665 	cmnvc	r5, #105906176	; 0x6500000
     be8:	72705f65 	rsbsvc	r5, r0, #404	; 0x194
     bec:	6172676f 	cmnvs	r2, pc, ror #14
     bf0:	72656d6d 	rsbvc	r6, r5, #6976	; 0x1b40
     bf4:	636e692f 	cmnvs	lr, #770048	; 0xbc000
     bf8:	6564756c 	strbvs	r7, [r4, #-1388]!	; 0x56c
     bfc:	6f682f00 	svcvs	0x00682f00
     c00:	6c2f656d 	cfstr32vs	mvfx6, [pc], #-436	; a54 <_back_addr-0x14ff5ac>
     c04:	7369756f 	cmnvc	r9, #465567744	; 0x1bc00000
     c08:	6e61682f 	cdpvs	8, 6, cr6, cr1, cr15, {1}
     c0c:	796b2f6b 	stmdbvc	fp!, {r0, r1, r3, r5, r6, r8, r9, sl, fp, sp}^
     c10:	2f6e696c 	svccs	0x006e696c
     c14:	746f6f62 	strbtvc	r6, [pc], #-3938	; c1c <_back_addr-0x14ff3e4>
     c18:	65646f63 	strbvs	r6, [r4, #-3939]!	; 0xf63
     c1c:	6f62752f 	svcvs	0x0062752f
     c20:	652f746f 	strvs	r7, [pc, #-1135]!	; 7b9 <_back_addr-0x14ff847>
     c24:	706d6178 	rsbvc	r6, sp, r8, ror r1
     c28:	2f73656c 	svccs	0x0073656c
     c2c:	73756665 	cmnvc	r5, #105906176	; 0x6500000
     c30:	72705f65 	rsbsvc	r5, r0, #404	; 0x194
     c34:	6172676f 	cmnvs	r2, pc, ror #14
     c38:	72656d6d 	rsbvc	r6, r5, #6976	; 0x1b40
     c3c:	636e692f 	cmnvs	lr, #770048	; 0xbc000
     c40:	6564756c 	strbvs	r7, [r4, #-1388]!	; 0x56c
     c44:	7276642f 	rsbsvc	r6, r6, #788529152	; 0x2f000000
     c48:	746f6f62 	strbtvc	r6, [pc], #-3938	; c50 <_back_addr-0x14ff3b0>
     c4c:	636e695f 	cmnvs	lr, #1556480	; 0x17c000
     c50:	626f0000 	rsbvs	r0, pc, #0
     c54:	65737566 	ldrbvs	r7, [r3, #-1382]!	; 0x566
     c58:	2e62694c 	cdpcs	9, 6, cr6, cr2, cr12, {2}
     c5c:	00000063 	andeq	r0, r0, r3, rrx
     c60:	73797300 	cmnvc	r9, #0, 6
     c64:	73666564 	cmnvc	r6, #100, 10	; 0x19000000
     c68:	0100682e 	tsteq	r0, lr, lsr #16
     c6c:	74750000 	ldrbtvc	r0, [r5], #-0
     c70:	682e6c69 	stmdavs	lr!, {r0, r3, r5, r6, sl, fp, sp, lr}
     c74:	00000200 	andeq	r0, r0, r0, lsl #4
     c78:	2e70636d 	cdpcs	3, 7, cr6, cr0, cr13, {3}
     c7c:	00000068 	andeq	r0, r0, r8, rrx
     c80:	05000000 	streq	r0, [r0, #-0]
     c84:	501a1402 	andspl	r1, sl, r2, lsl #8
     c88:	03f10301 	mvnseq	r0, #67108864	; 0x4000000
     c8c:	82180301 	andshi	r0, r8, #67108864	; 0x4000000
     c90:	034a1203 	movteq	r1, #41475	; 0xa203
     c94:	18034a56 	stmdane	r3, {r1, r2, r4, r6, r9, fp, lr}
     c98:	2e12032e 	cdpcs	3, 1, cr0, cr2, cr14, {1}
     c9c:	4b666f03 	blmi	199c8b0 <__bss_end__+0x488d70>
     ca0:	4b4b4b4b 	blmi	12d39d4 <_back_addr-0x22c62c>
     ca4:	4b4b4b4b 	blmi	12d39d8 <_back_addr-0x22c628>
     ca8:	4b4b4b4b 	blmi	12d39dc <_back_addr-0x22c624>
     cac:	324c4b4b 	subcc	r4, ip, #76800	; 0x12c00
     cb0:	9f4a1103 	svcls	0x004a1103
     cb4:	312b4e67 	teqcc	fp, r7, ror #28
     cb8:	2f2d2f2a 	svccs	0x002d2f2a
     cbc:	2d30492f 	ldccs	9, cr4, [r0, #-188]!	; 0xffffff44
     cc0:	4b2f2d2f 	blmi	bcc184 <_back_addr-0x933e7c>
     cc4:	03698333 	cmneq	r9, #-872415232	; 0xcc000000
     cc8:	2a328265 	bcs	ca1664 <_back_addr-0x85e99c>
     ccc:	2f2d2b32 	svccs	0x002d2b32
     cd0:	2f2f2d2f 	svccs	0x002f2d2f
     cd4:	322b2f2d 	eorcc	r2, fp, #45, 30	; 0xb4
     cd8:	2c2f302b 	stccs	0, cr3, [pc], #-172	; c34 <_back_addr-0x14ff3cc>
     cdc:	032f2f2f 	teqeq	pc, #47, 30	; 0xbc
     ce0:	0f038219 	svceq	0x00038219
     ce4:	6671032e 	ldrbtvs	r0, [r1], -lr, lsr #6
     ce8:	03832f86 	orreq	r2, r3, #536	; 0x218
     cec:	9f9f2e09 	svcls	0x009f2e09
     cf0:	4c303283 	lfmmi	f3, 4, [r0], #-524	; 0xfffffdf4
     cf4:	02040200 	andeq	r0, r4, #0, 4
     cf8:	1f037208 	svcne	0x00037208
     cfc:	032f674a 	teqeq	pc, #19398656	; 0x1280000
     d00:	03be2e66 			; <UNDEFINED> instruction: 0x03be2e66
     d04:	a4034a0f 	strge	r4, [r3], #-2575	; 0xa0f
     d08:	25034a7b 	strcs	r4, [r3, #-2683]	; 0xa7b
     d0c:	4a5b032e 	bmi	16c19cc <__bss_end__+0x1ade8c>
     d10:	032e2103 	teqeq	lr, #-1073741824	; 0xc0000000
     d14:	6c032e73 	stcvs	14, cr2, [r3], {115}	; 0x73
     d18:	4a21034a 	bmi	841a48 <_back_addr-0xcbe5b8>
     d1c:	032e5f03 	teqeq	lr, #3, 30
     d20:	6f032e25 	svcvs	0x00032e25
     d24:	2e12032e 	cdpcs	3, 1, cr0, cr2, cr14, {1}
     d28:	032e5a03 	teqeq	lr, #12288	; 0x3000
     d2c:	16032e14 			; <UNDEFINED> instruction: 0x16032e14
     d30:	364b2a2e 	strbcc	r2, [fp], -lr, lsr #20
     d34:	032e6503 	teqeq	lr, #12582912	; 0xc00000
     d38:	6d034a13 	vstrvs	s8, [r3, #-76]	; 0xffffffb4
     d3c:	4a13032e 	bmi	4c19fc <_back_addr-0x103e604>
     d40:	032e1403 	teqeq	lr, #50331648	; 0x3000000
     d44:	2d2f6670 	stccs	6, cr6, [pc, #-448]!	; b8c <_back_addr-0x14ff474>
     d48:	03302d30 	teqeq	r0, #48, 26	; 0xc00
     d4c:	30342e7a 	eorscc	r2, r4, sl, ror lr
     d50:	342e7a03 	strtcc	r7, [lr], #-2563	; 0xa03
     d54:	2f322a2f 	svccs	0x00322a2f
     d58:	4b2f312b 	blmi	bcd20c <_back_addr-0x932df4>
     d5c:	4b4b4b4b 	blmi	12d3a90 <_back_addr-0x22c570>
     d60:	03304c4b 	teqeq	r0, #19200	; 0x4b00
     d64:	d5039e44 	strle	r9, [r3, #-3652]	; 0xe44
     d68:	af032e03 	svcge	0x00032e03
     d6c:	03344a7d 	teqeq	r4, #512000	; 0x7d000
     d70:	034a00c6 	movteq	r0, #41158	; 0xa0c6
     d74:	344a7fb4 	strbcc	r7, [sl], #-4020	; 0xfb4
     d78:	83679f4b 	cmnhi	r7, #300	; 0x12c
     d7c:	67660903 	strbvs	r0, [r6, -r3, lsl #18]!
     d80:	679f6783 	ldrvs	r6, [pc, r3, lsl #15]
     d84:	66090383 	strvs	r0, [r9], -r3, lsl #7
     d88:	9f678367 	svcls	0x00678367
     d8c:	676b8367 	strbvs	r8, [fp, -r7, ror #6]!
     d90:	679f6783 	ldrvs	r6, [pc, r3, lsl #15]
     d94:	83836b83 	orrhi	r6, r3, #134144	; 0x20c00
     d98:	679f3167 	ldrvs	r3, [pc, r7, ror #2]
     d9c:	696a9f87 	stmdbvs	sl!, {r0, r1, r2, r7, r8, r9, sl, fp, ip, pc}^
     da0:	2f4b2f65 	svccs	0x004b2f65
     da4:	66028203 	strvs	r8, [r2], -r3, lsl #4
     da8:	834a7503 	movthi	r7, #42243	; 0xa503
     dac:	2e7cb503 	cdpcs	5, 7, cr11, cr12, cr3, {0}
     db0:	2e03d503 	cfsh32cs	mvfx13, mvfx3, #3
     db4:	4a7cfe03 	bmi	1f405c8 <__bss_end__+0xa2ca88>
     db8:	032e6c03 	teqeq	lr, #768	; 0x300
     dbc:	6c036614 	stcvs	6, cr6, [r3], {20}
     dc0:	2e1a032e 	cdpcs	3, 1, cr0, cr10, cr14, {1}
     dc4:	03666e03 	cmneq	r6, #3, 28	; 0x30
     dc8:	2a322e7a 	bcs	c8c7b8 <_back_addr-0x873848>
     dcc:	2e0c032d 	cdpcs	3, 0, cr0, cr12, cr13, {1}
     dd0:	2c2e7603 	stccs	6, cr7, [lr], #-12
     dd4:	2d302d31 	ldccs	13, cr2, [r0, #-196]!	; 0xffffff3c
     dd8:	2c322c31 	ldccs	12, cr2, [r2], #-196	; 0xffffff3c
     ddc:	30312d31 	eorscc	r2, r1, r1, lsr sp
     de0:	2b2f322a 	blcs	bcd690 <_back_addr-0x932970>
     de4:	292f2d32 	stmdbcs	pc!, {r1, r4, r5, r8, sl, fp, sp}	; <UNPREDICTABLE>
     de8:	2f2e0f03 	svccs	0x002e0f03
     dec:	6783679f 			; <UNDEFINED> instruction: 0x6783679f
     df0:	679f8387 	ldrvs	r8, [pc, r7, lsl #7]
     df4:	9f876783 	svcls	0x00876783
     df8:	679f8767 	ldrvs	r8, [pc, r7, ror #14]
     dfc:	6b678383 	blvs	19e1c10 <__bss_end__+0x4ce0d0>
     e00:	2f2f654b 	svccs	0x002f654b
     e04:	2c672f2d 	stclcs	15, cr2, [r7], #-180	; 0xffffff4c
     e08:	2e02d603 	cfmadd32cs	mvax0, mvfx13, mvfx2, mvfx3
     e0c:	4a7e8003 	bmi	1fa0e20 <__bss_end__+0xa8d2e0>
     e10:	65696a9f 	strbvs	r6, [r9, #-2719]!	; 0xa9f
     e14:	4c2f4b2f 	stcmi	11, cr4, [pc], #-188	; d60 <_back_addr-0x14ff2a0>
     e18:	65696a9f 	strbvs	r6, [r9, #-2719]!	; 0xa9f
     e1c:	692f4b2f 	stmdbvs	pc!, {r0, r1, r2, r3, r5, r8, r9, fp, lr}	; <UNPREDICTABLE>
     e20:	f32f3048 	vhadd.u32	<illegal reg q1.5>, <illegal reg q7.5>, q4
     e24:	f0039f6a 			; <UNDEFINED> instruction: 0xf0039f6a
     e28:	03356602 	teqeq	r5, #2097152	; 0x200000
     e2c:	30034a79 	andcc	r4, r3, r9, ror sl
     e30:	2e57032e 	cdpcs	3, 5, cr0, cr7, cr14, {1}
     e34:	8384834b 	orrhi	r8, r4, #738197505	; 0x2c000001
     e38:	83838383 	orrhi	r8, r3, #201326594	; 0xc000002
     e3c:	83838383 	orrhi	r8, r3, #201326594	; 0xc000002
     e40:	67676767 	strbvs	r6, [r7, -r7, ror #14]!
     e44:	67676767 	strbvs	r6, [r7, -r7, ror #14]!
     e48:	67676767 	strbvs	r6, [r7, -r7, ror #14]!
     e4c:	67676767 	strbvs	r6, [r7, -r7, ror #14]!
     e50:	67676767 	strbvs	r6, [r7, -r7, ror #14]!
     e54:	6830484c 	ldmdavs	r0!, {r2, r3, r6, fp, lr}
     e58:	832f9f9f 	teqhi	pc, #636	; 0x27c
     e5c:	9f2f8331 	svcls	0x002f8331
     e60:	02040200 	andeq	r0, r4, #0, 4
     e64:	040200bf 	streq	r0, [r2], #-191	; 0xbf
     e68:	2e760302 	cdpcs	3, 7, cr0, cr6, cr2, {0}
     e6c:	684a0e03 	stmdavs	sl, {r0, r1, r9, sl, fp}^
     e70:	83838330 	orrhi	r8, r3, #48, 6	; 0xc0000000
     e74:	03667203 	cmneq	r6, #805306368	; 0x30000000
     e78:	02138211 	andseq	r8, r3, #268435457	; 0x10000001
     e7c:	01010004 	tsteq	r1, r4
     e80:	00000119 	andeq	r0, r0, r9, lsl r1
     e84:	00730002 	rsbseq	r0, r3, r2
     e88:	01020000 	mrseq	r0, (UNDEF: 2)
     e8c:	000d0efb 	strdeq	r0, [sp], -fp
     e90:	01010101 	tsteq	r1, r1, lsl #2
     e94:	01000000 	mrseq	r0, (UNDEF: 0)
     e98:	2f010000 	svccs	0x00010000
     e9c:	656d6f68 	strbvs	r6, [sp, #-3944]!	; 0xf68
     ea0:	756f6c2f 	strbvc	r6, [pc, #-3119]!	; 279 <_back_addr-0x14ffd87>
     ea4:	682f7369 	stmdavs	pc!, {r0, r3, r5, r6, r8, r9, ip, sp, lr}	; <UNPREDICTABLE>
     ea8:	2f6b6e61 	svccs	0x006b6e61
     eac:	696c796b 	stmdbvs	ip!, {r0, r1, r3, r5, r6, r8, fp, ip, sp, lr}^
     eb0:	6f622f6e 	svcvs	0x00622f6e
     eb4:	6f63746f 	svcvs	0x0063746f
     eb8:	752f6564 	strvc	r6, [pc, #-1380]!	; 95c <_back_addr-0x14ff6a4>
     ebc:	746f6f62 	strbtvc	r6, [pc], #-3938	; ec4 <_back_addr-0x14ff13c>
     ec0:	6178652f 	cmnvs	r8, pc, lsr #10
     ec4:	656c706d 	strbvs	r7, [ip, #-109]!	; 0x6d
     ec8:	66652f73 	uqsub16vs	r2, r5, r3
     ecc:	5f657375 	svcpl	0x00657375
     ed0:	676f7270 			; <UNDEFINED> instruction: 0x676f7270
     ed4:	6d6d6172 	stfvse	f6, [sp, #-456]!	; 0xfffffe38
     ed8:	692f7265 	stmdbvs	pc!, {r0, r2, r5, r6, r9, ip, sp, lr}	; <UNPREDICTABLE>
     edc:	756c636e 	strbvc	r6, [ip, #-878]!	; 0x36e
     ee0:	00006564 	andeq	r6, r0, r4, ror #10
     ee4:	656d6974 	strbvs	r6, [sp, #-2420]!	; 0x974
     ee8:	00632e72 	rsbeq	r2, r3, r2, ror lr
     eec:	73000000 	movwvc	r0, #0
     ef0:	65647379 	strbvs	r7, [r4, #-889]!	; 0x379
     ef4:	682e7366 	stmdavs	lr!, {r1, r2, r5, r6, r8, r9, ip, sp, lr}
     ef8:	00000100 	andeq	r0, r0, r0, lsl #2
     efc:	02050000 	andeq	r0, r5, #0
     f00:	01502614 	cmpeq	r0, r4, lsl r6
     f04:	14011303 	strne	r1, [r1], #-771	; 0x303
     f08:	0d034d4b 	stceq	13, cr4, [r3, #-300]	; 0xfffffed4
     f0c:	4a730366 	bmi	1cc1cac <__bss_end__+0x7ae16c>
     f10:	032e0d03 	teqeq	lr, #3, 26	; 0xc0
     f14:	13032e6d 	movwne	r2, #15981	; 0x3e6d
     f18:	2e73032e 	cdpcs	3, 7, cr0, cr3, cr14, {1}
     f1c:	2e0c0331 	mcrcs	3, 0, r0, cr12, cr1, {1}
     f20:	032e7403 	teqeq	lr, #50331648	; 0x3000000
     f24:	77032e0c 	strvc	r2, [r3, -ip, lsl #28]
     f28:	5030352e 	eorspl	r3, r0, lr, lsr #10
     f2c:	03873214 	orreq	r3, r7, #20, 4	; 0x40000001
     f30:	4d322e77 	ldcmi	14, cr2, [r2, #-476]!	; 0xfffffe24
     f34:	03163131 	tsteq	r6, #1073741836	; 0x4000000c
     f38:	79036610 	stmdbvc	r3, {r4, r9, sl, sp, lr}
     f3c:	9e77032e 	cdpls	3, 7, cr0, cr7, cr14, {1}
     f40:	1a661d03 	bne	1988354 <__bss_end__+0x474814>
     f44:	9e7fb303 	cdpls	3, 7, cr11, cr15, cr3, {0}
     f48:	4a00c503 	bmi	3235c <_back_addr-0x14cdca4>
     f4c:	7fb60336 	svcvc	0x00b60336
     f50:	2e0a032e 	cdpcs	3, 0, cr0, cr10, cr14, {1}
     f54:	2e220330 	mcrcs	3, 1, r0, cr2, cr0, {1}
     f58:	032e1c03 	teqeq	lr, #768	; 0x300
     f5c:	312e7fb3 			; <UNDEFINED> instruction: 0x312e7fb3
     f60:	00303531 	eorseq	r3, r0, r1, lsr r5
     f64:	03010402 	movweq	r0, #5122	; 0x1402
     f68:	21032e22 	tstcs	r3, r2, lsr #28
     f6c:	03183066 	tsteq	r8, #102	; 0x66
     f70:	03827fa6 	orreq	r7, r2, #664	; 0x298
     f74:	344a00d4 	strbcc	r0, [sl], #-212	; 0xd4
     f78:	2e7fa903 	cdpcs	9, 7, cr10, cr15, cr3, {0}
     f7c:	302e0a03 	eorcc	r0, lr, r3, lsl #20
     f80:	032e2203 	teqeq	lr, #805306368	; 0x30000000
     f84:	a6032e29 	strge	r2, [r3], -r9, lsr #28
     f88:	31312e7f 	teqcc	r1, pc, ror lr
     f8c:	02003035 	andeq	r3, r0, #53	; 0x35
     f90:	22030104 	andcs	r0, r3, #4, 2
     f94:	662e032e 	strtvs	r0, [lr], -lr, lsr #6
     f98:	01000202 	tsteq	r0, r2, lsl #4
     f9c:	00018e01 	andeq	r8, r1, r1, lsl #28
     fa0:	7c000200 	sfmvc	f0, 4, [r0], {-0}
     fa4:	02000000 	andeq	r0, r0, #0
     fa8:	0d0efb01 	vstreq	d15, [lr, #-4]
     fac:	01010100 	mrseq	r0, (UNDEF: 17)
     fb0:	00000001 	andeq	r0, r0, r1
     fb4:	01000001 	tsteq	r0, r1
     fb8:	6d6f682f 	stclvs	8, cr6, [pc, #-188]!	; f04 <_back_addr-0x14ff0fc>
     fbc:	6f6c2f65 	svcvs	0x006c2f65
     fc0:	2f736975 	svccs	0x00736975
     fc4:	6b6e6168 	blvs	1b9956c <__bss_end__+0x685a2c>
     fc8:	6c796b2f 	ldclvs	11, cr6, [r9], #-188	; 0xffffff44
     fcc:	622f6e69 	eorvs	r6, pc, #1680	; 0x690
     fd0:	63746f6f 	cmnvs	r4, #444	; 0x1bc
     fd4:	2f65646f 	svccs	0x0065646f
     fd8:	6f6f6275 	svcvs	0x006f6275
     fdc:	78652f74 	stmdavc	r5!, {r2, r4, r5, r6, r8, r9, sl, fp, sp}^
     fe0:	6c706d61 	ldclvs	13, cr6, [r0], #-388	; 0xfffffe7c
     fe4:	652f7365 	strvs	r7, [pc, #-869]!	; c87 <_back_addr-0x14ff379>
     fe8:	65737566 	ldrbvs	r7, [r3, #-1382]!	; 0x566
     fec:	6f72705f 	svcvs	0x0072705f
     ff0:	6d617267 	sfmvs	f7, 2, [r1, #-412]!	; 0xfffffe64
     ff4:	2f72656d 	svccs	0x0072656d
     ff8:	6c636e69 	stclvs	14, cr6, [r3], #-420	; 0xfffffe5c
     ffc:	00656475 	rsbeq	r6, r5, r5, ror r4
    1000:	69747500 	ldmdbvs	r4!, {r8, sl, ip, sp, lr}^
    1004:	00632e6c 	rsbeq	r2, r3, ip, ror #28
    1008:	73000000 	movwvc	r0, #0
    100c:	65647379 	strbvs	r7, [r4, #-889]!	; 0x379
    1010:	682e7366 	stmdavs	lr!, {r1, r2, r5, r6, r8, r9, ip, sp, lr}
    1014:	00000100 	andeq	r0, r0, r0, lsl #2
    1018:	74726175 	ldrbtvc	r6, [r2], #-373	; 0x175
    101c:	0100682e 	tsteq	r0, lr, lsr #16
    1020:	00000000 	andeq	r0, r0, r0
    1024:	277c0205 	ldrbcs	r0, [ip, -r5, lsl #4]!
    1028:	33030150 	movwcc	r0, #12624	; 0x3150
    102c:	674b1301 	strbvs	r1, [fp, -r1, lsl #6]
    1030:	174a1203 	strbne	r1, [sl, -r3, lsl #4]
    1034:	0c033345 	stceq	3, cr3, [r3], {69}	; 0x45
    1038:	2e79032e 	cdpcs	3, 7, cr0, cr9, cr14, {1}
    103c:	2e760333 	mrccs	3, 3, r0, cr6, cr3, {1}
    1040:	032e0d03 	teqeq	lr, #3, 26	; 0xc0
    1044:	0e032e73 	mcreq	14, 0, r2, cr3, cr3, {3}
    1048:	2e73032e 	cdpcs	3, 7, cr0, cr3, cr14, {1}
    104c:	2f30336a 	svccs	0x0030336a
    1050:	13502f2f 	cmpne	r0, #47, 30	; 0xbc
    1054:	3c080b03 	stccc	11, cr0, [r8], {3}
    1058:	9e770317 	mrcls	3, 3, r0, cr7, cr7, {0}
    105c:	034a0b03 	movteq	r0, #43779	; 0xab03
    1060:	03846673 	orreq	r6, r4, #120586240	; 0x7300000
    1064:	75032e09 	strvc	r2, [r3, #-3593]	; 0xe09
    1068:	4f038482 	svcmi	0x00038482
    106c:	84801466 	strhi	r1, [r0], #1126	; 0x466
    1070:	79034f4c 	stmdbvc	r3, {r2, r3, r6, r8, r9, sl, fp, lr}
    1074:	294fa24a 	stmdbcs	pc, {r1, r3, r6, r9, sp, pc}^	; <UNPREDICTABLE>
    1078:	4a00c103 	bmi	3148c <_back_addr-0x14ceb74>
    107c:	03674c4e 	cmneq	r7, #19968	; 0x4e00
    1080:	21038261 	tstcs	r3, r1, ror #4
    1084:	2e610382 	cdpcs	3, 6, cr0, cr1, cr2, {4}
    1088:	4c2e1f03 	stcmi	15, cr1, [lr], #-12
    108c:	0a031431 	beq	c6158 <_back_addr-0x1439ea8>
    1090:	4803344a 	stmdami	r3, {r1, r3, r6, sl, ip, sp}
    1094:	3e038466 	cdpcc	4, 0, cr8, cr3, cr6, {3}
    1098:	176a134a 	strbne	r1, [sl, -sl, asr #6]!
    109c:	4c873345 	stcmi	3, cr3, [r7], {69}	; 0x45
    10a0:	4d312b2f 	fldmdbxmi	r1!, {d2-d24}	;@ Deprecated
    10a4:	302c302d 	eorcc	r3, ip, sp, lsr #32
    10a8:	032e7603 	teqeq	lr, #3145728	; 0x300000
    10ac:	13312e0b 	teqne	r1, #11, 28	; 0xb0
    10b0:	359b6868 	ldrcc	r6, [fp, #2152]	; 0x868
    10b4:	32461631 	subcc	r1, r6, #51380224	; 0x3100000
    10b8:	b803d76b 	stmdalt	r3, {r0, r1, r3, r5, r6, r8, r9, sl, ip, lr, pc}
    10bc:	ca03667f 	bgt	daac0 <_back_addr-0x1425540>
    10c0:	68698200 	stmdavs	r9!, {r9, pc}^
    10c4:	3446484d 	strbcc	r4, [r6], #-2125	; 0x84d
    10c8:	522e7a03 	eorpl	r7, lr, #12288	; 0x3000
    10cc:	6f032d4b 	svcvs	0x00032d4b
    10d0:	4a12032e 	bmi	481d90 <_back_addr-0x107e270>
    10d4:	032e6e03 	teqeq	lr, #3, 28	; 0x30
    10d8:	031a2e1d 	tsteq	sl, #464	; 0x1d0
    10dc:	67352e79 			; <UNDEFINED> instruction: 0x67352e79
    10e0:	1431452d 	ldrtne	r4, [r1], #-1325	; 0x52d
    10e4:	03040200 	movweq	r0, #16896	; 0x4200
    10e8:	04020067 	streq	r0, [r2], #-103	; 0x67
    10ec:	6a6b2d03 	bvs	1acc500 <__bss_end__+0x5b89c0>
    10f0:	0402004b 	streq	r0, [r2], #-75	; 0x4b
    10f4:	02008303 	andeq	r8, r0, #201326592	; 0xc000000
    10f8:	c1810304 	orrgt	r0, r1, r4, lsl #6
    10fc:	04020047 	streq	r0, [r2], #-71	; 0x47
    1100:	02009f03 	andeq	r9, r0, #3, 30
    1104:	bd9d0304 	ldclt	3, cr0, [sp, #16]
    1108:	7a03184d 	bvc	c7244 <_back_addr-0x1438dbc>
    110c:	0200364a 	andeq	r3, r0, #77594624	; 0x4a00000
    1110:	56080204 	strpl	r0, [r8], -r4, lsl #4
    1114:	4e4d4750 	mcrmi	7, 2, r4, cr13, cr0, {2}
    1118:	6dd46815 	ldclvs	8, cr6, [r4, #84]	; 0x54
    111c:	1352292f 	cmpne	r2, #770048	; 0xbc000
    1120:	2d2f2a4e 	vstmdbcs	pc!, {s4-s81}
    1124:	0330312f 	teqeq	r0, #-1073741813	; 0xc000000b
    1128:	02024a16 	andeq	r4, r2, #90112	; 0x16000
    112c:	dd010100 	stfles	f0, [r1, #-0]
    1130:	02000001 	andeq	r0, r0, #1
    1134:	0000ec00 	andeq	lr, r0, r0, lsl #24
    1138:	fb010200 	blx	41942 <_back_addr-0x14be6be>
    113c:	01000d0e 	tsteq	r0, lr, lsl #26
    1140:	00010101 	andeq	r0, r1, r1, lsl #2
    1144:	00010000 	andeq	r0, r1, r0
    1148:	682f0100 	stmdavs	pc!, {r8}	; <UNPREDICTABLE>
    114c:	2f656d6f 	svccs	0x00656d6f
    1150:	69756f6c 	ldmdbvs	r5!, {r2, r3, r5, r6, r8, r9, sl, fp, sp, lr}^
    1154:	61682f73 	smcvs	33523	; 0x82f3
    1158:	6b2f6b6e 	blvs	bdbf18 <_back_addr-0x9240e8>
    115c:	6e696c79 	mcrvs	12, 3, r6, cr9, cr9, {3}
    1160:	6f6f622f 	svcvs	0x006f622f
    1164:	646f6374 	strbtvs	r6, [pc], #-884	; 116c <_back_addr-0x14fee94>
    1168:	62752f65 	rsbsvs	r2, r5, #404	; 0x194
    116c:	2f746f6f 	svccs	0x00746f6f
    1170:	6d617865 	stclvs	8, cr7, [r1, #-404]!	; 0xfffffe6c
    1174:	73656c70 	cmnvc	r5, #112, 24	; 0x7000
    1178:	7566652f 	strbvc	r6, [r6, #-1327]!	; 0x52f
    117c:	705f6573 	subsvc	r6, pc, r3, ror r5	; <UNPREDICTABLE>
    1180:	72676f72 	rsbvc	r6, r7, #456	; 0x1c8
    1184:	656d6d61 	strbvs	r6, [sp, #-3425]!	; 0xd61
    1188:	2e2e2f72 	mcrcs	15, 1, r2, cr14, cr2, {3}
    118c:	2f2e2e2f 	svccs	0x002e2e2f
    1190:	6c636e69 	stclvs	14, cr6, [r3], #-420	; 0xfffffe5c
    1194:	2f656475 	svccs	0x00656475
    1198:	006d7361 	rsbeq	r7, sp, r1, ror #6
    119c:	6d6f682f 	stclvs	8, cr6, [pc, #-188]!	; 10e8 <_back_addr-0x14fef18>
    11a0:	6f6c2f65 	svcvs	0x006c2f65
    11a4:	2f736975 	svccs	0x00736975
    11a8:	6b6e6168 	blvs	1b99750 <__bss_end__+0x685c10>
    11ac:	6c796b2f 	ldclvs	11, cr6, [r9], #-188	; 0xffffff44
    11b0:	622f6e69 	eorvs	r6, pc, #1680	; 0x690
    11b4:	63746f6f 	cmnvs	r4, #444	; 0x1bc
    11b8:	2f65646f 	svccs	0x0065646f
    11bc:	6f6f6275 	svcvs	0x006f6275
    11c0:	78652f74 	stmdavc	r5!, {r2, r4, r5, r6, r8, r9, sl, fp, sp}^
    11c4:	6c706d61 	ldclvs	13, cr6, [r0], #-388	; 0xfffffe7c
    11c8:	652f7365 	strvs	r7, [pc, #-869]!	; e6b <_back_addr-0x14ff195>
    11cc:	65737566 	ldrbvs	r7, [r3, #-1382]!	; 0x566
    11d0:	6f72705f 	svcvs	0x0072705f
    11d4:	6d617267 	sfmvs	f7, 2, [r1, #-412]!	; 0xfffffe64
    11d8:	2f72656d 	svccs	0x0072656d
    11dc:	2e2f2e2e 	cdpcs	14, 2, cr2, cr15, cr14, {1}
    11e0:	6e692f2e 	cdpvs	15, 6, cr2, cr9, cr14, {1}
    11e4:	64756c63 	ldrbtvs	r6, [r5], #-3171	; 0xc63
    11e8:	63000065 	movwvs	r0, #101	; 0x65
    11ec:	65686361 	strbvs	r6, [r8, #-865]!	; 0x361
    11f0:	2e37765f 	mrccs	6, 1, r7, cr7, cr15, {2}
    11f4:	00000063 	andeq	r0, r0, r3, rrx
    11f8:	69747500 	ldmdbvs	r4!, {r8, sl, ip, sp, lr}^
    11fc:	682e736c 	stmdavs	lr!, {r2, r3, r5, r6, r8, r9, ip, sp, lr}
    1200:	00000100 	andeq	r0, r0, r0, lsl #2
    1204:	65707974 	ldrbvs	r7, [r0, #-2420]!	; 0x974
    1208:	00682e73 	rsbeq	r2, r8, r3, ror lr
    120c:	63000001 	movwvs	r0, #1
    1210:	6f6d6d6f 	svcvs	0x006d6d6f
    1214:	00682e6e 	rsbeq	r2, r8, lr, ror #28
    1218:	6e000002 	cdpvs	0, 0, cr0, cr0, cr2, {0}
    121c:	682e7465 	stmdavs	lr!, {r0, r2, r5, r6, sl, ip, sp, lr}
    1220:	00000200 	andeq	r0, r0, r0, lsl #4
    1224:	02050000 	andeq	r0, r5, #0
    1228:	01502c44 	cmpeq	r0, r4, asr #24
    122c:	01019603 	tsteq	r1, r3, lsl #12
    1230:	2e7fa503 	cdpcs	5, 7, cr10, cr15, cr3, {0}
    1234:	2e00dc03 	cdpcs	12, 0, cr13, cr0, cr3, {0}
    1238:	04020032 	streq	r0, [r2], #-50	; 0x32
    123c:	02005002 	andeq	r5, r0, #2
    1240:	7a030204 	bvc	c1a58 <_back_addr-0x143e5a8>
    1244:	2d4c672e 	stclcs	7, cr6, [ip, #-184]	; 0xffffff48
    1248:	4a7f8a03 	bmi	1fe3a5c <__bss_end__+0xacff1c>
    124c:	cf033631 	svcgt	0x00033631
    1250:	33292e00 	teqcc	r9, #0, 28
    1254:	0302042c 	movweq	r0, #9260	; 0x242c
    1258:	042e7f9e 	strteq	r7, [lr], #-3998	; 0xf9e
    125c:	00e60301 	rsceq	r0, r6, r1, lsl #6
    1260:	0302042e 	movweq	r0, #9262	; 0x242e
    1264:	312e7f99 			; <UNDEFINED> instruction: 0x312e7f99
    1268:	2f332d2f 	svccs	0x00332d2f
    126c:	e7030104 	str	r0, [r3, -r4, lsl #2]
    1270:	2f2d2e00 	svccs	0x002d2e00
    1274:	66540331 			; <UNDEFINED> instruction: 0x66540331
    1278:	7903342f 	stmdbvc	r3, {r0, r1, r2, r3, r5, sl, ip, sp}
    127c:	0d03492e 	stceq	9, cr4, [r3, #-184]	; 0xffffff48
    1280:	2e32034a 	cdpcs	3, 3, cr0, cr2, cr10, {2}
    1284:	6e2e7a03 	vmulvs.f32	s14, s28, s6
    1288:	2e7fa703 	cdpcs	7, 7, cr10, cr15, cr3, {0}
    128c:	2a312f67 	bcs	c4d030 <_back_addr-0x8b2fd0>
    1290:	66028503 	strvs	r8, [r2], -r3, lsl #10
    1294:	31314d17 	teqcc	r1, r7, lsl sp
    1298:	344a0c03 	strbcc	r0, [sl], #-3075	; 0xc03
    129c:	7f900334 	svcvc	0x00900334
    12a0:	4d2f012e 	stfmis	f0, [pc, #-184]!	; 11f0 <_back_addr-0x14fee10>
    12a4:	00f3032d 	rscseq	r0, r3, sp, lsr #6
    12a8:	7eff032e 	cdpvc	3, 15, cr0, cr15, cr14, {1}
    12ac:	4d2f012e 	stfmis	f0, [pc, #-184]!	; 11fc <_back_addr-0x14fee04>
    12b0:	2e27032d 	cdpcs	3, 2, cr0, cr7, cr13, {1}
    12b4:	2e56032f 	cdpcs	3, 5, cr0, cr6, cr15, {1}
    12b8:	2e71034c 	cdpcs	3, 7, cr0, cr1, cr12, {2}
    12bc:	3030304c 	eorscc	r3, r0, ip, asr #32
    12c0:	4a018b03 	bmi	63ed4 <_back_addr-0x149c12c>
    12c4:	2e7f9c03 	cdpcs	12, 7, cr9, cr15, cr3, {0}
    12c8:	017e9403 	cmneq	lr, r3, lsl #8
    12cc:	2e01a503 	cfsh32cs	mvfx10, mvfx1, #3
    12d0:	03302c33 	teqeq	r0, #13056	; 0x3300
    12d4:	4c4b2e4f 	mcrrmi	14, 4, r2, fp, cr15
    12d8:	663c032c 	ldrtvs	r0, [ip], -ip, lsr #6
    12dc:	032e3903 	teqeq	lr, #49152	; 0xc000
    12e0:	03132e0f 	tsteq	r3, #15, 28	; 0xf0
    12e4:	034a00d7 	movteq	r0, #41175	; 0xa0d7
    12e8:	012e7f89 	smlawbeq	lr, r9, pc, r7	; <UNPREDICTABLE>
    12ec:	2e7ea103 	expcse	f2, f3
    12f0:	2e01a503 	cfsh32cs	mvfx10, mvfx1, #3
    12f4:	03302c33 	teqeq	r0, #13056	; 0x3300
    12f8:	466a2e5e 			; <UNDEFINED> instruction: 0x466a2e5e
    12fc:	2a323532 	bcs	c8e7cc <_back_addr-0x871834>
    1300:	2c4c3132 	stfcse	f3, [ip], {50}	; 0x32
    1304:	03661c03 	cmneq	r6, #768	; 0x300
    1308:	022d2e2e 	eoreq	r2, sp, #736	; 0x2e0
    130c:	01010002 	tsteq	r1, r2

Disassembly of section .debug_frame:

00000000 <.debug_frame>:
   0:	0000000c 	andeq	r0, r0, ip
   4:	ffffffff 			; <UNDEFINED> instruction: 0xffffffff
   8:	7c020001 	stcvc	0, cr0, [r2], {1}
   c:	000d0c0e 	andeq	r0, sp, lr, lsl #24
  10:	0000000c 	andeq	r0, r0, ip
  14:	00000000 	andeq	r0, r0, r0
  18:	01500074 	cmpeq	r0, r4, ror r0
  1c:	00000028 	andeq	r0, r0, r8, lsr #32
  20:	0000000c 	andeq	r0, r0, ip
  24:	ffffffff 			; <UNDEFINED> instruction: 0xffffffff
  28:	7c020001 	stcvc	0, cr0, [r2], {1}
  2c:	000d0c0e 	andeq	r0, sp, lr, lsl #24
  30:	0000001c 	andeq	r0, r0, ip, lsl r0
  34:	00000020 	andeq	r0, r0, r0, lsr #32
  38:	0150009c 			; <UNDEFINED> instruction: 0x0150009c
  3c:	000000a0 	andeq	r0, r0, r0, lsr #1
  40:	840c0e48 	strhi	r0, [ip], #-3656	; 0xe48
  44:	8e028503 	cfsh32hi	mvfx8, mvfx2, #3
  48:	0e440201 	cdpeq	2, 4, cr0, cr4, cr1, {0}
  4c:	cec5c400 	cdpgt	4, 12, cr12, cr5, cr0, {0}
  50:	0000000c 	andeq	r0, r0, ip
  54:	ffffffff 			; <UNDEFINED> instruction: 0xffffffff
  58:	7c020001 	stcvc	0, cr0, [r2], {1}
  5c:	000d0c0e 	andeq	r0, sp, lr, lsl #24
  60:	00000020 	andeq	r0, r0, r0, lsr #32
  64:	00000050 	andeq	r0, r0, r0, asr r0
  68:	0150013c 	cmpeq	r0, ip, lsr r1
  6c:	00000194 	muleq	r0, r4, r1
  70:	84200e42 	strthi	r0, [r0], #-3650	; 0xe42
  74:	86078508 	strhi	r8, [r7], -r8, lsl #10
  78:	88058706 	stmdahi	r5, {r1, r2, r8, r9, sl, pc}
  7c:	8a038904 	bhi	e2494 <_back_addr-0x141db6c>
  80:	00018e02 	andeq	r8, r1, r2, lsl #28
  84:	0000000c 	andeq	r0, r0, ip
  88:	ffffffff 			; <UNDEFINED> instruction: 0xffffffff
  8c:	7c020001 	stcvc	0, cr0, [r2], {1}
  90:	000d0c0e 	andeq	r0, sp, lr, lsl #24
  94:	0000000c 	andeq	r0, r0, ip
  98:	00000084 	andeq	r0, r0, r4, lsl #1
  9c:	015002d0 	ldrsbeq	r0, [r0, #-32]	; 0xffffffe0
  a0:	00000008 	andeq	r0, r0, r8
  a4:	00000020 	andeq	r0, r0, r0, lsr #32
  a8:	00000084 	andeq	r0, r0, r4, lsl #1
  ac:	015002d8 	ldrsbeq	r0, [r0, #-40]	; 0xffffffd8
  b0:	00000010 	andeq	r0, r0, r0, lsl r0
  b4:	80100e42 	andshi	r0, r0, r2, asr #28
  b8:	82038104 	andhi	r8, r3, #4, 2
  bc:	44018302 	strmi	r8, [r1], #-770	; 0x302
  c0:	c0c1c2c3 	sbcgt	ip, r1, r3, asr #5
  c4:	0000000e 	andeq	r0, r0, lr
  c8:	0000000c 	andeq	r0, r0, ip
  cc:	00000084 	andeq	r0, r0, r4, lsl #1
  d0:	015002e8 	cmpeq	r0, r8, ror #5
  d4:	00000024 	andeq	r0, r0, r4, lsr #32
  d8:	00000018 	andeq	r0, r0, r8, lsl r0
  dc:	00000084 	andeq	r0, r0, r4, lsl #1
  e0:	0150030c 	cmpeq	r0, ip, lsl #6
  e4:	00000058 	andeq	r0, r0, r8, asr r0
  e8:	8e040e54 	mcrhi	14, 0, r0, cr4, cr4, {2}
  ec:	000e5401 	andeq	r5, lr, r1, lsl #8
  f0:	000000ce 	andeq	r0, r0, lr, asr #1
  f4:	0000002c 	andeq	r0, r0, ip, lsr #32
  f8:	00000084 	andeq	r0, r0, r4, lsl #1
  fc:	01500364 	cmpeq	r0, r4, ror #6
 100:	000001d0 	ldrdeq	r0, [r0], -r0	; <UNPREDICTABLE>
 104:	84140e42 	ldrhi	r0, [r4], #-3650	; 0xe42
 108:	86048505 	strhi	r8, [r4], -r5, lsl #10
 10c:	8e028703 	cdphi	7, 0, cr8, cr2, cr3, {0}
 110:	200e4601 	andcs	r4, lr, r1, lsl #12
 114:	0e0a5202 	cdpeq	2, 0, cr5, cr10, cr2, {0}
 118:	020b4214 	andeq	r4, fp, #20, 4	; 0x40000001
 11c:	140e0a7a 	strne	r0, [lr], #-2682	; 0xa7a
 120:	00000b42 	andeq	r0, r0, r2, asr #22
 124:	00000014 	andeq	r0, r0, r4, lsl r0
 128:	00000084 	andeq	r0, r0, r4, lsl #1
 12c:	01500534 	cmpeq	r0, r4, lsr r5
 130:	00000050 	andeq	r0, r0, r0, asr r0
 134:	84080e4a 	strhi	r0, [r8], #-3658	; 0xe4a
 138:	00018e02 	andeq	r8, r1, r2, lsl #28
 13c:	0000000c 	andeq	r0, r0, ip
 140:	ffffffff 			; <UNDEFINED> instruction: 0xffffffff
 144:	7c020001 	stcvc	0, cr0, [r2], {1}
 148:	000d0c0e 	andeq	r0, sp, lr, lsl #24
 14c:	00000030 	andeq	r0, r0, r0, lsr r0
 150:	0000013c 	andeq	r0, r0, ip, lsr r1
 154:	01500584 	cmpeq	r0, r4, lsl #11
 158:	000001dc 	ldrdeq	r0, [r0], -ip
 15c:	84240e42 	strthi	r0, [r4], #-3650	; 0xe42
 160:	86088509 	strhi	r8, [r8], -r9, lsl #10
 164:	88068707 	stmdahi	r6, {r0, r1, r2, r8, r9, sl, pc}
 168:	8a048905 	bhi	122584 <_back_addr-0x13dda7c>
 16c:	8e028b03 	vmlahi.f64	d8, d2, d3
 170:	780e4401 	stmdavc	lr, {r0, sl, lr}
 174:	0e0ad802 	cdpeq	8, 0, cr13, cr10, cr2, {0}
 178:	4c0b4224 	sfmmi	f4, 4, [fp], {36}	; 0x24
 17c:	0000240e 	andeq	r2, r0, lr, lsl #8
 180:	0000001c 	andeq	r0, r0, ip, lsl r0
 184:	0000013c 	andeq	r0, r0, ip, lsr r1
 188:	01500760 	cmpeq	r0, r0, ror #14
 18c:	000000b0 	strheq	r0, [r0], -r0	; <UNPREDICTABLE>
 190:	84180e42 	ldrhi	r0, [r8], #-3650	; 0xe42
 194:	86058506 	strhi	r8, [r5], -r6, lsl #10
 198:	88038704 	stmdahi	r3, {r2, r8, r9, sl, pc}
 19c:	00018e02 	andeq	r8, r1, r2, lsl #28
 1a0:	0000000c 	andeq	r0, r0, ip
 1a4:	0000013c 	andeq	r0, r0, ip, lsr r1
 1a8:	01500810 	cmpeq	r0, r0, lsl r8
 1ac:	00000030 	andeq	r0, r0, r0, lsr r0
 1b0:	00000014 	andeq	r0, r0, r4, lsl r0
 1b4:	0000013c 	andeq	r0, r0, ip, lsr r1
 1b8:	01500840 	cmpeq	r0, r0, asr #16
 1bc:	0000002c 	andeq	r0, r0, ip, lsr #32
 1c0:	84080e42 	strhi	r0, [r8], #-3650	; 0xe42
 1c4:	00018e02 	andeq	r8, r1, r2, lsl #28
 1c8:	00000014 	andeq	r0, r0, r4, lsl r0
 1cc:	0000013c 	andeq	r0, r0, ip, lsr r1
 1d0:	0150086c 	cmpeq	r0, ip, ror #16
 1d4:	00000054 	andeq	r0, r0, r4, asr r0
 1d8:	84080e62 	strhi	r0, [r8], #-3682	; 0xe62
 1dc:	00018e02 	andeq	r8, r1, r2, lsl #28
 1e0:	00000014 	andeq	r0, r0, r4, lsl r0
 1e4:	0000013c 	andeq	r0, r0, ip, lsr r1
 1e8:	015008c0 	cmpeq	r0, r0, asr #17
 1ec:	0000002c 	andeq	r0, r0, ip, lsr #32
 1f0:	84080e46 	strhi	r0, [r8], #-3654	; 0xe46
 1f4:	00018e02 	andeq	r8, r1, r2, lsl #28
 1f8:	00000024 	andeq	r0, r0, r4, lsr #32
 1fc:	0000013c 	andeq	r0, r0, ip, lsr r1
 200:	015008ec 	cmpeq	r0, ip, ror #17
 204:	00000070 	andeq	r0, r0, r0, ror r0
 208:	84180e42 	ldrhi	r0, [r8], #-3650	; 0xe42
 20c:	86058506 	strhi	r8, [r5], -r6, lsl #10
 210:	88038704 	stmdahi	r3, {r2, r8, r9, sl, pc}
 214:	74018e02 	strvc	r8, [r1], #-3586	; 0xe02
 218:	c6c7c8ce 	strbgt	ip, [r7], lr, asr #17
 21c:	000ec4c5 	andeq	ip, lr, r5, asr #9
 220:	00000014 	andeq	r0, r0, r4, lsl r0
 224:	0000013c 	andeq	r0, r0, ip, lsr r1
 228:	0150095c 	cmpeq	r0, ip, asr r9
 22c:	00000020 	andeq	r0, r0, r0, lsr #32
 230:	84080e42 	strhi	r0, [r8], #-3650	; 0xe42
 234:	00018e02 	andeq	r8, r1, r2, lsl #28
 238:	00000014 	andeq	r0, r0, r4, lsl r0
 23c:	0000013c 	andeq	r0, r0, ip, lsr r1
 240:	0150097c 	cmpeq	r0, ip, ror r9
 244:	0000003c 	andeq	r0, r0, ip, lsr r0
 248:	84080e42 	strhi	r0, [r8], #-3650	; 0xe42
 24c:	00018e02 	andeq	r8, r1, r2, lsl #28
 250:	00000014 	andeq	r0, r0, r4, lsl r0
 254:	0000013c 	andeq	r0, r0, ip, lsr r1
 258:	015009b8 	ldrheq	r0, [r0, #-152]	; 0xffffff68
 25c:	0000006c 	andeq	r0, r0, ip, rrx
 260:	84080e44 	strhi	r0, [r8], #-3652	; 0xe44
 264:	00018e02 	andeq	r8, r1, r2, lsl #28
 268:	00000014 	andeq	r0, r0, r4, lsl r0
 26c:	0000013c 	andeq	r0, r0, ip, lsr r1
 270:	01500a24 	cmpeq	r0, r4, lsr #20
 274:	00000020 	andeq	r0, r0, r0, lsr #32
 278:	84080e42 	strhi	r0, [r8], #-3650	; 0xe42
 27c:	00018e02 	andeq	r8, r1, r2, lsl #28
 280:	00000014 	andeq	r0, r0, r4, lsl r0
 284:	0000013c 	andeq	r0, r0, ip, lsr r1
 288:	01500a44 	cmpeq	r0, r4, asr #20
 28c:	00000020 	andeq	r0, r0, r0, lsr #32
 290:	84080e42 	strhi	r0, [r8], #-3650	; 0xe42
 294:	00018e02 	andeq	r8, r1, r2, lsl #28
 298:	00000014 	andeq	r0, r0, r4, lsl r0
 29c:	0000013c 	andeq	r0, r0, ip, lsr r1
 2a0:	01500a64 	cmpeq	r0, r4, ror #20
 2a4:	00000020 	andeq	r0, r0, r0, lsr #32
 2a8:	84080e42 	strhi	r0, [r8], #-3650	; 0xe42
 2ac:	00018e02 	andeq	r8, r1, r2, lsl #28
 2b0:	00000014 	andeq	r0, r0, r4, lsl r0
 2b4:	0000013c 	andeq	r0, r0, ip, lsr r1
 2b8:	01500a84 	cmpeq	r0, r4, lsl #21
 2bc:	00000020 	andeq	r0, r0, r0, lsr #32
 2c0:	84080e42 	strhi	r0, [r8], #-3650	; 0xe42
 2c4:	00018e02 	andeq	r8, r1, r2, lsl #28
 2c8:	00000014 	andeq	r0, r0, r4, lsl r0
 2cc:	0000013c 	andeq	r0, r0, ip, lsr r1
 2d0:	01500aa4 	cmpeq	r0, r4, lsr #21
 2d4:	00000020 	andeq	r0, r0, r0, lsr #32
 2d8:	84080e42 	strhi	r0, [r8], #-3650	; 0xe42
 2dc:	00018e02 	andeq	r8, r1, r2, lsl #28
 2e0:	00000014 	andeq	r0, r0, r4, lsl r0
 2e4:	0000013c 	andeq	r0, r0, ip, lsr r1
 2e8:	01500ac4 	cmpeq	r0, r4, asr #21
 2ec:	00000020 	andeq	r0, r0, r0, lsr #32
 2f0:	84080e42 	strhi	r0, [r8], #-3650	; 0xe42
 2f4:	00018e02 	andeq	r8, r1, r2, lsl #28
 2f8:	00000018 	andeq	r0, r0, r8, lsl r0
 2fc:	0000013c 	andeq	r0, r0, ip, lsr r1
 300:	01500ae4 	cmpeq	r0, r4, ror #21
 304:	00000020 	andeq	r0, r0, r0, lsr #32
 308:	84080e42 	strhi	r0, [r8], #-3650	; 0xe42
 30c:	4c018e02 	stcmi	14, cr8, [r1], {2}
 310:	000ec4ce 	andeq	ip, lr, lr, asr #9
 314:	00000014 	andeq	r0, r0, r4, lsl r0
 318:	0000013c 	andeq	r0, r0, ip, lsr r1
 31c:	01500b04 	cmpeq	r0, r4, lsl #22
 320:	00000020 	andeq	r0, r0, r0, lsr #32
 324:	84080e42 	strhi	r0, [r8], #-3650	; 0xe42
 328:	00018e02 	andeq	r8, r1, r2, lsl #28
 32c:	00000014 	andeq	r0, r0, r4, lsl r0
 330:	0000013c 	andeq	r0, r0, ip, lsr r1
 334:	01500b24 	cmpeq	r0, r4, lsr #22
 338:	00000020 	andeq	r0, r0, r0, lsr #32
 33c:	84080e42 	strhi	r0, [r8], #-3650	; 0xe42
 340:	00018e02 	andeq	r8, r1, r2, lsl #28
 344:	00000014 	andeq	r0, r0, r4, lsl r0
 348:	0000013c 	andeq	r0, r0, ip, lsr r1
 34c:	01500b44 	cmpeq	r0, r4, asr #22
 350:	00000020 	andeq	r0, r0, r0, lsr #32
 354:	84080e42 	strhi	r0, [r8], #-3650	; 0xe42
 358:	00018e02 	andeq	r8, r1, r2, lsl #28
 35c:	00000014 	andeq	r0, r0, r4, lsl r0
 360:	0000013c 	andeq	r0, r0, ip, lsr r1
 364:	01500b64 	cmpeq	r0, r4, ror #22
 368:	00000020 	andeq	r0, r0, r0, lsr #32
 36c:	84080e42 	strhi	r0, [r8], #-3650	; 0xe42
 370:	00018e02 	andeq	r8, r1, r2, lsl #28
 374:	00000014 	andeq	r0, r0, r4, lsl r0
 378:	0000013c 	andeq	r0, r0, ip, lsr r1
 37c:	01500b84 	cmpeq	r0, r4, lsl #23
 380:	0000006c 	andeq	r0, r0, ip, rrx
 384:	84080e46 	strhi	r0, [r8], #-3654	; 0xe46
 388:	00018e02 	andeq	r8, r1, r2, lsl #28
 38c:	00000014 	andeq	r0, r0, r4, lsl r0
 390:	0000013c 	andeq	r0, r0, ip, lsr r1
 394:	01500bf0 	ldrsheq	r0, [r0, #-176]	; 0xffffff50
 398:	0000006c 	andeq	r0, r0, ip, rrx
 39c:	84080e46 	strhi	r0, [r8], #-3654	; 0xe46
 3a0:	00018e02 	andeq	r8, r1, r2, lsl #28
 3a4:	00000014 	andeq	r0, r0, r4, lsl r0
 3a8:	0000013c 	andeq	r0, r0, ip, lsr r1
 3ac:	01500c5c 	cmpeq	r0, ip, asr ip
 3b0:	0000009c 	muleq	r0, ip, r0
 3b4:	84080e42 	strhi	r0, [r8], #-3650	; 0xe42
 3b8:	00018e02 	andeq	r8, r1, r2, lsl #28
 3bc:	00000018 	andeq	r0, r0, r8, lsl r0
 3c0:	0000013c 	andeq	r0, r0, ip, lsr r1
 3c4:	01500cf8 	ldrsheq	r0, [r0, #-200]	; 0xffffff38
 3c8:	00000080 	andeq	r0, r0, r0, lsl #1
 3cc:	8e040e4e 	cdphi	14, 0, cr0, cr4, cr14, {2}
 3d0:	000e6e01 	andeq	r6, lr, r1, lsl #28
 3d4:	000000ce 	andeq	r0, r0, lr, asr #1
 3d8:	00000018 	andeq	r0, r0, r8, lsl r0
 3dc:	0000013c 	andeq	r0, r0, ip, lsr r1
 3e0:	01500d78 	cmpeq	r0, r8, ror sp
 3e4:	00000054 	andeq	r0, r0, r4, asr r0
 3e8:	8e040e48 	cdphi	14, 0, cr0, cr4, cr8, {2}
 3ec:	000e5e01 	andeq	r5, lr, r1, lsl #28
 3f0:	000000ce 	andeq	r0, r0, lr, asr #1
 3f4:	00000014 	andeq	r0, r0, r4, lsl r0
 3f8:	0000013c 	andeq	r0, r0, ip, lsr r1
 3fc:	01500dcc 	cmpeq	r0, ip, asr #27
 400:	00000044 	andeq	r0, r0, r4, asr #32
 404:	84080e42 	strhi	r0, [r8], #-3650	; 0xe42
 408:	00018e02 	andeq	r8, r1, r2, lsl #28
 40c:	0000000c 	andeq	r0, r0, ip
 410:	ffffffff 			; <UNDEFINED> instruction: 0xffffffff
 414:	7c020001 	stcvc	0, cr0, [r2], {1}
 418:	000d0c0e 	andeq	r0, sp, lr, lsl #24
 41c:	00000018 	andeq	r0, r0, r8, lsl r0
 420:	0000040c 	andeq	r0, r0, ip, lsl #8
 424:	01500e10 	cmpeq	r0, r0, lsl lr
 428:	00000070 	andeq	r0, r0, r0, ror r0
 42c:	84100e42 	ldrhi	r0, [r0], #-3650	; 0xe42
 430:	86038504 	strhi	r8, [r3], -r4, lsl #10
 434:	00018e02 	andeq	r8, r1, r2, lsl #28
 438:	0000000c 	andeq	r0, r0, ip
 43c:	0000040c 	andeq	r0, r0, ip, lsl #8
 440:	01500e80 	cmpeq	r0, r0, lsl #29
 444:	00000034 	andeq	r0, r0, r4, lsr r0
 448:	00000020 	andeq	r0, r0, r0, lsr #32
 44c:	0000040c 	andeq	r0, r0, ip, lsl #8
 450:	01500eb4 	ldrheq	r0, [r0, #-228]	; 0xffffff1c
 454:	00000108 	andeq	r0, r0, r8, lsl #2
 458:	84100e46 	ldrhi	r0, [r0], #-3654	; 0xe46
 45c:	86038504 	strhi	r8, [r3], -r4, lsl #10
 460:	02018e02 	andeq	r8, r1, #2, 28
 464:	c4000e7a 	strgt	r0, [r0], #-3706	; 0xe7a
 468:	00cec6c5 	sbceq	ip, lr, r5, asr #13
 46c:	0000000c 	andeq	r0, r0, ip
 470:	0000040c 	andeq	r0, r0, ip, lsl #8
 474:	01500fbc 	ldrheq	r0, [r0, #-252]	; 0xffffff04
 478:	00000008 	andeq	r0, r0, r8
 47c:	00000028 	andeq	r0, r0, r8, lsr #32
 480:	0000040c 	andeq	r0, r0, ip, lsl #8
 484:	01500fc4 	cmpeq	r0, r4, asr #31
 488:	00000270 	andeq	r0, r0, r0, ror r2
 48c:	840c0e42 	strhi	r0, [ip], #-3650	; 0xe42
 490:	8e028503 	cfsh32hi	mvfx8, mvfx2, #3
 494:	200e4801 	andcs	r4, lr, r1, lsl #16
 498:	0e0a8a02 	vmlaeq.f32	s16, s20, s4
 49c:	5c0b420c 	sfmpl	f4, 4, [fp], {12}
 4a0:	420c0e0a 	andmi	r0, ip, #10, 28	; 0xa0
 4a4:	0000000b 	andeq	r0, r0, fp
 4a8:	00000028 	andeq	r0, r0, r8, lsr #32
 4ac:	0000040c 	andeq	r0, r0, ip, lsl #8
 4b0:	01501234 	cmpeq	r0, r4, lsr r2
 4b4:	00000090 	muleq	r0, r0, r0
 4b8:	84180e42 	ldrhi	r0, [r8], #-3650	; 0xe42
 4bc:	86058506 	strhi	r8, [r5], -r6, lsl #10
 4c0:	88038704 	stmdahi	r3, {r2, r8, r9, sl, pc}
 4c4:	70018e02 	andvc	r8, r1, r2, lsl #28
 4c8:	c7c8ce0a 	strbgt	ip, [r8, sl, lsl #28]
 4cc:	0ec4c5c6 	cdpeq	5, 12, cr12, cr4, cr6, {6}
 4d0:	000b4200 	andeq	r4, fp, r0, lsl #4
 4d4:	00000028 	andeq	r0, r0, r8, lsr #32
 4d8:	0000040c 	andeq	r0, r0, ip, lsl #8
 4dc:	015012c4 	cmpeq	r0, r4, asr #5
 4e0:	00000090 	muleq	r0, r0, r0
 4e4:	84180e42 	ldrhi	r0, [r8], #-3650	; 0xe42
 4e8:	86058506 	strhi	r8, [r5], -r6, lsl #10
 4ec:	88038704 	stmdahi	r3, {r2, r8, r9, sl, pc}
 4f0:	70018e02 	andvc	r8, r1, r2, lsl #28
 4f4:	c7c8ce0a 	strbgt	ip, [r8, sl, lsl #28]
 4f8:	0ec4c5c6 	cdpeq	5, 12, cr12, cr4, cr6, {6}
 4fc:	000b4200 	andeq	r4, fp, r0, lsl #4
 500:	00000028 	andeq	r0, r0, r8, lsr #32
 504:	0000040c 	andeq	r0, r0, ip, lsl #8
 508:	01501354 	cmpeq	r0, r4, asr r3
 50c:	00000094 	muleq	r0, r4, r0
 510:	84180e42 	ldrhi	r0, [r8], #-3650	; 0xe42
 514:	86058506 	strhi	r8, [r5], -r6, lsl #10
 518:	88038704 	stmdahi	r3, {r2, r8, r9, sl, pc}
 51c:	70018e02 	andvc	r8, r1, r2, lsl #28
 520:	c7c8ce0a 	strbgt	ip, [r8, sl, lsl #28]
 524:	0ec4c5c6 	cdpeq	5, 12, cr12, cr4, cr6, {6}
 528:	000b4200 	andeq	r4, fp, r0, lsl #4
 52c:	0000001c 	andeq	r0, r0, ip, lsl r0
 530:	0000040c 	andeq	r0, r0, ip, lsl #8
 534:	015013e8 	cmpeq	r0, r8, ror #7
 538:	000000ec 	andeq	r0, r0, ip, ror #1
 53c:	84180e42 	ldrhi	r0, [r8], #-3650	; 0xe42
 540:	86058506 	strhi	r8, [r5], -r6, lsl #10
 544:	88038704 	stmdahi	r3, {r2, r8, r9, sl, pc}
 548:	00018e02 	andeq	r8, r1, r2, lsl #28
 54c:	00000024 	andeq	r0, r0, r4, lsr #32
 550:	0000040c 	andeq	r0, r0, ip, lsl #8
 554:	015014d4 	ldrsbeq	r1, [r0, #-68]	; 0xffffffbc
 558:	00000070 	andeq	r0, r0, r0, ror r0
 55c:	84100e42 	ldrhi	r0, [r0], #-3650	; 0xe42
 560:	86038504 	strhi	r8, [r3], -r4, lsl #10
 564:	70018e02 	andvc	r8, r1, r2, lsl #28
 568:	c5c6ce0a 	strbgt	ip, [r6, #3594]	; 0xe0a
 56c:	42000ec4 	andmi	r0, r0, #196, 28	; 0xc40
 570:	0000000b 	andeq	r0, r0, fp
 574:	00000028 	andeq	r0, r0, r8, lsr #32
 578:	0000040c 	andeq	r0, r0, ip, lsl #8
 57c:	01501544 	cmpeq	r0, r4, asr #10
 580:	00000158 	andeq	r0, r0, r8, asr r1
 584:	84180e4c 	ldrhi	r0, [r8], #-3660	; 0xe4c
 588:	86058506 	strhi	r8, [r5], -r6, lsl #10
 58c:	88038704 	stmdahi	r3, {r2, r8, r9, sl, pc}
 590:	02018e02 	andeq	r8, r1, #2, 28
 594:	c4000e9c 	strgt	r0, [r0], #-3740	; 0xe9c
 598:	c8c7c6c5 	stmiagt	r7, {r0, r2, r6, r7, r9, sl, lr, pc}^
 59c:	000000ce 	andeq	r0, r0, lr, asr #1
 5a0:	00000040 	andeq	r0, r0, r0, asr #32
 5a4:	0000040c 	andeq	r0, r0, ip, lsl #8
 5a8:	0150169c 			; <UNDEFINED> instruction: 0x0150169c
 5ac:	000000cc 	andeq	r0, r0, ip, asr #1
 5b0:	84180e48 	ldrhi	r0, [r8], #-3656	; 0xe48
 5b4:	86058506 	strhi	r8, [r5], -r6, lsl #10
 5b8:	88038704 	stmdahi	r3, {r2, r8, r9, sl, pc}
 5bc:	74018e02 	strvc	r8, [r1], #-3586	; 0xe02
 5c0:	c7c8ce0a 	strbgt	ip, [r8, sl, lsl #28]
 5c4:	0ec4c5c6 	cdpeq	5, 12, cr12, cr4, cr6, {6}
 5c8:	600b4200 	andvs	r4, fp, r0, lsl #4
 5cc:	c5c4000e 	strbgt	r0, [r4, #14]
 5d0:	cec8c7c6 	cdpgt	7, 12, cr12, cr8, cr6, {6}
 5d4:	84180e44 	ldrhi	r0, [r8], #-3652	; 0xe44
 5d8:	86058506 	strhi	r8, [r5], -r6, lsl #10
 5dc:	88038704 	stmdahi	r3, {r2, r8, r9, sl, pc}
 5e0:	00018e02 	andeq	r8, r1, r2, lsl #28
 5e4:	00000028 	andeq	r0, r0, r8, lsr #32
 5e8:	0000040c 	andeq	r0, r0, ip, lsl #8
 5ec:	01501768 	cmpeq	r0, r8, ror #14
 5f0:	0000017c 	andeq	r0, r0, ip, ror r1
 5f4:	84100e42 	ldrhi	r0, [r0], #-3650	; 0xe42
 5f8:	86038504 	strhi	r8, [r3], -r4, lsl #10
 5fc:	46018e02 	strmi	r8, [r1], -r2, lsl #28
 600:	0202900e 	andeq	r9, r2, #14
 604:	100e0a9c 	mulne	lr, ip, sl
 608:	0a4a0b42 	beq	1283318 <_back_addr-0x27cce8>
 60c:	0b42100e 	bleq	108464c <_back_addr-0x47b9b4>
 610:	00000028 	andeq	r0, r0, r8, lsr #32
 614:	0000040c 	andeq	r0, r0, ip, lsl #8
 618:	015018e4 	cmpeq	r0, r4, ror #17
 61c:	00000108 	andeq	r0, r0, r8, lsl #2
 620:	84180e4c 	ldrhi	r0, [r8], #-3660	; 0xe4c
 624:	86058506 	strhi	r8, [r5], -r6, lsl #10
 628:	88038704 	stmdahi	r3, {r2, r8, r9, sl, pc}
 62c:	02018e02 	andeq	r8, r1, #2, 28
 630:	c8ce0a40 	stmiagt	lr, {r6, r9, fp}^
 634:	c4c5c6c7 	strbgt	ip, [r5], #1735	; 0x6c7
 638:	0b42000e 	bleq	1080678 <_back_addr-0x47f988>
 63c:	0000000c 	andeq	r0, r0, ip
 640:	0000040c 	andeq	r0, r0, ip, lsl #8
 644:	015019ec 	cmpeq	r0, ip, ror #19
 648:	00000028 	andeq	r0, r0, r8, lsr #32
 64c:	0000000c 	andeq	r0, r0, ip
 650:	ffffffff 			; <UNDEFINED> instruction: 0xffffffff
 654:	7c020001 	stcvc	0, cr0, [r2], {1}
 658:	000d0c0e 	andeq	r0, sp, lr, lsl #24
 65c:	00000024 	andeq	r0, r0, r4, lsr #32
 660:	0000064c 	andeq	r0, r0, ip, asr #12
 664:	01501a14 	cmpeq	r0, r4, lsl sl
 668:	000001bc 			; <UNDEFINED> instruction: 0x000001bc
 66c:	84140e42 	ldrhi	r0, [r4], #-3650	; 0xe42
 670:	86048505 	strhi	r8, [r4], -r5, lsl #10
 674:	8e028703 	cdphi	7, 0, cr8, cr2, cr3, {0}
 678:	280e4601 	stmdacs	lr, {r0, r9, sl, lr}
 67c:	0e0aa202 	cdpeq	2, 0, cr10, cr10, cr2, {0}
 680:	000b4214 	andeq	r4, fp, r4, lsl r2
 684:	0000001c 	andeq	r0, r0, ip, lsl r0
 688:	0000064c 	andeq	r0, r0, ip, asr #12
 68c:	01501bd0 	ldrsbeq	r1, [r0, #-176]	; 0xffffff50
 690:	000000f4 	strdeq	r0, [r0], -r4
 694:	84180e42 	ldrhi	r0, [r8], #-3650	; 0xe42
 698:	86058506 	strhi	r8, [r5], -r6, lsl #10
 69c:	88038704 	stmdahi	r3, {r2, r8, r9, sl, pc}
 6a0:	00018e02 	andeq	r8, r1, r2, lsl #28
 6a4:	00000044 	andeq	r0, r0, r4, asr #32
 6a8:	0000064c 	andeq	r0, r0, ip, asr #12
 6ac:	01501cc4 	cmpeq	r0, r4, asr #25
 6b0:	00000684 	andeq	r0, r0, r4, lsl #13
 6b4:	84240e42 	strthi	r0, [r4], #-3650	; 0xe42
 6b8:	86088509 	strhi	r8, [r8], -r9, lsl #10
 6bc:	88068707 	stmdahi	r6, {r0, r1, r2, r8, r9, sl, pc}
 6c0:	8a048905 	bhi	122adc <_back_addr-0x13dd524>
 6c4:	8e028b03 	vmlahi.f64	d8, d2, d3
 6c8:	900e4601 	andls	r4, lr, r1, lsl #12
 6cc:	0a820205 	beq	fe080ee8 <__bss_end__+0xfcb6d3a8>
 6d0:	0b42240e 	bleq	1089710 <_back_addr-0x4768f0>
 6d4:	0a012003 	beq	486e8 <_back_addr-0x14b7918>
 6d8:	0b42240e 	bleq	1089718 <_back_addr-0x4768e8>
 6dc:	240e0a4e 	strcs	r0, [lr], #-2638	; 0xa4e
 6e0:	02030b42 	andeq	r0, r3, #67584	; 0x10800
 6e4:	240e0a01 	strcs	r0, [lr], #-2561	; 0xa01
 6e8:	00000b42 	andeq	r0, r0, r2, asr #22
 6ec:	00000020 	andeq	r0, r0, r0, lsr #32
 6f0:	0000064c 	andeq	r0, r0, ip, asr #12
 6f4:	01502348 	cmpeq	r0, r8, asr #6
 6f8:	000002c4 	andeq	r0, r0, r4, asr #5
 6fc:	84080e42 	strhi	r0, [r8], #-3650	; 0xe42
 700:	46018e02 	strmi	r8, [r1], -r2, lsl #28
 704:	030c880e 	movweq	r8, #51214	; 0xc80e
 708:	0e0a0150 	flteqem	f2, r0
 70c:	000b4208 	andeq	r4, fp, r8, lsl #4
 710:	0000000c 	andeq	r0, r0, ip
 714:	0000064c 	andeq	r0, r0, ip, asr #12
 718:	0150260c 	cmpeq	r0, ip, lsl #12
 71c:	00000008 	andeq	r0, r0, r8
 720:	0000000c 	andeq	r0, r0, ip
 724:	ffffffff 			; <UNDEFINED> instruction: 0xffffffff
 728:	7c020001 	stcvc	0, cr0, [r2], {1}
 72c:	000d0c0e 	andeq	r0, sp, lr, lsl #24
 730:	00000014 	andeq	r0, r0, r4, lsl r0
 734:	00000720 	andeq	r0, r0, r0, lsr #14
 738:	01502614 	cmpeq	r0, r4, lsl r6
 73c:	00000058 	andeq	r0, r0, r8, asr r0
 740:	84080e58 	strhi	r0, [r8], #-3672	; 0xe58
 744:	00018e02 	andeq	r8, r1, r2, lsl #28
 748:	0000000c 	andeq	r0, r0, ip
 74c:	00000720 	andeq	r0, r0, r0, lsr #14
 750:	0150266c 	cmpeq	r0, ip, ror #12
 754:	0000002c 	andeq	r0, r0, ip, lsr #32
 758:	0000000c 	andeq	r0, r0, ip
 75c:	00000720 	andeq	r0, r0, r0, lsr #14
 760:	01502698 			; <UNDEFINED> instruction: 0x01502698
 764:	00000030 	andeq	r0, r0, r0, lsr r0
 768:	00000014 	andeq	r0, r0, r4, lsl r0
 76c:	00000720 	andeq	r0, r0, r0, lsr #14
 770:	015026c8 	cmpeq	r0, r8, asr #13
 774:	0000005c 	andeq	r0, r0, ip, asr r0
 778:	8e040e50 	mcrhi	14, 0, r0, cr4, cr0, {2}
 77c:	00000001 	andeq	r0, r0, r1
 780:	00000014 	andeq	r0, r0, r4, lsl r0
 784:	00000720 	andeq	r0, r0, r0, lsr #14
 788:	01502724 	cmpeq	r0, r4, lsr #14
 78c:	00000058 	andeq	r0, r0, r8, asr r0
 790:	8e040e4e 	cdphi	14, 0, cr0, cr4, cr14, {2}
 794:	00000001 	andeq	r0, r0, r1
 798:	0000000c 	andeq	r0, r0, ip
 79c:	ffffffff 			; <UNDEFINED> instruction: 0xffffffff
 7a0:	7c020001 	stcvc	0, cr0, [r2], {1}
 7a4:	000d0c0e 	andeq	r0, sp, lr, lsl #24
 7a8:	0000000c 	andeq	r0, r0, ip
 7ac:	00000798 	muleq	r0, r8, r7
 7b0:	0150277c 	cmpeq	r0, ip, ror r7
 7b4:	0000001c 	andeq	r0, r0, ip, lsl r0
 7b8:	00000014 	andeq	r0, r0, r4, lsl r0
 7bc:	00000798 	muleq	r0, r8, r7
 7c0:	01502798 			; <UNDEFINED> instruction: 0x01502798
 7c4:	00000054 	andeq	r0, r0, r4, asr r0
 7c8:	84080e46 	strhi	r0, [r8], #-3654	; 0xe46
 7cc:	00018e02 	andeq	r8, r1, r2, lsl #28
 7d0:	0000000c 	andeq	r0, r0, ip
 7d4:	00000798 	muleq	r0, r8, r7
 7d8:	015027ec 	cmpeq	r0, ip, ror #15
 7dc:	00000028 	andeq	r0, r0, r8, lsr #32
 7e0:	0000000c 	andeq	r0, r0, ip
 7e4:	00000798 	muleq	r0, r8, r7
 7e8:	01502814 	cmpeq	r0, r4, lsl r8
 7ec:	00000068 	andeq	r0, r0, r8, rrx
 7f0:	00000024 	andeq	r0, r0, r4, lsr #32
 7f4:	00000798 	muleq	r0, r8, r7
 7f8:	0150287c 	cmpeq	r0, ip, ror r8
 7fc:	00000060 	andeq	r0, r0, r0, rrx
 800:	84180e4a 	ldrhi	r0, [r8], #-3658	; 0xe4a
 804:	86058506 	strhi	r8, [r5], -r6, lsl #10
 808:	88038704 	stmdahi	r3, {r2, r8, r9, sl, pc}
 80c:	62018e02 	andvs	r8, r1, #2, 28
 810:	c6c7c8ce 	strbgt	ip, [r7], lr, asr #17
 814:	000ec4c5 	andeq	ip, lr, r5, asr #9
 818:	0000000c 	andeq	r0, r0, ip
 81c:	00000798 	muleq	r0, r8, r7
 820:	015028dc 	ldrsbeq	r2, [r0, #-140]	; 0xffffff74
 824:	00000050 	andeq	r0, r0, r0, asr r0
 828:	0000000c 	andeq	r0, r0, ip
 82c:	00000798 	muleq	r0, r8, r7
 830:	0150292c 	cmpeq	r0, ip, lsr #18
 834:	00000008 	andeq	r0, r0, r8
 838:	0000000c 	andeq	r0, r0, ip
 83c:	00000798 	muleq	r0, r8, r7
 840:	01502934 	cmpeq	r0, r4, lsr r9
 844:	00000004 	andeq	r0, r0, r4
 848:	0000000c 	andeq	r0, r0, ip
 84c:	00000798 	muleq	r0, r8, r7
 850:	01502938 	cmpeq	r0, r8, lsr r9
 854:	00000024 	andeq	r0, r0, r4, lsr #32
 858:	0000000c 	andeq	r0, r0, ip
 85c:	00000798 	muleq	r0, r8, r7
 860:	0150295c 	cmpeq	r0, ip, asr r9
 864:	0000000c 	andeq	r0, r0, ip
 868:	00000014 	andeq	r0, r0, r4, lsl r0
 86c:	00000798 	muleq	r0, r8, r7
 870:	01502968 	cmpeq	r0, r8, ror #18
 874:	00000054 	andeq	r0, r0, r4, asr r0
 878:	84080e46 	strhi	r0, [r8], #-3654	; 0xe46
 87c:	00018e02 	andeq	r8, r1, r2, lsl #28
 880:	0000000c 	andeq	r0, r0, ip
 884:	00000798 	muleq	r0, r8, r7
 888:	015029bc 	ldrheq	r2, [r0, #-156]	; 0xffffff64
 88c:	00000034 	andeq	r0, r0, r4, lsr r0
 890:	0000002c 	andeq	r0, r0, ip, lsr #32
 894:	00000798 	muleq	r0, r8, r7
 898:	015029f0 	ldrsheq	r2, [r0, #-144]	; 0xffffff70
 89c:	000000b0 	strheq	r0, [r0], -r0	; <UNPREDICTABLE>
 8a0:	84100e46 	ldrhi	r0, [r0], #-3654	; 0xe46
 8a4:	86038504 	strhi	r8, [r3], -r4, lsl #10
 8a8:	02018e02 	andeq	r8, r1, #2, 28
 8ac:	c6ce0a48 	strbgt	r0, [lr], r8, asr #20
 8b0:	000ec4c5 	andeq	ip, lr, r5, asr #9
 8b4:	ce460b42 	vmlsgt.f64	d16, d6, d2
 8b8:	0ec4c5c6 	cdpeq	5, 12, cr12, cr4, cr6, {6}
 8bc:	00000000 	andeq	r0, r0, r0
 8c0:	0000000c 	andeq	r0, r0, ip
 8c4:	00000798 	muleq	r0, r8, r7
 8c8:	01502aa0 	cmpeq	r0, r0, lsr #21
 8cc:	00000024 	andeq	r0, r0, r4, lsr #32
 8d0:	0000000c 	andeq	r0, r0, ip
 8d4:	00000798 	muleq	r0, r8, r7
 8d8:	01502ac4 	cmpeq	r0, r4, asr #21
 8dc:	0000001c 	andeq	r0, r0, ip, lsl r0
 8e0:	00000018 	andeq	r0, r0, r8, lsl r0
 8e4:	00000798 	muleq	r0, r8, r7
 8e8:	01502ae0 	cmpeq	r0, r0, ror #21
 8ec:	0000009c 	muleq	r0, ip, r0
 8f0:	64080e44 	strvs	r0, [r8], #-3652	; 0xe44
 8f4:	42000e0a 	andmi	r0, r0, #10, 28	; 0xa0
 8f8:	000e620b 	andeq	r6, lr, fp, lsl #4
 8fc:	00000018 	andeq	r0, r0, r8, lsl r0
 900:	00000798 	muleq	r0, r8, r7
 904:	01502b7c 	cmpeq	r0, ip, ror fp
 908:	00000058 	andeq	r0, r0, r8, asr r0
 90c:	8e040e46 	cdphi	14, 0, cr0, cr4, cr6, {2}
 910:	000e6201 	andeq	r6, lr, r1, lsl #4
 914:	000000ce 	andeq	r0, r0, lr, asr #1
 918:	0000000c 	andeq	r0, r0, ip
 91c:	00000798 	muleq	r0, r8, r7
 920:	01502bd4 	ldrsbeq	r2, [r0, #-180]	; 0xffffff4c
 924:	00000044 	andeq	r0, r0, r4, asr #32
 928:	0000000c 	andeq	r0, r0, ip
 92c:	00000798 	muleq	r0, r8, r7
 930:	01502c18 	cmpeq	r0, r8, lsl ip
 934:	00000028 	andeq	r0, r0, r8, lsr #32
 938:	0000000c 	andeq	r0, r0, ip
 93c:	00000798 	muleq	r0, r8, r7
 940:	01502c40 	cmpeq	r0, r0, asr #24
 944:	00000004 	andeq	r0, r0, r4
 948:	0000000c 	andeq	r0, r0, ip
 94c:	ffffffff 			; <UNDEFINED> instruction: 0xffffffff
 950:	7c020001 	stcvc	0, cr0, [r2], {1}
 954:	000d0c0e 	andeq	r0, sp, lr, lsl #24
 958:	00000020 	andeq	r0, r0, r0, lsr #32
 95c:	00000948 	andeq	r0, r0, r8, asr #18
 960:	01502c44 	cmpeq	r0, r4, asr #24
 964:	000000e4 	andeq	r0, r0, r4, ror #1
 968:	841c0e42 	ldrhi	r0, [ip], #-3650	; 0xe42
 96c:	86068507 	strhi	r8, [r6], -r7, lsl #10
 970:	88048705 	stmdahi	r4, {r0, r2, r8, r9, sl, pc}
 974:	8e028903 	cdphi	9, 0, cr8, cr2, cr3, {0}
 978:	00000001 	andeq	r0, r0, r1
 97c:	0000000c 	andeq	r0, r0, ip
 980:	00000948 	andeq	r0, r0, r8, asr #18
 984:	01502d28 	cmpeq	r0, r8, lsr #26
 988:	00000018 	andeq	r0, r0, r8, lsl r0
 98c:	0000000c 	andeq	r0, r0, ip
 990:	00000948 	andeq	r0, r0, r8, asr #18
 994:	01502d40 	cmpeq	r0, r0, asr #26
 998:	00000004 	andeq	r0, r0, r4
 99c:	0000000c 	andeq	r0, r0, ip
 9a0:	00000948 	andeq	r0, r0, r8, asr #18
 9a4:	01502d44 	cmpeq	r0, r4, asr #26
 9a8:	00000004 	andeq	r0, r0, r4
 9ac:	0000000c 	andeq	r0, r0, ip
 9b0:	00000948 	andeq	r0, r0, r8, asr #18
 9b4:	01502d48 	cmpeq	r0, r8, asr #26
 9b8:	00000004 	andeq	r0, r0, r4
 9bc:	00000018 	andeq	r0, r0, r8, lsl r0
 9c0:	00000948 	andeq	r0, r0, r8, asr #18
 9c4:	01502d4c 	cmpeq	r0, ip, asr #26
 9c8:	00000014 	andeq	r0, r0, r4, lsl r0
 9cc:	84080e42 	strhi	r0, [r8], #-3650	; 0xe42
 9d0:	46018e02 	strmi	r8, [r1], -r2, lsl #28
 9d4:	000ec4ce 	andeq	ip, lr, lr, asr #9
 9d8:	0000000c 	andeq	r0, r0, ip
 9dc:	00000948 	andeq	r0, r0, r8, asr #18
 9e0:	01502d60 	cmpeq	r0, r0, ror #26
 9e4:	00000004 	andeq	r0, r0, r4
 9e8:	00000018 	andeq	r0, r0, r8, lsl r0
 9ec:	00000948 	andeq	r0, r0, r8, asr #18
 9f0:	01502d64 	cmpeq	r0, r4, ror #26
 9f4:	00000014 	andeq	r0, r0, r4, lsl r0
 9f8:	84080e42 	strhi	r0, [r8], #-3650	; 0xe42
 9fc:	46018e02 	strmi	r8, [r1], -r2, lsl #28
 a00:	000ec4ce 	andeq	ip, lr, lr, asr #9
 a04:	00000014 	andeq	r0, r0, r4, lsl r0
 a08:	00000948 	andeq	r0, r0, r8, asr #18
 a0c:	01502d78 	cmpeq	r0, r8, ror sp
 a10:	00000030 	andeq	r0, r0, r0, lsr r0
 a14:	84080e42 	strhi	r0, [r8], #-3650	; 0xe42
 a18:	00018e02 	andeq	r8, r1, r2, lsl #28
 a1c:	0000000c 	andeq	r0, r0, ip
 a20:	00000948 	andeq	r0, r0, r8, asr #18
 a24:	01502da8 	cmpeq	r0, r8, lsr #27
 a28:	00000004 	andeq	r0, r0, r4
 a2c:	0000000c 	andeq	r0, r0, ip
 a30:	00000948 	andeq	r0, r0, r8, asr #18
 a34:	01502dac 	cmpeq	r0, ip, lsr #27
 a38:	0000003c 	andeq	r0, r0, ip, lsr r0
 a3c:	0000000c 	andeq	r0, r0, ip
 a40:	00000948 	andeq	r0, r0, r8, asr #18
 a44:	01502de8 	cmpeq	r0, r8, ror #27
 a48:	00000008 	andeq	r0, r0, r8
 a4c:	0000000c 	andeq	r0, r0, ip
 a50:	00000948 	andeq	r0, r0, r8, asr #18
 a54:	01502df0 	ldrsheq	r2, [r0, #-208]	; 0xffffff30
 a58:	00000004 	andeq	r0, r0, r4
 a5c:	00000018 	andeq	r0, r0, r8, lsl r0
 a60:	00000948 	andeq	r0, r0, r8, asr #18
 a64:	01502df4 	ldrsheq	r2, [r0, #-212]	; 0xffffff2c
 a68:	00000068 	andeq	r0, r0, r8, rrx
 a6c:	8e040e42 	cdphi	14, 0, cr0, cr4, cr2, {2}
 a70:	0ece7001 	cdpeq	0, 12, cr7, cr14, cr1, {0}
 a74:	00000000 	andeq	r0, r0, r0

Disassembly of section .debug_str:

00000000 <.debug_str>:
       0:	6c727473 	cfldrdvs	mvd7, [r2], #-460	; 0xfffffe34
       4:	632e6e65 	teqvs	lr, #1616	; 0x650
       8:	72747300 	rsbsvc	r7, r4, #0, 6
       c:	006e656c 	rsbeq	r6, lr, ip, ror #10
      10:	69736e75 	ldmdbvs	r3!, {r0, r2, r4, r5, r6, r9, sl, fp, sp, lr}^
      14:	64656e67 	strbtvs	r6, [r5], #-3687	; 0xe67
      18:	61686320 	cmnvs	r8, r0, lsr #6
      1c:	68730072 	ldmdavs	r3!, {r1, r4, r5, r6}^
      20:	2074726f 	rsbscs	r7, r4, pc, ror #4
      24:	69736e75 	ldmdbvs	r3!, {r0, r2, r4, r5, r6, r9, sl, fp, sp, lr}^
      28:	64656e67 	strbtvs	r6, [r5], #-3687	; 0xe67
      2c:	746e6920 	strbtvc	r6, [lr], #-2336	; 0x920
      30:	6e6f6c00 	cdpvs	12, 6, cr6, cr15, cr0, {0}
      34:	6f6c2067 	svcvs	0x006c2067
      38:	7520676e 	strvc	r6, [r0, #-1902]!	; 0x76e
      3c:	6769736e 	strbvs	r7, [r9, -lr, ror #6]!
      40:	2064656e 	rsbcs	r6, r4, lr, ror #10
      44:	00746e69 	rsbseq	r6, r4, r9, ror #28
      48:	676e6f6c 	strbvs	r6, [lr, -ip, ror #30]!
      4c:	6e6f6c20 	cdpvs	12, 6, cr6, cr15, cr0, {1}
      50:	6e692067 	cdpvs	0, 6, cr2, cr9, cr7, {3}
      54:	68730074 	ldmdavs	r3!, {r2, r4, r5, r6}^
      58:	2074726f 	rsbscs	r7, r4, pc, ror #4
      5c:	00746e69 	rsbseq	r6, r4, r9, ror #28
      60:	20554e47 	subscs	r4, r5, r7, asr #28
      64:	2e342043 	cdpcs	0, 3, cr2, cr4, cr3, {2}
      68:	20332e39 	eorscs	r2, r3, r9, lsr lr
      6c:	35313032 	ldrcc	r3, [r1, #-50]!	; 0x32
      70:	33313430 	teqcc	r1, #48, 8	; 0x30000000
      74:	72702820 	rsbsvc	r2, r0, #32, 16	; 0x200000
      78:	6c657265 	sfmvs	f7, 2, [r5], #-404	; 0xfffffe6c
      7c:	65736165 	ldrbvs	r6, [r3, #-357]!	; 0x165
      80:	6d2d2029 	stcvs	0, cr2, [sp, #-164]!	; 0xffffff5c
      84:	7474696c 	ldrbtvc	r6, [r4], #-2412	; 0x96c
      88:	652d656c 	strvs	r6, [sp, #-1388]!	; 0x56c
      8c:	6169646e 	cmnvs	r9, lr, ror #8
      90:	6d2d206e 	stcvs	0, cr2, [sp, #-440]!	; 0xfffffe48
      94:	3d757066 	ldclcc	0, cr7, [r5, #-408]!	; 0xfffffe68
      98:	6e6f656e 	cdpvs	5, 6, cr6, cr15, cr14, {3}
      9c:	666d2d20 	strbtvs	r2, [sp], -r0, lsr #26
      a0:	74616f6c 	strbtvc	r6, [r1], #-3948	; 0xf6c
      a4:	6962612d 	stmdbvs	r2!, {r0, r2, r3, r5, r8, sp, lr}^
      a8:	666f733d 			; <UNDEFINED> instruction: 0x666f733d
      ac:	20706674 	rsbscs	r6, r0, r4, ror r6
      b0:	75746d2d 	ldrbvc	r6, [r4, #-3373]!	; 0xd2d
      b4:	633d656e 	teqvs	sp, #461373440	; 0x1b800000
      b8:	6574726f 	ldrbvs	r7, [r4, #-623]!	; 0x26f
      bc:	35612d78 	strbcc	r2, [r1, #-3448]!	; 0xd78
      c0:	6d2d2033 	stcvs	0, cr2, [sp, #-204]!	; 0xffffff34
      c4:	616f6c66 	cmnvs	pc, r6, ror #24
      c8:	62612d74 	rsbvs	r2, r1, #116, 26	; 0x1d00
      cc:	6f733d69 	svcvs	0x00733d69
      d0:	2d207466 	cfstrscs	mvf7, [r0, #-408]!	; 0xfffffe68
      d4:	7568746d 	strbvc	r7, [r8, #-1133]!	; 0x46d
      d8:	692d626d 	pushvs	{r0, r2, r3, r5, r6, r9, sp, lr}
      dc:	7265746e 	rsbvc	r7, r5, #1845493760	; 0x6e000000
      e0:	6b726f77 	blvs	1c9bec4 <__bss_end__+0x788384>
      e4:	616d2d20 	cmnvs	sp, r0, lsr #26
      e8:	2d206d72 	stccs	13, cr6, [r0, #-456]!	; 0xfffffe38
      ec:	6962616d 	stmdbvs	r2!, {r0, r2, r3, r5, r6, r8, sp, lr}^
      f0:	7061613d 	rsbvc	r6, r1, sp, lsr r1
      f4:	6c2d7363 	stcvs	3, cr7, [sp], #-396	; 0xfffffe74
      f8:	78756e69 	ldmdavc	r5!, {r0, r3, r5, r6, r9, sl, fp, sp, lr}^
      fc:	616d2d20 	cmnvs	sp, r0, lsr #26
     100:	3d686372 	stclcc	3, cr6, [r8, #-456]!	; 0xfffffe38
     104:	766d7261 	strbtvc	r7, [sp], -r1, ror #4
     108:	20612d38 	rsbcs	r2, r1, r8, lsr sp
     10c:	6c746d2d 	ldclvs	13, cr6, [r4], #-180	; 0xffffff4c
     110:	69642d73 	stmdbvs	r4!, {r0, r1, r4, r5, r6, r8, sl, fp, sp}^
     114:	63656c61 	cmnvs	r5, #24832	; 0x6100
     118:	6e673d74 	mcrvs	13, 3, r3, cr7, cr4, {3}
     11c:	672d2075 			; <UNDEFINED> instruction: 0x672d2075
     120:	324f2d20 	subcc	r2, pc, #32, 26	; 0x800
     124:	75662d20 	strbvc	r2, [r6, #-3360]!	; 0xd20
     128:	742d6573 	strtvc	r6, [sp], #-1395	; 0x573
     12c:	2d20736c 	stccs	3, cr7, [r0, #-432]!	; 0xfffffe50
     130:	2d6f6e66 	stclcs	14, cr6, [pc, #-408]!	; ffffffa0 <__bss_end__+0xfeaec460>
     134:	6d6d6f63 	stclvs	15, cr6, [sp, #-396]!	; 0xfffffe74
     138:	2d206e6f 	stccs	14, cr6, [r0, #-444]!	; 0xfffffe44
     13c:	72657a66 	rsbvc	r7, r5, #417792	; 0x66000
     140:	6e692d6f 	cdpvs	13, 6, cr2, cr9, cr15, {3}
     144:	61697469 	cmnvs	r9, r9, ror #8
     148:	657a696c 	ldrbvs	r6, [sl, #-2412]!	; 0x96c
     14c:	6e692d64 	cdpvs	13, 6, cr2, cr9, cr4, {3}
     150:	7373622d 	cmnvc	r3, #-805306366	; 0xd0000002
     154:	6e662d20 	cdpvs	13, 6, cr2, cr6, cr0, {1}
     158:	75622d6f 	strbvc	r2, [r2, #-3439]!	; 0xd6f
     15c:	69746c69 	ldmdbvs	r4!, {r0, r3, r5, r6, sl, fp, sp, lr}^
     160:	662d206e 	strtvs	r2, [sp], -lr, rrx
     164:	65657266 	strbvs	r7, [r5, #-614]!	; 0x266
     168:	6e617473 	mcrvs	4, 3, r7, cr1, cr3, {3}
     16c:	676e6964 	strbvs	r6, [lr, -r4, ror #18]!
     170:	61622f00 	cmnvs	r2, r0, lsl #30
     174:	70756b63 	rsbsvc	r6, r5, r3, ror #22
     178:	2f64772f 	svccs	0x0064772f
     17c:	746f6f62 	strbtvc	r6, [pc], #-3938	; 184 <_back_addr-0x14ffe7c>
     180:	65646f63 	strbvs	r6, [r4, #-3939]!	; 0xf63
     184:	6f62752f 	svcvs	0x0062752f
     188:	652f746f 	strvs	r7, [pc, #-1135]!	; fffffd21 <__bss_end__+0xfeaec1e1>
     18c:	706d6178 	rsbvc	r6, sp, r8, ror r1
     190:	2f73656c 	svccs	0x0073656c
     194:	73756665 	cmnvc	r5, #105906176	; 0x6500000
     198:	72705f65 	rsbsvc	r5, r0, #404	; 0x194
     19c:	6172676f 	cmnvs	r2, pc, ror #14
     1a0:	72656d6d 	rsbvc	r6, r5, #6976	; 0x1b40
     1a4:	72747300 	rsbsvc	r7, r4, #0, 6
     1a8:	2e727473 	mrccs	4, 3, r7, cr2, cr3, {3}
     1ac:	74730063 	ldrbtvc	r0, [r3], #-99	; 0x63
     1b0:	72747372 	rsbsvc	r7, r4, #-939524095	; 0xc8000001
     1b4:	646e6500 	strbtvs	r6, [lr], #-1280	; 0x500
     1b8:	00727470 	rsbseq	r7, r2, r0, ror r4
     1bc:	6c747563 	cfldr64vs	mvdx7, [r4], #-396	; 0xfffffe74
     1c0:	73006d69 	movwvc	r6, #3433	; 0xd69
     1c4:	6f747274 	svcvs	0x00747274
     1c8:	73006c75 	movwvc	r6, #3189	; 0xc75
     1cc:	6f747274 	svcvs	0x00747274
     1d0:	632e6c75 	teqvs	lr, #29952	; 0x7500
     1d4:	73616200 	cmnvc	r1, #0, 4
     1d8:	75630065 	strbvc	r0, [r3, #-101]!	; 0x65
     1dc:	66666f74 	uqsub16vs	r6, r6, r4
     1e0:	74635f00 	strbtvc	r5, [r3], #-3840	; 0xf00
     1e4:	00657079 	rsbeq	r7, r5, r9, ror r0
     1e8:	70797463 	rsbsvc	r7, r9, r3, ror #8
     1ec:	00632e65 	rsbeq	r2, r3, r5, ror #28
     1f0:	657a6973 	ldrbvs	r6, [sl, #-2419]!	; 0x973
     1f4:	65707974 	ldrbvs	r7, [r0, #-2420]!	; 0x974
     1f8:	66626f00 	strbtvs	r6, [r2], -r0, lsl #30
     1fc:	5f657375 	svcpl	0x00657375
     200:	73746567 	cmnvc	r4, #432013312	; 0x19c00000
     204:	45007465 	strmi	r7, [r0, #-1125]	; 0x465
     208:	5f4d554e 	svcpl	0x004d554e
     20c:	45505954 	ldrbmi	r5, [r0, #-2388]	; 0x954
     210:	4b4e555f 	blmi	1395794 <_back_addr-0x16a86c>
     214:	4e574f4e 	cdpmi	15, 5, cr4, cr7, cr14, {2}
     218:	554e4500 	strbpl	r4, [lr, #-1280]	; 0x500
     21c:	59545f4d 	ldmdbpl	r4, {r0, r2, r3, r6, r8, r9, sl, fp, ip, lr}^
     220:	415f4550 	cmpmi	pc, r0, asr r5	; <UNPREDICTABLE>
     224:	445f5345 	ldrbmi	r5, [pc], #-837	; 22c <_back_addr-0x14ffdd4>
     228:	4b5f4345 	blmi	17d0f44 <__bss_end__+0x2bd404>
     22c:	64005945 	strvs	r5, [r0], #-2373	; 0x945
     230:	00747365 	rsbseq	r7, r4, r5, ror #6
     234:	5f617372 	svcpl	0x00617372
     238:	5f627570 	svcpl	0x00627570
     23c:	5f79656b 	svcpl	0x0079656b
     240:	00646e65 	rsbeq	r6, r4, r5, ror #28
     244:	5f70636d 	svcpl	0x0070636d
     248:	70637364 	rsbvc	r7, r3, r4, ror #6
     24c:	64615f74 	strbtvs	r5, [r1], #-3956	; 0xf74
     250:	76007264 	strvc	r7, [r0], -r4, ror #4
     254:	7272615f 	rsbsvc	r6, r2, #-1073741801	; 0xc0000017
     258:	55007961 	strpl	r7, [r0, #-2401]	; 0x961
     25c:	33544e49 	cmpcc	r4, #1168	; 0x490
     260:	656d0032 	strbvs	r0, [sp, #-50]!	; 0x32
     264:	7970636d 	ldmdbvc	r0!, {r0, r2, r3, r5, r6, r8, r9, sp, lr}^
     268:	61747300 	cmnvs	r4, r0, lsl #6
     26c:	705f7472 	subsvc	r7, pc, r2, ror r4	; <UNPREDICTABLE>
     270:	72676f72 	rsbvc	r6, r7, #456	; 0x1c8
     274:	64006d61 	strvs	r6, [r0], #-3425	; 0xd61
     278:	72705f6f 	rsbsvc	r5, r0, #444	; 0x1bc
     27c:	6172676f 	cmnvs	r2, pc, ror #14
     280:	6561006d 	strbvs	r0, [r1, #-109]!	; 0x6d
     284:	656b5f73 	strbvs	r5, [fp, #-3955]!	; 0xf73
     288:	655f3379 	ldrbvs	r3, [pc, #-889]	; ffffff17 <__bss_end__+0xfeaec3d7>
     28c:	6500646e 	strvs	r6, [r0, #-1134]	; 0x46e
     290:	65737566 	ldrbvs	r7, [r3, #-1382]!	; 0x566
     294:	6e69616d 	powvsez	f6, f1, #5.0
     298:	6d00632e 	stcvs	3, cr6, [r0, #-184]	; 0xffffff48
     29c:	6d636d65 	stclvs	13, cr6, [r3, #-404]!	; 0xfffffe6c
     2a0:	4e450070 	mcrmi	0, 2, r0, cr5, cr0, {3}
     2a4:	545f4d55 	ldrbpl	r4, [pc], #-3413	; 2ac <_back_addr-0x14ffd54>
     2a8:	5f455059 	svcpl	0x00455059
     2ac:	5f534541 	svcpl	0x00534541
     2b0:	5f434544 	svcpl	0x00434544
     2b4:	44454553 	strbmi	r4, [r5], #-1363	; 0x553
     2b8:	73756300 	cmnvc	r5, #0, 6
     2bc:	61645f74 	smcvs	17908	; 0x45f4
     2c0:	655f6174 	ldrbvs	r6, [pc, #-372]	; 154 <_back_addr-0x14ffeac>
     2c4:	7000646e 	andvc	r6, r0, lr, ror #8
     2c8:	746e6972 	strbtvc	r6, [lr], #-2418	; 0x972
     2cc:	75630066 	strbvc	r0, [r3, #-102]!	; 0x66
     2d0:	645f7473 	ldrbvs	r7, [pc], #-1139	; 2d8 <_back_addr-0x14ffd28>
     2d4:	5f617461 	svcpl	0x00617461
     2d8:	657a6973 	ldrbvs	r6, [sl, #-2419]!	; 0x973
     2dc:	73656100 	cmnvc	r5, #0, 2
     2e0:	6565735f 	strbvs	r7, [r5, #-863]!	; 0x35f
     2e4:	69735f64 	ldmdbvs	r3!, {r2, r5, r6, r8, r9, sl, fp, ip, lr}^
     2e8:	6f00657a 	svcvs	0x0000657a
     2ec:	725f7074 	subsvc	r7, pc, #116	; 0x74
     2f0:	79727465 	ldmdbvc	r2!, {r0, r2, r5, r6, sl, ip, sp, lr}^
     2f4:	746e635f 	strbtvc	r6, [lr], #-863	; 0x35f
     2f8:	69727000 	ldmdbvs	r2!, {ip, sp, lr}^
     2fc:	0073746e 	rsbseq	r7, r3, lr, ror #8
     300:	38637273 	stmdacc	r3!, {r0, r1, r4, r5, r6, r9, ip, sp, lr}^
     304:	67726100 	ldrbvs	r6, [r2, -r0, lsl #2]!
     308:	65610076 	strbvs	r0, [r1, #-118]!	; 0x76
     30c:	656b5f73 	strbvs	r5, [fp, #-3955]!	; 0xf73
     310:	73640079 	cmnvc	r4, #121	; 0x79
     314:	72003874 	andvc	r3, r0, #116, 16	; 0x740000
     318:	705f6173 	subsvc	r6, pc, r3, ror r1	; <UNPREDICTABLE>
     31c:	6b5f6275 	blvs	17d8cf8 <__bss_end__+0x2c51b8>
     320:	61007965 	tstvs	r0, r5, ror #18
     324:	6b5f7365 	blvs	17dd0c0 <__bss_end__+0x2c9580>
     328:	5f327965 	svcpl	0x00327965
     32c:	657a6973 	ldrbvs	r6, [sl, #-2419]!	; 0x973
     330:	73656100 	cmnvc	r5, #0, 2
     334:	79656b5f 	stmdbvc	r5!, {r0, r1, r2, r3, r4, r6, r8, r9, fp, sp, lr}^
     338:	69735f33 	ldmdbvs	r3!, {r0, r1, r4, r5, r8, r9, sl, fp, ip, lr}^
     33c:	6100657a 	tstvs	r0, sl, ror r5
     340:	00636772 	rsbeq	r6, r3, r2, ror r7
     344:	5f746573 	svcpl	0x00746573
     348:	75636f66 	strbvc	r6, [r3, #-3942]!	; 0xf66
     34c:	61755f73 	cmnvs	r5, r3, ror pc
     350:	61007472 	tstvs	r0, r2, ror r4
     354:	6b5f7365 	blvs	17dd0f0 <__bss_end__+0x2c95b0>
     358:	5f317965 	svcpl	0x00317965
     35c:	00646e65 	rsbeq	r6, r4, r5, ror #28
     360:	5f70746f 	svcpl	0x0070746f
     364:	6874656d 	ldmdavs	r4!, {r0, r2, r3, r5, r6, r8, sl, sp, lr}^
     368:	655f646f 	ldrbvs	r6, [pc, #-1135]	; ffffff01 <__bss_end__+0xfeaec3c1>
     36c:	5f6d756e 	svcpl	0x006d756e
     370:	65610074 	strbvs	r0, [r1, #-116]!	; 0x74
     374:	656b5f73 	strbvs	r5, [fp, #-3955]!	; 0xf73
     378:	6e655f79 	mcrvs	15, 3, r5, cr5, cr9, {3}
     37c:	65610064 	strbvs	r0, [r1, #-100]!	; 0x64
     380:	656b5f73 	strbvs	r5, [fp, #-3955]!	; 0xf73
     384:	69735f79 	ldmdbvs	r3!, {r0, r3, r4, r5, r6, r8, r9, sl, fp, ip, lr}^
     388:	4500657a 	strmi	r6, [r0, #-1402]	; 0x57a
     38c:	5f4d554e 	svcpl	0x004d554e
     390:	45505954 	ldrbmi	r5, [r0, #-2388]	; 0x954
     394:	5345415f 	movtpl	r4, #20831	; 0x515f
     398:	59454b5f 	stmdbpl	r5, {r0, r1, r2, r3, r4, r6, r8, r9, fp, lr}^
     39c:	696e6900 	stmdbvs	lr!, {r8, fp, sp, lr}^
     3a0:	61755f74 	cmnvs	r5, r4, ror pc
     3a4:	64007472 	strvs	r7, [r0], #-1138	; 0x472
     3a8:	75625f6f 	strbvc	r5, [r2, #-3951]!	; 0xf6f
     3ac:	6d5f6e72 	ldclvs	14, cr6, [pc, #-456]	; 1ec <_back_addr-0x14ffe14>
     3b0:	66655f70 	uqsub16vs	r5, r5, r0
     3b4:	5f657375 	svcpl	0x00657375
     3b8:	73746962 	cmnvc	r4, #1605632	; 0x188000
     3bc:	63656400 	cmnvs	r5, #0, 8
     3c0:	7272615f 	rsbsvc	r6, r2, #-1073741801	; 0xc0000017
     3c4:	73007961 	movwvc	r7, #2401	; 0x961
     3c8:	00636e79 	rsbeq	r6, r3, r9, ror lr
     3cc:	7566626f 	strbvc	r6, [r6, #-623]!	; 0x26f
     3d0:	6a5f6573 	bvs	17d99a4 <__bss_end__+0x2c5e64>
     3d4:	65676475 	strbvs	r6, [r7, #-1141]!	; 0x475
     3d8:	73656100 	cmnvc	r5, #0, 2
     3dc:	6565735f 	strbvs	r7, [r5, #-863]!	; 0x35f
     3e0:	4e450064 	cdpmi	0, 4, cr0, cr5, cr4, {3}
     3e4:	545f4d55 	ldrbpl	r4, [pc], #-3413	; 3ec <_back_addr-0x14ffc14>
     3e8:	5f455059 	svcpl	0x00455059
     3ec:	5f534541 	svcpl	0x00534541
     3f0:	44454553 	strbmi	r4, [r5], #-1363	; 0x553
     3f4:	73756300 	cmnvc	r5, #0, 6
     3f8:	61645f74 	smcvs	17908	; 0x45f4
     3fc:	61006174 	tstvs	r0, r4, ror r1
     400:	735f7365 	cmpvc	pc, #-1811939327	; 0x94000001
     404:	5f646565 	svcpl	0x00646565
     408:	00646e65 	rsbeq	r6, r4, r5, ror #28
     40c:	6c727463 	cfldrdvs	mvd7, [r2], #-396	; 0xfffffe74
     410:	65610063 	strbvs	r0, [r1, #-99]!	; 0x63
     414:	656b5f73 	strbvs	r5, [fp, #-3955]!	; 0xf73
     418:	61003179 	tstvs	r0, r9, ror r1
     41c:	6b5f7365 	blvs	17dd1b8 <__bss_end__+0x2c9678>
     420:	00327965 	eorseq	r7, r2, r5, ror #18
     424:	5f736561 	svcpl	0x00736561
     428:	3379656b 	cmncc	r9, #448790528	; 0x1ac00000
     42c:	61737200 	cmnvs	r3, r0, lsl #4
     430:	6275705f 	rsbsvs	r7, r5, #95	; 0x5f
     434:	79656b5f 	stmdbvc	r5!, {r0, r1, r2, r3, r4, r6, r8, r9, fp, sp, lr}^
     438:	7a69735f 	bvc	1a5d1bc <__bss_end__+0x54967c>
     43c:	66650065 	strbtvs	r0, [r5], -r5, rrx
     440:	6d657375 	stclvs	3, cr7, [r5, #-468]!	; 0xfffffe2c
     444:	006e6961 	rsbeq	r6, lr, r1, ror #18
     448:	6d6f682f 	stclvs	8, cr6, [pc, #-188]!	; 394 <_back_addr-0x14ffc6c>
     44c:	6f6c2f65 	svcvs	0x006c2f65
     450:	2f736975 	svccs	0x00736975
     454:	6b6e6168 	blvs	1b989fc <__bss_end__+0x684ebc>
     458:	6c796b2f 	ldclvs	11, cr6, [r9], #-188	; 0xffffff44
     45c:	622f6e69 	eorvs	r6, pc, #1680	; 0x690
     460:	63746f6f 	cmnvs	r4, #444	; 0x1bc
     464:	2f65646f 	svccs	0x0065646f
     468:	6f6f6275 	svcvs	0x006f6275
     46c:	78652f74 	stmdavc	r5!, {r2, r4, r5, r6, r8, r9, sl, fp, sp}^
     470:	6c706d61 	ldclvs	13, cr6, [r0], #-388	; 0xfffffe7c
     474:	652f7365 	strvs	r7, [pc, #-869]!	; 117 <_back_addr-0x14ffee9>
     478:	65737566 	ldrbvs	r7, [r3, #-1382]!	; 0x566
     47c:	6f72705f 	svcvs	0x0072705f
     480:	6d617267 	sfmvs	f7, 2, [r1, #-412]!	; 0xfffffe64
     484:	0072656d 	rsbseq	r6, r2, sp, ror #10
     488:	5f736561 	svcpl	0x00736561
     48c:	3279656b 	rsbscc	r6, r9, #448790528	; 0x1ac00000
     490:	646e655f 	strbtvs	r6, [lr], #-1375	; 0x55f
     494:	73656100 	cmnvc	r5, #0, 2
     498:	79656b5f 	stmdbvc	r5!, {r0, r1, r2, r3, r4, r6, r8, r9, fp, sp, lr}^
     49c:	69735f31 	ldmdbvs	r3!, {r0, r4, r5, r8, r9, sl, fp, ip, lr}^
     4a0:	7500657a 	strvc	r6, [r0, #-1402]	; 0x57a
     4a4:	676e6f6c 	strbvs	r6, [lr, -ip, ror #30]!
     4a8:	64747200 	ldrbtvs	r7, [r4], #-512	; 0x200
     4ac:	74756f5f 	ldrbtvc	r6, [r5], #-3935	; 0xf5f
     4b0:	7273006c 	rsbsvc	r0, r3, #108	; 0x6c
     4b4:	72615f63 	rsbvc	r5, r1, #396	; 0x18c
     4b8:	00796172 	rsbseq	r6, r9, r2, ror r1
     4bc:	5f70746f 	svcpl	0x0070746f
     4c0:	5f736561 	svcpl	0x00736561
     4c4:	6d756e65 	ldclvs	14, cr6, [r5, #-404]!	; 0xfffffe6c
     4c8:	6100745f 	tstvs	r0, pc, asr r4
     4cc:	655f7365 	ldrbvs	r7, [pc, #-869]	; 16f <_back_addr-0x14ffe91>
     4d0:	006d756e 	rsbeq	r7, sp, lr, ror #10
     4d4:	31755f5f 	cmncc	r5, pc, asr pc
     4d8:	6f640036 	svcvs	0x00640036
     4dc:	7275625f 	rsbsvc	r6, r5, #-268435451	; 0xf0000005
     4e0:	66655f6e 	strbtvs	r5, [r5], -lr, ror #30
     4e4:	5f657375 	svcpl	0x00657375
     4e8:	7379656b 	cmnvc	r9, #448790528	; 0x1ac00000
     4ec:	64006c65 	strvs	r6, [r0], #-3173	; 0xc65
     4f0:	6e5f7669 	cdpvs	6, 5, cr7, cr15, cr9, {3}
     4f4:	50544f00 	subspl	r4, r4, r0, lsl #30
     4f8:	7465475f 	strbtvc	r4, [r5], #-1887	; 0x75f
     4fc:	726f575f 	rsbvc	r5, pc, #24903680	; 0x17c0000
     500:	6f640064 	svcvs	0x00640064
     504:	7275625f 	rsbsvc	r6, r5, #-268435451	; 0xf0000005
     508:	66655f6e 	strbtvs	r5, [r5], -lr, ror #30
     50c:	5f657375 	svcpl	0x00657375
     510:	6d726f6e 	ldclvs	15, cr6, [r2, #-440]!	; 0xfffffe48
     514:	645f6c61 	ldrbvs	r6, [pc], #-3169	; 51c <_back_addr-0x14ffae4>
     518:	41006762 	tstmi	r0, r2, ror #14
     51c:	455f5345 	ldrbmi	r5, [pc, #-837]	; 1df <_back_addr-0x14ffe21>
     520:	645f4243 	ldrbvs	r4, [pc], #-579	; 528 <_back_addr-0x14ffad8>
     524:	79726365 	ldmdbvc	r2!, {r0, r2, r5, r6, r8, r9, sp, lr}^
     528:	43007470 	movwmi	r7, #1136	; 0x470
     52c:	525f444d 	subspl	r4, pc, #1291845632	; 0x4d000000
     530:	535f5445 	cmppl	pc, #1157627904	; 0x45000000
     534:	45434355 	strbmi	r4, [r3, #-853]	; 0x355
     538:	75005353 	strvc	r5, [r0, #-851]	; 0x353
     53c:	31746e69 	cmncc	r4, r9, ror #28
     540:	00745f36 	rsbseq	r5, r4, r6, lsr pc
     544:	75625f65 	strbvc	r5, [r2, #-3941]!	; 0xf65
     548:	72656666 	rsbvc	r6, r5, #106954752	; 0x6600000
     54c:	61657200 	cmnvs	r5, r0, lsl #4
     550:	69625f6c 	stmdbvs	r2!, {r2, r3, r5, r6, r8, r9, sl, fp, ip, lr}^
     554:	6f740074 	svcvs	0x00740074
     558:	626c6174 	rsbvs	r6, ip, #116, 2
     55c:	00657479 	rsbeq	r7, r5, r9, ror r4
     560:	656e696c 	strbvs	r6, [lr, #-2412]!	; 0x96c
     564:	006e656c 	rsbeq	r6, lr, ip, ror #10
     568:	625f6f64 	subsvs	r6, pc, #100, 30	; 0x190
     56c:	5f6e7275 	svcpl	0x006e7275
     570:	73756665 	cmnvc	r5, #105906176	; 0x6500000
     574:	65675f65 	strbvs	r5, [r7, #-3941]!	; 0xf65
     578:	74706d74 	ldrbtvc	r6, [r0], #-3444	; 0xd74
     57c:	32747365 	rsbscc	r7, r4, #-1811939327	; 0x94000001
     580:	5f6f6400 	svcpl	0x006f6400
     584:	6e727562 	cdpvs	5, 7, cr7, cr2, cr2, {3}
     588:	7566655f 	strbvc	r6, [r6, #-1375]!	; 0x55f
     58c:	725f6573 	subsvc	r6, pc, #482344960	; 0x1cc00000
     590:	705f6173 	subsvc	r6, pc, r3, ror r1	; <UNPREDICTABLE>
     594:	645f6d67 	ldrbvs	r6, [pc], #-3431	; 59c <_back_addr-0x14ffa64>
     598:	64007369 	strvs	r7, [r0], #-873	; 0x369
     59c:	75625f6f 	strbvc	r5, [r2, #-3951]!	; 0xf6f
     5a0:	655f6e72 	ldrbvs	r6, [pc, #-3698]	; fffff736 <__bss_end__+0xfeaebbf6>
     5a4:	65737566 	ldrbvs	r7, [r3, #-1382]!	; 0x566
     5a8:	7369645f 	cmnvc	r9, #1593835520	; 0x5f000000
     5ac:	63656e6f 	cmnvs	r5, #1776	; 0x6f0
     5b0:	0065726f 	rsbeq	r7, r5, pc, ror #4
     5b4:	38755f5f 	ldmdacc	r5!, {r0, r1, r2, r3, r4, r6, r8, r9, sl, fp, ip, lr}^
     5b8:	5f6f6400 	svcpl	0x006f6400
     5bc:	6e727562 	cdpvs	5, 7, cr7, cr2, cr2, {3}
     5c0:	7566655f 	strbvc	r6, [r6, #-1375]!	; 0x55f
     5c4:	735f6573 	cmpvc	pc, #482344960	; 0x1cc00000
     5c8:	72756365 	rsbsvc	r6, r5, #-1811939327	; 0x94000001
     5cc:	6f6f6265 	svcvs	0x006f6265
     5d0:	5f5f0074 	svcpl	0x005f0074
     5d4:	00323375 	eorseq	r3, r2, r5, ror r3
     5d8:	625f6f64 	subsvs	r6, pc, #100, 30	; 0x190
     5dc:	5f6e7275 	svcpl	0x006e7275
     5e0:	73756665 	cmnvc	r5, #105906176	; 0x6500000
     5e4:	73725f65 	cmnvc	r2, #404	; 0x194
     5e8:	69770061 	ldmdbvs	r7!, {r0, r5, r6}^
     5ec:	00687464 	rsbeq	r7, r8, r4, ror #8
     5f0:	5f50544f 	svcpl	0x0050544f
     5f4:	4744554a 	strbmi	r5, [r4, -sl, asr #10]
     5f8:	49425f45 	stmdbmi	r2, {r0, r2, r6, r8, r9, sl, fp, ip, lr}^
     5fc:	6f6e0054 	svcvs	0x006e0054
     600:	73755f74 	cmnvc	r5, #116, 30	; 0x1d0
     604:	6e003165 	adfvssz	f3, f0, f5
     608:	755f746f 	ldrbvc	r7, [pc, #-1135]	; 1a1 <_back_addr-0x14ffe5f>
     60c:	00326573 	eorseq	r6, r2, r3, ror r5
     610:	72617473 	rsbvc	r7, r1, #1929379840	; 0x73000000
     614:	74796274 	ldrbtvc	r6, [r9], #-628	; 0x274
     618:	74730065 	ldrbtvc	r0, [r3], #-101	; 0x65
     61c:	62747261 	rsbsvs	r7, r4, #268435462	; 0x10000006
     620:	4f007469 	svcmi	0x00007469
     624:	505f5054 	subspl	r5, pc, r4, asr r0	; <UNPREDICTABLE>
     628:	72676f72 	rsbvc	r6, r7, #456	; 0x1c8
     62c:	535f6d61 	cmppl	pc, #6208	; 0x1840
     630:	74726174 	ldrbtvc	r6, [r2], #-372	; 0x174
     634:	696c6100 	stmdbvs	ip!, {r8, sp, lr}^
     638:	6e5f6e67 	cdpvs	14, 5, cr6, cr15, cr7, {3}
     63c:	72756200 	rsbsvc	r6, r5, #0, 4
     640:	64695f6e 	strbtvs	r5, [r9], #-3950	; 0xf6e
     644:	7365745f 	cmnvc	r5, #1593835520	; 0x5f000000
     648:	65720074 	ldrbvs	r0, [r2, #-116]!	; 0x74
     64c:	695f6461 	ldmdbvs	pc, {r0, r5, r6, sl, sp, lr}^	; <UNPREDICTABLE>
     650:	65745f64 	ldrbvs	r5, [r4, #-3940]!	; 0xf64
     654:	72007473 	andvc	r7, r0, #1929379840	; 0x73000000
     658:	765f6765 	ldrbvc	r6, [pc], -r5, ror #14
     65c:	64006c61 	strvs	r6, [r0], #-3169	; 0xc61
     660:	75625f6f 	strbvc	r5, [r2, #-3951]!	; 0xf6f
     664:	655f6e72 	ldrbvs	r6, [pc, #-3698]	; fffff7fa <__bss_end__+0xfeaebcba>
     668:	65737566 	ldrbvs	r7, [r3, #-1382]!	; 0x566
     66c:	6c6c615f 	stfvse	f6, [ip], #-380	; 0xfffffe84
     670:	6d657200 	sfmvs	f7, 2, [r5, #-0]
     674:	6c61765f 	stclvs	6, cr7, [r1], #-380	; 0xfffffe84
     678:	5f6f6400 	svcpl	0x006f6400
     67c:	6e727562 	cdpvs	5, 7, cr7, cr2, cr2, {3}
     680:	7566655f 	strbvc	r6, [r6, #-1375]!	; 0x55f
     684:	625f6573 	subsvs	r6, pc, #482344960	; 0x1cc00000
     688:	65746f6f 	ldrbvs	r6, [r4, #-3951]!	; 0xf6f
     68c:	6100636e 	tstvs	r0, lr, ror #6
     690:	6e67696c 	cdpvs	9, 6, cr6, cr7, cr12, {3}
     694:	6d65725f 	sfmvs	f7, 2, [r5, #-380]!	; 0xfffffe84
     698:	65006e5f 	strvs	r6, [r0, #-3679]	; 0xe5f
     69c:	65737566 	ldrbvs	r7, [r3, #-1382]!	; 0x566
     6a0:	6400632e 	strvs	r6, [r0], #-814	; 0x32e
     6a4:	75625f6f 	strbvc	r5, [r2, #-3951]!	; 0xf6f
     6a8:	655f6e72 	ldrbvs	r6, [pc, #-3698]	; fffff83e <__bss_end__+0xfeaebcfe>
     6ac:	65737566 	ldrbvs	r7, [r3, #-1382]!	; 0x566
     6b0:	616f6c5f 	cmnvs	pc, pc, asr ip	; <UNPREDICTABLE>
     6b4:	736f7364 	cmnvc	pc, #100, 6	; 0x90000001
     6b8:	5f6f6400 	svcpl	0x006f6400
     6bc:	6e727562 	cdpvs	5, 7, cr7, cr2, cr2, {3}
     6c0:	7566655f 	strbvc	r6, [r6, #-1375]!	; 0x55f
     6c4:	6d5f6573 	cfldr64vs	mvdx6, [pc, #-460]	; 500 <_back_addr-0x14ffb00>
     6c8:	73657470 	cmnvc	r5, #112, 8	; 0x70000000
     6cc:	61003274 	tstvs	r0, r4, ror r2
     6d0:	79617272 	stmdbvc	r1!, {r1, r4, r5, r6, r9, ip, sp, lr}^
     6d4:	72610041 	rsbvc	r0, r1, #65	; 0x41
     6d8:	42796172 	rsbsmi	r6, r9, #-2147483620	; 0x8000001c
     6dc:	72726100 	rsbsvc	r6, r2, #0, 2
     6e0:	00437961 	subeq	r7, r3, r1, ror #18
     6e4:	746e6975 	strbtvc	r6, [lr], #-2421	; 0x975
     6e8:	746f7400 	strbtvc	r7, [pc], #-1024	; 6f0 <_back_addr-0x14ff910>
     6ec:	79626c61 	stmdbvc	r2!, {r0, r5, r6, sl, fp, sp, lr}^
     6f0:	00736574 	rsbseq	r6, r3, r4, ror r5
     6f4:	625f6f64 	subsvs	r6, pc, #100, 30	; 0x190
     6f8:	5f6e7275 	svcpl	0x006e7275
     6fc:	73756665 	cmnvc	r5, #105906176	; 0x6500000
     700:	65615f65 	strbvs	r5, [r1, #-3941]!	; 0xf65
     704:	65720073 	ldrbvs	r0, [r2, #-115]!	; 0x73
     708:	655f6461 	ldrbvs	r6, [pc, #-1121]	; 2af <_back_addr-0x14ffd51>
     70c:	65737566 	ldrbvs	r7, [r3, #-1382]!	; 0x566
     710:	61747300 	cmnvs	r4, r0, lsl #6
     714:	615f7472 	cmpvs	pc, r2, ror r4	; <UNPREDICTABLE>
     718:	00726464 	rsbseq	r6, r2, r4, ror #8
     71c:	5f444d43 	svcpl	0x00444d43
     720:	5f544552 	svcpl	0x00544552
     724:	4c494146 	stfmie	f4, [r9], {70}	; 0x46
     728:	00455255 	subeq	r5, r5, r5, asr r2
     72c:	5f534541 	svcpl	0x00534541
     730:	5f424345 	svcpl	0x00424345
     734:	72636e65 	rsbvc	r6, r3, #1616	; 0x650
     738:	00747079 	rsbseq	r7, r4, r9, ror r0
     73c:	5f647472 	svcpl	0x00647472
     740:	006c6e69 	rsbeq	r6, ip, r9, ror #28
     744:	746e6975 	strbtvc	r6, [lr], #-2421	; 0x975
     748:	745f3233 	ldrbvc	r3, [pc], #-563	; 750 <_back_addr-0x14ff8b0>
     74c:	6d6f6300 	stclvs	3, cr6, [pc, #-0]	; 754 <_back_addr-0x14ff8ac>
     750:	646e616d 	strbtvs	r6, [lr], #-365	; 0x16d
     754:	7465725f 	strbtvc	r7, [r5], #-607	; 0x25f
     758:	7500745f 	strvc	r7, [r0, #-1119]	; 0x45f
     75c:	616c6564 	cmnvs	ip, r4, ror #10
     760:	544f0079 	strbpl	r0, [pc], #-121	; 768 <_back_addr-0x14ff898>
     764:	45415f50 	strbmi	r5, [r1, #-3920]	; 0xf50
     768:	484b5f53 	stmdami	fp, {r0, r1, r4, r6, r8, r9, sl, fp, ip, lr}^
     76c:	50544f00 	subspl	r4, r4, r0, lsl #30
     770:	5345415f 	movtpl	r4, #20831	; 0x515f
     774:	004e4b5f 	subeq	r4, lr, pc, asr fp
     778:	625f6f64 	subsvs	r6, pc, #100, 30	; 0x190
     77c:	5f6e7275 	svcpl	0x006e7275
     780:	73756665 	cmnvc	r5, #105906176	; 0x6500000
     784:	77685f65 	strbvc	r5, [r8, -r5, ror #30]!
     788:	006b6863 	rsbeq	r6, fp, r3, ror #16
     78c:	5f50544f 	svcpl	0x0050544f
     790:	5f534541 	svcpl	0x00534541
     794:	6400534b 	strvs	r5, [r0], #-843	; 0x34b
     798:	75625f6f 	strbvc	r5, [r2, #-3951]!	; 0xf6f
     79c:	655f6e72 	ldrbvs	r6, [pc, #-3698]	; fffff932 <__bss_end__+0xfeaebdf2>
     7a0:	65737566 	ldrbvs	r7, [r3, #-1382]!	; 0x566
     7a4:	6273755f 	rsbsvs	r7, r3, #398458880	; 0x17c00000
     7a8:	61727332 	cmnvs	r2, r2, lsr r3
     7ac:	666f006d 	strbtvs	r0, [pc], -sp, rrx
     7b0:	74657366 	strbtvc	r7, [r5], #-870	; 0x366
     7b4:	5f6f6400 	svcpl	0x006f6400
     7b8:	6e727562 	cdpvs	5, 7, cr7, cr2, cr2, {3}
     7bc:	7566655f 	strbvc	r6, [r6, #-1375]!	; 0x55f
     7c0:	645f6573 	ldrbvs	r6, [pc], #-1395	; 7c8 <_back_addr-0x14ff838>
     7c4:	63697665 	cmnvs	r9, #105906176	; 0x6500000
     7c8:	00444965 	subeq	r4, r4, r5, ror #18
     7cc:	6c616572 	cfstr64vs	mvdx6, [r1], #-456	; 0xfffffe38
     7d0:	72006e5f 	andvc	r6, r0, #1520	; 0x5f0
     7d4:	5f6c6165 	svcpl	0x006c6165
     7d8:	6573666f 	ldrbvs	r6, [r3, #-1647]!	; 0x66f
     7dc:	49550074 	ldmdbmi	r5, {r2, r4, r5, r6}^
     7e0:	0038544e 	eorseq	r5, r8, lr, asr #8
     7e4:	746e6975 	strbtvc	r6, [lr], #-2421	; 0x975
     7e8:	00745f38 	rsbseq	r5, r4, r8, lsr pc
     7ec:	625f6f64 	subsvs	r6, pc, #100, 30	; 0x190
     7f0:	5f6e7275 	svcpl	0x006e7275
     7f4:	73756665 	cmnvc	r5, #105906176	; 0x6500000
     7f8:	65735f65 	ldrbvs	r5, [r3, #-3941]!	; 0xf65
     7fc:	65727563 	ldrbvs	r7, [r2, #-1379]!	; 0x563
     800:	6762645f 			; <UNDEFINED> instruction: 0x6762645f
     804:	50544f00 	subspl	r4, r4, r0, lsl #30
     808:	7465475f 	strbtvc	r4, [r5], #-1887	; 0x75f
     80c:	7479425f 	ldrbtvc	r4, [r9], #-607	; 0x25f
     810:	65610065 	strbvs	r0, [r1, #-101]!	; 0x65
     814:	656b5f73 	strbvs	r5, [fp, #-3955]!	; 0xf73
     818:	686b5f79 	stmdavs	fp!, {r0, r3, r4, r5, r6, r8, r9, sl, fp, ip, lr}^
     81c:	444d4300 	strbmi	r4, [sp], #-768	; 0x300
     820:	5445525f 	strbpl	r5, [r5], #-607	; 0x25f
     824:	4153555f 	cmpmi	r3, pc, asr r5
     828:	61004547 	tstvs	r0, r7, asr #10
     82c:	6b5f7365 	blvs	17dd5c8 <__bss_end__+0x2c9a88>
     830:	6b5f7965 	blvs	17dedcc <__bss_end__+0x2cb28c>
     834:	696c006e 	stmdbvs	ip!, {r1, r2, r3, r5, r6}^
     838:	7562656e 	strbvc	r6, [r2, #-1390]!	; 0x56e
     83c:	65610066 	strbvs	r0, [r1, #-102]!	; 0x66
     840:	656b5f73 	strbvs	r5, [fp, #-3955]!	; 0xf73
     844:	736b5f79 	cmnvc	fp, #484	; 0x1e4
     848:	50544f00 	subspl	r4, r4, r0, lsl #30
     84c:	6f72505f 	svcvs	0x0072505f
     850:	6d617267 	sfmvs	f7, 2, [r1, #-412]!	; 0xfffffe64
     854:	646e455f 	strbtvs	r4, [lr], #-1375	; 0x55f
     858:	6c6c6100 	stfvse	f6, [ip], #-0
     85c:	6d5f636f 	ldclvs	3, cr6, [pc, #-444]	; 6a8 <_back_addr-0x14ff958>
     860:	645f7063 	ldrbvs	r7, [pc], #-99	; 868 <_back_addr-0x14ff798>
     864:	72637365 	rsbvc	r7, r3, #-1811939327	; 0x94000001
     868:	6f747069 	svcvs	0x00747069
     86c:	636d0072 	cmnvs	sp, #114	; 0x72
     870:	00632e70 	rsbeq	r2, r3, r0, ror lr
     874:	636f6c62 	cmnvs	pc, #25088	; 0x6200
     878:	69735f6b 	ldmdbvs	r3!, {r0, r1, r3, r5, r6, r8, r9, sl, fp, ip, lr}^
     87c:	7200657a 	andvc	r6, r0, #511705088	; 0x1e800000
     880:	72657665 	rsbvc	r7, r5, #105906176	; 0x6500000
     884:	735f6573 	cmpvc	pc, #482344960	; 0x1cc00000
     888:	616e6769 	cmnvs	lr, r9, ror #14
     88c:	65727574 	ldrbvs	r7, [r2, #-1396]!	; 0x574
     890:	6d657400 	cfstrdvs	mvd7, [r5, #-0]
     894:	656e0070 	strbvs	r0, [lr, #-112]!	; 0x70
     898:	74735f74 	ldrbtvc	r5, [r3], #-3956	; 0xf74
     89c:	00657461 	rsbeq	r7, r5, r1, ror #8
     8a0:	525f6f64 	subspl	r6, pc, #100, 30	; 0x190
     8a4:	69004153 	stmdbvs	r0, {r0, r1, r4, r6, r8, lr}
     8a8:	7475706e 	ldrbtvc	r7, [r5], #-110	; 0x6e
     8ac:	41485300 	mrsmi	r5, (UNDEF: 120)
     8b0:	5f363532 	svcpl	0x00363532
     8b4:	68736168 	ldmdavs	r3!, {r3, r5, r6, r8, sp, lr}^
     8b8:	54454e00 	strbpl	r4, [r5], #-3584	; 0xe00
     8bc:	504f4f4c 	subpl	r4, pc, ip, asr #30
     8c0:	4355535f 	cmpmi	r5, #2080374785	; 0x7c000001
     8c4:	53534543 	cmppl	r3, #281018368	; 0x10c00000
     8c8:	646f6d00 	strbtvs	r6, [pc], #-3328	; 8d0 <_back_addr-0x14ff730>
     8cc:	73640065 	cmnvc	r4, #101	; 0x65
     8d0:	64615f74 	strbtvs	r5, [r1], #-3956	; 0xf74
     8d4:	41007264 	tstmi	r0, r4, ror #4
     8d8:	685f5345 	ldmdavs	pc, {r0, r2, r6, r8, r9, ip, lr}^	; <UNPREDICTABLE>
     8dc:	5f687361 	svcpl	0x00687361
     8e0:	00656e6f 	rsbeq	r6, r5, pc, ror #28
     8e4:	6f676c61 	svcvs	0x00676c61
     8e8:	0064695f 	rsbeq	r6, r4, pc, asr r9
     8ec:	636d5f74 	cmnvs	sp, #116, 30	; 0x1d0
     8f0:	65645f70 	strbvs	r5, [r4, #-3952]!	; 0xf70
     8f4:	69726373 	ldmdbvs	r2!, {r0, r1, r4, r5, r6, r8, r9, sp, lr}^
     8f8:	726f7470 	rsbvc	r7, pc, #112, 8	; 0x70000000
     8fc:	696e6900 	stmdbvs	lr!, {r8, fp, sp, lr}^
     900:	79656b5f 	stmdbvc	r5!, {r0, r1, r2, r3, r4, r6, r8, r9, fp, sp, lr}^
     904:	67697300 	strbvs	r7, [r9, -r0, lsl #6]!
     908:	7574616e 	ldrbvc	r6, [r4, #-366]!	; 0x16e
     90c:	615f6572 	cmpvs	pc, r2, ror r5	; <UNPREDICTABLE>
     910:	00726464 	rsbseq	r6, r2, r4, ror #8
     914:	67695370 			; <UNDEFINED> instruction: 0x67695370
     918:	7574616e 	ldrbvc	r6, [r4, #-366]!	; 0x16e
     91c:	4b006572 	blmi	19eec <_back_addr-0x14e6114>
     920:	656b5f68 	strbvs	r5, [fp, #-3944]!	; 0xf68
     924:	65645f79 	strbvs	r5, [r4, #-3961]!	; 0xf79
     928:	6c756166 	ldfvse	f6, [r5], #-408	; 0xfffffe68
     92c:	77730074 			; <UNDEFINED> instruction: 0x77730074
     930:	655f7061 	ldrbvs	r7, [pc, #-97]	; 8d7 <_back_addr-0x14ff729>
     934:	6169646e 	cmnvs	r9, lr, ror #8
     938:	454e006e 	strbmi	r0, [lr, #-110]	; 0x6e
     93c:	4f4f4c54 	svcmi	0x004f4c54
     940:	45525f50 	ldrbmi	r5, [r2, #-3920]	; 0xf50
     944:	52415453 	subpl	r5, r1, #1392508928	; 0x53000000
     948:	72730054 	rsbsvc	r0, r3, #84	; 0x54
     94c:	64615f63 	strbtvs	r5, [r1], #-3939	; 0xf63
     950:	5f007264 	svcpl	0x00007264
     954:	4e55465f 	mrcmi	6, 2, r4, cr5, cr15, {2}
     958:	4f495443 	svcmi	0x00495443
     95c:	005f5f4e 	subseq	r5, pc, lr, asr #30
     960:	6b636162 	blvs	18d8ef0 <__bss_end__+0x3c53b0>
     964:	765f7075 			; <UNDEFINED> instruction: 0x765f7075
     968:	64006c61 	strvs	r6, [r0], #-3169	; 0xc61
     96c:	636d5f6f 	cmnvs	sp, #444	; 0x1bc
     970:	65730070 	ldrbvs	r0, [r3, #-112]!	; 0x70
     974:	656d5f74 	strbvs	r5, [sp, #-3956]!	; 0xf74
     978:	79726f6d 	ldmdbvc	r2!, {r0, r2, r3, r5, r6, r8, r9, sl, fp, sp, lr}^
     97c:	54454e00 	strbpl	r4, [r5], #-3584	; 0xe00
     980:	504f4f4c 	subpl	r4, pc, ip, asr #30
     984:	4941465f 	stmdbmi	r1, {r0, r1, r2, r3, r4, r6, r9, sl, lr}^
     988:	4541004c 	strbmi	r0, [r1, #-76]	; 0x4c
     98c:	42435f53 	submi	r5, r3, #332	; 0x14c
     990:	6e655f43 	cdpvs	15, 6, cr5, cr5, cr3, {2}
     994:	70797263 	rsbsvc	r7, r9, r3, ror #4
     998:	656c0074 	strbvs	r0, [ip, #-116]!	; 0x74
     99c:	6874676e 	ldmdavs	r4!, {r1, r2, r3, r5, r6, r8, r9, sl, sp, lr}^
     9a0:	6c6c6100 	stfvse	f6, [ip], #-0
     9a4:	705f636f 	subsvc	r6, pc, pc, ror #6
     9a8:	75007274 	strvc	r7, [r0, #-628]	; 0x274
     9ac:	74616470 	strbtvc	r6, [r1], #-1136	; 0x470
     9b0:	6e695f65 	cdpvs	15, 6, cr5, cr9, cr5, {3}
     9b4:	61697469 	cmnvs	r9, r9, ror #8
     9b8:	65765f6c 	ldrbvs	r5, [r6, #-3948]!	; 0xf6c
     9bc:	726f7463 	rsbvc	r7, pc, #1660944384	; 0x63000000
     9c0:	53454100 	movtpl	r4, #20736	; 0x5100
     9c4:	7361685f 	cmnvc	r1, #6225920	; 0x5f0000
     9c8:	454e0068 	strbmi	r0, [lr, #-104]	; 0x68
     9cc:	4f4f4c54 	svcmi	0x004f4c54
     9d0:	4f435f50 	svcmi	0x00435f50
     9d4:	4e49544e 	cdpmi	4, 4, cr5, cr9, cr14, {2}
     9d8:	74004555 	strvc	r4, [r0], #-1365	; 0x555
     9dc:	00746e63 	rsbseq	r6, r4, r3, ror #28
     9e0:	5f617372 	svcpl	0x00617372
     9e4:	72646461 	rsbvc	r6, r4, #1627389952	; 0x61000000
     9e8:	756c6600 	strbvc	r6, [ip, #-1536]!	; 0x600
     9ec:	635f6873 	cmpvs	pc, #7536640	; 0x730000
     9f0:	65686361 	strbvs	r6, [r8, #-865]!	; 0x361
     9f4:	65646d00 	strbvs	r6, [r4, #-3328]!	; 0xd00
     9f8:	0079616c 	rsbseq	r6, r9, ip, ror #2
     9fc:	6c627570 	cfstr64vs	mvdx7, [r2], #-448	; 0xfffffe40
     a00:	78456369 	stmdavc	r5, {r0, r3, r5, r6, r8, r9, sp, lr}^
     a04:	656e6f70 	strbvs	r6, [lr, #-3952]!	; 0xf70
     a08:	7200746e 	andvc	r7, r0, #1845493760	; 0x6e000000
     a0c:	72657665 	rsbvc	r7, r5, #105906176	; 0x6500000
     a10:	725f6573 	subsvc	r6, pc, #482344960	; 0x1cc00000
     a14:	735f6173 	cmpvc	pc, #-1073741796	; 0xc000001c
     a18:	616e6769 	cmnvs	lr, r9, ror #14
     a1c:	65727574 	ldrbvs	r7, [r2, #-1396]!	; 0x574
     a20:	74756f00 	ldrbtvc	r6, [r5], #-3840	; 0xf00
     a24:	5f747570 	svcpl	0x00747570
     a28:	72646461 	rsbvc	r6, r4, #1627389952	; 0x61000000
     a2c:	706f6300 	rsbvc	r6, pc, r0, lsl #6
     a30:	656d5f79 	strbvs	r5, [sp, #-3961]!	; 0xf79
     a34:	79726f6d 	ldmdbvc	r2!, {r0, r2, r3, r5, r6, r8, r9, sl, fp, sp, lr}^
     a38:	63736400 	cmnvs	r3, #0, 8
     a3c:	6d007470 	cfstrsvs	mvf7, [r0, #-448]	; 0xfffffe40
     a40:	65736d65 	ldrbvs	r6, [r3, #-3429]!	; 0xd65
     a44:	48530074 	ldmdami	r3, {r2, r4, r5, r6}^
     a48:	685f3141 	ldmdavs	pc, {r0, r6, r8, ip, sp}^	; <UNPREDICTABLE>
     a4c:	00687361 	rsbeq	r7, r8, r1, ror #6
     a50:	7074756f 	rsbsvc	r7, r4, pc, ror #10
     a54:	5f007475 	svcpl	0x00007475
     a58:	72656b5f 	rsbvc	r6, r5, #97280	; 0x17c00
     a5c:	5f6c656e 	svcpl	0x006c656e
     a60:	657a6973 	ldrbvs	r6, [sl, #-2419]!	; 0x973
     a64:	7300745f 	movwvc	r7, #1119	; 0x45f
     a68:	705f6372 	subsvc	r6, pc, r2, ror r3	; <UNPREDICTABLE>
     a6c:	6e007274 	mcrvs	2, 0, r7, cr0, cr4, {3}
     a70:	6c5f7465 	cfldrdvs	mvd7, [pc], {101}	; 0x65
     a74:	5f706f6f 	svcpl	0x00706f6f
     a78:	74617473 	strbtvc	r7, [r1], #-1139	; 0x473
     a7c:	6f6c0065 	svcvs	0x006c0065
     a80:	6f5f6461 	svcvs	0x005f6461
     a84:	41007074 	tstmi	r0, r4, ror r0
     a88:	435f5345 	cmpmi	pc, #335544321	; 0x14000001
     a8c:	645f4342 	ldrbvs	r4, [pc], #-834	; a94 <_back_addr-0x14ff56c>
     a90:	79726365 	ldmdbvc	r2!, {r0, r2, r5, r6, r8, r9, sp, lr}^
     a94:	74007470 	strvc	r7, [r0], #-1136	; 0x470
     a98:	7562706d 	strbvc	r7, [r2, #-109]!	; 0x6d
     a9c:	6b700066 	blvs	1c00c3c <__bss_end__+0x6ed0fc>
     aa0:	68007965 	stmdavs	r0, {r0, r2, r5, r6, r8, fp, ip, sp, lr}
     aa4:	75647865 	strbvc	r7, [r4, #-2149]!	; 0x865
     aa8:	6b00706d 	blvs	1cc64 <_back_addr-0x14e339c>
     aac:	725f7965 	subsvc	r7, pc, #1654784	; 0x194000
     ab0:	52006d65 	andpl	r6, r0, #6464	; 0x1940
     ab4:	59525445 	ldmdbpl	r2, {r0, r2, r6, sl, ip, lr}^
     ab8:	4154535f 	cmpmi	r4, pc, asr r3
     abc:	65005452 	strvs	r5, [r0, #-1106]	; 0x452
     ac0:	615f636e 	cmpvs	pc, lr, ror #6
     ac4:	79617272 	stmdbvc	r1!, {r1, r4, r5, r6, r9, ip, sp, lr}^
     ac8:	6e650031 	mcrvs	0, 3, r0, cr5, cr1, {1}
     acc:	72615f63 	rsbvc	r5, r1, #396	; 0x18c
     ad0:	32796172 	rsbscc	r6, r9, #-2147483620	; 0x8000001c
     ad4:	636e6500 	cmnvs	lr, #0, 10
     ad8:	7272615f 	rsbsvc	r6, r2, #-1073741801	; 0xc0000017
     adc:	00337961 	eorseq	r7, r3, r1, ror #18
     ae0:	7566626f 	strbvc	r6, [r6, #-623]!	; 0x26f
     ae4:	694c6573 	stmdbvs	ip, {r0, r1, r4, r5, r6, r8, sl, sp, lr}^
     ae8:	00632e62 	rsbeq	r2, r3, r2, ror #28
     aec:	38706d74 	ldmdacc	r0!, {r2, r4, r5, r6, r8, sl, fp, sp, lr}^
     af0:	636e6500 	cmnvs	lr, #0, 10
     af4:	7272615f 	rsbsvc	r6, r2, #-1073741801	; 0xc0000017
     af8:	73007961 	movwvc	r7, #2401	; 0x961
     afc:	725f6769 	subsvc	r6, pc, #27525120	; 0x1a40000
     b00:	6f620064 	svcvs	0x00620064
     b04:	53006c6f 	movwpl	r6, #3183	; 0xc6f
     b08:	65747379 	ldrbvs	r7, [r4, #-889]!	; 0x379
     b0c:	6d69546d 	cfstrdvs	mvd5, [r9, #-436]!	; 0xfffffe4c
     b10:	74756f65 	ldrbtvc	r6, [r5], #-3941	; 0xf65
     b14:	6d697400 	cfstrdvs	mvd7, [r9, #-0]
     b18:	632e7265 	teqvs	lr, #1342177286	; 0x50000006
     b1c:	73694400 	cmnvc	r9, #0, 8
     b20:	656c6261 	strbvs	r6, [ip, #-609]!	; 0x261
     b24:	656d6954 	strbvs	r6, [sp, #-2388]!	; 0x954
     b28:	69740072 	ldmdbvs	r4!, {r1, r4, r5, r6}^
     b2c:	4972656d 	ldmdbmi	r2!, {r0, r2, r3, r5, r6, r8, sl, sp, lr}^
     b30:	77640044 	strbvc	r0, [r4, -r4, asr #32]!
     b34:	696e694d 	stmdbvs	lr!, {r0, r2, r3, r6, r8, fp, sp, lr}^
     b38:	6f636553 	svcvs	0x00636553
     b3c:	6400646e 	strvs	r6, [r0], #-1134	; 0x46e
     b40:	63694d77 	cmnvs	r9, #7616	; 0x1dc0
     b44:	65536f72 	ldrbvs	r6, [r3, #-3954]	; 0xf72
     b48:	646e6f63 	strbtvs	r6, [lr], #-3939	; 0xf63
     b4c:	6c656400 	cfstrdvs	mvd6, [r5], #-0
     b50:	69547961 	ldmdbvs	r4, {r0, r5, r6, r8, fp, ip, sp, lr}^
     b54:	6c00656d 	cfstr32vs	mvfx6, [r0], {109}	; 0x6d
     b58:	74696d69 	strbtvc	r6, [r9], #-3433	; 0xd69
     b5c:	6f496200 	svcvs	0x00496200
     b60:	74617453 	strbtvc	r7, [r1], #-1107	; 0x453
     b64:	64007375 	strvs	r7, [r0], #-885	; 0x375
     b68:	696e4977 	stmdbvs	lr!, {r0, r1, r2, r4, r5, r6, r8, fp, lr}^
     b6c:	6e490074 	mcrvs	0, 2, r0, cr9, cr4, {3}
     b70:	69547469 	ldmdbvs	r4, {r0, r3, r5, r6, sl, ip, sp, lr}^
     b74:	0072656d 	rsbseq	r6, r2, sp, ror #10
     b78:	6c656946 	stclvs	9, cr6, [r5], #-280	; 0xfffffee8
     b7c:	00317364 	eorseq	r7, r1, r4, ror #6
     b80:	6c656946 	stclvs	9, cr6, [r5], #-280	; 0xfffffee8
     b84:	00327364 	eorseq	r7, r2, r4, ror #6
     b88:	5f737973 	svcpl	0x00737973
     b8c:	63616364 	cmnvs	r1, #100, 6	; 0x90000001
     b90:	665f6568 	ldrbvs	r6, [pc], -r8, ror #10
     b94:	6873756c 	ldmdavs	r3!, {r2, r3, r5, r6, r8, sl, ip, sp, lr}^
     b98:	6c6c615f 	stfvse	f6, [ip], #-380	; 0xfffffe84
     b9c:	73655200 	cmnvc	r5, #0, 4
     ba0:	65767265 	ldrbvs	r7, [r6, #-613]!	; 0x265
     ba4:	4d440064 	stclmi	0, cr0, [r4, #-400]	; 0xfffffe70
     ba8:	61004d41 	tstvs	r0, r1, asr #26
     bac:	636f6c6c 	cmnvs	pc, #108, 24	; 0x6c00
     bb0:	7275635f 	rsbsvc	r6, r5, #2080374785	; 0x7c000001
     bb4:	746e6572 	strbtvc	r6, [lr], #-1394	; 0x572
     bb8:	72615500 	rsbvc	r5, r1, #0, 10
     bbc:	72654974 	rsbvc	r4, r5, #116, 18	; 0x1d0000
     bc0:	006d6c44 	rsbeq	r6, sp, r4, asr #24
     bc4:	45425445 	strbmi	r5, [r2, #-1093]	; 0x445
     bc8:	74750049 	ldrbtvc	r0, [r5], #-73	; 0x49
     bcc:	632e6c69 	teqvs	lr, #26880	; 0x6900
     bd0:	74757000 	ldrbtvc	r7, [r5], #-0
     bd4:	6168635f 	cmnvs	r8, pc, asr r3
     bd8:	4c440072 	mcrrmi	0, 7, r0, r4, cr2
     bdc:	55004241 	strpl	r4, [r0, #-577]	; 0x241
     be0:	49747261 	ldmdbmi	r4!, {r0, r5, r6, r9, ip, sp, lr}^
     be4:	63467269 	movtvs	r7, #25193	; 0x6269
     be8:	555f0072 	ldrbpl	r0, [pc, #-114]	; b7e <_back_addr-0x14ff482>
     bec:	52545241 	subspl	r5, r4, #268435460	; 0x10000004
     bf0:	4c5f4745 	mrrcmi	7, 4, r4, pc, cr5	; <UNPREDICTABLE>
     bf4:	73005253 	movwvc	r5, #595	; 0x253
     bf8:	6c706d69 	ldclvs	13, cr6, [r0], #-420	; 0xfffffe5c
     bfc:	616d5f65 	cmnvs	sp, r5, ror #30
     c00:	636f6c6c 	cmnvs	pc, #108, 24	; 0x6c00
     c04:	69617700 	stmdbvs	r1!, {r8, r9, sl, ip, sp, lr}^
     c08:	6f645f74 	svcvs	0x00645f74
     c0c:	5f00656e 	svcpl	0x0000656e
     c10:	54524155 	ldrbpl	r4, [r2], #-341	; 0x155
     c14:	5f474552 	svcpl	0x00474552
     c18:	0052434c 	subseq	r4, r2, ip, asr #6
     c1c:	49534c45 	ldmdbmi	r3, {r0, r2, r6, sl, fp, lr}^
     c20:	6c617600 	stclvs	6, cr7, [r1], #-0
     c24:	52006575 	andpl	r6, r0, #490733568	; 0x1d400000
     c28:	72657365 	rsbvc	r7, r5, #-1811939327	; 0x94000001
     c2c:	30646576 	rsbcc	r6, r4, r6, ror r5
     c30:	73655200 	cmnvc	r5, #0, 4
     c34:	65767265 	ldrbvs	r7, [r6, #-613]!	; 0x265
     c38:	46003164 	strmi	r3, [r0], -r4, ror #2
     c3c:	314f4649 	cmpcc	pc, r9, asr #12
     c40:	61550036 	cmpvs	r5, r6, lsr r0
     c44:	734d7472 	movtvc	r7, #54386	; 0xd472
     c48:	72750072 	rsbsvc	r0, r5, #114	; 0x72
     c4c:	5078754d 	rsbspl	r7, r8, sp, asr #10
     c50:	765f6461 	ldrbvc	r6, [pc], -r1, ror #8
     c54:	54006c61 	strpl	r6, [r0], #-3169	; 0xc61
     c58:	00455248 	subeq	r5, r5, r8, asr #4
     c5c:	74726155 	ldrbtvc	r6, [r2], #-341	; 0x155
     c60:	00726353 	rsbseq	r6, r2, r3, asr r3
     c64:	53544344 	cmppl	r4, #68, 6	; 0x10000001
     c68:	78656800 	stmdavc	r5!, {fp, sp, lr}^
     c6c:	32727473 	rsbscc	r7, r2, #1929379840	; 0x73000000
     c70:	00746e69 	rsbseq	r6, r4, r9, ror #28
     c74:	544d4554 	strbpl	r4, [sp], #-1364	; 0x554
     c78:	72615500 	rsbvc	r5, r1, #0, 10
     c7c:	72734c74 	rsbsvc	r4, r3, #116, 24	; 0x7400
     c80:	52545200 	subspl	r5, r4, #0, 4
     c84:	75630047 	strbvc	r0, [r3, #-71]!	; 0x47
     c88:	6e657272 	mcrvs	2, 3, r7, cr5, cr2, {3}
     c8c:	72615574 	rsbvc	r5, r1, #116, 10	; 0x1d000000
     c90:	726f5074 	rsbvc	r5, pc, #116	; 0x74
     c94:	50490074 	subpl	r0, r9, r4, ror r0
     c98:	6900444e 	stmdbvs	r0, {r1, r2, r3, r6, sl, lr}
     c9c:	65685f73 	strbvs	r5, [r8, #-3955]!	; 0xf73
     ca0:	69645f78 	stmdbvs	r4!, {r3, r4, r5, r6, r8, r9, sl, fp, ip, lr}^
     ca4:	00746967 	rsbseq	r6, r4, r7, ror #18
     ca8:	756c6156 	strbvc	r6, [ip, #-342]!	; 0x156
     cac:	6c610065 	stclvs	0, cr0, [r1], #-404	; 0xfffffe6c
     cb0:	5f636f6c 	svcpl	0x00636f6c
     cb4:	6e756f63 	cdpvs	15, 7, cr6, cr5, cr3, {3}
     cb8:	6f630074 	svcvs	0x00630074
     cbc:	7261706d 	rsbvc	r7, r1, #109	; 0x6d
     cc0:	74735f65 	ldrbtvc	r5, [r3], #-3941	; 0xf65
     cc4:	555f0072 	ldrbpl	r0, [pc, #-114]	; c5a <_back_addr-0x14ff3a6>
     cc8:	52545241 	subspl	r5, r4, #268435460	; 0x10000004
     ccc:	4c004745 	stcmi	7, cr4, [r0], {69}	; 0x45
     cd0:	00504f4f 	subseq	r4, r0, pc, asr #30
     cd4:	53524654 	cmppl	r2, #84, 12	; 0x5400000
     cd8:	61550054 	cmpvs	r5, r4, asr r0
     cdc:	62527472 	subsvs	r7, r2, #1912602624	; 0x72000000
     ce0:	65685472 	strbvs	r5, [r8, #-1138]!	; 0x472
     ce4:	006c6c44 	rsbeq	r6, ip, r4, asr #24
     ce8:	61705f70 	cmnvs	r0, r0, ror pc
     cec:	006d6172 	rsbeq	r6, sp, r2, ror r1
     cf0:	5241555f 	subpl	r5, r1, #398458880	; 0x17c00000
     cf4:	47455254 	smlsldmi	r5, r5, r4, r2	; <UNPREDICTABLE>
     cf8:	5249495f 	subpl	r4, r9, #1556480	; 0x17c000
     cfc:	5243465f 	subpl	r4, r3, #99614720	; 0x5f00000
     d00:	74617700 	strbtvc	r7, [r1], #-1792	; 0x700
     d04:	6f646863 	svcvs	0x00646863
     d08:	65725f67 	ldrbvs	r5, [r2, #-3943]!	; 0xf67
     d0c:	00746573 	rsbseq	r6, r4, r3, ror r5
     d10:	6e697270 	mcrvs	2, 3, r7, cr9, cr0, {3}
     d14:	65685f74 	strbvs	r5, [r8, #-3956]!	; 0xf74
     d18:	555f0078 	ldrbpl	r0, [pc, #-120]	; ca8 <_back_addr-0x14ff358>
     d1c:	52545241 	subspl	r5, r4, #268435460	; 0x10000004
     d20:	4d5f4745 	ldclmi	7, cr4, [pc, #-276]	; c14 <_back_addr-0x14ff3ec>
     d24:	6e005253 	mcrvs	2, 0, r5, cr0, cr3, {2}
     d28:	7479625f 	ldrbtvc	r6, [r9], #-607	; 0x25f
     d2c:	73007365 	movwvc	r7, #869	; 0x365
     d30:	61697265 	cmnvs	r9, r5, ror #4
     d34:	72775f6c 	rsbsvc	r5, r7, #108, 30	; 0x1b0
     d38:	00657469 	rsbeq	r7, r5, r9, ror #8
     d3c:	69645f5f 	stmdbvs	r4!, {r0, r1, r2, r3, r4, r6, r8, r9, sl, fp, ip, lr}^
     d40:	6d003076 	stcvs	0, cr3, [r0, #-472]	; 0xfffffe28
     d44:	006b7361 	rsbeq	r7, fp, r1, ror #6
     d48:	74726155 	ldrbtvc	r6, [r2], #-341	; 0x155
     d4c:	0072634d 	rsbseq	r6, r2, sp, asr #6
     d50:	5241555f 	subpl	r5, r1, #398458880	; 0x17c00000
     d54:	47455254 	smlsldmi	r5, r5, r4, r2	; <UNPREDICTABLE>
     d58:	5245495f 	subpl	r4, r5, #1556480	; 0x17c000
     d5c:	4d4c445f 	cfstrdmi	mvd4, [ip, #-380]	; 0xfffffe84
     d60:	53444500 	movtpl	r4, #17664	; 0x4500
     d64:	5f004953 	svcpl	0x00004953
     d68:	54524155 	ldrbpl	r4, [r2], #-341	; 0x155
     d6c:	5f474552 	svcpl	0x00474552
     d70:	0052434d 	subseq	r4, r2, sp, asr #6
     d74:	74726155 	ldrbtvc	r6, [r2], #-341	; 0x155
     d78:	00676552 	rsbeq	r6, r7, r2, asr r5
     d7c:	5241555f 	subpl	r5, r1, #398458880	; 0x17c00000
     d80:	47455254 	smlsldmi	r5, r5, r4, r2	; <UNPREDICTABLE>
     d84:	5242525f 	subpl	r5, r2, #-268435451	; 0xf0000005
     d88:	5248545f 	subpl	r5, r8, #1593835520	; 0x5f000000
     d8c:	4c4c445f 	cfstrdmi	mvd4, [ip], {95}	; 0x5f
     d90:	72615500 	rsbvc	r5, r1, #0, 10
     d94:	72634c74 	rsbvc	r4, r3, #116, 24	; 0x7400
     d98:	49464500 	stmdbmi	r6, {r8, sl, lr}^
     d9c:	52004f46 	andpl	r4, r0, #280	; 0x118
     da0:	54535246 	ldrbpl	r5, [r3], #-582	; 0x246
     da4:	41555f00 	cmpmi	r5, r0, lsl #30
     da8:	45525452 	ldrbmi	r5, [r2, #-1106]	; 0x452
     dac:	43535f47 	cmpmi	r3, #284	; 0x11c
     db0:	72700052 	rsbsvc	r0, r0, #82	; 0x52
     db4:	5f746e69 	svcpl	0x00746e69
     db8:	006c6176 	rsbeq	r6, ip, r6, ror r1
     dbc:	49425245 	stmdbmi	r2, {r0, r2, r6, r9, ip, lr}^
     dc0:	6d6f6300 	stclvs	3, cr6, [pc, #-0]	; dc8 <_back_addr-0x14ff238>
     dc4:	65726170 	ldrbvs	r6, [r2, #-368]!	; 0x170
     dc8:	6d656d5f 	stclvs	13, cr6, [r5, #-380]!	; 0xfffffe84
     dcc:	0079726f 	rsbseq	r7, r9, pc, ror #4
     dd0:	6c656946 	stclvs	9, cr6, [r5], #-280	; 0xfffffee8
     dd4:	46007364 	strmi	r7, [r0], -r4, ror #6
     dd8:	646c6569 	strbtvs	r6, [ip], #-1385	; 0x569
     ddc:	73003073 	movwvc	r3, #115	; 0x73
     de0:	635f7465 	cmpvs	pc, #1694498816	; 0x65000000
     de4:	6c657373 	stclvs	3, cr7, [r5], #-460	; 0xfffffe34
     de8:	6e690072 	mcrvs	0, 3, r0, cr9, cr2, {3}
     dec:	696c6176 	stmdbvs	ip!, {r1, r2, r4, r5, r6, r8, sp, lr}^
     df0:	65746164 	ldrbvs	r6, [r4, #-356]!	; 0x164
     df4:	6163695f 	cmnvs	r3, pc, asr r9
     df8:	5f656863 	svcpl	0x00656863
     dfc:	006c6c61 	rsbeq	r6, ip, r1, ror #24
     e00:	5f746567 	svcpl	0x00746567
     e04:	64696c63 	strbtvs	r6, [r9], #-3171	; 0xc63
     e08:	6c660072 	stclvs	0, cr0, [r6], #-456	; 0xfffffe38
     e0c:	5f687375 	svcpl	0x00687375
     e10:	63616364 	cmnvs	r1, #100, 6	; 0x90000001
     e14:	725f6568 	subsvc	r6, pc, #104, 10	; 0x1a000000
     e18:	65676e61 	strbvs	r6, [r7, #-3681]!	; 0xe61
     e1c:	5f377600 	svcpl	0x00377600
     e20:	61766e69 	cmnvs	r6, r9, ror #28
     e24:	63645f6c 	cmnvs	r4, #108, 30	; 0x1b0
     e28:	65686361 	strbvs	r6, [r8, #-865]!	; 0x361
     e2c:	76656c5f 			; <UNDEFINED> instruction: 0x76656c5f
     e30:	735f6c65 	cmpvc	pc, #25856	; 0x6500
     e34:	61777465 	cmnvs	r7, r5, ror #8
     e38:	6e690079 	mcrvs	0, 3, r0, cr9, cr9, {3}
     e3c:	696c6176 	stmdbvs	ip!, {r1, r2, r4, r5, r6, r8, sp, lr}^
     e40:	65746164 	ldrbvs	r6, [r4, #-356]!	; 0x164
     e44:	6163645f 	cmnvs	r3, pc, asr r4
     e48:	5f656863 	svcpl	0x00656863
     e4c:	676e6172 			; <UNDEFINED> instruction: 0x676e6172
     e50:	5f5f0065 	svcpl	0x005f0065
     e54:	6f5f3776 	svcvs	0x005f3776
     e58:	72657475 	rsbvc	r7, r5, #1962934272	; 0x75000000
     e5c:	6361635f 	cmnvs	r1, #2080374785	; 0x7c000001
     e60:	665f6568 	ldrbvs	r6, [pc], -r8, ror #10
     e64:	6873756c 	ldmdavs	r3!, {r2, r3, r5, r6, r8, sl, ip, sp, lr}^
     e68:	6e61725f 	mcrvs	2, 3, r7, cr1, cr15, {2}
     e6c:	76006567 	strvc	r6, [r0], -r7, ror #10
     e70:	616d5f37 	cmnvs	sp, r7, lsr pc
     e74:	5f746e69 	svcpl	0x00746e69
     e78:	63616364 	cmnvs	r1, #100, 6	; 0x90000001
     e7c:	615f6568 	cmpvs	pc, r8, ror #10
     e80:	76006c6c 	strvc	r6, [r0], -ip, ror #24
     e84:	616d5f37 	cmnvs	sp, r7, lsr pc
     e88:	5f746e69 	svcpl	0x00746e69
     e8c:	63616364 	cmnvs	r1, #100, 6	; 0x90000001
     e90:	6c5f6568 	cfldr64vs	mvdx6, [pc], {104}	; 0x68
     e94:	6c657665 	stclvs	6, cr7, [r5], #-404	; 0xfffffe6c
     e98:	7465735f 	strbtvc	r7, [r5], #-863	; 0x35f
     e9c:	00796177 	rsbseq	r6, r9, r7, ror r1
     ea0:	695f3776 	ldmdbvs	pc, {r1, r2, r4, r5, r6, r8, r9, sl, ip, sp}^	; <UNPREDICTABLE>
     ea4:	6c61766e 	stclvs	6, cr7, [r1], #-440	; 0xfffffe48
     ea8:	626c745f 	rsbvs	r7, ip, #1593835520	; 0x5f000000
     eac:	765f5f00 	ldrbvc	r5, [pc], -r0, lsl #30
     eb0:	756f5f37 	strbvc	r5, [pc, #-3895]!	; ffffff81 <__bss_end__+0xfeaec441>
     eb4:	5f726574 	svcpl	0x00726574
     eb8:	68636163 	stmdavs	r3!, {r0, r1, r5, r6, r8, sp, lr}^
     ebc:	6e695f65 	cdpvs	15, 6, cr5, cr9, cr5, {3}
     ec0:	5f6c6176 	svcpl	0x006c6176
     ec4:	006c6c61 	rsbeq	r6, ip, r1, ror #24
     ec8:	5f676f6c 	svcpl	0x00676f6c
     ecc:	5f6e5f32 	svcpl	0x006e5f32
     ed0:	6e756f72 	mrcvs	15, 3, r6, cr5, cr2, {3}
     ed4:	70755f64 	rsbsvc	r5, r5, r4, ror #30
     ed8:	63616300 	cmnvs	r1, #0, 6
     edc:	765f6568 	ldrbvc	r6, [pc], -r8, ror #10
     ee0:	00632e37 	rsbeq	r2, r3, r7, lsr lr
     ee4:	645f3776 	ldrbvs	r3, [pc], #-1910	; eec <_back_addr-0x14ff114>
     ee8:	68636163 	stmdavs	r3!, {r0, r1, r5, r6, r8, sp, lr}^
     eec:	6c635f65 	stclvs	15, cr5, [r3], #-404	; 0xfffffe6c
     ef0:	5f6e6165 	svcpl	0x006e6165
     ef4:	61766e69 	cmnvs	r6, r9, ror #28
     ef8:	61725f6c 	cmnvs	r2, ip, ror #30
     efc:	0065676e 	rsbeq	r6, r5, lr, ror #14
     f00:	32676f6c 	rsbcc	r6, r7, #108, 30	; 0x1b0
     f04:	6d756e5f 	ldclvs	14, cr6, [r5, #-380]!	; 0xfffffe84
     f08:	7961775f 	stmdbvc	r1!, {r0, r1, r2, r3, r4, r6, r8, r9, sl, ip, sp, lr}^
     f0c:	61770073 	cmnvs	r7, r3, ror r0
     f10:	68735f79 	ldmdavs	r3!, {r0, r3, r4, r5, r6, r8, r9, sl, fp, ip, lr}^
     f14:	00746669 	rsbseq	r6, r4, r9, ror #12
     f18:	37765f5f 			; <UNDEFINED> instruction: 0x37765f5f
     f1c:	74756f5f 	ldrbtvc	r6, [r5], #-3935	; 0xf5f
     f20:	635f7265 	cmpvs	pc, #1342177286	; 0x50000006
     f24:	65686361 	strbvs	r6, [r8, #-865]!	; 0x361
     f28:	756c665f 	strbvc	r6, [ip, #-1631]!	; 0x65f
     f2c:	615f6873 	cmpvs	pc, r3, ror r8	; <UNPREDICTABLE>
     f30:	6c006c6c 	stcvs	12, cr6, [r0], {108}	; 0x6c
     f34:	6e32676f 	cdpvs	7, 3, cr6, cr2, cr15, {3}
     f38:	6d756e00 	ldclvs	14, cr6, [r5, #-0]
     f3c:	7465735f 	strbtvc	r7, [r5], #-863	; 0x35f
     f40:	656c0073 	strbvs	r0, [ip, #-115]!	; 0x73
     f44:	5f6c6576 	svcpl	0x006c6576
     f48:	72617473 	rsbvc	r7, r1, #1929379840	; 0x73000000
     f4c:	69625f74 	stmdbvs	r2!, {r2, r4, r5, r6, r8, r9, sl, fp, ip, lr}^
     f50:	6f6c0074 	svcvs	0x006c0074
     f54:	6c5f3267 	lfmvs	f3, 2, [pc], {103}	; 0x67
     f58:	5f656e69 	svcpl	0x00656e69
     f5c:	006e656c 	rsbeq	r6, lr, ip, ror #10
     f60:	72617473 	rsbvc	r7, r1, #1929379840	; 0x73000000
     f64:	706f0074 	rsbvc	r0, pc, r4, ror r0	; <UNPREDICTABLE>
     f68:	74617265 	strbtvc	r7, [r1], #-613	; 0x265
     f6c:	006e6f69 	rsbeq	r6, lr, r9, ror #30
     f70:	635f3776 	cmpvs	pc, #30932992	; 0x1d80000
     f74:	6e61656c 	cdpvs	5, 6, cr6, cr1, cr12, {3}
     f78:	766e695f 			; <UNDEFINED> instruction: 0x766e695f
     f7c:	645f6c61 	ldrbvs	r6, [pc], #-3169	; f84 <_back_addr-0x14ff07c>
     f80:	68636163 	stmdavs	r3!, {r0, r1, r5, r6, r8, sp, lr}^
     f84:	656c5f65 	strbvs	r5, [ip, #-3941]!	; 0xf65
     f88:	5f6c6576 	svcpl	0x006c6576
     f8c:	77746573 			; <UNDEFINED> instruction: 0x77746573
     f90:	73007961 	movwvc	r7, #2401	; 0x961
     f94:	00706f74 	rsbseq	r6, r0, r4, ror pc
     f98:	645f3776 	ldrbvs	r3, [pc], #-1910	; fa0 <_back_addr-0x14ff060>
     f9c:	68636163 	stmdavs	r3!, {r0, r1, r5, r6, r8, sp, lr}^
     fa0:	6e695f65 	cdpvs	15, 6, cr5, cr9, cr5, {3}
     fa4:	5f6c6176 	svcpl	0x006c6176
     fa8:	676e6172 			; <UNDEFINED> instruction: 0x676e6172
     fac:	65670065 	strbvs	r0, [r7, #-101]!	; 0x65
     fb0:	63635f74 	cmnvs	r3, #116, 30	; 0x1d0
     fb4:	72646973 	rsbvc	r6, r4, #1884160	; 0x1cc000
     fb8:	765f5f00 	ldrbvc	r5, [pc], -r0, lsl #30
     fbc:	756f5f37 	strbvc	r5, [pc, #-3895]!	; 8d <_back_addr-0x14fff73>
     fc0:	5f726574 	svcpl	0x00726574
     fc4:	68636163 	stmdavs	r3!, {r0, r1, r5, r6, r8, sp, lr}^
     fc8:	6e695f65 	cdpvs	15, 6, cr5, cr9, cr5, {3}
     fcc:	5f6c6176 	svcpl	0x006c6176
     fd0:	676e6172 			; <UNDEFINED> instruction: 0x676e6172
     fd4:	72610065 	rsbvc	r0, r1, #101	; 0x65
     fd8:	6e695f6d 	cdpvs	15, 6, cr5, cr9, cr13, {3}
     fdc:	625f7469 	subsvs	r7, pc, #1761607680	; 0x69000000
     fe0:	726f6665 	rsbvc	r6, pc, #105906176	; 0x6500000
     fe4:	6d6d5f65 	stclvs	15, cr5, [sp, #-404]!	; 0xfffffe6c
     fe8:	61720075 	cmnvs	r2, r5, ror r0
     fec:	5f65676e 	svcpl	0x0065676e
     ff0:	5f00706f 	svcpl	0x0000706f
     ff4:	5f37765f 	svcpl	0x0037765f
     ff8:	6574756f 	ldrbvs	r7, [r4, #-1391]!	; 0x56f
     ffc:	61635f72 	smcvs	13810	; 0x35f2
    1000:	5f656863 	svcpl	0x00656863
    1004:	62616e65 	rsbvs	r6, r1, #1616	; 0x650
    1008:	5f00656c 	svcpl	0x0000656c
    100c:	5f37765f 	svcpl	0x0037765f
    1010:	6574756f 	ldrbvs	r7, [r4, #-1391]!	; 0x56f
    1014:	61635f72 	smcvs	13810	; 0x35f2
    1018:	5f656863 	svcpl	0x00656863
    101c:	61736964 	cmnvs	r3, r4, ror #18
    1020:	00656c62 	rsbeq	r6, r5, r2, ror #24
    1024:	6576656c 	ldrbvs	r6, [r6, #-1388]!	; 0x56c
    1028:	3776006c 	ldrbcc	r0, [r6, -ip, rrx]!
    102c:	6163645f 	cmnvs	r3, pc, asr r4
    1030:	5f656863 	svcpl	0x00656863
    1034:	6e69616d 	powvsez	f6, f1, #5.0
    1038:	61725f74 	cmnvs	r2, r4, ror pc
    103c:	0065676e 	rsbeq	r6, r5, lr, ror #14
    1040:	68636163 	stmdavs	r3!, {r0, r1, r5, r6, r8, sp, lr}^
    1044:	79745f65 	ldmdbvc	r4!, {r0, r2, r5, r6, r8, r9, sl, fp, ip, lr}^
    1048:	66006570 			; <UNDEFINED> instruction: 0x66006570
    104c:	6873756c 	ldmdavs	r3!, {r2, r3, r5, r6, r8, sl, ip, sp, lr}^
    1050:	6163645f 	cmnvs	r3, pc, asr r4
    1054:	5f656863 	svcpl	0x00656863
    1058:	006c6c61 	rsbeq	r6, ip, r1, ror #24
    105c:	61766e69 	cmnvs	r6, r9, ror #28
    1060:	6164696c 	cmnvs	r4, ip, ror #18
    1064:	645f6574 	ldrbvs	r6, [pc], #-1396	; 106c <_back_addr-0x14fef94>
    1068:	68636163 	stmdavs	r3!, {r0, r1, r5, r6, r8, sp, lr}^
    106c:	6c615f65 	stclvs	15, cr5, [r1], #-404	; 0xfffffe6c
    1070:	Address 0x00001070 is out of bounds.


Disassembly of section .debug_loc:

00000000 <.debug_loc>:
       0:	00000000 	andeq	r0, r0, r0
       4:	00000008 	andeq	r0, r0, r8
       8:	08500001 	ldmdaeq	r0, {r0}^
       c:	18000000 	stmdane	r0, {}	; <UNPREDICTABLE>
      10:	01000000 	mrseq	r0, (UNDEF: 0)
      14:	00185300 	andseq	r5, r8, r0, lsl #6
      18:	00200000 	eoreq	r0, r0, r0
      1c:	00030000 	andeq	r0, r3, r0
      20:	009f7f73 	addseq	r7, pc, r3, ror pc	; <UNPREDICTABLE>
	...
      2c:	10000000 	andne	r0, r0, r0
      30:	02000000 	andeq	r0, r0, #0
      34:	109f3000 	addsne	r3, pc, r0
      38:	14000000 	strne	r0, [r0], #-0
      3c:	07000000 	streq	r0, [r0, -r0]
      40:	20007000 	andcs	r7, r0, r0
      44:	9f220073 	svcls	0x00220073
      48:	00000014 	andeq	r0, r0, r4, lsl r0
      4c:	00000020 	andeq	r0, r0, r0, lsr #32
      50:	00510001 	subseq	r0, r1, r1
	...
      5c:	30000000 	andcc	r0, r0, r0
      60:	01000000 	mrseq	r0, (UNDEF: 0)
      64:	00305000 	eorseq	r5, r0, r0
      68:	00380000 	eorseq	r0, r8, r0
      6c:	00030000 	andeq	r0, r3, r0
      70:	389f7f70 	ldmcc	pc, {r4, r5, r6, r8, r9, sl, fp, ip, sp, lr}	; <UNPREDICTABLE>
      74:	90000000 	andls	r0, r0, r0
      78:	01000000 	mrseq	r0, (UNDEF: 0)
      7c:	00985000 	addseq	r5, r8, r0
      80:	009c0000 	addseq	r0, ip, r0
      84:	00010000 	andeq	r0, r1, r0
      88:	00009c50 	andeq	r9, r0, r0, asr ip
      8c:	0000a000 	andeq	sl, r0, r0
      90:	f3000400 	vshl.u8	d0, d0, d0
      94:	009f5001 	addseq	r5, pc, r1
      98:	00000000 	andeq	r0, r0, r0
      9c:	60000000 	andvs	r0, r0, r0
      a0:	6c000000 	stcvs	0, cr0, [r0], {-0}
      a4:	01000000 	mrseq	r0, (UNDEF: 0)
      a8:	006c5e00 	rsbeq	r5, ip, r0, lsl #28
      ac:	00740000 	rsbseq	r0, r4, r0
      b0:	00030000 	andeq	r0, r3, r0
      b4:	749f7f73 	ldrvc	r7, [pc], #3955	; bc <_back_addr-0x14fff44>
      b8:	78000000 	stmdavc	r0, {}	; <UNPREDICTABLE>
      bc:	01000000 	mrseq	r0, (UNDEF: 0)
      c0:	00785300 	rsbseq	r5, r8, r0, lsl #6
      c4:	00900000 	addseq	r0, r0, r0
      c8:	00010000 	andeq	r0, r1, r0
      cc:	0000005e 	andeq	r0, r0, lr, asr r0
      d0:	00000000 	andeq	r0, r0, r0
      d4:	00004000 	andeq	r4, r0, r0
      d8:	00006000 	andeq	r6, r0, r0
      dc:	50000100 	andpl	r0, r0, r0, lsl #2
      e0:	0000006c 	andeq	r0, r0, ip, rrx
      e4:	00000070 	andeq	r0, r0, r0, ror r0
      e8:	705c0001 	subsvc	r0, ip, r1
      ec:	74000000 	strvc	r0, [r0], #-0
      f0:	03000000 	movweq	r0, #0
      f4:	9f7f7c00 	svcls	0x007f7c00
	...
     104:	00000014 	andeq	r0, r0, r4, lsl r0
     108:	14500001 	ldrbne	r0, [r0], #-1
     10c:	50000000 	andpl	r0, r0, r0
     110:	01000001 	tsteq	r0, r1
     114:	01505800 	cmpeq	r0, r0, lsl #16
     118:	01580000 	cmpeq	r8, r0
     11c:	00040000 	andeq	r0, r4, r0
     120:	9f5001f3 	svcls	0x005001f3
     124:	00000158 	andeq	r0, r0, r8, asr r1
     128:	00000194 	muleq	r0, r4, r1
     12c:	00580001 	subseq	r0, r8, r1
	...
     138:	68000000 	stmdavs	r0, {}	; <UNPREDICTABLE>
     13c:	01000000 	mrseq	r0, (UNDEF: 0)
     140:	00685200 	rsbeq	r5, r8, r0, lsl #4
     144:	007c0000 	rsbseq	r0, ip, r0
     148:	00040000 	andeq	r0, r4, r0
     14c:	9f5201f3 	svcls	0x005201f3
     150:	0000007c 	andeq	r0, r0, ip, ror r0
     154:	00000084 	andeq	r0, r0, r4, lsl #1
     158:	84520001 	ldrbhi	r0, [r2], #-1
     15c:	a8000000 	stmdage	r0, {}	; <UNPREDICTABLE>
     160:	04000000 	streq	r0, [r0], #-0
     164:	5201f300 	andpl	pc, r1, #0, 6
     168:	0000a89f 	muleq	r0, pc, r8	; <UNPREDICTABLE>
     16c:	00017c00 	andeq	r7, r1, r0, lsl #24
     170:	52000100 	andpl	r0, r0, #0, 2
     174:	0000017c 	andeq	r0, r0, ip, ror r1
     178:	00000188 	andeq	r0, r0, r8, lsl #3
     17c:	01f30004 	mvnseq	r0, r4
     180:	01889f52 	orreq	r9, r8, r2, asr pc
     184:	01940000 	orrseq	r0, r4, r0
     188:	00020000 	andeq	r0, r2, r0
     18c:	00009f40 	andeq	r9, r0, r0, asr #30
     190:	00000000 	andeq	r0, r0, r0
     194:	00100000 	andseq	r0, r0, r0
     198:	00400000 	subeq	r0, r0, r0
     19c:	00010000 	andeq	r0, r1, r0
     1a0:	00004050 	andeq	r4, r0, r0, asr r0
     1a4:	00015800 	andeq	r5, r1, r0, lsl #16
     1a8:	53000100 	movwpl	r0, #256	; 0x100
     1ac:	00000158 	andeq	r0, r0, r8, asr r1
     1b0:	0000015c 	andeq	r0, r0, ip, asr r1
     1b4:	5c500001 	mrrcpl	0, 0, r0, r0, cr1	; <UNPREDICTABLE>
     1b8:	94000001 	strls	r0, [r0], #-1
     1bc:	01000001 	tsteq	r0, r1
     1c0:	00005300 	andeq	r5, r0, r0, lsl #6
     1c4:	00000000 	andeq	r0, r0, r0
     1c8:	00a80000 	adceq	r0, r8, r0
     1cc:	00b40000 	adcseq	r0, r4, r0
     1d0:	00020000 	andeq	r0, r2, r0
     1d4:	00b49f30 	adcseq	r9, r4, r0, lsr pc
     1d8:	00d00000 	sbcseq	r0, r0, r0
     1dc:	00010000 	andeq	r0, r1, r0
     1e0:	0000d056 	andeq	sp, r0, r6, asr r0
     1e4:	0000d400 	andeq	sp, r0, r0, lsl #8
     1e8:	7a000600 	bvc	19f0 <_back_addr-0x14fe610>
     1ec:	1e007600 	cfmadd32ne	mvax0, mvfx7, mvfx0, mvfx0
     1f0:	0000d49f 	muleq	r0, pc, r4	; <UNPREDICTABLE>
     1f4:	00012400 	andeq	r2, r1, r0, lsl #8
     1f8:	56000100 	strpl	r0, [r0], -r0, lsl #2
     1fc:	00000128 	andeq	r0, r0, r8, lsr #2
     200:	00000140 	andeq	r0, r0, r0, asr #2
     204:	44560001 	ldrbmi	r0, [r6], #-1
     208:	58000001 	stmdapl	r0, {r0}
     20c:	01000001 	tsteq	r0, r1
     210:	00005000 	andeq	r5, r0, r0
     214:	00000000 	andeq	r0, r0, r0
     218:	00a80000 	adceq	r0, r8, r0
     21c:	013c0000 	teqeq	ip, r0
     220:	00010000 	andeq	r0, r1, r0
     224:	00000050 	andeq	r0, r0, r0, asr r0
     228:	00000000 	andeq	r0, r0, r0
     22c:	00001400 	andeq	r1, r0, r0, lsl #8
     230:	00001800 	andeq	r1, r0, r0, lsl #16
     234:	5e000100 	adfpls	f0, f0, f0
     238:	00000020 	andeq	r0, r0, r0, lsr #32
     23c:	0000007c 	andeq	r0, r0, ip, ror r0
     240:	7c5e0001 	mrrcvc	0, 0, r0, lr, cr1
     244:	94000000 	strls	r0, [r0], #-0
     248:	03000000 	movweq	r0, #0
     24c:	9f300800 	svcls	0x00300800
     250:	000000b4 	strheq	r0, [r0], -r4
     254:	000000e8 	andeq	r0, r0, r8, ror #1
     258:	045e0001 	ldrbeq	r0, [lr], #-1
     25c:	28000001 	stmdacs	r0, {r0}
     260:	01000001 	tsteq	r0, r1
     264:	01585e00 	cmpeq	r8, r0, lsl #28
     268:	01940000 	orrseq	r0, r4, r0
     26c:	00010000 	andeq	r0, r1, r0
     270:	0000005e 	andeq	r0, r0, lr, asr r0
     274:	00000000 	andeq	r0, r0, r0
     278:	00003800 	andeq	r3, r0, r0, lsl #16
     27c:	00004400 	andeq	r4, r0, r0, lsl #8
     280:	30000200 	andcc	r0, r0, r0, lsl #4
     284:	0001589f 	muleq	r1, pc, r8	; <UNPREDICTABLE>
     288:	00016800 	andeq	r6, r1, r0, lsl #16
     28c:	31000200 	mrscc	r0, R8_usr
     290:	0000009f 	muleq	r0, pc, r0	; <UNPREDICTABLE>
     294:	00000000 	andeq	r0, r0, r0
     298:	0000a800 	andeq	sl, r0, r0, lsl #16
     29c:	0000b400 	andeq	fp, r0, r0, lsl #8
     2a0:	30000200 	andcc	r0, r0, r0, lsl #4
     2a4:	0000b49f 	muleq	r0, pc, r4	; <UNPREDICTABLE>
     2a8:	0000d000 	andeq	sp, r0, r0
     2ac:	55000100 	strpl	r0, [r0, #-256]	; 0x100
     2b0:	000000d0 	ldrdeq	r0, [r0], -r0	; <UNPREDICTABLE>
     2b4:	000000d8 	ldrdeq	r0, [r0], -r8
     2b8:	9f310002 	svcls	0x00310002
     2bc:	000000d8 	ldrdeq	r0, [r0], -r8
     2c0:	00000120 	andeq	r0, r0, r0, lsr #2
     2c4:	28550001 	ldmdacs	r5, {r0}^
     2c8:	58000001 	stmdapl	r0, {r0}
     2cc:	01000001 	tsteq	r0, r1
     2d0:	00005500 	andeq	r5, r0, r0, lsl #10
     2d4:	00000000 	andeq	r0, r0, r0
     2d8:	00a80000 	adceq	r0, r8, r0
     2dc:	01580000 	cmpeq	r8, r0
     2e0:	00010000 	andeq	r0, r1, r0
     2e4:	00000059 	andeq	r0, r0, r9, asr r0
     2e8:	00000000 	andeq	r0, r0, r0
     2ec:	00001800 	andeq	r1, r0, r0, lsl #16
     2f0:	00002800 	andeq	r2, r0, r0, lsl #16
     2f4:	51000100 	mrspl	r0, (UNDEF: 16)
     2f8:	00000028 	andeq	r0, r0, r8, lsr #32
     2fc:	0000003c 	andeq	r0, r0, ip, lsr r0
     300:	01f30004 	mvnseq	r0, r4
     304:	00009f51 	andeq	r9, r0, r1, asr pc
     308:	00000000 	andeq	r0, r0, r0
     30c:	00180000 	andseq	r0, r8, r0
     310:	001c0000 	andseq	r0, ip, r0
     314:	00010000 	andeq	r0, r1, r0
     318:	00001c52 	andeq	r1, r0, r2, asr ip
     31c:	00002400 	andeq	r2, r0, r0, lsl #8
     320:	72000300 	andvc	r0, r0, #0, 6
     324:	00249f7f 	eoreq	r9, r4, pc, ror pc
     328:	00280000 	eoreq	r0, r8, r0
     32c:	00060000 	andeq	r0, r6, r0
     330:	315201f3 	ldrshcc	r0, [r2, #-19]	; 0xffffffed
     334:	00289f1c 	eoreq	r9, r8, ip, lsl pc
     338:	002c0000 	eoreq	r0, ip, r0
     33c:	000b0000 	andeq	r0, fp, r0
     340:	f3200071 	vqadd.u32	q0, q0, <illegal reg q8.5>
     344:	71225201 	teqvc	r2, r1, lsl #4
     348:	2c9f2200 	lfmcs	f2, 4, [pc], {0}
     34c:	3c000000 	stccc	0, cr0, [r0], {-0}
     350:	0b000000 	bleq	358 <_back_addr-0x14ffca8>
     354:	20007100 	andcs	r7, r0, r0, lsl #2
     358:	f3220071 	vqadd.u32	q0, q1, <illegal reg q8.5>
     35c:	9f225201 	svcls	0x00225201
	...
     368:	0000001c 	andeq	r0, r0, ip, lsl r0
     36c:	00000028 	andeq	r0, r0, r8, lsr #32
     370:	00500001 	subseq	r0, r0, r1
     374:	00000000 	andeq	r0, r0, r0
     378:	1c000000 	stcne	0, cr0, [r0], {-0}
     37c:	2c000000 	stccs	0, cr0, [r0], {-0}
     380:	01000000 	mrseq	r0, (UNDEF: 0)
     384:	002c5100 	eoreq	r5, ip, r0, lsl #2
     388:	00300000 	eorseq	r0, r0, r0
     38c:	00030000 	andeq	r0, r3, r0
     390:	309f7f71 	addscc	r7, pc, r1, ror pc	; <UNPREDICTABLE>
     394:	3c000000 	stccc	0, cr0, [r0], {-0}
     398:	01000000 	mrseq	r0, (UNDEF: 0)
     39c:	00005100 	andeq	r5, r0, r0, lsl #2
     3a0:	00000000 	andeq	r0, r0, r0
     3a4:	003c0000 	eorseq	r0, ip, r0
     3a8:	00500000 	subseq	r0, r0, r0
     3ac:	00010000 	andeq	r0, r1, r0
     3b0:	00005050 	andeq	r5, r0, r0, asr r0
     3b4:	00006000 	andeq	r6, r0, r0
     3b8:	5c000100 	stfpls	f0, [r0], {-0}
     3bc:	00000060 	andeq	r0, r0, r0, rrx
     3c0:	00000068 	andeq	r0, r0, r8, rrx
     3c4:	7f7c0003 	svcvc	0x007c0003
     3c8:	0000689f 	muleq	r0, pc, r8	; <UNPREDICTABLE>
     3cc:	00008c00 	andeq	r8, r0, r0, lsl #24
     3d0:	f3000400 	vshl.u8	d0, d0, d0
     3d4:	8c9f5001 	ldchi	0, cr5, [pc], {1}
     3d8:	90000000 	andls	r0, r0, r0
     3dc:	01000000 	mrseq	r0, (UNDEF: 0)
     3e0:	00905000 	addseq	r5, r0, r0
     3e4:	00940000 	addseq	r0, r4, r0
     3e8:	00040000 	andeq	r0, r4, r0
     3ec:	9f5001f3 	svcls	0x005001f3
	...
     3f8:	0000003c 	andeq	r0, r0, ip, lsr r0
     3fc:	00000068 	andeq	r0, r0, r8, rrx
     400:	68510001 	ldmdavs	r1, {r0}^
     404:	8c000000 	stchi	0, cr0, [r0], {-0}
     408:	04000000 	streq	r0, [r0], #-0
     40c:	5101f300 	mrspl	pc, SP_irq	; <UNPREDICTABLE>
     410:	00008c9f 	muleq	r0, pc, ip	; <UNPREDICTABLE>
     414:	00009400 	andeq	r9, r0, r0, lsl #8
     418:	51000100 	mrspl	r0, (UNDEF: 16)
	...
     424:	0000003c 	andeq	r0, r0, ip, lsr r0
     428:	0000005c 	andeq	r0, r0, ip, asr r0
     42c:	5c520001 	mrrcpl	0, 0, r0, r2, cr1
     430:	68000000 	stmdavs	r0, {}	; <UNPREDICTABLE>
     434:	04000000 	streq	r0, [r0], #-0
     438:	5201f300 	andpl	pc, r1, #0, 6
     43c:	0000689f 	muleq	r0, pc, r8	; <UNPREDICTABLE>
     440:	00006c00 	andeq	r6, r0, r0, lsl #24
     444:	f3000b00 	vqrdmulh.s<illegal width 8>	d0, d0, d0
     448:	007c5001 	rsbseq	r5, ip, r1
     44c:	5201f31c 	andpl	pc, r1, #28, 6	; 0x70000000
     450:	006c9f22 	rsbeq	r9, ip, r2, lsr #30
     454:	00780000 	rsbseq	r0, r8, r0
     458:	000d0000 	andeq	r0, sp, r0
     45c:	f35001f3 	vbsl	q8, q8, <illegal reg q9.5>
     460:	7c225201 	sfmvc	f5, 4, [r2], #-4
     464:	01231c00 	teqeq	r3, r0, lsl #24
     468:	0000789f 	muleq	r0, pc, r8	; <UNPREDICTABLE>
     46c:	00008400 	andeq	r8, r0, r0, lsl #8
     470:	f3000b00 	vqrdmulh.s<illegal width 8>	d0, d0, d0
     474:	007c5001 	rsbseq	r5, ip, r1
     478:	5201f31c 	andpl	pc, r1, #28, 6	; 0x70000000
     47c:	00849f22 	addeq	r9, r4, r2, lsr #30
     480:	008c0000 	addeq	r0, ip, r0
     484:	000d0000 	andeq	r0, sp, r0
     488:	f35001f3 	vbsl	q8, q8, <illegal reg q9.5>
     48c:	7c225201 	sfmvc	f5, 4, [r2], #-4
     490:	01231c00 	teqeq	r3, r0, lsl #24
     494:	00008c9f 	muleq	r0, pc, ip	; <UNPREDICTABLE>
     498:	00009400 	andeq	r9, r0, r0, lsl #8
     49c:	52000100 	andpl	r0, r0, #0, 2
	...
     4a8:	00000040 	andeq	r0, r0, r0, asr #32
     4ac:	00000050 	andeq	r0, r0, r0, asr r0
     4b0:	50500001 	subspl	r0, r0, r1
     4b4:	60000000 	andvs	r0, r0, r0
     4b8:	01000000 	mrseq	r0, (UNDEF: 0)
     4bc:	00605c00 	rsbeq	r5, r0, r0, lsl #24
     4c0:	00680000 	rsbeq	r0, r8, r0
     4c4:	00030000 	andeq	r0, r3, r0
     4c8:	689f7f7c 	ldmvs	pc, {r2, r3, r4, r5, r6, r8, r9, sl, fp, ip, sp, lr}	; <UNPREDICTABLE>
     4cc:	6c000000 	stcvs	0, cr0, [r0], {-0}
     4d0:	01000000 	mrseq	r0, (UNDEF: 0)
     4d4:	006c5c00 	rsbeq	r5, ip, r0, lsl #24
     4d8:	00780000 	rsbseq	r0, r8, r0
     4dc:	00030000 	andeq	r0, r3, r0
     4e0:	789f7f7c 	ldmvc	pc, {r2, r3, r4, r5, r6, r8, r9, sl, fp, ip, sp, lr}	; <UNPREDICTABLE>
     4e4:	84000000 	strhi	r0, [r0], #-0
     4e8:	01000000 	mrseq	r0, (UNDEF: 0)
     4ec:	00845c00 	addeq	r5, r4, r0, lsl #24
     4f0:	008c0000 	addeq	r0, ip, r0
     4f4:	00030000 	andeq	r0, r3, r0
     4f8:	8c9f7f7c 	ldchi	15, cr7, [pc], {124}	; 0x7c
     4fc:	90000000 	andls	r0, r0, r0
     500:	01000000 	mrseq	r0, (UNDEF: 0)
     504:	00905000 	addseq	r5, r0, r0
     508:	00940000 	addseq	r0, r4, r0
     50c:	00040000 	andeq	r0, r4, r0
     510:	9f5001f3 	svcls	0x005001f3
	...
     51c:	00000040 	andeq	r0, r0, r0, asr #32
     520:	00000068 	andeq	r0, r0, r8, rrx
     524:	68510001 	ldmdavs	r1, {r0}^
     528:	6c000000 	stcvs	0, cr0, [r0], {-0}
     52c:	0b000000 	bleq	534 <_back_addr-0x14ffacc>
     530:	5101f300 	mrspl	pc, SP_irq	; <UNPREDICTABLE>
     534:	1c5001f3 	ldfnee	f0, [r0], {243}	; 0xf3
     538:	9f22007c 	svcls	0x0022007c
     53c:	0000006c 	andeq	r0, r0, ip, rrx
     540:	00000078 	andeq	r0, r0, r8, ror r0
     544:	01f3000c 	mvnseq	r0, ip
     548:	007c2050 	rsbseq	r2, ip, r0, asr r0
     54c:	5101f322 	tstpl	r1, r2, lsr #6
     550:	00789f22 	rsbseq	r9, r8, r2, lsr #30
     554:	00840000 	addeq	r0, r4, r0
     558:	000b0000 	andeq	r0, fp, r0
     55c:	f35101f3 	vbsl	q8, <illegal reg q8.5>, <illegal reg q9.5>
     560:	7c1c5001 	ldcvc	0, cr5, [ip], {1}
     564:	849f2200 	ldrhi	r2, [pc], #512	; 56c <_back_addr-0x14ffa94>
     568:	8c000000 	stchi	0, cr0, [r0], {-0}
     56c:	0c000000 	stceq	0, cr0, [r0], {-0}
     570:	5001f300 	andpl	pc, r1, r0, lsl #6
     574:	22007c20 	andcs	r7, r0, #32, 24	; 0x2000
     578:	225101f3 	subscs	r0, r1, #-1073741764	; 0xc000003c
     57c:	00008c9f 	muleq	r0, pc, ip	; <UNPREDICTABLE>
     580:	00009400 	andeq	r9, r0, r0, lsl #8
     584:	51000100 	mrspl	r0, (UNDEF: 16)
	...
     590:	00000040 	andeq	r0, r0, r0, asr #32
     594:	00000050 	andeq	r0, r0, r0, asr r0
     598:	9f300002 	svcls	0x00300002
     59c:	00000050 	andeq	r0, r0, r0, asr r0
     5a0:	00000054 	andeq	r0, r0, r4, asr r0
     5a4:	00730006 	rsbseq	r0, r3, r6
     5a8:	9f1c0070 	svcls	0x001c0070
     5ac:	00000054 	andeq	r0, r0, r4, asr r0
     5b0:	00000068 	andeq	r0, r0, r8, rrx
     5b4:	68500001 	ldmdavs	r0, {r0}^
     5b8:	70000000 	andvc	r0, r0, r0
     5bc:	02000000 	andeq	r0, r0, #0
     5c0:	709f3000 	addsvc	r3, pc, r0
     5c4:	74000000 	strvc	r0, [r0], #-0
     5c8:	06000000 	streq	r0, [r0], -r0
     5cc:	7e007300 	cdpvc	3, 0, cr7, cr0, cr0, {0}
     5d0:	749f1c00 	ldrvc	r1, [pc], #3072	; 5d8 <_back_addr-0x14ffa28>
     5d4:	78000000 	stmdavc	r0, {}	; <UNPREDICTABLE>
     5d8:	01000000 	mrseq	r0, (UNDEF: 0)
     5dc:	00785300 	rsbseq	r5, r8, r0, lsl #6
     5e0:	00840000 	addeq	r0, r4, r0
     5e4:	00020000 	andeq	r0, r2, r0
     5e8:	00849f30 	addeq	r9, r4, r0, lsr pc
     5ec:	00880000 	addeq	r0, r8, r0
     5f0:	00010000 	andeq	r0, r1, r0
     5f4:	00008853 	andeq	r8, r0, r3, asr r8
     5f8:	00008c00 	andeq	r8, r0, r0, lsl #24
     5fc:	50000100 	andpl	r0, r0, r0, lsl #2
     600:	0000008c 	andeq	r0, r0, ip, lsl #1
     604:	00000090 	muleq	r0, r0, r0
     608:	9f300002 	svcls	0x00300002
     60c:	00000090 	muleq	r0, r0, r0
     610:	00000094 	muleq	r0, r4, r0
     614:	00500001 	subseq	r0, r0, r1
     618:	00000000 	andeq	r0, r0, r0
     61c:	94000000 	strls	r0, [r0], #-0
     620:	30000000 	andcc	r0, r0, r0
     624:	03000001 	movweq	r0, #1
     628:	9fff0900 	svcls	0x00ff0900
     62c:	00000130 	andeq	r0, r0, r0, lsr r1
     630:	00000133 	andeq	r0, r0, r3, lsr r1
     634:	33500001 	cmpcc	r0, #1
     638:	40000001 	andmi	r0, r0, r1
     63c:	01000001 	tsteq	r0, r1
     640:	014c5600 	cmpeq	ip, r0, lsl #12
     644:	01500000 	cmpeq	r0, r0
     648:	00010000 	andeq	r0, r1, r0
     64c:	0001a056 	andeq	sl, r1, r6, asr r0
     650:	0001a300 	andeq	sl, r1, r0, lsl #6
     654:	50000100 	andpl	r0, r0, r0, lsl #2
     658:	000001a3 	andeq	r0, r0, r3, lsr #3
     65c:	000001c4 	andeq	r0, r0, r4, asr #3
     660:	14550001 	ldrbne	r0, [r5], #-1
     664:	17000002 	strne	r0, [r0, -r2]
     668:	01000002 	tsteq	r0, r2
     66c:	02175000 	andseq	r5, r7, #0
     670:	02280000 	eoreq	r0, r8, #0
     674:	00010000 	andeq	r0, r1, r0
     678:	00022855 	andeq	r2, r2, r5, asr r8
     67c:	00024400 	andeq	r4, r2, r0, lsl #8
     680:	09000300 	stmdbeq	r0, {r8, r9}
     684:	02509fff 	subseq	r9, r0, #1020	; 0x3fc
     688:	02540000 	subseq	r0, r4, #0
     68c:	00020000 	andeq	r0, r2, r0
     690:	00009f30 	andeq	r9, r0, r0, lsr pc
     694:	00000000 	andeq	r0, r0, r0
     698:	02640000 	rsbeq	r0, r4, #0
     69c:	02870000 	addeq	r0, r7, #0
     6a0:	00010000 	andeq	r0, r1, r0
     6a4:	00028750 	andeq	r8, r2, r0, asr r7
     6a8:	0002b400 	andeq	fp, r2, r0, lsl #8
     6ac:	f3000400 	vshl.u8	d0, d0, d0
     6b0:	009f5001 	addseq	r5, pc, r1
     6b4:	00000000 	andeq	r0, r0, r0
     6b8:	64000000 	strvs	r0, [r0], #-0
     6bc:	87000002 	strhi	r0, [r0, -r2]
     6c0:	01000002 	tsteq	r0, r2
     6c4:	02875100 	addeq	r5, r7, #0, 2
     6c8:	02b40000 	adcseq	r0, r4, #0
     6cc:	00040000 	andeq	r0, r4, r0
     6d0:	9f5101f3 	svcls	0x005101f3
	...
     6dc:	00000264 	andeq	r0, r0, r4, ror #4
     6e0:	00000294 	muleq	r0, r4, r2
     6e4:	ff090003 			; <UNDEFINED> instruction: 0xff090003
     6e8:	0002949f 	muleq	r2, pc, r4	; <UNPREDICTABLE>
     6ec:	00029c00 	andeq	r9, r2, r0, lsl #24
     6f0:	50000100 	andpl	r0, r0, r0, lsl #2
	...
     700:	00000034 	andeq	r0, r0, r4, lsr r0
     704:	34500001 	ldrbcc	r0, [r0], #-1
     708:	a8000000 	stmdage	r0, {}	; <UNPREDICTABLE>
     70c:	02000001 	andeq	r0, r0, #1
     710:	a8007d00 	stmdage	r0, {r8, sl, fp, ip, sp, lr}
     714:	b4000001 	strlt	r0, [r0], #-1
     718:	01000001 	tsteq	r0, r1
     71c:	01b45300 			; <UNDEFINED> instruction: 0x01b45300
     720:	01bc0000 			; <UNDEFINED> instruction: 0x01bc0000
     724:	00020000 	andeq	r0, r2, r0
     728:	01bc007d 			; <UNDEFINED> instruction: 0x01bc007d
     72c:	01c00000 	biceq	r0, r0, r0
     730:	00030000 	andeq	r0, r3, r0
     734:	c07f8091 			; <UNDEFINED> instruction: 0xc07f8091
     738:	d0000001 	andle	r0, r0, r1
     73c:	02000001 	andeq	r0, r0, #1
     740:	d0007d00 	andle	r7, r0, r0, lsl #26
     744:	dc000001 	stcle	0, cr0, [r0], {1}
     748:	01000001 	tsteq	r0, r1
     74c:	00005300 	andeq	r5, r0, r0, lsl #6
	...
     758:	00340000 	eorseq	r0, r4, r0
     75c:	00010000 	andeq	r0, r1, r0
     760:	00003451 	andeq	r3, r0, r1, asr r4
     764:	00008800 	andeq	r8, r0, r0, lsl #16
     768:	91000300 	mrsls	r0, LR_irq
     76c:	00887f84 	addeq	r7, r8, r4, lsl #31
     770:	01680000 	cmneq	r8, r0
     774:	00010000 	andeq	r0, r1, r0
     778:	0001ac56 	andeq	sl, r1, r6, asr ip
     77c:	0001c000 	andeq	ip, r1, r0
     780:	91000300 	mrsls	r0, LR_irq
     784:	00007f84 	andeq	r7, r0, r4, lsl #31
	...
     790:	001c0000 	andseq	r0, ip, r0
     794:	00010000 	andeq	r0, r1, r0
     798:	00001c52 	andeq	r1, r0, r2, asr ip
     79c:	0001dc00 	andeq	sp, r1, r0, lsl #24
     7a0:	f3000400 	vshl.u8	d0, d0, d0
     7a4:	009f5201 	addseq	r5, pc, r1, lsl #4
	...
     7b0:	40000000 	andmi	r0, r0, r0
     7b4:	01000000 	mrseq	r0, (UNDEF: 0)
     7b8:	00405300 	subeq	r5, r0, r0, lsl #6
     7bc:	01dc0000 	bicseq	r0, ip, r0
     7c0:	00010000 	andeq	r0, r1, r0
     7c4:	0000005b 	andeq	r0, r0, fp, asr r0
	...
     7d0:	00003400 	andeq	r3, r0, r0, lsl #8
     7d4:	91000200 	mrsls	r0, R8_usr
     7d8:	00003400 	andeq	r3, r0, r0, lsl #8
     7dc:	00008800 	andeq	r8, r0, r0, lsl #16
     7e0:	5a000100 	bpl	be8 <_back_addr-0x14ff418>
     7e4:	000001a8 	andeq	r0, r0, r8, lsr #3
     7e8:	000001c0 	andeq	r0, r0, r0, asr #3
     7ec:	d05a0001 	subsle	r0, sl, r1
     7f0:	dc000001 	stcle	0, cr0, [r0], {1}
     7f4:	01000001 	tsteq	r0, r1
     7f8:	00005a00 	andeq	r5, r0, r0, lsl #20
	...
     804:	00280000 	eoreq	r0, r8, r0
     808:	00020000 	andeq	r0, r2, r0
     80c:	00280891 	mlaeq	r8, r1, r8, r0
     810:	00300000 	eorseq	r0, r0, r0
     814:	00010000 	andeq	r0, r1, r0
     818:	00003057 	andeq	r3, r0, r7, asr r0
     81c:	00003400 	andeq	r3, r0, r0, lsl #8
     820:	08004700 	stmdaeq	r0, {r8, r9, sl, lr}
     824:	06009140 	streq	r9, [r0], -r0, asr #2
     828:	4b400072 	blmi	10009f8 <_back_addr-0x4ff608>
     82c:	400c2224 	andmi	r2, ip, r4, lsr #4
     830:	2b800000 	blcs	fe000838 <__bss_end__+0xfcaeccf8>
     834:	16000128 	strne	r0, [r0], -r8, lsr #2
     838:	7325f713 	msrvc	CPSR_sc, #4980736	; 0x4c0000
     83c:	1b25f700 	blne	97e444 <_back_addr-0xb81bbc>
     840:	400800f7 	strdmi	r0, [r8], -r7
     844:	72060091 	andvc	r0, r6, #145	; 0x91
     848:	244b4000 	strbcs	r4, [fp], #-0
     84c:	00400c22 	subeq	r0, r0, r2, lsr #24
     850:	282b8000 	stmdacs	fp!, {pc}
     854:	13160001 	tstne	r6, #1
     858:	4b400072 	blmi	1000a28 <_back_addr-0x4ff5d8>
     85c:	400c2224 	andmi	r2, ip, r4, lsr #4
     860:	2b800000 	blcs	fe000868 <__bss_end__+0xfcaecd28>
     864:	16000128 	strne	r0, [r0], -r8, lsr #2
     868:	00349f13 	eorseq	r9, r4, r3, lsl pc
     86c:	01dc0000 	bicseq	r0, ip, r0
     870:	00010000 	andeq	r0, r1, r0
     874:	00000057 	andeq	r0, r0, r7, asr r0
     878:	00000000 	andeq	r0, r0, r0
     87c:	00005800 	andeq	r5, r0, r0, lsl #16
     880:	00008800 	andeq	r8, r0, r0, lsl #16
     884:	30000200 	andcc	r0, r0, r0, lsl #4
     888:	0000889f 	muleq	r0, pc, r8	; <UNPREDICTABLE>
     88c:	00008c00 	andeq	r8, r0, r0, lsl #24
     890:	55000100 	strpl	r0, [r0, #-256]	; 0x100
     894:	0000008c 	andeq	r0, r0, ip, lsl #1
     898:	00000098 	muleq	r0, r8, r0
     89c:	7f750003 	svcvc	0x00750003
     8a0:	0000989f 	muleq	r0, pc, r8	; <UNPREDICTABLE>
     8a4:	0000ec00 	andeq	lr, r0, r0, lsl #24
     8a8:	55000100 	strpl	r0, [r0, #-256]	; 0x100
     8ac:	000000ec 	andeq	r0, r0, ip, ror #1
     8b0:	000000f8 	strdeq	r0, [r0], -r8
     8b4:	7f750003 	svcvc	0x00750003
     8b8:	0000f89f 	muleq	r0, pc, r8	; <UNPREDICTABLE>
     8bc:	00011800 	andeq	r1, r1, r0, lsl #16
     8c0:	55000100 	strpl	r0, [r0, #-256]	; 0x100
     8c4:	00000118 	andeq	r0, r0, r8, lsl r1
     8c8:	00000138 	andeq	r0, r0, r8, lsr r1
     8cc:	9f300002 	svcls	0x00300002
     8d0:	00000138 	andeq	r0, r0, r8, lsr r1
     8d4:	00000168 	andeq	r0, r0, r8, ror #2
     8d8:	00720008 	rsbseq	r0, r2, r8
     8dc:	231c7c91 	tstcs	ip, #37120	; 0x9100
     8e0:	00009f71 	andeq	r9, r0, r1, ror pc
     8e4:	00000000 	andeq	r0, r0, r0
     8e8:	00880000 	addeq	r0, r8, r0
     8ec:	008f0000 	addeq	r0, pc, r0
     8f0:	00010000 	andeq	r0, r1, r0
     8f4:	0000cc52 	andeq	ip, r0, r2, asr ip
     8f8:	0000ef00 	andeq	lr, r0, r0, lsl #30
     8fc:	52000100 	andpl	r0, r0, #0, 2
	...
     908:	00000204 	andeq	r0, r0, r4, lsl #4
     90c:	0000020c 	andeq	r0, r0, ip, lsl #4
     910:	0c500001 	mrrceq	0, 0, r0, r0, cr1	; <UNPREDICTABLE>
     914:	17000002 	strne	r0, [r0, -r2]
     918:	01000002 	tsteq	r0, r2
     91c:	024c5100 	subeq	r5, ip, #0, 2
     920:	02540000 	subseq	r0, r4, #0
     924:	00010000 	andeq	r0, r1, r0
     928:	00025450 	andeq	r5, r2, r0, asr r4
     92c:	00025f00 	andeq	r5, r2, r0, lsl #30
     930:	51000100 	mrspl	r0, (UNDEF: 16)
	...
     93c:	00000218 	andeq	r0, r0, r8, lsl r2
     940:	0000021c 	andeq	r0, r0, ip, lsl r2
     944:	00740009 	rsbseq	r0, r4, r9
     948:	51357f03 	teqpl	r5, r3, lsl #30
     94c:	1c9f1c01 	ldcne	12, cr1, [pc], {1}
     950:	2c000002 	stccs	0, cr0, [r0], {2}
     954:	09000002 	stmdbeq	r0, {r1}
     958:	03007400 	movweq	r7, #1024	; 0x400
     95c:	01513580 	cmpeq	r1, r0, lsl #11
     960:	022c9f1c 	eoreq	r9, ip, #28, 30	; 0x70
     964:	02480000 	subeq	r0, r8, #0
     968:	00090000 	andeq	r0, r9, r0
     96c:	7f030074 	svcvc	0x00030074
     970:	1c015135 	stfnes	f5, [r1], {53}	; 0x35
     974:	0002609f 	muleq	r2, pc, r0	; <UNPREDICTABLE>
     978:	00026400 	andeq	r6, r2, r0, lsl #8
     97c:	75000900 	strvc	r0, [r0, #-2304]	; 0x900
     980:	356f0300 	strbcc	r0, [pc, #-768]!	; 688 <_back_addr-0x14ff978>
     984:	9f1c0151 	svcls	0x001c0151
     988:	00000264 	andeq	r0, r0, r4, ror #4
     98c:	00000274 	andeq	r0, r0, r4, ror r2
     990:	00750009 	rsbseq	r0, r5, r9
     994:	51357003 	teqpl	r5, r3
     998:	749f1c01 	ldrvc	r1, [pc], #3073	; 9a0 <_back_addr-0x14ff660>
     99c:	8c000002 	stchi	0, cr0, [r0], {2}
     9a0:	09000002 	stmdbeq	r0, {r1}
     9a4:	03007500 	movweq	r7, #1280	; 0x500
     9a8:	0151356f 	cmpeq	r1, pc, ror #10
     9ac:	00009f1c 	andeq	r9, r0, ip, lsl pc
     9b0:	00000000 	andeq	r0, r0, r0
     9b4:	028c0000 	addeq	r0, ip, #0
     9b8:	02940000 	addseq	r0, r4, #0
     9bc:	00010000 	andeq	r0, r1, r0
     9c0:	00029450 	andeq	r9, r2, r0, asr r4
     9c4:	0002bc00 	andeq	fp, r2, r0, lsl #24
     9c8:	f3000400 	vshl.u8	d0, d0, d0
     9cc:	009f5001 	addseq	r5, pc, r1
     9d0:	00000000 	andeq	r0, r0, r0
     9d4:	8c000000 	stchi	0, cr0, [r0], {-0}
     9d8:	94000002 	strls	r0, [r0], #-2
     9dc:	02000002 	andeq	r0, r0, #2
     9e0:	949f3000 	ldrls	r3, [pc], #0	; 9e8 <_back_addr-0x14ff618>
     9e4:	9c000002 	stcls	0, cr0, [r0], {2}
     9e8:	01000002 	tsteq	r0, r2
     9ec:	029c5000 	addseq	r5, ip, #0
     9f0:	02bc0000 	adcseq	r0, ip, #0
     9f4:	00060000 	andeq	r0, r6, r0
     9f8:	335001f3 	cmpcc	r0, #-1073741764	; 0xc000003c
     9fc:	00009f25 	andeq	r9, r0, r5, lsr #30
     a00:	00000000 	andeq	r0, r0, r0
     a04:	028c0000 	addeq	r0, ip, #0
     a08:	02900000 	addseq	r0, r0, #0
     a0c:	00050000 	andeq	r0, r5, r0
     a10:	1a370070 	bne	dc0bd8 <_back_addr-0x73f428>
     a14:	0002909f 	muleq	r2, pc, r0	; <UNPREDICTABLE>
     a18:	0002bc00 	andeq	fp, r2, r0, lsl #24
     a1c:	52000100 	andpl	r0, r0, #0, 2
	...
     a28:	0000028c 	andeq	r0, r0, ip, lsl #5
     a2c:	00000294 	muleq	r0, r4, r2
     a30:	9f300002 	svcls	0x00300002
     a34:	00000294 	muleq	r0, r4, r2
     a38:	00000298 	muleq	r0, r8, r2
     a3c:	00700006 	rsbseq	r0, r0, r6
     a40:	9f1afc09 	svcls	0x001afc09
     a44:	00000298 	muleq	r0, r8, r2
     a48:	000002a0 	andeq	r0, r0, r0, lsr #5
     a4c:	a0530001 	subsge	r0, r3, r1
     a50:	a4000002 	strge	r0, [r0], #-2
     a54:	07000002 	streq	r0, [r0, -r2]
     a58:	80807300 	addhi	r7, r0, r0, lsl #6
     a5c:	9f06c080 	svcls	0x0006c080
     a60:	000002a4 	andeq	r0, r0, r4, lsr #5
     a64:	000002ac 	andeq	r0, r0, ip, lsr #5
     a68:	80730007 	rsbshi	r0, r3, r7
     a6c:	06bffaa0 	ldrteq	pc, [pc], r0, lsr #21	; <UNPREDICTABLE>
     a70:	0002ac9f 	muleq	r2, pc, ip	; <UNPREDICTABLE>
     a74:	0002bc00 	andeq	fp, r2, r0, lsl #24
     a78:	f3000900 	vmls.i8	d0, d0, d0
     a7c:	25335001 	ldrcs	r5, [r3, #-1]!
     a80:	9f1afc09 	svcls	0x001afc09
	...
     a8c:	0000028c 	andeq	r0, r0, ip, lsl #5
     a90:	00000294 	muleq	r0, r4, r2
     a94:	9f300002 	svcls	0x00300002
     a98:	00000294 	muleq	r0, r4, r2
     a9c:	0000029c 	muleq	r0, ip, r2
     aa0:	00700005 	rsbseq	r0, r0, r5
     aa4:	9c9f1a33 	vldmials	pc, {s2-s52}
     aa8:	a8000002 	stmdage	r0, {r1}
     aac:	01000002 	tsteq	r0, r2
     ab0:	02a85000 	adceq	r5, r8, #0
     ab4:	02bc0000 	adcseq	r0, ip, #0
     ab8:	00080000 	andeq	r0, r8, r0
     abc:	335001f3 	cmpcc	r0, #-1073741764	; 0xc000003c
     ac0:	9f1a3325 	svcls	0x001a3325
	...
     acc:	0000028c 	andeq	r0, r0, ip, lsl #5
     ad0:	000002ac 	andeq	r0, r0, ip, lsr #5
     ad4:	9f300002 	svcls	0x00300002
	...
     ae0:	00000294 	muleq	r0, r4, r2
     ae4:	0000029c 	muleq	r0, ip, r2
     ae8:	0070000c 	rsbseq	r0, r0, ip
     aec:	0c1afc09 	ldceq	12, cr15, [sl], {9}
     af0:	67fe9000 	ldrbvs	r9, [lr, r0]!
     af4:	029c9f1c 	addseq	r9, ip, #28, 30	; 0x70
     af8:	02bc0000 	adcseq	r0, ip, #0
     afc:	000f0000 	andeq	r0, pc, r0
     b00:	335001f3 	cmpcc	r0, #-1073741764	; 0xc000003c
     b04:	1afc0925 	bne	fff02fa0 <__bss_end__+0xfe9ef460>
     b08:	fe90000c 	cdp2	0, 9, cr0, cr0, cr12, {0}
     b0c:	009f1c67 	addseq	r1, pc, r7, ror #24
     b10:	00000000 	andeq	r0, r0, r0
     b14:	bc000000 	stclt	0, cr0, [r0], {-0}
     b18:	c8000002 	stmdagt	r0, {r1}
     b1c:	02000002 	andeq	r0, r0, #2
     b20:	c89f3000 	ldmgt	pc, {ip, sp}	; <UNPREDICTABLE>
     b24:	d0000002 	andle	r0, r0, r2
     b28:	01000002 	tsteq	r0, r2
     b2c:	00005000 	andeq	r5, r0, r0
     b30:	00000000 	andeq	r0, r0, r0
     b34:	02e80000 	rsceq	r0, r8, #0
     b38:	02f80000 	rscseq	r0, r8, #0
     b3c:	00010000 	andeq	r0, r1, r0
     b40:	0002f850 	andeq	pc, r2, r0, asr r8	; <UNPREDICTABLE>
     b44:	00033c00 	andeq	r3, r3, r0, lsl #24
     b48:	f3000400 	vshl.u8	d0, d0, d0
     b4c:	009f5001 	addseq	r5, pc, r1
     b50:	00000000 	andeq	r0, r0, r0
     b54:	e8000000 	stmda	r0, {}	; <UNPREDICTABLE>
     b58:	f8000002 			; <UNDEFINED> instruction: 0xf8000002
     b5c:	09000002 	stmdbeq	r0, {r1}
     b60:	33007000 	movwcc	r7, #0
     b64:	03ff0a26 	mvnseq	r0, #155648	; 0x26000
     b68:	02f89f1a 	rscseq	r9, r8, #26, 30	; 0x68
     b6c:	033c0000 	teqeq	ip, #0
     b70:	000a0000 	andeq	r0, sl, r0
     b74:	335001f3 	cmpcc	r0, #-1073741764	; 0xc000003c
     b78:	03ff0a26 	mvnseq	r0, #155648	; 0x26000
     b7c:	00009f1a 	andeq	r9, r0, sl, lsl pc
     b80:	00000000 	andeq	r0, r0, r0
     b84:	02e80000 	rsceq	r0, r8, #0
     b88:	02ec0000 	rsceq	r0, ip, #0
     b8c:	00050000 	andeq	r0, r5, r0
     b90:	1a370070 	bne	dc0d58 <_back_addr-0x73f2a8>
     b94:	0002ec9f 	muleq	r2, pc, ip	; <UNPREDICTABLE>
     b98:	00030800 	andeq	r0, r3, r0, lsl #16
     b9c:	52000100 	andpl	r0, r0, #0, 2
     ba0:	00000308 	andeq	r0, r0, r8, lsl #6
     ba4:	0000033c 	andeq	r0, r0, ip, lsr r3
     ba8:	01f30006 	mvnseq	r0, r6
     bac:	9f1a3750 	svcls	0x001a3750
	...
     bb8:	00000308 	andeq	r0, r0, r8, lsl #6
     bbc:	0000030c 	andeq	r0, r0, ip, lsl #6
     bc0:	0c520001 	mrrceq	0, 0, r0, r2, cr1
     bc4:	30000003 	andcc	r0, r0, r3
     bc8:	03000003 	movweq	r0, #3
     bcc:	08807100 	stmeq	r0, {r8, ip, sp, lr}
     bd0:	00000330 	andeq	r0, r0, r0, lsr r3
     bd4:	0000033c 	andeq	r0, r0, ip, lsr r3
     bd8:	01f30018 	mvnseq	r0, r8, lsl r0
     bdc:	3a1a3750 	bcc	68e924 <_back_addr-0xe716dc>
     be0:	5001f324 	andpl	pc, r1, r4, lsr #6
     be4:	0924f709 	stmdbeq	r4!, {r0, r3, r8, r9, sl, ip, sp, lr, pc}
     be8:	0c2125fa 	cfstr32eq	mvfx2, [r1], #-1000	; 0xfffffc18
     bec:	00c02000 	sbceq	r2, r0, r0
     bf0:	00009f21 	andeq	r9, r0, r1, lsr #30
     bf4:	00000000 	andeq	r0, r0, r0
     bf8:	03240000 	teqeq	r4, #0
     bfc:	03330000 	teqeq	r3, #0
     c00:	00010000 	andeq	r0, r1, r0
     c04:	00033352 	andeq	r3, r3, r2, asr r3
     c08:	00033c00 	andeq	r3, r3, r0, lsl #24
     c0c:	f3001800 	vsub.i8	d1, d0, d0
     c10:	1a375001 	bne	dd4c1c <_back_addr-0x72b3e4>
     c14:	01f3243a 	mvnseq	r2, sl, lsr r4
     c18:	24f70950 	ldrbtcs	r0, [r7], #2384	; 0x950
     c1c:	2125fa09 	msrcs	SP_usr, r9
     c20:	c0e0000c 	rscgt	r0, r0, ip
     c24:	009f2100 	addseq	r2, pc, r0, lsl #2
     c28:	00000000 	andeq	r0, r0, r0
     c2c:	68000000 	stmdavs	r0, {}	; <UNPREDICTABLE>
     c30:	78000003 	stmdavc	r0, {r0, r1}
     c34:	01000003 	tsteq	r0, r3
     c38:	03785000 	cmneq	r8, #0
     c3c:	03d40000 	bicseq	r0, r4, #0
     c40:	00010000 	andeq	r0, r1, r0
     c44:	0003d456 	andeq	sp, r3, r6, asr r4
     c48:	0003d800 	andeq	sp, r3, r0, lsl #16
     c4c:	f3000400 	vshl.u8	d0, d0, d0
     c50:	009f5001 	addseq	r5, pc, r1
     c54:	00000000 	andeq	r0, r0, r0
     c58:	68000000 	stmdavs	r0, {}	; <UNPREDICTABLE>
     c5c:	7f000003 	svcvc	0x00000003
     c60:	01000003 	tsteq	r0, r3
     c64:	037f5100 	cmneq	pc, #0, 2
     c68:	03840000 	orreq	r0, r4, #0
     c6c:	00010000 	andeq	r0, r1, r0
     c70:	00038455 	andeq	r8, r3, r5, asr r4
     c74:	0003d800 	andeq	sp, r3, r0, lsl #16
     c78:	f3000400 	vshl.u8	d0, d0, d0
     c7c:	009f5101 	addseq	r5, pc, r1, lsl #2
     c80:	00000000 	andeq	r0, r0, r0
     c84:	68000000 	stmdavs	r0, {}	; <UNPREDICTABLE>
     c88:	7f000003 	svcvc	0x00000003
     c8c:	01000003 	tsteq	r0, r3
     c90:	037f5200 	cmneq	pc, #0, 4
     c94:	03d40000 	bicseq	r0, r4, #0
     c98:	00010000 	andeq	r0, r1, r0
     c9c:	0003d457 	andeq	sp, r3, r7, asr r4
     ca0:	0003d800 	andeq	sp, r3, r0, lsl #16
     ca4:	f3000400 	vshl.u8	d0, d0, d0
     ca8:	009f5201 	addseq	r5, pc, r1, lsl #4
     cac:	00000000 	andeq	r0, r0, r0
     cb0:	80000000 	andhi	r0, r0, r0
     cb4:	94000003 	strls	r0, [r0], #-3
     cb8:	02000003 	andeq	r0, r0, #3
     cbc:	949f3000 	ldrls	r3, [pc], #0	; cc4 <_back_addr-0x14ff33c>
     cc0:	c0000003 	andgt	r0, r0, r3
     cc4:	01000003 	tsteq	r0, r3
     cc8:	03c05400 	biceq	r5, r0, #0, 8
     ccc:	03c40000 	biceq	r0, r4, #0
     cd0:	00030000 	andeq	r0, r3, r0
     cd4:	c49f7f74 	ldrgt	r7, [pc], #3956	; cdc <_back_addr-0x14ff324>
     cd8:	d0000003 	andle	r0, r0, r3
     cdc:	01000003 	tsteq	r0, r3
     ce0:	00005400 	andeq	r5, r0, r0, lsl #8
     ce4:	00000000 	andeq	r0, r0, r0
     ce8:	03800000 	orreq	r0, r0, #0
     cec:	03940000 	orrseq	r0, r4, #0
     cf0:	00020000 	andeq	r0, r2, r0
     cf4:	03a09f30 	moveq	r9, #48, 30	; 0xc0
     cf8:	03a80000 			; <UNDEFINED> instruction: 0x03a80000
     cfc:	00010000 	andeq	r0, r1, r0
     d00:	0003cc53 	andeq	ip, r3, r3, asr ip
     d04:	0003d000 	andeq	sp, r3, r0
     d08:	53000100 	movwpl	r0, #256	; 0x100
	...
     d14:	00000368 	andeq	r0, r0, r8, ror #6
     d18:	00000394 	muleq	r0, r4, r3
     d1c:	9f300002 	svcls	0x00300002
     d20:	000003a4 	andeq	r0, r0, r4, lsr #7
     d24:	000003a8 	andeq	r0, r0, r8, lsr #7
     d28:	00770012 	rsbseq	r0, r7, r2, lsl r0
     d2c:	94220073 	strtls	r0, [r2], #-115	; 0x73
     d30:	1aff0801 	bne	fffc2d3c <__bss_end__+0xfeaaf1fc>
     d34:	1a370074 	bne	dc0f0c <_back_addr-0x73f0f4>
     d38:	9f1a3126 	svcls	0x001a3126
	...
     d44:	00000368 	andeq	r0, r0, r8, ror #6
     d48:	00000394 	muleq	r0, r4, r3
     d4c:	9f300002 	svcls	0x00300002
     d50:	00000394 	muleq	r0, r4, r3
     d54:	000003a4 	andeq	r0, r0, r4, lsr #7
     d58:	a4500001 	ldrbge	r0, [r0], #-1
     d5c:	ac000003 	stcge	0, cr0, [r0], {3}
     d60:	05000003 	streq	r0, [r0, #-3]
     d64:	37007400 	strcc	r7, [r0, -r0, lsl #8]
     d68:	03ac9f1a 			; <UNDEFINED> instruction: 0x03ac9f1a
     d6c:	03bc0000 			; <UNDEFINED> instruction: 0x03bc0000
     d70:	00010000 	andeq	r0, r1, r0
     d74:	0003bc50 	andeq	fp, r3, r0, asr ip
     d78:	0003c000 	andeq	ip, r3, r0
     d7c:	74000500 	strvc	r0, [r0], #-1280	; 0x500
     d80:	9f1a3700 	svcls	0x001a3700
     d84:	000003c0 	andeq	r0, r0, r0, asr #7
     d88:	000003d0 	ldrdeq	r0, [r0], -r0	; <UNPREDICTABLE>
     d8c:	7f740005 	svcvc	0x00740005
     d90:	009f1a37 	addseq	r1, pc, r7, lsr sl	; <UNPREDICTABLE>
     d94:	00000000 	andeq	r0, r0, r0
     d98:	f8000000 			; <UNDEFINED> instruction: 0xf8000000
     d9c:	24000003 	strcs	r0, [r0], #-3
     da0:	01000004 	tsteq	r0, r4
     da4:	04245000 	strteq	r5, [r4], #-0
     da8:	04280000 	strteq	r0, [r8], #-0
     dac:	00040000 	andeq	r0, r4, r0
     db0:	9f20807e 	svcls	0x0020807e
     db4:	00000428 	andeq	r0, r0, r8, lsr #8
     db8:	0000042b 	andeq	r0, r0, fp, lsr #8
     dbc:	2b500001 	blcs	1400dc8 <_back_addr-0xff238>
     dc0:	34000004 	strcc	r0, [r0], #-4
     dc4:	04000004 	streq	r0, [r0], #-4
     dc8:	5001f300 	andpl	pc, r1, r0, lsl #6
     dcc:	0000009f 	muleq	r0, pc, r0	; <UNPREDICTABLE>
     dd0:	00000000 	andeq	r0, r0, r0
     dd4:	0003f800 	andeq	pc, r3, r0, lsl #16
     dd8:	00042b00 	andeq	r2, r4, r0, lsl #22
     ddc:	51000100 	mrspl	r0, (UNDEF: 16)
     de0:	0000042b 	andeq	r0, r0, fp, lsr #8
     de4:	00000434 	andeq	r0, r0, r4, lsr r4
     de8:	00540001 	subseq	r0, r4, r1
     dec:	00000000 	andeq	r0, r0, r0
     df0:	f8000000 			; <UNDEFINED> instruction: 0xf8000000
     df4:	2b000003 	blcs	e08 <_back_addr-0x14ff1f8>
     df8:	01000004 	tsteq	r0, r4
     dfc:	042b5200 	strteq	r5, [fp], #-512	; 0x200
     e00:	04340000 	ldrteq	r0, [r4], #-0
     e04:	00040000 	andeq	r0, r4, r0
     e08:	9f5201f3 	svcls	0x005201f3
	...
     e14:	00000434 	andeq	r0, r0, r4, lsr r4
     e18:	00000458 	andeq	r0, r0, r8, asr r4
     e1c:	58500001 	ldmdapl	r0, {r0}^
     e20:	64000004 	strvs	r0, [r0], #-4
     e24:	04000004 	streq	r0, [r0], #-4
     e28:	5001f300 	andpl	pc, r1, r0, lsl #6
     e2c:	0004649f 	muleq	r4, pc, r4	; <UNPREDICTABLE>
     e30:	00047000 	andeq	r7, r4, r0
     e34:	50000100 	andpl	r0, r0, r0, lsl #2
     e38:	00000470 	andeq	r0, r0, r0, ror r4
     e3c:	0000047c 	andeq	r0, r0, ip, ror r4
     e40:	01f30004 	mvnseq	r0, r4
     e44:	047c9f50 	ldrbteq	r9, [ip], #-3920	; 0xf50
     e48:	04880000 	streq	r0, [r8], #0
     e4c:	00010000 	andeq	r0, r1, r0
     e50:	00048850 	andeq	r8, r4, r0, asr r8
     e54:	0004a000 	andeq	sl, r4, r0
     e58:	f3000400 	vshl.u8	d0, d0, d0
     e5c:	009f5001 	addseq	r5, pc, r1
	...
     e68:	18000006 	stmdane	r0, {r1, r2}
     e6c:	01000006 	tsteq	r0, r6
     e70:	06185000 	ldreq	r5, [r8], -r0
     e74:	06380000 	ldrteq	r0, [r8], -r0
     e78:	00040000 	andeq	r0, r4, r0
     e7c:	9f5001f3 	svcls	0x005001f3
     e80:	00000638 	andeq	r0, r0, r8, lsr r6
     e84:	0000063c 	andeq	r0, r0, ip, lsr r6
     e88:	3c500001 	mrrccc	0, 0, r0, r0, cr1	; <UNPREDICTABLE>
     e8c:	6c000006 	stcvs	0, cr0, [r0], {6}
     e90:	04000006 	streq	r0, [r0], #-6
     e94:	5001f300 	andpl	pc, r1, r0, lsl #6
     e98:	0000009f 	muleq	r0, pc, r0	; <UNPREDICTABLE>
     e9c:	00000000 	andeq	r0, r0, r0
     ea0:	00061400 	andeq	r1, r6, r0, lsl #8
     ea4:	00063800 	andeq	r3, r6, r0, lsl #16
     ea8:	54000100 	strpl	r0, [r0], #-256	; 0x100
     eac:	0000064c 	andeq	r0, r0, ip, asr #12
     eb0:	0000066c 	andeq	r0, r0, ip, ror #12
     eb4:	00540001 	subseq	r0, r4, r1
     eb8:	00000000 	andeq	r0, r0, r0
     ebc:	6c000000 	stcvs	0, cr0, [r0], {-0}
     ec0:	84000006 	strhi	r0, [r0], #-6
     ec4:	01000006 	tsteq	r0, r6
     ec8:	06845000 	streq	r5, [r4], r0
     ecc:	06a40000 	strteq	r0, [r4], r0
     ed0:	00040000 	andeq	r0, r4, r0
     ed4:	9f5001f3 	svcls	0x005001f3
     ed8:	000006a4 	andeq	r0, r0, r4, lsr #13
     edc:	000006a8 	andeq	r0, r0, r8, lsr #13
     ee0:	a8500001 	ldmdage	r0, {r0}^
     ee4:	d8000006 	stmdale	r0, {r1, r2}
     ee8:	04000006 	streq	r0, [r0], #-6
     eec:	5001f300 	andpl	pc, r1, r0, lsl #6
     ef0:	0000009f 	muleq	r0, pc, r0	; <UNPREDICTABLE>
     ef4:	00000000 	andeq	r0, r0, r0
     ef8:	00068000 	andeq	r8, r6, r0
     efc:	0006a400 	andeq	sl, r6, r0, lsl #8
     f00:	54000100 	strpl	r0, [r0], #-256	; 0x100
     f04:	000006b8 			; <UNDEFINED> instruction: 0x000006b8
     f08:	000006d8 	ldrdeq	r0, [r0], -r8
     f0c:	00540001 	subseq	r0, r4, r1
     f10:	00000000 	andeq	r0, r0, r0
     f14:	74000000 	strvc	r0, [r0], #-0
     f18:	7c000007 	stcvc	0, cr0, [r0], {7}
     f1c:	01000007 	tsteq	r0, r7
     f20:	077c5000 	ldrbeq	r5, [ip, -r0]!
     f24:	07f40000 	ldrbeq	r0, [r4, r0]!
     f28:	00040000 	andeq	r0, r4, r0
     f2c:	9f5001f3 	svcls	0x005001f3
	...
     f38:	00000774 	andeq	r0, r0, r4, ror r7
     f3c:	0000079c 	muleq	r0, ip, r7
     f40:	9c510001 	mrrcls	0, 0, r0, r1, cr1
     f44:	ec000007 	stc	0, cr0, [r0], {7}
     f48:	04000007 	streq	r0, [r0], #-7
     f4c:	5101f300 	mrspl	pc, SP_irq	; <UNPREDICTABLE>
     f50:	0007ec9f 	muleq	r7, pc, ip	; <UNPREDICTABLE>
     f54:	0007f400 	andeq	pc, r7, r0, lsl #8
     f58:	51000100 	mrspl	r0, (UNDEF: 16)
	...
     f64:	00000774 	andeq	r0, r0, r4, ror r7
     f68:	00000794 	muleq	r0, r4, r7
     f6c:	94520001 	ldrbls	r0, [r2], #-1
     f70:	ec000007 	stc	0, cr0, [r0], {7}
     f74:	04000007 	streq	r0, [r0], #-7
     f78:	5201f300 	andpl	pc, r1, #0, 6
     f7c:	0007ec9f 	muleq	r7, pc, ip	; <UNPREDICTABLE>
     f80:	0007f400 	andeq	pc, r7, r0, lsl #8
     f84:	52000100 	andpl	r0, r0, #0, 2
	...
     f90:	00000774 	andeq	r0, r0, r4, ror r7
     f94:	0000079c 	muleq	r0, ip, r7
     f98:	9f300002 	svcls	0x00300002
     f9c:	000007ec 	andeq	r0, r0, ip, ror #15
     fa0:	000007f4 	strdeq	r0, [r0], -r4
     fa4:	9f300002 	svcls	0x00300002
	...
     fb0:	0000077c 	andeq	r0, r0, ip, ror r7
     fb4:	00000784 	andeq	r0, r0, r4, lsl #15
     fb8:	80700007 	rsbshi	r0, r0, r7
     fbc:	79c085e0 	stmibvc	r0, {r5, r6, r7, r8, sl, pc}^
     fc0:	0007849f 	muleq	r7, pc, r4	; <UNPREDICTABLE>
     fc4:	00079800 	andeq	r9, r7, r0, lsl #16
     fc8:	70000700 	andvc	r0, r0, r0, lsl #14
     fcc:	8085e080 	addhi	lr, r5, r0, lsl #1
     fd0:	07989f7a 			; <UNDEFINED> instruction: 0x07989f7a
     fd4:	079c0000 	ldreq	r0, [ip, r0]
     fd8:	00070000 	andeq	r0, r7, r0
     fdc:	80808070 	addhi	r8, r0, r0, ror r0
     fe0:	9c9f7a80 	vldmials	pc, {s14-s141}
     fe4:	ec000007 	stc	0, cr0, [r0], {7}
     fe8:	0d000007 	stceq	0, cr0, [r0, #-28]	; 0xffffffe4
     fec:	5001f300 	andpl	pc, r1, r0, lsl #6
     ff0:	0c1afc09 	ldceq	12, cr15, [sl], {9}
     ff4:	67fe9000 	ldrbvs	r9, [lr, r0]!
     ff8:	07ec9f1c 			; <UNDEFINED> instruction: 0x07ec9f1c
     ffc:	07f00000 	ldrbeq	r0, [r0, r0]!
    1000:	00070000 	andeq	r0, r7, r0
    1004:	85e08070 	strbhi	r8, [r0, #112]!	; 0x70
    1008:	f09f79c0 			; <UNDEFINED> instruction: 0xf09f79c0
    100c:	f4000007 	vst4.8	{d0-d3}, [r0], r7
    1010:	0d000007 	stceq	0, cr0, [r0, #-28]	; 0xffffffe4
    1014:	5001f300 	andpl	pc, r1, r0, lsl #6
    1018:	0c1afc09 	ldceq	12, cr15, [sl], {9}
    101c:	67fe9000 	ldrbvs	r9, [lr, r0]!
    1020:	00009f1c 	andeq	r9, r0, ip, lsl pc
    1024:	00000000 	andeq	r0, r0, r0
    1028:	079c0000 	ldreq	r0, [ip, r0]
    102c:	07a40000 	streq	r0, [r4, r0]!
    1030:	00070000 	andeq	r0, r7, r0
    1034:	80808070 	addhi	r8, r0, r0, ror r0
    1038:	a49f7a80 	ldrge	r7, [pc], #2688	; 1040 <_back_addr-0x14fefc0>
    103c:	b0000007 	andlt	r0, r0, r7
    1040:	07000007 	streq	r0, [r0, -r7]
    1044:	fffc7000 			; <UNDEFINED> instruction: 0xfffc7000
    1048:	9f79ffff 	svcls	0x0079ffff
    104c:	000007b0 			; <UNDEFINED> instruction: 0x000007b0
    1050:	000007c4 	andeq	r0, r0, r4, asr #15
    1054:	80700007 	rsbshi	r0, r0, r7
    1058:	7a808080 	bvc	fe021260 <__bss_end__+0xfcb0d720>
    105c:	0007c49f 	muleq	r7, pc, r4	; <UNPREDICTABLE>
    1060:	0007e400 	andeq	lr, r7, r0, lsl #8
    1064:	5e000100 	adfpls	f0, f0, f0
	...
    1070:	000007bc 			; <UNDEFINED> instruction: 0x000007bc
    1074:	000007c4 	andeq	r0, r0, r4, asr #15
    1078:	80700007 	rsbshi	r0, r0, r7
    107c:	7a808080 	bvc	fe021284 <__bss_end__+0xfcb0d744>
    1080:	0007c49f 	muleq	r7, pc, r4	; <UNPREDICTABLE>
    1084:	0007e400 	andeq	lr, r7, r0, lsl #8
    1088:	5e000100 	adfpls	f0, f0, f0
	...
    1094:	000007f4 	strdeq	r0, [r0], -r4
    1098:	000007fc 	strdeq	r0, [r0], -ip
    109c:	fc500001 	mrrc2	0, 0, r0, r0, cr1	; <UNPREDICTABLE>
    10a0:	48000007 	stmdami	r0, {r0, r1, r2}
    10a4:	04000008 	streq	r0, [r0], #-8
    10a8:	5001f300 	andpl	pc, r1, r0, lsl #6
    10ac:	0000009f 	muleq	r0, pc, r0	; <UNPREDICTABLE>
    10b0:	00000000 	andeq	r0, r0, r0
    10b4:	0007f400 	andeq	pc, r7, r0, lsl #8
    10b8:	00080800 	andeq	r0, r8, r0, lsl #16
    10bc:	51000100 	mrspl	r0, (UNDEF: 16)
    10c0:	00000808 	andeq	r0, r0, r8, lsl #16
    10c4:	00000840 	andeq	r0, r0, r0, asr #16
    10c8:	01f30004 	mvnseq	r0, r4
    10cc:	08409f51 	stmdaeq	r0, {r0, r4, r6, r8, r9, sl, fp, ip, pc}^
    10d0:	08480000 	stmdaeq	r8, {}^	; <UNPREDICTABLE>
    10d4:	00010000 	andeq	r0, r1, r0
    10d8:	00000051 	andeq	r0, r0, r1, asr r0
    10dc:	00000000 	andeq	r0, r0, r0
    10e0:	0007f400 	andeq	pc, r7, r0, lsl #8
    10e4:	00080800 	andeq	r0, r8, r0, lsl #16
    10e8:	30000200 	andcc	r0, r0, r0, lsl #4
    10ec:	0008089f 	muleq	r8, pc, r8	; <UNPREDICTABLE>
    10f0:	00084000 	andeq	r4, r8, r0
    10f4:	71000700 	tstvc	r0, r0, lsl #14
    10f8:	5101f300 	mrspl	pc, SP_irq	; <UNPREDICTABLE>
    10fc:	08409f1c 	stmdaeq	r0, {r2, r3, r4, r8, r9, sl, fp, ip, pc}^
    1100:	08480000 	stmdaeq	r8, {}^	; <UNPREDICTABLE>
    1104:	00020000 	andeq	r0, r2, r0
    1108:	00009f30 	andeq	r9, r0, r0, lsr pc
    110c:	00000000 	andeq	r0, r0, r0
    1110:	07f40000 	ldrbeq	r0, [r4, r0]!
    1114:	08080000 	stmdaeq	r8, {}	; <UNPREDICTABLE>
    1118:	00020000 	andeq	r0, r2, r0
    111c:	08409f30 	stmdaeq	r0, {r4, r5, r8, r9, sl, fp, ip, pc}^
    1120:	08480000 	stmdaeq	r8, {}^	; <UNPREDICTABLE>
    1124:	00020000 	andeq	r0, r2, r0
    1128:	00009f30 	andeq	r9, r0, r0, lsr pc
    112c:	00000000 	andeq	r0, r0, r0
    1130:	07f40000 	ldrbeq	r0, [r4, r0]!
    1134:	07fc0000 	ldrbeq	r0, [ip, r0]!
    1138:	00020000 	andeq	r0, r2, r0
    113c:	07fc9f30 			; <UNDEFINED> instruction: 0x07fc9f30
    1140:	08080000 	stmdaeq	r8, {}	; <UNPREDICTABLE>
    1144:	00010000 	andeq	r0, r1, r0
    1148:	00080850 	andeq	r0, r8, r0, asr r8
    114c:	00084000 	andeq	r4, r8, r0
    1150:	f3000700 	vabd.u8	d0, d0, d0
    1154:	fc095001 	stc2	0, cr5, [r9], {1}
    1158:	08409f1a 	stmdaeq	r0, {r1, r3, r4, r8, r9, sl, fp, ip, pc}^
    115c:	08440000 	stmdaeq	r4, {}^	; <UNPREDICTABLE>
    1160:	00010000 	andeq	r0, r1, r0
    1164:	00084450 	andeq	r4, r8, r0, asr r4
    1168:	00084800 	andeq	r4, r8, r0, lsl #16
    116c:	f3000700 	vabd.u8	d0, d0, d0
    1170:	fc095001 	stc2	0, cr5, [r9], {1}
    1174:	00009f1a 	andeq	r9, r0, sl, lsl pc
    1178:	00000000 	andeq	r0, r0, r0
    117c:	08480000 	stmdaeq	r8, {}^	; <UNPREDICTABLE>
    1180:	08700000 	ldmdaeq	r0!, {}^	; <UNPREDICTABLE>
    1184:	00010000 	andeq	r0, r1, r0
    1188:	00087050 	andeq	r7, r8, r0, asr r0
    118c:	00087400 	andeq	r7, r8, r0, lsl #8
    1190:	7e000400 	cfcpysvc	mvf0, mvf0
    1194:	749f2080 	ldrvc	r2, [pc], #128	; 119c <_back_addr-0x14fee64>
    1198:	83000008 	movwhi	r0, #8
    119c:	01000008 	tsteq	r0, r8
    11a0:	08835000 	stmeq	r3, {ip, lr}
    11a4:	088c0000 	stmeq	ip, {}	; <UNPREDICTABLE>
    11a8:	00040000 	andeq	r0, r4, r0
    11ac:	9f5001f3 	svcls	0x005001f3
	...
    11b8:	00000848 	andeq	r0, r0, r8, asr #16
    11bc:	00000880 	andeq	r0, r0, r0, lsl #17
    11c0:	80510001 	subshi	r0, r1, r1
    11c4:	83000008 	movwhi	r0, #8
    11c8:	01000008 	tsteq	r0, r8
    11cc:	08835200 	stmeq	r3, {r9, ip, lr}
    11d0:	088c0000 	stmeq	ip, {}	; <UNPREDICTABLE>
    11d4:	00040000 	andeq	r0, r4, r0
    11d8:	9f5101f3 	svcls	0x005101f3
	...
    11e4:	00000848 	andeq	r0, r0, r8, asr #16
    11e8:	0000087c 	andeq	r0, r0, ip, ror r8
    11ec:	7c520001 	mrrcvc	0, 0, r0, r2, cr1
    11f0:	83000008 	movwhi	r0, #8
    11f4:	01000008 	tsteq	r0, r8
    11f8:	08835300 	stmeq	r3, {r8, r9, ip, lr}
    11fc:	088c0000 	stmeq	ip, {}	; <UNPREDICTABLE>
    1200:	00040000 	andeq	r0, r4, r0
    1204:	9f5201f3 	svcls	0x005201f3
	...
    1210:	00000088 	andeq	r0, r0, r8, lsl #1
    1214:	00000098 	muleq	r0, r8, r0
    1218:	010c0009 	tsteq	ip, r9
    121c:	73000100 	movwvc	r0, #256	; 0x100
    1220:	989f1c00 	ldmls	pc, {sl, fp, ip}	; <UNPREDICTABLE>
    1224:	a4000000 	strge	r0, [r0], #-0
    1228:	07000000 	streq	r0, [r0, -r0]
    122c:	243c4000 	ldrtcs	r4, [ip], #-0
    1230:	9f1c0073 	svcls	0x001c0073
	...
    123c:	000000a4 	andeq	r0, r0, r4, lsr #1
    1240:	000000ef 	andeq	r0, r0, pc, ror #1
    1244:	ef500001 	svc	0x00500001
    1248:	a4000000 	strge	r0, [r0], #-0
    124c:	04000001 	streq	r0, [r0], #-1
    1250:	5001f300 	andpl	pc, r1, r0, lsl #6
    1254:	0001a49f 	muleq	r1, pc, r4	; <UNPREDICTABLE>
    1258:	0001a800 	andeq	sl, r1, r0, lsl #16
    125c:	50000100 	andpl	r0, r0, r0, lsl #2
    1260:	000001a8 	andeq	r0, r0, r8, lsr #3
    1264:	000001ac 	andeq	r0, r0, ip, lsr #3
    1268:	00530001 	subseq	r0, r3, r1
    126c:	00000000 	andeq	r0, r0, r0
    1270:	04000000 	streq	r0, [r0], #-0
    1274:	a4000001 	strge	r0, [r0], #-1
    1278:	02000001 	andeq	r0, r0, #1
    127c:	009f3000 	addseq	r3, pc, r0
    1280:	00000000 	andeq	r0, r0, r0
    1284:	ac000000 	stcge	0, cr0, [r0], {-0}
    1288:	a4000000 	strge	r0, [r0], #-0
    128c:	02000001 	andeq	r0, r0, #1
    1290:	009f3100 	addseq	r3, pc, r0, lsl #2
    1294:	00000000 	andeq	r0, r0, r0
    1298:	ac000000 	stcge	0, cr0, [r0], {-0}
    129c:	a4000000 	strge	r0, [r0], #-0
    12a0:	06000001 	streq	r0, [r0], -r1
    12a4:	34049e00 	strcc	r9, [r4], #-3584	; 0xe00
    12a8:	00980159 	addseq	r0, r8, r9, asr r1
    12ac:	00000000 	andeq	r0, r0, r0
    12b0:	d4000000 	strle	r0, [r0], #-0
    12b4:	a4000000 	strge	r0, [r0], #-0
    12b8:	02000001 	andeq	r0, r0, #1
    12bc:	009f3200 	addseq	r3, pc, r0, lsl #4
    12c0:	00000000 	andeq	r0, r0, r0
    12c4:	d4000000 	strle	r0, [r0], #-0
    12c8:	a4000000 	strge	r0, [r0], #-0
    12cc:	06000001 	streq	r0, [r0], -r1
    12d0:	00049e00 	andeq	r9, r4, r0, lsl #28
    12d4:	00980159 	addseq	r0, r8, r9, asr r1
    12d8:	00000000 	andeq	r0, r0, r0
    12dc:	cc000000 	stcgt	0, cr0, [r0], {-0}
    12e0:	a4000000 	strge	r0, [r0], #-0
    12e4:	03000001 	movweq	r0, #1
    12e8:	9ffe0800 	svcls	0x00fe0800
	...
    12f4:	000000cc 	andeq	r0, r0, ip, asr #1
    12f8:	000001a4 	andeq	r0, r0, r4, lsr #3
    12fc:	049e0006 	ldreq	r0, [lr], #6
    1300:	98015908 	stmdals	r1, {r3, r8, fp, ip, lr}
	...
    130c:	000000dc 	ldrdeq	r0, [r0], -ip
    1310:	000000ef 	andeq	r0, r0, pc, ror #1
    1314:	ef500001 	svc	0x00500001
    1318:	a4000000 	strge	r0, [r0], #-0
    131c:	04000001 	streq	r0, [r0], #-1
    1320:	5001f300 	andpl	pc, r1, r0, lsl #6
    1324:	0000009f 	muleq	r0, pc, r0	; <UNPREDICTABLE>
    1328:	00000000 	andeq	r0, r0, r0
    132c:	0000dc00 	andeq	sp, r0, r0, lsl #24
    1330:	0001a400 	andeq	sl, r1, r0, lsl #8
    1334:	9e000600 	cfmadd32ls	mvax0, mvfx0, mvfx0, mvfx0
    1338:	01590c04 	cmpeq	r9, r4, lsl #24
    133c:	00000098 	muleq	r0, r8, r0
    1340:	00000000 	andeq	r0, r0, r0
    1344:	0000dc00 	andeq	sp, r0, r0, lsl #24
    1348:	0000ef00 	andeq	lr, r0, r0, lsl #30
    134c:	5c000100 	stfpls	f0, [r0], {-0}
    1350:	000000ef 	andeq	r0, r0, pc, ror #1
    1354:	000001a4 	andeq	r0, r0, r4, lsr #3
    1358:	01f30006 	mvnseq	r0, r6
    135c:	9f702350 	svcls	0x00702350
	...
    1368:	000000dc 	ldrdeq	r0, [r0], -ip
    136c:	000001a4 	andeq	r0, r0, r4, lsr #3
    1370:	049e0006 	ldreq	r0, [lr], #6
    1374:	98015910 	stmdals	r1, {r4, r8, fp, ip, lr}
	...
    1380:	000000e4 	andeq	r0, r0, r4, ror #1
    1384:	000000ef 	andeq	r0, r0, pc, ror #1
    1388:	ef500001 	svc	0x00500001
    138c:	a4000000 	strge	r0, [r0], #-0
    1390:	04000001 	streq	r0, [r0], #-1
    1394:	5001f300 	andpl	pc, r1, r0, lsl #6
    1398:	0000009f 	muleq	r0, pc, r0	; <UNPREDICTABLE>
    139c:	00000000 	andeq	r0, r0, r0
    13a0:	0000e400 	andeq	lr, r0, r0, lsl #8
    13a4:	0001a400 	andeq	sl, r1, r0, lsl #8
    13a8:	9e000600 	cfmadd32ls	mvax0, mvfx0, mvfx0, mvfx0
    13ac:	01591404 	cmpeq	r9, r4, lsl #8
    13b0:	00000098 	muleq	r0, r8, r0
    13b4:	00000000 	andeq	r0, r0, r0
    13b8:	0000e400 	andeq	lr, r0, r0, lsl #8
    13bc:	0000ef00 	andeq	lr, r0, r0, lsl #30
    13c0:	52000100 	andpl	r0, r0, #0, 2
    13c4:	000000ef 	andeq	r0, r0, pc, ror #1
    13c8:	000001a4 	andeq	r0, r0, r4, lsr #3
    13cc:	01f30006 	mvnseq	r0, r6
    13d0:	9f382350 	svcls	0x00382350
	...
    13dc:	000000e4 	andeq	r0, r0, r4, ror #1
    13e0:	000001a4 	andeq	r0, r0, r4, lsr #3
    13e4:	049e0006 	ldreq	r0, [lr], #6
    13e8:	98015918 	stmdals	r1, {r3, r4, r8, fp, ip, lr}
	...
    13f4:	000000f8 	strdeq	r0, [r0], -r8
    13f8:	000001a4 	andeq	r0, r0, r4, lsr #3
    13fc:	9f330002 	svcls	0x00330002
	...
    1408:	000000f8 	strdeq	r0, [r0], -r8
    140c:	000001a4 	andeq	r0, r0, r4, lsr #3
    1410:	049e0006 	ldreq	r0, [lr], #6
    1414:	98015900 	stmdals	r1, {r8, fp, ip, lr}
	...
    1420:	00000104 	andeq	r0, r0, r4, lsl #2
    1424:	000001a4 	andeq	r0, r0, r4, lsr #3
    1428:	01f30004 	mvnseq	r0, r4
    142c:	00009f50 	andeq	r9, r0, r0, asr pc
    1430:	00000000 	andeq	r0, r0, r0
    1434:	015c0000 	cmpeq	ip, r0
    1438:	01780000 	cmneq	r8, r0
    143c:	00010000 	andeq	r0, r1, r0
    1440:	00000050 	andeq	r0, r0, r0, asr r0
    1444:	00000000 	andeq	r0, r0, r0
    1448:	00010400 	andeq	r0, r1, r0, lsl #8
    144c:	00011c00 	andeq	r1, r1, r0, lsl #24
    1450:	30000200 	andcc	r0, r0, r0, lsl #4
    1454:	00011c9f 	muleq	r1, pc, ip	; <UNPREDICTABLE>
    1458:	00012000 	andeq	r2, r1, r0
    145c:	40000700 	andmi	r0, r0, r0, lsl #14
    1460:	00742443 	rsbseq	r2, r4, r3, asr #8
    1464:	01209f1c 	teqeq	r0, ip, lsl pc
    1468:	01240000 	teqeq	r4, r0
    146c:	00090000 	andeq	r0, r9, r0
    1470:	7fffff0c 	svcvc	0x00ffff0c
    1474:	1c007400 	cfstrsne	mvf7, [r0], {-0}
    1478:	0001249f 	muleq	r1, pc, r4	; <UNPREDICTABLE>
    147c:	00014400 	andeq	r4, r1, r0, lsl #8
    1480:	40000700 	andmi	r0, r0, r0, lsl #14
    1484:	00742443 	rsbseq	r2, r4, r3, asr #8
    1488:	018c9f1c 	orreq	r9, ip, ip, lsl pc
    148c:	01a40000 			; <UNDEFINED> instruction: 0x01a40000
    1490:	00090000 	andeq	r0, r9, r0
    1494:	7fffff0c 	svcvc	0x00ffff0c
    1498:	1c007400 	cfstrsne	mvf7, [r0], {-0}
    149c:	0000009f 	muleq	r0, pc, r0	; <UNPREDICTABLE>
    14a0:	00000000 	andeq	r0, r0, r0
    14a4:	00010400 	andeq	r0, r1, r0, lsl #8
    14a8:	0001a400 	andeq	sl, r1, r0, lsl #8
    14ac:	9e000600 	cfmadd32ls	mvax0, mvfx0, mvfx0, mvfx0
    14b0:	01590404 	cmpeq	r9, r4, lsl #8
    14b4:	00000098 	muleq	r0, r8, r0
    14b8:	00000000 	andeq	r0, r0, r0
    14bc:	00014400 	andeq	r4, r1, r0, lsl #8
    14c0:	00018c00 	andeq	r8, r1, r0, lsl #24
    14c4:	9e000600 	cfmadd32ls	mvax0, mvfx0, mvfx0, mvfx0
    14c8:	01590404 	cmpeq	r9, r4, lsl #8
    14cc:	00000098 	muleq	r0, r8, r0
    14d0:	00000000 	andeq	r0, r0, r0
    14d4:	00015c00 	andeq	r5, r1, r0, lsl #24
    14d8:	00017800 	andeq	r7, r1, r0, lsl #16
    14dc:	32000200 	andcc	r0, r0, #0, 4
    14e0:	0000009f 	muleq	r0, pc, r0	; <UNPREDICTABLE>
    14e4:	00000000 	andeq	r0, r0, r0
    14e8:	00015c00 	andeq	r5, r1, r0, lsl #24
    14ec:	00017800 	andeq	r7, r1, r0, lsl #16
    14f0:	9e000600 	cfmadd32ls	mvax0, mvfx0, mvfx0, mvfx0
    14f4:	01590004 	cmpeq	r9, r4
    14f8:	00000098 	muleq	r0, r8, r0
    14fc:	00000000 	andeq	r0, r0, r0
    1500:	00017000 	andeq	r7, r1, r0
    1504:	00017800 	andeq	r7, r1, r0, lsl #16
    1508:	36000200 	strcc	r0, [r0], -r0, lsl #4
    150c:	0000009f 	muleq	r0, pc, r0	; <UNPREDICTABLE>
    1510:	00000000 	andeq	r0, r0, r0
    1514:	00017000 	andeq	r7, r1, r0
    1518:	00017800 	andeq	r7, r1, r0, lsl #16
    151c:	9e000600 	cfmadd32ls	mvax0, mvfx0, mvfx0, mvfx0
    1520:	01590404 	cmpeq	r9, r4, lsl #8
    1524:	00000098 	muleq	r0, r8, r0
    1528:	00000000 	andeq	r0, r0, r0
    152c:	00017800 	andeq	r7, r1, r0, lsl #16
    1530:	00018c00 	andeq	r8, r1, r0, lsl #24
    1534:	9e000600 	cfmadd32ls	mvax0, mvfx0, mvfx0, mvfx0
    1538:	01590404 	cmpeq	r9, r4, lsl #8
    153c:	00000098 	muleq	r0, r8, r0
    1540:	00000000 	andeq	r0, r0, r0
    1544:	00018c00 	andeq	r8, r1, r0, lsl #24
    1548:	0001a400 	andeq	sl, r1, r0, lsl #8
    154c:	32000200 	andcc	r0, r0, #0, 4
    1550:	0000009f 	muleq	r0, pc, r0	; <UNPREDICTABLE>
    1554:	00000000 	andeq	r0, r0, r0
    1558:	00018c00 	andeq	r8, r1, r0, lsl #24
    155c:	0001a400 	andeq	sl, r1, r0, lsl #8
    1560:	9e000600 	cfmadd32ls	mvax0, mvfx0, mvfx0, mvfx0
    1564:	01590004 	cmpeq	r9, r4
    1568:	00000098 	muleq	r0, r8, r0
    156c:	00000000 	andeq	r0, r0, r0
    1570:	00019800 	andeq	r9, r1, r0, lsl #16
    1574:	0001a400 	andeq	sl, r1, r0, lsl #8
    1578:	36000200 	strcc	r0, [r0], -r0, lsl #4
    157c:	0000009f 	muleq	r0, pc, r0	; <UNPREDICTABLE>
    1580:	00000000 	andeq	r0, r0, r0
    1584:	00019800 	andeq	r9, r1, r0, lsl #16
    1588:	0001a400 	andeq	sl, r1, r0, lsl #8
    158c:	9e000600 	cfmadd32ls	mvax0, mvfx0, mvfx0, mvfx0
    1590:	01590404 	cmpeq	r9, r4, lsl #8
    1594:	00000098 	muleq	r0, r8, r0
    1598:	00000000 	andeq	r0, r0, r0
    159c:	0001ac00 	andeq	sl, r1, r0, lsl #24
    15a0:	0001b000 	andeq	fp, r1, r0
    15a4:	50000100 	andpl	r0, r0, r0, lsl #2
    15a8:	000001b0 			; <UNDEFINED> instruction: 0x000001b0
    15ac:	000001b4 			; <UNDEFINED> instruction: 0x000001b4
    15b0:	01f30004 	mvnseq	r0, r4
    15b4:	00009f50 	andeq	r9, r0, r0, asr pc
    15b8:	00000000 	andeq	r0, r0, r0
    15bc:	01ac0000 			; <UNDEFINED> instruction: 0x01ac0000
    15c0:	01b00000 	movseq	r0, r0
    15c4:	001d0000 	andseq	r0, sp, r0
    15c8:	24480070 	strbcs	r0, [r8], #-112	; 0x70
    15cc:	25480070 	strbcs	r0, [r8, #-112]	; 0x70
    15d0:	08007021 	stmdaeq	r0, {r0, r5, ip, sp, lr}
    15d4:	1a2440ff 	bne	9119d8 <_back_addr-0xbee628>
    15d8:	70212538 	eorvc	r2, r1, r8, lsr r5
    15dc:	ff000a00 			; <UNDEFINED> instruction: 0xff000a00
    15e0:	2124381a 	teqcs	r4, sl, lsl r8
    15e4:	0001b09f 	muleq	r1, pc, r0	; <UNPREDICTABLE>
    15e8:	0001b400 	andeq	fp, r1, r0, lsl #8
    15ec:	f3002100 	vrhadd.u8	d2, d0, d0
    15f0:	24485001 	strbcs	r5, [r8], #-1
    15f4:	485001f3 	ldmdami	r0, {r0, r1, r4, r5, r6, r7, r8}^
    15f8:	01f32125 	mvnseq	r2, r5, lsr #2
    15fc:	40ff0850 	rscsmi	r0, pc, r0, asr r8	; <UNPREDICTABLE>
    1600:	25381a24 	ldrcs	r1, [r8, #-2596]!	; 0xa24
    1604:	5001f321 	andpl	pc, r1, r1, lsr #6
    1608:	1aff000a 	bne	fffc1638 <__bss_end__+0xfeaadaf8>
    160c:	9f212438 	svcls	0x00212438
	...
    1618:	000001b4 			; <UNDEFINED> instruction: 0x000001b4
    161c:	000002d4 	ldrdeq	r0, [r0], -r4
    1620:	d4500001 	ldrble	r0, [r0], #-1
    1624:	e0000002 	and	r0, r0, r2
    1628:	07000002 	streq	r0, [r0, -r2]
    162c:	ffe87400 			; <UNDEFINED> instruction: 0xffe87400
    1630:	9f03bfff 	svcls	0x0003bfff
    1634:	000002e0 	andeq	r0, r0, r0, ror #5
    1638:	00000314 	andeq	r0, r0, r4, lsl r3
    163c:	14500001 	ldrbne	r0, [r0], #-1
    1640:	1c000003 	stcne	0, cr0, [r0], {3}
    1644:	07000003 	streq	r0, [r0, -r3]
    1648:	ffe47200 			; <UNDEFINED> instruction: 0xffe47200
    164c:	9f03c0bf 	svcls	0x0003c0bf
    1650:	0000031c 	andeq	r0, r0, ip, lsl r3
    1654:	00000424 	andeq	r0, r0, r4, lsr #8
    1658:	00500001 	subseq	r0, r0, r1
    165c:	00000000 	andeq	r0, r0, r0
    1660:	b4000000 	strlt	r0, [r0], #-0
    1664:	d4000001 	strle	r0, [r0], #-1
    1668:	02000001 	andeq	r0, r0, #1
    166c:	009f3000 	addseq	r3, pc, r0
    1670:	00000000 	andeq	r0, r0, r0
    1674:	d4000000 	strle	r0, [r0], #-0
    1678:	e8000001 	stmda	r0, {r0}
    167c:	07000001 	streq	r0, [r0, -r1]
    1680:	80807300 	addhi	r7, r0, r0, lsl #6
    1684:	9f7a8080 	svcls	0x007a8080
    1688:	000001e8 	andeq	r0, r0, r8, ror #3
    168c:	000001fc 	strdeq	r0, [r0], -ip
    1690:	fc730007 	ldc2l	0, cr0, [r3], #-28	; 0xffffffe4
    1694:	79ffffff 	ldmibvc	pc!, {r0, r1, r2, r3, r4, r5, r6, r7, r8, r9, sl, fp, ip, sp, lr, pc}^	; <UNPREDICTABLE>
    1698:	0002e09f 	muleq	r2, pc, r0	; <UNPREDICTABLE>
    169c:	0002fc00 	andeq	pc, r2, r0, lsl #24
    16a0:	73000700 	movwvc	r0, #1792	; 0x700
    16a4:	80808080 	addhi	r8, r0, r0, lsl #1
    16a8:	00009f7a 	andeq	r9, r0, sl, ror pc
    16ac:	00000000 	andeq	r0, r0, r0
    16b0:	02e00000 	rsceq	r0, r0, #0
    16b4:	02fc0000 	rscseq	r0, ip, #0
    16b8:	00070000 	andeq	r0, r7, r0
    16bc:	80808073 	addhi	r8, r0, r3, ror r0
    16c0:	009f7a80 	addseq	r7, pc, r0, lsl #21
    16c4:	00000000 	andeq	r0, r0, r0
    16c8:	f8000000 			; <UNDEFINED> instruction: 0xf8000000
    16cc:	d4000001 	strle	r0, [r0], #-1
    16d0:	03000002 	movweq	r0, #2
    16d4:	9f1c7000 	svcls	0x001c7000
    16d8:	000002d4 	ldrdeq	r0, [r0], -r4
    16dc:	000002e0 	andeq	r0, r0, r0, ror #5
    16e0:	84740007 	ldrbthi	r0, [r4], #-7
    16e4:	03c08080 	biceq	r8, r0, #128	; 0x80
    16e8:	0002fc9f 	muleq	r2, pc, ip	; <UNPREDICTABLE>
    16ec:	00031400 	andeq	r1, r3, r0, lsl #8
    16f0:	70000300 	andvc	r0, r0, r0, lsl #6
    16f4:	03149f1c 	tsteq	r4, #28, 30	; 0x70
    16f8:	031c0000 	tsteq	ip, #0
    16fc:	00070000 	andeq	r0, r7, r0
    1700:	c0808072 	addgt	r8, r0, r2, ror r0
    1704:	1c9f03c0 	ldcne	3, cr0, [pc], {192}	; 0xc0
    1708:	24000003 	strcs	r0, [r0], #-3
    170c:	03000004 	movweq	r0, #4
    1710:	9f1c7000 	svcls	0x001c7000
	...
    171c:	00000214 	andeq	r0, r0, r4, lsl r2
    1720:	000002d4 	ldrdeq	r0, [r0], -r4
    1724:	d4500001 	ldrble	r0, [r0], #-1
    1728:	e0000002 	and	r0, r0, r2
    172c:	07000002 	streq	r0, [r0, -r2]
    1730:	ffe87400 			; <UNDEFINED> instruction: 0xffe87400
    1734:	9f03bfff 	svcls	0x0003bfff
    1738:	000002fc 	strdeq	r0, [r0], -ip
    173c:	00000314 	andeq	r0, r0, r4, lsl r3
    1740:	14500001 	ldrbne	r0, [r0], #-1
    1744:	1c000003 	stcne	0, cr0, [r0], {3}
    1748:	07000003 	streq	r0, [r0, -r3]
    174c:	ffe47200 			; <UNDEFINED> instruction: 0xffe47200
    1750:	9f03c0bf 	svcls	0x0003c0bf
    1754:	0000031c 	andeq	r0, r0, ip, lsl r3
    1758:	0000040c 	andeq	r0, r0, ip, lsl #8
    175c:	00500001 	subseq	r0, r0, r1
    1760:	00000000 	andeq	r0, r0, r0
    1764:	f4000000 	vst4.8	{d0-d3}, [r0], r0
    1768:	0c000003 	stceq	0, cr0, [r0], {3}
    176c:	01000004 	tsteq	r0, r4
    1770:	00005000 	andeq	r5, r0, r0
    1774:	00000000 	andeq	r0, r0, r0
    1778:	021c0000 	andseq	r0, ip, #0
    177c:	02d40000 	sbcseq	r0, r4, #0
    1780:	00030000 	andeq	r0, r3, r0
    1784:	d49f1870 	ldrle	r1, [pc], #2160	; 178c <_back_addr-0x14fe874>
    1788:	e0000002 	and	r0, r0, r2
    178c:	07000002 	streq	r0, [r0, -r2]
    1790:	80807400 	addhi	r7, r0, r0, lsl #8
    1794:	9f03c080 	svcls	0x0003c080
    1798:	000002fc 	strdeq	r0, [r0], -ip
    179c:	00000314 	andeq	r0, r0, r4, lsl r3
    17a0:	18700003 	ldmdane	r0!, {r0, r1}^
    17a4:	0003149f 	muleq	r3, pc, r4	; <UNPREDICTABLE>
    17a8:	00031c00 	andeq	r1, r3, r0, lsl #24
    17ac:	72000700 	andvc	r0, r0, #0, 14
    17b0:	c0bffffc 	ldrshtgt	pc, [pc], ip	; <UNPREDICTABLE>
    17b4:	031c9f03 	tsteq	ip, #3, 30
    17b8:	03f40000 	mvnseq	r0, #0
    17bc:	00030000 	andeq	r0, r3, r0
    17c0:	009f1870 	addseq	r1, pc, r0, ror r8	; <UNPREDICTABLE>
    17c4:	00000000 	andeq	r0, r0, r0
    17c8:	dc000000 	stcle	0, cr0, [r0], {-0}
    17cc:	f4000003 	vst4.8	{d0-d3}, [r0], r3
    17d0:	03000003 	movweq	r0, #3
    17d4:	9f187000 	svcls	0x00187000
	...
    17e0:	00000234 	andeq	r0, r0, r4, lsr r2
    17e4:	000002d4 	ldrdeq	r0, [r0], -r4
    17e8:	04700003 	ldrbteq	r0, [r0], #-3
    17ec:	0002d49f 	muleq	r2, pc, r4	; <UNPREDICTABLE>
    17f0:	0002e000 	andeq	lr, r2, r0
    17f4:	74000700 	strvc	r0, [r0], #-1792	; 0x700
    17f8:	bfffffec 	svclt	0x00ffffec
    17fc:	02fc9f03 	rscseq	r9, ip, #3, 30
    1800:	03140000 	tsteq	r4, #0
    1804:	00030000 	andeq	r0, r3, r0
    1808:	149f0470 	ldrne	r0, [pc], #1136	; 1810 <_back_addr-0x14fe7f0>
    180c:	1c000003 	stcne	0, cr0, [r0], {3}
    1810:	07000003 	streq	r0, [r0, -r3]
    1814:	ffe87200 			; <UNDEFINED> instruction: 0xffe87200
    1818:	9f03c0bf 	svcls	0x0003c0bf
    181c:	0000031c 	andeq	r0, r0, ip, lsl r3
    1820:	000003dc 	ldrdeq	r0, [r0], -ip
    1824:	04700003 	ldrbteq	r0, [r0], #-3
    1828:	0000009f 	muleq	r0, pc, r0	; <UNPREDICTABLE>
    182c:	00000000 	andeq	r0, r0, r0
    1830:	0003c400 	andeq	ip, r3, r0, lsl #8
    1834:	0003dc00 	andeq	sp, r3, r0, lsl #24
    1838:	70000300 	andvc	r0, r0, r0, lsl #6
    183c:	00009f04 	andeq	r9, r0, r4, lsl #30
    1840:	00000000 	andeq	r0, r0, r0
    1844:	02440000 	subeq	r0, r4, #0
    1848:	02d40000 	sbcseq	r0, r4, #0
    184c:	00030000 	andeq	r0, r3, r0
    1850:	d49f1470 	ldrle	r1, [pc], #1136	; 1858 <_back_addr-0x14fe7a8>
    1854:	e0000002 	and	r0, r0, r2
    1858:	07000002 	streq	r0, [r0, -r2]
    185c:	fffc7400 			; <UNDEFINED> instruction: 0xfffc7400
    1860:	9f03bfff 	svcls	0x0003bfff
    1864:	000002fc 	strdeq	r0, [r0], -ip
    1868:	00000314 	andeq	r0, r0, r4, lsl r3
    186c:	14700003 	ldrbtne	r0, [r0], #-3
    1870:	0003149f 	muleq	r3, pc, r4	; <UNPREDICTABLE>
    1874:	00031c00 	andeq	r1, r3, r0, lsl #24
    1878:	72000700 	andvc	r0, r0, #0, 14
    187c:	c0bffff8 	ldrshtgt	pc, [pc], r8	; <UNPREDICTABLE>
    1880:	031c9f03 	tsteq	ip, #3, 30
    1884:	03c40000 	biceq	r0, r4, #0
    1888:	00030000 	andeq	r0, r3, r0
    188c:	009f1470 	addseq	r1, pc, r0, ror r4	; <UNPREDICTABLE>
    1890:	00000000 	andeq	r0, r0, r0
    1894:	ac000000 	stcge	0, cr0, [r0], {-0}
    1898:	c4000003 	strgt	r0, [r0], #-3
    189c:	03000003 	movweq	r0, #3
    18a0:	9f147000 	svcls	0x00147000
	...
    18ac:	0000025c 	andeq	r0, r0, ip, asr r2
    18b0:	000002d4 	ldrdeq	r0, [r0], -r4
    18b4:	08700003 	ldmdaeq	r0!, {r0, r1}^
    18b8:	0002d49f 	muleq	r2, pc, r4	; <UNPREDICTABLE>
    18bc:	0002e000 	andeq	lr, r2, r0
    18c0:	74000700 	strvc	r0, [r0], #-1792	; 0x700
    18c4:	bffffff0 	svclt	0x00fffff0
    18c8:	02fc9f03 	rscseq	r9, ip, #3, 30
    18cc:	03140000 	tsteq	r4, #0
    18d0:	00030000 	andeq	r0, r3, r0
    18d4:	149f0870 	ldrne	r0, [pc], #2160	; 18dc <_back_addr-0x14fe724>
    18d8:	1c000003 	stcne	0, cr0, [r0], {3}
    18dc:	07000003 	streq	r0, [r0, -r3]
    18e0:	ffec7200 			; <UNDEFINED> instruction: 0xffec7200
    18e4:	9f03c0bf 	svcls	0x0003c0bf
    18e8:	0000031c 	andeq	r0, r0, ip, lsl r3
    18ec:	000003ac 	andeq	r0, r0, ip, lsr #7
    18f0:	08700003 	ldmdaeq	r0!, {r0, r1}^
    18f4:	0000009f 	muleq	r0, pc, r0	; <UNPREDICTABLE>
    18f8:	00000000 	andeq	r0, r0, r0
    18fc:	00039400 	andeq	r9, r3, r0, lsl #8
    1900:	0003ac00 	andeq	sl, r3, r0, lsl #24
    1904:	70000300 	andvc	r0, r0, r0, lsl #6
    1908:	00009f08 	andeq	r9, r0, r8, lsl #30
    190c:	00000000 	andeq	r0, r0, r0
    1910:	026c0000 	rsbeq	r0, ip, #0
    1914:	02d40000 	sbcseq	r0, r4, #0
    1918:	00030000 	andeq	r0, r3, r0
    191c:	d49f1070 	ldrle	r1, [pc], #112	; 1924 <_back_addr-0x14fe6dc>
    1920:	e0000002 	and	r0, r0, r2
    1924:	07000002 	streq	r0, [r0, -r2]
    1928:	fff87400 			; <UNDEFINED> instruction: 0xfff87400
    192c:	9f03bfff 	svcls	0x0003bfff
    1930:	000002fc 	strdeq	r0, [r0], -ip
    1934:	00000314 	andeq	r0, r0, r4, lsl r3
    1938:	10700003 	rsbsne	r0, r0, r3
    193c:	0003149f 	muleq	r3, pc, r4	; <UNPREDICTABLE>
    1940:	00031c00 	andeq	r1, r3, r0, lsl #24
    1944:	72000700 	andvc	r0, r0, #0, 14
    1948:	c0bffff4 	ldrshtgt	pc, [pc], r4	; <UNPREDICTABLE>
    194c:	031c9f03 	tsteq	ip, #3, 30
    1950:	03940000 	orrseq	r0, r4, #0
    1954:	00030000 	andeq	r0, r3, r0
    1958:	009f1070 	addseq	r1, pc, r0, ror r0	; <UNPREDICTABLE>
    195c:	00000000 	andeq	r0, r0, r0
    1960:	7c000000 	stcvc	0, cr0, [r0], {-0}
    1964:	94000003 	strls	r0, [r0], #-3
    1968:	03000003 	movweq	r0, #3
    196c:	9f107000 	svcls	0x00107000
	...
    1978:	00000284 	andeq	r0, r0, r4, lsl #5
    197c:	000002d4 	ldrdeq	r0, [r0], -r4
    1980:	0c700003 	ldcleq	0, cr0, [r0], #-12
    1984:	0002d49f 	muleq	r2, pc, r4	; <UNPREDICTABLE>
    1988:	0002e000 	andeq	lr, r2, r0
    198c:	74000700 	strvc	r0, [r0], #-1792	; 0x700
    1990:	bffffff4 	svclt	0x00fffff4
    1994:	02fc9f03 	rscseq	r9, ip, #3, 30
    1998:	03140000 	tsteq	r4, #0
    199c:	00030000 	andeq	r0, r3, r0
    19a0:	149f0c70 	ldrne	r0, [pc], #3184	; 19a8 <_back_addr-0x14fe658>
    19a4:	1c000003 	stcne	0, cr0, [r0], {3}
    19a8:	07000003 	streq	r0, [r0, -r3]
    19ac:	fff07200 			; <UNDEFINED> instruction: 0xfff07200
    19b0:	9f03c0bf 	svcls	0x0003c0bf
    19b4:	0000031c 	andeq	r0, r0, ip, lsl r3
    19b8:	0000037c 	andeq	r0, r0, ip, ror r3
    19bc:	0c700003 	ldcleq	0, cr0, [r0], #-12
    19c0:	0000009f 	muleq	r0, pc, r0	; <UNPREDICTABLE>
    19c4:	00000000 	andeq	r0, r0, r0
    19c8:	00036400 	andeq	r6, r3, r0, lsl #8
    19cc:	00037c00 	andeq	r7, r3, r0, lsl #24
    19d0:	70000300 	andvc	r0, r0, r0, lsl #6
    19d4:	00009f0c 	andeq	r9, r0, ip, lsl #30
    19d8:	00000000 	andeq	r0, r0, r0
    19dc:	029c0000 	addseq	r0, ip, #0
    19e0:	02ac0000 	adceq	r0, ip, #0
    19e4:	00010000 	andeq	r0, r1, r0
    19e8:	00034c53 	andeq	r4, r3, r3, asr ip
    19ec:	00036400 	andeq	r6, r3, r0, lsl #8
    19f0:	53000100 	movwpl	r0, #256	; 0x100
	...
    19fc:	0000029c 	muleq	r0, ip, r2
    1a00:	000002d4 	ldrdeq	r0, [r0], -r4
    1a04:	10700003 	rsbsne	r0, r0, r3
    1a08:	0002d49f 	muleq	r2, pc, r4	; <UNPREDICTABLE>
    1a0c:	0002e000 	andeq	lr, r2, r0
    1a10:	74000700 	strvc	r0, [r0], #-1792	; 0x700
    1a14:	bffffff8 	svclt	0x00fffff8
    1a18:	02fc9f03 	rscseq	r9, ip, #3, 30
    1a1c:	03140000 	tsteq	r4, #0
    1a20:	00030000 	andeq	r0, r3, r0
    1a24:	149f1070 	ldrne	r1, [pc], #112	; 1a2c <_back_addr-0x14fe5d4>
    1a28:	1c000003 	stcne	0, cr0, [r0], {3}
    1a2c:	07000003 	streq	r0, [r0, -r3]
    1a30:	fff47200 			; <UNDEFINED> instruction: 0xfff47200
    1a34:	9f03c0bf 	svcls	0x0003c0bf
    1a38:	0000031c 	andeq	r0, r0, ip, lsl r3
    1a3c:	00000364 	andeq	r0, r0, r4, ror #6
    1a40:	10700003 	rsbsne	r0, r0, r3
    1a44:	0000009f 	muleq	r0, pc, r0	; <UNPREDICTABLE>
    1a48:	00000000 	andeq	r0, r0, r0
    1a4c:	00034c00 	andeq	r4, r3, r0, lsl #24
    1a50:	00036400 	andeq	r6, r3, r0, lsl #8
    1a54:	53000100 	movwpl	r0, #256	; 0x100
	...
    1a60:	0000034c 	andeq	r0, r0, ip, asr #6
    1a64:	00000364 	andeq	r0, r0, r4, ror #6
    1a68:	10700003 	rsbsne	r0, r0, r3
    1a6c:	0000009f 	muleq	r0, pc, r0	; <UNPREDICTABLE>
    1a70:	00000000 	andeq	r0, r0, r0
    1a74:	0002ac00 	andeq	sl, r2, r0, lsl #24
    1a78:	0002bc00 	andeq	fp, r2, r0, lsl #24
    1a7c:	53000100 	movwpl	r0, #256	; 0x100
    1a80:	00000334 	andeq	r0, r0, r4, lsr r3
    1a84:	0000034c 	andeq	r0, r0, ip, asr #6
    1a88:	00530001 	subseq	r0, r3, r1
    1a8c:	00000000 	andeq	r0, r0, r0
    1a90:	ac000000 	stcge	0, cr0, [r0], {-0}
    1a94:	d4000002 	strle	r0, [r0], #-2
    1a98:	03000002 	movweq	r0, #2
    1a9c:	9f147000 	svcls	0x00147000
    1aa0:	000002d4 	ldrdeq	r0, [r0], -r4
    1aa4:	000002e0 	andeq	r0, r0, r0, ror #5
    1aa8:	fc740007 	ldc2l	0, cr0, [r4], #-28	; 0xffffffe4
    1aac:	03bfffff 			; <UNDEFINED> instruction: 0x03bfffff
    1ab0:	0002fc9f 	muleq	r2, pc, ip	; <UNPREDICTABLE>
    1ab4:	00031400 	andeq	r1, r3, r0, lsl #8
    1ab8:	70000300 	andvc	r0, r0, r0, lsl #6
    1abc:	03149f14 	tsteq	r4, #20, 30	; 0x50
    1ac0:	031c0000 	tsteq	ip, #0
    1ac4:	00070000 	andeq	r0, r7, r0
    1ac8:	bffff872 	svclt	0x00fff872
    1acc:	1c9f03c0 	ldcne	3, cr0, [pc], {192}	; 0xc0
    1ad0:	4c000003 	stcmi	0, cr0, [r0], {3}
    1ad4:	03000003 	movweq	r0, #3
    1ad8:	9f147000 	svcls	0x00147000
	...
    1ae4:	00000334 	andeq	r0, r0, r4, lsr r3
    1ae8:	0000034c 	andeq	r0, r0, ip, asr #6
    1aec:	00530001 	subseq	r0, r3, r1
    1af0:	00000000 	andeq	r0, r0, r0
    1af4:	34000000 	strcc	r0, [r0], #-0
    1af8:	4c000003 	stcmi	0, cr0, [r0], {3}
    1afc:	03000003 	movweq	r0, #3
    1b00:	9f147000 	svcls	0x00147000
	...
    1b0c:	000002bc 			; <UNDEFINED> instruction: 0x000002bc
    1b10:	000002cc 	andeq	r0, r0, ip, asr #5
    1b14:	1c530001 	mrrcne	0, 0, r0, r3, cr1
    1b18:	34000003 	strcc	r0, [r0], #-3
    1b1c:	01000003 	tsteq	r0, r3
    1b20:	00005300 	andeq	r5, r0, r0, lsl #6
    1b24:	00000000 	andeq	r0, r0, r0
    1b28:	02bc0000 	adcseq	r0, ip, #0
    1b2c:	02d40000 	sbcseq	r0, r4, #0
    1b30:	00030000 	andeq	r0, r3, r0
    1b34:	d49f1870 	ldrle	r1, [pc], #2160	; 1b3c <_back_addr-0x14fe4c4>
    1b38:	e0000002 	and	r0, r0, r2
    1b3c:	07000002 	streq	r0, [r0, -r2]
    1b40:	80807400 	addhi	r7, r0, r0, lsl #8
    1b44:	9f03c080 	svcls	0x0003c080
    1b48:	000002fc 	strdeq	r0, [r0], -ip
    1b4c:	00000314 	andeq	r0, r0, r4, lsl r3
    1b50:	18700003 	ldmdane	r0!, {r0, r1}^
    1b54:	0003149f 	muleq	r3, pc, r4	; <UNPREDICTABLE>
    1b58:	00031c00 	andeq	r1, r3, r0, lsl #24
    1b5c:	72000700 	andvc	r0, r0, #0, 14
    1b60:	c0bffffc 	ldrshtgt	pc, [pc], ip	; <UNPREDICTABLE>
    1b64:	031c9f03 	tsteq	ip, #3, 30
    1b68:	03340000 	teqeq	r4, #0
    1b6c:	00030000 	andeq	r0, r3, r0
    1b70:	009f1870 	addseq	r1, pc, r0, ror r8	; <UNPREDICTABLE>
    1b74:	00000000 	andeq	r0, r0, r0
    1b78:	1c000000 	stcne	0, cr0, [r0], {-0}
    1b7c:	34000003 	strcc	r0, [r0], #-3
    1b80:	01000003 	tsteq	r0, r3
    1b84:	00005300 	andeq	r5, r0, r0, lsl #6
    1b88:	00000000 	andeq	r0, r0, r0
    1b8c:	031c0000 	tsteq	ip, #0
    1b90:	03340000 	teqeq	r4, #0
    1b94:	00030000 	andeq	r0, r3, r0
    1b98:	009f1870 	addseq	r1, pc, r0, ror r8	; <UNPREDICTABLE>
    1b9c:	00000000 	andeq	r0, r0, r0
    1ba0:	cc000000 	stcgt	0, cr0, [r0], {-0}
    1ba4:	e0000002 	and	r0, r0, r2
    1ba8:	01000002 	tsteq	r0, r2
    1bac:	02fc5300 	rscseq	r5, ip, #0, 6
    1bb0:	031c0000 	tsteq	ip, #0
    1bb4:	00010000 	andeq	r0, r1, r0
    1bb8:	00000053 	andeq	r0, r0, r3, asr r0
    1bbc:	00000000 	andeq	r0, r0, r0
    1bc0:	0002cc00 	andeq	ip, r2, r0, lsl #24
    1bc4:	0002d400 	andeq	sp, r2, r0, lsl #8
    1bc8:	70000300 	andvc	r0, r0, r0, lsl #6
    1bcc:	02d49f1c 	sbcseq	r9, r4, #28, 30	; 0x70
    1bd0:	02e00000 	rsceq	r0, r0, #0
    1bd4:	00070000 	andeq	r0, r7, r0
    1bd8:	80808474 	addhi	r8, r0, r4, ror r4
    1bdc:	fc9f03c0 	ldc2	3, cr0, [pc], {192}	; 0xc0
    1be0:	14000002 	strne	r0, [r0], #-2
    1be4:	03000003 	movweq	r0, #3
    1be8:	9f1c7000 	svcls	0x001c7000
    1bec:	00000314 	andeq	r0, r0, r4, lsl r3
    1bf0:	0000031c 	andeq	r0, r0, ip, lsl r3
    1bf4:	80720007 	rsbshi	r0, r2, r7
    1bf8:	03c0c080 	biceq	ip, r0, #128	; 0x80
    1bfc:	0000009f 	muleq	r0, pc, r0	; <UNPREDICTABLE>
    1c00:	00000000 	andeq	r0, r0, r0
    1c04:	0002fc00 	andeq	pc, r2, r0, lsl #24
    1c08:	00031c00 	andeq	r1, r3, r0, lsl #24
    1c0c:	53000100 	movwpl	r0, #256	; 0x100
	...
    1c18:	000002fc 	strdeq	r0, [r0], -ip
    1c1c:	00000314 	andeq	r0, r0, r4, lsl r3
    1c20:	1c700003 	ldclne	0, cr0, [r0], #-12
    1c24:	0003149f 	muleq	r3, pc, r4	; <UNPREDICTABLE>
    1c28:	00031c00 	andeq	r1, r3, r0, lsl #24
    1c2c:	72000700 	andvc	r0, r0, #0, 14
    1c30:	c0c08080 	sbcgt	r8, r0, r0, lsl #1
    1c34:	00009f03 	andeq	r9, r0, r3, lsl #30
    1c38:	00000000 	andeq	r0, r0, r0
    1c3c:	04240000 	strteq	r0, [r4], #-0
    1c40:	043b0000 	ldrteq	r0, [fp], #-0
    1c44:	00010000 	andeq	r0, r1, r0
    1c48:	00043b50 	andeq	r3, r4, r0, asr fp
    1c4c:	00048800 	andeq	r8, r4, r0, lsl #16
    1c50:	58000100 	stmdapl	r0, {r8}
    1c54:	00000488 	andeq	r0, r0, r8, lsl #9
    1c58:	0000048b 	andeq	r0, r0, fp, lsl #9
    1c5c:	2c700002 	ldclcs	0, cr0, [r0], #-8
    1c60:	0000048b 	andeq	r0, r0, fp, lsl #9
    1c64:	0000048c 	andeq	r0, r0, ip, lsl #9
    1c68:	01f30004 	mvnseq	r0, r4
    1c6c:	048c9f50 	streq	r9, [ip], #3920	; 0xf50
    1c70:	04b40000 	ldrteq	r0, [r4], #0
    1c74:	00010000 	andeq	r0, r1, r0
    1c78:	00000058 	andeq	r0, r0, r8, asr r0
    1c7c:	00000000 	andeq	r0, r0, r0
    1c80:	00042400 	andeq	r2, r4, r0, lsl #8
    1c84:	00043b00 	andeq	r3, r4, r0, lsl #22
    1c88:	51000100 	mrspl	r0, (UNDEF: 16)
    1c8c:	0000043b 	andeq	r0, r0, fp, lsr r4
    1c90:	00000488 	andeq	r0, r0, r8, lsl #9
    1c94:	88560001 	ldmdahi	r6, {r0}^
    1c98:	8b000004 	blhi	1cb0 <_back_addr-0x14fe350>
    1c9c:	02000004 	andeq	r0, r0, #4
    1ca0:	8b347000 	blhi	d1dca8 <_back_addr-0x7e2358>
    1ca4:	8c000004 	stchi	0, cr0, [r0], {4}
    1ca8:	04000004 	streq	r0, [r0], #-4
    1cac:	5101f300 	mrspl	pc, SP_irq	; <UNPREDICTABLE>
    1cb0:	00048c9f 	muleq	r4, pc, ip	; <UNPREDICTABLE>
    1cb4:	0004b400 	andeq	fp, r4, r0, lsl #8
    1cb8:	56000100 	strpl	r0, [r0], -r0, lsl #2
	...
    1cc4:	00000424 	andeq	r0, r0, r4, lsr #8
    1cc8:	0000043b 	andeq	r0, r0, fp, lsr r4
    1ccc:	3b520001 	blcc	1481cd8 <_back_addr-0x7e328>
    1cd0:	88000004 	stmdahi	r0, {r2}
    1cd4:	01000004 	tsteq	r0, r4
    1cd8:	04885700 	streq	r5, [r8], #1792	; 0x700
    1cdc:	048b0000 	streq	r0, [fp], #0
    1ce0:	00020000 	andeq	r0, r2, r0
    1ce4:	048b3070 	streq	r3, [fp], #112	; 0x70
    1ce8:	048c0000 	streq	r0, [ip], #0
    1cec:	00040000 	andeq	r0, r4, r0
    1cf0:	9f5201f3 	svcls	0x005201f3
    1cf4:	0000048c 	andeq	r0, r0, ip, lsl #9
    1cf8:	000004b4 			; <UNDEFINED> instruction: 0x000004b4
    1cfc:	00570001 	subseq	r0, r7, r1
    1d00:	00000000 	andeq	r0, r0, r0
    1d04:	24000000 	strcs	r0, [r0], #-0
    1d08:	3b000004 	blcc	1d20 <_back_addr-0x14fe2e0>
    1d0c:	01000004 	tsteq	r0, r4
    1d10:	043b5300 	ldrteq	r5, [fp], #-768	; 0x300
    1d14:	04880000 	streq	r0, [r8], #0
    1d18:	00010000 	andeq	r0, r1, r0
    1d1c:	00048855 	andeq	r8, r4, r5, asr r8
    1d20:	00048c00 	andeq	r8, r4, r0, lsl #24
    1d24:	f3000400 	vshl.u8	d0, d0, d0
    1d28:	8c9f5301 	ldchi	3, cr5, [pc], {1}
    1d2c:	b4000004 	strlt	r0, [r0], #-4
    1d30:	01000004 	tsteq	r0, r4
    1d34:	00005500 	andeq	r5, r0, r0, lsl #10
    1d38:	00000000 	andeq	r0, r0, r0
    1d3c:	043c0000 	ldrteq	r0, [ip], #-0
    1d40:	04740000 	ldrbteq	r0, [r4], #-0
    1d44:	00010000 	andeq	r0, r1, r0
    1d48:	00047450 	andeq	r7, r4, r0, asr r4
    1d4c:	00048800 	andeq	r8, r4, r0, lsl #16
    1d50:	54000100 	strpl	r0, [r0], #-256	; 0x100
    1d54:	00000488 	andeq	r0, r0, r8, lsl #9
    1d58:	0000048b 	andeq	r0, r0, fp, lsl #9
    1d5c:	8c500001 	mrrchi	0, 0, r0, r0, cr1	; <UNPREDICTABLE>
    1d60:	8f000004 	svchi	0x00000004
    1d64:	01000004 	tsteq	r0, r4
    1d68:	048f5000 	streq	r5, [pc], #0	; 1d70 <_back_addr-0x14fe290>
    1d6c:	04a40000 	strteq	r0, [r4], #0
    1d70:	00010000 	andeq	r0, r1, r0
    1d74:	0004a454 	andeq	sl, r4, r4, asr r4
    1d78:	0004a800 	andeq	sl, r4, r0, lsl #16
    1d7c:	50000100 	andpl	r0, r0, r0, lsl #2
    1d80:	000004a8 	andeq	r0, r0, r8, lsr #9
    1d84:	000004b4 			; <UNDEFINED> instruction: 0x000004b4
    1d88:	00540001 	subseq	r0, r4, r1
    1d8c:	00000000 	andeq	r0, r0, r0
    1d90:	b4000000 	strlt	r0, [r0], #-0
    1d94:	cb000004 	blgt	1dac <_back_addr-0x14fe254>
    1d98:	01000004 	tsteq	r0, r4
    1d9c:	04cb5000 	strbeq	r5, [fp], #0
    1da0:	05180000 	ldreq	r0, [r8, #-0]
    1da4:	00010000 	andeq	r0, r1, r0
    1da8:	00051858 	andeq	r1, r5, r8, asr r8
    1dac:	00051b00 	andeq	r1, r5, r0, lsl #22
    1db0:	70000200 	andvc	r0, r0, r0, lsl #4
    1db4:	00051b2c 	andeq	r1, r5, ip, lsr #22
    1db8:	00051c00 	andeq	r1, r5, r0, lsl #24
    1dbc:	f3000400 	vshl.u8	d0, d0, d0
    1dc0:	1c9f5001 	ldcne	0, cr5, [pc], {1}
    1dc4:	44000005 	strmi	r0, [r0], #-5
    1dc8:	01000005 	tsteq	r0, r5
    1dcc:	00005800 	andeq	r5, r0, r0, lsl #16
    1dd0:	00000000 	andeq	r0, r0, r0
    1dd4:	04b40000 	ldrteq	r0, [r4], #0
    1dd8:	04cb0000 	strbeq	r0, [fp], #0
    1ddc:	00010000 	andeq	r0, r1, r0
    1de0:	0004cb51 	andeq	ip, r4, r1, asr fp
    1de4:	00051800 	andeq	r1, r5, r0, lsl #16
    1de8:	56000100 	strpl	r0, [r0], -r0, lsl #2
    1dec:	00000518 	andeq	r0, r0, r8, lsl r5
    1df0:	0000051b 	andeq	r0, r0, fp, lsl r5
    1df4:	34700002 	ldrbtcc	r0, [r0], #-2
    1df8:	0000051b 	andeq	r0, r0, fp, lsl r5
    1dfc:	0000051c 	andeq	r0, r0, ip, lsl r5
    1e00:	01f30004 	mvnseq	r0, r4
    1e04:	051c9f51 	ldreq	r9, [ip, #-3921]	; 0xf51
    1e08:	05440000 	strbeq	r0, [r4, #-0]
    1e0c:	00010000 	andeq	r0, r1, r0
    1e10:	00000056 	andeq	r0, r0, r6, asr r0
    1e14:	00000000 	andeq	r0, r0, r0
    1e18:	0004b400 	andeq	fp, r4, r0, lsl #8
    1e1c:	0004cb00 	andeq	ip, r4, r0, lsl #22
    1e20:	52000100 	andpl	r0, r0, #0, 2
    1e24:	000004cb 	andeq	r0, r0, fp, asr #9
    1e28:	00000518 	andeq	r0, r0, r8, lsl r5
    1e2c:	18570001 	ldmdane	r7, {r0}^
    1e30:	1b000005 	blne	1e4c <_back_addr-0x14fe1b4>
    1e34:	02000005 	andeq	r0, r0, #5
    1e38:	1b307000 	blne	c1de40 <_back_addr-0x8e21c0>
    1e3c:	1c000005 	stcne	0, cr0, [r0], {5}
    1e40:	04000005 	streq	r0, [r0], #-5
    1e44:	5201f300 	andpl	pc, r1, #0, 6
    1e48:	00051c9f 	muleq	r5, pc, ip	; <UNPREDICTABLE>
    1e4c:	00054400 	andeq	r4, r5, r0, lsl #8
    1e50:	57000100 	strpl	r0, [r0, -r0, lsl #2]
	...
    1e5c:	000004b4 			; <UNDEFINED> instruction: 0x000004b4
    1e60:	000004cb 	andeq	r0, r0, fp, asr #9
    1e64:	cb530001 	blgt	14c1e70 <_back_addr-0x3e190>
    1e68:	18000004 	stmdane	r0, {r2}
    1e6c:	01000005 	tsteq	r0, r5
    1e70:	05185500 	ldreq	r5, [r8, #-1280]	; 0x500
    1e74:	051c0000 	ldreq	r0, [ip, #-0]
    1e78:	00040000 	andeq	r0, r4, r0
    1e7c:	9f5301f3 	svcls	0x005301f3
    1e80:	0000051c 	andeq	r0, r0, ip, lsl r5
    1e84:	00000544 	andeq	r0, r0, r4, asr #10
    1e88:	00550001 	subseq	r0, r5, r1
    1e8c:	00000000 	andeq	r0, r0, r0
    1e90:	cc000000 	stcgt	0, cr0, [r0], {-0}
    1e94:	04000004 	streq	r0, [r0], #-4
    1e98:	01000005 	tsteq	r0, r5
    1e9c:	05045000 	streq	r5, [r4, #-0]
    1ea0:	05180000 	ldreq	r0, [r8, #-0]
    1ea4:	00010000 	andeq	r0, r1, r0
    1ea8:	00051854 	andeq	r1, r5, r4, asr r8
    1eac:	00051b00 	andeq	r1, r5, r0, lsl #22
    1eb0:	50000100 	andpl	r0, r0, r0, lsl #2
    1eb4:	0000051c 	andeq	r0, r0, ip, lsl r5
    1eb8:	0000051f 	andeq	r0, r0, pc, lsl r5
    1ebc:	1f500001 	svcne	0x00500001
    1ec0:	34000005 	strcc	r0, [r0], #-5
    1ec4:	01000005 	tsteq	r0, r5
    1ec8:	05345400 	ldreq	r5, [r4, #-1024]!	; 0x400
    1ecc:	05380000 	ldreq	r0, [r8, #-0]!
    1ed0:	00010000 	andeq	r0, r1, r0
    1ed4:	00053850 	andeq	r3, r5, r0, asr r8
    1ed8:	00054400 	andeq	r4, r5, r0, lsl #8
    1edc:	54000100 	strpl	r0, [r0], #-256	; 0x100
	...
    1ee8:	00000544 	andeq	r0, r0, r4, asr #10
    1eec:	0000055b 	andeq	r0, r0, fp, asr r5
    1ef0:	5b500001 	blpl	1401efc <_back_addr-0xfe104>
    1ef4:	a8000005 	stmdage	r0, {r0, r2}
    1ef8:	01000005 	tsteq	r0, r5
    1efc:	05a85800 	streq	r5, [r8, #2048]!	; 0x800
    1f00:	05ab0000 	streq	r0, [fp, #0]!
    1f04:	00020000 	andeq	r0, r2, r0
    1f08:	05ab2c70 	streq	r2, [fp, #3184]!	; 0xc70
    1f0c:	05ac0000 	streq	r0, [ip, #0]!
    1f10:	00040000 	andeq	r0, r4, r0
    1f14:	9f5001f3 	svcls	0x005001f3
    1f18:	000005ac 	andeq	r0, r0, ip, lsr #11
    1f1c:	000005d8 	ldrdeq	r0, [r0], -r8
    1f20:	00580001 	subseq	r0, r8, r1
    1f24:	00000000 	andeq	r0, r0, r0
    1f28:	44000000 	strmi	r0, [r0], #-0
    1f2c:	5b000005 	blpl	1f48 <_back_addr-0x14fe0b8>
    1f30:	01000005 	tsteq	r0, r5
    1f34:	055b5100 	ldrbeq	r5, [fp, #-256]	; 0x100
    1f38:	05a80000 	streq	r0, [r8, #0]!
    1f3c:	00010000 	andeq	r0, r1, r0
    1f40:	0005a856 	andeq	sl, r5, r6, asr r8
    1f44:	0005ab00 	andeq	sl, r5, r0, lsl #22
    1f48:	70000200 	andvc	r0, r0, r0, lsl #4
    1f4c:	0005ab34 	andeq	sl, r5, r4, lsr fp
    1f50:	0005ac00 	andeq	sl, r5, r0, lsl #24
    1f54:	f3000400 	vshl.u8	d0, d0, d0
    1f58:	ac9f5101 	ldfges	f5, [pc], {1}
    1f5c:	d8000005 	stmdale	r0, {r0, r2}
    1f60:	01000005 	tsteq	r0, r5
    1f64:	00005600 	andeq	r5, r0, r0, lsl #12
    1f68:	00000000 	andeq	r0, r0, r0
    1f6c:	05440000 	strbeq	r0, [r4, #-0]
    1f70:	055b0000 	ldrbeq	r0, [fp, #-0]
    1f74:	00010000 	andeq	r0, r1, r0
    1f78:	00055b52 	andeq	r5, r5, r2, asr fp
    1f7c:	0005a800 	andeq	sl, r5, r0, lsl #16
    1f80:	57000100 	strpl	r0, [r0, -r0, lsl #2]
    1f84:	000005a8 	andeq	r0, r0, r8, lsr #11
    1f88:	000005ab 	andeq	r0, r0, fp, lsr #11
    1f8c:	30700002 	rsbscc	r0, r0, r2
    1f90:	000005ab 	andeq	r0, r0, fp, lsr #11
    1f94:	000005ac 	andeq	r0, r0, ip, lsr #11
    1f98:	01f30004 	mvnseq	r0, r4
    1f9c:	05ac9f52 	streq	r9, [ip, #3922]!	; 0xf52
    1fa0:	05d80000 	ldrbeq	r0, [r8]
    1fa4:	00010000 	andeq	r0, r1, r0
    1fa8:	00000057 	andeq	r0, r0, r7, asr r0
    1fac:	00000000 	andeq	r0, r0, r0
    1fb0:	00054400 	andeq	r4, r5, r0, lsl #8
    1fb4:	00055b00 	andeq	r5, r5, r0, lsl #22
    1fb8:	53000100 	movwpl	r0, #256	; 0x100
    1fbc:	0000055b 	andeq	r0, r0, fp, asr r5
    1fc0:	000005a8 	andeq	r0, r0, r8, lsr #11
    1fc4:	a8550001 	ldmdage	r5, {r0}^
    1fc8:	ac000005 	stcge	0, cr0, [r0], {5}
    1fcc:	04000005 	streq	r0, [r0], #-5
    1fd0:	5301f300 	movwpl	pc, #4864	; 0x1300	; <UNPREDICTABLE>
    1fd4:	0005ac9f 	muleq	r5, pc, ip	; <UNPREDICTABLE>
    1fd8:	0005d800 	andeq	sp, r5, r0, lsl #16
    1fdc:	55000100 	strpl	r0, [r0, #-256]	; 0x100
	...
    1fe8:	0000055c 	andeq	r0, r0, ip, asr r5
    1fec:	00000594 	muleq	r0, r4, r5
    1ff0:	94500001 	ldrbls	r0, [r0], #-1
    1ff4:	a8000005 	stmdage	r0, {r0, r2}
    1ff8:	01000005 	tsteq	r0, r5
    1ffc:	05a85400 	streq	r5, [r8, #1024]!	; 0x400
    2000:	05ab0000 	streq	r0, [fp, #0]!
    2004:	00010000 	andeq	r0, r1, r0
    2008:	0005ac50 	andeq	sl, r5, r0, asr ip
    200c:	0005af00 	andeq	sl, r5, r0, lsl #30
    2010:	50000100 	andpl	r0, r0, r0, lsl #2
    2014:	000005af 	andeq	r0, r0, pc, lsr #11
    2018:	000005c8 	andeq	r0, r0, r8, asr #11
    201c:	c8540001 	ldmdagt	r4, {r0}^
    2020:	cc000005 	stcgt	0, cr0, [r0], {5}
    2024:	01000005 	tsteq	r0, r5
    2028:	05cc5000 	strbeq	r5, [ip]
    202c:	05d80000 	ldrbeq	r0, [r8]
    2030:	00010000 	andeq	r0, r1, r0
    2034:	00000054 	andeq	r0, r0, r4, asr r0
    2038:	00000000 	andeq	r0, r0, r0
    203c:	0005d800 	andeq	sp, r5, r0, lsl #16
    2040:	0005ef00 	andeq	lr, r5, r0, lsl #30
    2044:	50000100 	andpl	r0, r0, r0, lsl #2
    2048:	000005ef 	andeq	r0, r0, pc, ror #11
    204c:	000006c4 	andeq	r0, r0, r4, asr #13
    2050:	00580001 	subseq	r0, r8, r1
    2054:	00000000 	andeq	r0, r0, r0
    2058:	d8000000 	stmdale	r0, {}	; <UNPREDICTABLE>
    205c:	ef000005 	svc	0x00000005
    2060:	01000005 	tsteq	r0, r5
    2064:	05ef5100 	strbeq	r5, [pc, #256]!	; 216c <_back_addr-0x14fde94>
    2068:	06c40000 	strbeq	r0, [r4], r0
    206c:	00010000 	andeq	r0, r1, r0
    2070:	00000057 	andeq	r0, r0, r7, asr r0
    2074:	00000000 	andeq	r0, r0, r0
    2078:	0005d800 	andeq	sp, r5, r0, lsl #16
    207c:	0005ef00 	andeq	lr, r5, r0, lsl #30
    2080:	52000100 	andpl	r0, r0, #0, 2
    2084:	000005ef 	andeq	r0, r0, pc, ror #11
    2088:	000006c4 	andeq	r0, r0, r4, asr #13
    208c:	00560001 	subseq	r0, r6, r1
    2090:	00000000 	andeq	r0, r0, r0
    2094:	d8000000 	stmdale	r0, {}	; <UNPREDICTABLE>
    2098:	ef000005 	svc	0x00000005
    209c:	01000005 	tsteq	r0, r5
    20a0:	05ef5300 	strbeq	r5, [pc, #768]!	; 23a8 <_back_addr-0x14fdc58>
    20a4:	06c40000 	strbeq	r0, [r4], r0
    20a8:	00010000 	andeq	r0, r1, r0
    20ac:	00000055 	andeq	r0, r0, r5, asr r0
    20b0:	00000000 	andeq	r0, r0, r0
    20b4:	0005d800 	andeq	sp, r5, r0, lsl #16
    20b8:	00063c00 	andeq	r3, r6, r0, lsl #24
    20bc:	30000200 	andcc	r0, r0, r0, lsl #4
    20c0:	00063c9f 	muleq	r6, pc, ip	; <UNPREDICTABLE>
    20c4:	00066000 	andeq	r6, r6, r0
    20c8:	50000100 	andpl	r0, r0, r0, lsl #2
    20cc:	00000660 	andeq	r0, r0, r0, ror #12
    20d0:	000006c4 	andeq	r0, r0, r4, asr #13
    20d4:	9f300002 	svcls	0x00300002
	...
    20e0:	000005f0 	strdeq	r0, [r0], -r0	; <UNPREDICTABLE>
    20e4:	00000628 	andeq	r0, r0, r8, lsr #12
    20e8:	28500001 	ldmdacs	r0, {r0}^
    20ec:	40000006 	andmi	r0, r0, r6
    20f0:	01000006 	tsteq	r0, r6
    20f4:	06605400 	strbteq	r5, [r0], -r0, lsl #8
    20f8:	06630000 	strbteq	r0, [r3], -r0
    20fc:	00010000 	andeq	r0, r1, r0
    2100:	00066350 	andeq	r6, r6, r0, asr r3
    2104:	00069c00 	andeq	r9, r6, r0, lsl #24
    2108:	54000100 	strpl	r0, [r0], #-256	; 0x100
    210c:	0000069c 	muleq	r0, ip, r6
    2110:	000006b4 			; <UNDEFINED> instruction: 0x000006b4
    2114:	b4500001 	ldrblt	r0, [r0], #-1
    2118:	c4000006 	strgt	r0, [r0], #-6
    211c:	01000006 	tsteq	r0, r6
    2120:	00005400 	andeq	r5, r0, r0, lsl #8
    2124:	00000000 	andeq	r0, r0, r0
    2128:	06c40000 	strbeq	r0, [r4], r0
    212c:	06d70000 	ldrbeq	r0, [r7], r0
    2130:	00010000 	andeq	r0, r1, r0
    2134:	0006d750 	andeq	sp, r6, r0, asr r7
    2138:	00072800 	andeq	r2, r7, r0, lsl #16
    213c:	56000100 	strpl	r0, [r0], -r0, lsl #2
    2140:	00000728 	andeq	r0, r0, r8, lsr #14
    2144:	0000072b 	andeq	r0, r0, fp, lsr #14
    2148:	2c700002 	ldclcs	0, cr0, [r0], #-8
    214c:	0000072b 	andeq	r0, r0, fp, lsr #14
    2150:	0000072c 	andeq	r0, r0, ip, lsr #14
    2154:	01f30004 	mvnseq	r0, r4
    2158:	072c9f50 			; <UNDEFINED> instruction: 0x072c9f50
    215c:	07340000 	ldreq	r0, [r4, -r0]!
    2160:	00010000 	andeq	r0, r1, r0
    2164:	00000056 	andeq	r0, r0, r6, asr r0
    2168:	00000000 	andeq	r0, r0, r0
    216c:	0006c400 	andeq	ip, r6, r0, lsl #8
    2170:	0006d700 	andeq	sp, r6, r0, lsl #14
    2174:	51000100 	mrspl	r0, (UNDEF: 16)
    2178:	000006d7 	ldrdeq	r0, [r0], -r7
    217c:	00000728 	andeq	r0, r0, r8, lsr #14
    2180:	28540001 	ldmdacs	r4, {r0}^
    2184:	2b000007 	blcs	21a8 <_back_addr-0x14fde58>
    2188:	02000007 	andeq	r0, r0, #7
    218c:	2b347000 	blcs	d1e194 <_back_addr-0x7e1e6c>
    2190:	2c000007 	stccs	0, cr0, [r0], {7}
    2194:	04000007 	streq	r0, [r0], #-7
    2198:	5101f300 	mrspl	pc, SP_irq	; <UNPREDICTABLE>
    219c:	00072c9f 	muleq	r7, pc, ip	; <UNPREDICTABLE>
    21a0:	00073400 	andeq	r3, r7, r0, lsl #8
    21a4:	54000100 	strpl	r0, [r0], #-256	; 0x100
	...
    21b0:	000006c4 	andeq	r0, r0, r4, asr #13
    21b4:	000006d7 	ldrdeq	r0, [r0], -r7
    21b8:	d7520001 	ldrble	r0, [r2, -r1]
    21bc:	28000006 	stmdacs	r0, {r1, r2}
    21c0:	01000007 	tsteq	r0, r7
    21c4:	07285500 	streq	r5, [r8, -r0, lsl #10]!
    21c8:	072b0000 	streq	r0, [fp, -r0]!
    21cc:	00020000 	andeq	r0, r2, r0
    21d0:	072b3070 			; <UNDEFINED> instruction: 0x072b3070
    21d4:	072c0000 	streq	r0, [ip, -r0]!
    21d8:	00040000 	andeq	r0, r4, r0
    21dc:	9f5201f3 	svcls	0x005201f3
    21e0:	0000072c 	andeq	r0, r0, ip, lsr #14
    21e4:	00000734 	andeq	r0, r0, r4, lsr r7
    21e8:	00550001 	subseq	r0, r5, r1
    21ec:	00000000 	andeq	r0, r0, r0
    21f0:	d8000000 	stmdale	r0, {}	; <UNPREDICTABLE>
    21f4:	2b000006 	blcs	2214 <_back_addr-0x14fddec>
    21f8:	01000007 	tsteq	r0, r7
    21fc:	072c5000 	streq	r5, [ip, -r0]!
    2200:	07300000 	ldreq	r0, [r0, -r0]!
    2204:	00010000 	andeq	r0, r1, r0
    2208:	00073050 	andeq	r3, r7, r0, asr r0
    220c:	00073400 	andeq	r3, r7, r0, lsl #8
    2210:	53000100 	movwpl	r0, #256	; 0x100
	...
    221c:	00000734 	andeq	r0, r0, r4, lsr r7
    2220:	00000763 	andeq	r0, r0, r3, ror #14
    2224:	63500001 	cmpvs	r0, #1
    2228:	ac000007 	stcge	0, cr0, [r0], {7}
    222c:	01000007 	tsteq	r0, r7
    2230:	07ac5800 	streq	r5, [ip, r0, lsl #16]!
    2234:	08840000 	stmeq	r4, {}	; <UNPREDICTABLE>
    2238:	00040000 	andeq	r0, r4, r0
    223c:	9f5001f3 	svcls	0x005001f3
    2240:	00000884 	andeq	r0, r0, r4, lsl #17
    2244:	00000888 	andeq	r0, r0, r8, lsl #17
    2248:	88500001 	ldmdahi	r0, {r0}^
    224c:	8c000008 	stchi	0, cr0, [r0], {8}
    2250:	04000008 	streq	r0, [r0], #-8
    2254:	5001f300 	andpl	pc, r1, r0, lsl #6
    2258:	0000009f 	muleq	r0, pc, r0	; <UNPREDICTABLE>
    225c:	00000000 	andeq	r0, r0, r0
    2260:	00073400 	andeq	r3, r7, r0, lsl #8
    2264:	00076300 	andeq	r6, r7, r0, lsl #6
    2268:	51000100 	mrspl	r0, (UNDEF: 16)
    226c:	00000763 	andeq	r0, r0, r3, ror #14
    2270:	00000884 	andeq	r0, r0, r4, lsl #17
    2274:	84560001 	ldrbhi	r0, [r6], #-1
    2278:	8c000008 	stchi	0, cr0, [r0], {8}
    227c:	01000008 	tsteq	r0, r8
    2280:	00005100 	andeq	r5, r0, r0, lsl #2
    2284:	00000000 	andeq	r0, r0, r0
    2288:	07340000 	ldreq	r0, [r4, -r0]!
    228c:	07630000 	strbeq	r0, [r3, -r0]!
    2290:	00010000 	andeq	r0, r1, r0
    2294:	00076352 	andeq	r6, r7, r2, asr r3
    2298:	00087c00 	andeq	r7, r8, r0, lsl #24
    229c:	54000100 	strpl	r0, [r0], #-256	; 0x100
    22a0:	0000087c 	andeq	r0, r0, ip, ror r8
    22a4:	00000884 	andeq	r0, r0, r4, lsl #17
    22a8:	01f30004 	mvnseq	r0, r4
    22ac:	08849f52 	stmeq	r4, {r1, r4, r6, r8, r9, sl, fp, ip, pc}
    22b0:	088c0000 	stmeq	ip, {}	; <UNPREDICTABLE>
    22b4:	00010000 	andeq	r0, r1, r0
    22b8:	00000052 	andeq	r0, r0, r2, asr r0
    22bc:	00000000 	andeq	r0, r0, r0
    22c0:	00073400 	andeq	r3, r7, r0, lsl #8
    22c4:	00076300 	andeq	r6, r7, r0, lsl #6
    22c8:	53000100 	movwpl	r0, #256	; 0x100
    22cc:	00000763 	andeq	r0, r0, r3, ror #14
    22d0:	00000884 	andeq	r0, r0, r4, lsl #17
    22d4:	84570001 	ldrbhi	r0, [r7], #-1
    22d8:	8c000008 	stchi	0, cr0, [r0], {8}
    22dc:	01000008 	tsteq	r0, r8
    22e0:	00005300 	andeq	r5, r0, r0, lsl #6
    22e4:	00000000 	andeq	r0, r0, r0
    22e8:	07640000 	strbeq	r0, [r4, -r0]!
    22ec:	07ac0000 	streq	r0, [ip, r0]!
    22f0:	00010000 	andeq	r0, r1, r0
    22f4:	0007ac50 	andeq	sl, r7, r0, asr ip
    22f8:	00087c00 	andeq	r7, r8, r0, lsl #24
    22fc:	55000100 	strpl	r0, [r0, #-256]	; 0x100
	...
    2308:	000007a4 	andeq	r0, r0, r4, lsr #15
    230c:	0000087c 	andeq	r0, r0, ip, ror r8
    2310:	00580001 	subseq	r0, r8, r1
    2314:	00000000 	andeq	r0, r0, r0
    2318:	a4000000 	strge	r0, [r0], #-0
    231c:	ac000007 	stcge	0, cr0, [r0], {7}
    2320:	02000007 	andeq	r0, r0, #7
    2324:	489f3000 	ldmmi	pc, {ip, sp}	; <UNPREDICTABLE>
    2328:	6c000008 	stcvs	0, cr0, [r0], {8}
    232c:	02000008 	andeq	r0, r0, #8
    2330:	009f3000 	addseq	r3, pc, r0
    2334:	00000000 	andeq	r0, r0, r0
    2338:	ac000000 	stcge	0, cr0, [r0], {-0}
    233c:	48000007 	stmdami	r0, {r0, r1, r2}
    2340:	01000008 	tsteq	r0, r8
    2344:	086c5400 	stmdaeq	ip!, {sl, ip, lr}^
    2348:	087c0000 	ldmdaeq	ip!, {}^	; <UNPREDICTABLE>
    234c:	00010000 	andeq	r0, r1, r0
    2350:	00000054 	andeq	r0, r0, r4, asr r0
    2354:	00000000 	andeq	r0, r0, r0
    2358:	0007ac00 	andeq	sl, r7, r0, lsl #24
    235c:	00084800 	andeq	r4, r8, r0, lsl #16
    2360:	55000100 	strpl	r0, [r0, #-256]	; 0x100
    2364:	0000086c 	andeq	r0, r0, ip, ror #16
    2368:	0000087c 	andeq	r0, r0, ip, ror r8
    236c:	00550001 	subseq	r0, r5, r1
    2370:	00000000 	andeq	r0, r0, r0
    2374:	8c000000 	stchi	0, cr0, [r0], {-0}
    2378:	af000008 	svcge	0x00000008
    237c:	01000008 	tsteq	r0, r8
    2380:	08af5000 	stmiaeq	pc!, {ip, lr}	; <UNPREDICTABLE>
    2384:	09040000 	stmdbeq	r4, {}	; <UNPREDICTABLE>
    2388:	00010000 	andeq	r0, r1, r0
    238c:	00090456 	andeq	r0, r9, r6, asr r4
    2390:	00090700 	andeq	r0, r9, r0, lsl #14
    2394:	70000200 	andvc	r0, r0, r0, lsl #4
    2398:	0009072c 	andeq	r0, r9, ip, lsr #14
    239c:	00090800 	andeq	r0, r9, r0, lsl #16
    23a0:	f3000400 	vshl.u8	d0, d0, d0
    23a4:	089f5001 	ldmeq	pc, {r0, ip, lr}	; <UNPREDICTABLE>
    23a8:	48000009 	stmdami	r0, {r0, r3}
    23ac:	01000009 	tsteq	r0, r9
    23b0:	09485600 	stmdbeq	r8, {r9, sl, ip, lr}^
    23b4:	094c0000 	stmdbeq	ip, {}^	; <UNPREDICTABLE>
    23b8:	00010000 	andeq	r0, r1, r0
    23bc:	00094c50 	andeq	r4, r9, r0, asr ip
    23c0:	00095000 	andeq	r5, r9, r0
    23c4:	f3000400 	vshl.u8	d0, d0, d0
    23c8:	509f5001 	addspl	r5, pc, r1
    23cc:	58000009 	stmdapl	r0, {r0, r3}
    23d0:	01000009 	tsteq	r0, r9
    23d4:	00005600 	andeq	r5, r0, r0, lsl #12
    23d8:	00000000 	andeq	r0, r0, r0
    23dc:	088c0000 	stmeq	ip, {}	; <UNPREDICTABLE>
    23e0:	08af0000 	stmiaeq	pc!, {}	; <UNPREDICTABLE>
    23e4:	00010000 	andeq	r0, r1, r0
    23e8:	0008af51 	andeq	sl, r8, r1, asr pc
    23ec:	00090400 	andeq	r0, r9, r0, lsl #8
    23f0:	55000100 	strpl	r0, [r0, #-256]	; 0x100
    23f4:	00000904 	andeq	r0, r0, r4, lsl #18
    23f8:	00000907 	andeq	r0, r0, r7, lsl #18
    23fc:	34700002 	ldrbtcc	r0, [r0], #-2
    2400:	00000907 	andeq	r0, r0, r7, lsl #18
    2404:	00000908 	andeq	r0, r0, r8, lsl #18
    2408:	01f30004 	mvnseq	r0, r4
    240c:	09089f51 	stmdbeq	r8, {r0, r4, r6, r8, r9, sl, fp, ip, pc}
    2410:	09480000 	stmdbeq	r8, {}^	; <UNPREDICTABLE>
    2414:	00010000 	andeq	r0, r1, r0
    2418:	00094855 	andeq	r4, r9, r5, asr r8
    241c:	00095000 	andeq	r5, r9, r0
    2420:	51000100 	mrspl	r0, (UNDEF: 16)
    2424:	00000950 	andeq	r0, r0, r0, asr r9
    2428:	00000958 	andeq	r0, r0, r8, asr r9
    242c:	00550001 	subseq	r0, r5, r1
    2430:	00000000 	andeq	r0, r0, r0
    2434:	8c000000 	stchi	0, cr0, [r0], {-0}
    2438:	af000008 	svcge	0x00000008
    243c:	01000008 	tsteq	r0, r8
    2440:	08af5200 	stmiaeq	pc!, {r9, ip, lr}	; <UNPREDICTABLE>
    2444:	09040000 	stmdbeq	r4, {}	; <UNPREDICTABLE>
    2448:	00010000 	andeq	r0, r1, r0
    244c:	00090457 	andeq	r0, r9, r7, asr r4
    2450:	00090700 	andeq	r0, r9, r0, lsl #14
    2454:	70000200 	andvc	r0, r0, r0, lsl #4
    2458:	00090730 	andeq	r0, r9, r0, lsr r7
    245c:	00090800 	andeq	r0, r9, r0, lsl #16
    2460:	f3000400 	vshl.u8	d0, d0, d0
    2464:	089f5201 	ldmeq	pc, {r0, r9, ip, lr}	; <UNPREDICTABLE>
    2468:	48000009 	stmdami	r0, {r0, r3}
    246c:	01000009 	tsteq	r0, r9
    2470:	09485700 	stmdbeq	r8, {r8, r9, sl, ip, lr}^
    2474:	09500000 	ldmdbeq	r0, {}^	; <UNPREDICTABLE>
    2478:	00010000 	andeq	r0, r1, r0
    247c:	00095052 	andeq	r5, r9, r2, asr r0
    2480:	00095800 	andeq	r5, r9, r0, lsl #16
    2484:	57000100 	strpl	r0, [r0, -r0, lsl #2]
	...
    2490:	0000088c 	andeq	r0, r0, ip, lsl #17
    2494:	000008af 	andeq	r0, r0, pc, lsr #17
    2498:	af530001 	svcge	0x00530001
    249c:	04000008 	streq	r0, [r0], #-8
    24a0:	01000009 	tsteq	r0, r9
    24a4:	09045400 	stmdbeq	r4, {sl, ip, lr}
    24a8:	09080000 	stmdbeq	r8, {}	; <UNPREDICTABLE>
    24ac:	00040000 	andeq	r0, r4, r0
    24b0:	9f5301f3 	svcls	0x005301f3
    24b4:	00000908 	andeq	r0, r0, r8, lsl #18
    24b8:	00000948 	andeq	r0, r0, r8, asr #18
    24bc:	48540001 	ldmdami	r4, {r0}^
    24c0:	50000009 	andpl	r0, r0, r9
    24c4:	01000009 	tsteq	r0, r9
    24c8:	09505300 	ldmdbeq	r0, {r8, r9, ip, lr}^
    24cc:	09580000 	ldmdbeq	r8, {}^	; <UNPREDICTABLE>
    24d0:	00010000 	andeq	r0, r1, r0
    24d4:	00000054 	andeq	r0, r0, r4, asr r0
    24d8:	00000000 	andeq	r0, r0, r0
    24dc:	0008b000 	andeq	fp, r8, r0
    24e0:	0008f800 	andeq	pc, r8, r0, lsl #16
    24e4:	50000100 	andpl	r0, r0, r0, lsl #2
    24e8:	000008f8 	strdeq	r0, [r0], -r8
    24ec:	00000907 	andeq	r0, r0, r7, lsl #18
    24f0:	085c0001 	ldmdaeq	ip, {r0}^
    24f4:	48000009 	stmdami	r0, {r0, r3}
    24f8:	01000009 	tsteq	r0, r9
    24fc:	09505000 	ldmdbeq	r0, {ip, lr}^
    2500:	09540000 	ldmdbeq	r4, {}^	; <UNPREDICTABLE>
    2504:	00010000 	andeq	r0, r1, r0
    2508:	00095450 	andeq	r5, r9, r0, asr r4
    250c:	00095800 	andeq	r5, r9, r0, lsl #16
    2510:	5c000100 	stfpls	f0, [r0], {-0}
	...
    251c:	00000958 	andeq	r0, r0, r8, asr r9
    2520:	00000973 	andeq	r0, r0, r3, ror r9
    2524:	73500001 	cmpvc	r0, #1
    2528:	3c000009 	stccc	0, cr0, [r0], {9}
    252c:	0100000a 	tsteq	r0, sl
    2530:	0a3c5400 	beq	f17538 <_back_addr-0x5e8ac8>
    2534:	0abc0000 	beq	fef0253c <__bss_end__+0xfd9ee9fc>
    2538:	00040000 	andeq	r0, r4, r0
    253c:	9f5001f3 	svcls	0x005001f3
    2540:	00000abc 			; <UNDEFINED> instruction: 0x00000abc
    2544:	00000ad4 	ldrdeq	r0, [r0], -r4
    2548:	00540001 	subseq	r0, r4, r1
    254c:	00000000 	andeq	r0, r0, r0
    2550:	58000000 	stmdapl	r0, {}	; <UNPREDICTABLE>
    2554:	73000009 	movwvc	r0, #9
    2558:	01000009 	tsteq	r0, r9
    255c:	09735100 	ldmdbeq	r3!, {r8, ip, lr}^
    2560:	0a100000 	beq	402568 <_back_addr-0x10fda98>
    2564:	00010000 	andeq	r0, r1, r0
    2568:	000a1055 	andeq	r1, sl, r5, asr r0
    256c:	000abc00 	andeq	fp, sl, r0, lsl #24
    2570:	f3000400 	vshl.u8	d0, d0, d0
    2574:	bc9f5101 	ldflts	f5, [pc], {1}
    2578:	d400000a 	strle	r0, [r0], #-10
    257c:	0100000a 	tsteq	r0, sl
    2580:	00005500 	andeq	r5, r0, r0, lsl #10
    2584:	00000000 	andeq	r0, r0, r0
    2588:	09580000 	ldmdbeq	r8, {}^	; <UNPREDICTABLE>
    258c:	09730000 	ldmdbeq	r3!, {}^	; <UNPREDICTABLE>
    2590:	00010000 	andeq	r0, r1, r0
    2594:	00097352 	andeq	r7, r9, r2, asr r3
    2598:	000ad400 	andeq	sp, sl, r0, lsl #8
    259c:	56000100 	strpl	r0, [r0], -r0, lsl #2
	...
    25a8:	00000958 	andeq	r0, r0, r8, asr r9
    25ac:	00000a44 	andeq	r0, r0, r4, asr #20
    25b0:	9f300002 	svcls	0x00300002
    25b4:	00000a44 	andeq	r0, r0, r4, asr #20
    25b8:	00000a48 	andeq	r0, r0, r8, asr #20
    25bc:	ea0a0007 	b	2825e0 <_back_addr-0x127da20>
    25c0:	1c007403 	cfstrsne	mvf7, [r0], {3}
    25c4:	000a489f 	muleq	sl, pc, r8	; <UNPREDICTABLE>
    25c8:	000a4c00 	andeq	r4, sl, r0, lsl #24
    25cc:	0a000700 	beq	41d4 <_back_addr-0x14fbe2c>
    25d0:	007403e9 	rsbseq	r0, r4, r9, ror #7
    25d4:	0a4c9f1c 	beq	132a24c <_back_addr-0x1d5db4>
    25d8:	0a600000 	beq	18025e0 <__bss_end__+0x2eeaa0>
    25dc:	00070000 	andeq	r0, r7, r0
    25e0:	7403ea0a 	strvc	lr, [r3], #-2570	; 0xa0a
    25e4:	a49f1c00 	ldrge	r1, [pc], #3072	; 25ec <_back_addr-0x14fda14>
    25e8:	bc00000a 	stclt	0, cr0, [r0], {10}
    25ec:	0700000a 	streq	r0, [r0, -sl]
    25f0:	03e90a00 	mvneq	r0, #0, 20
    25f4:	9f1c0074 	svcls	0x001c0074
    25f8:	00000abc 			; <UNDEFINED> instruction: 0x00000abc
    25fc:	00000ad4 	ldrdeq	r0, [r0], -r4
    2600:	9f300002 	svcls	0x00300002
	...
    260c:	00000a20 	andeq	r0, r0, r0, lsr #20
    2610:	00000a24 	andeq	r0, r0, r4, lsr #20
    2614:	80740025 	rsbshi	r0, r4, r5, lsr #32
    2618:	24480604 	strbcs	r0, [r8], #-1540	; 0x604
    261c:	06048074 			; <UNDEFINED> instruction: 0x06048074
    2620:	74212548 	strtvc	r2, [r1], #-1352	; 0x548
    2624:	08060480 	stmdaeq	r6, {r7, sl}
    2628:	1a2440ff 	bne	912a2c <_back_addr-0xbed5d4>
    262c:	74212538 	strtvc	r2, [r1], #-1336	; 0x538
    2630:	0a060480 	beq	183838 <_back_addr-0x137c7c8>
    2634:	381aff00 	ldmdacc	sl, {r8, r9, sl, fp, ip, sp, lr, pc}
    2638:	009f2124 	addseq	r2, pc, r4, lsr #2
    263c:	00000000 	andeq	r0, r0, r0
    2640:	20000000 	andcs	r0, r0, r0
    2644:	bc00000a 	stclt	0, cr0, [r0], {10}
    2648:	0600000a 	streq	r0, [r0], -sl
    264c:	84049e00 	strhi	r9, [r4], #-3584	; 0xe00
    2650:	009804cf 	addseq	r0, r8, pc, asr #9
    2654:	00000000 	andeq	r0, r0, r0
    2658:	24000000 	strcs	r0, [r0], #-0
    265c:	bc00000a 	stclt	0, cr0, [r0], {10}
    2660:	0600000a 	streq	r0, [r0], -sl
    2664:	88049e00 	stmdahi	r4, {r9, sl, fp, ip, pc}
    2668:	009804cf 	addseq	r0, r8, pc, asr #9
    266c:	00000000 	andeq	r0, r0, r0
    2670:	2c000000 	stccs	0, cr0, [r0], {-0}
    2674:	3400000a 	strcc	r0, [r0], #-10
    2678:	0100000a 	tsteq	r0, sl
    267c:	0a345300 	beq	d17284 <_back_addr-0x7e8d7c>
    2680:	0a440000 	beq	1102688 <_back_addr-0x3fd978>
    2684:	00030000 	andeq	r0, r3, r0
    2688:	001f8875 	andseq	r8, pc, r5, ror r8	; <UNPREDICTABLE>
    268c:	00000000 	andeq	r0, r0, r0
    2690:	2c000000 	stccs	0, cr0, [r0], {-0}
    2694:	bc00000a 	stclt	0, cr0, [r0], {10}
    2698:	0600000a 	streq	r0, [r0], -sl
    269c:	88049e00 	stmdahi	r4, {r9, sl, fp, ip, pc}
    26a0:	009804cf 	addseq	r0, r8, pc, asr #9
    26a4:	00000000 	andeq	r0, r0, r0
    26a8:	30000000 	andcc	r0, r0, r0
    26ac:	bc00000a 	stclt	0, cr0, [r0], {10}
    26b0:	0600000a 	streq	r0, [r0], -sl
    26b4:	0c049e00 	stceq	14, cr9, [r4], {-0}
    26b8:	009804cf 	addseq	r0, r8, pc, asr #9
    26bc:	00000000 	andeq	r0, r0, r0
    26c0:	d4000000 	strle	r0, [r0], #-0
    26c4:	e400000a 	str	r0, [r0], #-10
    26c8:	0100000a 	tsteq	r0, sl
    26cc:	0ae45000 	beq	ff9166d4 <__bss_end__+0xfe402b94>
    26d0:	0ae80000 	beq	ffa026d8 <__bss_end__+0xfe4eeb98>
    26d4:	00040000 	andeq	r0, r4, r0
    26d8:	9f5001f3 	svcls	0x005001f3
    26dc:	00000ae8 	andeq	r0, r0, r8, ror #21
    26e0:	00000aff 	strdeq	r0, [r0], -pc	; <UNPREDICTABLE>
    26e4:	ff500001 			; <UNDEFINED> instruction: 0xff500001
    26e8:	6c00000a 	stcvs	0, cr0, [r0], {10}
    26ec:	0100000b 	tsteq	r0, fp
    26f0:	0b6c5600 	bleq	1b17ef8 <__bss_end__+0x6043b8>
    26f4:	0b6f0000 	bleq	1bc26fc <__bss_end__+0x6aebbc>
    26f8:	00020000 	andeq	r0, r2, r0
    26fc:	0b6f2c70 	bleq	1bcd8c4 <__bss_end__+0x6b9d84>
    2700:	0b700000 	bleq	1c02708 <__bss_end__+0x6eebc8>
    2704:	00040000 	andeq	r0, r4, r0
    2708:	9f5001f3 	svcls	0x005001f3
    270c:	00000b70 	andeq	r0, r0, r0, ror fp
    2710:	00000bdc 	ldrdeq	r0, [r0], -ip
    2714:	00560001 	subseq	r0, r6, r1
    2718:	00000000 	andeq	r0, r0, r0
    271c:	d4000000 	strle	r0, [r0], #-0
    2720:	ff00000a 			; <UNDEFINED> instruction: 0xff00000a
    2724:	0100000a 	tsteq	r0, sl
    2728:	0aff5100 	beq	fffd6b30 <__bss_end__+0xfeac2ff0>
    272c:	0b6c0000 	bleq	1b02734 <__bss_end__+0x5eebf4>
    2730:	00010000 	andeq	r0, r1, r0
    2734:	000b6c55 	andeq	r6, fp, r5, asr ip
    2738:	000b6f00 	andeq	r6, fp, r0, lsl #30
    273c:	70000200 	andvc	r0, r0, r0, lsl #4
    2740:	000b6f34 	andeq	r6, fp, r4, lsr pc
    2744:	000b7000 	andeq	r7, fp, r0
    2748:	f3000400 	vshl.u8	d0, d0, d0
    274c:	709f5101 	addsvc	r5, pc, r1, lsl #2
    2750:	dc00000b 	stcle	0, cr0, [r0], {11}
    2754:	0100000b 	tsteq	r0, fp
    2758:	00005500 	andeq	r5, r0, r0, lsl #10
    275c:	00000000 	andeq	r0, r0, r0
    2760:	0ad40000 	beq	ff502768 <__bss_end__+0xfdfeec28>
    2764:	0aff0000 	beq	fffc276c <__bss_end__+0xfeaaec2c>
    2768:	00010000 	andeq	r0, r1, r0
    276c:	000aff52 	andeq	pc, sl, r2, asr pc	; <UNPREDICTABLE>
    2770:	000b6c00 	andeq	r6, fp, r0, lsl #24
    2774:	57000100 	strpl	r0, [r0, -r0, lsl #2]
    2778:	00000b6c 	andeq	r0, r0, ip, ror #22
    277c:	00000b6f 	andeq	r0, r0, pc, ror #22
    2780:	30700002 	rsbscc	r0, r0, r2
    2784:	00000b6f 	andeq	r0, r0, pc, ror #22
    2788:	00000b70 	andeq	r0, r0, r0, ror fp
    278c:	01f30004 	mvnseq	r0, r4
    2790:	0b709f52 	bleq	1c2a4e0 <__bss_end__+0x7169a0>
    2794:	0bdc0000 	bleq	ff70279c <__bss_end__+0xfe1eec5c>
    2798:	00010000 	andeq	r0, r1, r0
    279c:	00000057 	andeq	r0, r0, r7, asr r0
    27a0:	00000000 	andeq	r0, r0, r0
    27a4:	000ad400 	andeq	sp, sl, r0, lsl #8
    27a8:	000aff00 	andeq	pc, sl, r0, lsl #30
    27ac:	53000100 	movwpl	r0, #256	; 0x100
    27b0:	00000aff 	strdeq	r0, [r0], -pc	; <UNPREDICTABLE>
    27b4:	00000b6c 	andeq	r0, r0, ip, ror #22
    27b8:	6c540001 	mrrcvs	0, 0, r0, r4, cr1
    27bc:	7000000b 	andvc	r0, r0, fp
    27c0:	0400000b 	streq	r0, [r0], #-11
    27c4:	5301f300 	movwpl	pc, #4864	; 0x1300	; <UNPREDICTABLE>
    27c8:	000b709f 	muleq	fp, pc, r0	; <UNPREDICTABLE>
    27cc:	000bdc00 	andeq	sp, fp, r0, lsl #24
    27d0:	54000100 	strpl	r0, [r0], #-256	; 0x100
	...
    27dc:	00000b00 	andeq	r0, r0, r0, lsl #22
    27e0:	00000b60 	andeq	r0, r0, r0, ror #22
    27e4:	60500001 	subsvs	r0, r0, r1
    27e8:	6f00000b 	svcvs	0x0000000b
    27ec:	0100000b 	tsteq	r0, fp
    27f0:	0b705c00 	bleq	1c197f8 <__bss_end__+0x705cb8>
    27f4:	0b740000 	bleq	1d027fc <__bss_end__+0x7eecbc>
    27f8:	00010000 	andeq	r0, r1, r0
    27fc:	000b7450 	andeq	r7, fp, r0, asr r4
    2800:	000b7800 	andeq	r7, fp, r0, lsl #16
    2804:	5c000100 	stfpls	f0, [r0], {-0}
    2808:	00000b78 	andeq	r0, r0, r8, ror fp
    280c:	00000bdc 	ldrdeq	r0, [r0], -ip
    2810:	00500001 	subseq	r0, r0, r1
    2814:	00000000 	andeq	r0, r0, r0
    2818:	dc000000 	stcle	0, cr0, [r0], {-0}
    281c:	e800000b 	stmda	r0, {r0, r1, r3}
    2820:	0100000b 	tsteq	r0, fp
    2824:	0be85000 	bleq	ffa1682c <__bss_end__+0xfe502cec>
    2828:	0c040000 	stceq	0, cr0, [r4], {-0}
    282c:	00040000 	andeq	r0, r4, r0
    2830:	9f7f807c 	svcls	0x007f807c
	...
    283c:	00000bdc 	ldrdeq	r0, [r0], -ip
    2840:	00000be8 	andeq	r0, r0, r8, ror #23
    2844:	9f300002 	svcls	0x00300002
    2848:	00000be8 	andeq	r0, r0, r8, ror #23
    284c:	00000bf0 	strdeq	r0, [r0], -r0	; <UNPREDICTABLE>
    2850:	00720009 	rsbseq	r0, r2, r9
    2854:	231c007c 	tstcs	ip, #124	; 0x7c
    2858:	f09f0181 			; <UNDEFINED> instruction: 0xf09f0181
    285c:	fc00000b 	stc2	0, cr0, [r0], {11}
    2860:	0900000b 	stmdbeq	r0, {r0, r1, r3}
    2864:	7c007200 	sfmvc	f7, 4, [r0], {-0}
    2868:	80231c00 	eorhi	r1, r3, r0, lsl #24
    286c:	0bfc9f01 	bleq	fff2a478 <__bss_end__+0xfea16938>
    2870:	0c040000 	stceq	0, cr0, [r4], {-0}
    2874:	00090000 	andeq	r0, r9, r0
    2878:	007c0072 	rsbseq	r0, ip, r2, ror r0
    287c:	0181231c 	orreq	r2, r1, ip, lsl r3
    2880:	0000009f 	muleq	r0, pc, r0	; <UNPREDICTABLE>
	...
    288c:	00001800 	andeq	r1, r0, r0, lsl #16
    2890:	50000100 	andpl	r0, r0, r0, lsl #2
    2894:	00000018 	andeq	r0, r0, r8, lsl r0
    2898:	000001bc 			; <UNDEFINED> instruction: 0x000001bc
    289c:	01f30004 	mvnseq	r0, r4
    28a0:	00009f50 	andeq	r9, r0, r0, asr pc
	...
    28ac:	00140000 	andseq	r0, r4, r0
    28b0:	00010000 	andeq	r0, r1, r0
    28b4:	00001451 	andeq	r1, r0, r1, asr r4
    28b8:	0001bc00 	andeq	fp, r1, r0, lsl #24
    28bc:	56000100 	strpl	r0, [r0], -r0, lsl #2
	...
    28cc:	00000027 	andeq	r0, r0, r7, lsr #32
    28d0:	27520001 	ldrbcs	r0, [r2, -r1]
    28d4:	bc000000 	stclt	0, cr0, [r0], {-0}
    28d8:	01000001 	tsteq	r0, r1
    28dc:	00005500 	andeq	r5, r0, r0, lsl #10
	...
    28e8:	00d40000 	sbcseq	r0, r4, r0
    28ec:	00020000 	andeq	r0, r2, r0
    28f0:	01589f30 	cmpeq	r8, r0, lsr pc
    28f4:	01ac0000 			; <UNDEFINED> instruction: 0x01ac0000
    28f8:	00020000 	andeq	r0, r2, r0
    28fc:	00009f30 	andeq	r9, r0, r0, lsr pc
    2900:	00000000 	andeq	r0, r0, r0
    2904:	01bc0000 			; <UNDEFINED> instruction: 0x01bc0000
    2908:	01dc0000 	bicseq	r0, ip, r0
    290c:	00010000 	andeq	r0, r1, r0
    2910:	0001dc50 	andeq	sp, r1, r0, asr ip
    2914:	0002b000 	andeq	fp, r2, r0
    2918:	56000100 	strpl	r0, [r0], -r0, lsl #2
	...
    2924:	000001bc 			; <UNDEFINED> instruction: 0x000001bc
    2928:	000001dc 	ldrdeq	r0, [r0], -ip
    292c:	dc510001 	mrrcle	0, 0, r0, r1, cr1
    2930:	b0000001 	andlt	r0, r0, r1
    2934:	01000002 	tsteq	r0, r2
    2938:	00005700 	andeq	r5, r0, r0, lsl #14
    293c:	00000000 	andeq	r0, r0, r0
    2940:	01bc0000 			; <UNDEFINED> instruction: 0x01bc0000
    2944:	01dc0000 	bicseq	r0, ip, r0
    2948:	00010000 	andeq	r0, r1, r0
    294c:	0001dc52 	andeq	sp, r1, r2, asr ip
    2950:	0002b000 	andeq	fp, r2, r0
    2954:	55000100 	strpl	r0, [r0, #-256]	; 0x100
	...
    2960:	000001bc 			; <UNDEFINED> instruction: 0x000001bc
    2964:	000001dc 	ldrdeq	r0, [r0], -ip
    2968:	9f300002 	svcls	0x00300002
    296c:	00000234 	andeq	r0, r0, r4, lsr r2
    2970:	0000025c 	andeq	r0, r0, ip, asr r2
    2974:	9f300002 	svcls	0x00300002
	...
    2980:	000002b0 			; <UNDEFINED> instruction: 0x000002b0
    2984:	000002f0 	strdeq	r0, [r0], -r0	; <UNPREDICTABLE>
    2988:	f0500001 			; <UNDEFINED> instruction: 0xf0500001
    298c:	c0000002 	andgt	r0, r0, r2
    2990:	01000003 	tsteq	r0, r3
    2994:	03c05400 	biceq	r5, r0, #0, 8
    2998:	03c80000 	biceq	r0, r8, #0
    299c:	00040000 	andeq	r0, r4, r0
    29a0:	9f5001f3 	svcls	0x005001f3
    29a4:	000003c8 	andeq	r0, r0, r8, asr #7
    29a8:	000003e0 	andeq	r0, r0, r0, ror #7
    29ac:	e0540001 	subs	r0, r4, r1
    29b0:	0c000003 	stceq	0, cr0, [r0], {3}
    29b4:	04000006 	streq	r0, [r0], #-6
    29b8:	5001f300 	andpl	pc, r1, r0, lsl #6
    29bc:	00060c9f 	muleq	r6, pc, ip	; <UNPREDICTABLE>
    29c0:	00064000 	andeq	r4, r6, r0
    29c4:	54000100 	strpl	r0, [r0], #-256	; 0x100
    29c8:	00000640 	andeq	r0, r0, r0, asr #12
    29cc:	00000934 	andeq	r0, r0, r4, lsr r9
    29d0:	01f30004 	mvnseq	r0, r4
    29d4:	00009f50 	andeq	r9, r0, r0, asr pc
    29d8:	00000000 	andeq	r0, r0, r0
    29dc:	02b00000 	adcseq	r0, r0, #0
    29e0:	03080000 	movweq	r0, #32768	; 0x8000
    29e4:	00010000 	andeq	r0, r1, r0
    29e8:	00030851 	andeq	r0, r3, r1, asr r8
    29ec:	00093400 	andeq	r3, r9, r0, lsl #8
    29f0:	59000100 	stmdbpl	r0, {r8}
	...
    29fc:	000002b0 			; <UNDEFINED> instruction: 0x000002b0
    2a00:	0000030c 	andeq	r0, r0, ip, lsl #6
    2a04:	0c520001 	mrrceq	0, 0, r0, r2, cr1
    2a08:	34000003 	strcc	r0, [r0], #-3
    2a0c:	01000009 	tsteq	r0, r9
    2a10:	00005a00 	andeq	r5, r0, r0, lsl #20
    2a14:	00000000 	andeq	r0, r0, r0
    2a18:	02b00000 	adcseq	r0, r0, #0
    2a1c:	03140000 	tsteq	r4, #0
    2a20:	00010000 	andeq	r0, r1, r0
    2a24:	00031453 	andeq	r1, r3, r3, asr r4
    2a28:	00093400 	andeq	r3, r9, r0, lsl #8
    2a2c:	5b000100 	blpl	2e34 <_back_addr-0x14fd1cc>
	...
    2a38:	000002b0 			; <UNDEFINED> instruction: 0x000002b0
    2a3c:	000003c0 	andeq	r0, r0, r0, asr #7
    2a40:	04910002 	ldreq	r0, [r1], #2
    2a44:	000003c8 	andeq	r0, r0, r8, asr #7
    2a48:	000003e0 	andeq	r0, r0, r0, ror #7
    2a4c:	04910002 	ldreq	r0, [r1], #2
    2a50:	000003e0 	andeq	r0, r0, r0, ror #7
    2a54:	0000060c 	andeq	r0, r0, ip, lsl #12
    2a58:	0c540001 	mrrceq	0, 0, r0, r4, cr1
    2a5c:	44000006 	strmi	r0, [r0], #-6
    2a60:	02000006 	andeq	r0, r0, #6
    2a64:	44049100 	strmi	r9, [r4], #-256	; 0x100
    2a68:	28000006 	stmdacs	r0, {r1, r2}
    2a6c:	01000009 	tsteq	r0, r9
    2a70:	09285400 	stmdbeq	r8!, {sl, ip, lr}
    2a74:	09340000 	ldmdbeq	r4!, {}	; <UNPREDICTABLE>
    2a78:	00070000 	andeq	r0, r7, r0
    2a7c:	09067c91 	stmdbeq	r6, {r0, r4, r7, sl, fp, ip, sp, lr}
    2a80:	009f1af0 			; <UNDEFINED> instruction: 0x009f1af0
    2a84:	00000000 	andeq	r0, r0, r0
    2a88:	b0000000 	andlt	r0, r0, r0
    2a8c:	c0000002 	andgt	r0, r0, r2
    2a90:	02000003 	andeq	r0, r0, #3
    2a94:	c89f3100 	ldmgt	pc, {r8, ip, sp}	; <UNPREDICTABLE>
    2a98:	fc000003 	stc2	0, cr0, [r0], {3}
    2a9c:	02000003 	andeq	r0, r0, #3
    2aa0:	f49f3100 			; <UNDEFINED> instruction: 0xf49f3100
    2aa4:	f7000005 			; <UNDEFINED> instruction: 0xf7000005
    2aa8:	01000005 	tsteq	r0, r5
    2aac:	05f75000 	ldrbeq	r5, [r7, #0]!
    2ab0:	060c0000 	streq	r0, [ip], -r0
    2ab4:	00010000 	andeq	r0, r1, r0
    2ab8:	00060c56 	andeq	r0, r6, r6, asr ip
    2abc:	0006d800 	andeq	sp, r6, r0, lsl #16
    2ac0:	31000200 	mrscc	r0, R8_usr
    2ac4:	0008189f 	muleq	r8, pc, r8	; <UNPREDICTABLE>
    2ac8:	00082000 	andeq	r2, r8, r0
    2acc:	50000100 	andpl	r0, r0, r0, lsl #2
    2ad0:	00000820 	andeq	r0, r0, r0, lsr #16
    2ad4:	00000834 	andeq	r0, r0, r4, lsr r8
    2ad8:	34570001 	ldrbcc	r0, [r7], #-1
    2adc:	48000008 	stmdami	r0, {r3}
    2ae0:	01000008 	tsteq	r0, r8
    2ae4:	08785600 	ldmdaeq	r8!, {r9, sl, ip, lr}^
    2ae8:	087b0000 	ldmdaeq	fp!, {}^	; <UNPREDICTABLE>
    2aec:	00010000 	andeq	r0, r1, r0
    2af0:	00087b50 	andeq	r7, r8, r0, asr fp
    2af4:	00089800 	andeq	r9, r8, r0, lsl #16
    2af8:	56000100 	strpl	r0, [r0], -r0, lsl #2
    2afc:	000008c8 	andeq	r0, r0, r8, asr #17
    2b00:	000008cb 	andeq	r0, r0, fp, asr #17
    2b04:	cb500001 	blgt	1402b10 <_back_addr-0xfd4f0>
    2b08:	28000008 	stmdacs	r0, {r3}
    2b0c:	01000009 	tsteq	r0, r9
    2b10:	09285500 	stmdbeq	r8!, {r8, sl, ip, lr}
    2b14:	092b0000 	stmdbeq	fp!, {}	; <UNPREDICTABLE>
    2b18:	00010000 	andeq	r0, r1, r0
    2b1c:	00092b50 	andeq	r2, r9, r0, asr fp
    2b20:	00093400 	andeq	r3, r9, r0, lsl #8
    2b24:	54000100 	strpl	r0, [r0], #-256	; 0x100
	...
    2b30:	00000318 	andeq	r0, r0, r8, lsl r3
    2b34:	00000344 	andeq	r0, r0, r4, asr #6
    2b38:	9f300002 	svcls	0x00300002
    2b3c:	00000344 	andeq	r0, r0, r4, asr #6
    2b40:	000003c0 	andeq	r0, r0, r0, asr #7
    2b44:	c8550001 	ldmdagt	r5, {r0}^
    2b48:	0c000003 	stceq	0, cr0, [r0], {3}
    2b4c:	01000006 	tsteq	r0, r6
    2b50:	060c5500 	streq	r5, [ip], -r0, lsl #10
    2b54:	062c0000 	strteq	r0, [ip], -r0
    2b58:	00010000 	andeq	r0, r1, r0
    2b5c:	00062c59 	andeq	r2, r6, r9, asr ip
    2b60:	0008c800 	andeq	ip, r8, r0, lsl #16
    2b64:	55000100 	strpl	r0, [r0, #-256]	; 0x100
	...
    2b70:	00000934 	andeq	r0, r0, r4, lsr r9
    2b74:	00000b50 	andeq	r0, r0, r0, asr fp
    2b78:	9f300002 	svcls	0x00300002
    2b7c:	00000b50 	andeq	r0, r0, r0, asr fp
    2b80:	00000b94 	muleq	r0, r4, fp
    2b84:	74350005 	ldrtvc	r0, [r5], #-5
    2b88:	949f1c00 	ldrls	r1, [pc], #3072	; 2b90 <_back_addr-0x14fd470>
    2b8c:	9800000b 	stmdals	r0, {r0, r1, r3}
    2b90:	0500000b 	streq	r0, [r0, #-11]
    2b94:	00743600 	rsbseq	r3, r4, r0, lsl #12
    2b98:	0b989f1c 	bleq	fe62a810 <__bss_end__+0xfd116cd0>
    2b9c:	0ba80000 	bleq	fea02ba4 <__bss_end__+0xfd4ef064>
    2ba0:	00050000 	andeq	r0, r5, r0
    2ba4:	1c007435 	cfstrsne	mvf7, [r0], {53}	; 0x35
    2ba8:	000be89f 	muleq	fp, pc, r8	; <UNPREDICTABLE>
    2bac:	000bf800 	andeq	pc, fp, r0, lsl #16
    2bb0:	35000500 	strcc	r0, [r0, #-1280]	; 0x500
    2bb4:	9f1c0074 	svcls	0x001c0074
	...
    2bc4:	0000000c 	andeq	r0, r0, ip
    2bc8:	0c500001 	mrrceq	0, 0, r0, r0, cr1	; <UNPREDICTABLE>
    2bcc:	10000000 	andne	r0, r0, r0
    2bd0:	04000000 	streq	r0, [r0], #-0
    2bd4:	5001f300 	andpl	pc, r1, r0, lsl #6
    2bd8:	0000109f 	muleq	r0, pc, r0	; <UNPREDICTABLE>
    2bdc:	00002c00 	andeq	r2, r0, r0, lsl #24
    2be0:	50000100 	andpl	r0, r0, r0, lsl #2
    2be4:	0000002c 	andeq	r0, r0, ip, lsr #32
    2be8:	00000048 	andeq	r0, r0, r8, asr #32
    2bec:	7f700003 	svcvc	0x00700003
    2bf0:	0000489f 	muleq	r0, pc, r8	; <UNPREDICTABLE>
    2bf4:	00005800 	andeq	r5, r0, r0, lsl #16
    2bf8:	f3000400 	vshl.u8	d0, d0, d0
    2bfc:	009f5001 	addseq	r5, pc, r1
    2c00:	00000000 	andeq	r0, r0, r0
    2c04:	10000000 	andne	r0, r0, r0
    2c08:	2c000000 	stccs	0, cr0, [r0], {-0}
    2c0c:	01000000 	mrseq	r0, (UNDEF: 0)
    2c10:	002c5000 	eoreq	r5, ip, r0
    2c14:	00480000 	subeq	r0, r8, r0
    2c18:	00030000 	andeq	r0, r3, r0
    2c1c:	489f7f70 	ldmmi	pc, {r4, r5, r6, r8, r9, sl, fp, ip, sp, lr}	; <UNPREDICTABLE>
    2c20:	58000000 	stmdapl	r0, {}	; <UNPREDICTABLE>
    2c24:	04000000 	streq	r0, [r0], #-0
    2c28:	5001f300 	andpl	pc, r1, r0, lsl #6
    2c2c:	0000009f 	muleq	r0, pc, r0	; <UNPREDICTABLE>
    2c30:	00000000 	andeq	r0, r0, r0
    2c34:	00005800 	andeq	r5, r0, r0, lsl #16
    2c38:	00007000 	andeq	r7, r0, r0
    2c3c:	50000100 	andpl	r0, r0, r0, lsl #2
    2c40:	00000070 	andeq	r0, r0, r0, ror r0
    2c44:	00000084 	andeq	r0, r0, r4, lsl #1
    2c48:	01f30004 	mvnseq	r0, r4
    2c4c:	00009f50 	andeq	r9, r0, r0, asr pc
    2c50:	00000000 	andeq	r0, r0, r0
    2c54:	00840000 	addeq	r0, r4, r0
    2c58:	00900000 	addseq	r0, r0, r0
    2c5c:	00010000 	andeq	r0, r1, r0
    2c60:	00009050 	andeq	r9, r0, r0, asr r0
    2c64:	00009400 	andeq	r9, r0, r0, lsl #8
    2c68:	f3000400 	vshl.u8	d0, d0, d0
    2c6c:	949f5001 	ldrls	r5, [pc], #1	; 2c74 <_back_addr-0x14fd38c>
    2c70:	a0000000 	andge	r0, r0, r0
    2c74:	01000000 	mrseq	r0, (UNDEF: 0)
    2c78:	00a05000 	adceq	r5, r0, r0
    2c7c:	00b40000 	adcseq	r0, r4, r0
    2c80:	00040000 	andeq	r0, r4, r0
    2c84:	9f5001f3 	svcls	0x005001f3
	...
    2c90:	00000094 	muleq	r0, r4, r0
    2c94:	000000a0 	andeq	r0, r0, r0, lsr #1
    2c98:	a0500001 	subsge	r0, r0, r1
    2c9c:	ac000000 	stcge	0, cr0, [r0], {-0}
    2ca0:	03000000 	movweq	r0, #0
    2ca4:	9f7f7000 	svcls	0x007f7000
    2ca8:	000000ac 	andeq	r0, r0, ip, lsr #1
    2cac:	000000b4 	strheq	r0, [r0], -r4
    2cb0:	01f30004 	mvnseq	r0, r4
    2cb4:	00009f50 	andeq	r9, r0, r0, asr pc
    2cb8:	00000000 	andeq	r0, r0, r0
    2cbc:	00b40000 	adcseq	r0, r4, r0
    2cc0:	00c80000 	sbceq	r0, r8, r0
    2cc4:	00010000 	andeq	r0, r1, r0
    2cc8:	0000c850 	andeq	ip, r0, r0, asr r8
    2ccc:	00011000 	andeq	r1, r1, r0
    2cd0:	f3000400 	vshl.u8	d0, d0, d0
    2cd4:	009f5001 	addseq	r5, pc, r1
    2cd8:	00000000 	andeq	r0, r0, r0
    2cdc:	b4000000 	strlt	r0, [r0], #-0
    2ce0:	ec000000 	stc	0, cr0, [r0], {-0}
    2ce4:	02000000 	andeq	r0, r0, #0
    2ce8:	ec9f3000 	ldc	0, cr3, [pc], {0}
    2cec:	10000000 	andne	r0, r0, r0
    2cf0:	01000001 	tsteq	r0, r1
    2cf4:	00005100 	andeq	r5, r0, r0, lsl #2
    2cf8:	00000000 	andeq	r0, r0, r0
    2cfc:	01100000 	tsteq	r0, r0
    2d00:	01200000 	teqeq	r0, r0
    2d04:	00010000 	andeq	r0, r1, r0
    2d08:	00012050 	andeq	r2, r1, r0, asr r0
    2d0c:	00016800 	andeq	r6, r1, r0, lsl #16
    2d10:	f3000400 	vshl.u8	d0, d0, d0
    2d14:	009f5001 	addseq	r5, pc, r1
    2d18:	00000000 	andeq	r0, r0, r0
    2d1c:	10000000 	andne	r0, r0, r0
    2d20:	44000001 	strmi	r0, [r0], #-1
    2d24:	02000001 	andeq	r0, r0, #1
    2d28:	449f3000 	ldrmi	r3, [pc], #0	; 2d30 <_back_addr-0x14fd2d0>
    2d2c:	68000001 	stmdavs	r0, {r0}
    2d30:	01000001 	tsteq	r0, r1
    2d34:	00005100 	andeq	r5, r0, r0, lsl #2
    2d38:	00000000 	andeq	r0, r0, r0
    2d3c:	002c0000 	eoreq	r0, ip, r0
    2d40:	003c0000 	eorseq	r0, ip, r0
    2d44:	00090000 	andeq	r0, r9, r0
    2d48:	ff110072 			; <UNDEFINED> instruction: 0xff110072
    2d4c:	1a78809f 	bne	1e22fd0 <__bss_end__+0x90f490>
    2d50:	0000009f 	muleq	r0, pc, r0	; <UNPREDICTABLE>
    2d54:	00000000 	andeq	r0, r0, r0
    2d58:	00009800 	andeq	r9, r0, r0, lsl #16
    2d5c:	0000b400 	andeq	fp, r0, r0, lsl #8
    2d60:	50000100 	andpl	r0, r0, r0, lsl #2
    2d64:	000000b4 	strheq	r0, [r0], -r4
    2d68:	000000d8 	ldrdeq	r0, [r0], -r8
    2d6c:	01700003 	cmneq	r0, r3
    2d70:	0000d89f 	muleq	r0, pc, r8	; <UNPREDICTABLE>
    2d74:	0000e400 	andeq	lr, r0, r0, lsl #8
    2d78:	50000100 	andpl	r0, r0, r0, lsl #2
    2d7c:	000000e4 	andeq	r0, r0, r4, ror #1
    2d80:	00000100 	andeq	r0, r0, r0, lsl #2
    2d84:	01700003 	cmneq	r0, r3
    2d88:	0000009f 	muleq	r0, pc, r0	; <UNPREDICTABLE>
    2d8c:	00000000 	andeq	r0, r0, r0
    2d90:	0000b400 	andeq	fp, r0, r0, lsl #8
    2d94:	0000c000 	andeq	ip, r0, r0
    2d98:	53000100 	movwpl	r0, #256	; 0x100
    2d9c:	000000f8 	strdeq	r0, [r0], -r8
    2da0:	000000fc 	strdeq	r0, [r0], -ip
    2da4:	9f3a0002 	svcls	0x003a0002
	...
    2db0:	00000100 	andeq	r0, r0, r0, lsl #2
    2db4:	00000128 	andeq	r0, r0, r8, lsr #2
    2db8:	28500001 	ldmdacs	r0, {r0}^
    2dbc:	58000001 	stmdapl	r0, {r0}
    2dc0:	01000001 	tsteq	r0, r1
    2dc4:	01585500 	cmpeq	r8, r0, lsl #10
    2dc8:	015c0000 	cmpeq	ip, r0
    2dcc:	00040000 	andeq	r0, r4, r0
    2dd0:	9f5001f3 	svcls	0x005001f3
    2dd4:	0000015c 	andeq	r0, r0, ip, asr r1
    2dd8:	00000160 	andeq	r0, r0, r0, ror #2
    2ddc:	00500001 	subseq	r0, r0, r1
	...
    2de8:	28000001 	stmdacs	r0, {r0}
    2dec:	01000001 	tsteq	r0, r1
    2df0:	01285100 	teqeq	r8, r0, lsl #2
    2df4:	01580000 	cmpeq	r8, r0
    2df8:	00010000 	andeq	r0, r1, r0
    2dfc:	00015856 	andeq	r5, r1, r6, asr r8
    2e00:	00015c00 	andeq	r5, r1, r0, lsl #24
    2e04:	f3000400 	vshl.u8	d0, d0, d0
    2e08:	5c9f5101 	ldfpls	f5, [pc], {1}
    2e0c:	60000001 	andvs	r0, r0, r1
    2e10:	01000001 	tsteq	r0, r1
    2e14:	00005100 	andeq	r5, r0, r0, lsl #2
    2e18:	00000000 	andeq	r0, r0, r0
    2e1c:	01000000 	mrseq	r0, (UNDEF: 0)
    2e20:	01280000 	teqeq	r8, r0
    2e24:	00010000 	andeq	r0, r1, r0
    2e28:	00012852 	andeq	r2, r1, r2, asr r8
    2e2c:	00015800 	andeq	r5, r1, r0, lsl #16
    2e30:	57000100 	strpl	r0, [r0, -r0, lsl #2]
    2e34:	00000158 	andeq	r0, r0, r8, asr r1
    2e38:	0000015c 	andeq	r0, r0, ip, asr r1
    2e3c:	01f30004 	mvnseq	r0, r4
    2e40:	015c9f52 	cmpeq	ip, r2, asr pc
    2e44:	01600000 	cmneq	r0, r0
    2e48:	00010000 	andeq	r0, r1, r0
    2e4c:	00000052 	andeq	r0, r0, r2, asr r0
    2e50:	00000000 	andeq	r0, r0, r0
    2e54:	00010000 	andeq	r0, r1, r0
    2e58:	00012800 	andeq	r2, r1, r0, lsl #16
    2e5c:	30000200 	andcc	r0, r0, r0, lsl #4
    2e60:	0001289f 	muleq	r1, pc, r8	; <UNPREDICTABLE>
    2e64:	00012c00 	andeq	r2, r1, r0, lsl #24
    2e68:	0a000700 	beq	4a70 <_back_addr-0x14fb590>
    2e6c:	00740bba 	ldrhteq	r0, [r4], #-186	; 0xffffff46
    2e70:	012c9f1c 	teqeq	ip, ip, lsl pc
    2e74:	01300000 	teqeq	r0, r0
    2e78:	00070000 	andeq	r0, r7, r0
    2e7c:	740bb90a 	strvc	fp, [fp], #-2314	; 0x90a
    2e80:	309f1c00 	addscc	r1, pc, r0, lsl #24
    2e84:	4c000001 	stcmi	0, cr0, [r0], {1}
    2e88:	07000001 	streq	r0, [r0, -r1]
    2e8c:	0bba0a00 	bleq	fee85694 <__bss_end__+0xfd971b54>
    2e90:	9f1c0074 	svcls	0x001c0074
    2e94:	0000014c 	andeq	r0, r0, ip, asr #2
    2e98:	00000158 	andeq	r0, r0, r8, asr r1
    2e9c:	b90a0007 	stmdblt	sl, {r0, r1, r2}
    2ea0:	1c00740b 	cfstrsne	mvf7, [r0], {11}
    2ea4:	00015c9f 	muleq	r1, pc, ip	; <UNPREDICTABLE>
    2ea8:	00016000 	andeq	r6, r1, r0
    2eac:	30000200 	andcc	r0, r0, r0, lsl #4
    2eb0:	0000009f 	muleq	r0, pc, r0	; <UNPREDICTABLE>
    2eb4:	00000000 	andeq	r0, r0, r0
    2eb8:	00016000 	andeq	r6, r1, r0
    2ebc:	00016c00 	andeq	r6, r1, r0, lsl #24
    2ec0:	51000100 	mrspl	r0, (UNDEF: 16)
    2ec4:	0000016c 	andeq	r0, r0, ip, ror #2
    2ec8:	000001b0 			; <UNDEFINED> instruction: 0x000001b0
    2ecc:	00510001 	subseq	r0, r1, r1
    2ed0:	00000000 	andeq	r0, r0, r0
    2ed4:	7c000000 	stcvc	0, cr0, [r0], {-0}
    2ed8:	8c000001 	stchi	0, cr0, [r0], {1}
    2edc:	01000001 	tsteq	r0, r1
    2ee0:	018c5300 	orreq	r5, ip, r0, lsl #6
    2ee4:	01b00000 	movseq	r0, r0
    2ee8:	00010000 	andeq	r0, r1, r0
    2eec:	0000005c 	andeq	r0, r0, ip, asr r0
    2ef0:	00000000 	andeq	r0, r0, r0
    2ef4:	0001b000 	andeq	fp, r1, r0
    2ef8:	0001b700 	andeq	fp, r1, r0, lsl #14
    2efc:	50000100 	andpl	r0, r0, r0, lsl #2
    2f00:	000001b7 			; <UNDEFINED> instruction: 0x000001b7
    2f04:	000001b8 			; <UNDEFINED> instruction: 0x000001b8
    2f08:	01f30004 	mvnseq	r0, r4
    2f0c:	00009f50 	andeq	r9, r0, r0, asr pc
    2f10:	00000000 	andeq	r0, r0, r0
    2f14:	01e00000 	mvneq	r0, r0
    2f18:	01eb0000 	mvneq	r0, r0
    2f1c:	00010000 	andeq	r0, r1, r0
    2f20:	0001eb50 	andeq	lr, r1, r0, asr fp
    2f24:	0001ec00 	andeq	lr, r1, r0, lsl #24
    2f28:	f3000400 	vshl.u8	d0, d0, d0
    2f2c:	009f5001 	addseq	r5, pc, r1
    2f30:	00000000 	andeq	r0, r0, r0
    2f34:	ec000000 	stc	0, cr0, [r0], {-0}
    2f38:	20000001 	andcs	r0, r0, r1
    2f3c:	01000002 	tsteq	r0, r2
    2f40:	02205000 	eoreq	r5, r0, #0
    2f44:	02300000 	eorseq	r0, r0, #0
    2f48:	00010000 	andeq	r0, r1, r0
    2f4c:	00023850 	andeq	r3, r2, r0, asr r8
    2f50:	00023c00 	andeq	r3, r2, r0, lsl #24
    2f54:	50000100 	andpl	r0, r0, r0, lsl #2
    2f58:	0000023c 	andeq	r0, r0, ip, lsr r2
    2f5c:	00000240 	andeq	r0, r0, r0, asr #4
    2f60:	01f30004 	mvnseq	r0, r4
    2f64:	00009f50 	andeq	r9, r0, r0, asr pc
    2f68:	00000000 	andeq	r0, r0, r0
    2f6c:	021c0000 	andseq	r0, ip, #0
    2f70:	02380000 	eorseq	r0, r8, #0
    2f74:	00010000 	andeq	r0, r1, r0
    2f78:	00000051 	andeq	r0, r0, r1, asr r0
    2f7c:	00000000 	andeq	r0, r0, r0
    2f80:	00024000 	andeq	r4, r2, r0
    2f84:	00025c00 	andeq	r5, r2, r0, lsl #24
    2f88:	50000100 	andpl	r0, r0, r0, lsl #2
    2f8c:	0000025c 	andeq	r0, r0, ip, asr r2
    2f90:	0000026c 	andeq	r0, r0, ip, ror #4
    2f94:	01f30004 	mvnseq	r0, r4
    2f98:	026c9f50 	rsbeq	r9, ip, #80, 30	; 0x140
    2f9c:	02700000 	rsbseq	r0, r0, #0
    2fa0:	00010000 	andeq	r0, r1, r0
    2fa4:	00027050 	andeq	r7, r2, r0, asr r0
    2fa8:	00027400 	andeq	r7, r2, r0, lsl #8
    2fac:	f3000400 	vshl.u8	d0, d0, d0
    2fb0:	009f5001 	addseq	r5, pc, r1
    2fb4:	00000000 	andeq	r0, r0, r0
    2fb8:	74000000 	strvc	r0, [r0], #-0
    2fbc:	9c000002 	stcls	0, cr0, [r0], {2}
    2fc0:	01000002 	tsteq	r0, r2
    2fc4:	029c5000 	addseq	r5, ip, #0
    2fc8:	03140000 	tsteq	r4, #0
    2fcc:	00040000 	andeq	r0, r4, r0
    2fd0:	9f5001f3 	svcls	0x005001f3
    2fd4:	00000314 	andeq	r0, r0, r4, lsl r3
    2fd8:	00000318 	andeq	r0, r0, r8, lsl r3
    2fdc:	18500001 	ldmdane	r0, {r0}^
    2fe0:	24000003 	strcs	r0, [r0], #-3
    2fe4:	04000003 	streq	r0, [r0], #-3
    2fe8:	5001f300 	andpl	pc, r1, r0, lsl #6
    2fec:	0000009f 	muleq	r0, pc, r0	; <UNPREDICTABLE>
    2ff0:	00000000 	andeq	r0, r0, r0
    2ff4:	00027400 	andeq	r7, r2, r0, lsl #8
    2ff8:	0002a700 	andeq	sl, r2, r0, lsl #14
    2ffc:	51000100 	mrspl	r0, (UNDEF: 16)
    3000:	000002a7 	andeq	r0, r0, r7, lsr #5
    3004:	000002c0 	andeq	r0, r0, r0, asr #5
    3008:	c0550001 	subsgt	r0, r5, r1
    300c:	c3000002 	movwgt	r0, #2
    3010:	01000002 	tsteq	r0, r2
    3014:	02c35000 	sbceq	r5, r3, #0
    3018:	02d00000 	sbcseq	r0, r0, #0
    301c:	00030000 	andeq	r0, r3, r0
    3020:	d09f0175 	addsle	r0, pc, r5, ror r1	; <UNPREDICTABLE>
    3024:	14000002 	strne	r0, [r0], #-2
    3028:	04000003 	streq	r0, [r0], #-3
    302c:	5101f300 	mrspl	pc, SP_irq	; <UNPREDICTABLE>
    3030:	0003149f 	muleq	r3, pc, r4	; <UNPREDICTABLE>
    3034:	00032300 	andeq	r2, r3, r0, lsl #6
    3038:	51000100 	mrspl	r0, (UNDEF: 16)
    303c:	00000323 	andeq	r0, r0, r3, lsr #6
    3040:	00000324 	andeq	r0, r0, r4, lsr #6
    3044:	01f30004 	mvnseq	r0, r4
    3048:	00009f51 	andeq	r9, r0, r1, asr pc
    304c:	00000000 	andeq	r0, r0, r0
    3050:	02740000 	rsbseq	r0, r4, #0
    3054:	02a70000 	adceq	r0, r7, #0
    3058:	00010000 	andeq	r0, r1, r0
    305c:	0002a752 	andeq	sl, r2, r2, asr r7
    3060:	00031000 	andeq	r1, r3, r0
    3064:	56000100 	strpl	r0, [r0], -r0, lsl #2
    3068:	00000310 	andeq	r0, r0, r0, lsl r3
    306c:	00000314 	andeq	r0, r0, r4, lsl r3
    3070:	01f30004 	mvnseq	r0, r4
    3074:	03149f52 	tsteq	r4, #328	; 0x148
    3078:	03230000 	teqeq	r3, #0
    307c:	00010000 	andeq	r0, r1, r0
    3080:	00032352 	andeq	r2, r3, r2, asr r3
    3084:	00032400 	andeq	r2, r3, r0, lsl #8
    3088:	f3000400 	vshl.u8	d0, d0, d0
    308c:	009f5201 	addseq	r5, pc, r1, lsl #4
    3090:	00000000 	andeq	r0, r0, r0
    3094:	d0000000 	andle	r0, r0, r0
    3098:	f8000002 			; <UNDEFINED> instruction: 0xf8000002
    309c:	01000002 	tsteq	r0, r2
    30a0:	02f85400 	rscseq	r5, r8, #0, 8
    30a4:	02fc0000 	rscseq	r0, ip, #0
    30a8:	00030000 	andeq	r0, r3, r0
    30ac:	fc9f7f74 	ldc2	15, cr7, [pc], {116}	; 0x74
    30b0:	10000002 	andne	r0, r0, r2
    30b4:	01000003 	tsteq	r0, r3
    30b8:	00005400 	andeq	r5, r0, r0, lsl #8
    30bc:	00000000 	andeq	r0, r0, r0
    30c0:	02b40000 	adcseq	r0, r4, #0
    30c4:	02c00000 	sbceq	r0, r0, #0
    30c8:	00010000 	andeq	r0, r1, r0
    30cc:	0002c055 	andeq	ip, r2, r5, asr r0
    30d0:	0002c300 	andeq	ip, r2, r0, lsl #6
    30d4:	50000100 	andpl	r0, r0, r0, lsl #2
    30d8:	000002c3 	andeq	r0, r0, r3, asr #5
    30dc:	000002d0 	ldrdeq	r0, [r0], -r0	; <UNPREDICTABLE>
    30e0:	01750003 	cmneq	r5, r3
    30e4:	0002d09f 	muleq	r2, pc, r0	; <UNPREDICTABLE>
    30e8:	00031400 	andeq	r1, r3, r0, lsl #8
    30ec:	f3000400 	vshl.u8	d0, d0, d0
    30f0:	009f5101 	addseq	r5, pc, r1, lsl #2
    30f4:	00000000 	andeq	r0, r0, r0
    30f8:	24000000 	strcs	r0, [r0], #-0
    30fc:	2c000003 	stccs	0, cr0, [r0], {3}
    3100:	01000003 	tsteq	r0, r3
    3104:	032c5100 	teqeq	ip, #0, 2
    3108:	03480000 	movteq	r0, #32768	; 0x8000
    310c:	00040000 	andeq	r0, r4, r0
    3110:	9f5101f3 	svcls	0x005101f3
	...
    311c:	00000324 	andeq	r0, r0, r4, lsr #6
    3120:	00000334 	andeq	r0, r0, r4, lsr r3
    3124:	34520001 	ldrbcc	r0, [r2], #-1
    3128:	48000003 	stmdami	r0, {r0, r1}
    312c:	04000003 	streq	r0, [r0], #-3
    3130:	5201f300 	andpl	pc, r1, #0, 6
    3134:	0000009f 	muleq	r0, pc, r0	; <UNPREDICTABLE>
    3138:	00000000 	andeq	r0, r0, r0
    313c:	00032c00 	andeq	r2, r3, r0, lsl #24
    3140:	00033400 	andeq	r3, r3, r0, lsl #8
    3144:	52000100 	andpl	r0, r0, #0, 2
    3148:	00000334 	andeq	r0, r0, r4, lsr r3
    314c:	00000348 	andeq	r0, r0, r8, asr #6
    3150:	01f30004 	mvnseq	r0, r4
    3154:	00009f52 	andeq	r9, r0, r2, asr pc
    3158:	00000000 	andeq	r0, r0, r0
    315c:	032c0000 	teqeq	ip, #0
    3160:	03380000 	teqeq	r8, #0
    3164:	00020000 	andeq	r0, r2, r0
    3168:	00009f30 	andeq	r9, r0, r0, lsr pc
    316c:	00000000 	andeq	r0, r0, r0
    3170:	03480000 	movteq	r0, #32768	; 0x8000
    3174:	03540000 	cmpeq	r4, #0
    3178:	00010000 	andeq	r0, r1, r0
    317c:	00035450 	andeq	r5, r3, r0, asr r4
    3180:	00036400 	andeq	r6, r3, r0, lsl #8
    3184:	f3000400 	vshl.u8	d0, d0, d0
    3188:	009f5001 	addseq	r5, pc, r1
    318c:	00000000 	andeq	r0, r0, r0
    3190:	48000000 	stmdami	r0, {}	; <UNPREDICTABLE>
    3194:	54000003 	strpl	r0, [r0], #-3
    3198:	01000003 	tsteq	r0, r3
    319c:	03545200 	cmpeq	r4, #0, 4
    31a0:	03640000 	cmneq	r4, #0
    31a4:	00040000 	andeq	r0, r4, r0
    31a8:	9f5201f3 	svcls	0x005201f3
	...
    31b4:	00000348 	andeq	r0, r0, r8, asr #6
    31b8:	00000354 	andeq	r0, r0, r4, asr r3
    31bc:	9f300002 	svcls	0x00300002
    31c0:	00000354 	andeq	r0, r0, r4, asr r3
    31c4:	00000358 	andeq	r0, r0, r8, asr r3
    31c8:	00700007 	rsbseq	r0, r0, r7
    31cc:	1c5001f3 	ldfnee	f0, [r0], {243}	; 0xf3
    31d0:	0003589f 	muleq	r3, pc, r8	; <UNPREDICTABLE>
    31d4:	00036400 	andeq	r6, r3, r0, lsl #8
    31d8:	70000900 	andvc	r0, r0, r0, lsl #18
    31dc:	5001f300 	andpl	pc, r1, r0, lsl #6
    31e0:	9f01231c 	svcls	0x0001231c
	...
    31ec:	00000400 	andeq	r0, r0, r0, lsl #8
    31f0:	00000444 	andeq	r0, r0, r4, asr #8
    31f4:	44500001 	ldrbmi	r0, [r0], #-1
    31f8:	48000004 	stmdami	r0, {r2}
    31fc:	04000004 	streq	r0, [r0], #-4
    3200:	5001f300 	andpl	pc, r1, r0, lsl #6
    3204:	0004489f 	muleq	r4, pc, r8	; <UNPREDICTABLE>
    3208:	00044c00 	andeq	r4, r4, r0, lsl #24
    320c:	50000100 	andpl	r0, r0, r0, lsl #2
    3210:	0000044c 	andeq	r0, r0, ip, asr #8
    3214:	00000450 	andeq	r0, r0, r0, asr r4
    3218:	01f30004 	mvnseq	r0, r4
    321c:	04509f50 	ldrbeq	r9, [r0], #-3920	; 0xf50
    3220:	04540000 	ldrbeq	r0, [r4], #-0
    3224:	00010000 	andeq	r0, r1, r0
    3228:	00045450 	andeq	r5, r4, r0, asr r4
    322c:	00045800 	andeq	r5, r4, r0, lsl #16
    3230:	f3000400 	vshl.u8	d0, d0, d0
    3234:	009f5001 	addseq	r5, pc, r1
	...
    3240:	28000004 	stmdacs	r0, {r2}
    3244:	01000004 	tsteq	r0, r4
    3248:	04285100 	strteq	r5, [r8], #-256	; 0x100
    324c:	04500000 	ldrbeq	r0, [r0], #-0
    3250:	00040000 	andeq	r0, r4, r0
    3254:	9f5101f3 	svcls	0x005101f3
    3258:	00000450 	andeq	r0, r0, r0, asr r4
    325c:	00000458 	andeq	r0, r0, r8, asr r4
    3260:	00510001 	subseq	r0, r1, r1
	...
    326c:	1c000004 	stcne	0, cr0, [r0], {4}
    3270:	01000004 	tsteq	r0, r4
    3274:	041c5200 	ldreq	r5, [ip], #-512	; 0x200
    3278:	04500000 	ldrbeq	r0, [r0], #-0
    327c:	00040000 	andeq	r0, r4, r0
    3280:	9f5201f3 	svcls	0x005201f3
    3284:	00000450 	andeq	r0, r0, r0, asr r4
    3288:	00000458 	andeq	r0, r0, r8, asr r4
    328c:	00520001 	subseq	r0, r2, r1
    3290:	00000000 	andeq	r0, r0, r0
    3294:	04000000 	streq	r0, [r0], #-0
    3298:	28000004 	stmdacs	r0, {r2}
    329c:	02000004 	andeq	r0, r0, #4
    32a0:	289f3000 	ldmcs	pc, {ip, sp}	; <UNPREDICTABLE>
    32a4:	2c000004 	stccs	0, cr0, [r0], {4}
    32a8:	06000004 	streq	r0, [r0], -r4
    32ac:	70007300 	andvc	r7, r0, r0, lsl #6
    32b0:	2c9f1c00 	ldccs	12, cr1, [pc], {0}
    32b4:	38000004 	stmdacc	r0, {r2}
    32b8:	07000004 	streq	r0, [r0, -r4]
    32bc:	20007000 	andcs	r7, r0, r0
    32c0:	9f220073 	svcls	0x00220073
    32c4:	00000438 	andeq	r0, r0, r8, lsr r4
    32c8:	00000444 	andeq	r0, r0, r4, asr #8
    32cc:	00730006 	rsbseq	r0, r3, r6
    32d0:	9f1c0070 	svcls	0x001c0070
    32d4:	00000444 	andeq	r0, r0, r4, asr #8
    32d8:	00000448 	andeq	r0, r0, r8, asr #8
    32dc:	00730007 	rsbseq	r0, r3, r7
    32e0:	1c5001f3 	ldfnee	f0, [r0], {243}	; 0xf3
    32e4:	0004509f 	muleq	r4, pc, r0	; <UNPREDICTABLE>
    32e8:	00045800 	andeq	r5, r4, r0, lsl #16
    32ec:	30000200 	andcc	r0, r0, r0, lsl #4
    32f0:	0000009f 	muleq	r0, pc, r0	; <UNPREDICTABLE>
    32f4:	00000000 	andeq	r0, r0, r0
    32f8:	00040400 	andeq	r0, r4, r0, lsl #8
    32fc:	00042800 	andeq	r2, r4, r0, lsl #16
    3300:	51000100 	mrspl	r0, (UNDEF: 16)
    3304:	00000428 	andeq	r0, r0, r8, lsr #8
    3308:	00000450 	andeq	r0, r0, r0, asr r4
    330c:	01f30004 	mvnseq	r0, r4
    3310:	04509f51 	ldrbeq	r9, [r0], #-3921	; 0xf51
    3314:	04580000 	ldrbeq	r0, [r8], #-0
    3318:	00010000 	andeq	r0, r1, r0
    331c:	00000051 	andeq	r0, r0, r1, asr r0
    3320:	00000000 	andeq	r0, r0, r0
    3324:	00045800 	andeq	r5, r4, r0, lsl #16
    3328:	00047400 	andeq	r7, r4, r0, lsl #8
    332c:	50000100 	andpl	r0, r0, r0, lsl #2
    3330:	00000474 	andeq	r0, r0, r4, ror r4
    3334:	0000049c 	muleq	r0, ip, r4
    3338:	01f30004 	mvnseq	r0, r4
    333c:	00009f50 	andeq	r9, r0, r0, asr pc
    3340:	00000000 	andeq	r0, r0, r0
    3344:	04580000 	ldrbeq	r0, [r8], #-0
    3348:	04740000 	ldrbteq	r0, [r4], #-0
    334c:	00010000 	andeq	r0, r1, r0
    3350:	00047451 	andeq	r7, r4, r1, asr r4
    3354:	00049c00 	andeq	r9, r4, r0, lsl #24
    3358:	f3000400 	vshl.u8	d0, d0, d0
    335c:	009f5101 	addseq	r5, pc, r1, lsl #2
    3360:	00000000 	andeq	r0, r0, r0
    3364:	58000000 	stmdapl	r0, {}	; <UNPREDICTABLE>
    3368:	74000004 	strvc	r0, [r0], #-4
    336c:	02000004 	andeq	r0, r0, #4
    3370:	749f3000 	ldrvc	r3, [pc], #0	; 3378 <_back_addr-0x14fcc88>
    3374:	80000004 	andhi	r0, r0, r4
    3378:	07000004 	streq	r0, [r0, -r4]
    337c:	f3007000 	vhadd.u8	d7, d0, d0
    3380:	9f1c5001 	svcls	0x001c5001
    3384:	00000480 	andeq	r0, r0, r0, lsl #9
    3388:	00000484 	andeq	r0, r0, r4, lsl #9
    338c:	00700009 	rsbseq	r0, r0, r9
    3390:	1c5001f3 	ldfnee	f0, [r0], {243}	; 0xf3
    3394:	849f0123 	ldrhi	r0, [pc], #291	; 339c <_back_addr-0x14fcc64>
    3398:	8c000004 	stchi	0, cr0, [r0], {4}
    339c:	07000004 	streq	r0, [r0, -r4]
    33a0:	f3007000 	vhadd.u8	d7, d0, d0
    33a4:	9f1c5001 	svcls	0x001c5001
	...
    33b0:	00000008 	andeq	r0, r0, r8
    33b4:	00000014 	andeq	r0, r0, r4, lsl r0
    33b8:	9f300002 	svcls	0x00300002
    33bc:	00000014 	andeq	r0, r0, r4, lsl r0
    33c0:	000000e4 	andeq	r0, r0, r4, ror #1
    33c4:	00550001 	subseq	r0, r5, r1
    33c8:	00000000 	andeq	r0, r0, r0
    33cc:	14000000 	strne	r0, [r0], #-0
    33d0:	18000000 	stmdane	r0, {}	; <UNPREDICTABLE>
    33d4:	08000000 	stmdaeq	r0, {}	; <UNPREDICTABLE>
    33d8:	7e007700 	cdpvc	7, 0, cr7, cr0, cr0, {0}
    33dc:	1a372500 	bne	dcc7e4 <_back_addr-0x73381c>
    33e0:	0000189f 	muleq	r0, pc, r8	; <UNPREDICTABLE>
    33e4:	00002400 	andeq	r2, r0, r0, lsl #8
    33e8:	77000800 	strvc	r0, [r0, -r0, lsl #16]
    33ec:	257d7e00 	ldrbcs	r7, [sp, #-3584]!	; 0xe00
    33f0:	249f1a37 	ldrcs	r1, [pc], #2615	; 33f8 <_back_addr-0x14fcc08>
    33f4:	2c000000 	stccs	0, cr0, [r0], {-0}
    33f8:	08000000 	stmdaeq	r0, {}	; <UNPREDICTABLE>
    33fc:	7e007700 	cdpvc	7, 0, cr7, cr0, cr0, {0}
    3400:	1a372500 	bne	dcc808 <_back_addr-0x7337f8>
    3404:	00002c9f 	muleq	r0, pc, ip	; <UNPREDICTABLE>
    3408:	00003000 	andeq	r3, r0, r0
    340c:	53000100 	movwpl	r0, #256	; 0x100
    3410:	00000030 	andeq	r0, r0, r0, lsr r0
    3414:	00000058 	andeq	r0, r0, r8, asr r0
    3418:	02730003 	rsbseq	r0, r3, #3
    341c:	0000589f 	muleq	r0, pc, r8	; <UNPREDICTABLE>
    3420:	0000b000 	andeq	fp, r0, r0
    3424:	77000800 	strvc	r0, [r0, -r0, lsl #16]
    3428:	25007e00 	strcs	r7, [r0, #-3584]	; 0xe00
    342c:	b09f1a37 	addslt	r1, pc, r7, lsr sl	; <UNPREDICTABLE>
    3430:	bc000000 	stclt	0, cr0, [r0], {-0}
    3434:	08000000 	stmdaeq	r0, {}	; <UNPREDICTABLE>
    3438:	7e007700 	cdpvc	7, 0, cr7, cr0, cr0, {0}
    343c:	1a37257d 	bne	dcca38 <_back_addr-0x7335c8>
    3440:	0000c09f 	muleq	r0, pc, r0	; <UNPREDICTABLE>
    3444:	0000e400 	andeq	lr, r0, r0, lsl #8
    3448:	77000800 	strvc	r0, [r0, -r0, lsl #16]
    344c:	25007e00 	strcs	r7, [r0, #-3584]	; 0xe00
    3450:	009f1a37 	addseq	r1, pc, r7, lsr sl	; <UNPREDICTABLE>
	...
    345c:	14000000 	strne	r0, [r0], #-0
    3460:	02000000 	andeq	r0, r0, #0
    3464:	149f3000 	ldrne	r3, [pc], #0	; 346c <_back_addr-0x14fcb94>
    3468:	e4000000 	str	r0, [r0], #-0
    346c:	01000000 	mrseq	r0, (UNDEF: 0)
    3470:	00005e00 	andeq	r5, r0, r0, lsl #28
    3474:	00000000 	andeq	r0, r0, r0
    3478:	00380000 	eorseq	r0, r8, r0
    347c:	00b40000 	adcseq	r0, r4, r0
    3480:	00010000 	andeq	r0, r1, r0
    3484:	0000b455 	andeq	fp, r0, r5, asr r4
    3488:	0000bc00 	andeq	fp, r0, r0, lsl #24
    348c:	75000300 	strvc	r0, [r0, #-768]	; 0x300
    3490:	00c09f7f 	sbceq	r9, r0, pc, ror pc
    3494:	00e40000 	rsceq	r0, r4, r0
    3498:	00010000 	andeq	r0, r1, r0
    349c:	00000055 	andeq	r0, r0, r5, asr r0
    34a0:	00000000 	andeq	r0, r0, r0
    34a4:	00005c00 	andeq	r5, r0, r0, lsl #24
    34a8:	0000bc00 	andeq	fp, r0, r0, lsl #24
    34ac:	74000300 	strvc	r0, [r0], #-768	; 0x300
    34b0:	00c09f01 	sbceq	r9, r0, r1, lsl #30
    34b4:	00e40000 	rsceq	r0, r4, r0
    34b8:	00030000 	andeq	r0, r3, r0
    34bc:	009f0174 	addseq	r0, pc, r4, ror r1	; <UNPREDICTABLE>
    34c0:	00000000 	andeq	r0, r0, r0
    34c4:	54000000 	strpl	r0, [r0], #-0
    34c8:	5c000000 	stcpl	0, cr0, [r0], {-0}
    34cc:	0b000000 	bleq	34d4 <_back_addr-0x14fcb2c>
    34d0:	0a007400 	beq	204d8 <_back_addr-0x14dfb28>
    34d4:	331a1ff8 	tstcc	sl, #248, 30	; 0x3e0
    34d8:	9f012325 	svcls	0x00012325
	...
    34e4:	00000044 	andeq	r0, r0, r4, asr #32
    34e8:	00000054 	andeq	r0, r0, r4, asr r0
    34ec:	00740007 	rsbseq	r0, r4, r7
    34f0:	02231a37 	eoreq	r1, r3, #225280	; 0x37000
    34f4:	0000549f 	muleq	r0, pc, r4	; <UNPREDICTABLE>
    34f8:	0000bc00 	andeq	fp, r0, r0, lsl #24
    34fc:	52000100 	andpl	r0, r0, #0, 2
    3500:	000000c0 	andeq	r0, r0, r0, asr #1
    3504:	000000e4 	andeq	r0, r0, r4, ror #1
    3508:	00520001 	subseq	r0, r2, r1
    350c:	00000000 	andeq	r0, r0, r0
    3510:	74000000 	strvc	r0, [r0], #-0
    3514:	88000000 	stmdahi	r0, {}	; <UNPREDICTABLE>
    3518:	01000000 	mrseq	r0, (UNDEF: 0)
    351c:	00005100 	andeq	r5, r0, r0, lsl #2
    3520:	00000000 	andeq	r0, r0, r0
    3524:	007c0000 	rsbseq	r0, ip, r0
    3528:	00bc0000 	adcseq	r0, ip, r0
    352c:	00010000 	andeq	r0, r1, r0
    3530:	0000c058 	andeq	ip, r0, r8, asr r0
    3534:	0000e400 	andeq	lr, r0, r0, lsl #8
    3538:	58000100 	stmdapl	r0, {r8}
	...
    3544:	00000038 	andeq	r0, r0, r8, lsr r0
    3548:	000000bc 	strheq	r0, [r0], -ip
    354c:	9f300002 	svcls	0x00300002
    3550:	000000c0 	andeq	r0, r0, r0, asr #1
    3554:	000000e4 	andeq	r0, r0, r4, ror #1
    3558:	9f300002 	svcls	0x00300002
	...
    3564:	0000003c 	andeq	r0, r0, ip, lsr r0
    3568:	000000bc 	strheq	r0, [r0], -ip
    356c:	c0560001 	subsgt	r0, r6, r1
    3570:	e4000000 	str	r0, [r0], #-0
    3574:	01000000 	mrseq	r0, (UNDEF: 0)
    3578:	00005600 	andeq	r5, r0, r0, lsl #12
    357c:	00000000 	andeq	r0, r0, r0
    3580:	00440000 	subeq	r0, r4, r0
    3584:	005c0000 	subseq	r0, ip, r0
    3588:	00010000 	andeq	r0, r1, r0
    358c:	00000054 	andeq	r0, r0, r4, asr r0
    3590:	00000000 	andeq	r0, r0, r0
    3594:	00005c00 	andeq	r5, r0, r0, lsl #24
    3598:	00006000 	andeq	r6, r0, r0
    359c:	09000300 	stmdbeq	r0, {r8, r9}
    35a0:	00609fff 	strdeq	r9, [r0], #-255	; 0xffffff01	; <UNPREDICTABLE>
    35a4:	00740000 	rsbseq	r0, r4, r0
    35a8:	00010000 	andeq	r0, r1, r0
    35ac:	00000051 	andeq	r0, r0, r1, asr r0
    35b0:	00000000 	andeq	r0, r0, r0
    35b4:	00006000 	andeq	r6, r0, r0
    35b8:	00006400 	andeq	r6, r0, r0, lsl #8
    35bc:	53000100 	movwpl	r0, #256	; 0x100
	...
    35c8:	00000088 	andeq	r0, r0, r8, lsl #1
    35cc:	000000a4 	andeq	r0, r0, r4, lsr #1
    35d0:	a4590001 	ldrbge	r0, [r9], #-1
    35d4:	a8000000 	stmdage	r0, {}	; <UNPREDICTABLE>
    35d8:	03000000 	movweq	r0, #0
    35dc:	9f017900 	svcls	0x00017900
	...
    35e8:	00000090 	muleq	r0, r0, r0
    35ec:	0000009c 	muleq	r0, ip, r0
    35f0:	9c530001 	mrrcls	0, 0, r0, r3, cr1
    35f4:	a8000000 	stmdage	r0, {}	; <UNPREDICTABLE>
    35f8:	03000000 	movweq	r0, #0
    35fc:	9f017300 	svcls	0x00017300
	...
    3608:	00000090 	muleq	r0, r0, r0
    360c:	00000094 	muleq	r0, r4, r0
    3610:	00730009 	rsbseq	r0, r3, r9
    3614:	7c240072 	stcvc	0, cr0, [r4], #-456	; 0xfffffe38
    3618:	949f2100 	ldrls	r2, [pc], #256	; 3620 <_back_addr-0x14fc9e0>
    361c:	a8000000 	stmdage	r0, {}	; <UNPREDICTABLE>
    3620:	01000000 	mrseq	r0, (UNDEF: 0)
    3624:	00005100 	andeq	r5, r0, r0, lsl #2
    3628:	00000000 	andeq	r0, r0, r0
    362c:	00c00000 	sbceq	r0, r0, r0
    3630:	00c40000 	sbceq	r0, r4, r0
    3634:	00010000 	andeq	r0, r1, r0
    3638:	0000c459 	andeq	ip, r0, r9, asr r4
    363c:	0000c800 	andeq	ip, r0, r0, lsl #16
    3640:	79000300 	stmdbvc	r0, {r8, r9}
    3644:	00c89f01 	sbceq	r9, r8, r1, lsl #30
    3648:	00e40000 	rsceq	r0, r4, r0
    364c:	00010000 	andeq	r0, r1, r0
    3650:	00000059 	andeq	r0, r0, r9, asr r0
    3654:	00000000 	andeq	r0, r0, r0
    3658:	0000c000 	andeq	ip, r0, r0
    365c:	0000c800 	andeq	ip, r0, r0, lsl #16
    3660:	73000300 	movwvc	r0, #768	; 0x300
    3664:	00d09f01 	sbcseq	r9, r0, r1, lsl #30
    3668:	00dc0000 	sbcseq	r0, ip, r0
    366c:	00010000 	andeq	r0, r1, r0
    3670:	0000dc53 	andeq	sp, r0, r3, asr ip
    3674:	0000e400 	andeq	lr, r0, r0, lsl #8
    3678:	73000300 	movwvc	r0, #768	; 0x300
    367c:	00009f01 	andeq	r9, r0, r1, lsl #30
    3680:	00000000 	andeq	r0, r0, r0
    3684:	00c00000 	sbceq	r0, r0, r0
    3688:	00c80000 	sbceq	r0, r8, r0
    368c:	00010000 	andeq	r0, r1, r0
    3690:	0000d051 	andeq	sp, r0, r1, asr r0
    3694:	0000d400 	andeq	sp, r0, r0, lsl #8
    3698:	73000900 	movwvc	r0, #2304	; 0x900
    369c:	24007200 	strcs	r7, [r0], #-512	; 0x200
    36a0:	9f21007c 	svcls	0x0021007c
    36a4:	000000d4 	ldrdeq	r0, [r0], -r4
    36a8:	000000e4 	andeq	r0, r0, r4, ror #1
    36ac:	00510001 	subseq	r0, r1, r1
    36b0:	00000000 	andeq	r0, r0, r0
    36b4:	68000000 	stmdavs	r0, {}	; <UNPREDICTABLE>
    36b8:	a3000001 	movwge	r0, #1
    36bc:	01000001 	tsteq	r0, r1
    36c0:	01a35000 			; <UNDEFINED> instruction: 0x01a35000
    36c4:	01a40000 			; <UNDEFINED> instruction: 0x01a40000
    36c8:	00040000 	andeq	r0, r4, r0
    36cc:	9f5001f3 	svcls	0x005001f3
	...
    36d8:	00000168 	andeq	r0, r0, r8, ror #2
    36dc:	000001a3 	andeq	r0, r0, r3, lsr #3
    36e0:	a3510001 	cmpge	r1, #1
    36e4:	a4000001 	strge	r0, [r0], #-1
    36e8:	04000001 	streq	r0, [r0], #-1
    36ec:	5101f300 	mrspl	pc, SP_irq	; <UNPREDICTABLE>
    36f0:	0000009f 	muleq	r0, pc, r0	; <UNPREDICTABLE>
    36f4:	00000000 	andeq	r0, r0, r0
    36f8:	00016c00 	andeq	r6, r1, r0, lsl #24
    36fc:	00017000 	andeq	r7, r1, r0
    3700:	72000700 	andvc	r0, r0, #0, 14
    3704:	231a3700 	tstcs	sl, #0, 14
    3708:	01789f04 	cmneq	r8, r4, lsl #30
    370c:	01a30000 			; <UNDEFINED> instruction: 0x01a30000
    3710:	00010000 	andeq	r0, r1, r0
    3714:	00000052 	andeq	r0, r0, r2, asr r0
    3718:	00000000 	andeq	r0, r0, r0
    371c:	00016c00 	andeq	r6, r1, r0, lsl #24
    3720:	00017000 	andeq	r7, r1, r0
    3724:	52000100 	andpl	r0, r0, #0, 2
	...
    3730:	0000017c 	andeq	r0, r0, ip, ror r1
    3734:	000001a3 	andeq	r0, r0, r3, lsr #3
    3738:	00520001 	subseq	r0, r2, r1
    373c:	00000000 	andeq	r0, r0, r0
    3740:	7c000000 	stcvc	0, cr0, [r0], {-0}
    3744:	a3000001 	movwge	r0, #1
    3748:	01000001 	tsteq	r0, r1
    374c:	01a35100 			; <UNDEFINED> instruction: 0x01a35100
    3750:	01a40000 			; <UNDEFINED> instruction: 0x01a40000
    3754:	00040000 	andeq	r0, r4, r0
    3758:	9f5101f3 	svcls	0x005101f3
	...
    3764:	0000017c 	andeq	r0, r0, ip, ror r1
    3768:	00000184 	andeq	r0, r0, r4, lsl #3
    376c:	84500001 	ldrbhi	r0, [r0], #-1
    3770:	8c000001 	stchi	0, cr0, [r0], {1}
    3774:	01000001 	tsteq	r0, r1
    3778:	018c5300 	orreq	r5, ip, r0, lsl #6
    377c:	01a30000 			; <UNDEFINED> instruction: 0x01a30000
    3780:	00070000 	andeq	r0, r7, r0
    3784:	701f0072 	andsvc	r0, pc, r2, ror r0	; <UNPREDICTABLE>
    3788:	009f1a00 	addseq	r1, pc, r0, lsl #20
    378c:	00000000 	andeq	r0, r0, r0
    3790:	84000000 	strhi	r0, [r0], #-0
    3794:	a3000001 	movwge	r0, #1
    3798:	01000001 	tsteq	r0, r1
    379c:	00005300 	andeq	r5, r0, r0, lsl #6
    37a0:	00000000 	andeq	r0, r0, r0
    37a4:	01a40000 			; <UNDEFINED> instruction: 0x01a40000
    37a8:	01ab0000 			; <UNDEFINED> instruction: 0x01ab0000
    37ac:	00010000 	andeq	r0, r1, r0
    37b0:	0001ab50 	andeq	sl, r1, r0, asr fp
    37b4:	0001ac00 	andeq	sl, r1, r0, lsl #24
    37b8:	f3000400 	vshl.u8	d0, d0, d0
    37bc:	009f5001 	addseq	r5, pc, r1
    37c0:	00000000 	andeq	r0, r0, r0
    37c4:	a4000000 	strge	r0, [r0], #-0
    37c8:	a8000001 	stmdage	r0, {r0}
    37cc:	01000001 	tsteq	r0, r1
    37d0:	01a85100 			; <UNDEFINED> instruction: 0x01a85100
    37d4:	01ac0000 			; <UNDEFINED> instruction: 0x01ac0000
    37d8:	00040000 	andeq	r0, r4, r0
    37dc:	9f5101f3 	svcls	0x005101f3
	...
    37e8:	000001b0 			; <UNDEFINED> instruction: 0x000001b0
    37ec:	00000217 	andeq	r0, r0, r7, lsl r2
    37f0:	17500001 	ldrbne	r0, [r0, -r1]
    37f4:	18000002 	stmdane	r0, {r1}
    37f8:	04000002 	streq	r0, [r0], #-2
    37fc:	5001f300 	andpl	pc, r1, r0, lsl #6
    3800:	0000009f 	muleq	r0, pc, r0	; <UNPREDICTABLE>
    3804:	00000000 	andeq	r0, r0, r0
    3808:	0001b000 	andeq	fp, r1, r0
    380c:	00021700 	andeq	r1, r2, r0, lsl #14
    3810:	51000100 	mrspl	r0, (UNDEF: 16)
    3814:	00000217 	andeq	r0, r0, r7, lsl r2
    3818:	00000218 	andeq	r0, r0, r8, lsl r2
    381c:	01f30004 	mvnseq	r0, r4
    3820:	00009f51 	andeq	r9, r0, r1, asr pc
    3824:	00000000 	andeq	r0, r0, r0
    3828:	01b80000 			; <UNDEFINED> instruction: 0x01b80000
    382c:	01bc0000 			; <UNDEFINED> instruction: 0x01bc0000
    3830:	00070000 	andeq	r0, r7, r0
    3834:	1a37007c 	bne	dc3a2c <_back_addr-0x73c5d4>
    3838:	c49f0423 	ldrgt	r0, [pc], #1059	; 3840 <_back_addr-0x14fc7c0>
    383c:	17000001 	strne	r0, [r0, -r1]
    3840:	01000002 	tsteq	r0, r2
    3844:	00005c00 	andeq	r5, r0, r0, lsl #24
    3848:	00000000 	andeq	r0, r0, r0
    384c:	01b80000 			; <UNDEFINED> instruction: 0x01b80000
    3850:	01bc0000 			; <UNDEFINED> instruction: 0x01bc0000
    3854:	00010000 	andeq	r0, r1, r0
    3858:	0000005c 	andeq	r0, r0, ip, asr r0
    385c:	00000000 	andeq	r0, r0, r0
    3860:	0001c800 	andeq	ip, r1, r0, lsl #16
    3864:	00021700 	andeq	r1, r2, r0, lsl #14
    3868:	5c000100 	stfpls	f0, [r0], {-0}
	...
    3874:	000001c8 	andeq	r0, r0, r8, asr #3
    3878:	000001f4 	strdeq	r0, [r0], -r4
    387c:	f4510001 			; <UNDEFINED> instruction: 0xf4510001
    3880:	17000001 	strne	r0, [r0, -r1]
    3884:	01000002 	tsteq	r0, r2
    3888:	00005200 	andeq	r5, r0, r0, lsl #4
    388c:	00000000 	andeq	r0, r0, r0
    3890:	01c80000 	biceq	r0, r8, r0
    3894:	01e40000 	mvneq	r0, r0
    3898:	00010000 	andeq	r0, r1, r0
    389c:	0001e450 	andeq	lr, r1, r0, asr r4
    38a0:	0001fc00 	andeq	pc, r1, r0, lsl #24
    38a4:	53000100 	movwpl	r0, #256	; 0x100
	...
    38b0:	000001f4 	strdeq	r0, [r0], -r4
    38b4:	00000217 	andeq	r0, r0, r7, lsl r2
    38b8:	00530001 	subseq	r0, r3, r1
    38bc:	00000000 	andeq	r0, r0, r0
    38c0:	Address 0x000038c0 is out of bounds.


Disassembly of section .debug_ranges:

00000000 <.debug_ranges>:
   0:	00000038 	andeq	r0, r0, r8, lsr r0
   4:	0000003c 	andeq	r0, r0, ip, lsr r0
   8:	00000040 	andeq	r0, r0, r0, asr #32
   c:	000001ac 	andeq	r0, r0, ip, lsr #3
  10:	000001c0 	andeq	r0, r0, r0, asr #3
  14:	000001d4 	ldrdeq	r0, [r0], -r4
	...
  20:	00000038 	andeq	r0, r0, r8, lsr r0
  24:	0000003c 	andeq	r0, r0, ip, lsr r0
  28:	0000008c 	andeq	r0, r0, ip, lsl #1
  2c:	00000090 	muleq	r0, r0, r0
  30:	00000094 	muleq	r0, r4, r0
  34:	00000098 	muleq	r0, r8, r0
  38:	0000009c 	muleq	r0, ip, r0
  3c:	000000e8 	andeq	r0, r0, r8, ror #1
  40:	000000ec 	andeq	r0, r0, ip, ror #1
  44:	000000f0 	strdeq	r0, [r0], -r0	; <UNPREDICTABLE>
  48:	000000f4 	strdeq	r0, [r0], -r4
  4c:	000000f8 	strdeq	r0, [r0], -r8
	...
  58:	000002ec 	andeq	r0, r0, ip, ror #5
  5c:	000002f4 	strdeq	r0, [r0], -r4
  60:	00000308 	andeq	r0, r0, r8, lsl #6
  64:	0000030c 	andeq	r0, r0, ip, lsl #6
	...
  70:	000002f8 	strdeq	r0, [r0], -r8
  74:	000002fc 	strdeq	r0, [r0], -ip
  78:	0000030c 	andeq	r0, r0, ip, lsl #6
  7c:	00000318 	andeq	r0, r0, r8, lsl r3
	...
  88:	0000033c 	andeq	r0, r0, ip, lsr r3
  8c:	00000344 	andeq	r0, r0, r4, asr #6
  90:	00000348 	andeq	r0, r0, r8, asr #6
  94:	0000034c 	andeq	r0, r0, ip, asr #6
	...
  a0:	000003b8 			; <UNDEFINED> instruction: 0x000003b8
  a4:	000003bc 			; <UNDEFINED> instruction: 0x000003bc
  a8:	000003c0 	andeq	r0, r0, r0, asr #7
  ac:	000003c4 	andeq	r0, r0, r4, asr #7
	...
  b8:	00000614 	andeq	r0, r0, r4, lsl r6
  bc:	00000634 	andeq	r0, r0, r4, lsr r6
  c0:	0000064c 	andeq	r0, r0, ip, asr #12
  c4:	0000066c 	andeq	r0, r0, ip, ror #12
	...
  d0:	00000680 	andeq	r0, r0, r0, lsl #13
  d4:	000006a0 	andeq	r0, r0, r0, lsr #13
  d8:	000006b8 			; <UNDEFINED> instruction: 0x000006b8
  dc:	000006d8 	ldrdeq	r0, [r0], -r8
	...
  e8:	00000784 	andeq	r0, r0, r4, lsl #15
  ec:	0000078c 	andeq	r0, r0, ip, lsl #15
  f0:	0000079c 	muleq	r0, ip, r7
  f4:	000007a4 	andeq	r0, r0, r4, lsr #15
  f8:	000007b4 			; <UNDEFINED> instruction: 0x000007b4
  fc:	000007d4 	ldrdeq	r0, [r0], -r4
	...
 108:	0000079c 	muleq	r0, ip, r7
 10c:	000007a4 	andeq	r0, r0, r4, lsr #15
 110:	000007c8 	andeq	r0, r0, r8, asr #15
 114:	000007d4 	ldrdeq	r0, [r0], -r4
	...
 120:	00000070 	andeq	r0, r0, r0, ror r0
 124:	0000007c 	andeq	r0, r0, ip, ror r0
 128:	00000080 	andeq	r0, r0, r0, lsl #1
 12c:	00000088 	andeq	r0, r0, r8, lsl #1
	...
 138:	0000007c 	andeq	r0, r0, ip, ror r0
 13c:	00000080 	andeq	r0, r0, r0, lsl #1
 140:	00000088 	andeq	r0, r0, r8, lsl #1
 144:	0000008c 	andeq	r0, r0, ip, lsl #1
	...
 150:	000000b0 	strheq	r0, [r0], -r0	; <UNPREDICTABLE>
 154:	000000b8 	strheq	r0, [r0], -r8
 158:	000000c0 	andeq	r0, r0, r0, asr #1
 15c:	000000c4 	andeq	r0, r0, r4, asr #1
 160:	000000c8 	andeq	r0, r0, r8, asr #1
 164:	000000cc 	andeq	r0, r0, ip, asr #1
	...
 170:	000000b8 	strheq	r0, [r0], -r8
 174:	000000bc 	strheq	r0, [r0], -ip
 178:	000000d8 	ldrdeq	r0, [r0], -r8
 17c:	000000dc 	ldrdeq	r0, [r0], -ip
	...
 188:	000000c4 	andeq	r0, r0, r4, asr #1
 18c:	000000c8 	andeq	r0, r0, r8, asr #1
 190:	000000d0 	ldrdeq	r0, [r0], -r0	; <UNPREDICTABLE>
 194:	000000d4 	ldrdeq	r0, [r0], -r4
	...
 1a0:	00000104 	andeq	r0, r0, r4, lsl #2
 1a4:	00000108 	andeq	r0, r0, r8, lsl #2
 1a8:	00000130 	andeq	r0, r0, r0, lsr r1
 1ac:	0000013c 	andeq	r0, r0, ip, lsr r1
	...
 1b8:	0000015c 	andeq	r0, r0, ip, asr r1
 1bc:	00000168 	andeq	r0, r0, r8, ror #2
 1c0:	0000016c 	andeq	r0, r0, ip, ror #2
 1c4:	00000170 	andeq	r0, r0, r0, ror r1
	...
 1d0:	00000168 	andeq	r0, r0, r8, ror #2
 1d4:	0000016c 	andeq	r0, r0, ip, ror #2
 1d8:	00000170 	andeq	r0, r0, r0, ror r1
 1dc:	00000178 	andeq	r0, r0, r8, ror r1
	...
 1e8:	0000018c 	andeq	r0, r0, ip, lsl #3
 1ec:	00000190 	muleq	r0, r0, r1
 1f0:	00000194 	muleq	r0, r4, r1
 1f4:	00000198 	muleq	r0, r8, r1
	...
 200:	00000190 	muleq	r0, r0, r1
 204:	00000194 	muleq	r0, r4, r1
 208:	0000019c 	muleq	r0, ip, r1
 20c:	000001a4 	andeq	r0, r0, r4, lsr #3
	...
 218:	000001bc 			; <UNDEFINED> instruction: 0x000001bc
 21c:	000001c4 	andeq	r0, r0, r4, asr #3
 220:	000001d8 	ldrdeq	r0, [r0], -r8
 224:	000001ec 	andeq	r0, r0, ip, ror #3
 228:	000002ec 	andeq	r0, r0, ip, ror #5
 22c:	000002fc 	strdeq	r0, [r0], -ip
	...
 238:	000001e0 	andeq	r0, r0, r0, ror #3
 23c:	000001ec 	andeq	r0, r0, ip, ror #3
 240:	000002ec 	andeq	r0, r0, ip, ror #5
 244:	000002fc 	strdeq	r0, [r0], -ip
	...
 250:	000001f8 	strdeq	r0, [r0], -r8
 254:	0000020c 	andeq	r0, r0, ip, lsl #4
 258:	0000040c 	andeq	r0, r0, ip, lsl #8
 25c:	00000424 	andeq	r0, r0, r4, lsr #8
	...
 268:	00000208 	andeq	r0, r0, r8, lsl #4
 26c:	0000020c 	andeq	r0, r0, ip, lsl #4
 270:	0000040c 	andeq	r0, r0, ip, lsl #8
 274:	00000424 	andeq	r0, r0, r4, lsr #8
	...
 280:	0000020c 	andeq	r0, r0, ip, lsl #4
 284:	0000021c 	andeq	r0, r0, ip, lsl r2
 288:	000003f4 	strdeq	r0, [r0], -r4
 28c:	0000040c 	andeq	r0, r0, ip, lsl #8
	...
 298:	00000218 	andeq	r0, r0, r8, lsl r2
 29c:	0000021c 	andeq	r0, r0, ip, lsl r2
 2a0:	000003f4 	strdeq	r0, [r0], -r4
 2a4:	0000040c 	andeq	r0, r0, ip, lsl #8
	...
 2b0:	0000021c 	andeq	r0, r0, ip, lsl r2
 2b4:	0000022c 	andeq	r0, r0, ip, lsr #4
 2b8:	000003dc 	ldrdeq	r0, [r0], -ip
 2bc:	000003f4 	strdeq	r0, [r0], -r4
	...
 2c8:	00000228 	andeq	r0, r0, r8, lsr #4
 2cc:	0000022c 	andeq	r0, r0, ip, lsr #4
 2d0:	000003dc 	ldrdeq	r0, [r0], -ip
 2d4:	000003f4 	strdeq	r0, [r0], -r4
	...
 2e0:	0000022c 	andeq	r0, r0, ip, lsr #4
 2e4:	00000244 	andeq	r0, r0, r4, asr #4
 2e8:	000003c4 	andeq	r0, r0, r4, asr #7
 2ec:	000003dc 	ldrdeq	r0, [r0], -ip
	...
 2f8:	0000023c 	andeq	r0, r0, ip, lsr r2
 2fc:	00000244 	andeq	r0, r0, r4, asr #4
 300:	000003c4 	andeq	r0, r0, r4, asr #7
 304:	000003dc 	ldrdeq	r0, [r0], -ip
	...
 310:	00000244 	andeq	r0, r0, r4, asr #4
 314:	00000254 	andeq	r0, r0, r4, asr r2
 318:	000003ac 	andeq	r0, r0, ip, lsr #7
 31c:	000003c4 	andeq	r0, r0, r4, asr #7
	...
 328:	00000250 	andeq	r0, r0, r0, asr r2
 32c:	00000254 	andeq	r0, r0, r4, asr r2
 330:	000003ac 	andeq	r0, r0, ip, lsr #7
 334:	000003c4 	andeq	r0, r0, r4, asr #7
	...
 340:	00000254 	andeq	r0, r0, r4, asr r2
 344:	0000026c 	andeq	r0, r0, ip, ror #4
 348:	00000394 	muleq	r0, r4, r3
 34c:	000003ac 	andeq	r0, r0, ip, lsr #7
	...
 358:	00000264 	andeq	r0, r0, r4, ror #4
 35c:	0000026c 	andeq	r0, r0, ip, ror #4
 360:	00000394 	muleq	r0, r4, r3
 364:	000003ac 	andeq	r0, r0, ip, lsr #7
	...
 370:	0000026c 	andeq	r0, r0, ip, ror #4
 374:	0000027c 	andeq	r0, r0, ip, ror r2
 378:	0000037c 	andeq	r0, r0, ip, ror r3
 37c:	00000394 	muleq	r0, r4, r3
	...
 388:	00000278 	andeq	r0, r0, r8, ror r2
 38c:	0000027c 	andeq	r0, r0, ip, ror r2
 390:	0000037c 	andeq	r0, r0, ip, ror r3
 394:	00000394 	muleq	r0, r4, r3
	...
 3a0:	0000027c 	andeq	r0, r0, ip, ror r2
 3a4:	00000294 	muleq	r0, r4, r2
 3a8:	00000364 	andeq	r0, r0, r4, ror #6
 3ac:	0000037c 	andeq	r0, r0, ip, ror r3
	...
 3b8:	0000028c 	andeq	r0, r0, ip, lsl #5
 3bc:	00000294 	muleq	r0, r4, r2
 3c0:	00000364 	andeq	r0, r0, r4, ror #6
 3c4:	0000037c 	andeq	r0, r0, ip, ror r3
	...
 3d0:	00000294 	muleq	r0, r4, r2
 3d4:	00000298 	muleq	r0, r8, r2
 3d8:	0000029c 	muleq	r0, ip, r2
 3dc:	000002a4 	andeq	r0, r0, r4, lsr #5
 3e0:	0000034c 	andeq	r0, r0, ip, asr #6
 3e4:	00000364 	andeq	r0, r0, r4, ror #6
	...
 3f0:	000002a0 	andeq	r0, r0, r0, lsr #5
 3f4:	000002a4 	andeq	r0, r0, r4, lsr #5
 3f8:	0000034c 	andeq	r0, r0, ip, asr #6
 3fc:	00000364 	andeq	r0, r0, r4, ror #6
	...
 408:	000002a4 	andeq	r0, r0, r4, lsr #5
 40c:	000002a8 	andeq	r0, r0, r8, lsr #5
 410:	000002ac 	andeq	r0, r0, ip, lsr #5
 414:	000002b4 			; <UNDEFINED> instruction: 0x000002b4
 418:	00000334 	andeq	r0, r0, r4, lsr r3
 41c:	0000034c 	andeq	r0, r0, ip, asr #6
	...
 428:	000002b0 			; <UNDEFINED> instruction: 0x000002b0
 42c:	000002b4 			; <UNDEFINED> instruction: 0x000002b4
 430:	00000334 	andeq	r0, r0, r4, lsr r3
 434:	0000034c 	andeq	r0, r0, ip, asr #6
	...
 440:	000002b4 			; <UNDEFINED> instruction: 0x000002b4
 444:	000002b8 			; <UNDEFINED> instruction: 0x000002b8
 448:	000002bc 			; <UNDEFINED> instruction: 0x000002bc
 44c:	000002c4 	andeq	r0, r0, r4, asr #5
 450:	0000031c 	andeq	r0, r0, ip, lsl r3
 454:	00000334 	andeq	r0, r0, r4, lsr r3
	...
 460:	000002c0 	andeq	r0, r0, r0, asr #5
 464:	000002c4 	andeq	r0, r0, r4, asr #5
 468:	0000031c 	andeq	r0, r0, ip, lsl r3
 46c:	00000334 	andeq	r0, r0, r4, lsr r3
	...
 478:	000002c4 	andeq	r0, r0, r4, asr #5
 47c:	000002c8 	andeq	r0, r0, r8, asr #5
 480:	000002cc 	andeq	r0, r0, ip, asr #5
 484:	000002d0 	ldrdeq	r0, [r0], -r0	; <UNPREDICTABLE>
 488:	000002d4 	ldrdeq	r0, [r0], -r4
 48c:	000002d8 	ldrdeq	r0, [r0], -r8
 490:	000002fc 	strdeq	r0, [r0], -ip
 494:	00000310 	andeq	r0, r0, r0, lsl r3
	...
 4a0:	000002d4 	ldrdeq	r0, [r0], -r4
 4a4:	000002d8 	ldrdeq	r0, [r0], -r8
 4a8:	000002fc 	strdeq	r0, [r0], -ip
 4ac:	00000310 	andeq	r0, r0, r0, lsl r3
	...
 4b8:	000007b4 			; <UNDEFINED> instruction: 0x000007b4
 4bc:	000007cc 	andeq	r0, r0, ip, asr #15
 4c0:	000007d4 	ldrdeq	r0, [r0], -r4
 4c4:	000007dc 	ldrdeq	r0, [r0], -ip
 4c8:	000007e0 	andeq	r0, r0, r0, ror #15
 4cc:	00000848 	andeq	r0, r0, r8, asr #16
	...
 4d8:	00000974 	andeq	r0, r0, r4, ror r9
 4dc:	0000097c 	andeq	r0, r0, ip, ror r9
 4e0:	00000980 	andeq	r0, r0, r0, lsl #19
 4e4:	00000984 	andeq	r0, r0, r4, lsl #19
 4e8:	00000988 	andeq	r0, r0, r8, lsl #19
 4ec:	0000098c 	andeq	r0, r0, ip, lsl #19
	...
 4f8:	00000984 	andeq	r0, r0, r4, lsl #19
 4fc:	00000988 	andeq	r0, r0, r8, lsl #19
 500:	0000098c 	andeq	r0, r0, ip, lsl #19
 504:	00000990 	muleq	r0, r0, r9
	...
 510:	00000a0c 	andeq	r0, r0, ip, lsl #20
 514:	00000a14 	andeq	r0, r0, r4, lsl sl
 518:	00000a20 	andeq	r0, r0, r0, lsr #20
 51c:	00000a24 	andeq	r0, r0, r4, lsr #20
	...
 528:	00000a30 	andeq	r0, r0, r0, lsr sl
 52c:	00000a34 	andeq	r0, r0, r4, lsr sl
 530:	00000a54 	andeq	r0, r0, r4, asr sl
 534:	00000a58 	andeq	r0, r0, r8, asr sl
	...
 540:	000003c8 	andeq	r0, r0, r8, asr #7
 544:	00000604 	andeq	r0, r0, r4, lsl #12
 548:	0000060c 	andeq	r0, r0, ip, lsl #12
 54c:	00000620 	andeq	r0, r0, r0, lsr #12
 550:	0000062c 	andeq	r0, r0, ip, lsr #12
 554:	0000082c 	andeq	r0, r0, ip, lsr #16
 558:	00000834 	andeq	r0, r0, r4, lsr r8
 55c:	00000934 	andeq	r0, r0, r4, lsr r9
	...
 568:	00000b50 	andeq	r0, r0, r0, asr fp
 56c:	00000b94 	muleq	r0, r4, fp
 570:	00000be8 	andeq	r0, r0, r8, ror #23
 574:	00000bf8 	strdeq	r0, [r0], -r8
	...
 580:	00000010 	andeq	r0, r0, r0, lsl r0
 584:	0000002c 	andeq	r0, r0, ip, lsr #32
 588:	00000030 	andeq	r0, r0, r0, lsr r0
 58c:	00000058 	andeq	r0, r0, r8, asr r0
	...
 598:	000000c8 	andeq	r0, r0, r8, asr #1
 59c:	000000d0 	ldrdeq	r0, [r0], -r0	; <UNPREDICTABLE>
 5a0:	000000d8 	ldrdeq	r0, [r0], -r8
 5a4:	000000e4 	andeq	r0, r0, r4, ror #1
 5a8:	000000ec 	andeq	r0, r0, ip, ror #1
 5ac:	00000100 	andeq	r0, r0, r0, lsl #2
	...
 5b8:	000000e4 	andeq	r0, r0, r4, ror #1
 5bc:	000000e8 	andeq	r0, r0, r8, ror #1
 5c0:	00000100 	andeq	r0, r0, r0, lsl #2
 5c4:	0000010c 	andeq	r0, r0, ip, lsl #2
	...
 5d0:	00000120 	andeq	r0, r0, r0, lsr #2
 5d4:	00000128 	andeq	r0, r0, r8, lsr #2
 5d8:	00000130 	andeq	r0, r0, r0, lsr r1
 5dc:	0000013c 	andeq	r0, r0, ip, lsr r1
 5e0:	00000144 	andeq	r0, r0, r4, asr #2
 5e4:	00000158 	andeq	r0, r0, r8, asr r1
	...
 5f0:	0000013c 	andeq	r0, r0, ip, lsr r1
 5f4:	00000140 	andeq	r0, r0, r0, asr #2
 5f8:	00000158 	andeq	r0, r0, r8, asr r1
 5fc:	00000164 	andeq	r0, r0, r4, ror #2
	...
 608:	000000ac 	andeq	r0, r0, ip, lsr #1
 60c:	000000b4 	strheq	r0, [r0], -r4
 610:	000000e4 	andeq	r0, r0, r4, ror #1
 614:	00000100 	andeq	r0, r0, r0, lsl #2
	...
 620:	00000128 	andeq	r0, r0, r8, lsr #2
 624:	00000138 	andeq	r0, r0, r8, lsr r1
 628:	0000014c 	andeq	r0, r0, ip, asr #2
 62c:	00000154 	andeq	r0, r0, r4, asr r1
 630:	00000158 	andeq	r0, r0, r8, asr r1
 634:	00000160 	andeq	r0, r0, r0, ror #2
	...
 640:	0000018c 	andeq	r0, r0, ip, lsl #3
 644:	0000019c 	muleq	r0, ip, r1
 648:	000001a0 	andeq	r0, r0, r0, lsr #3
 64c:	000001a4 	andeq	r0, r0, r4, lsr #3
	...
 658:	00000324 	andeq	r0, r0, r4, lsr #6
 65c:	00000328 	andeq	r0, r0, r8, lsr #6
 660:	0000032c 	andeq	r0, r0, ip, lsr #6
 664:	00000344 	andeq	r0, r0, r4, asr #6
	...
 670:	00000038 	andeq	r0, r0, r8, lsr r0
 674:	000000ac 	andeq	r0, r0, ip, lsr #1
 678:	000000c0 	andeq	r0, r0, r0, asr #1
 67c:	000000e4 	andeq	r0, r0, r4, ror #1
	...
 688:	00000054 	andeq	r0, r0, r4, asr r0
 68c:	00000058 	andeq	r0, r0, r8, asr r0
 690:	0000005c 	andeq	r0, r0, ip, asr r0
 694:	00000074 	andeq	r0, r0, r4, ror r0
	...
