
efuse_programmer:     file format elf32-littlearm


Disassembly of section .text:

01500000 <_back_addr>:
 1500000:	01a00010 	lsleq	r0, r0, r0

01500004 <_stack_start>:
 1500004:	02001000 	andeq	r1, r0, #0

01500008 <_stack_start1>:
 1500008:	02500000 	subseq	r0, r0, #0

0150000c <start>:
.globl _stack_start1
_stack_start1:
        .word 0x02500000

start:
     mrc     p15, 0, r1, c0, c0, 5     @ Read Multiprocessor Affinity Register
 150000c:	ee101fb0 	mrc	15, 0, r1, cr0, cr0, {5}
     ands    r1, r1, #0x03             @ Mask off, leaving the CPU ID field
 1500010:	e2111003 	ands	r1, r1, #3
     cmp     r1,#0x00                  @ core0 : 0x00 , others 0x01 , 0x02 ...
 1500014:	e3510000 	cmp	r1, #0
     bne     run_secondary
 1500018:	1a00000c 	bne	1500050 <run_secondary>

     ldr     r8, _back_addr
 150001c:	e51f8024 	ldr	r8, [pc, #-36]	; 1500000 <_back_addr>
     str     lr, [r8]
 1500020:	e588e000 	str	lr, [r8]
     add     r8, r8,#4
 1500024:	e2888004 	add	r8, r8, #4
     str     sp, [r8]
 1500028:	e588d000 	str	sp, [r8]

     ldr     sp, _stack_start
 150002c:	e51fd030 	ldr	sp, [pc, #-48]	; 1500004 <_stack_start>
     bic     sp, sp, #7
 1500030:	e3cdd007 	bic	sp, sp, #7
     bl	     efusemain
 1500034:	eb00013e 	bl	1500534 <efusemain>

     ldr     r8, _back_addr
 1500038:	e51f8040 	ldr	r8, [pc, #-64]	; 1500000 <_back_addr>
     add     r9, r8,#4
 150003c:	e2889004 	add	r9, r8, #4
     ldr     sp, [r9]
 1500040:	e599d000 	ldr	sp, [r9]
     ldr     r1, [r8]
 1500044:	e5981000 	ldr	r1, [r8]
     mov     r0, #0
 1500048:	e3a00000 	mov	r0, #0
     bx      r1
 150004c:	e12fff11 	bx	r1

01500050 <run_secondary>:

run_secondary:
     ldr   sp, _stack_start1
 1500050:	e51fd050 	ldr	sp, [pc, #-80]	; 1500008 <_stack_start1>
     MSR   CPSR_c, #0xD3 ; #MODE_SVC:OR:DIS_IRQ:OR:DIS_FIRQ
 1500054:	e321f0d3 	msr	CPSR_c, #211	; 0xd3
     MOV   r0, r0
 1500058:	e1a00000 	nop			; (mov r0, r0)
     MOV   r0, r0
 150005c:	e1a00000 	nop			; (mov r0, r0)
     MOV   r0, r0
 1500060:	e1a00000 	nop			; (mov r0, r0)
9:
     b     9b
 1500064:	eafffffe 	b	1500064 <run_secondary+0x14>
     MOV   r0, r0
 1500068:	e1a00000 	nop			; (mov r0, r0)
     MOV   r0, r0
 150006c:	e1a00000 	nop			; (mov r0, r0)
     MOV   r0, r0
 1500070:	e1a00000 	nop			; (mov r0, r0)

01500074 <strlen>:

int strlen(const char *s)
{
	int	l = 0;

	while (*s++) 
 1500074:	e5d01000 	ldrb	r1, [r0]
 1500078:	e2803001 	add	r3, r0, #1
 150007c:	e3510000 	cmp	r1, #0
 1500080:	0a000003 	beq	1500094 <strlen+0x20>
 1500084:	e0601003 	rsb	r1, r0, r3
 1500088:	e4d32001 	ldrb	r2, [r3], #1
 150008c:	e3520000 	cmp	r2, #0
 1500090:	1afffffb 	bne	1500084 <strlen+0x10>
	{
		
	 l++;
	} 
	return l;
}
 1500094:	e1a00001 	mov	r0, r1
 1500098:	e12fff1e 	bx	lr

0150009c <strstr>:
	const char 	*s2)
{
    const char *s ;
    const char *t ;

    if (!s1 || !s2)
 150009c:	e3510000 	cmp	r1, #0
 15000a0:	13500000 	cmpne	r0, #0
 15000a4:	0a000022 	beq	1500134 <strstr+0x98>
#include "dvrboot_inc/string.h"

char *strstr(
	const char 	*s1, 
	const char 	*s2)
{
 15000a8:	e92d4030 	push	{r4, r5, lr}
    const char *t ;

    if (!s1 || !s2)
	return (0);

    if (!*s2)
 15000ac:	e5d15000 	ldrb	r5, [r1]
 15000b0:	e3550000 	cmp	r5, #0
 15000b4:	08bd8030 	popeq	{r4, r5, pc}
	return ((char*)s1);

    for (; *s1; s1++) 
 15000b8:	e5d03000 	ldrb	r3, [r0]
 15000bc:	e3530000 	cmp	r3, #0
 15000c0:	1a000003 	bne	15000d4 <strstr+0x38>
 15000c4:	ea000018 	b	150012c <strstr+0x90>
 15000c8:	e5f03001 	ldrb	r3, [r0, #1]!
 15000cc:	e3530000 	cmp	r3, #0
 15000d0:	0a000015 	beq	150012c <strstr+0x90>
    {
	if (*s1 == *s2) 
 15000d4:	e1550003 	cmp	r5, r3
 15000d8:	1afffffa 	bne	15000c8 <strstr+0x2c>
        {
	    t = s1;
	    s = s2;
	    for (; *t; s++, t++) 
 15000dc:	e5d03000 	ldrb	r3, [r0]
 15000e0:	e3530000 	cmp	r3, #0
 15000e4:	0afffff7 	beq	15000c8 <strstr+0x2c>
            {
		if (*t != *s)
 15000e8:	e1550003 	cmp	r5, r3
 15000ec:	1afffff5 	bne	15000c8 <strstr+0x2c>
 15000f0:	e2813001 	add	r3, r1, #1
 15000f4:	e1a0c000 	mov	ip, r0
 15000f8:	ea000002 	b	1500108 <strstr+0x6c>
 15000fc:	e5de4000 	ldrb	r4, [lr]
 1500100:	e1540002 	cmp	r4, r2
 1500104:	1a000004 	bne	150011c <strstr+0x80>
    {
	if (*s1 == *s2) 
        {
	    t = s1;
	    s = s2;
	    for (; *t; s++, t++) 
 1500108:	e5fc2001 	ldrb	r2, [ip, #1]!
 150010c:	e1a0e003 	mov	lr, r3
 1500110:	e2833001 	add	r3, r3, #1
 1500114:	e3520000 	cmp	r2, #0
 1500118:	1afffff7 	bne	15000fc <strstr+0x60>
            {
		if (*t != *s)
		    break;
	    }
	    if (!*s)
 150011c:	e5de3000 	ldrb	r3, [lr]
 1500120:	e3530000 	cmp	r3, #0
 1500124:	1affffe7 	bne	15000c8 <strstr+0x2c>
 1500128:	e8bd8030 	pop	{r4, r5, pc}
{
    const char *s ;
    const char *t ;

    if (!s1 || !s2)
	return (0);
 150012c:	e1a00003 	mov	r0, r3
	    if (!*s)
		return ((char*)s1);
	}
    }
    return (0);
}
 1500130:	e8bd8030 	pop	{r4, r5, pc}
{
    const char *s ;
    const char *t ;

    if (!s1 || !s2)
	return (0);
 1500134:	e3a00000 	mov	r0, #0
	    if (!*s)
		return ((char*)s1);
	}
    }
    return (0);
}
 1500138:	e12fff1e 	bx	lr

0150013c <strtoul>:
unsigned long
strtoul(
	const 	char 	*str,
		char 	**endptr,
		int 	base)
{
 150013c:	e92d47f0 	push	{r4, r5, r6, r7, r8, r9, sl, lr}
 1500140:	e3027e5c 	movw	r7, #11868	; 0x2e5c
 1500144:	e3407150 	movt	r7, #336	; 0x150
 1500148:	e1a08000 	mov	r8, r0
 150014c:	ea000000 	b	1500154 <strtoul+0x18>
 1500150:	e1a00003 	mov	r0, r3
	/*
	 * See strtol for comments as to the logic used.
	 */
	s = str;
	do {
		c = (unsigned char) *s++;
 1500154:	e1a03000 	mov	r3, r0
 1500158:	e4d3e001 	ldrb	lr, [r3], #1
	} while (isspace(c));
 150015c:	e7d7c00e 	ldrb	ip, [r7, lr]
 1500160:	e20cc020 	and	ip, ip, #32
 1500164:	e21cc0ff 	ands	ip, ip, #255	; 0xff
 1500168:	1afffff8 	bne	1500150 <strtoul+0x14>
	if (c == '-') {
 150016c:	e35e002d 	cmp	lr, #45	; 0x2d
 1500170:	0a000047 	beq	1500294 <strtoul+0x158>
		neg = 1;
		c = *s++;
	} else {
		neg = 0;
		if (c == '+')
 1500174:	e35e002b 	cmp	lr, #43	; 0x2b
			c = *s++;
 1500178:	02803002 	addeq	r3, r0, #2
 150017c:	05d0e001 	ldrbeq	lr, [r0, #1]
	}
	if ((base == 0 || base == 16) &&
 1500180:	e3d20010 	bics	r0, r2, #16
 1500184:	1a000011 	bne	15001d0 <strtoul+0x94>
 1500188:	e16f0f12 	clz	r0, r2
 150018c:	e35e0030 	cmp	lr, #48	; 0x30
 1500190:	e1a002a0 	lsr	r0, r0, #5
 1500194:	0a000042 	beq	15002a4 <strtoul+0x168>
	    c == '0' && (*s == 'x' || *s == 'X')) {
		c = s[1];
		s += 2;
		base = 16;
	}
	if (base == 0)
 1500198:	e3500000 	cmp	r0, #0
 150019c:	0a00000b 	beq	15001d0 <strtoul+0x94>
 15001a0:	e3a0200a 	mov	r2, #10
 15001a4:	e3090999 	movw	r0, #39321	; 0x9999
 15001a8:	e3410999 	movt	r0, #6553	; 0x1999
		base = c == '0' ? 8 : 10;
 15001ac:	e1a0a002 	mov	sl, r2
 15001b0:	e3a09005 	mov	r9, #5
 15001b4:	ea00000a 	b	15001e4 <strtoul+0xa8>
	    c == '0' && (*s == 'x' || *s == 'X')) {
		c = s[1];
		s += 2;
		base = 16;
	}
	if (base == 0)
 15001b8:	e3500000 	cmp	r0, #0
 15001bc:	13a02008 	movne	r2, #8
 15001c0:	13a09007 	movne	r9, #7
		base = c == '0' ? 8 : 10;
 15001c4:	11a0a002 	movne	sl, r2
	    c == '0' && (*s == 'x' || *s == 'X')) {
		c = s[1];
		s += 2;
		base = 16;
	}
	if (base == 0)
 15001c8:	13e0020e 	mvnne	r0, #-536870912	; 0xe0000000
 15001cc:	1a000004 	bne	15001e4 <strtoul+0xa8>
 15001d0:	e3e00000 	mvn	r0, #0
 15001d4:	e1a0a002 	mov	sl, r2
 15001d8:	e730f210 	udiv	r0, r0, r2
 15001dc:	e0090092 	mul	r9, r2, r0
 15001e0:	e1e09009 	mvn	r9, r9
		base = c == '0' ? 8 : 10;

	cutoff = MAXUINT(sizeof(UINT32)) / (unsigned long)base;
	cutlim = MAXUINT(sizeof(UINT32)) % (unsigned long)base;
	for (acc = 0, any = 0;; c = (unsigned char) *s++) {
 15001e4:	e3a05000 	mov	r5, #0
 15001e8:	e1a06005 	mov	r6, r5
 15001ec:	ea000009 	b	1500218 <strtoul+0xdc>
			break;
		if (c >= base)
			break;
		if (any < 0)
			continue;
		if ((acc > cutoff) || (acc == cutoff && c > cutlim)) {
 15001f0:	e15e0009 	cmp	lr, r9
 15001f4:	d3a04000 	movle	r4, #0
 15001f8:	c3a04001 	movgt	r4, #1
 15001fc:	e1560000 	cmp	r6, r0
 1500200:	13a04000 	movne	r4, #0
 1500204:	e3540000 	cmp	r4, #0
 1500208:	1a000012 	bne	1500258 <strtoul+0x11c>
			acc = MAXUINT(sizeof(UINT32));
			//errno = ERANGE;
		} else {
			any = 1;
			acc *= (unsigned long)base;
			acc += c;
 150020c:	e026e69a 	mla	r6, sl, r6, lr
		if ((acc > cutoff) || (acc == cutoff && c > cutlim)) {
			any = -1;
			acc = MAXUINT(sizeof(UINT32));
			//errno = ERANGE;
		} else {
			any = 1;
 1500210:	e3a05001 	mov	r5, #1
	if (base == 0)
		base = c == '0' ? 8 : 10;

	cutoff = MAXUINT(sizeof(UINT32)) / (unsigned long)base;
	cutlim = MAXUINT(sizeof(UINT32)) % (unsigned long)base;
	for (acc = 0, any = 0;; c = (unsigned char) *s++) {
 1500214:	e4d3e001 	ldrb	lr, [r3], #1
		if (isdigit(c))
 1500218:	e7d7400e 	ldrb	r4, [r7, lr]
 150021c:	e3140004 	tst	r4, #4
			c -= '0';
 1500220:	124ee030 	subne	lr, lr, #48	; 0x30
		base = c == '0' ? 8 : 10;

	cutoff = MAXUINT(sizeof(UINT32)) / (unsigned long)base;
	cutlim = MAXUINT(sizeof(UINT32)) % (unsigned long)base;
	for (acc = 0, any = 0;; c = (unsigned char) *s++) {
		if (isdigit(c))
 1500224:	1a000005 	bne	1500240 <strtoul+0x104>
			c -= '0';
		else if (isalpha(c))
 1500228:	e3140003 	tst	r4, #3
 150022c:	0a00000c 	beq	1500264 <strtoul+0x128>
			c -= isupper(c) ? 'A' - 10 : 'a' - 10;
 1500230:	e3140001 	tst	r4, #1
 1500234:	13a04037 	movne	r4, #55	; 0x37
 1500238:	03a04057 	moveq	r4, #87	; 0x57
 150023c:	e064e00e 	rsb	lr, r4, lr
		else
			break;
		if (c >= base)
 1500240:	e152000e 	cmp	r2, lr
 1500244:	da000006 	ble	1500264 <strtoul+0x128>
			break;
		if (any < 0)
 1500248:	e3750001 	cmn	r5, #1
 150024c:	0afffff0 	beq	1500214 <strtoul+0xd8>
			continue;
		if ((acc > cutoff) || (acc == cutoff && c > cutlim)) {
 1500250:	e1560000 	cmp	r6, r0
 1500254:	9affffe5 	bls	15001f0 <strtoul+0xb4>
			any = -1;
 1500258:	e3e05000 	mvn	r5, #0
			acc = MAXUINT(sizeof(UINT32));
 150025c:	e1a06005 	mov	r6, r5
 1500260:	eaffffeb 	b	1500214 <strtoul+0xd8>
			any = 1;
			acc *= (unsigned long)base;
			acc += c;
		}
	}
	if (neg && any > 0)
 1500264:	e3550000 	cmp	r5, #0
 1500268:	d3a0c000 	movle	ip, #0
 150026c:	c20cc001 	andgt	ip, ip, #1
		acc = -acc;
	if (endptr != 0)
 1500270:	e3510000 	cmp	r1, #0
 1500274:	e26c0000 	rsb	r0, ip, #0
 1500278:	e0266000 	eor	r6, r6, r0
 150027c:	e086000c 	add	r0, r6, ip
 1500280:	08bd87f0 	popeq	{r4, r5, r6, r7, r8, r9, sl, pc}
		*endptr = (char *) (any ? s - 1 : (char *) str);
 1500284:	e3550000 	cmp	r5, #0
 1500288:	12438001 	subne	r8, r3, #1
 150028c:	e5818000 	str	r8, [r1]
 1500290:	e8bd87f0 	pop	{r4, r5, r6, r7, r8, r9, sl, pc}
	do {
		c = (unsigned char) *s++;
	} while (isspace(c));
	if (c == '-') {
		neg = 1;
		c = *s++;
 1500294:	e2803002 	add	r3, r0, #2
 1500298:	e5d0e001 	ldrb	lr, [r0, #1]
 150029c:	e3a0c001 	mov	ip, #1
 15002a0:	eaffffb6 	b	1500180 <strtoul+0x44>
		neg = 0;
		if (c == '+')
			c = *s++;
	}
	if ((base == 0 || base == 16) &&
	    c == '0' && (*s == 'x' || *s == 'X')) {
 15002a4:	e5d34000 	ldrb	r4, [r3]
 15002a8:	e20440df 	and	r4, r4, #223	; 0xdf
 15002ac:	e3540058 	cmp	r4, #88	; 0x58
 15002b0:	1affffc0 	bne	15001b8 <strtoul+0x7c>
		c = s[1];
		s += 2;
 15002b4:	e3a02010 	mov	r2, #16
		if (c == '+')
			c = *s++;
	}
	if ((base == 0 || base == 16) &&
	    c == '0' && (*s == 'x' || *s == 'X')) {
		c = s[1];
 15002b8:	e5d3e001 	ldrb	lr, [r3, #1]
		s += 2;
		base = 16;
 15002bc:	e1a0a002 	mov	sl, r2
			c = *s++;
	}
	if ((base == 0 || base == 16) &&
	    c == '0' && (*s == 'x' || *s == 'X')) {
		c = s[1];
		s += 2;
 15002c0:	e2833002 	add	r3, r3, #2
 15002c4:	e3a0900f 	mov	r9, #15
 15002c8:	e3e0020f 	mvn	r0, #-268435456	; 0xf0000000
 15002cc:	eaffffc4 	b	15001e4 <strtoul+0xa8>

015002d0 <ctrlc>:
 15002d0:	e3a00000 	mov	r0, #0
 15002d4:	e12fff1e 	bx	lr

015002d8 <printf>:
 15002d8:	e92d000f 	push	{r0, r1, r2, r3}
 15002dc:	e3a00001 	mov	r0, #1
 15002e0:	e28dd010 	add	sp, sp, #16
 15002e4:	e12fff1e 	bx	lr

015002e8 <memcpy>:
 15002e8:	e3520000 	cmp	r2, #0
 15002ec:	012fff1e 	bxeq	lr
 15002f0:	e0812002 	add	r2, r1, r2
 15002f4:	e2403001 	sub	r3, r0, #1
 15002f8:	e4d1c001 	ldrb	ip, [r1], #1
 15002fc:	e5e3c001 	strb	ip, [r3, #1]!
 1500300:	e1510002 	cmp	r1, r2
 1500304:	1afffffb 	bne	15002f8 <memcpy+0x10>
 1500308:	e12fff1e 	bx	lr

0150030c <memcmp>:
 150030c:	e3520000 	cmp	r2, #0
 1500310:	0a000011 	beq	150035c <memcmp+0x50>
 1500314:	e5d03000 	ldrb	r3, [r0]
 1500318:	e1a0c000 	mov	ip, r0
 150031c:	e5d10000 	ldrb	r0, [r1]
 1500320:	e0530000 	subs	r0, r3, r0
 1500324:	112fff1e 	bxne	lr
 1500328:	e08c2002 	add	r2, ip, r2
 150032c:	e28cc001 	add	ip, ip, #1
 1500330:	e52de004 	push	{lr}		; (str lr, [sp, #-4]!)
 1500334:	ea000003 	b	1500348 <memcmp+0x3c>
 1500338:	e4dc3001 	ldrb	r3, [ip], #1
 150033c:	e5f1e001 	ldrb	lr, [r1, #1]!
 1500340:	e053300e 	subs	r3, r3, lr
 1500344:	1a000002 	bne	1500354 <memcmp+0x48>
 1500348:	e15c0002 	cmp	ip, r2
 150034c:	1afffff9 	bne	1500338 <memcmp+0x2c>
 1500350:	e49df004 	pop	{pc}		; (ldr pc, [sp], #4)
 1500354:	e1a00003 	mov	r0, r3
 1500358:	e49df004 	pop	{pc}		; (ldr pc, [sp], #4)
 150035c:	e1a00002 	mov	r0, r2
 1500360:	e12fff1e 	bx	lr

01500364 <do_program>:
 1500364:	e92d40f0 	push	{r4, r5, r6, r7, lr}
 1500368:	e3020f5c 	movw	r0, #12124	; 0x2f5c
 150036c:	e3400150 	movt	r0, #336	; 0x150
 1500370:	e24dd00c 	sub	sp, sp, #12
 1500374:	eb000926 	bl	1502814 <prints>
 1500378:	e3020f80 	movw	r0, #12160	; 0x2f80
 150037c:	e3400150 	movt	r0, #336	; 0x150
 1500380:	eb000923 	bl	1502814 <prints>
 1500384:	e3020fa0 	movw	r0, #12192	; 0x2fa0
 1500388:	e3400150 	movt	r0, #336	; 0x150
 150038c:	eb000920 	bl	1502814 <prints>
 1500390:	eb00089d 	bl	150260c <obfuse_judge>
 1500394:	e2504000 	subs	r4, r0, #0
 1500398:	1a000056 	bne	15004f8 <do_program+0x194>
 150039c:	eb0008f6 	bl	150277c <sync>
 15003a0:	e30321fc 	movw	r2, #12796	; 0x31fc
 15003a4:	e3402151 	movt	r2, #337	; 0x151
 15003a8:	e30312fc 	movw	r1, #13052	; 0x32fc
 15003ac:	e3401151 	movt	r1, #337	; 0x151
 15003b0:	e0621001 	rsb	r1, r2, r1
 15003b4:	e1a00004 	mov	r0, r4
 15003b8:	eb00014b 	bl	15008ec <start_program>
 15003bc:	e3020fbc 	movw	r0, #12220	; 0x2fbc
 15003c0:	e3400150 	movt	r0, #336	; 0x150
 15003c4:	eb000912 	bl	1502814 <prints>
 15003c8:	e3035558 	movw	r5, #13656	; 0x3558
 15003cc:	e3405151 	movt	r5, #337	; 0x151
 15003d0:	e3032508 	movw	r2, #13576	; 0x3508
 15003d4:	e3402151 	movt	r2, #337	; 0x151
 15003d8:	e3033518 	movw	r3, #13592	; 0x3518
 15003dc:	e3403151 	movt	r3, #337	; 0x151
 15003e0:	e0623003 	rsb	r3, r2, r3
 15003e4:	e58d4000 	str	r4, [sp]
 15003e8:	e58d3004 	str	r3, [sp, #4]
 15003ec:	e1a01005 	mov	r1, r5
 15003f0:	e1a03004 	mov	r3, r4
 15003f4:	e3a00001 	mov	r0, #1
 15003f8:	eb000631 	bl	1501cc4 <obfuse_getset>
 15003fc:	e1a06000 	mov	r6, r0
 1500400:	eb0008dd 	bl	150277c <sync>
 1500404:	e3560000 	cmp	r6, #0
 1500408:	11a04006 	movne	r4, r6
 150040c:	0a000002 	beq	150041c <do_program+0xb8>
 1500410:	e1a00004 	mov	r0, r4
 1500414:	e28dd00c 	add	sp, sp, #12
 1500418:	e8bd80f0 	pop	{r4, r5, r6, r7, pc}
 150041c:	e30366f0 	movw	r6, #14064	; 0x36f0
 1500420:	e3406151 	movt	r6, #337	; 0x151
 1500424:	e3020fc8 	movw	r0, #12232	; 0x2fc8
 1500428:	e3400150 	movt	r0, #336	; 0x150
 150042c:	eb0008f8 	bl	1502814 <prints>
 1500430:	e3033568 	movw	r3, #13672	; 0x3568
 1500434:	e3403151 	movt	r3, #337	; 0x151
 1500438:	e0653003 	rsb	r3, r5, r3
 150043c:	e1a01005 	mov	r1, r5
 1500440:	e58d3004 	str	r3, [sp, #4]
 1500444:	e303251c 	movw	r2, #13596	; 0x351c
 1500448:	e3402151 	movt	r2, #337	; 0x151
 150044c:	e3033544 	movw	r3, #13636	; 0x3544
 1500450:	e3403151 	movt	r3, #337	; 0x151
 1500454:	e3a00002 	mov	r0, #2
 1500458:	e58d3000 	str	r3, [sp]
 150045c:	e5c64000 	strb	r4, [r6]
 1500460:	e3033530 	movw	r3, #13616	; 0x3530
 1500464:	e3403151 	movt	r3, #337	; 0x151
 1500468:	eb000615 	bl	1501cc4 <obfuse_getset>
 150046c:	e1a05000 	mov	r5, r0
 1500470:	eb0008c1 	bl	150277c <sync>
 1500474:	e3550000 	cmp	r5, #0
 1500478:	11a04005 	movne	r4, r5
 150047c:	1affffe3 	bne	1500410 <do_program+0xac>
 1500480:	e303356c 	movw	r3, #13676	; 0x356c
 1500484:	e3403151 	movt	r3, #337	; 0x151
 1500488:	e303756c 	movw	r7, #13676	; 0x356c
 150048c:	e3407151 	movt	r7, #337	; 0x151
 1500490:	e0675003 	rsb	r5, r7, r3
 1500494:	e3020fd4 	movw	r0, #12244	; 0x2fd4
 1500498:	e3400150 	movt	r0, #336	; 0x150
 150049c:	eb0008dc 	bl	1502814 <prints>
 15004a0:	eb00018f 	bl	1500ae4 <do_burn_mp_efuse_bits>
 15004a4:	eb0008b4 	bl	150277c <sync>
 15004a8:	e3550000 	cmp	r5, #0
 15004ac:	0a00001c 	beq	1500524 <do_program+0x1c0>
 15004b0:	e3550010 	cmp	r5, #16
 15004b4:	8a000016 	bhi	1500514 <do_program+0x1b0>
 15004b8:	e3030000 	movw	r0, #12288	; 0x3000
 15004bc:	e3400150 	movt	r0, #336	; 0x150
 15004c0:	eb0008d3 	bl	1502814 <prints>
 15004c4:	e1a01007 	mov	r1, r7
 15004c8:	e88d0030 	stm	sp, {r4, r5}
 15004cc:	e1a03004 	mov	r3, r4
 15004d0:	e1a02004 	mov	r2, r4
 15004d4:	e1a00004 	mov	r0, r4
 15004d8:	e5c64000 	strb	r4, [r6]
 15004dc:	eb0005f8 	bl	1501cc4 <obfuse_getset>
 15004e0:	e1a05000 	mov	r5, r0
 15004e4:	eb0008a4 	bl	150277c <sync>
 15004e8:	e3550000 	cmp	r5, #0
 15004ec:	0affffc7 	beq	1500410 <do_program+0xac>
 15004f0:	eb0008a1 	bl	150277c <sync>
 15004f4:	eaffffc5 	b	1500410 <do_program+0xac>
 15004f8:	e3a04000 	mov	r4, #0
 15004fc:	e3020fac 	movw	r0, #12204	; 0x2fac
 1500500:	e3400150 	movt	r0, #336	; 0x150
 1500504:	eb0008c2 	bl	1502814 <prints>
 1500508:	e1a00004 	mov	r0, r4
 150050c:	e28dd00c 	add	sp, sp, #12
 1500510:	e8bd80f0 	pop	{r4, r5, r6, r7, pc}
 1500514:	e3020fe0 	movw	r0, #12256	; 0x2fe0
 1500518:	e3400150 	movt	r0, #336	; 0x150
 150051c:	eb0008bc 	bl	1502814 <prints>
 1500520:	eaffffba 	b	1500410 <do_program+0xac>
 1500524:	e3030010 	movw	r0, #12304	; 0x3010
 1500528:	e3400150 	movt	r0, #336	; 0x150
 150052c:	eb0008b8 	bl	1502814 <prints>
 1500530:	eaffffb6 	b	1500410 <do_program+0xac>

01500534 <efusemain>:
 1500534:	e3032b38 	movw	r2, #15160	; 0x3b38
 1500538:	e3402151 	movt	r2, #337	; 0x151
 150053c:	e30336f0 	movw	r3, #14064	; 0x36f0
 1500540:	e3403151 	movt	r3, #337	; 0x151
 1500544:	e92d4010 	push	{r4, lr}
 1500548:	e3a04000 	mov	r4, #0
 150054c:	e5824000 	str	r4, [r2]
 1500550:	e5c34000 	strb	r4, [r3]
 1500554:	eb00088f 	bl	1502798 <init_uart>
 1500558:	e1a00004 	mov	r0, r4
 150055c:	eb0008a2 	bl	15027ec <set_focus_uart>
 1500560:	ebffff7f 	bl	1500364 <do_program>
 1500564:	e1500004 	cmp	r0, r4
 1500568:	03030020 	movweq	r0, #12320	; 0x3020
 150056c:	13030044 	movwne	r0, #12356	; 0x3044
 1500570:	03400150 	movteq	r0, #336	; 0x150
 1500574:	13400150 	movtne	r0, #336	; 0x150
 1500578:	eb0008a5 	bl	1502814 <prints>
 150057c:	e3a00000 	mov	r0, #0
 1500580:	e8bd8010 	pop	{r4, pc}

01500584 <e_buffer>:
 1500584:	e92d4ff0 	push	{r4, r5, r6, r7, r8, r9, sl, fp, lr}
 1500588:	e1a0b003 	mov	fp, r3
 150058c:	e24dd054 	sub	sp, sp, #84	; 0x54
 1500590:	e59d7080 	ldr	r7, [sp, #128]	; 0x80
 1500594:	e88d0003 	stm	sp, {r0, r1}
 1500598:	e59da078 	ldr	sl, [sp, #120]	; 0x78
 150059c:	e0020793 	mul	r2, r3, r7
 15005a0:	e3520040 	cmp	r2, #64	; 0x40
 15005a4:	83a07040 	movhi	r7, #64	; 0x40
 15005a8:	8737f317 	udivhi	r7, r7, r3
 15005ac:	e3570000 	cmp	r7, #0
 15005b0:	03a07010 	moveq	r7, #16
 15005b4:	0737f317 	udiveq	r7, r7, r3
 15005b8:	e35a0000 	cmp	sl, #0
 15005bc:	11a0908b 	lslne	r9, fp, #1
 15005c0:	0a00005c 	beq	1500738 <e_buffer+0x1b4>
 15005c4:	e3030068 	movw	r0, #12392	; 0x3068
 15005c8:	e3400150 	movt	r0, #336	; 0x150
 15005cc:	e59d1000 	ldr	r1, [sp]
 15005d0:	ebffff40 	bl	15002d8 <printf>
 15005d4:	e157000a 	cmp	r7, sl
 15005d8:	21a0700a 	movcs	r7, sl
 15005dc:	e59d3000 	ldr	r3, [sp]
 15005e0:	e3570000 	cmp	r7, #0
 15005e4:	e283831a 	add	r8, r3, #1744830464	; 0x68000000
 15005e8:	01a04007 	moveq	r4, r7
 15005ec:	02488a17 	subeq	r8, r8, #94208	; 0x17000
 15005f0:	01a0e007 	moveq	lr, r7
 15005f4:	0a00003c 	beq	15006ec <e_buffer+0x168>
 15005f8:	e59d6004 	ldr	r6, [sp, #4]
 15005fc:	e2488a17 	sub	r8, r8, #94208	; 0x17000
 1500600:	e3a05000 	mov	r5, #0
 1500604:	e28d400c 	add	r4, sp, #12
 1500608:	ea000004 	b	1500620 <e_buffer+0x9c>
 150060c:	e2855001 	add	r5, r5, #1
 1500610:	ebffff30 	bl	15002d8 <printf>
 1500614:	e1550007 	cmp	r5, r7
 1500618:	e086600b 	add	r6, r6, fp
 150061c:	0a000017 	beq	1500680 <e_buffer+0xfc>
 1500620:	e35b0004 	cmp	fp, #4
 1500624:	05962000 	ldreq	r2, [r6]
 1500628:	07842105 	streq	r2, [r4, r5, lsl #2]
 150062c:	0a000007 	beq	1500650 <e_buffer+0xcc>
 1500630:	e35b0002 	cmp	fp, #2
 1500634:	01a03085 	lsleq	r3, r5, #1
 1500638:	01d620b0 	ldrheq	r2, [r6]
 150063c:	15d62000 	ldrbne	r2, [r6]
 1500640:	06ff2072 	uxtheq	r2, r2
 1500644:	018420b3 	strheq	r2, [r4, r3]
 1500648:	16ef2072 	uxtbne	r2, r2
 150064c:	17c42005 	strbne	r2, [r4, r5]
 1500650:	e3580b01 	cmp	r8, #1024	; 0x400
 1500654:	e3030074 	movw	r0, #12404	; 0x3074
 1500658:	e3400150 	movt	r0, #336	; 0x150
 150065c:	e1a01009 	mov	r1, r9
 1500660:	2affffe9 	bcs	150060c <e_buffer+0x88>
 1500664:	e303007c 	movw	r0, #12412	; 0x307c
 1500668:	e3400150 	movt	r0, #336	; 0x150
 150066c:	e2855001 	add	r5, r5, #1
 1500670:	ebffff18 	bl	15002d8 <printf>
 1500674:	e1550007 	cmp	r5, r7
 1500678:	e086600b 	add	r6, r6, fp
 150067c:	1affffe7 	bne	1500620 <e_buffer+0x9c>
 1500680:	e00e079b 	mul	lr, fp, r7
 1500684:	e59d3004 	ldr	r3, [sp, #4]
 1500688:	e35e0000 	cmp	lr, #0
 150068c:	01a0400e 	moveq	r4, lr
 1500690:	e083300e 	add	r3, r3, lr
 1500694:	01a0e004 	moveq	lr, r4
 1500698:	e58d3004 	str	r3, [sp, #4]
 150069c:	0a000012 	beq	15006ec <e_buffer+0x168>
 15006a0:	e24e2001 	sub	r2, lr, #1
 15006a4:	e302ce5c 	movw	ip, #11868	; 0x2e5c
 15006a8:	e340c150 	movt	ip, #336	; 0x150
 15006ac:	e0844002 	add	r4, r4, r2
 15006b0:	e3a0502e 	mov	r5, #46	; 0x2e
 15006b4:	e28d200b 	add	r2, sp, #11
 15006b8:	ea000003 	b	15006cc <e_buffer+0x148>
 15006bc:	e3130080 	tst	r3, #128	; 0x80
 15006c0:	1a000005 	bne	15006dc <e_buffer+0x158>
 15006c4:	e1520004 	cmp	r2, r4
 15006c8:	0a000006 	beq	15006e8 <e_buffer+0x164>
 15006cc:	e5f23001 	ldrb	r3, [r2, #1]!
 15006d0:	e7dc1003 	ldrb	r1, [ip, r3]
 15006d4:	e3110097 	tst	r1, #151	; 0x97
 15006d8:	1afffff7 	bne	15006bc <e_buffer+0x138>
 15006dc:	e1520004 	cmp	r2, r4
 15006e0:	e5c25000 	strb	r5, [r2]
 15006e4:	1afffff8 	bne	15006cc <e_buffer+0x148>
 15006e8:	e1a0400e 	mov	r4, lr
 15006ec:	e28d3050 	add	r3, sp, #80	; 0x50
 15006f0:	e3580b01 	cmp	r8, #1024	; 0x400
 15006f4:	e083e00e 	add	lr, r3, lr
 15006f8:	e3a02000 	mov	r2, #0
 15006fc:	e54e2044 	strb	r2, [lr, #-68]	; 0x44
 1500700:	3a00000f 	bcc	1500744 <e_buffer+0x1c0>
 1500704:	e3030080 	movw	r0, #12416	; 0x3080
 1500708:	e3400150 	movt	r0, #336	; 0x150
 150070c:	e28d100c 	add	r1, sp, #12
 1500710:	ebfffef0 	bl	15002d8 <printf>
 1500714:	ebfffeed 	bl	15002d0 <ctrlc>
 1500718:	e59d3000 	ldr	r3, [sp]
 150071c:	e3500000 	cmp	r0, #0
 1500720:	e067a00a 	rsb	sl, r7, sl
 1500724:	e0833004 	add	r3, r3, r4
 1500728:	e58d3000 	str	r3, [sp]
 150072c:	1a000008 	bne	1500754 <e_buffer+0x1d0>
 1500730:	e35a0000 	cmp	sl, #0
 1500734:	1affffa2 	bne	15005c4 <e_buffer+0x40>
 1500738:	e3a00000 	mov	r0, #0
 150073c:	e28dd054 	add	sp, sp, #84	; 0x54
 1500740:	e8bd8ff0 	pop	{r4, r5, r6, r7, r8, r9, sl, fp, pc}
 1500744:	e303008c 	movw	r0, #12428	; 0x308c
 1500748:	e3400150 	movt	r0, #336	; 0x150
 150074c:	ebfffee1 	bl	15002d8 <printf>
 1500750:	eaffffef 	b	1500714 <e_buffer+0x190>
 1500754:	e3e00000 	mvn	r0, #0
 1500758:	e28dd054 	add	sp, sp, #84	; 0x54
 150075c:	e8bd8ff0 	pop	{r4, r5, r6, r7, r8, r9, sl, fp, pc}

01500760 <read_efuse>:
 1500760:	e92d41f0 	push	{r4, r5, r6, r7, r8, lr}
 1500764:	e3032570 	movw	r2, #13680	; 0x3570
 1500768:	e3402151 	movt	r2, #337	; 0x151
 150076c:	e59f4094 	ldr	r4, [pc, #148]	; 1500808 <read_efuse+0xa8>
 1500770:	e3a01010 	mov	r1, #16
 1500774:	e2820010 	add	r0, r2, #16
 1500778:	e3a03000 	mov	r3, #0
 150077c:	e0847001 	add	r7, r4, r1
 1500780:	e2445010 	sub	r5, r4, #16
 1500784:	eb000317 	bl	15013e8 <AES_ECB_encrypt>
 1500788:	e1a01000 	mov	r1, r0
 150078c:	e3030094 	movw	r0, #12436	; 0x3094
 1500790:	e3400150 	movt	r0, #336	; 0x150
 1500794:	e1a06005 	mov	r6, r5
 1500798:	ebfffece 	bl	15002d8 <printf>
 150079c:	e5f41001 	ldrb	r1, [r4, #1]!
 15007a0:	e303009c 	movw	r0, #12444	; 0x309c
 15007a4:	e3400150 	movt	r0, #336	; 0x150
 15007a8:	e5f62001 	ldrb	r2, [r6, #1]!
 15007ac:	ebfffec9 	bl	15002d8 <printf>
 15007b0:	e1540007 	cmp	r4, r7
 15007b4:	1afffff8 	bne	150079c <read_efuse+0x3c>
 15007b8:	e59f204c 	ldr	r2, [pc, #76]	; 150080c <read_efuse+0xac>
 15007bc:	e3a01010 	mov	r1, #16
 15007c0:	e3a03000 	mov	r3, #0
 15007c4:	e2420020 	sub	r0, r2, #32
 15007c8:	e2424001 	sub	r4, r2, #1
 15007cc:	eb0002e0 	bl	1501354 <AES_ECB_decrypt>
 15007d0:	e1a01000 	mov	r1, r0
 15007d4:	e3030094 	movw	r0, #12436	; 0x3094
 15007d8:	e3400150 	movt	r0, #336	; 0x150
 15007dc:	e2446010 	sub	r6, r4, #16
 15007e0:	ebfffebc 	bl	15002d8 <printf>
 15007e4:	e5f51001 	ldrb	r1, [r5, #1]!
 15007e8:	e30300b8 	movw	r0, #12472	; 0x30b8
 15007ec:	e3400150 	movt	r0, #336	; 0x150
 15007f0:	e5f42001 	ldrb	r2, [r4, #1]!
 15007f4:	ebfffeb7 	bl	15002d8 <printf>
 15007f8:	e1550006 	cmp	r5, r6
 15007fc:	1afffff8 	bne	15007e4 <read_efuse+0x84>
 1500800:	e3a00000 	mov	r0, #0
 1500804:	e8bd81f0 	pop	{r4, r5, r6, r7, r8, pc}
 1500808:	0151357f 	cmpeq	r1, pc, ror r5
 150080c:	01513590 			; <UNDEFINED> instruction: 0x01513590

01500810 <OTP_JUDGE_BIT>:
 1500810:	e2002007 	and	r2, r0, #7
 1500814:	e1a001a0 	lsr	r0, r0, #3
 1500818:	e3c03003 	bic	r3, r0, #3
 150081c:	e2000003 	and	r0, r0, #3
 1500820:	e2833326 	add	r3, r3, #-1744830464	; 0x98000000
 1500824:	e2833a17 	add	r3, r3, #94208	; 0x17000
 1500828:	e1a00180 	lsl	r0, r0, #3
 150082c:	e5933000 	ldr	r3, [r3]
 1500830:	e1a00033 	lsr	r0, r3, r0
 1500834:	e1a00230 	lsr	r0, r0, r2
 1500838:	e2000001 	and	r0, r0, #1
 150083c:	e12fff1e 	bx	lr

01500840 <do_burn_efuse_getmptest2>:
 1500840:	e92d4010 	push	{r4, lr}
 1500844:	e3000e0a 	movw	r0, #3594	; 0xe0a
 1500848:	ebfffff0 	bl	1500810 <OTP_JUDGE_BIT>
 150084c:	e3500000 	cmp	r0, #0
 1500850:	130300d8 	movwne	r0, #12504	; 0x30d8
 1500854:	030300d4 	movweq	r0, #12500	; 0x30d4
 1500858:	13400150 	movtne	r0, #336	; 0x150
 150085c:	03400150 	movteq	r0, #336	; 0x150
 1500860:	ebfffe9c 	bl	15002d8 <printf>
 1500864:	e3a00000 	mov	r0, #0
 1500868:	e8bd8010 	pop	{r4, pc}

0150086c <OTP_Program_Start>:
 150086c:	e2002007 	and	r2, r0, #7
 1500870:	e3a03a07 	mov	r3, #28672	; 0x7000
 1500874:	e3493801 	movt	r3, #38913	; 0x9801
 1500878:	e7e901d0 	ubfx	r0, r0, #3, #10
 150087c:	e1a01003 	mov	r1, r3
 1500880:	e1800502 	orr	r0, r0, r2, lsl #10
 1500884:	e3800503 	orr	r0, r0, #12582912	; 0xc00000
 1500888:	e3802a02 	orr	r2, r0, #8192	; 0x2000
 150088c:	e5832400 	str	r2, [r3, #1024]	; 0x400
 1500890:	e5912404 	ldr	r2, [r1, #1028]	; 0x404
 1500894:	e3a03a07 	mov	r3, #28672	; 0x7000
 1500898:	e3493801 	movt	r3, #38913	; 0x9801
 150089c:	e3120801 	tst	r2, #65536	; 0x10000
 15008a0:	0afffffa 	beq	1500890 <OTP_Program_Start+0x24>
 15008a4:	e3802a0e 	orr	r2, r0, #57344	; 0xe000
 15008a8:	e3a00005 	mov	r0, #5
 15008ac:	e92d4010 	push	{r4, lr}
 15008b0:	e5832400 	str	r2, [r3, #1024]	; 0x400
 15008b4:	eb00079a 	bl	1502724 <udelay>
 15008b8:	e3a00000 	mov	r0, #0
 15008bc:	e8bd8010 	pop	{r4, pc}

015008c0 <OTP_Program_End>:
 15008c0:	e3a03a07 	mov	r3, #28672	; 0x7000
 15008c4:	e3493801 	movt	r3, #38913	; 0x9801
 15008c8:	e92d4010 	push	{r4, lr}
 15008cc:	e5931400 	ldr	r1, [r3, #1024]	; 0x400
 15008d0:	e3a00005 	mov	r0, #5
 15008d4:	e3a02a0a 	mov	r2, #40960	; 0xa000
 15008d8:	e3402080 	movt	r2, #128	; 0x80
 15008dc:	e5832400 	str	r2, [r3, #1024]	; 0x400
 15008e0:	eb00078f 	bl	1502724 <udelay>
 15008e4:	e3a00000 	mov	r0, #0
 15008e8:	e8bd8010 	pop	{r4, pc}

015008ec <start_program>:
 15008ec:	e92d41f0 	push	{r4, r5, r6, r7, r8, lr}
 15008f0:	e1a05001 	mov	r5, r1
 15008f4:	e1a06000 	mov	r6, r0
 15008f8:	e3a00efe 	mov	r0, #4064	; 0xfe0
 15008fc:	e1a07002 	mov	r7, r2
 1500900:	ebffffc2 	bl	1500810 <OTP_JUDGE_BIT>
 1500904:	e1b05185 	lsls	r5, r5, #3
 1500908:	13a03000 	movne	r3, #0
 150090c:	11a04003 	movne	r4, r3
 1500910:	1a000004 	bne	1500928 <start_program+0x3c>
 1500914:	ea00000e 	b	1500954 <start_program+0x68>
 1500918:	e2844001 	add	r4, r4, #1
 150091c:	e1540005 	cmp	r4, r5
 1500920:	e1a031a4 	lsr	r3, r4, #3
 1500924:	0a00000a 	beq	1500954 <start_program+0x68>
 1500928:	e7d73003 	ldrb	r3, [r7, r3]
 150092c:	e2040007 	and	r0, r4, #7
 1500930:	e1a03053 	asr	r3, r3, r0
 1500934:	e3130001 	tst	r3, #1
 1500938:	0afffff6 	beq	1500918 <start_program+0x2c>
 150093c:	e0840006 	add	r0, r4, r6
 1500940:	e2844001 	add	r4, r4, #1
 1500944:	ebffffc8 	bl	150086c <OTP_Program_Start>
 1500948:	e1540005 	cmp	r4, r5
 150094c:	e1a031a4 	lsr	r3, r4, #3
 1500950:	1afffff4 	bne	1500928 <start_program+0x3c>
 1500954:	e8bd41f0 	pop	{r4, r5, r6, r7, r8, lr}
 1500958:	eaffffd8 	b	15008c0 <OTP_Program_End>

0150095c <do_burn_efuse_rsa>:
 150095c:	e92d4010 	push	{r4, lr}
 1500960:	e59f2010 	ldr	r2, [pc, #16]	; 1500978 <do_burn_efuse_rsa+0x1c>
 1500964:	e3a01c01 	mov	r1, #256	; 0x100
 1500968:	e3a00000 	mov	r0, #0
 150096c:	ebffffde 	bl	15008ec <start_program>
 1500970:	e3a00000 	mov	r0, #0
 1500974:	e8bd8010 	pop	{r4, pc}
 1500978:	015135a0 	cmpeq	r1, r0, lsr #11

0150097c <burn_id_test>:
 150097c:	e92d4010 	push	{r4, lr}
 1500980:	e300cff8 	movw	ip, #4088	; 0xff8
 1500984:	e240ea01 	sub	lr, r0, #4096	; 0x1000
 1500988:	e15e000c 	cmp	lr, ip
 150098c:	8a000004 	bhi	15009a4 <burn_id_test+0x28>
 1500990:	e0803001 	add	r3, r0, r1
 1500994:	e301cff8 	movw	ip, #8184	; 0x1ff8
 1500998:	e153000c 	cmp	r3, ip
 150099c:	e1a04001 	mov	r4, r1
 15009a0:	9a000001 	bls	15009ac <burn_id_test+0x30>
 15009a4:	e3a00001 	mov	r0, #1
 15009a8:	e8bd8010 	pop	{r4, pc}
 15009ac:	ebffffce 	bl	15008ec <start_program>
 15009b0:	e3a00000 	mov	r0, #0
 15009b4:	e8bd8010 	pop	{r4, pc}

015009b8 <do_burn_efuse_aes>:
 15009b8:	e3500001 	cmp	r0, #1
 15009bc:	e92d4010 	push	{r4, lr}
 15009c0:	0a00000e 	beq	1500a00 <do_burn_efuse_aes+0x48>
 15009c4:	3a000007 	bcc	15009e8 <do_burn_efuse_aes+0x30>
 15009c8:	e3500002 	cmp	r0, #2
 15009cc:	1a000003 	bne	15009e0 <do_burn_efuse_aes+0x28>
 15009d0:	e59f2040 	ldr	r2, [pc, #64]	; 1500a18 <do_burn_efuse_aes+0x60>
 15009d4:	e3a01010 	mov	r1, #16
 15009d8:	e3a00c0a 	mov	r0, #2560	; 0xa00
 15009dc:	ebffffc2 	bl	15008ec <start_program>
 15009e0:	e3a00000 	mov	r0, #0
 15009e4:	e8bd8010 	pop	{r4, pc}
 15009e8:	e59f202c 	ldr	r2, [pc, #44]	; 1500a1c <do_burn_efuse_aes+0x64>
 15009ec:	e3a01010 	mov	r1, #16
 15009f0:	e3a00b02 	mov	r0, #2048	; 0x800
 15009f4:	ebffffbc 	bl	15008ec <start_program>
 15009f8:	e3a00000 	mov	r0, #0
 15009fc:	e8bd8010 	pop	{r4, pc}
 1500a00:	e59f2018 	ldr	r2, [pc, #24]	; 1500a20 <do_burn_efuse_aes+0x68>
 1500a04:	e3a01010 	mov	r1, #16
 1500a08:	e3a00c09 	mov	r0, #2304	; 0x900
 1500a0c:	ebffffb6 	bl	15008ec <start_program>
 1500a10:	e3a00000 	mov	r0, #0
 1500a14:	e8bd8010 	pop	{r4, pc}
 1500a18:	015136c0 	cmpeq	r1, r0, asr #13
 1500a1c:	015136a0 	cmpeq	r1, r0, lsr #13
 1500a20:	015136b0 	ldrheq	r3, [r1, #-96]	; 0xffffffa0

01500a24 <do_burn_efuse_deviceID>:
 1500a24:	e92d4010 	push	{r4, lr}
 1500a28:	e59f2010 	ldr	r2, [pc, #16]	; 1500a40 <do_burn_efuse_deviceID+0x1c>
 1500a2c:	e3a01010 	mov	r1, #16
 1500a30:	e3a00ed2 	mov	r0, #3360	; 0xd20
 1500a34:	ebffffac 	bl	15008ec <start_program>
 1500a38:	e3a00000 	mov	r0, #0
 1500a3c:	e8bd8010 	pop	{r4, pc}
 1500a40:	015136d0 	ldrsbeq	r3, [r1, #-96]	; 0xffffffa0

01500a44 <do_burn_efuse_rsa_pgm_dis>:
 1500a44:	e92d4010 	push	{r4, lr}
 1500a48:	e3a00efe 	mov	r0, #4064	; 0xfe0
 1500a4c:	ebffff6f 	bl	1500810 <OTP_JUDGE_BIT>
 1500a50:	e3000da4 	movw	r0, #3492	; 0xda4
 1500a54:	ebffff84 	bl	150086c <OTP_Program_Start>
 1500a58:	ebffff98 	bl	15008c0 <OTP_Program_End>
 1500a5c:	e3a00000 	mov	r0, #0
 1500a60:	e8bd8010 	pop	{r4, pc}

01500a64 <do_burn_efuse_secure_dbg>:
 1500a64:	e92d4010 	push	{r4, lr}
 1500a68:	e3a00efe 	mov	r0, #4064	; 0xfe0
 1500a6c:	ebffff67 	bl	1500810 <OTP_JUDGE_BIT>
 1500a70:	e3000db1 	movw	r0, #3505	; 0xdb1
 1500a74:	ebffff7c 	bl	150086c <OTP_Program_Start>
 1500a78:	ebffff90 	bl	15008c0 <OTP_Program_End>
 1500a7c:	e3a00000 	mov	r0, #0
 1500a80:	e8bd8010 	pop	{r4, pc}

01500a84 <do_burn_efuse_normal_dbg>:
 1500a84:	e92d4010 	push	{r4, lr}
 1500a88:	e3a00efe 	mov	r0, #4064	; 0xfe0
 1500a8c:	ebffff5f 	bl	1500810 <OTP_JUDGE_BIT>
 1500a90:	e3000db2 	movw	r0, #3506	; 0xdb2
 1500a94:	ebffff74 	bl	150086c <OTP_Program_Start>
 1500a98:	ebffff88 	bl	15008c0 <OTP_Program_End>
 1500a9c:	e3a00000 	mov	r0, #0
 1500aa0:	e8bd8010 	pop	{r4, pc}

01500aa4 <do_burn_efuse_secureboot>:
 1500aa4:	e92d4010 	push	{r4, lr}
 1500aa8:	e3a00efe 	mov	r0, #4064	; 0xfe0
 1500aac:	ebffff57 	bl	1500810 <OTP_JUDGE_BIT>
 1500ab0:	e3000da6 	movw	r0, #3494	; 0xda6
 1500ab4:	ebffff6c 	bl	150086c <OTP_Program_Start>
 1500ab8:	ebffff80 	bl	15008c0 <OTP_Program_End>
 1500abc:	e3a00000 	mov	r0, #0
 1500ac0:	e8bd8010 	pop	{r4, pc}

01500ac4 <do_burn_efuse_bootenc>:
 1500ac4:	e92d4010 	push	{r4, lr}
 1500ac8:	e3a00efe 	mov	r0, #4064	; 0xfe0
 1500acc:	ebffff4f 	bl	1500810 <OTP_JUDGE_BIT>
 1500ad0:	e3000dbb 	movw	r0, #3515	; 0xdbb
 1500ad4:	ebffff64 	bl	150086c <OTP_Program_Start>
 1500ad8:	ebffff78 	bl	15008c0 <OTP_Program_End>
 1500adc:	e3a00000 	mov	r0, #0
 1500ae0:	e8bd8010 	pop	{r4, pc}

01500ae4 <do_burn_mp_efuse_bits>:
 1500ae4:	e92d4010 	push	{r4, lr}
 1500ae8:	ebffffd5 	bl	1500a44 <do_burn_efuse_rsa_pgm_dis>
 1500aec:	ebfffff4 	bl	1500ac4 <do_burn_efuse_bootenc>
 1500af0:	ebffffeb 	bl	1500aa4 <do_burn_efuse_secureboot>
 1500af4:	eb000720 	bl	150277c <sync>
 1500af8:	eb000612 	bl	1502348 <R2>
 1500afc:	e8bd4010 	pop	{r4, lr}
 1500b00:	ea00071d 	b	150277c <sync>

01500b04 <do_burn_efuse_loadsos>:
 1500b04:	e92d4010 	push	{r4, lr}
 1500b08:	e3a00efe 	mov	r0, #4064	; 0xfe0
 1500b0c:	ebffff3f 	bl	1500810 <OTP_JUDGE_BIT>
 1500b10:	e3000e0e 	movw	r0, #3598	; 0xe0e
 1500b14:	ebffff54 	bl	150086c <OTP_Program_Start>
 1500b18:	ebffff68 	bl	15008c0 <OTP_Program_End>
 1500b1c:	e3a00000 	mov	r0, #0
 1500b20:	e8bd8010 	pop	{r4, pc}

01500b24 <do_burn_efuse_disonecore>:
 1500b24:	e92d4010 	push	{r4, lr}
 1500b28:	e3a00efe 	mov	r0, #4064	; 0xfe0
 1500b2c:	ebffff37 	bl	1500810 <OTP_JUDGE_BIT>
 1500b30:	e3000e0f 	movw	r0, #3599	; 0xe0f
 1500b34:	ebffff4c 	bl	150086c <OTP_Program_Start>
 1500b38:	ebffff60 	bl	15008c0 <OTP_Program_End>
 1500b3c:	e3a00000 	mov	r0, #0
 1500b40:	e8bd8010 	pop	{r4, pc}

01500b44 <do_burn_efuse_usb2sram>:
 1500b44:	e92d4010 	push	{r4, lr}
 1500b48:	e3a00efe 	mov	r0, #4064	; 0xfe0
 1500b4c:	ebffff2f 	bl	1500810 <OTP_JUDGE_BIT>
 1500b50:	e3000dc2 	movw	r0, #3522	; 0xdc2
 1500b54:	ebffff44 	bl	150086c <OTP_Program_Start>
 1500b58:	ebffff58 	bl	15008c0 <OTP_Program_End>
 1500b5c:	e3a00000 	mov	r0, #0
 1500b60:	e8bd8010 	pop	{r4, pc}

01500b64 <do_burn_efuse_mptest2>:
 1500b64:	e92d4010 	push	{r4, lr}
 1500b68:	e3a00efe 	mov	r0, #4064	; 0xfe0
 1500b6c:	ebffff27 	bl	1500810 <OTP_JUDGE_BIT>
 1500b70:	e3000e0a 	movw	r0, #3594	; 0xe0a
 1500b74:	ebffff3c 	bl	150086c <OTP_Program_Start>
 1500b78:	ebffff50 	bl	15008c0 <OTP_Program_End>
 1500b7c:	e3a00000 	mov	r0, #0
 1500b80:	e8bd8010 	pop	{r4, pc}

01500b84 <do_burn_efuse_keysel>:
 1500b84:	e2403001 	sub	r3, r0, #1
 1500b88:	e3530002 	cmp	r3, #2
 1500b8c:	e92d4010 	push	{r4, lr}
 1500b90:	e1a04000 	mov	r4, r0
 1500b94:	8a000008 	bhi	1500bbc <do_burn_efuse_keysel+0x38>
 1500b98:	e3a00efe 	mov	r0, #4064	; 0xfe0
 1500b9c:	ebffff1b 	bl	1500810 <OTP_JUDGE_BIT>
 1500ba0:	e3140001 	tst	r4, #1
 1500ba4:	1a00000c 	bne	1500bdc <do_burn_efuse_keysel+0x58>
 1500ba8:	e3140002 	tst	r4, #2
 1500bac:	1a000007 	bne	1500bd0 <do_burn_efuse_keysel+0x4c>
 1500bb0:	ebffff42 	bl	15008c0 <OTP_Program_End>
 1500bb4:	e3a00000 	mov	r0, #0
 1500bb8:	e8bd8010 	pop	{r4, pc}
 1500bbc:	e30300e0 	movw	r0, #12512	; 0x30e0
 1500bc0:	e3400150 	movt	r0, #336	; 0x150
 1500bc4:	ebfffdc3 	bl	15002d8 <printf>
 1500bc8:	e3a00001 	mov	r0, #1
 1500bcc:	e8bd8010 	pop	{r4, pc}
 1500bd0:	e3000da1 	movw	r0, #3489	; 0xda1
 1500bd4:	ebffff24 	bl	150086c <OTP_Program_Start>
 1500bd8:	eafffff4 	b	1500bb0 <do_burn_efuse_keysel+0x2c>
 1500bdc:	e3a00eda 	mov	r0, #3488	; 0xda0
 1500be0:	ebffff21 	bl	150086c <OTP_Program_Start>
 1500be4:	e3140002 	tst	r4, #2
 1500be8:	0afffff0 	beq	1500bb0 <do_burn_efuse_keysel+0x2c>
 1500bec:	eafffff7 	b	1500bd0 <do_burn_efuse_keysel+0x4c>

01500bf0 <do_burn_efuse_hwchk>:
 1500bf0:	e2403001 	sub	r3, r0, #1
 1500bf4:	e3530002 	cmp	r3, #2
 1500bf8:	e92d4010 	push	{r4, lr}
 1500bfc:	e1a04000 	mov	r4, r0
 1500c00:	8a000008 	bhi	1500c28 <do_burn_efuse_hwchk+0x38>
 1500c04:	e3a00efe 	mov	r0, #4064	; 0xfe0
 1500c08:	ebffff00 	bl	1500810 <OTP_JUDGE_BIT>
 1500c0c:	e3140001 	tst	r4, #1
 1500c10:	1a00000c 	bne	1500c48 <do_burn_efuse_hwchk+0x58>
 1500c14:	e3140002 	tst	r4, #2
 1500c18:	1a000007 	bne	1500c3c <do_burn_efuse_hwchk+0x4c>
 1500c1c:	ebffff27 	bl	15008c0 <OTP_Program_End>
 1500c20:	e3a00000 	mov	r0, #0
 1500c24:	e8bd8010 	pop	{r4, pc}
 1500c28:	e30300f8 	movw	r0, #12536	; 0x30f8
 1500c2c:	e3400150 	movt	r0, #336	; 0x150
 1500c30:	ebfffda8 	bl	15002d8 <printf>
 1500c34:	e3a00001 	mov	r0, #1
 1500c38:	e8bd8010 	pop	{r4, pc}
 1500c3c:	e3000e0c 	movw	r0, #3596	; 0xe0c
 1500c40:	ebffff09 	bl	150086c <OTP_Program_Start>
 1500c44:	eafffff4 	b	1500c1c <do_burn_efuse_hwchk+0x2c>
 1500c48:	e3000e0b 	movw	r0, #3595	; 0xe0b
 1500c4c:	ebffff06 	bl	150086c <OTP_Program_Start>
 1500c50:	e3140002 	tst	r4, #2
 1500c54:	0afffff0 	beq	1500c1c <do_burn_efuse_hwchk+0x2c>
 1500c58:	eafffff7 	b	1500c3c <do_burn_efuse_hwchk+0x4c>

01500c5c <do_burn_efuse_all>:
 1500c5c:	e92d4010 	push	{r4, lr}
 1500c60:	e3034570 	movw	r4, #13680	; 0x3570
 1500c64:	e3404151 	movt	r4, #337	; 0x151
 1500c68:	e2842030 	add	r2, r4, #48	; 0x30
 1500c6c:	e3a01c01 	mov	r1, #256	; 0x100
 1500c70:	e3a00000 	mov	r0, #0
 1500c74:	ebffff1c 	bl	15008ec <start_program>
 1500c78:	e2842e13 	add	r2, r4, #304	; 0x130
 1500c7c:	e3a01010 	mov	r1, #16
 1500c80:	e3a00b02 	mov	r0, #2048	; 0x800
 1500c84:	ebffff18 	bl	15008ec <start_program>
 1500c88:	e2842d05 	add	r2, r4, #320	; 0x140
 1500c8c:	e3a01010 	mov	r1, #16
 1500c90:	e3a00c09 	mov	r0, #2304	; 0x900
 1500c94:	ebffff14 	bl	15008ec <start_program>
 1500c98:	e2842e15 	add	r2, r4, #336	; 0x150
 1500c9c:	e3a01010 	mov	r1, #16
 1500ca0:	e3a00c0a 	mov	r0, #2560	; 0xa00
 1500ca4:	ebffff10 	bl	15008ec <start_program>
 1500ca8:	e2842e16 	add	r2, r4, #352	; 0x160
 1500cac:	e3a01010 	mov	r1, #16
 1500cb0:	e3a00ed2 	mov	r0, #3360	; 0xd20
 1500cb4:	ebffff0c 	bl	15008ec <start_program>
 1500cb8:	ebffff79 	bl	1500aa4 <do_burn_efuse_secureboot>
 1500cbc:	ebffff80 	bl	1500ac4 <do_burn_efuse_bootenc>
 1500cc0:	ebffff8f 	bl	1500b04 <do_burn_efuse_loadsos>
 1500cc4:	ebffff96 	bl	1500b24 <do_burn_efuse_disonecore>
 1500cc8:	ebffff9d 	bl	1500b44 <do_burn_efuse_usb2sram>
 1500ccc:	ebffffa4 	bl	1500b64 <do_burn_efuse_mptest2>
 1500cd0:	e3a00001 	mov	r0, #1
 1500cd4:	ebffffaa 	bl	1500b84 <do_burn_efuse_keysel>
 1500cd8:	e3a00002 	mov	r0, #2
 1500cdc:	ebffffa8 	bl	1500b84 <do_burn_efuse_keysel>
 1500ce0:	e3a00001 	mov	r0, #1
 1500ce4:	ebffffc1 	bl	1500bf0 <do_burn_efuse_hwchk>
 1500ce8:	e3a00002 	mov	r0, #2
 1500cec:	ebffffbf 	bl	1500bf0 <do_burn_efuse_hwchk>
 1500cf0:	e3a00000 	mov	r0, #0
 1500cf4:	e8bd8010 	pop	{r4, pc}

01500cf8 <OTP_Get_Word>:
 1500cf8:	e3520000 	cmp	r2, #0
 1500cfc:	e3c00003 	bic	r0, r0, #3
 1500d00:	0a00001a 	beq	1500d70 <OTP_Get_Word+0x78>
 1500d04:	e280033e 	add	r0, r0, #-134217728	; 0xf8000000
 1500d08:	e30fcfff 	movw	ip, #65535	; 0xffff
 1500d0c:	e340c006 	movt	ip, #6
 1500d10:	e52de004 	push	{lr}		; (str lr, [sp, #-4]!)
 1500d14:	e0812102 	add	r2, r1, r2, lsl #2
 1500d18:	e2800a17 	add	r0, r0, #94208	; 0x17000
 1500d1c:	ea000004 	b	1500d34 <OTP_Get_Word+0x3c>
 1500d20:	e5903000 	ldr	r3, [r0]
 1500d24:	e2800004 	add	r0, r0, #4
 1500d28:	e4813004 	str	r3, [r1], #4
 1500d2c:	e1510002 	cmp	r1, r2
 1500d30:	0a00000c 	beq	1500d68 <OTP_Get_Word+0x70>
 1500d34:	e280331a 	add	r3, r0, #1744830464	; 0x68000000
 1500d38:	e153000c 	cmp	r3, ip
 1500d3c:	9afffff7 	bls	1500d20 <OTP_Get_Word+0x28>
 1500d40:	e2803467 	add	r3, r0, #1728053248	; 0x67000000
 1500d44:	e280e20a 	add	lr, r0, #-1610612736	; 0xa0000000
 1500d48:	e283360f 	add	r3, r3, #15728640	; 0xf00000
 1500d4c:	e3530402 	cmp	r3, #33554432	; 0x2000000
 1500d50:	259e3000 	ldrcs	r3, [lr]
 1500d54:	3afffff1 	bcc	1500d20 <OTP_Get_Word+0x28>
 1500d58:	e4813004 	str	r3, [r1], #4
 1500d5c:	e2800004 	add	r0, r0, #4
 1500d60:	e1510002 	cmp	r1, r2
 1500d64:	1afffff2 	bne	1500d34 <OTP_Get_Word+0x3c>
 1500d68:	e3a00000 	mov	r0, #0
 1500d6c:	e49df004 	pop	{pc}		; (ldr pc, [sp], #4)
 1500d70:	e3a00000 	mov	r0, #0
 1500d74:	e12fff1e 	bx	lr

01500d78 <OTP_Get_Byte>:
 1500d78:	e3520000 	cmp	r2, #0
 1500d7c:	e3c00003 	bic	r0, r0, #3
 1500d80:	0a00000f 	beq	1500dc4 <OTP_Get_Byte+0x4c>
 1500d84:	e52de004 	push	{lr}		; (str lr, [sp, #-4]!)
 1500d88:	e081e002 	add	lr, r1, r2
 1500d8c:	e1a031a0 	lsr	r3, r0, #3
 1500d90:	e2800008 	add	r0, r0, #8
 1500d94:	e3c3c003 	bic	ip, r3, #3
 1500d98:	e2033003 	and	r3, r3, #3
 1500d9c:	e28cc326 	add	ip, ip, #-1744830464	; 0x98000000
 1500da0:	e28cca17 	add	ip, ip, #94208	; 0x17000
 1500da4:	e1a03183 	lsl	r3, r3, #3
 1500da8:	e59cc000 	ldr	ip, [ip]
 1500dac:	e1a0333c 	lsr	r3, ip, r3
 1500db0:	e4c13001 	strb	r3, [r1], #1
 1500db4:	e151000e 	cmp	r1, lr
 1500db8:	1afffff3 	bne	1500d8c <OTP_Get_Byte+0x14>
 1500dbc:	e1a00002 	mov	r0, r2
 1500dc0:	e49df004 	pop	{pc}		; (ldr pc, [sp], #4)
 1500dc4:	e1a00002 	mov	r0, r2
 1500dc8:	e12fff1e 	bx	lr

01500dcc <read_id_test>:
 1500dcc:	e92d4010 	push	{r4, lr}
 1500dd0:	e300cff8 	movw	ip, #4088	; 0xff8
 1500dd4:	e240ea01 	sub	lr, r0, #4096	; 0x1000
 1500dd8:	e15e000c 	cmp	lr, ip
 1500ddc:	8a000003 	bhi	1500df0 <read_id_test+0x24>
 1500de0:	e0803001 	add	r3, r0, r1
 1500de4:	e301cff8 	movw	ip, #8184	; 0x1ff8
 1500de8:	e153000c 	cmp	r3, ip
 1500dec:	9a000001 	bls	1500df8 <read_id_test+0x2c>
 1500df0:	e3a00001 	mov	r0, #1
 1500df4:	e8bd8010 	pop	{r4, pc}
 1500df8:	e1a03002 	mov	r3, r2
 1500dfc:	e1a02001 	mov	r2, r1
 1500e00:	e1a01003 	mov	r1, r3
 1500e04:	ebffffdb 	bl	1500d78 <OTP_Get_Byte>
 1500e08:	e3a00000 	mov	r0, #0
 1500e0c:	e8bd8010 	pop	{r4, pc}

01500e10 <alloc_mcp_descriptor>:
 1500e10:	e92d4070 	push	{r4, r5, r6, lr}
 1500e14:	e3034b38 	movw	r4, #15160	; 0x3b38
 1500e18:	e3404151 	movt	r4, #337	; 0x151
 1500e1c:	e30f3837 	movw	r3, #63543	; 0xf837
 1500e20:	e34f3ebf 	movt	r3, #65215	; 0xfebf
 1500e24:	e30f27fe 	movw	r2, #63486	; 0xf7fe
 1500e28:	e34f2ebf 	movt	r2, #65215	; 0xfebf
 1500e2c:	e5945000 	ldr	r5, [r4]
 1500e30:	e0853003 	add	r3, r5, r3
 1500e34:	e3550000 	cmp	r5, #0
 1500e38:	11530002 	cmpne	r3, r2
 1500e3c:	8a000006 	bhi	1500e5c <alloc_mcp_descriptor+0x4c>
 1500e40:	e3a03505 	mov	r3, #20971520	; 0x1400000
 1500e44:	e3a02b02 	mov	r2, #2048	; 0x800
 1500e48:	e1a00003 	mov	r0, r3
 1500e4c:	e3a01000 	mov	r1, #0
 1500e50:	e5843000 	str	r3, [r4]
 1500e54:	eb000711 	bl	1502aa0 <memset>
 1500e58:	e5945000 	ldr	r5, [r4]
 1500e5c:	e3a02038 	mov	r2, #56	; 0x38
 1500e60:	e3a01000 	mov	r1, #0
 1500e64:	e1a00005 	mov	r0, r5
 1500e68:	eb00070c 	bl	1502aa0 <memset>
 1500e6c:	e5943000 	ldr	r3, [r4]
 1500e70:	e1a00005 	mov	r0, r5
 1500e74:	e2833c01 	add	r3, r3, #256	; 0x100
 1500e78:	e5843000 	str	r3, [r4]
 1500e7c:	e8bd8070 	pop	{r4, r5, r6, pc}

01500e80 <load_otp>:
 1500e80:	e3a01a05 	mov	r1, #20480	; 0x5000
 1500e84:	e3491801 	movt	r1, #38913	; 0x9801
 1500e88:	e3a00001 	mov	r0, #1
 1500e8c:	e1a02001 	mov	r2, r1
 1500e90:	e3a03801 	mov	r3, #65536	; 0x10000
 1500e94:	e581019c 	str	r0, [r1, #412]	; 0x19c
 1500e98:	e592019c 	ldr	r0, [r2, #412]	; 0x19c
 1500e9c:	e2100001 	ands	r0, r0, #1
 1500ea0:	012fff1e 	bxeq	lr
 1500ea4:	e2533001 	subs	r3, r3, #1
 1500ea8:	1afffffa 	bne	1500e98 <load_otp+0x18>
 1500eac:	e3e00000 	mvn	r0, #0
 1500eb0:	e12fff1e 	bx	lr

01500eb4 <do_mcp>:
 1500eb4:	e2503000 	subs	r3, r0, #0
 1500eb8:	0a00003d 	beq	1500fb4 <do_mcp+0x100>
 1500ebc:	e92d4070 	push	{r4, r5, r6, lr}
 1500ec0:	e3a05a05 	mov	r5, #20480	; 0x5000
 1500ec4:	e3495801 	movt	r5, #38913	; 0x9801
 1500ec8:	e3a0e002 	mov	lr, #2
 1500ecc:	e283c070 	add	ip, r3, #112	; 0x70
 1500ed0:	e3a02001 	mov	r2, #1
 1500ed4:	e3a010fe 	mov	r1, #254	; 0xfe
 1500ed8:	e5852934 	str	r2, [r5, #2356]	; 0x934
 1500edc:	e2832038 	add	r2, r3, #56	; 0x38
 1500ee0:	e5851908 	str	r1, [r5, #2312]	; 0x908
 1500ee4:	e3a01038 	mov	r1, #56	; 0x38
 1500ee8:	e585e900 	str	lr, [r5, #2304]	; 0x900
 1500eec:	e585390c 	str	r3, [r5, #2316]	; 0x90c
 1500ef0:	e585c910 	str	ip, [r5, #2320]	; 0x910
 1500ef4:	e5853914 	str	r3, [r5, #2324]	; 0x914
 1500ef8:	e5852918 	str	r2, [r5, #2328]	; 0x918
 1500efc:	eb0007b9 	bl	1502de8 <flush_cache>
 1500f00:	eb00061d 	bl	150277c <sync>
 1500f04:	f57ff06f 	isb	sy
 1500f08:	e3a03003 	mov	r3, #3
 1500f0c:	e5853900 	str	r3, [r5, #2304]	; 0x900
 1500f10:	eb000619 	bl	150277c <sync>
 1500f14:	e5953904 	ldr	r3, [r5, #2308]	; 0x904
 1500f18:	e3130006 	tst	r3, #6
 1500f1c:	030f4fff 	movweq	r4, #65535	; 0xffff
 1500f20:	0340407f 	movteq	r4, #127	; 0x7f
 1500f24:	0a000002 	beq	1500f34 <do_mcp+0x80>
 1500f28:	ea000009 	b	1500f54 <do_mcp+0xa0>
 1500f2c:	e2544001 	subs	r4, r4, #1
 1500f30:	0a000019 	beq	1500f9c <do_mcp+0xe8>
 1500f34:	e3a00001 	mov	r0, #1
 1500f38:	eb0005e2 	bl	15026c8 <mdelay>
 1500f3c:	eb00060e 	bl	150277c <sync>
 1500f40:	e5952904 	ldr	r2, [r5, #2308]	; 0x904
 1500f44:	e3a03a05 	mov	r3, #20480	; 0x5000
 1500f48:	e3493801 	movt	r3, #38913	; 0x9801
 1500f4c:	e3120006 	tst	r2, #6
 1500f50:	0afffff5 	beq	1500f2c <do_mcp+0x78>
 1500f54:	e3a03a05 	mov	r3, #20480	; 0x5000
 1500f58:	e3493801 	movt	r3, #38913	; 0x9801
 1500f5c:	e5932904 	ldr	r2, [r3, #2308]	; 0x904
 1500f60:	e3120002 	tst	r2, #2
 1500f64:	13a00000 	movne	r0, #0
 1500f68:	0a000006 	beq	1500f88 <do_mcp+0xd4>
 1500f6c:	e3a03a05 	mov	r3, #20480	; 0x5000
 1500f70:	e3493801 	movt	r3, #38913	; 0x9801
 1500f74:	e3a01002 	mov	r1, #2
 1500f78:	e3a02006 	mov	r2, #6
 1500f7c:	e5831900 	str	r1, [r3, #2304]	; 0x900
 1500f80:	e5832904 	str	r2, [r3, #2308]	; 0x904
 1500f84:	e8bd8070 	pop	{r4, r5, r6, pc}
 1500f88:	e5933904 	ldr	r3, [r3, #2308]	; 0x904
 1500f8c:	e3130004 	tst	r3, #4
 1500f90:	13e00000 	mvnne	r0, #0
 1500f94:	03e00001 	mvneq	r0, #1
 1500f98:	eafffff3 	b	1500f6c <do_mcp+0xb8>
 1500f9c:	e3a01002 	mov	r1, #2
 1500fa0:	e3a02006 	mov	r2, #6
 1500fa4:	e5831900 	str	r1, [r3, #2304]	; 0x900
 1500fa8:	e3e00002 	mvn	r0, #2
 1500fac:	e5832904 	str	r2, [r3, #2308]	; 0x904
 1500fb0:	e8bd8070 	pop	{r4, r5, r6, pc}
 1500fb4:	e3e00000 	mvn	r0, #0
 1500fb8:	e12fff1e 	bx	lr

01500fbc <swap_endian>:
 1500fbc:	e6bf0f30 	rev	r0, r0
 1500fc0:	e12fff1e 	bx	lr

01500fc4 <reverse_rsa_signature>:
 1500fc4:	e92d4030 	push	{r4, r5, lr}
 1500fc8:	e2801206 	add	r1, r0, #1610612736	; 0x60000000
 1500fcc:	e30fefff 	movw	lr, #65535	; 0xffff
 1500fd0:	e340e006 	movt	lr, #6
 1500fd4:	e24dd014 	sub	sp, sp, #20
 1500fd8:	e2814010 	add	r4, r1, #16
 1500fdc:	e1a0c00d 	mov	ip, sp
 1500fe0:	e1a03001 	mov	r3, r1
 1500fe4:	e283231a 	add	r2, r3, #1744830464	; 0x68000000
 1500fe8:	e152000e 	cmp	r2, lr
 1500fec:	8a00003f 	bhi	15010f0 <reverse_rsa_signature+0x12c>
 1500ff0:	e5932000 	ldr	r2, [r3]
 1500ff4:	e2833004 	add	r3, r3, #4
 1500ff8:	e6bf2f32 	rev	r2, r2
 1500ffc:	e1530004 	cmp	r3, r4
 1501000:	e48c2004 	str	r2, [ip], #4
 1501004:	1afffff6 	bne	1500fe4 <reverse_rsa_signature+0x20>
 1501008:	e2803332 	add	r3, r0, #-939524096	; 0xc8000000
 150100c:	e283e01c 	add	lr, r3, #28
 1501010:	e35e0807 	cmp	lr, #458752	; 0x70000
 1501014:	2a000080 	bcs	150121c <reverse_rsa_signature+0x258>
 1501018:	e591201c 	ldr	r2, [r1, #28]
 150101c:	e3530807 	cmp	r3, #458752	; 0x70000
 1501020:	e6bf2f32 	rev	r2, r2
 1501024:	2a000076 	bcs	1501204 <reverse_rsa_signature+0x240>
 1501028:	e5812000 	str	r2, [r1]
 150102c:	e2834018 	add	r4, r3, #24
 1501030:	e3540807 	cmp	r4, #458752	; 0x70000
 1501034:	2a00006c 	bcs	15011ec <reverse_rsa_signature+0x228>
 1501038:	e591c018 	ldr	ip, [r1, #24]
 150103c:	e2832004 	add	r2, r3, #4
 1501040:	e6bfcf3c 	rev	ip, ip
 1501044:	e3520807 	cmp	r2, #458752	; 0x70000
 1501048:	2a000061 	bcs	15011d4 <reverse_rsa_signature+0x210>
 150104c:	e2802246 	add	r2, r0, #1610612740	; 0x60000004
 1501050:	e582c000 	str	ip, [r2]
 1501054:	e2835014 	add	r5, r3, #20
 1501058:	e3550807 	cmp	r5, #458752	; 0x70000
 150105c:	2a000056 	bcs	15011bc <reverse_rsa_signature+0x1f8>
 1501060:	e591c014 	ldr	ip, [r1, #20]
 1501064:	e2832008 	add	r2, r3, #8
 1501068:	e6bfcf3c 	rev	ip, ip
 150106c:	e3520807 	cmp	r2, #458752	; 0x70000
 1501070:	2a00004b 	bcs	15011a4 <reverse_rsa_signature+0x1e0>
 1501074:	e2802286 	add	r2, r0, #1610612744	; 0x60000008
 1501078:	e582c000 	str	ip, [r2]
 150107c:	e283c010 	add	ip, r3, #16
 1501080:	e35c0807 	cmp	ip, #458752	; 0x70000
 1501084:	2a000040 	bcs	150118c <reverse_rsa_signature+0x1c8>
 1501088:	e5912010 	ldr	r2, [r1, #16]
 150108c:	e283300c 	add	r3, r3, #12
 1501090:	e6bf2f32 	rev	r2, r2
 1501094:	e3530807 	cmp	r3, #458752	; 0x70000
 1501098:	2a000035 	bcs	1501174 <reverse_rsa_signature+0x1b0>
 150109c:	e28032c6 	add	r3, r0, #1610612748	; 0x6000000c
 15010a0:	e5832000 	str	r2, [r3]
 15010a4:	e35c0807 	cmp	ip, #458752	; 0x70000
 15010a8:	e59d300c 	ldr	r3, [sp, #12]
 15010ac:	2a00002a 	bcs	150115c <reverse_rsa_signature+0x198>
 15010b0:	e5813010 	str	r3, [r1, #16]
 15010b4:	e3550807 	cmp	r5, #458752	; 0x70000
 15010b8:	e59d3008 	ldr	r3, [sp, #8]
 15010bc:	2a000020 	bcs	1501144 <reverse_rsa_signature+0x180>
 15010c0:	e5813014 	str	r3, [r1, #20]
 15010c4:	e3540807 	cmp	r4, #458752	; 0x70000
 15010c8:	e59d3004 	ldr	r3, [sp, #4]
 15010cc:	2a000016 	bcs	150112c <reverse_rsa_signature+0x168>
 15010d0:	e5813018 	str	r3, [r1, #24]
 15010d4:	e35e0807 	cmp	lr, #458752	; 0x70000
 15010d8:	e59d3000 	ldr	r3, [sp]
 15010dc:	2a00000a 	bcs	150110c <reverse_rsa_signature+0x148>
 15010e0:	e3a00000 	mov	r0, #0
 15010e4:	e581301c 	str	r3, [r1, #28]
 15010e8:	e28dd014 	add	sp, sp, #20
 15010ec:	e8bd8030 	pop	{r4, r5, pc}
 15010f0:	e2832467 	add	r2, r3, #1728053248	; 0x67000000
 15010f4:	e283520a 	add	r5, r3, #-1610612736	; 0xa0000000
 15010f8:	e282260f 	add	r2, r2, #15728640	; 0xf00000
 15010fc:	e3520402 	cmp	r2, #33554432	; 0x2000000
 1501100:	25952000 	ldrcs	r2, [r5]
 1501104:	2affffba 	bcs	1500ff4 <reverse_rsa_signature+0x30>
 1501108:	eaffffb8 	b	1500ff0 <reverse_rsa_signature+0x2c>
 150110c:	e2802173 	add	r2, r0, #-1073741796	; 0xc000001c
 1501110:	e282267f 	add	r2, r2, #133169152	; 0x7f00000
 1501114:	e3520402 	cmp	r2, #33554432	; 0x2000000
 1501118:	2580301c 	strcs	r3, [r0, #28]
 150111c:	3affffef 	bcc	15010e0 <reverse_rsa_signature+0x11c>
 1501120:	e3a00000 	mov	r0, #0
 1501124:	e28dd014 	add	sp, sp, #20
 1501128:	e8bd8030 	pop	{r4, r5, pc}
 150112c:	e2802163 	add	r2, r0, #-1073741800	; 0xc0000018
 1501130:	e282267f 	add	r2, r2, #133169152	; 0x7f00000
 1501134:	e3520402 	cmp	r2, #33554432	; 0x2000000
 1501138:	25803018 	strcs	r3, [r0, #24]
 150113c:	2affffe4 	bcs	15010d4 <reverse_rsa_signature+0x110>
 1501140:	eaffffe2 	b	15010d0 <reverse_rsa_signature+0x10c>
 1501144:	e2802153 	add	r2, r0, #-1073741804	; 0xc0000014
 1501148:	e282267f 	add	r2, r2, #133169152	; 0x7f00000
 150114c:	e3520402 	cmp	r2, #33554432	; 0x2000000
 1501150:	25803014 	strcs	r3, [r0, #20]
 1501154:	2affffda 	bcs	15010c4 <reverse_rsa_signature+0x100>
 1501158:	eaffffd8 	b	15010c0 <reverse_rsa_signature+0xfc>
 150115c:	e2802143 	add	r2, r0, #-1073741808	; 0xc0000010
 1501160:	e282267f 	add	r2, r2, #133169152	; 0x7f00000
 1501164:	e3520402 	cmp	r2, #33554432	; 0x2000000
 1501168:	25803010 	strcs	r3, [r0, #16]
 150116c:	2affffd0 	bcs	15010b4 <reverse_rsa_signature+0xf0>
 1501170:	eaffffce 	b	15010b0 <reverse_rsa_signature+0xec>
 1501174:	e2803133 	add	r3, r0, #-1073741812	; 0xc000000c
 1501178:	e283367f 	add	r3, r3, #133169152	; 0x7f00000
 150117c:	e3530402 	cmp	r3, #33554432	; 0x2000000
 1501180:	2580200c 	strcs	r2, [r0, #12]
 1501184:	2affffc6 	bcs	15010a4 <reverse_rsa_signature+0xe0>
 1501188:	eaffffc3 	b	150109c <reverse_rsa_signature+0xd8>
 150118c:	e2802143 	add	r2, r0, #-1073741808	; 0xc0000010
 1501190:	e282267f 	add	r2, r2, #133169152	; 0x7f00000
 1501194:	e3520402 	cmp	r2, #33554432	; 0x2000000
 1501198:	25902010 	ldrcs	r2, [r0, #16]
 150119c:	2affffba 	bcs	150108c <reverse_rsa_signature+0xc8>
 15011a0:	eaffffb8 	b	1501088 <reverse_rsa_signature+0xc4>
 15011a4:	e2802123 	add	r2, r0, #-1073741816	; 0xc0000008
 15011a8:	e282267f 	add	r2, r2, #133169152	; 0x7f00000
 15011ac:	e3520402 	cmp	r2, #33554432	; 0x2000000
 15011b0:	2580c008 	strcs	ip, [r0, #8]
 15011b4:	2affffb0 	bcs	150107c <reverse_rsa_signature+0xb8>
 15011b8:	eaffffad 	b	1501074 <reverse_rsa_signature+0xb0>
 15011bc:	e2802153 	add	r2, r0, #-1073741804	; 0xc0000014
 15011c0:	e282267f 	add	r2, r2, #133169152	; 0x7f00000
 15011c4:	e3520402 	cmp	r2, #33554432	; 0x2000000
 15011c8:	2590c014 	ldrcs	ip, [r0, #20]
 15011cc:	2affffa4 	bcs	1501064 <reverse_rsa_signature+0xa0>
 15011d0:	eaffffa2 	b	1501060 <reverse_rsa_signature+0x9c>
 15011d4:	e2802113 	add	r2, r0, #-1073741820	; 0xc0000004
 15011d8:	e282267f 	add	r2, r2, #133169152	; 0x7f00000
 15011dc:	e3520402 	cmp	r2, #33554432	; 0x2000000
 15011e0:	2580c004 	strcs	ip, [r0, #4]
 15011e4:	2affff9a 	bcs	1501054 <reverse_rsa_signature+0x90>
 15011e8:	eaffff97 	b	150104c <reverse_rsa_signature+0x88>
 15011ec:	e2802163 	add	r2, r0, #-1073741800	; 0xc0000018
 15011f0:	e282267f 	add	r2, r2, #133169152	; 0x7f00000
 15011f4:	e3520402 	cmp	r2, #33554432	; 0x2000000
 15011f8:	2590c018 	ldrcs	ip, [r0, #24]
 15011fc:	2affff8e 	bcs	150103c <reverse_rsa_signature+0x78>
 1501200:	eaffff8c 	b	1501038 <reverse_rsa_signature+0x74>
 1501204:	e280c4c7 	add	ip, r0, #-956301312	; 0xc7000000
 1501208:	e28cc60f 	add	ip, ip, #15728640	; 0xf00000
 150120c:	e35c0402 	cmp	ip, #33554432	; 0x2000000
 1501210:	25802000 	strcs	r2, [r0]
 1501214:	2affff84 	bcs	150102c <reverse_rsa_signature+0x68>
 1501218:	eaffff82 	b	1501028 <reverse_rsa_signature+0x64>
 150121c:	e2802173 	add	r2, r0, #-1073741796	; 0xc000001c
 1501220:	e282267f 	add	r2, r2, #133169152	; 0x7f00000
 1501224:	e3520402 	cmp	r2, #33554432	; 0x2000000
 1501228:	2590201c 	ldrcs	r2, [r0, #28]
 150122c:	2affff7a 	bcs	150101c <reverse_rsa_signature+0x58>
 1501230:	eaffff78 	b	1501018 <reverse_rsa_signature+0x54>

01501234 <AES_CBC_decrypt>:
 1501234:	e92d41f0 	push	{r4, r5, r6, r7, r8, lr}
 1501238:	e1a08000 	mov	r8, r0
 150123c:	e1a06001 	mov	r6, r1
 1501240:	e1a07002 	mov	r7, r2
 1501244:	e1a05003 	mov	r5, r3
 1501248:	ebfffef0 	bl	1500e10 <alloc_mcp_descriptor>
 150124c:	e2504000 	subs	r4, r0, #0
 1501250:	0a000017 	beq	15012b4 <AES_CBC_decrypt+0x80>
 1501254:	e3550000 	cmp	r5, #0
 1501258:	0a00000f 	beq	150129c <AES_CBC_decrypt+0x68>
 150125c:	e3a03045 	mov	r3, #69	; 0x45
 1501260:	e5843000 	str	r3, [r4]
 1501264:	e5953000 	ldr	r3, [r5]
 1501268:	e5843004 	str	r3, [r4, #4]
 150126c:	e5953004 	ldr	r3, [r5, #4]
 1501270:	e5843008 	str	r3, [r4, #8]
 1501274:	e5953008 	ldr	r3, [r5, #8]
 1501278:	e584300c 	str	r3, [r4, #12]
 150127c:	e595300c 	ldr	r3, [r5, #12]
 1501280:	e5843010 	str	r3, [r4, #16]
 1501284:	e584802c 	str	r8, [r4, #44]	; 0x2c
 1501288:	e1a00004 	mov	r0, r4
 150128c:	e5847030 	str	r7, [r4, #48]	; 0x30
 1501290:	e5846034 	str	r6, [r4, #52]	; 0x34
 1501294:	e8bd41f0 	pop	{r4, r5, r6, r7, r8, lr}
 1501298:	eaffff05 	b	1500eb4 <do_mcp>
 150129c:	ebfffef7 	bl	1500e80 <load_otp>
 15012a0:	e3500000 	cmp	r0, #0
 15012a4:	1a000004 	bne	15012bc <AES_CBC_decrypt+0x88>
 15012a8:	e3013045 	movw	r3, #4165	; 0x1045
 15012ac:	e5843000 	str	r3, [r4]
 15012b0:	eafffff3 	b	1501284 <AES_CBC_decrypt+0x50>
 15012b4:	e3e00000 	mvn	r0, #0
 15012b8:	e8bd81f0 	pop	{r4, r5, r6, r7, r8, pc}
 15012bc:	e3e00001 	mvn	r0, #1
 15012c0:	e8bd81f0 	pop	{r4, r5, r6, r7, r8, pc}

015012c4 <AES_CBC_encrypt>:
 15012c4:	e92d41f0 	push	{r4, r5, r6, r7, r8, lr}
 15012c8:	e1a08000 	mov	r8, r0
 15012cc:	e1a06001 	mov	r6, r1
 15012d0:	e1a07002 	mov	r7, r2
 15012d4:	e1a05003 	mov	r5, r3
 15012d8:	ebfffecc 	bl	1500e10 <alloc_mcp_descriptor>
 15012dc:	e2504000 	subs	r4, r0, #0
 15012e0:	0a000017 	beq	1501344 <AES_CBC_encrypt+0x80>
 15012e4:	e3550000 	cmp	r5, #0
 15012e8:	0a00000f 	beq	150132c <AES_CBC_encrypt+0x68>
 15012ec:	e3a03065 	mov	r3, #101	; 0x65
 15012f0:	e5843000 	str	r3, [r4]
 15012f4:	e5953000 	ldr	r3, [r5]
 15012f8:	e5843004 	str	r3, [r4, #4]
 15012fc:	e5953004 	ldr	r3, [r5, #4]
 1501300:	e5843008 	str	r3, [r4, #8]
 1501304:	e5953008 	ldr	r3, [r5, #8]
 1501308:	e584300c 	str	r3, [r4, #12]
 150130c:	e595300c 	ldr	r3, [r5, #12]
 1501310:	e5843010 	str	r3, [r4, #16]
 1501314:	e584802c 	str	r8, [r4, #44]	; 0x2c
 1501318:	e1a00004 	mov	r0, r4
 150131c:	e5847030 	str	r7, [r4, #48]	; 0x30
 1501320:	e5846034 	str	r6, [r4, #52]	; 0x34
 1501324:	e8bd41f0 	pop	{r4, r5, r6, r7, r8, lr}
 1501328:	eafffee1 	b	1500eb4 <do_mcp>
 150132c:	ebfffed3 	bl	1500e80 <load_otp>
 1501330:	e3500000 	cmp	r0, #0
 1501334:	1a000004 	bne	150134c <AES_CBC_encrypt+0x88>
 1501338:	e3013065 	movw	r3, #4197	; 0x1065
 150133c:	e5843000 	str	r3, [r4]
 1501340:	eafffff3 	b	1501314 <AES_CBC_encrypt+0x50>
 1501344:	e3e00000 	mvn	r0, #0
 1501348:	e8bd81f0 	pop	{r4, r5, r6, r7, r8, pc}
 150134c:	e3e00001 	mvn	r0, #1
 1501350:	e8bd81f0 	pop	{r4, r5, r6, r7, r8, pc}

01501354 <AES_ECB_decrypt>:
 1501354:	e92d41f0 	push	{r4, r5, r6, r7, r8, lr}
 1501358:	e1a08000 	mov	r8, r0
 150135c:	e1a06001 	mov	r6, r1
 1501360:	e1a07002 	mov	r7, r2
 1501364:	e1a05003 	mov	r5, r3
 1501368:	ebfffea8 	bl	1500e10 <alloc_mcp_descriptor>
 150136c:	e2504000 	subs	r4, r0, #0
 1501370:	0a000018 	beq	15013d8 <AES_ECB_decrypt+0x84>
 1501374:	e3550000 	cmp	r5, #0
 1501378:	0a00000f 	beq	15013bc <AES_ECB_decrypt+0x68>
 150137c:	e3a03005 	mov	r3, #5
 1501380:	e5843000 	str	r3, [r4]
 1501384:	e5953000 	ldr	r3, [r5]
 1501388:	e5843004 	str	r3, [r4, #4]
 150138c:	e5953004 	ldr	r3, [r5, #4]
 1501390:	e5843008 	str	r3, [r4, #8]
 1501394:	e5953008 	ldr	r3, [r5, #8]
 1501398:	e584300c 	str	r3, [r4, #12]
 150139c:	e595300c 	ldr	r3, [r5, #12]
 15013a0:	e5843010 	str	r3, [r4, #16]
 15013a4:	e584802c 	str	r8, [r4, #44]	; 0x2c
 15013a8:	e1a00004 	mov	r0, r4
 15013ac:	e5847030 	str	r7, [r4, #48]	; 0x30
 15013b0:	e5846034 	str	r6, [r4, #52]	; 0x34
 15013b4:	e8bd41f0 	pop	{r4, r5, r6, r7, r8, lr}
 15013b8:	eafffebd 	b	1500eb4 <do_mcp>
 15013bc:	ebfffeaf 	bl	1500e80 <load_otp>
 15013c0:	e3500000 	cmp	r0, #0
 15013c4:	1a000005 	bne	15013e0 <AES_ECB_decrypt+0x8c>
 15013c8:	e3a03a01 	mov	r3, #4096	; 0x1000
 15013cc:	e3403010 	movt	r3, #16
 15013d0:	e5843000 	str	r3, [r4]
 15013d4:	eafffff2 	b	15013a4 <AES_ECB_decrypt+0x50>
 15013d8:	e3e00000 	mvn	r0, #0
 15013dc:	e8bd81f0 	pop	{r4, r5, r6, r7, r8, pc}
 15013e0:	e3e00001 	mvn	r0, #1
 15013e4:	e8bd81f0 	pop	{r4, r5, r6, r7, r8, pc}

015013e8 <AES_ECB_encrypt>:
 15013e8:	e92d41f0 	push	{r4, r5, r6, r7, r8, lr}
 15013ec:	e1a08000 	mov	r8, r0
 15013f0:	e1a07001 	mov	r7, r1
 15013f4:	e1a06002 	mov	r6, r2
 15013f8:	e1a05003 	mov	r5, r3
 15013fc:	ebfffe83 	bl	1500e10 <alloc_mcp_descriptor>
 1501400:	e2504000 	subs	r4, r0, #0
 1501404:	0a000028 	beq	15014ac <AES_ECB_encrypt+0xc4>
 1501408:	e3550000 	cmp	r5, #0
 150140c:	0a000017 	beq	1501470 <AES_ECB_encrypt+0x88>
 1501410:	e3a03025 	mov	r3, #37	; 0x25
 1501414:	e5843000 	str	r3, [r4]
 1501418:	e5953000 	ldr	r3, [r5]
 150141c:	e5843004 	str	r3, [r4, #4]
 1501420:	e5953004 	ldr	r3, [r5, #4]
 1501424:	e5843008 	str	r3, [r4, #8]
 1501428:	e5953008 	ldr	r3, [r5, #8]
 150142c:	e584300c 	str	r3, [r4, #12]
 1501430:	e595300c 	ldr	r3, [r5, #12]
 1501434:	e5843010 	str	r3, [r4, #16]
 1501438:	e584802c 	str	r8, [r4, #44]	; 0x2c
 150143c:	e1a00004 	mov	r0, r4
 1501440:	e5846030 	str	r6, [r4, #48]	; 0x30
 1501444:	e5847034 	str	r7, [r4, #52]	; 0x34
 1501448:	ebfffe99 	bl	1500eb4 <do_mcp>
 150144c:	e2504000 	subs	r4, r0, #0
 1501450:	0a000001 	beq	150145c <AES_ECB_encrypt+0x74>
 1501454:	e1a00004 	mov	r0, r4
 1501458:	e8bd81f0 	pop	{r4, r5, r6, r7, r8, pc}
 150145c:	e1a00006 	mov	r0, r6
 1501460:	e1a01007 	mov	r1, r7
 1501464:	eb00065f 	bl	1502de8 <flush_cache>
 1501468:	e1a00004 	mov	r0, r4
 150146c:	e8bd81f0 	pop	{r4, r5, r6, r7, r8, pc}
 1501470:	ebfffe82 	bl	1500e80 <load_otp>
 1501474:	e3500000 	cmp	r0, #0
 1501478:	03013025 	movweq	r3, #4133	; 0x1025
 150147c:	05843000 	streq	r3, [r4]
 1501480:	0affffec 	beq	1501438 <AES_ECB_encrypt+0x50>
 1501484:	e3a030c4 	mov	r3, #196	; 0xc4
 1501488:	e303210c 	movw	r2, #12556	; 0x310c
 150148c:	e3402150 	movt	r2, #336	; 0x150
 1501490:	e303112c 	movw	r1, #12588	; 0x312c
 1501494:	e3401150 	movt	r1, #336	; 0x150
 1501498:	e3030134 	movw	r0, #12596	; 0x3134
 150149c:	e3400150 	movt	r0, #336	; 0x150
 15014a0:	ebfffb8c 	bl	15002d8 <printf>
 15014a4:	e3e00001 	mvn	r0, #1
 15014a8:	e8bd81f0 	pop	{r4, r5, r6, r7, r8, pc}
 15014ac:	e3a030be 	mov	r3, #190	; 0xbe
 15014b0:	e303210c 	movw	r2, #12556	; 0x310c
 15014b4:	e3402150 	movt	r2, #336	; 0x150
 15014b8:	e303112c 	movw	r1, #12588	; 0x312c
 15014bc:	e3401150 	movt	r1, #336	; 0x150
 15014c0:	e3030134 	movw	r0, #12596	; 0x3134
 15014c4:	e3400150 	movt	r0, #336	; 0x150
 15014c8:	ebfffb82 	bl	15002d8 <printf>
 15014cc:	e3e00000 	mvn	r0, #0
 15014d0:	e8bd81f0 	pop	{r4, r5, r6, r7, r8, pc}

015014d4 <AES_hash_one>:
 15014d4:	e92d4070 	push	{r4, r5, r6, lr}
 15014d8:	e1a06000 	mov	r6, r0
 15014dc:	e1a04001 	mov	r4, r1
 15014e0:	e1a05002 	mov	r5, r2
 15014e4:	ebfffe49 	bl	1500e10 <alloc_mcp_descriptor>
 15014e8:	e2503000 	subs	r3, r0, #0
 15014ec:	0a000012 	beq	150153c <AES_hash_one+0x68>
 15014f0:	e583602c 	str	r6, [r3, #44]	; 0x2c
 15014f4:	e30dcf39 	movw	ip, #57145	; 0xdf39
 15014f8:	e342cdc2 	movt	ip, #11714	; 0x2dc2
 15014fc:	e583c01c 	str	ip, [r3, #28]
 1501500:	e5835030 	str	r5, [r3, #48]	; 0x30
 1501504:	e30221d0 	movw	r2, #8656	; 0x21d0
 1501508:	e3442203 	movt	r2, #16899	; 0x4203
 150150c:	e5832020 	str	r2, [r3, #32]
 1501510:	e5834034 	str	r4, [r3, #52]	; 0x34
 1501514:	e30f2e23 	movw	r2, #65059	; 0xfe23
 1501518:	e34c2ef1 	movt	r2, #52977	; 0xcef1
 150151c:	e5832024 	str	r2, [r3, #36]	; 0x24
 1501520:	e3a01027 	mov	r1, #39	; 0x27
 1501524:	e3092d95 	movw	r2, #40341	; 0x9d95
 1501528:	e3472402 	movt	r2, #29698	; 0x7402
 150152c:	e5832028 	str	r2, [r3, #40]	; 0x28
 1501530:	e5831000 	str	r1, [r3]
 1501534:	e8bd4070 	pop	{r4, r5, r6, lr}
 1501538:	eafffe5d 	b	1500eb4 <do_mcp>
 150153c:	e3e00000 	mvn	r0, #0
 1501540:	e8bd8070 	pop	{r4, r5, r6, pc}

01501544 <AES_hash>:
 1501544:	e3520000 	cmp	r2, #0
 1501548:	13500000 	cmpne	r0, #0
 150154c:	0a000050 	beq	1501694 <AES_hash+0x150>
 1501550:	e3530000 	cmp	r3, #0
 1501554:	13510000 	cmpne	r1, #0
 1501558:	e92d41f0 	push	{r4, r5, r6, r7, r8, lr}
 150155c:	e1a06001 	mov	r6, r1
 1501560:	e1a07003 	mov	r7, r3
 1501564:	0a000048 	beq	150168c <AES_hash+0x148>
 1501568:	e1a08000 	mov	r8, r0
 150156c:	e1a04002 	mov	r4, r2
 1501570:	ebfffe26 	bl	1500e10 <alloc_mcp_descriptor>
 1501574:	e2505000 	subs	r5, r0, #0
 1501578:	0a000043 	beq	150168c <AES_hash+0x148>
 150157c:	e30d3f39 	movw	r3, #57145	; 0xdf39
 1501580:	e3423dc2 	movt	r3, #11714	; 0x2dc2
 1501584:	e30221d0 	movw	r2, #8656	; 0x21d0
 1501588:	e3442203 	movt	r2, #16899	; 0x4203
 150158c:	e585301c 	str	r3, [r5, #28]
 1501590:	e30f3e23 	movw	r3, #65059	; 0xfe23
 1501594:	e34c3ef1 	movt	r3, #52977	; 0xcef1
 1501598:	e5853024 	str	r3, [r5, #36]	; 0x24
 150159c:	e5852020 	str	r2, [r5, #32]
 15015a0:	e3a03027 	mov	r3, #39	; 0x27
 15015a4:	e3092d95 	movw	r2, #40341	; 0x9d95
 15015a8:	e3472402 	movt	r2, #29698	; 0x7402
 15015ac:	e5854030 	str	r4, [r5, #48]	; 0x30
 15015b0:	e5852028 	str	r2, [r5, #40]	; 0x28
 15015b4:	e5853000 	str	r3, [r5]
 15015b8:	ea000026 	b	1501658 <AES_hash+0x114>
 15015bc:	e3560000 	cmp	r6, #0
 15015c0:	0a00002f 	beq	1501684 <AES_hash+0x140>
 15015c4:	e5d41001 	ldrb	r1, [r4, #1]
 15015c8:	e5d43000 	ldrb	r3, [r4]
 15015cc:	e5d42003 	ldrb	r2, [r4, #3]
 15015d0:	e5d40002 	ldrb	r0, [r4, #2]
 15015d4:	e1a01801 	lsl	r1, r1, #16
 15015d8:	e1813c03 	orr	r3, r1, r3, lsl #24
 15015dc:	e5951034 	ldr	r1, [r5, #52]	; 0x34
 15015e0:	e1833002 	orr	r3, r3, r2
 15015e4:	e1833400 	orr	r3, r3, r0, lsl #8
 15015e8:	e585301c 	str	r3, [r5, #28]
 15015ec:	e0888001 	add	r8, r8, r1
 15015f0:	e5d41005 	ldrb	r1, [r4, #5]
 15015f4:	e5d43004 	ldrb	r3, [r4, #4]
 15015f8:	e5d42007 	ldrb	r2, [r4, #7]
 15015fc:	e5d40006 	ldrb	r0, [r4, #6]
 1501600:	e1a01801 	lsl	r1, r1, #16
 1501604:	e1813c03 	orr	r3, r1, r3, lsl #24
 1501608:	e1833002 	orr	r3, r3, r2
 150160c:	e1833400 	orr	r3, r3, r0, lsl #8
 1501610:	e5853020 	str	r3, [r5, #32]
 1501614:	e5d42009 	ldrb	r2, [r4, #9]
 1501618:	e5d40008 	ldrb	r0, [r4, #8]
 150161c:	e5d4100a 	ldrb	r1, [r4, #10]
 1501620:	e1a03802 	lsl	r3, r2, #16
 1501624:	e1833c00 	orr	r3, r3, r0, lsl #24
 1501628:	e1832002 	orr	r2, r3, r2
 150162c:	e1822401 	orr	r2, r2, r1, lsl #8
 1501630:	e5852024 	str	r2, [r5, #36]	; 0x24
 1501634:	e5d4100d 	ldrb	r1, [r4, #13]
 1501638:	e5d4200c 	ldrb	r2, [r4, #12]
 150163c:	e5d4300f 	ldrb	r3, [r4, #15]
 1501640:	e5d4000e 	ldrb	r0, [r4, #14]
 1501644:	e1a01801 	lsl	r1, r1, #16
 1501648:	e1812c02 	orr	r2, r1, r2, lsl #24
 150164c:	e1822003 	orr	r2, r2, r3
 1501650:	e1822400 	orr	r2, r2, r0, lsl #8
 1501654:	e5852028 	str	r2, [r5, #40]	; 0x28
 1501658:	e1560007 	cmp	r6, r7
 150165c:	e585802c 	str	r8, [r5, #44]	; 0x2c
 1501660:	31a03006 	movcc	r3, r6
 1501664:	21a03007 	movcs	r3, r7
 1501668:	e1a00005 	mov	r0, r5
 150166c:	e5853034 	str	r3, [r5, #52]	; 0x34
 1501670:	ebfffe0f 	bl	1500eb4 <do_mcp>
 1501674:	e3500000 	cmp	r0, #0
 1501678:	e0676006 	rsb	r6, r7, r6
 150167c:	0affffce 	beq	15015bc <AES_hash+0x78>
 1501680:	e8bd81f0 	pop	{r4, r5, r6, r7, r8, pc}
 1501684:	e1a00006 	mov	r0, r6
 1501688:	e8bd81f0 	pop	{r4, r5, r6, r7, r8, pc}
 150168c:	e3e00000 	mvn	r0, #0
 1501690:	e8bd81f0 	pop	{r4, r5, r6, r7, r8, pc}
 1501694:	e3e00000 	mvn	r0, #0
 1501698:	e12fff1e 	bx	lr

0150169c <SHA1_hash>:
 150169c:	e3520000 	cmp	r2, #0
 15016a0:	13500000 	cmpne	r0, #0
 15016a4:	0a00002b 	beq	1501758 <SHA1_hash+0xbc>
 15016a8:	e92d41f0 	push	{r4, r5, r6, r7, r8, lr}
 15016ac:	e1a07002 	mov	r7, r2
 15016b0:	e1a06000 	mov	r6, r0
 15016b4:	e1a04003 	mov	r4, r3
 15016b8:	e1a05001 	mov	r5, r1
 15016bc:	ebfffdd3 	bl	1500e10 <alloc_mcp_descriptor>
 15016c0:	e250c000 	subs	ip, r0, #0
 15016c4:	0a000025 	beq	1501760 <SHA1_hash+0xc4>
 15016c8:	e3540000 	cmp	r4, #0
 15016cc:	e3a03004 	mov	r3, #4
 15016d0:	e58c3000 	str	r3, [ip]
 15016d4:	0a00000f 	beq	1501718 <SHA1_hash+0x7c>
 15016d8:	e5943000 	ldr	r3, [r4]
 15016dc:	e58c3004 	str	r3, [ip, #4]
 15016e0:	e5943004 	ldr	r3, [r4, #4]
 15016e4:	e58c3008 	str	r3, [ip, #8]
 15016e8:	e5943008 	ldr	r3, [r4, #8]
 15016ec:	e58c300c 	str	r3, [ip, #12]
 15016f0:	e594300c 	ldr	r3, [r4, #12]
 15016f4:	e58c3010 	str	r3, [ip, #16]
 15016f8:	e5943010 	ldr	r3, [r4, #16]
 15016fc:	e58c3014 	str	r3, [ip, #20]
 1501700:	e58c602c 	str	r6, [ip, #44]	; 0x2c
 1501704:	e1a0000c 	mov	r0, ip
 1501708:	e58c7030 	str	r7, [ip, #48]	; 0x30
 150170c:	e58c5034 	str	r5, [ip, #52]	; 0x34
 1501710:	e8bd41f0 	pop	{r4, r5, r6, r7, r8, lr}
 1501714:	eafffde6 	b	1500eb4 <do_mcp>
 1501718:	e3022301 	movw	r2, #8961	; 0x2301
 150171c:	e3462745 	movt	r2, #26437	; 0x6745
 1501720:	e30a3b89 	movw	r3, #43913	; 0xab89
 1501724:	e34e3fcd 	movt	r3, #61389	; 0xefcd
 1501728:	e58c2004 	str	r2, [ip, #4]
 150172c:	e30d2cfe 	movw	r2, #56574	; 0xdcfe
 1501730:	e34928ba 	movt	r2, #39098	; 0x98ba
 1501734:	e58c200c 	str	r2, [ip, #12]
 1501738:	e58c3008 	str	r3, [ip, #8]
 150173c:	e3053476 	movw	r3, #21622	; 0x5476
 1501740:	e3413032 	movt	r3, #4146	; 0x1032
 1501744:	e58c3010 	str	r3, [ip, #16]
 1501748:	e30e31f0 	movw	r3, #57840	; 0xe1f0
 150174c:	e34c33d2 	movt	r3, #50130	; 0xc3d2
 1501750:	e58c3014 	str	r3, [ip, #20]
 1501754:	eaffffe9 	b	1501700 <SHA1_hash+0x64>
 1501758:	e3e00000 	mvn	r0, #0
 150175c:	e12fff1e 	bx	lr
 1501760:	e3e00000 	mvn	r0, #0
 1501764:	e8bd81f0 	pop	{r4, r5, r6, r7, r8, pc}

01501768 <do_RSA>:
 1501768:	e92d4070 	push	{r4, r5, r6, lr}
 150176c:	e1a04000 	mov	r4, r0
 1501770:	e1a05001 	mov	r5, r1
 1501774:	e24ddc01 	sub	sp, sp, #256	; 0x100
 1501778:	e1a06002 	mov	r6, r2
 150177c:	f57ff04f 	dsb	sy
 1501780:	eb0003fd 	bl	150277c <sync>
 1501784:	e3a03903 	mov	r3, #49152	; 0xc000
 1501788:	e3493804 	movt	r3, #38916	; 0x9804
 150178c:	e3550000 	cmp	r5, #0
 1501790:	e3a01002 	mov	r1, #2
 1501794:	e3a02000 	mov	r2, #0
 1501798:	e5831f08 	str	r1, [r3, #3848]	; 0xf08
 150179c:	e5832f80 	str	r2, [r3, #3968]	; 0xf80
 15017a0:	0a000049 	beq	15018cc <do_RSA+0x164>
 15017a4:	e3a00b33 	mov	r0, #52224	; 0xcc00
 15017a8:	e3490804 	movt	r0, #38916	; 0x9804
 15017ac:	e1a01005 	mov	r1, r5
 15017b0:	e3a02c01 	mov	r2, #256	; 0x100
 15017b4:	eb0004c9 	bl	1502ae0 <copy_memory>
 15017b8:	e3a01c01 	mov	r1, #256	; 0x100
 15017bc:	e3a00b33 	mov	r0, #52224	; 0xcc00
 15017c0:	e3490804 	movt	r0, #38916	; 0x9804
 15017c4:	eb000587 	bl	1502de8 <flush_cache>
 15017c8:	e3a02c01 	mov	r2, #256	; 0x100
 15017cc:	e3a01000 	mov	r1, #0
 15017d0:	e1a0000d 	mov	r0, sp
 15017d4:	eb0004ba 	bl	1502ac4 <set_memory>
 15017d8:	e1a0100d 	mov	r1, sp
 15017dc:	e3a02c01 	mov	r2, #256	; 0x100
 15017e0:	e3a03001 	mov	r3, #1
 15017e4:	e30c0d80 	movw	r0, #52608	; 0xcd80
 15017e8:	e3490804 	movt	r0, #38916	; 0x9804
 15017ec:	e7df3813 	bfi	r3, r3, #16, #16
 15017f0:	e58d3000 	str	r3, [sp]
 15017f4:	eb0004b9 	bl	1502ae0 <copy_memory>
 15017f8:	e1a01004 	mov	r1, r4
 15017fc:	e3a02c01 	mov	r2, #256	; 0x100
 1501800:	e30c0780 	movw	r0, #51072	; 0xc780
 1501804:	e3490804 	movt	r0, #38916	; 0x9804
 1501808:	eb0004b4 	bl	1502ae0 <copy_memory>
 150180c:	e3a02c01 	mov	r2, #256	; 0x100
 1501810:	e0841002 	add	r1, r4, r2
 1501814:	e3a00cc9 	mov	r0, #51456	; 0xc900
 1501818:	e3490804 	movt	r0, #38916	; 0x9804
 150181c:	e3a05903 	mov	r5, #49152	; 0xc000
 1501820:	e3495804 	movt	r5, #38916	; 0x9804
 1501824:	eb0004ad 	bl	1502ae0 <copy_memory>
 1501828:	e5943200 	ldr	r3, [r4, #512]	; 0x200
 150182c:	e6bf3f33 	rev	r3, r3
 1501830:	e5853f84 	str	r3, [r5, #3972]	; 0xf84
 1501834:	e5953f88 	ldr	r3, [r5, #3976]	; 0xf88
 1501838:	e3833102 	orr	r3, r3, #-2147483648	; 0x80000000
 150183c:	e5853f88 	str	r3, [r5, #3976]	; 0xf88
 1501840:	e5953f0c 	ldr	r3, [r5, #3852]	; 0xf0c
 1501844:	e3530023 	cmp	r3, #35	; 0x23
 1501848:	130043e9 	movwne	r4, #1001	; 0x3e9
 150184c:	1a000002 	bne	150185c <do_RSA+0xf4>
 1501850:	ea000006 	b	1501870 <do_RSA+0x108>
 1501854:	e2544001 	subs	r4, r4, #1
 1501858:	0a000015 	beq	15018b4 <do_RSA+0x14c>
 150185c:	e3a00001 	mov	r0, #1
 1501860:	eb000398 	bl	15026c8 <mdelay>
 1501864:	e5953f0c 	ldr	r3, [r5, #3852]	; 0xf0c
 1501868:	e3530023 	cmp	r3, #35	; 0x23
 150186c:	1afffff8 	bne	1501854 <do_RSA+0xec>
 1501870:	e3a02020 	mov	r2, #32
 1501874:	e1a00006 	mov	r0, r6
 1501878:	e0864002 	add	r4, r6, r2
 150187c:	e3a01cc9 	mov	r1, #51456	; 0xc900
 1501880:	e3491804 	movt	r1, #38916	; 0x9804
 1501884:	eb000495 	bl	1502ae0 <copy_memory>
 1501888:	e1a01004 	mov	r1, r4
 150188c:	e1a00006 	mov	r0, r6
 1501890:	eb000554 	bl	1502de8 <flush_cache>
 1501894:	e1a00006 	mov	r0, r6
 1501898:	ebfffdc9 	bl	1500fc4 <reverse_rsa_signature>
 150189c:	e1a00006 	mov	r0, r6
 15018a0:	e1a01004 	mov	r1, r4
 15018a4:	eb00054f 	bl	1502de8 <flush_cache>
 15018a8:	e3a00000 	mov	r0, #0
 15018ac:	e28ddc01 	add	sp, sp, #256	; 0x100
 15018b0:	e8bd8070 	pop	{r4, r5, r6, pc}
 15018b4:	e3030144 	movw	r0, #12612	; 0x3144
 15018b8:	e3400150 	movt	r0, #336	; 0x150
 15018bc:	eb0003d4 	bl	1502814 <prints>
 15018c0:	e3a00001 	mov	r0, #1
 15018c4:	e28ddc01 	add	sp, sp, #256	; 0x100
 15018c8:	e8bd8070 	pop	{r4, r5, r6, pc}
 15018cc:	e1a00005 	mov	r0, r5
 15018d0:	e3a01b33 	mov	r1, #52224	; 0xcc00
 15018d4:	e3491804 	movt	r1, #38916	; 0x9804
 15018d8:	e3a02040 	mov	r2, #64	; 0x40
 15018dc:	ebfffd05 	bl	1500cf8 <OTP_Get_Word>
 15018e0:	eaffffb4 	b	15017b8 <do_RSA+0x50>

015018e4 <SHA256_hash>:
 15018e4:	e3520000 	cmp	r2, #0
 15018e8:	13500000 	cmpne	r0, #0
 15018ec:	1a000001 	bne	15018f8 <SHA256_hash+0x14>
 15018f0:	e3a00093 	mov	r0, #147	; 0x93
 15018f4:	e12fff1e 	bx	lr
 15018f8:	e92d41f0 	push	{r4, r5, r6, r7, r8, lr}
 15018fc:	e1a07002 	mov	r7, r2
 1501900:	e1a06000 	mov	r6, r0
 1501904:	e1a04003 	mov	r4, r3
 1501908:	e1a05001 	mov	r5, r1
 150190c:	ebfffd3f 	bl	1500e10 <alloc_mcp_descriptor>
 1501910:	e250c000 	subs	ip, r0, #0
 1501914:	0a000019 	beq	1501980 <SHA256_hash+0x9c>
 1501918:	e3540000 	cmp	r4, #0
 150191c:	e3a0300b 	mov	r3, #11
 1501920:	e58c3000 	str	r3, [ip]
 1501924:	0a000017 	beq	1501988 <SHA256_hash+0xa4>
 1501928:	e5943000 	ldr	r3, [r4]
 150192c:	e58c3004 	str	r3, [ip, #4]
 1501930:	e5943004 	ldr	r3, [r4, #4]
 1501934:	e58c3008 	str	r3, [ip, #8]
 1501938:	e5943008 	ldr	r3, [r4, #8]
 150193c:	e58c300c 	str	r3, [ip, #12]
 1501940:	e594300c 	ldr	r3, [r4, #12]
 1501944:	e58c3010 	str	r3, [ip, #16]
 1501948:	e5943010 	ldr	r3, [r4, #16]
 150194c:	e58c3014 	str	r3, [ip, #20]
 1501950:	e5943014 	ldr	r3, [r4, #20]
 1501954:	e58c3018 	str	r3, [ip, #24]
 1501958:	e5943018 	ldr	r3, [r4, #24]
 150195c:	e58c301c 	str	r3, [ip, #28]
 1501960:	e594301c 	ldr	r3, [r4, #28]
 1501964:	e58c3020 	str	r3, [ip, #32]
 1501968:	e58c602c 	str	r6, [ip, #44]	; 0x2c
 150196c:	e1a0000c 	mov	r0, ip
 1501970:	e58c7030 	str	r7, [ip, #48]	; 0x30
 1501974:	e58c5034 	str	r5, [ip, #52]	; 0x34
 1501978:	e8bd41f0 	pop	{r4, r5, r6, r7, r8, lr}
 150197c:	eafffd4c 	b	1500eb4 <do_mcp>
 1501980:	e3a00094 	mov	r0, #148	; 0x94
 1501984:	e8bd81f0 	pop	{r4, r5, r6, r7, r8, pc}
 1501988:	e30e2667 	movw	r2, #58983	; 0xe667
 150198c:	e3462a09 	movt	r2, #27145	; 0x6a09
 1501990:	e30a3e85 	movw	r3, #44677	; 0xae85
 1501994:	e34b3b67 	movt	r3, #47975	; 0xbb67
 1501998:	e58c2004 	str	r2, [ip, #4]
 150199c:	e30f2372 	movw	r2, #62322	; 0xf372
 15019a0:	e3432c6e 	movt	r2, #15470	; 0x3c6e
 15019a4:	e58c200c 	str	r2, [ip, #12]
 15019a8:	e58c3008 	str	r3, [ip, #8]
 15019ac:	e305227f 	movw	r2, #21119	; 0x527f
 15019b0:	e345210e 	movt	r2, #20750	; 0x510e
 15019b4:	e58c2014 	str	r2, [ip, #20]
 15019b8:	e30f353a 	movw	r3, #62778	; 0xf53a
 15019bc:	e34a354f 	movt	r3, #42319	; 0xa54f
 15019c0:	e30d29ab 	movw	r2, #55723	; 0xd9ab
 15019c4:	e3412f83 	movt	r2, #8067	; 0x1f83
 15019c8:	e58c3010 	str	r3, [ip, #16]
 15019cc:	e306388c 	movw	r3, #26764	; 0x688c
 15019d0:	e3493b05 	movt	r3, #39685	; 0x9b05
 15019d4:	e58c3018 	str	r3, [ip, #24]
 15019d8:	e58c201c 	str	r2, [ip, #28]
 15019dc:	e30c3d19 	movw	r3, #52505	; 0xcd19
 15019e0:	e3453be0 	movt	r3, #23520	; 0x5be0
 15019e4:	e58c3020 	str	r3, [ip, #32]
 15019e8:	eaffffde 	b	1501968 <SHA256_hash+0x84>

015019ec <reverse_signature>:
 15019ec:	e2402001 	sub	r2, r0, #1
 15019f0:	e2803c01 	add	r3, r0, #256	; 0x100
 15019f4:	e280c080 	add	ip, r0, #128	; 0x80
 15019f8:	e5730001 	ldrb	r0, [r3, #-1]!
 15019fc:	e5f21001 	ldrb	r1, [r2, #1]!
 1501a00:	e153000c 	cmp	r3, ip
 1501a04:	e5c20000 	strb	r0, [r2]
 1501a08:	e5c31000 	strb	r1, [r3]
 1501a0c:	1afffff9 	bne	15019f8 <reverse_signature+0xc>
 1501a10:	e12fff1e 	bx	lr

01501a14 <R1>:
 1501a14:	e92d40f0 	push	{r4, r5, r6, r7, lr}
 1501a18:	e1a07000 	mov	r7, r0
 1501a1c:	e1a06001 	mov	r6, r1
 1501a20:	e24dd014 	sub	sp, sp, #20
 1501a24:	e3a01000 	mov	r1, #0
 1501a28:	e1a0000d 	mov	r0, sp
 1501a2c:	e30346f8 	movw	r4, #14072	; 0x36f8
 1501a30:	e3404151 	movt	r4, #337	; 0x151
 1501a34:	e1a05002 	mov	r5, r2
 1501a38:	eb000418 	bl	1502aa0 <memset>
 1501a3c:	e1a00004 	mov	r0, r4
 1501a40:	e3a02b01 	mov	r2, #1024	; 0x400
 1501a44:	e3a01000 	mov	r1, #0
 1501a48:	e3a0307e 	mov	r3, #126	; 0x7e
 1501a4c:	e5cd3000 	strb	r3, [sp]
 1501a50:	e3e03055 	mvn	r3, #85	; 0x55
 1501a54:	e5cd3001 	strb	r3, [sp, #1]
 1501a58:	e3a03025 	mov	r3, #37	; 0x25
 1501a5c:	e5cd3002 	strb	r3, [sp, #2]
 1501a60:	e3a03047 	mov	r3, #71	; 0x47
 1501a64:	e5cd3003 	strb	r3, [sp, #3]
 1501a68:	e3a03074 	mov	r3, #116	; 0x74
 1501a6c:	e5cd3004 	strb	r3, [sp, #4]
 1501a70:	e3a03005 	mov	r3, #5
 1501a74:	e5cd3005 	strb	r3, [sp, #5]
 1501a78:	e3a03030 	mov	r3, #48	; 0x30
 1501a7c:	e5cd3006 	strb	r3, [sp, #6]
 1501a80:	e3a03077 	mov	r3, #119	; 0x77
 1501a84:	e5cd3007 	strb	r3, [sp, #7]
 1501a88:	e3e0301b 	mvn	r3, #27
 1501a8c:	e5cd3008 	strb	r3, [sp, #8]
 1501a90:	e3a03068 	mov	r3, #104	; 0x68
 1501a94:	e5cd3009 	strb	r3, [sp, #9]
 1501a98:	e3a0300b 	mov	r3, #11
 1501a9c:	e5cd300a 	strb	r3, [sp, #10]
 1501aa0:	e3a0302d 	mov	r3, #45	; 0x2d
 1501aa4:	e5cd300b 	strb	r3, [sp, #11]
 1501aa8:	e3e0302e 	mvn	r3, #46	; 0x2e
 1501aac:	e5cd300c 	strb	r3, [sp, #12]
 1501ab0:	e3e03035 	mvn	r3, #53	; 0x35
 1501ab4:	e5cd300d 	strb	r3, [sp, #13]
 1501ab8:	e3e0300e 	mvn	r3, #14
 1501abc:	e5cd300e 	strb	r3, [sp, #14]
 1501ac0:	e3a03060 	mov	r3, #96	; 0x60
 1501ac4:	e5cd300f 	strb	r3, [sp, #15]
 1501ac8:	eb0003f4 	bl	1502aa0 <memset>
 1501acc:	e3570000 	cmp	r7, #0
 1501ad0:	1a000025 	bne	1501b6c <R1+0x158>
 1501ad4:	e1a0300d 	mov	r3, sp
 1501ad8:	e1a02004 	mov	r2, r4
 1501adc:	e1a01005 	mov	r1, r5
 1501ae0:	e1a00006 	mov	r0, r6
 1501ae4:	ebfffe1a 	bl	1501354 <AES_ECB_decrypt>
 1501ae8:	e1a01005 	mov	r1, r5
 1501aec:	e1a00004 	mov	r0, r4
 1501af0:	eb0004bc 	bl	1502de8 <flush_cache>
 1501af4:	e5dd3001 	ldrb	r3, [sp, #1]
 1501af8:	e5d42001 	ldrb	r2, [r4, #1]
 1501afc:	e1a00004 	mov	r0, r4
 1501b00:	e5ddc004 	ldrb	ip, [sp, #4]
 1501b04:	e1a01005 	mov	r1, r5
 1501b08:	e0222003 	eor	r2, r2, r3
 1501b0c:	e5d43004 	ldrb	r3, [r4, #4]
 1501b10:	e5c42001 	strb	r2, [r4, #1]
 1501b14:	e023300c 	eor	r3, r3, ip
 1501b18:	e5d42008 	ldrb	r2, [r4, #8]
 1501b1c:	e5dde008 	ldrb	lr, [sp, #8]
 1501b20:	e5c43004 	strb	r3, [r4, #4]
 1501b24:	e5ddc00a 	ldrb	ip, [sp, #10]
 1501b28:	e022200e 	eor	r2, r2, lr
 1501b2c:	e5d4300a 	ldrb	r3, [r4, #10]
 1501b30:	e5c42008 	strb	r2, [r4, #8]
 1501b34:	e023300c 	eor	r3, r3, ip
 1501b38:	e5c4300a 	strb	r3, [r4, #10]
 1501b3c:	eb0004a9 	bl	1502de8 <flush_cache>
 1501b40:	e1a02005 	mov	r2, r5
 1501b44:	e3a01000 	mov	r1, #0
 1501b48:	e1a0000d 	mov	r0, sp
 1501b4c:	eb0003d3 	bl	1502aa0 <memset>
 1501b50:	e1a01005 	mov	r1, r5
 1501b54:	e1a0000d 	mov	r0, sp
 1501b58:	eb0004a2 	bl	1502de8 <flush_cache>
 1501b5c:	e30306f8 	movw	r0, #14072	; 0x36f8
 1501b60:	e3400151 	movt	r0, #337	; 0x151
 1501b64:	e28dd014 	add	sp, sp, #20
 1501b68:	e8bd80f0 	pop	{r4, r5, r6, r7, pc}
 1501b6c:	e5d61001 	ldrb	r1, [r6, #1]
 1501b70:	e1a00006 	mov	r0, r6
 1501b74:	e5dd2001 	ldrb	r2, [sp, #1]
 1501b78:	e1a0300d 	mov	r3, sp
 1501b7c:	e5d6c004 	ldrb	ip, [r6, #4]
 1501b80:	e0222001 	eor	r2, r2, r1
 1501b84:	e5dd1004 	ldrb	r1, [sp, #4]
 1501b88:	e5d6e008 	ldrb	lr, [r6, #8]
 1501b8c:	e021100c 	eor	r1, r1, ip
 1501b90:	e5ddc008 	ldrb	ip, [sp, #8]
 1501b94:	e5d6700a 	ldrb	r7, [r6, #10]
 1501b98:	e02ee00c 	eor	lr, lr, ip
 1501b9c:	e5ddc00a 	ldrb	ip, [sp, #10]
 1501ba0:	e5c62001 	strb	r2, [r6, #1]
 1501ba4:	e1a02004 	mov	r2, r4
 1501ba8:	e5c61004 	strb	r1, [r6, #4]
 1501bac:	e02cc007 	eor	ip, ip, r7
 1501bb0:	e1a01005 	mov	r1, r5
 1501bb4:	e5c6e008 	strb	lr, [r6, #8]
 1501bb8:	e5c6c00a 	strb	ip, [r6, #10]
 1501bbc:	ebfffe09 	bl	15013e8 <AES_ECB_encrypt>
 1501bc0:	e1a01005 	mov	r1, r5
 1501bc4:	e1a00004 	mov	r0, r4
 1501bc8:	eb000486 	bl	1502de8 <flush_cache>
 1501bcc:	eaffffdb 	b	1501b40 <R1+0x12c>

01501bd0 <R0>:
 1501bd0:	e92d41f0 	push	{r4, r5, r6, r7, r8, lr}
 1501bd4:	e30386f8 	movw	r8, #14072	; 0x36f8
 1501bd8:	e3408151 	movt	r8, #337	; 0x151
 1501bdc:	e2424001 	sub	r4, r2, #1
 1501be0:	e1a05002 	mov	r5, r2
 1501be4:	e1a06000 	mov	r6, r0
 1501be8:	e1a07001 	mov	r7, r1
 1501bec:	e0884004 	add	r4, r8, r4
 1501bf0:	eb0002e1 	bl	150277c <sync>
 1501bf4:	e1a02006 	mov	r2, r6
 1501bf8:	e1a01005 	mov	r1, r5
 1501bfc:	e1a00007 	mov	r0, r7
 1501c00:	ebfffb39 	bl	15008ec <start_program>
 1501c04:	eb0002dc 	bl	150277c <sync>
 1501c08:	e1a02005 	mov	r2, r5
 1501c0c:	e3a01000 	mov	r1, #0
 1501c10:	e30306f8 	movw	r0, #14072	; 0x36f8
 1501c14:	e3400151 	movt	r0, #337	; 0x151
 1501c18:	eb0003a0 	bl	1502aa0 <memset>
 1501c1c:	e1a02005 	mov	r2, r5
 1501c20:	e30316f8 	movw	r1, #14072	; 0x36f8
 1501c24:	e3401151 	movt	r1, #337	; 0x151
 1501c28:	e1a00007 	mov	r0, r7
 1501c2c:	ebfffc51 	bl	1500d78 <OTP_Get_Byte>
 1501c30:	e1a01005 	mov	r1, r5
 1501c34:	e30306f8 	movw	r0, #14072	; 0x36f8
 1501c38:	e3400151 	movt	r0, #337	; 0x151
 1501c3c:	eb000469 	bl	1502de8 <flush_cache>
 1501c40:	eb0002cd 	bl	150277c <sync>
 1501c44:	eb0002cc 	bl	150277c <sync>
 1501c48:	e3550000 	cmp	r5, #0
 1501c4c:	0a00000d 	beq	1501c88 <R0+0xb8>
 1501c50:	e5d83000 	ldrb	r3, [r8]
 1501c54:	e5d62000 	ldrb	r2, [r6]
 1501c58:	e1520003 	cmp	r2, r3
 1501c5c:	030336f8 	movweq	r3, #14072	; 0x36f8
 1501c60:	01a02006 	moveq	r2, r6
 1501c64:	03403151 	movteq	r3, #337	; 0x151
 1501c68:	0a000004 	beq	1501c80 <R0+0xb0>
 1501c6c:	ea00000a 	b	1501c9c <R0+0xcc>
 1501c70:	e5f20001 	ldrb	r0, [r2, #1]!
 1501c74:	e5f31001 	ldrb	r1, [r3, #1]!
 1501c78:	e1500001 	cmp	r0, r1
 1501c7c:	1a000006 	bne	1501c9c <R0+0xcc>
 1501c80:	e1530004 	cmp	r3, r4
 1501c84:	1afffff9 	bne	1501c70 <R0+0xa0>
 1501c88:	e3030168 	movw	r0, #12648	; 0x3168
 1501c8c:	e3400150 	movt	r0, #336	; 0x150
 1501c90:	eb0002df 	bl	1502814 <prints>
 1501c94:	e3a00000 	mov	r0, #0
 1501c98:	e8bd81f0 	pop	{r4, r5, r6, r7, r8, pc}
 1501c9c:	e30326f0 	movw	r2, #14064	; 0x36f0
 1501ca0:	e3402151 	movt	r2, #337	; 0x151
 1501ca4:	e5d23000 	ldrb	r3, [r2]
 1501ca8:	e2833001 	add	r3, r3, #1
 1501cac:	e6ef3073 	uxtb	r3, r3
 1501cb0:	e5c23000 	strb	r3, [r2]
 1501cb4:	e3530004 	cmp	r3, #4
 1501cb8:	9affffcc 	bls	1501bf0 <R0+0x20>
 1501cbc:	e3a00001 	mov	r0, #1
 1501cc0:	e8bd81f0 	pop	{r4, r5, r6, r7, r8, pc}

01501cc4 <obfuse_getset>:
 1501cc4:	e92d4ff0 	push	{r4, r5, r6, r7, r8, r9, sl, fp, lr}
 1501cc8:	e303caf8 	movw	ip, #15096	; 0x3af8
 1501ccc:	e340c151 	movt	ip, #337	; 0x151
 1501cd0:	e24ddf9b 	sub	sp, sp, #620	; 0x26c
 1501cd4:	e3a06000 	mov	r6, #0
 1501cd8:	e303e158 	movw	lr, #12632	; 0x3158
 1501cdc:	e340e150 	movt	lr, #336	; 0x150
 1501ce0:	e1a04000 	mov	r4, r0
 1501ce4:	e1a09001 	mov	r9, r1
 1501ce8:	e58d6004 	str	r6, [sp, #4]
 1501cec:	e1a0a002 	mov	sl, r2
 1501cf0:	e58dc004 	str	ip, [sp, #4]
 1501cf4:	e28dc008 	add	ip, sp, #8
 1501cf8:	e59d5004 	ldr	r5, [sp, #4]
 1501cfc:	e1a0b003 	mov	fp, r3
 1501d00:	e59e0000 	ldr	r0, [lr]
 1501d04:	e3e08077 	mvn	r8, #119	; 0x77
 1501d08:	e3c5500f 	bic	r5, r5, #15
 1501d0c:	e58d5004 	str	r5, [sp, #4]
 1501d10:	e59d5004 	ldr	r5, [sp, #4]
 1501d14:	e3a07053 	mov	r7, #83	; 0x53
 1501d18:	e59e1004 	ldr	r1, [lr, #4]
 1501d1c:	e59e2008 	ldr	r2, [lr, #8]
 1501d20:	e2855010 	add	r5, r5, #16
 1501d24:	e59e300c 	ldr	r3, [lr, #12]
 1501d28:	e8ac000f 	stmia	ip!, {r0, r1, r2, r3}
 1501d2c:	e58d5004 	str	r5, [sp, #4]
 1501d30:	e1a01006 	mov	r1, r6
 1501d34:	e28d0068 	add	r0, sp, #104	; 0x68
 1501d38:	e3a02c02 	mov	r2, #512	; 0x200
 1501d3c:	e3a0c023 	mov	ip, #35	; 0x23
 1501d40:	e3e0305f 	mvn	r3, #95	; 0x5f
 1501d44:	e5cdc009 	strb	ip, [sp, #9]
 1501d48:	e3a0c03e 	mov	ip, #62	; 0x3e
 1501d4c:	e5cd300a 	strb	r3, [sp, #10]
 1501d50:	e3a0305f 	mov	r3, #95	; 0x5f
 1501d54:	e59d5004 	ldr	r5, [sp, #4]
 1501d58:	e5cd300c 	strb	r3, [sp, #12]
 1501d5c:	e3e0305e 	mvn	r3, #94	; 0x5e
 1501d60:	e5cd8008 	strb	r8, [sp, #8]
 1501d64:	e5cd300e 	strb	r3, [sp, #14]
 1501d68:	e3e03036 	mvn	r3, #54	; 0x36
 1501d6c:	e5cdc00b 	strb	ip, [sp, #11]
 1501d70:	e5cd300f 	strb	r3, [sp, #15]
 1501d74:	e3e0300d 	mvn	r3, #13
 1501d78:	e5cd700d 	strb	r7, [sp, #13]
 1501d7c:	e5cd3010 	strb	r3, [sp, #16]
 1501d80:	e3a03060 	mov	r3, #96	; 0x60
 1501d84:	e5cd3011 	strb	r3, [sp, #17]
 1501d88:	e3e03072 	mvn	r3, #114	; 0x72
 1501d8c:	e5cd3012 	strb	r3, [sp, #18]
 1501d90:	e3a03079 	mov	r3, #121	; 0x79
 1501d94:	e5cd3013 	strb	r3, [sp, #19]
 1501d98:	e3e03054 	mvn	r3, #84	; 0x54
 1501d9c:	e5cd3014 	strb	r3, [sp, #20]
 1501da0:	e3e03057 	mvn	r3, #87	; 0x57
 1501da4:	e5cd3015 	strb	r3, [sp, #21]
 1501da8:	e3e03037 	mvn	r3, #55	; 0x37
 1501dac:	e5cd3016 	strb	r3, [sp, #22]
 1501db0:	e3e0302f 	mvn	r3, #47	; 0x2f
 1501db4:	e5cd3017 	strb	r3, [sp, #23]
 1501db8:	eb000338 	bl	1502aa0 <memset>
 1501dbc:	e3540001 	cmp	r4, #1
 1501dc0:	0a00009e 	beq	1502040 <obfuse_getset+0x37c>
 1501dc4:	3a000095 	bcc	1502020 <obfuse_getset+0x35c>
 1501dc8:	e3540002 	cmp	r4, #2
 1501dcc:	0a000002 	beq	1501ddc <obfuse_getset+0x118>
 1501dd0:	e3a00001 	mov	r0, #1
 1501dd4:	e28ddf9b 	add	sp, sp, #620	; 0x26c
 1501dd8:	e8bd8ff0 	pop	{r4, r5, r6, r7, r8, r9, sl, fp, pc}
 1501ddc:	e59d3294 	ldr	r3, [sp, #660]	; 0x294
 1501de0:	e1a01009 	mov	r1, r9
 1501de4:	e28d0068 	add	r0, sp, #104	; 0x68
 1501de8:	e30376f0 	movw	r7, #14064	; 0x36f0
 1501dec:	e3407151 	movt	r7, #337	; 0x151
 1501df0:	e3c3400f 	bic	r4, r3, #15
 1501df4:	e1a02004 	mov	r2, r4
 1501df8:	ebfff93a 	bl	15002e8 <memcpy>
 1501dfc:	e28d3008 	add	r3, sp, #8
 1501e00:	e1a02005 	mov	r2, r5
 1501e04:	e1a01004 	mov	r1, r4
 1501e08:	e28d0068 	add	r0, sp, #104	; 0x68
 1501e0c:	ebfffd50 	bl	1501354 <AES_ECB_decrypt>
 1501e10:	e1a01004 	mov	r1, r4
 1501e14:	e1a00005 	mov	r0, r5
 1501e18:	eb0003f2 	bl	1502de8 <flush_cache>
 1501e1c:	e1a02004 	mov	r2, r4
 1501e20:	e1a01005 	mov	r1, r5
 1501e24:	e28d0028 	add	r0, sp, #40	; 0x28
 1501e28:	ebfff92e 	bl	15002e8 <memcpy>
 1501e2c:	e1a01004 	mov	r1, r4
 1501e30:	e28d0028 	add	r0, sp, #40	; 0x28
 1501e34:	eb0003eb 	bl	1502de8 <flush_cache>
 1501e38:	e1a01004 	mov	r1, r4
 1501e3c:	e1a0000a 	mov	r0, sl
 1501e40:	eb0003e8 	bl	1502de8 <flush_cache>
 1501e44:	e1a02004 	mov	r2, r4
 1501e48:	e1a0100a 	mov	r1, sl
 1501e4c:	e28d0068 	add	r0, sp, #104	; 0x68
 1501e50:	ebfff924 	bl	15002e8 <memcpy>
 1501e54:	e1a01004 	mov	r1, r4
 1501e58:	e28d0068 	add	r0, sp, #104	; 0x68
 1501e5c:	eb0003e1 	bl	1502de8 <flush_cache>
 1501e60:	e28d3008 	add	r3, sp, #8
 1501e64:	e1a02005 	mov	r2, r5
 1501e68:	e1a01004 	mov	r1, r4
 1501e6c:	e28d0068 	add	r0, sp, #104	; 0x68
 1501e70:	ebfffd37 	bl	1501354 <AES_ECB_decrypt>
 1501e74:	e1a01004 	mov	r1, r4
 1501e78:	e1a00005 	mov	r0, r5
 1501e7c:	eb0003d9 	bl	1502de8 <flush_cache>
 1501e80:	e1a02004 	mov	r2, r4
 1501e84:	e1a01005 	mov	r1, r5
 1501e88:	e28d0038 	add	r0, sp, #56	; 0x38
 1501e8c:	ebfff915 	bl	15002e8 <memcpy>
 1501e90:	e1a01004 	mov	r1, r4
 1501e94:	e28d0038 	add	r0, sp, #56	; 0x38
 1501e98:	eb0003d2 	bl	1502de8 <flush_cache>
 1501e9c:	e1a01004 	mov	r1, r4
 1501ea0:	e1a0000b 	mov	r0, fp
 1501ea4:	eb0003cf 	bl	1502de8 <flush_cache>
 1501ea8:	e1a02004 	mov	r2, r4
 1501eac:	e1a0100b 	mov	r1, fp
 1501eb0:	e28d0068 	add	r0, sp, #104	; 0x68
 1501eb4:	ebfff90b 	bl	15002e8 <memcpy>
 1501eb8:	e1a01004 	mov	r1, r4
 1501ebc:	e28d0068 	add	r0, sp, #104	; 0x68
 1501ec0:	eb0003c8 	bl	1502de8 <flush_cache>
 1501ec4:	e28d3008 	add	r3, sp, #8
 1501ec8:	e1a02005 	mov	r2, r5
 1501ecc:	e1a01004 	mov	r1, r4
 1501ed0:	e28d0068 	add	r0, sp, #104	; 0x68
 1501ed4:	ebfffd1e 	bl	1501354 <AES_ECB_decrypt>
 1501ed8:	e1a01004 	mov	r1, r4
 1501edc:	e1a00005 	mov	r0, r5
 1501ee0:	eb0003c0 	bl	1502de8 <flush_cache>
 1501ee4:	e1a02004 	mov	r2, r4
 1501ee8:	e1a01005 	mov	r1, r5
 1501eec:	e28d0048 	add	r0, sp, #72	; 0x48
 1501ef0:	ebfff8fc 	bl	15002e8 <memcpy>
 1501ef4:	e1a01004 	mov	r1, r4
 1501ef8:	e28d0048 	add	r0, sp, #72	; 0x48
 1501efc:	eb0003b9 	bl	1502de8 <flush_cache>
 1501f00:	e1a01004 	mov	r1, r4
 1501f04:	e59d0290 	ldr	r0, [sp, #656]	; 0x290
 1501f08:	eb0003b6 	bl	1502de8 <flush_cache>
 1501f0c:	e1a02004 	mov	r2, r4
 1501f10:	e59d1290 	ldr	r1, [sp, #656]	; 0x290
 1501f14:	e28d0068 	add	r0, sp, #104	; 0x68
 1501f18:	ebfff8f2 	bl	15002e8 <memcpy>
 1501f1c:	e1a01004 	mov	r1, r4
 1501f20:	e28d0068 	add	r0, sp, #104	; 0x68
 1501f24:	eb0003af 	bl	1502de8 <flush_cache>
 1501f28:	e28d3008 	add	r3, sp, #8
 1501f2c:	e1a02005 	mov	r2, r5
 1501f30:	e1a01004 	mov	r1, r4
 1501f34:	e28d0068 	add	r0, sp, #104	; 0x68
 1501f38:	ebfffd05 	bl	1501354 <AES_ECB_decrypt>
 1501f3c:	e1a01004 	mov	r1, r4
 1501f40:	e1a00005 	mov	r0, r5
 1501f44:	eb0003a7 	bl	1502de8 <flush_cache>
 1501f48:	e1a02004 	mov	r2, r4
 1501f4c:	e1a01005 	mov	r1, r5
 1501f50:	e28d0058 	add	r0, sp, #88	; 0x58
 1501f54:	ebfff8e3 	bl	15002e8 <memcpy>
 1501f58:	e1a01004 	mov	r1, r4
 1501f5c:	e28d0058 	add	r0, sp, #88	; 0x58
 1501f60:	eb0003a0 	bl	1502de8 <flush_cache>
 1501f64:	e1a01006 	mov	r1, r6
 1501f68:	e1a02004 	mov	r2, r4
 1501f6c:	e28d0018 	add	r0, sp, #24
 1501f70:	eb0002ca 	bl	1502aa0 <memset>
 1501f74:	e1a02004 	mov	r2, r4
 1501f78:	e28d1018 	add	r1, sp, #24
 1501f7c:	e3a00a01 	mov	r0, #4096	; 0x1000
 1501f80:	ebfffb7c 	bl	1500d78 <OTP_Get_Byte>
 1501f84:	e1a01004 	mov	r1, r4
 1501f88:	e28d0018 	add	r0, sp, #24
 1501f8c:	eb000395 	bl	1502de8 <flush_cache>
 1501f90:	eb0001f9 	bl	150277c <sync>
 1501f94:	e28d3028 	add	r3, sp, #40	; 0x28
 1501f98:	e28d2068 	add	r2, sp, #104	; 0x68
 1501f9c:	e1a01004 	mov	r1, r4
 1501fa0:	e28d0018 	add	r0, sp, #24
 1501fa4:	ebfffd0f 	bl	15013e8 <AES_ECB_encrypt>
 1501fa8:	e1a01004 	mov	r1, r4
 1501fac:	e28d0068 	add	r0, sp, #104	; 0x68
 1501fb0:	eb00038c 	bl	1502de8 <flush_cache>
 1501fb4:	e1a01006 	mov	r1, r6
 1501fb8:	e1a02004 	mov	r2, r4
 1501fbc:	e28d0018 	add	r0, sp, #24
 1501fc0:	eb0002b6 	bl	1502aa0 <memset>
 1501fc4:	e28d3068 	add	r3, sp, #104	; 0x68
 1501fc8:	e1a02005 	mov	r2, r5
 1501fcc:	e1a01004 	mov	r1, r4
 1501fd0:	e28d0038 	add	r0, sp, #56	; 0x38
 1501fd4:	ebfffd03 	bl	15013e8 <AES_ECB_encrypt>
 1501fd8:	e1a01004 	mov	r1, r4
 1501fdc:	e1a00005 	mov	r0, r5
 1501fe0:	eb000380 	bl	1502de8 <flush_cache>
 1501fe4:	e1a01004 	mov	r1, r4
 1501fe8:	e28d0038 	add	r0, sp, #56	; 0x38
 1501fec:	eb00037d 	bl	1502de8 <flush_cache>
 1501ff0:	e1a02004 	mov	r2, r4
 1501ff4:	e3a01d26 	mov	r1, #2432	; 0x980
 1501ff8:	e1a00005 	mov	r0, r5
 1501ffc:	e5c76000 	strb	r6, [r7]
 1502000:	ebfffef2 	bl	1501bd0 <R0>
 1502004:	e1a06000 	mov	r6, r0
 1502008:	eb0001db 	bl	150277c <sync>
 150200c:	e3560000 	cmp	r6, #0
 1502010:	0a00008c 	beq	1502248 <obfuse_getset+0x584>
 1502014:	e1a00006 	mov	r0, r6
 1502018:	e28ddf9b 	add	sp, sp, #620	; 0x26c
 150201c:	e8bd8ff0 	pop	{r4, r5, r6, r7, r8, r9, sl, fp, pc}
 1502020:	e59d2294 	ldr	r2, [sp, #660]	; 0x294
 1502024:	e3a01ed2 	mov	r1, #3360	; 0xd20
 1502028:	e1a00009 	mov	r0, r9
 150202c:	ebfffee7 	bl	1501bd0 <R0>
 1502030:	eb0001d1 	bl	150277c <sync>
 1502034:	e3a00001 	mov	r0, #1
 1502038:	e28ddf9b 	add	sp, sp, #620	; 0x26c
 150203c:	e8bd8ff0 	pop	{r4, r5, r6, r7, r8, r9, sl, fp, pc}
 1502040:	e59d3294 	ldr	r3, [sp, #660]	; 0x294
 1502044:	e1a01006 	mov	r1, r6
 1502048:	e3a02010 	mov	r2, #16
 150204c:	e28d0018 	add	r0, sp, #24
 1502050:	e3c3400f 	bic	r4, r3, #15
 1502054:	eb000291 	bl	1502aa0 <memset>
 1502058:	e1a01009 	mov	r1, r9
 150205c:	e1a02004 	mov	r2, r4
 1502060:	e28d0068 	add	r0, sp, #104	; 0x68
 1502064:	e5cd701f 	strb	r7, [sp, #31]
 1502068:	e3a03022 	mov	r3, #34	; 0x22
 150206c:	e5cd801d 	strb	r8, [sp, #29]
 1502070:	e5cd3019 	strb	r3, [sp, #25]
 1502074:	e3a0c07a 	mov	ip, #122	; 0x7a
 1502078:	e5cd3024 	strb	r3, [sp, #36]	; 0x24
 150207c:	e3e0706b 	mvn	r7, #107	; 0x6b
 1502080:	e5cdc018 	strb	ip, [sp, #24]
 1502084:	e3e0e061 	mvn	lr, #97	; 0x61
 1502088:	e5cd701a 	strb	r7, [sp, #26]
 150208c:	e3a0c041 	mov	ip, #65	; 0x41
 1502090:	e5cde01b 	strb	lr, [sp, #27]
 1502094:	e3a03062 	mov	r3, #98	; 0x62
 1502098:	e5cdc01c 	strb	ip, [sp, #28]
 150209c:	e3a0e004 	mov	lr, #4
 15020a0:	e5cd301e 	strb	r3, [sp, #30]
 15020a4:	e3a0c002 	mov	ip, #2
 15020a8:	e5cde020 	strb	lr, [sp, #32]
 15020ac:	e3e0307d 	mvn	r3, #125	; 0x7d
 15020b0:	e3a0e061 	mov	lr, #97	; 0x61
 15020b4:	e5cdc021 	strb	ip, [sp, #33]	; 0x21
 15020b8:	e5cde025 	strb	lr, [sp, #37]	; 0x25
 15020bc:	e3a0c011 	mov	ip, #17
 15020c0:	e5cd3023 	strb	r3, [sp, #35]	; 0x23
 15020c4:	e3e0305d 	mvn	r3, #93	; 0x5d
 15020c8:	e5cdc026 	strb	ip, [sp, #38]	; 0x26
 15020cc:	e5cd3027 	strb	r3, [sp, #39]	; 0x27
 15020d0:	e5cd6022 	strb	r6, [sp, #34]	; 0x22
 15020d4:	ebfff883 	bl	15002e8 <memcpy>
 15020d8:	e28d3008 	add	r3, sp, #8
 15020dc:	e1a02005 	mov	r2, r5
 15020e0:	e1a01004 	mov	r1, r4
 15020e4:	e28d0068 	add	r0, sp, #104	; 0x68
 15020e8:	ebfffc99 	bl	1501354 <AES_ECB_decrypt>
 15020ec:	e1a01004 	mov	r1, r4
 15020f0:	e1a00005 	mov	r0, r5
 15020f4:	eb00033b 	bl	1502de8 <flush_cache>
 15020f8:	e1a02004 	mov	r2, r4
 15020fc:	e1a01005 	mov	r1, r5
 1502100:	e28d0028 	add	r0, sp, #40	; 0x28
 1502104:	ebfff877 	bl	15002e8 <memcpy>
 1502108:	e1a01004 	mov	r1, r4
 150210c:	e28d0028 	add	r0, sp, #40	; 0x28
 1502110:	eb000334 	bl	1502de8 <flush_cache>
 1502114:	e1a02004 	mov	r2, r4
 1502118:	e1a01006 	mov	r1, r6
 150211c:	e1a00005 	mov	r0, r5
 1502120:	eb00025e 	bl	1502aa0 <memset>
 1502124:	e1a02004 	mov	r2, r4
 1502128:	e1a0100a 	mov	r1, sl
 150212c:	e28d0068 	add	r0, sp, #104	; 0x68
 1502130:	ebfff86c 	bl	15002e8 <memcpy>
 1502134:	e28d3008 	add	r3, sp, #8
 1502138:	e1a02005 	mov	r2, r5
 150213c:	e1a01004 	mov	r1, r4
 1502140:	e28d0068 	add	r0, sp, #104	; 0x68
 1502144:	ebfffc82 	bl	1501354 <AES_ECB_decrypt>
 1502148:	e1a01004 	mov	r1, r4
 150214c:	e1a00005 	mov	r0, r5
 1502150:	eb000324 	bl	1502de8 <flush_cache>
 1502154:	e1a02004 	mov	r2, r4
 1502158:	e1a01005 	mov	r1, r5
 150215c:	e28d0038 	add	r0, sp, #56	; 0x38
 1502160:	ebfff860 	bl	15002e8 <memcpy>
 1502164:	e1a01004 	mov	r1, r4
 1502168:	e28d0038 	add	r0, sp, #56	; 0x38
 150216c:	eb00031d 	bl	1502de8 <flush_cache>
 1502170:	e1a02004 	mov	r2, r4
 1502174:	e1a01006 	mov	r1, r6
 1502178:	e1a00005 	mov	r0, r5
 150217c:	eb000247 	bl	1502aa0 <memset>
 1502180:	e28d3028 	add	r3, sp, #40	; 0x28
 1502184:	e28d2068 	add	r2, sp, #104	; 0x68
 1502188:	e1a01004 	mov	r1, r4
 150218c:	e28d0018 	add	r0, sp, #24
 1502190:	ebfffc94 	bl	15013e8 <AES_ECB_encrypt>
 1502194:	e1a01004 	mov	r1, r4
 1502198:	e28d0068 	add	r0, sp, #104	; 0x68
 150219c:	eb000311 	bl	1502de8 <flush_cache>
 15021a0:	e1a02004 	mov	r2, r4
 15021a4:	e1a01006 	mov	r1, r6
 15021a8:	e28d0018 	add	r0, sp, #24
 15021ac:	eb00023b 	bl	1502aa0 <memset>
 15021b0:	e28d3068 	add	r3, sp, #104	; 0x68
 15021b4:	e1a02005 	mov	r2, r5
 15021b8:	e1a01004 	mov	r1, r4
 15021bc:	e28d0038 	add	r0, sp, #56	; 0x38
 15021c0:	ebfffc88 	bl	15013e8 <AES_ECB_encrypt>
 15021c4:	e1a01004 	mov	r1, r4
 15021c8:	e1a00005 	mov	r0, r5
 15021cc:	eb000305 	bl	1502de8 <flush_cache>
 15021d0:	e1a02004 	mov	r2, r4
 15021d4:	e1a01006 	mov	r1, r6
 15021d8:	e28d0038 	add	r0, sp, #56	; 0x38
 15021dc:	eb00022f 	bl	1502aa0 <memset>
 15021e0:	e1a02004 	mov	r2, r4
 15021e4:	e1a01006 	mov	r1, r6
 15021e8:	e28d0068 	add	r0, sp, #104	; 0x68
 15021ec:	eb00022b 	bl	1502aa0 <memset>
 15021f0:	e1a01004 	mov	r1, r4
 15021f4:	e28d0038 	add	r0, sp, #56	; 0x38
 15021f8:	eb0002fa 	bl	1502de8 <flush_cache>
 15021fc:	e1a01004 	mov	r1, r4
 1502200:	e28d0068 	add	r0, sp, #104	; 0x68
 1502204:	eb0002f7 	bl	1502de8 <flush_cache>
 1502208:	e30336f0 	movw	r3, #14064	; 0x36f0
 150220c:	e3403151 	movt	r3, #337	; 0x151
 1502210:	e1a02004 	mov	r2, r4
 1502214:	e3a01c09 	mov	r1, #2304	; 0x900
 1502218:	e1a00005 	mov	r0, r5
 150221c:	e5c36000 	strb	r6, [r3]
 1502220:	ebfffe6a 	bl	1501bd0 <R0>
 1502224:	e1a02004 	mov	r2, r4
 1502228:	e1a07000 	mov	r7, r0
 150222c:	e1a01006 	mov	r1, r6
 1502230:	e1a00005 	mov	r0, r5
 1502234:	eb000219 	bl	1502aa0 <memset>
 1502238:	eb00014f 	bl	150277c <sync>
 150223c:	e1a00007 	mov	r0, r7
 1502240:	e28ddf9b 	add	sp, sp, #620	; 0x26c
 1502244:	e8bd8ff0 	pop	{r4, r5, r6, r7, r8, r9, sl, fp, pc}
 1502248:	e28d3068 	add	r3, sp, #104	; 0x68
 150224c:	e1a02005 	mov	r2, r5
 1502250:	e1a01004 	mov	r1, r4
 1502254:	e28d0048 	add	r0, sp, #72	; 0x48
 1502258:	ebfffc62 	bl	15013e8 <AES_ECB_encrypt>
 150225c:	e1a01004 	mov	r1, r4
 1502260:	e1a00005 	mov	r0, r5
 1502264:	eb0002df 	bl	1502de8 <flush_cache>
 1502268:	e1a01004 	mov	r1, r4
 150226c:	e28d0048 	add	r0, sp, #72	; 0x48
 1502270:	eb0002dc 	bl	1502de8 <flush_cache>
 1502274:	e1a02004 	mov	r2, r4
 1502278:	e3a01d46 	mov	r1, #4480	; 0x1180
 150227c:	e1a00005 	mov	r0, r5
 1502280:	e5c76000 	strb	r6, [r7]
 1502284:	ebfffe51 	bl	1501bd0 <R0>
 1502288:	e1a06000 	mov	r6, r0
 150228c:	eb00013a 	bl	150277c <sync>
 1502290:	e3560000 	cmp	r6, #0
 1502294:	1affff5e 	bne	1502014 <obfuse_getset+0x350>
 1502298:	e28d3068 	add	r3, sp, #104	; 0x68
 150229c:	e1a02005 	mov	r2, r5
 15022a0:	e1a01004 	mov	r1, r4
 15022a4:	e28d0058 	add	r0, sp, #88	; 0x58
 15022a8:	ebfffc4e 	bl	15013e8 <AES_ECB_encrypt>
 15022ac:	e1a01004 	mov	r1, r4
 15022b0:	e1a00005 	mov	r0, r5
 15022b4:	eb0002cb 	bl	1502de8 <flush_cache>
 15022b8:	e1a01004 	mov	r1, r4
 15022bc:	e28d0058 	add	r0, sp, #88	; 0x58
 15022c0:	eb0002c8 	bl	1502de8 <flush_cache>
 15022c4:	e1a00005 	mov	r0, r5
 15022c8:	e1a02004 	mov	r2, r4
 15022cc:	e3a01d42 	mov	r1, #4224	; 0x1080
 15022d0:	e5c76000 	strb	r6, [r7]
 15022d4:	ebfffe3d 	bl	1501bd0 <R0>
 15022d8:	e1a05000 	mov	r5, r0
 15022dc:	eb000126 	bl	150277c <sync>
 15022e0:	e3550000 	cmp	r5, #0
 15022e4:	11a00005 	movne	r0, r5
 15022e8:	1afffeb9 	bne	1501dd4 <obfuse_getset+0x110>
 15022ec:	e1a01004 	mov	r1, r4
 15022f0:	e28d0028 	add	r0, sp, #40	; 0x28
 15022f4:	e5c75000 	strb	r5, [r7]
 15022f8:	eb0002ba 	bl	1502de8 <flush_cache>
 15022fc:	e1a02004 	mov	r2, r4
 1502300:	e28d1028 	add	r1, sp, #40	; 0x28
 1502304:	e3a00001 	mov	r0, #1
 1502308:	ebfffdc1 	bl	1501a14 <R1>
 150230c:	e1a02004 	mov	r2, r4
 1502310:	e1a01000 	mov	r1, r0
 1502314:	e28d0068 	add	r0, sp, #104	; 0x68
 1502318:	ebfff7f2 	bl	15002e8 <memcpy>
 150231c:	e1a01004 	mov	r1, r4
 1502320:	e28d0068 	add	r0, sp, #104	; 0x68
 1502324:	eb0002af 	bl	1502de8 <flush_cache>
 1502328:	e1a02004 	mov	r2, r4
 150232c:	e3a01c11 	mov	r1, #4352	; 0x1100
 1502330:	e28d0068 	add	r0, sp, #104	; 0x68
 1502334:	ebfffe25 	bl	1501bd0 <R0>
 1502338:	e1a04000 	mov	r4, r0
 150233c:	eb00010e 	bl	150277c <sync>
 1502340:	e1a00004 	mov	r0, r4
 1502344:	eafffea2 	b	1501dd4 <obfuse_getset+0x110>

01502348 <R2>:
 1502348:	e92d4010 	push	{r4, lr}
 150234c:	e3a02b01 	mov	r2, #1024	; 0x400
 1502350:	e3a01000 	mov	r1, #0
 1502354:	e24ddc06 	sub	sp, sp, #1536	; 0x600
 1502358:	e3a04005 	mov	r4, #5
 150235c:	e28d0c02 	add	r0, sp, #512	; 0x200
 1502360:	eb0001ce 	bl	1502aa0 <memset>
 1502364:	e3a02c01 	mov	r2, #256	; 0x100
 1502368:	e3a01000 	mov	r1, #0
 150236c:	e1a0000d 	mov	r0, sp
 1502370:	eb0001ca 	bl	1502aa0 <memset>
 1502374:	e3a02c01 	mov	r2, #256	; 0x100
 1502378:	e3a01000 	mov	r1, #0
 150237c:	e28d0c01 	add	r0, sp, #256	; 0x100
 1502380:	eb0001c6 	bl	1502aa0 <memset>
 1502384:	e28d1c02 	add	r1, sp, #512	; 0x200
 1502388:	e3a02c01 	mov	r2, #256	; 0x100
 150238c:	e3a00000 	mov	r0, #0
 1502390:	ebfffa78 	bl	1500d78 <OTP_Get_Byte>
 1502394:	e3a02020 	mov	r2, #32
 1502398:	e28d1c03 	add	r1, sp, #768	; 0x300
 150239c:	e3a00b02 	mov	r0, #2048	; 0x800
 15023a0:	ebfffa74 	bl	1500d78 <OTP_Get_Byte>
 15023a4:	e3a02010 	mov	r2, #16
 15023a8:	e28d1e32 	add	r1, sp, #800	; 0x320
 15023ac:	e3a00c09 	mov	r0, #2304	; 0x900
 15023b0:	ebfffa70 	bl	1500d78 <OTP_Get_Byte>
 15023b4:	e3a02010 	mov	r2, #16
 15023b8:	e28d1e33 	add	r1, sp, #816	; 0x330
 15023bc:	e3a00d26 	mov	r0, #2432	; 0x980
 15023c0:	ebfffa6c 	bl	1500d78 <OTP_Get_Byte>
 15023c4:	e3a02010 	mov	r2, #16
 15023c8:	e28d1d0d 	add	r1, sp, #832	; 0x340
 15023cc:	e3a00c0b 	mov	r0, #2816	; 0xb00
 15023d0:	ebfffa68 	bl	1500d78 <OTP_Get_Byte>
 15023d4:	e3a02010 	mov	r2, #16
 15023d8:	e28d1e35 	add	r1, sp, #848	; 0x350
 15023dc:	e3a00a01 	mov	r0, #4096	; 0x1000
 15023e0:	ebfffa64 	bl	1500d78 <OTP_Get_Byte>
 15023e4:	e3a02010 	mov	r2, #16
 15023e8:	e28d1e36 	add	r1, sp, #864	; 0x360
 15023ec:	e3a00d42 	mov	r0, #4224	; 0x1080
 15023f0:	ebfffa60 	bl	1500d78 <OTP_Get_Byte>
 15023f4:	e3a02010 	mov	r2, #16
 15023f8:	e28d1e37 	add	r1, sp, #880	; 0x370
 15023fc:	e3a00c11 	mov	r0, #4352	; 0x1100
 1502400:	ebfffa5c 	bl	1500d78 <OTP_Get_Byte>
 1502404:	e3a02010 	mov	r2, #16
 1502408:	e28d1d0e 	add	r1, sp, #896	; 0x380
 150240c:	e3a00d46 	mov	r0, #4480	; 0x1180
 1502410:	ebfffa58 	bl	1500d78 <OTP_Get_Byte>
 1502414:	e3000da2 	movw	r0, #3490	; 0xda2
 1502418:	ebfff8fc 	bl	1500810 <OTP_JUDGE_BIT>
 150241c:	e5cd0390 	strb	r0, [sp, #912]	; 0x390
 1502420:	e3000da4 	movw	r0, #3492	; 0xda4
 1502424:	ebfff8f9 	bl	1500810 <OTP_JUDGE_BIT>
 1502428:	e5cd0391 	strb	r0, [sp, #913]	; 0x391
 150242c:	e3000da6 	movw	r0, #3494	; 0xda6
 1502430:	ebfff8f6 	bl	1500810 <OTP_JUDGE_BIT>
 1502434:	e5cd0392 	strb	r0, [sp, #914]	; 0x392
 1502438:	e3000daf 	movw	r0, #3503	; 0xdaf
 150243c:	ebfff8f3 	bl	1500810 <OTP_JUDGE_BIT>
 1502440:	e5cd0393 	strb	r0, [sp, #915]	; 0x393
 1502444:	e3a00edb 	mov	r0, #3504	; 0xdb0
 1502448:	ebfff8f0 	bl	1500810 <OTP_JUDGE_BIT>
 150244c:	e5cd0394 	strb	r0, [sp, #916]	; 0x394
 1502450:	e3000db1 	movw	r0, #3505	; 0xdb1
 1502454:	ebfff8ed 	bl	1500810 <OTP_JUDGE_BIT>
 1502458:	e5cd0395 	strb	r0, [sp, #917]	; 0x395
 150245c:	e3000db2 	movw	r0, #3506	; 0xdb2
 1502460:	ebfff8ea 	bl	1500810 <OTP_JUDGE_BIT>
 1502464:	e5cd0396 	strb	r0, [sp, #918]	; 0x396
 1502468:	e3000db3 	movw	r0, #3507	; 0xdb3
 150246c:	ebfff8e7 	bl	1500810 <OTP_JUDGE_BIT>
 1502470:	e5cd0397 	strb	r0, [sp, #919]	; 0x397
 1502474:	e3000db4 	movw	r0, #3508	; 0xdb4
 1502478:	ebfff8e4 	bl	1500810 <OTP_JUDGE_BIT>
 150247c:	e5cd0398 	strb	r0, [sp, #920]	; 0x398
 1502480:	e3000db5 	movw	r0, #3509	; 0xdb5
 1502484:	ebfff8e1 	bl	1500810 <OTP_JUDGE_BIT>
 1502488:	e5cd0399 	strb	r0, [sp, #921]	; 0x399
 150248c:	e3000db6 	movw	r0, #3510	; 0xdb6
 1502490:	ebfff8de 	bl	1500810 <OTP_JUDGE_BIT>
 1502494:	e5cd039a 	strb	r0, [sp, #922]	; 0x39a
 1502498:	e3000db7 	movw	r0, #3511	; 0xdb7
 150249c:	ebfff8db 	bl	1500810 <OTP_JUDGE_BIT>
 15024a0:	e5cd039b 	strb	r0, [sp, #923]	; 0x39b
 15024a4:	e3000db8 	movw	r0, #3512	; 0xdb8
 15024a8:	ebfff8d8 	bl	1500810 <OTP_JUDGE_BIT>
 15024ac:	e5cd039c 	strb	r0, [sp, #924]	; 0x39c
 15024b0:	e3000dba 	movw	r0, #3514	; 0xdba
 15024b4:	ebfff8d5 	bl	1500810 <OTP_JUDGE_BIT>
 15024b8:	e5cd039d 	strb	r0, [sp, #925]	; 0x39d
 15024bc:	e3000dbb 	movw	r0, #3515	; 0xdbb
 15024c0:	ebfff8d2 	bl	1500810 <OTP_JUDGE_BIT>
 15024c4:	e5cd039e 	strb	r0, [sp, #926]	; 0x39e
 15024c8:	e3000dc2 	movw	r0, #3522	; 0xdc2
 15024cc:	ebfff8cf 	bl	1500810 <OTP_JUDGE_BIT>
 15024d0:	e5cd039f 	strb	r0, [sp, #927]	; 0x39f
 15024d4:	e3000e0b 	movw	r0, #3595	; 0xe0b
 15024d8:	ebfff8cc 	bl	1500810 <OTP_JUDGE_BIT>
 15024dc:	e5cd03a0 	strb	r0, [sp, #928]	; 0x3a0
 15024e0:	e3000e0c 	movw	r0, #3596	; 0xe0c
 15024e4:	ebfff8c9 	bl	1500810 <OTP_JUDGE_BIT>
 15024e8:	e5cd03a1 	strb	r0, [sp, #929]	; 0x3a1
 15024ec:	e3000e0e 	movw	r0, #3598	; 0xe0e
 15024f0:	ebfff8c6 	bl	1500810 <OTP_JUDGE_BIT>
 15024f4:	e5cd03a2 	strb	r0, [sp, #930]	; 0x3a2
 15024f8:	e3000e23 	movw	r0, #3619	; 0xe23
 15024fc:	ebfff8c3 	bl	1500810 <OTP_JUDGE_BIT>
 1502500:	e5cd03a3 	strb	r0, [sp, #931]	; 0x3a3
 1502504:	e3000e24 	movw	r0, #3620	; 0xe24
 1502508:	ebfff8c0 	bl	1500810 <OTP_JUDGE_BIT>
 150250c:	e3a03000 	mov	r3, #0
 1502510:	e1a0200d 	mov	r2, sp
 1502514:	e5cd03a4 	strb	r0, [sp, #932]	; 0x3a4
 1502518:	e30011a5 	movw	r1, #421	; 0x1a5
 150251c:	e28d0c02 	add	r0, sp, #512	; 0x200
 1502520:	ebfffcef 	bl	15018e4 <SHA256_hash>
 1502524:	e28d1c02 	add	r1, sp, #512	; 0x200
 1502528:	e30021a5 	movw	r2, #421	; 0x1a5
 150252c:	e303017c 	movw	r0, #12668	; 0x317c
 1502530:	e3400150 	movt	r0, #336	; 0x150
 1502534:	eb00012d 	bl	15029f0 <hexdump>
 1502538:	e1a0100d 	mov	r1, sp
 150253c:	e3a02020 	mov	r2, #32
 1502540:	e3030188 	movw	r0, #12680	; 0x3188
 1502544:	e3400150 	movt	r0, #336	; 0x150
 1502548:	eb000128 	bl	15029f0 <hexdump>
 150254c:	eb00008a 	bl	150277c <sync>
 1502550:	e1a0200d 	mov	r2, sp
 1502554:	e3a01020 	mov	r1, #32
 1502558:	e3a00c12 	mov	r0, #4608	; 0x1200
 150255c:	ebfff8e2 	bl	15008ec <start_program>
 1502560:	eb000085 	bl	150277c <sync>
 1502564:	e3a02020 	mov	r2, #32
 1502568:	e28d1c01 	add	r1, sp, #256	; 0x100
 150256c:	e3a00c12 	mov	r0, #4608	; 0x1200
 1502570:	ebfffa00 	bl	1500d78 <OTP_Get_Byte>
 1502574:	eb000080 	bl	150277c <sync>
 1502578:	e3a02020 	mov	r2, #32
 150257c:	e28d1c01 	add	r1, sp, #256	; 0x100
 1502580:	e3030198 	movw	r0, #12696	; 0x3198
 1502584:	e3400150 	movt	r0, #336	; 0x150
 1502588:	eb000118 	bl	15029f0 <hexdump>
 150258c:	e3a02020 	mov	r2, #32
 1502590:	e28d1c01 	add	r1, sp, #256	; 0x100
 1502594:	e1a0000d 	mov	r0, sp
 1502598:	ebfff75b 	bl	150030c <memcmp>
 150259c:	e3500000 	cmp	r0, #0
 15025a0:	0a000015 	beq	15025fc <R2+0x2b4>
 15025a4:	eb000074 	bl	150277c <sync>
 15025a8:	e2544001 	subs	r4, r4, #1
 15025ac:	1affffec 	bne	1502564 <R2+0x21c>
 15025b0:	e30301bc 	movw	r0, #12732	; 0x31bc
 15025b4:	e3400150 	movt	r0, #336	; 0x150
 15025b8:	eb000095 	bl	1502814 <prints>
 15025bc:	eb00006e 	bl	150277c <sync>
 15025c0:	e28d0c02 	add	r0, sp, #512	; 0x200
 15025c4:	e3a02b01 	mov	r2, #1024	; 0x400
 15025c8:	e3a01000 	mov	r1, #0
 15025cc:	eb000133 	bl	1502aa0 <memset>
 15025d0:	e1a0000d 	mov	r0, sp
 15025d4:	e3a02c01 	mov	r2, #256	; 0x100
 15025d8:	e3a01000 	mov	r1, #0
 15025dc:	eb00012f 	bl	1502aa0 <memset>
 15025e0:	e28d0c01 	add	r0, sp, #256	; 0x100
 15025e4:	e3a02c01 	mov	r2, #256	; 0x100
 15025e8:	e3a01000 	mov	r1, #0
 15025ec:	eb00012b 	bl	1502aa0 <memset>
 15025f0:	e3a00000 	mov	r0, #0
 15025f4:	e28ddc06 	add	sp, sp, #1536	; 0x600
 15025f8:	e8bd8010 	pop	{r4, pc}
 15025fc:	e30301a8 	movw	r0, #12712	; 0x31a8
 1502600:	e3400150 	movt	r0, #336	; 0x150
 1502604:	eb000082 	bl	1502814 <prints>
 1502608:	eaffffeb 	b	15025bc <R2+0x274>

0150260c <obfuse_judge>:
 150260c:	e3000da6 	movw	r0, #3494	; 0xda6
 1502610:	eafff87e 	b	1500810 <OTP_JUDGE_BIT>

01502614 <InitTimer>:
 1502614:	e3500001 	cmp	r0, #1
 1502618:	9a000001 	bls	1502624 <InitTimer+0x10>
 150261c:	e3e00000 	mvn	r0, #0
 1502620:	e12fff1e 	bx	lr
 1502624:	e3062d40 	movw	r2, #27968	; 0x6d40
 1502628:	e3422600 	movt	r2, #9728	; 0x2600
 150262c:	e0802002 	add	r2, r0, r2
 1502630:	e3a0ca0b 	mov	ip, #45056	; 0xb000
 1502634:	e349c801 	movt	ip, #38913	; 0x9801
 1502638:	e1a02102 	lsl	r2, r2, #2
 150263c:	e2800001 	add	r0, r0, #1
 1502640:	e92d4010 	push	{r4, lr}
 1502644:	e1a03300 	lsl	r3, r0, #6
 1502648:	e5821000 	str	r1, [r2]
 150264c:	e3a0e000 	mov	lr, #0
 1502650:	e3a04103 	mov	r4, #-1073741824	; 0xc0000000
 1502654:	e582e024 	str	lr, [r2, #36]	; 0x24
 1502658:	e3a00001 	mov	r0, #1
 150265c:	e582e018 	str	lr, [r2, #24]
 1502660:	e58c3008 	str	r3, [ip, #8]
 1502664:	e5824018 	str	r4, [r2, #24]
 1502668:	e8bd8010 	pop	{r4, pc}

0150266c <DisableTimer>:
 150266c:	e3500001 	cmp	r0, #1
 1502670:	93063d49 	movwls	r3, #27977	; 0x6d49
 1502674:	93a02000 	movls	r2, #0
 1502678:	93423600 	movtls	r3, #9728	; 0x2600
 150267c:	90803003 	addls	r3, r0, r3
 1502680:	93a00001 	movls	r0, #1
 1502684:	83e00000 	mvnhi	r0, #0
 1502688:	91a03103 	lslls	r3, r3, #2
 150268c:	95832000 	strls	r2, [r3]
 1502690:	9503200c 	strls	r2, [r3, #-12]
 1502694:	e12fff1e 	bx	lr

01502698 <SystemTimeout>:
 1502698:	e3500001 	cmp	r0, #1
 150269c:	9a000001 	bls	15026a8 <SystemTimeout+0x10>
 15026a0:	e3a00000 	mov	r0, #0
 15026a4:	e12fff1e 	bx	lr
 15026a8:	e3a03a0b 	mov	r3, #45056	; 0xb000
 15026ac:	e3493801 	movt	r3, #38913	; 0x9801
 15026b0:	e2800001 	add	r0, r0, #1
 15026b4:	e5933008 	ldr	r3, [r3, #8]
 15026b8:	e0133300 	ands	r3, r3, r0, lsl #6
 15026bc:	13a00001 	movne	r0, #1
 15026c0:	03a00000 	moveq	r0, #0
 15026c4:	e12fff1e 	bx	lr

015026c8 <mdelay>:
 15026c8:	e3043240 	movw	r3, #16960	; 0x4240
 15026cc:	e340300f 	movt	r3, #15
 15026d0:	e30c2ccd 	movw	r2, #52429	; 0xcccd
 15026d4:	e34c2ccc 	movt	r2, #52428	; 0xcccc
 15026d8:	e0000093 	mul	r0, r3, r0
 15026dc:	e3a03a0b 	mov	r3, #45056	; 0xb000
 15026e0:	e3493801 	movt	r3, #38913	; 0x9801
 15026e4:	e52de004 	push	{lr}		; (str lr, [sp, #-4]!)
 15026e8:	e0810290 	umull	r0, r1, r0, r2
 15026ec:	e3a0c000 	mov	ip, #0
 15026f0:	e3a0e040 	mov	lr, #64	; 0x40
 15026f4:	e3a00103 	mov	r0, #-1073741824	; 0xc0000000
 15026f8:	e1a02003 	mov	r2, r3
 15026fc:	e1a01221 	lsr	r1, r1, #4
 1502700:	e5831500 	str	r1, [r3, #1280]	; 0x500
 1502704:	e583c524 	str	ip, [r3, #1316]	; 0x524
 1502708:	e583c518 	str	ip, [r3, #1304]	; 0x518
 150270c:	e583e008 	str	lr, [r3, #8]
 1502710:	e5830518 	str	r0, [r3, #1304]	; 0x518
 1502714:	e5923008 	ldr	r3, [r2, #8]
 1502718:	e3130040 	tst	r3, #64	; 0x40
 150271c:	0afffffc 	beq	1502714 <mdelay+0x4c>
 1502720:	e49df004 	pop	{pc}		; (ldr pc, [sp], #4)

01502724 <udelay>:
 1502724:	e3a03ffa 	mov	r3, #1000	; 0x3e8
 1502728:	e30c2ccd 	movw	r2, #52429	; 0xcccd
 150272c:	e34c2ccc 	movt	r2, #52428	; 0xcccc
 1502730:	e0000093 	mul	r0, r3, r0
 1502734:	e3a03a0b 	mov	r3, #45056	; 0xb000
 1502738:	e3493801 	movt	r3, #38913	; 0x9801
 150273c:	e52de004 	push	{lr}		; (str lr, [sp, #-4]!)
 1502740:	e0810290 	umull	r0, r1, r0, r2
 1502744:	e3a0c000 	mov	ip, #0
 1502748:	e3a0e040 	mov	lr, #64	; 0x40
 150274c:	e3a00103 	mov	r0, #-1073741824	; 0xc0000000
 1502750:	e1a02003 	mov	r2, r3
 1502754:	e1a01221 	lsr	r1, r1, #4
 1502758:	e5831500 	str	r1, [r3, #1280]	; 0x500
 150275c:	e583c524 	str	ip, [r3, #1316]	; 0x524
 1502760:	e583c518 	str	ip, [r3, #1304]	; 0x518
 1502764:	e583e008 	str	lr, [r3, #8]
 1502768:	e5830518 	str	r0, [r3, #1304]	; 0x518
 150276c:	e5923008 	ldr	r3, [r2, #8]
 1502770:	e3130040 	tst	r3, #64	; 0x40
 1502774:	0afffffc 	beq	150276c <udelay+0x48>
 1502778:	e49df004 	pop	{pc}		; (ldr pc, [sp], #4)

0150277c <sync>:
 150277c:	e3a03000 	mov	r3, #0
 1502780:	ee073fba 	mcr	15, 0, r3, cr7, cr10, {5}
 1502784:	e3a02a0a 	mov	r2, #40960	; 0xa000
 1502788:	e3492801 	movt	r2, #38913	; 0x9801
 150278c:	e5823020 	str	r3, [r2, #32]
 1502790:	ee073fba 	mcr	15, 0, r3, cr7, cr10, {5}
 1502794:	e12fff1e 	bx	lr

01502798 <init_uart>:
 1502798:	e3a03a07 	mov	r3, #28672	; 0x7000
 150279c:	e3493800 	movt	r3, #38912	; 0x9800
 15027a0:	e92d4010 	push	{r4, lr}
 15027a4:	e5932310 	ldr	r2, [r3, #784]	; 0x310
 15027a8:	e3a01000 	mov	r1, #0
 15027ac:	e3a04090 	mov	r4, #144	; 0x90
 15027b0:	e3a0e00e 	mov	lr, #14
 15027b4:	e3c228ff 	bic	r2, r2, #16711680	; 0xff0000
 15027b8:	e3a0c003 	mov	ip, #3
 15027bc:	e3c22a0f 	bic	r2, r2, #61440	; 0xf000
 15027c0:	e3a000b7 	mov	r0, #183	; 0xb7
 15027c4:	e3822855 	orr	r2, r2, #5570560	; 0x550000
 15027c8:	e3822a05 	orr	r2, r2, #20480	; 0x5000
 15027cc:	e5832310 	str	r2, [r3, #784]	; 0x310
 15027d0:	e583480c 	str	r4, [r3, #2060]	; 0x80c
 15027d4:	e583e800 	str	lr, [r3, #2048]	; 0x800
 15027d8:	e5831804 	str	r1, [r3, #2052]	; 0x804
 15027dc:	e583c80c 	str	ip, [r3, #2060]	; 0x80c
 15027e0:	e5830808 	str	r0, [r3, #2056]	; 0x808
 15027e4:	e5831804 	str	r1, [r3, #2052]	; 0x804
 15027e8:	e8bd8010 	pop	{r4, pc}

015027ec <set_focus_uart>:
 15027ec:	e30326e4 	movw	r2, #14052	; 0x36e4
 15027f0:	e3402151 	movt	r2, #337	; 0x151
 15027f4:	e3500000 	cmp	r0, #0
 15027f8:	e3a01cb2 	mov	r1, #45568	; 0xb200
 15027fc:	e3491801 	movt	r1, #38913	; 0x9801
 1502800:	e3a03b1e 	mov	r3, #30720	; 0x7800
 1502804:	e3493800 	movt	r3, #38912	; 0x9800
 1502808:	11a03001 	movne	r3, r1
 150280c:	e5823000 	str	r3, [r2]
 1502810:	e12fff1e 	bx	lr

01502814 <prints>:
 1502814:	e5d03000 	ldrb	r3, [r0]
 1502818:	e3530000 	cmp	r3, #0
 150281c:	012fff1e 	bxeq	lr
 1502820:	e30326e4 	movw	r2, #14052	; 0x36e4
 1502824:	e3402151 	movt	r2, #337	; 0x151
 1502828:	e3a0c00d 	mov	ip, #13
 150282c:	e5922000 	ldr	r2, [r2]
 1502830:	e353000a 	cmp	r3, #10
 1502834:	11a01003 	movne	r1, r3
 1502838:	0a000008 	beq	1502860 <prints+0x4c>
 150283c:	e5923014 	ldr	r3, [r2, #20]
 1502840:	e2033060 	and	r3, r3, #96	; 0x60
 1502844:	e3530060 	cmp	r3, #96	; 0x60
 1502848:	1afffffb 	bne	150283c <prints+0x28>
 150284c:	e5821000 	str	r1, [r2]
 1502850:	e5f03001 	ldrb	r3, [r0, #1]!
 1502854:	e3530000 	cmp	r3, #0
 1502858:	1afffff4 	bne	1502830 <prints+0x1c>
 150285c:	e12fff1e 	bx	lr
 1502860:	e5923014 	ldr	r3, [r2, #20]
 1502864:	e2033060 	and	r3, r3, #96	; 0x60
 1502868:	e3530060 	cmp	r3, #96	; 0x60
 150286c:	1afffffb 	bne	1502860 <prints+0x4c>
 1502870:	e582c000 	str	ip, [r2]
 1502874:	e3a0100a 	mov	r1, #10
 1502878:	eaffffef 	b	150283c <prints+0x28>

0150287c <wait_done>:
 150287c:	e5903000 	ldr	r3, [r0]
 1502880:	e0033001 	and	r3, r3, r1
 1502884:	e1530002 	cmp	r3, r2
 1502888:	0a000012 	beq	15028d8 <wait_done+0x5c>
 150288c:	e92d41f0 	push	{r4, r5, r6, r7, r8, lr}
 1502890:	e1a07002 	mov	r7, r2
 1502894:	e1a06001 	mov	r6, r1
 1502898:	e1a05000 	mov	r5, r0
 150289c:	e3004bb9 	movw	r4, #3001	; 0xbb9
 15028a0:	ea000001 	b	15028ac <wait_done+0x30>
 15028a4:	e2544001 	subs	r4, r4, #1
 15028a8:	0a000006 	beq	15028c8 <wait_done+0x4c>
 15028ac:	e3a00001 	mov	r0, #1
 15028b0:	ebffff84 	bl	15026c8 <mdelay>
 15028b4:	e5953000 	ldr	r3, [r5]
 15028b8:	e0033006 	and	r3, r3, r6
 15028bc:	e1530007 	cmp	r3, r7
 15028c0:	1afffff7 	bne	15028a4 <wait_done+0x28>
 15028c4:	e8bd81f0 	pop	{r4, r5, r6, r7, r8, pc}
 15028c8:	e30301d8 	movw	r0, #12760	; 0x31d8
 15028cc:	e3400150 	movt	r0, #336	; 0x150
 15028d0:	e8bd41f0 	pop	{r4, r5, r6, r7, r8, lr}
 15028d4:	eaffffce 	b	1502814 <prints>
 15028d8:	e12fff1e 	bx	lr

015028dc <print_val>:
 15028dc:	e30336e4 	movw	r3, #14052	; 0x36e4
 15028e0:	e3403151 	movt	r3, #337	; 0x151
 15028e4:	e2411001 	sub	r1, r1, #1
 15028e8:	e5932000 	ldr	r2, [r3]
 15028ec:	e1a03101 	lsl	r3, r1, #2
 15028f0:	e1a03330 	lsr	r3, r0, r3
 15028f4:	e203300f 	and	r3, r3, #15
 15028f8:	e353000a 	cmp	r3, #10
 15028fc:	33a0c030 	movcc	ip, #48	; 0x30
 1502900:	23a0c037 	movcs	ip, #55	; 0x37
 1502904:	e08cc003 	add	ip, ip, r3
 1502908:	e5923014 	ldr	r3, [r2, #20]
 150290c:	e2033060 	and	r3, r3, #96	; 0x60
 1502910:	e3530060 	cmp	r3, #96	; 0x60
 1502914:	1afffffb 	bne	1502908 <print_val+0x2c>
 1502918:	e2411001 	sub	r1, r1, #1
 150291c:	e582c000 	str	ip, [r2]
 1502920:	e3710001 	cmn	r1, #1
 1502924:	1afffff0 	bne	15028ec <print_val+0x10>
 1502928:	e12fff1e 	bx	lr

0150292c <print_hex>:
 150292c:	e3a01008 	mov	r1, #8
 1502930:	eaffffe9 	b	15028dc <print_val>

01502934 <sys_dcache_flush_all>:
 1502934:	e12fff1e 	bx	lr

01502938 <put_char>:
 1502938:	e30336e4 	movw	r3, #14052	; 0x36e4
 150293c:	e3403151 	movt	r3, #337	; 0x151
 1502940:	e5932000 	ldr	r2, [r3]
 1502944:	e5923014 	ldr	r3, [r2, #20]
 1502948:	e2033060 	and	r3, r3, #96	; 0x60
 150294c:	e3530060 	cmp	r3, #96	; 0x60
 1502950:	1afffffb 	bne	1502944 <put_char+0xc>
 1502954:	e5820000 	str	r0, [r2]
 1502958:	e12fff1e 	bx	lr

0150295c <hexstr2int>:
 150295c:	e3a02010 	mov	r2, #16
 1502960:	e3a01000 	mov	r1, #0
 1502964:	eafff5f4 	b	150013c <strtoul>

01502968 <simple_malloc>:
 1502968:	e3032b3c 	movw	r2, #15164	; 0x3b3c
 150296c:	e3402151 	movt	r2, #337	; 0x151
 1502970:	e92d4010 	push	{r4, lr}
 1502974:	e5924000 	ldr	r4, [r2]
 1502978:	e080e004 	add	lr, r0, r4
 150297c:	e35e0401 	cmp	lr, #16777216	; 0x1000000
 1502980:	8a00000b 	bhi	15029b4 <simple_malloc+0x4c>
 1502984:	e303c6e4 	movw	ip, #14052	; 0x36e4
 1502988:	e340c151 	movt	ip, #337	; 0x151
 150298c:	e3100003 	tst	r0, #3
 1502990:	13c03003 	bicne	r3, r0, #3
 1502994:	e59c1004 	ldr	r1, [ip, #4]
 1502998:	12830004 	addne	r0, r3, #4
 150299c:	1080e004 	addne	lr, r0, r4
 15029a0:	e582e000 	str	lr, [r2]
 15029a4:	e0803001 	add	r3, r0, r1
 15029a8:	e1a00001 	mov	r0, r1
 15029ac:	e58c3004 	str	r3, [ip, #4]
 15029b0:	e8bd8010 	pop	{r4, pc}
 15029b4:	e3a00000 	mov	r0, #0
 15029b8:	e8bd8010 	pop	{r4, pc}

015029bc <is_hex_digit>:
 15029bc:	e2403030 	sub	r3, r0, #48	; 0x30
 15029c0:	e3530009 	cmp	r3, #9
 15029c4:	9a000007 	bls	15029e8 <is_hex_digit+0x2c>
 15029c8:	e2403041 	sub	r3, r0, #65	; 0x41
 15029cc:	e3530005 	cmp	r3, #5
 15029d0:	9a000004 	bls	15029e8 <is_hex_digit+0x2c>
 15029d4:	e2400061 	sub	r0, r0, #97	; 0x61
 15029d8:	e3500005 	cmp	r0, #5
 15029dc:	93a00000 	movls	r0, #0
 15029e0:	83e00000 	mvnhi	r0, #0
 15029e4:	e12fff1e 	bx	lr
 15029e8:	e3a00000 	mov	r0, #0
 15029ec:	e12fff1e 	bx	lr

015029f0 <hexdump>:
 15029f0:	e3520000 	cmp	r2, #0
 15029f4:	13510000 	cmpne	r1, #0
 15029f8:	e92d4070 	push	{r4, r5, r6, lr}
 15029fc:	03a04001 	moveq	r4, #1
 1502a00:	13a04000 	movne	r4, #0
 1502a04:	0a000021 	beq	1502a90 <hexdump+0xa0>
 1502a08:	e3500000 	cmp	r0, #0
 1502a0c:	e30331d0 	movw	r3, #12752	; 0x31d0
 1502a10:	e3403150 	movt	r3, #336	; 0x150
 1502a14:	01a00003 	moveq	r0, r3
 1502a18:	e1a05001 	mov	r5, r1
 1502a1c:	e1a06002 	mov	r6, r2
 1502a20:	ebffff7b 	bl	1502814 <prints>
 1502a24:	e30301ec 	movw	r0, #12780	; 0x31ec
 1502a28:	e3400150 	movt	r0, #336	; 0x150
 1502a2c:	ebffff78 	bl	1502814 <prints>
 1502a30:	e1a00005 	mov	r0, r5
 1502a34:	e3a01008 	mov	r1, #8
 1502a38:	e2455001 	sub	r5, r5, #1
 1502a3c:	ebffffa6 	bl	15028dc <print_val>
 1502a40:	e30301f4 	movw	r0, #12788	; 0x31f4
 1502a44:	e3400150 	movt	r0, #336	; 0x150
 1502a48:	ebffff71 	bl	1502814 <prints>
 1502a4c:	e3a01002 	mov	r1, #2
 1502a50:	e5f50001 	ldrb	r0, [r5, #1]!
 1502a54:	ebffffa0 	bl	15028dc <print_val>
 1502a58:	e204300f 	and	r3, r4, #15
 1502a5c:	e353000f 	cmp	r3, #15
 1502a60:	e30301f8 	movw	r0, #12792	; 0x31f8
 1502a64:	e3400150 	movt	r0, #336	; 0x150
 1502a68:	03020fa8 	movweq	r0, #12200	; 0x2fa8
 1502a6c:	03400150 	movteq	r0, #336	; 0x150
 1502a70:	e2844001 	add	r4, r4, #1
 1502a74:	ebffff66 	bl	1502814 <prints>
 1502a78:	e1540006 	cmp	r4, r6
 1502a7c:	1afffff2 	bne	1502a4c <hexdump+0x5c>
 1502a80:	e3020fa8 	movw	r0, #12200	; 0x2fa8
 1502a84:	e3400150 	movt	r0, #336	; 0x150
 1502a88:	e8bd4070 	pop	{r4, r5, r6, lr}
 1502a8c:	eaffff60 	b	1502814 <prints>
 1502a90:	e30301e4 	movw	r0, #12772	; 0x31e4
 1502a94:	e3400150 	movt	r0, #336	; 0x150
 1502a98:	e8bd4070 	pop	{r4, r5, r6, lr}
 1502a9c:	eaffff5c 	b	1502814 <prints>

01502aa0 <memset>:
 1502aa0:	e3520000 	cmp	r2, #0
 1502aa4:	e6ef1071 	uxtb	r1, r1
 1502aa8:	012fff1e 	bxeq	lr
 1502aac:	e0802002 	add	r2, r0, r2
 1502ab0:	e1a03000 	mov	r3, r0
 1502ab4:	e4c31001 	strb	r1, [r3], #1
 1502ab8:	e1530002 	cmp	r3, r2
 1502abc:	1afffffc 	bne	1502ab4 <memset+0x14>
 1502ac0:	e12fff1e 	bx	lr

01502ac4 <set_memory>:
 1502ac4:	e3520000 	cmp	r2, #0
 1502ac8:	012fff1e 	bxeq	lr
 1502acc:	e0802002 	add	r2, r0, r2
 1502ad0:	e4c01001 	strb	r1, [r0], #1
 1502ad4:	e1500002 	cmp	r0, r2
 1502ad8:	1afffffc 	bne	1502ad0 <set_memory+0xc>
 1502adc:	e12fff1e 	bx	lr

01502ae0 <copy_memory>:
 1502ae0:	e1813002 	orr	r3, r1, r2
 1502ae4:	e24dd008 	sub	sp, sp, #8
 1502ae8:	e1803003 	orr	r3, r0, r3
 1502aec:	e2133003 	ands	r3, r3, #3
 1502af0:	1a00000f 	bne	1502b34 <copy_memory+0x54>
 1502af4:	e58d3004 	str	r3, [sp, #4]
 1502af8:	e59d3004 	ldr	r3, [sp, #4]
 1502afc:	e1520003 	cmp	r2, r3
 1502b00:	9a000009 	bls	1502b2c <copy_memory+0x4c>
 1502b04:	e59d3004 	ldr	r3, [sp, #4]
 1502b08:	e59dc004 	ldr	ip, [sp, #4]
 1502b0c:	e791c00c 	ldr	ip, [r1, ip]
 1502b10:	e780c003 	str	ip, [r0, r3]
 1502b14:	e59d3004 	ldr	r3, [sp, #4]
 1502b18:	e2833004 	add	r3, r3, #4
 1502b1c:	e58d3004 	str	r3, [sp, #4]
 1502b20:	e59d3004 	ldr	r3, [sp, #4]
 1502b24:	e1520003 	cmp	r2, r3
 1502b28:	8afffff5 	bhi	1502b04 <copy_memory+0x24>
 1502b2c:	e28dd008 	add	sp, sp, #8
 1502b30:	e12fff1e 	bx	lr
 1502b34:	e3a03000 	mov	r3, #0
 1502b38:	e58d3004 	str	r3, [sp, #4]
 1502b3c:	e59d3004 	ldr	r3, [sp, #4]
 1502b40:	e1520003 	cmp	r2, r3
 1502b44:	9afffff8 	bls	1502b2c <copy_memory+0x4c>
 1502b48:	e59dc004 	ldr	ip, [sp, #4]
 1502b4c:	e59d3004 	ldr	r3, [sp, #4]
 1502b50:	e7d13003 	ldrb	r3, [r1, r3]
 1502b54:	e6ef3073 	uxtb	r3, r3
 1502b58:	e7c0300c 	strb	r3, [r0, ip]
 1502b5c:	e59d3004 	ldr	r3, [sp, #4]
 1502b60:	e2833001 	add	r3, r3, #1
 1502b64:	e58d3004 	str	r3, [sp, #4]
 1502b68:	e59d3004 	ldr	r3, [sp, #4]
 1502b6c:	e1520003 	cmp	r2, r3
 1502b70:	8afffff4 	bhi	1502b48 <copy_memory+0x68>
 1502b74:	e28dd008 	add	sp, sp, #8
 1502b78:	e12fff1e 	bx	lr

01502b7c <compare_memory>:
 1502b7c:	e3520000 	cmp	r2, #0
 1502b80:	0a000011 	beq	1502bcc <compare_memory+0x50>
 1502b84:	e52de004 	push	{lr}		; (str lr, [sp, #-4]!)
 1502b88:	e5d1e000 	ldrb	lr, [r1]
 1502b8c:	e5d0c000 	ldrb	ip, [r0]
 1502b90:	e15c000e 	cmp	ip, lr
 1502b94:	00802002 	addeq	r2, r0, r2
 1502b98:	02803001 	addeq	r3, r0, #1
 1502b9c:	0a000004 	beq	1502bb4 <compare_memory+0x38>
 1502ba0:	ea000007 	b	1502bc4 <compare_memory+0x48>
 1502ba4:	e4d3c001 	ldrb	ip, [r3], #1
 1502ba8:	e5f1e001 	ldrb	lr, [r1, #1]!
 1502bac:	e15c000e 	cmp	ip, lr
 1502bb0:	1a000003 	bne	1502bc4 <compare_memory+0x48>
 1502bb4:	e1530002 	cmp	r3, r2
 1502bb8:	1afffff9 	bne	1502ba4 <compare_memory+0x28>
 1502bbc:	e3a00000 	mov	r0, #0
 1502bc0:	e49df004 	pop	{pc}		; (ldr pc, [sp], #4)
 1502bc4:	e06e000c 	rsb	r0, lr, ip
 1502bc8:	e49df004 	pop	{pc}		; (ldr pc, [sp], #4)
 1502bcc:	e1a00002 	mov	r0, r2
 1502bd0:	e12fff1e 	bx	lr

01502bd4 <compare_str>:
 1502bd4:	e5d03000 	ldrb	r3, [r0]
 1502bd8:	e3530000 	cmp	r3, #0
 1502bdc:	0a000009 	beq	1502c08 <compare_str+0x34>
 1502be0:	e5d12000 	ldrb	r2, [r1]
 1502be4:	e1530002 	cmp	r3, r2
 1502be8:	0a000003 	beq	1502bfc <compare_str+0x28>
 1502bec:	ea000007 	b	1502c10 <compare_str+0x3c>
 1502bf0:	e5f12001 	ldrb	r2, [r1, #1]!
 1502bf4:	e1530002 	cmp	r3, r2
 1502bf8:	1a000004 	bne	1502c10 <compare_str+0x3c>
 1502bfc:	e5f03001 	ldrb	r3, [r0, #1]!
 1502c00:	e3530000 	cmp	r3, #0
 1502c04:	1afffff9 	bne	1502bf0 <compare_str+0x1c>
 1502c08:	e1a00003 	mov	r0, r3
 1502c0c:	e12fff1e 	bx	lr
 1502c10:	e0620003 	rsb	r0, r2, r3
 1502c14:	e12fff1e 	bx	lr

01502c18 <watchdog_reset>:
 1502c18:	e3a03a0b 	mov	r3, #45056	; 0xb000
 1502c1c:	e3493801 	movt	r3, #38913	; 0x9801
 1502c20:	e3a02000 	mov	r2, #0
 1502c24:	e3a000a5 	mov	r0, #165	; 0xa5
 1502c28:	e3a01001 	mov	r1, #1
 1502c2c:	e58305b0 	str	r0, [r3, #1456]	; 0x5b0
 1502c30:	e58315b4 	str	r1, [r3, #1460]	; 0x5b4
 1502c34:	e58325bc 	str	r2, [r3, #1468]	; 0x5bc
 1502c38:	e58325b0 	str	r2, [r3, #1456]	; 0x5b0
 1502c3c:	e12fff1e 	bx	lr

01502c40 <__div0>:
 1502c40:	e12fff1e 	bx	lr

01502c44 <v7_maint_dcache_all>:
 1502c44:	e92d43f0 	push	{r4, r5, r6, r7, r8, r9, lr}
 1502c48:	ee307f30 	mrc	15, 1, r7, cr0, cr0, {1}
 1502c4c:	e3a0e000 	mov	lr, #0
 1502c50:	e1a0500e 	mov	r5, lr
 1502c54:	ea000003 	b	1502c68 <v7_maint_dcache_all+0x24>
 1502c58:	e28ee003 	add	lr, lr, #3
 1502c5c:	e2855001 	add	r5, r5, #1
 1502c60:	e35e0015 	cmp	lr, #21
 1502c64:	0a000025 	beq	1502d00 <v7_maint_dcache_all+0xbc>
 1502c68:	e1a03e37 	lsr	r3, r7, lr
 1502c6c:	e2033007 	and	r3, r3, #7
 1502c70:	e2433002 	sub	r3, r3, #2
 1502c74:	e3530002 	cmp	r3, #2
 1502c78:	8afffff6 	bhi	1502c58 <v7_maint_dcache_all+0x14>
 1502c7c:	e1a06085 	lsl	r6, r5, #1
 1502c80:	ee406f10 	mcr	15, 2, r6, cr0, cr0, {0}
 1502c84:	ee304f10 	mrc	15, 1, r4, cr0, cr0, {0}
 1502c88:	e7e991d4 	ubfx	r9, r4, #3, #10
 1502c8c:	e2042007 	and	r2, r4, #7
 1502c90:	e289c001 	add	ip, r9, #1
 1502c94:	e2822004 	add	r2, r2, #4
 1502c98:	e1a0300c 	mov	r3, ip
 1502c9c:	e7ee46d4 	ubfx	r4, r4, #13, #15
 1502ca0:	e3e01000 	mvn	r1, #0
 1502ca4:	e1b030a3 	lsrs	r3, r3, #1
 1502ca8:	e2811001 	add	r1, r1, #1
 1502cac:	1afffffc 	bne	1502ca4 <v7_maint_dcache_all+0x60>
 1502cb0:	e11c0009 	tst	ip, r9
 1502cb4:	12811001 	addne	r1, r1, #1
 1502cb8:	e3500001 	cmp	r0, #1
 1502cbc:	e2618020 	rsb	r8, r1, #32
 1502cc0:	0a000011 	beq	1502d0c <v7_maint_dcache_all+0xc8>
 1502cc4:	e3500002 	cmp	r0, #2
 1502cc8:	1affffe2 	bne	1502c58 <v7_maint_dcache_all+0x14>
 1502ccc:	e186c819 	orr	ip, r6, r9, lsl r8
 1502cd0:	e1a03004 	mov	r3, r4
 1502cd4:	e18c1213 	orr	r1, ip, r3, lsl r2
 1502cd8:	ee071f5e 	mcr	15, 0, r1, cr7, cr14, {2}
 1502cdc:	e2533001 	subs	r3, r3, #1
 1502ce0:	2afffffb 	bcs	1502cd4 <v7_maint_dcache_all+0x90>
 1502ce4:	e2599001 	subs	r9, r9, #1
 1502ce8:	2afffff7 	bcs	1502ccc <v7_maint_dcache_all+0x88>
 1502cec:	f57ff04f 	dsb	sy
 1502cf0:	e28ee003 	add	lr, lr, #3
 1502cf4:	e2855001 	add	r5, r5, #1
 1502cf8:	e35e0015 	cmp	lr, #21
 1502cfc:	1affffd9 	bne	1502c68 <v7_maint_dcache_all+0x24>
 1502d00:	e8bd83f0 	pop	{r4, r5, r6, r7, r8, r9, pc}
 1502d04:	e2599001 	subs	r9, r9, #1
 1502d08:	3afffff7 	bcc	1502cec <v7_maint_dcache_all+0xa8>
 1502d0c:	e186c819 	orr	ip, r6, r9, lsl r8
 1502d10:	e1a03004 	mov	r3, r4
 1502d14:	e18c1213 	orr	r1, ip, r3, lsl r2
 1502d18:	ee071f56 	mcr	15, 0, r1, cr7, cr6, {2}
 1502d1c:	e2533001 	subs	r3, r3, #1
 1502d20:	2afffffb 	bcs	1502d14 <v7_maint_dcache_all+0xd0>
 1502d24:	eafffff6 	b	1502d04 <v7_maint_dcache_all+0xc0>

01502d28 <invalidate_icache_all>:
 1502d28:	e3a03000 	mov	r3, #0
 1502d2c:	ee073f15 	mcr	15, 0, r3, cr7, cr5, {0}
 1502d30:	ee073fd5 	mcr	15, 0, r3, cr7, cr5, {6}
 1502d34:	f57ff04f 	dsb	sy
 1502d38:	f57ff06f 	isb	sy
 1502d3c:	e12fff1e 	bx	lr

01502d40 <__v7_outer_cache_enable>:
 1502d40:	e12fff1e 	bx	lr

01502d44 <__v7_outer_cache_disable>:
 1502d44:	e12fff1e 	bx	lr

01502d48 <__v7_outer_cache_flush_all>:
 1502d48:	e12fff1e 	bx	lr

01502d4c <flush_dcache_all>:
 1502d4c:	e92d4010 	push	{r4, lr}
 1502d50:	e3a00002 	mov	r0, #2
 1502d54:	ebffffba 	bl	1502c44 <v7_maint_dcache_all>
 1502d58:	e8bd4010 	pop	{r4, lr}
 1502d5c:	eafffff9 	b	1502d48 <__v7_outer_cache_flush_all>

01502d60 <__v7_outer_cache_inval_all>:
 1502d60:	e12fff1e 	bx	lr

01502d64 <invalidate_dcache_all>:
 1502d64:	e92d4010 	push	{r4, lr}
 1502d68:	e3a00001 	mov	r0, #1
 1502d6c:	ebffffb4 	bl	1502c44 <v7_maint_dcache_all>
 1502d70:	e8bd4010 	pop	{r4, lr}
 1502d74:	eafffff9 	b	1502d60 <__v7_outer_cache_inval_all>

01502d78 <arm_init_before_mmu>:
 1502d78:	e92d4010 	push	{r4, lr}
 1502d7c:	ebffffef 	bl	1502d40 <__v7_outer_cache_enable>
 1502d80:	e3a00001 	mov	r0, #1
 1502d84:	ebffffae 	bl	1502c44 <v7_maint_dcache_all>
 1502d88:	ebfffff4 	bl	1502d60 <__v7_outer_cache_inval_all>
 1502d8c:	e3a03000 	mov	r3, #0
 1502d90:	ee083f17 	mcr	15, 0, r3, cr8, cr7, {0}
 1502d94:	ee083f16 	mcr	15, 0, r3, cr8, cr6, {0}
 1502d98:	ee083f15 	mcr	15, 0, r3, cr8, cr5, {0}
 1502d9c:	f57ff04f 	dsb	sy
 1502da0:	f57ff06f 	isb	sy
 1502da4:	e8bd8010 	pop	{r4, pc}

01502da8 <__v7_outer_cache_flush_range>:
 1502da8:	e12fff1e 	bx	lr

01502dac <flush_dcache_range>:
 1502dac:	ee302f10 	mrc	15, 1, r2, cr0, cr0, {0}
 1502db0:	e2022007 	and	r2, r2, #7
 1502db4:	e3a03001 	mov	r3, #1
 1502db8:	e2822004 	add	r2, r2, #4
 1502dbc:	e1a02213 	lsl	r2, r3, r2
 1502dc0:	e2623000 	rsb	r3, r2, #0
 1502dc4:	e0033000 	and	r3, r3, r0
 1502dc8:	e1510003 	cmp	r1, r3
 1502dcc:	3a000003 	bcc	1502de0 <flush_dcache_range+0x34>
 1502dd0:	ee073f3e 	mcr	15, 0, r3, cr7, cr14, {1}
 1502dd4:	e0833002 	add	r3, r3, r2
 1502dd8:	e1510003 	cmp	r1, r3
 1502ddc:	2afffffb 	bcs	1502dd0 <flush_dcache_range+0x24>
 1502de0:	f57ff04f 	dsb	sy
 1502de4:	eaffffef 	b	1502da8 <__v7_outer_cache_flush_range>

01502de8 <flush_cache>:
 1502de8:	e0801001 	add	r1, r0, r1
 1502dec:	eaffffee 	b	1502dac <flush_dcache_range>

01502df0 <__v7_outer_cache_inval_range>:
 1502df0:	e12fff1e 	bx	lr

01502df4 <invalidate_dcache_range>:
 1502df4:	e52de004 	push	{lr}		; (str lr, [sp, #-4]!)
 1502df8:	ee30cf10 	mrc	15, 1, ip, cr0, cr0, {0}
 1502dfc:	e20cc007 	and	ip, ip, #7
 1502e00:	e3a03001 	mov	r3, #1
 1502e04:	e28cc004 	add	ip, ip, #4
 1502e08:	e1a0cc13 	lsl	ip, r3, ip
 1502e0c:	e24ce001 	sub	lr, ip, #1
 1502e10:	e11e0000 	tst	lr, r0
 1502e14:	12402001 	subne	r2, r0, #1
 1502e18:	126c3000 	rsbne	r3, ip, #0
 1502e1c:	1082200c 	addne	r2, r2, ip
 1502e20:	01a03000 	moveq	r3, r0
 1502e24:	10033002 	andne	r3, r3, r2
 1502e28:	e11e0001 	tst	lr, r1
 1502e2c:	126c2000 	rsbne	r2, ip, #0
 1502e30:	01a02001 	moveq	r2, r1
 1502e34:	10022001 	andne	r2, r2, r1
 1502e38:	e1520003 	cmp	r2, r3
 1502e3c:	3a000003 	bcc	1502e50 <invalidate_dcache_range+0x5c>
 1502e40:	ee073f36 	mcr	15, 0, r3, cr7, cr6, {1}
 1502e44:	e083300c 	add	r3, r3, ip
 1502e48:	e1530002 	cmp	r3, r2
 1502e4c:	9afffffb 	bls	1502e40 <invalidate_dcache_range+0x4c>
 1502e50:	f57ff04f 	dsb	sy
 1502e54:	e49de004 	pop	{lr}		; (ldr lr, [sp], #4)
 1502e58:	eaffffe4 	b	1502df0 <__v7_outer_cache_inval_range>

Disassembly of section .rodata:

01502e5c <_ctype>:
 1502e5c:	08080808 	stmdaeq	r8, {r3, fp}
 1502e60:	08080808 	stmdaeq	r8, {r3, fp}
 1502e64:	28282808 	stmdacs	r8!, {r3, fp, sp}
 1502e68:	08082828 	stmdaeq	r8, {r3, r5, fp, sp}
 1502e6c:	08080808 	stmdaeq	r8, {r3, fp}
 1502e70:	08080808 	stmdaeq	r8, {r3, fp}
 1502e74:	08080808 	stmdaeq	r8, {r3, fp}
 1502e78:	08080808 	stmdaeq	r8, {r3, fp}
 1502e7c:	101010a0 	andsne	r1, r0, r0, lsr #1
 1502e80:	10101010 	andsne	r1, r0, r0, lsl r0
 1502e84:	10101010 	andsne	r1, r0, r0, lsl r0
 1502e88:	10101010 	andsne	r1, r0, r0, lsl r0
 1502e8c:	04040404 	streq	r0, [r4], #-1028	; 0x404
 1502e90:	04040404 	streq	r0, [r4], #-1028	; 0x404
 1502e94:	10100404 	andsne	r0, r0, r4, lsl #8
 1502e98:	10101010 	andsne	r1, r0, r0, lsl r0
 1502e9c:	41414110 	cmpmi	r1, r0, lsl r1
 1502ea0:	01414141 	cmpeq	r1, r1, asr #2
 1502ea4:	01010101 	tsteq	r1, r1, lsl #2
 1502ea8:	01010101 	tsteq	r1, r1, lsl #2
 1502eac:	01010101 	tsteq	r1, r1, lsl #2
 1502eb0:	01010101 	tsteq	r1, r1, lsl #2
 1502eb4:	10010101 	andne	r0, r1, r1, lsl #2
 1502eb8:	10101010 	andsne	r1, r0, r0, lsl r0
 1502ebc:	42424210 	submi	r4, r2, #16, 4
 1502ec0:	02424242 	subeq	r4, r2, #536870916	; 0x20000004
 1502ec4:	02020202 	andeq	r0, r2, #536870912	; 0x20000000
 1502ec8:	02020202 	andeq	r0, r2, #536870912	; 0x20000000
 1502ecc:	02020202 	andeq	r0, r2, #536870912	; 0x20000000
 1502ed0:	02020202 	andeq	r0, r2, #536870912	; 0x20000000
 1502ed4:	10020202 	andne	r0, r2, r2, lsl #4
 1502ed8:	08101010 	ldmdaeq	r0, {r4, ip}
	...
 1502efc:	101010a0 	andsne	r1, r0, r0, lsr #1
 1502f00:	10101010 	andsne	r1, r0, r0, lsl r0
 1502f04:	10101010 	andsne	r1, r0, r0, lsl r0
 1502f08:	10101010 	andsne	r1, r0, r0, lsl r0
 1502f0c:	10101010 	andsne	r1, r0, r0, lsl r0
 1502f10:	10101010 	andsne	r1, r0, r0, lsl r0
 1502f14:	10101010 	andsne	r1, r0, r0, lsl r0
 1502f18:	10101010 	andsne	r1, r0, r0, lsl r0
 1502f1c:	01010101 	tsteq	r1, r1, lsl #2
 1502f20:	01010101 	tsteq	r1, r1, lsl #2
 1502f24:	01010101 	tsteq	r1, r1, lsl #2
 1502f28:	01010101 	tsteq	r1, r1, lsl #2
 1502f2c:	01010101 	tsteq	r1, r1, lsl #2
 1502f30:	10010101 	andne	r0, r1, r1, lsl #2
 1502f34:	01010101 	tsteq	r1, r1, lsl #2
 1502f38:	02010101 	andeq	r0, r1, #1073741824	; 0x40000000
 1502f3c:	02020202 	andeq	r0, r2, #536870912	; 0x20000000
 1502f40:	02020202 	andeq	r0, r2, #536870912	; 0x20000000
 1502f44:	02020202 	andeq	r0, r2, #536870912	; 0x20000000
 1502f48:	02020202 	andeq	r0, r2, #536870912	; 0x20000000
 1502f4c:	02020202 	andeq	r0, r2, #536870912	; 0x20000000
 1502f50:	10020202 	andne	r0, r2, r2, lsl #4
 1502f54:	02020202 	andeq	r0, r2, #536870912	; 0x20000000
 1502f58:	02020202 	andeq	r0, r2, #536870912	; 0x20000000
 1502f5c:	7566650a 	strbvc	r6, [r6, #-1290]!	; 0x50a
 1502f60:	70206573 	eorvc	r6, r0, r3, ror r5
 1502f64:	72676f72 	rsbvc	r6, r7, #456	; 0x1c8
 1502f68:	656d6d61 	strbvs	r6, [sp, #-3425]!	; 0xd61
 1502f6c:	31762072 	cmncc	r6, r2, ror r0
 1502f70:	2035302e 	eorscs	r3, r5, lr, lsr #32
 1502f74:	72617473 	rsbvc	r7, r1, #1929379840	; 0x73000000
 1502f78:	2e2e2e74 	mcrcs	14, 1, r2, cr14, cr4, {3}
 1502f7c:	00000a2e 	andeq	r0, r0, lr, lsr #20
 1502f80:	726f6609 	rsbvc	r6, pc, #9437184	; 0x900000
 1502f84:	63657320 	cmnvs	r5, #32, 6	; 0x80000000
 1502f88:	20657275 	rsbcs	r7, r5, r5, ror r2
 1502f8c:	746f6f62 	strbtvc	r6, [pc], #-3938	; 1502f94 <_ctype+0x138>
 1502f90:	616c7020 	cmnvs	ip, r0, lsr #32
 1502f94:	726f6674 	rsbvc	r6, pc, #116, 12	; 0x7400000
 1502f98:	0a202c6d 	beq	1d0e154 <__bss_end__+0x7fa614>
 1502f9c:	00000000 	andeq	r0, r0, r0
 1502fa0:	20772d09 	rsbscs	r2, r7, r9, lsl #26
 1502fa4:	20617372 	rsbcs	r7, r1, r2, ror r3
 1502fa8:	0000000a 	andeq	r0, r0, sl
 1502fac:	6764756a 	strbvs	r7, [r4, -sl, ror #10]!
 1502fb0:	61662065 	cmnvs	r6, r5, rrx
 1502fb4:	0a206c69 	beq	1d1e160 <__bss_end__+0x80a620>
 1502fb8:	00000000 	andeq	r0, r0, r0
 1502fbc:	20772d09 	rsbscs	r2, r7, r9, lsl #26
 1502fc0:	2079656b 	rsbscs	r6, r9, fp, ror #10
 1502fc4:	0000000a 	andeq	r0, r0, sl
 1502fc8:	20772d09 	rsbscs	r2, r7, r9, lsl #26
 1502fcc:	64656573 	strbtvs	r6, [r5], #-1395	; 0x573
 1502fd0:	00000a20 	andeq	r0, r0, r0, lsr #20
 1502fd4:	20772d09 	rsbscs	r2, r7, r9, lsl #26
 1502fd8:	74737563 	ldrbtvc	r7, [r3], #-1379	; 0x563
 1502fdc:	0000000a 	andeq	r0, r0, sl
 1502fe0:	78616d09 	stmdavc	r1!, {r0, r3, r8, sl, fp, sp, lr}^
 1502fe4:	7563202e 	strbvc	r2, [r3, #-46]!	; 0x2e
 1502fe8:	645f7473 	ldrbvs	r7, [pc], #-1139	; 1502ff0 <_ctype+0x194>
 1502fec:	20617461 	rsbcs	r7, r1, r1, ror #8
 1502ff0:	676e656c 	strbvs	r6, [lr, -ip, ror #10]!
 1502ff4:	69206874 	stmdbvs	r0!, {r2, r4, r5, r6, fp, sp, lr}
 1502ff8:	36312073 			; <UNDEFINED> instruction: 0x36312073
 1502ffc:	00000a42 	andeq	r0, r0, r2, asr #20
 1503000:	20772d09 	rsbscs	r2, r7, r9, lsl #26
 1503004:	74737563 	ldrbtvc	r7, [r3], #-1379	; 0x563
 1503008:	7461645f 	strbtvc	r6, [r1], #-1119	; 0x45f
 150300c:	00000a61 	andeq	r0, r0, r1, ror #20
 1503010:	206f6e09 	rsbcs	r6, pc, r9, lsl #28
 1503014:	74737563 	ldrbtvc	r7, [r3], #-1379	; 0x563
 1503018:	7461645f 	strbtvc	r6, [r1], #-1119	; 0x45f
 150301c:	00000a61 	andeq	r0, r0, r1, ror #20
 1503020:	676f7270 			; <UNDEFINED> instruction: 0x676f7270
 1503024:	206d6172 	rsbcs	r6, sp, r2, ror r1
 1503028:	2050544f 	subscs	r5, r0, pc, asr #8
 150302c:	4b4f4b4f 	blmi	28d5d70 <__bss_end__+0x13c2230>
 1503030:	4b4f4b4f 	blmi	28d5d74 <__bss_end__+0x13c2234>
 1503034:	4b4f4b4f 	blmi	28d5d78 <__bss_end__+0x13c2238>
 1503038:	21212121 	teqcs	r1, r1, lsr #2
 150303c:	0a212121 	beq	1d4b4c8 <__bss_end__+0x837988>
 1503040:	00000000 	andeq	r0, r0, r0
 1503044:	676f7270 			; <UNDEFINED> instruction: 0x676f7270
 1503048:	206d6172 	rsbcs	r6, sp, r2, ror r1
 150304c:	2050544f 	subscs	r5, r0, pc, asr #8
 1503050:	6c696166 	stfvse	f6, [r9], #-408	; 0xfffffe68
 1503054:	6c696166 	stfvse	f6, [r9], #-408	; 0xfffffe68
 1503058:	6c696166 	stfvse	f6, [r9], #-408	; 0xfffffe68
 150305c:	21212121 	teqcs	r1, r1, lsr #2
 1503060:	0a212121 	beq	1d4b4ec <__bss_end__+0x8379ac>
 1503064:	00000000 	andeq	r0, r0, r0
 1503068:	30257830 	eorcc	r7, r5, r0, lsr r8
 150306c:	3a786c38 	bcc	331e154 <__bss_end__+0x1e0a614>
 1503070:	00000000 	andeq	r0, r0, r0
 1503074:	2a302520 	bcs	210c4fc <__bss_end__+0xbf89bc>
 1503078:	00000078 	andeq	r0, r0, r8, ror r0
 150307c:	0000002a 	andeq	r0, r0, sl, lsr #32
 1503080:	20202020 	eorcs	r2, r0, r0, lsr #32
 1503084:	0a73253a 	beq	31cc574 <__bss_end__+0x1cb8a34>
 1503088:	00000000 	andeq	r0, r0, r0
 150308c:	20202020 	eorcs	r2, r0, r0, lsr #32
 1503090:	000a2a3a 	andeq	r2, sl, sl, lsr sl
 1503094:	3d746572 	cfldr64cc	mvdx6, [r4, #-456]!	; 0xfffffe38
 1503098:	000a6425 	andeq	r6, sl, r5, lsr #8
 150309c:	5b776172 	blpl	32db66c <__bss_end__+0x1dc7b2c>
 15030a0:	20782520 	rsbscs	r2, r8, r0, lsr #10
 15030a4:	2020205d 	eorcs	r2, r0, sp, asr r0
 15030a8:	20202020 	eorcs	r2, r0, r0, lsr #32
 15030ac:	20636e65 	rsbcs	r6, r3, r5, ror #28
 15030b0:	7825205b 	stmdavc	r5!, {r0, r1, r3, r4, r6, sp}
 15030b4:	000a5d20 	andeq	r5, sl, r0, lsr #26
 15030b8:	5b636e65 	blpl	2ddea54 <__bss_end__+0x18caf14>
 15030bc:	20782520 	rsbscs	r2, r8, r0, lsr #10
 15030c0:	2020205d 	eorcs	r2, r0, sp, asr r0
 15030c4:	20202020 	eorcs	r2, r0, r0, lsr #32
 15030c8:	5b776172 	blpl	32db698 <__bss_end__+0x1dc7b58>
 15030cc:	5d782520 	cfldr64pl	mvdx2, [r8, #-128]!	; 0xffffff80
 15030d0:	0000000a 	andeq	r0, r0, sl
 15030d4:	20746f6e 	rsbscs	r6, r4, lr, ror #30
 15030d8:	6e727562 	cdpvs	5, 7, cr7, cr2, cr2, {3}
 15030dc:	00000a21 	andeq	r0, r0, r1, lsr #20
 15030e0:	65637865 	strbvs	r7, [r3, #-2149]!	; 0x865
 15030e4:	6b206465 	blvs	1d1c280 <__bss_end__+0x808740>
 15030e8:	65737965 	ldrbvs	r7, [r3, #-2405]!	; 0x965
 15030ec:	6176206c 	cmnvs	r6, ip, rrx
 15030f0:	0a65756c 	beq	2e606a8 <__bss_end__+0x194cb68>
 15030f4:	00000000 	andeq	r0, r0, r0
 15030f8:	65637865 	strbvs	r7, [r3, #-2149]!	; 0x865
 15030fc:	68206465 	stmdavs	r0!, {r0, r2, r5, r6, sl, sp, lr}
 1503100:	6b686377 	blvs	2f1bee4 <__bss_end__+0x1a083a4>
 1503104:	6c617620 	stclvs	6, cr7, [r1], #-128	; 0xffffff80
 1503108:	000a6575 	andeq	r6, sl, r5, ror r5

0150310c <__FUNCTION__.6529>:
 150310c:	5f534541 	svcpl	0x00534541
 1503110:	5f424345 	svcpl	0x00424345
 1503114:	72636e65 	rsbvc	r6, r3, #1616	; 0x650
 1503118:	00747079 	rsbseq	r7, r4, r9, ror r0

0150311c <Kh_key_default>:
 150311c:	ad0d8175 	stfged	f0, [sp, #-468]	; 0xfffffe2c
 1503120:	a0d732c0 	sbcsge	r3, r7, r0, asr #5
 1503124:	e56ef350 	strb	pc, [lr, #-848]!	; 0x350	; <UNPREDICTABLE>
 1503128:	c53ce48b 	ldrgt	lr, [ip, #-1163]!	; 0x48b
 150312c:	2e70636d 	cdpcs	3, 7, cr6, cr0, cr13, {3}
 1503130:	00000063 	andeq	r0, r0, r3, rrx
 1503134:	202a2a2a 	eorcs	r2, sl, sl, lsr #20
 1503138:	25207325 	strcs	r7, [r0, #-805]!	; 0x325
 150313c:	64252073 	strtvs	r2, [r5], #-115	; 0x73
 1503140:	0000000a 	andeq	r0, r0, sl
 1503144:	483e3d3d 	ldmdami	lr!, {r0, r2, r3, r4, r5, r8, sl, fp, ip, sp}
 1503148:	41535257 	cmpmi	r3, r7, asr r2
 150314c:	6d697420 	cfstrdvs	mvd7, [r9, #-128]!	; 0xffffff80
 1503150:	74756f65 	ldrbtvc	r6, [r5], #-3941	; 0xf65
 1503154:	000a2120 	andeq	r2, sl, r0, lsr #2

01503158 <.LANCHOR0>:
 1503158:	30002008 	andcc	r2, r0, r8
 150315c:	c001500f 	andgt	r5, r1, pc
 1503160:	700d6002 	andvc	r6, sp, r2
 1503164:	d008a00b 	andle	sl, r8, fp
 1503168:	61727261 	cmnvs	r2, r1, ror #4
 150316c:	6f632079 	svcvs	0x00632079
 1503170:	7261706d 	rsbvc	r7, r1, #109	; 0x6d
 1503174:	61702065 	cmnvs	r0, r5, rrx
 1503178:	000a7373 	andeq	r7, sl, r3, ror r3
 150317c:	756c6176 	strbvc	r6, [ip, #-374]!	; 0x176
 1503180:	203a2065 	eorscs	r2, sl, r5, rrx
 1503184:	00000000 	andeq	r0, r0, r0
 1503188:	65746e69 	ldrbvs	r6, [r4, #-3689]!	; 0xe69
 150318c:	74697267 	strbtvc	r7, [r9], #-615	; 0x267
 1503190:	203a2079 	eorscs	r2, sl, r9, ror r0
 1503194:	00000000 	andeq	r0, r0, r0
 1503198:	69206472 	stmdbvs	r0!, {r1, r4, r5, r6, sl, sp, lr}
 150319c:	6765746e 	strbvs	r7, [r5, -lr, ror #8]!
 15031a0:	79746972 	ldmdbvc	r4!, {r1, r4, r5, r6, r8, fp, sp, lr}^
 15031a4:	00203a20 	eoreq	r3, r0, r0, lsr #20
 15031a8:	69207277 	stmdbvs	r0!, {r0, r1, r2, r4, r5, r6, r9, ip, sp, lr}
 15031ac:	6765746e 	strbvs	r7, [r5, -lr, ror #8]!
 15031b0:	79746972 	ldmdbvc	r4!, {r1, r4, r5, r6, r8, fp, sp, lr}^
 15031b4:	6e6f6420 	cdpvs	4, 6, cr6, cr15, cr0, {1}
 15031b8:	00000a65 	andeq	r0, r0, r5, ror #20
 15031bc:	69207277 	stmdbvs	r0!, {r0, r1, r2, r4, r5, r6, r9, ip, sp, lr}
 15031c0:	6765746e 	strbvs	r7, [r5, -lr, ror #8]!
 15031c4:	79746972 	ldmdbvc	r4!, {r1, r4, r5, r6, r8, fp, sp, lr}^
 15031c8:	69616620 	stmdbvs	r1!, {r5, r9, sl, sp, lr}^
 15031cc:	00000a6c 	andeq	r0, r0, ip, ror #20

015031d0 <__FUNCTION__.3994>:
 15031d0:	64786568 	ldrbtvs	r6, [r8], #-1384	; 0x568
 15031d4:	00706d75 	rsbseq	r6, r0, r5, ror sp
 15031d8:	656d6954 	strbvs	r6, [sp, #-2388]!	; 0x954
 15031dc:	74756f20 	ldrbtvc	r6, [r5], #-3872	; 0xf20
 15031e0:	00000a20 	andeq	r0, r0, r0, lsr #20
 15031e4:	4c4c554e 	cfstr64mi	mvdx5, [ip], {78}	; 0x4e
 15031e8:	0000000a 	andeq	r0, r0, sl
 15031ec:	78302820 	ldmdavc	r0!, {r5, fp, sp}
 15031f0:	00000000 	andeq	r0, r0, r0
 15031f4:	00000a29 	andeq	r0, r0, r9, lsr #20
 15031f8:	00000020 	andeq	r0, r0, r0, lsr #32

Disassembly of section .data:

015131fc <rsa_pub_key>:
 15131fc:	ec39e4af 	cfldrs	mvf14, [r9], #-700	; 0xfffffd44
 1513200:	0016e5dd 			; <UNDEFINED> instruction: 0x0016e5dd
 1513204:	8465bb72 	strbthi	fp, [r5], #-2930	; 0xb72
 1513208:	bd4fa5dd 	cfstr64lt	mvdx10, [pc, #-884]	; 1512e9c <__FUNCTION__.3994+0xfccc>
 151320c:	e32ee3df 	teq	lr, #2080374787	; 0x7c000003
 1513210:	00db5c17 	sbcseq	r5, fp, r7, lsl ip
 1513214:	d2fe52ac 	rscsle	r5, lr, #172, 4	; 0xc000000a
 1513218:	ec2a71c3 	stfs	f7, [sl], #-780	; 0xfffffcf4
 151321c:	1d77452b 	cfldr64ne	mvdx4, [r7, #-172]!	; 0xffffff54
 1513220:	304c7f48 	subcc	r7, ip, r8, asr #30
 1513224:	7c2c34c7 	cfstrsvc	mvf3, [ip], #-796	; 0xfffffce4
 1513228:	01e5958f 	mvneq	r9, pc, lsl #11
 151322c:	1f9473d8 	svcne	0x009473d8
 1513230:	2710e662 	ldrcs	lr, [r0, -r2, ror #12]
 1513234:	acf87a98 	vldmiage	r8!, {s15-s166}
 1513238:	9f9b925a 	svcls	0x009b925a
 151323c:	1719b66e 	ldrne	fp, [r9, -lr, ror #12]
 1513240:	0c3d1971 	ldceq	9, cr1, [sp], #-452	; 0xfffffe3c
 1513244:	18f46303 	ldmne	r4!, {r0, r1, r8, r9, sp, lr}^
 1513248:	fcbfc6a4 	ldc2	6, cr12, [pc], #656	; 15134e0 <rsa_pub_tee_key+0xdc>
 151324c:	12ff9440 	rscsne	r9, pc, #64, 8	; 0x40000000
 1513250:	8ec0883f 	mcrhi	8, 6, r8, cr0, cr15, {1}
 1513254:	5481c382 	strpl	ip, [r1], #898	; 0x382
 1513258:	3dba11fa 	ldfccs	f1, [sl, #1000]!	; 0x3e8
 151325c:	9ef62b74 	vmovls.u8	r2, d6[7]
 1513260:	ffef1d46 			; <UNDEFINED> instruction: 0xffef1d46
 1513264:	894305d8 	stmdbhi	r3, {r3, r4, r6, r7, r8, sl}^
 1513268:	76ed8476 	uxtabvc	r8, sp, r6, ror #8
 151326c:	ad9060f3 	ldcge	0, cr6, [r0, #972]	; 0x3cc
 1513270:	38c2ccfa 	stmiacc	r2, {r1, r3, r4, r5, r6, r7, sl, fp, lr, pc}^
 1513274:	62c0ff88 	sbcvs	pc, r0, #136, 30	; 0x220
 1513278:	1579ec0a 	ldrbne	lr, [r9, #-3082]!	; 0xc0a
 151327c:	675e0048 	ldrbvs	r0, [lr, -r8, asr #32]
 1513280:	486be9a4 	stmdami	fp!, {r2, r5, r7, r8, fp, sp, lr, pc}^
 1513284:	0cde44d9 	cfldrdeq	mvd4, [lr], {217}	; 0xd9
 1513288:	56cf0ee8 	strbpl	r0, [pc], r8, ror #29
 151328c:	2618c91b 			; <UNDEFINED> instruction: 0x2618c91b
 1513290:	8a24e311 	bhi	1e4bedc <__bss_end__+0x93839c>
 1513294:	642f509c 	strtvs	r5, [pc], #-156	; 151329c <rsa_pub_key+0xa0>
 1513298:	48d88a99 	ldmmi	r8, {r0, r3, r4, r7, r9, fp, pc}^
 151329c:	629dd425 	addsvs	sp, sp, #620756992	; 0x25000000
 15132a0:	a8af95be 	stmiage	pc!, {r1, r2, r3, r4, r5, r7, r8, sl, ip, pc}	; <UNPREDICTABLE>
 15132a4:	9d305a0e 	vldmdbls	r0!, {s10-s23}
 15132a8:	6eeee264 	cdpvs	2, 14, cr14, cr14, cr4, {3}
 15132ac:	25d2f066 	ldrbcs	pc, [r2, #102]	; 0x66	; <UNPREDICTABLE>
 15132b0:	db143839 	blle	1a2139c <__bss_end__+0x50d85c>
 15132b4:	a86d03d4 	stmdage	sp!, {r2, r4, r6, r7, r8, r9}^
 15132b8:	fa80cb0f 	blx	ff545efc <__bss_end__+0xfe0323bc>
 15132bc:	def72263 	cdple	2, 15, cr2, cr7, cr3, {3}
 15132c0:	83944dbf 	orrshi	r4, r4, #12224	; 0x2fc0
 15132c4:	2ec53a81 	vdivcs.f32	s7, s11, s2
 15132c8:	a8c593d3 	stmiage	r5, {r0, r1, r4, r6, r7, r8, r9, ip, pc}^
 15132cc:	9374b09c 	cmnls	r4, #156	; 0x9c
 15132d0:	11fd65c8 	mvnsne	r6, r8, asr #11
 15132d4:	2a5e7165 	bcs	2caf870 <__bss_end__+0x179bd30>
 15132d8:	f148b0b7 			; <UNDEFINED> instruction: 0xf148b0b7
 15132dc:	41054302 	tstmi	r5, r2, lsl #6
 15132e0:	7a64a9a8 	bvc	2e3d988 <__bss_end__+0x1929e48>
 15132e4:	ab81b7ec 	blge	ff58129c <__bss_end__+0xfe06d75c>
 15132e8:	dad35f89 	ble	9eb114 <_back_addr-0xb14eec>
 15132ec:	0db8b8c3 	ldceq	8, cr11, [r8, #780]!	; 0x30c
 15132f0:	3f74dba1 	svccc	0x0074dba1
 15132f4:	af3f83eb 	svcge	0x003f83eb
 15132f8:	b9975438 	ldmiblt	r7, {r3, r4, r5, sl, ip, lr}

015132fc <rsa_pub_key_end>:
 15132fc:	00000000 	andeq	r0, r0, r0

01513300 <rsa_pub_fw_key>:
 1513300:	35c8bfd3 	strbcc	fp, [r8, #4051]	; 0xfd3
 1513304:	edbbc7b0 	ldc	7, cr12, [fp, #704]!	; 0x2c0
 1513308:	ba230033 	blt	1dd33dc <__bss_end__+0x8bf89c>
 151330c:	45ceb331 	strbmi	fp, [lr, #817]	; 0x331
 1513310:	82acf39f 	adchi	pc, ip, #2080374786	; 0x7c000002
 1513314:	98ba4376 	ldmls	sl!, {r1, r2, r4, r5, r6, r8, r9, lr}
 1513318:	7dbf238f 	ldcvc	3, cr2, [pc, #572]!	; 151355c <aes_seed+0x4>
 151331c:	045292d0 	ldrbeq	r9, [r2], #-720	; 0x2d0
 1513320:	4def37de 	stclmi	7, cr3, [pc, #888]!	; 15136a0 <aes_key_ks>
 1513324:	6a55d85a 	bvs	2a89494 <__bss_end__+0x1575954>
 1513328:	33b6e5b5 			; <UNDEFINED> instruction: 0x33b6e5b5
 151332c:	dbc36e4f 	blle	5eec70 <_back_addr-0xf11390>
 1513330:	63cd3d5d 	bicvs	r3, sp, #5952	; 0x1740
 1513334:	ee9c07ee 	cdp	7, 9, cr0, cr12, cr14, {7}
 1513338:	06e1f4b4 			; <UNDEFINED> instruction: 0x06e1f4b4
 151333c:	835a81aa 	cmphi	sl, #-2147483606	; 0x8000002a
 1513340:	1661bdb1 			; <UNDEFINED> instruction: 0x1661bdb1
 1513344:	2c2cd5cc 	cfstr32cs	mvfx13, [ip], #-816	; 0xfffffcd0
 1513348:	64afb177 	strtvs	fp, [pc], #375	; 1513350 <rsa_pub_fw_key+0x50>
 151334c:	95c681ce 	strbls	r8, [r6, #462]	; 0x1ce
 1513350:	307ff6b8 	ldrhtcc	pc, [pc], #-104	; <UNPREDICTABLE>
 1513354:	057e77d4 	ldrbeq	r7, [lr, #-2004]!	; 0x7d4
 1513358:	ad53fac7 	vldrge	s31, [r3, #-796]	; 0xfffffce4
 151335c:	9e6cd98a 	cdpls	9, 6, cr13, cr12, cr10, {4}
 1513360:	5eb83db9 	mrcpl	13, 5, r3, cr8, cr9, {5}
 1513364:	82e0e660 	rschi	lr, r0, #96, 12	; 0x6000000
 1513368:	c7c6f48a 	strbgt	pc, [r6, sl, lsl #9]	; <UNPREDICTABLE>
 151336c:	cc892978 	stcgt	9, cr2, [r9], {120}	; 0x78
 1513370:	81858d55 	orrhi	r8, r5, r5, asr sp
 1513374:	195dcfb8 	ldmdbne	sp, {r3, r4, r5, r7, r8, r9, sl, fp, lr, pc}^
 1513378:	da968380 	ble	ffab4180 <__bss_end__+0xfe5a0640>
 151337c:	51b8a7cc 			; <UNDEFINED> instruction: 0x51b8a7cc
 1513380:	09744000 	ldmdbeq	r4!, {lr}^
 1513384:	0df9c109 	ldfeqp	f4, [r9, #36]!	; 0x24
 1513388:	7299d6ae 	addsvc	sp, r9, #182452224	; 0xae00000
 151338c:	a810b832 	ldmdage	r0, {r1, r4, r5, fp, ip, sp, pc}
 1513390:	203e610b 	eorscs	r6, lr, fp, lsl #2
 1513394:	01f2bfeb 	mvnseq	fp, fp, ror #31
 1513398:	a7b2ced5 	sbfxge	ip, r5, #29, #19
 151339c:	ce5557fd 	mrcgt	7, 2, r5, cr5, cr13, {7}
 15133a0:	71f2b07b 	mvnsvc	fp, fp, ror r0
 15133a4:	8eec1c8d 	cdphi	12, 14, cr1, cr12, cr13, {4}
 15133a8:	84d9ad1f 	ldrbhi	sl, [r9], #3359	; 0xd1f
 15133ac:	c17be870 	cmngt	fp, r0, ror r8
 15133b0:	494ad860 	stmdbmi	sl, {r5, r6, fp, ip, lr, pc}^
 15133b4:	7bebaee7 	blvc	ffef58 <_back_addr-0x5010a8>
 15133b8:	0442e1dd 	strbeq	lr, [r2], #-477	; 0x1dd
 15133bc:	cfad0e27 	svcgt	0x00ad0e27
 15133c0:	b1d114c7 	bicslt	r1, r1, r7, asr #9
 15133c4:	3cbccbb5 	fldmiaxcc	ip!, {d12-d101}	;@ Deprecated
 15133c8:	49ac9671 	stmibmi	ip!, {r0, r4, r5, r6, r9, sl, ip, pc}
 15133cc:	d966c784 	stmdble	r6!, {r2, r7, r8, r9, sl, lr, pc}^
 15133d0:	e8a7962d 	stmia	r7!, {r0, r2, r3, r5, r9, sl, ip, pc}
 15133d4:	3c630143 	stfcce	f0, [r3], #-268	; 0xfffffef4
 15133d8:	4b1aaffe 	blmi	1bbf3d8 <__bss_end__+0x6ab898>
 15133dc:	b1aaacfd 	strdlt	sl, [sl, sp]!
 15133e0:	f937354f 			; <UNDEFINED> instruction: 0xf937354f
 15133e4:	e3f61eaf 	mvns	r1, #2800	; 0xaf0
 15133e8:	6e261ecc 	cdpvs	14, 2, cr1, cr6, cr12, {6}
 15133ec:	d2a7f5a5 	adcle	pc, r7, #692060160	; 0x29400000
 15133f0:	867b0e40 	ldrbthi	r0, [fp], -r0, asr #28
 15133f4:	09c69fe9 	stmibeq	r6, {r0, r3, r5, r6, r7, r8, r9, sl, fp, ip, pc}^
 15133f8:	d28288d9 	addle	r8, r2, #14221312	; 0xd90000
 15133fc:	95e48d81 	strbls	r8, [r4, #3457]!	; 0xd81

01513400 <rsa_pub_fw_key_end>:
 1513400:	00000000 	andeq	r0, r0, r0

01513404 <rsa_pub_tee_key>:
 1513404:	e262baf3 	rsb	fp, r2, #995328	; 0xf3000
 1513408:	e8dbd77a 	ldm	fp, {r1, r3, r4, r5, r6, r8, r9, sl, ip, lr, pc}^
 151340c:	30cb0248 	sbccc	r0, fp, r8, asr #4
 1513410:	f75f03fd 			; <UNDEFINED> instruction: 0xf75f03fd
 1513414:	27f36571 			; <UNDEFINED> instruction: 0x27f36571
 1513418:	161e23df 			; <UNDEFINED> instruction: 0x161e23df
 151341c:	d68c6128 	strle	r6, [ip], r8, lsr #2
 1513420:	c4827c88 	strgt	r7, [r2], #3208	; 0xc88
 1513424:	2fd9e52a 	svccs	0x00d9e52a
 1513428:	fd90539a 	ldc2	3, cr5, [r0, #616]	; 0x268
 151342c:	83e1b31b 	mvnhi	fp, #1811939328	; 0x6c000000
 1513430:	902a0e45 	eorls	r0, sl, r5, asr #28
 1513434:	a1b0d415 	lslsge	sp, r5, r4
 1513438:	f3731b6c 	vqrdmulh.s<illegal width 64>	<illegal reg q8.5>, <illegal reg q1.5>, q14
 151343c:	f8c50bb3 			; <UNDEFINED> instruction: 0xf8c50bb3
 1513440:	6a5c8bc6 	bvs	2c36360 <__bss_end__+0x1722820>
 1513444:	e7188186 	ldr	r8, [r8, -r6, lsl #3]
 1513448:	61a0e427 	lsrvs	lr, r7, #8
 151344c:	08427029 	stmdaeq	r2, {r0, r3, r5, ip, sp, lr}^
 1513450:	8249831f 	subhi	r8, r9, #2080374784	; 0x7c000000
 1513454:	fc6f5aa5 	stc2l	10, cr5, [pc], #-660	; 15131c8 <__FUNCTION__.3994+0xfff8>
 1513458:	9971534f 	ldmdbls	r1!, {r0, r1, r2, r3, r6, r8, r9, ip, lr}^
 151345c:	200a1605 	andcs	r1, sl, r5, lsl #12
 1513460:	5a3f168a 	bpl	24d8e90 <__bss_end__+0xfc5350>
 1513464:	3d550f64 	ldclcc	15, cr0, [r5, #-400]	; 0xfffffe70
 1513468:	41ae631f 			; <UNDEFINED> instruction: 0x41ae631f
 151346c:	2312cd31 	tstcs	r2, #3136	; 0xc40
 1513470:	803dc245 	eorshi	ip, sp, r5, asr #4
 1513474:	60c5915b 	sbcvs	r9, r5, fp, asr r1
 1513478:	fa7f9f37 	blx	34fb15c <__bss_end__+0x1fe761c>
 151347c:	2abfba77 	bcs	501e60 <_back_addr-0xffe1a0>
 1513480:	4dd632ed 	lfmmi	f3, 2, [r6, #948]	; 0x3b4
 1513484:	69324acd 	ldmdbvs	r2!, {r0, r2, r3, r6, r7, r9, fp, lr}
 1513488:	8f05be10 	svchi	0x0005be10
 151348c:	97f21362 	ldrbls	r1, [r2, r2, ror #6]!
 1513490:	0f377e78 	svceq	0x00377e78
 1513494:	7e2edda6 	cdpvc	13, 2, cr13, cr14, cr6, {5}
 1513498:	9df6f4f1 	cfldrdls	mvd15, [r6, #964]!	; 0x3c4
 151349c:	146e8f6e 	strbtne	r8, [lr], #-3950	; 0xf6e
 15134a0:	4d6def99 	stclmi	15, cr14, [sp, #-612]!	; 0xfffffd9c
 15134a4:	4e2db967 	cdpmi	9, 2, cr11, cr13, cr7, {3}
 15134a8:	f69fb74b 			; <UNDEFINED> instruction: 0xf69fb74b
 15134ac:	8fa07b14 	svchi	0x00a07b14
 15134b0:	d471048a 	ldrbtle	r0, [r1], #-1162	; 0x48a
 15134b4:	cd1984ba 	cfldrsgt	mvf8, [r9, #-744]	; 0xfffffd18
 15134b8:	dbcef46c 	blle	8d0670 <_back_addr-0xc2f990>
 15134bc:	81048ad3 	ldrdhi	r8, [r4, -r3]
 15134c0:	898db497 	stmibhi	sp, {r0, r1, r2, r4, r7, sl, ip, sp, pc}
 15134c4:	94010ef4 	strls	r0, [r1], #-3828	; 0xef4
 15134c8:	f718c6e1 			; <UNDEFINED> instruction: 0xf718c6e1
 15134cc:	a84f788c 	stmdage	pc, {r2, r3, r7, fp, ip, sp, lr}^	; <UNPREDICTABLE>
 15134d0:	b22ff5a6 	eorlt	pc, pc, #696254464	; 0x29800000
 15134d4:	5bad71cf 	blpl	6fc18 <_back_addr-0x14903e8>
 15134d8:	4034d568 	eorsmi	sp, r4, r8, ror #10
 15134dc:	dd2d3b72 	vpushle	{d3-<overflow reg d59>}
 15134e0:	70c386f4 	strdvc	r8, [r3], #100	; 0x64
 15134e4:	c5482dce 	strbgt	r2, [r8, #-3534]	; 0xdce
 15134e8:	465c0130 			; <UNDEFINED> instruction: 0x465c0130
 15134ec:	e4afe7ed 	strt	lr, [pc], #2029	; 15134f4 <rsa_pub_tee_key+0xf0>
 15134f0:	053f4719 	ldreq	r4, [pc, #-1817]!	; 1512ddf <__FUNCTION__.3994+0xfc0f>
 15134f4:	9696b7f3 			; <UNDEFINED> instruction: 0x9696b7f3
 15134f8:	9f7f8e81 	svcls	0x007f8e81
 15134fc:	d9306deb 	ldmdble	r0!, {r0, r1, r3, r5, r6, r7, r8, sl, fp, sp, lr}
 1513500:	a294635c 	addsge	r6, r4, #92, 6	; 0x70000001

01513504 <rsa_pub_tee_key_end>:
 1513504:	00000000 	andeq	r0, r0, r0

01513508 <aes_key>:
 1513508:	fb6d158d 	blx	3058b46 <__bss_end__+0x1b45006>
 151350c:	e0bc6b32 	adcs	r6, ip, r2, lsr fp
 1513510:	343822ab 	ldrtcc	r2, [r8], #-683	; 0x2ab
 1513514:	e2e1837f 	rsc	r8, r1, #-67108863	; 0xfc000001

01513518 <aes_key_end>:
 1513518:	00000000 	andeq	r0, r0, r0

0151351c <aes_key1>:
 151351c:	4bdb96d3 	blmi	bf9070 <_back_addr-0x906f90>
 1513520:	44433c67 	strbmi	r3, [r3], #-3175	; 0xc67
 1513524:	d13216c7 	teqle	r2, r7, asr #13
 1513528:	047ceb1b 	ldrbteq	lr, [ip], #-2843	; 0xb1b

0151352c <aes_key1_end>:
 151352c:	00000000 	andeq	r0, r0, r0

01513530 <aes_key2>:
 1513530:	1372fb2f 	cmnne	r2, #48128	; 0xbc00
 1513534:	4890504b 	ldmmi	r0, {r0, r1, r3, r6, ip, lr}
 1513538:	76e3cd0c 	strbtvc	ip, [r3], ip, lsl #26
 151353c:	ef2fc4bc 	svc	0x002fc4bc

01513540 <aes_key2_end>:
 1513540:	00000000 	andeq	r0, r0, r0

01513544 <aes_key3>:
 1513544:	b1b37e33 			; <UNDEFINED> instruction: 0xb1b37e33
 1513548:	8a286395 	bhi	1f2c3a4 <__bss_end__+0xa18864>
 151354c:	fb6497e9 	blx	2e394fa <__bss_end__+0x19259ba>
 1513550:	0c28c865 	stceq	8, cr12, [r8], #-404	; 0xfffffe6c

01513554 <aes_key3_end>:
 1513554:	00000000 	andeq	r0, r0, r0

01513558 <aes_seed>:
 1513558:	68710f2d 	ldmdavs	r1!, {r0, r2, r3, r5, r8, r9, sl, fp}^
 151355c:	33038c17 	movwcc	r8, #15383	; 0x3c17
 1513560:	667c3ddd 			; <UNDEFINED> instruction: 0x667c3ddd
 1513564:	0ff88e5a 	svceq	0x00f88e5a

01513568 <aes_seed_end>:
 1513568:	00000000 	andeq	r0, r0, r0

0151356c <cust_data>:
 151356c:	00000000 	andeq	r0, r0, r0

01513570 <arrayB>:
 1513570:	ffffffff 			; <UNDEFINED> instruction: 0xffffffff
 1513574:	ffffffff 			; <UNDEFINED> instruction: 0xffffffff
 1513578:	ffffffff 			; <UNDEFINED> instruction: 0xffffffff
 151357c:	ffffffff 			; <UNDEFINED> instruction: 0xffffffff

01513580 <arrayA>:
 1513580:	07050301 	streq	r0, [r5, -r1, lsl #6]
 1513584:	23211109 	teqcs	r1, #1073741826	; 0x40000002
 1513588:	31292725 	teqcc	r9, r5, lsr #14
 151358c:	39373533 	ldmdbcc	r7!, {r0, r1, r4, r5, r8, sl, ip, sp}

01513590 <arrayC>:
 1513590:	ffffffff 			; <UNDEFINED> instruction: 0xffffffff
 1513594:	ffffffff 			; <UNDEFINED> instruction: 0xffffffff
 1513598:	ffffffff 			; <UNDEFINED> instruction: 0xffffffff
 151359c:	ffffffff 			; <UNDEFINED> instruction: 0xffffffff

015135a0 <rsa_pub_key>:
 15135a0:	ec39e4af 	cfldrs	mvf14, [r9], #-700	; 0xfffffd44
 15135a4:	0016e5dd 			; <UNDEFINED> instruction: 0x0016e5dd
 15135a8:	8465bb72 	strbthi	fp, [r5], #-2930	; 0xb72
 15135ac:	bd4fa5dd 	cfstr64lt	mvdx10, [pc, #-884]	; 1513240 <rsa_pub_key+0x44>
 15135b0:	e32ee3df 	teq	lr, #2080374787	; 0x7c000003
 15135b4:	00db5c17 	sbcseq	r5, fp, r7, lsl ip
 15135b8:	d2fe52ac 	rscsle	r5, lr, #172, 4	; 0xc000000a
 15135bc:	ec2a71c3 	stfs	f7, [sl], #-780	; 0xfffffcf4
 15135c0:	1d77452b 	cfldr64ne	mvdx4, [r7, #-172]!	; 0xffffff54
 15135c4:	304c7f48 	subcc	r7, ip, r8, asr #30
 15135c8:	7c2c34c7 	cfstrsvc	mvf3, [ip], #-796	; 0xfffffce4
 15135cc:	01e5958f 	mvneq	r9, pc, lsl #11
 15135d0:	1f9473d8 	svcne	0x009473d8
 15135d4:	2710e662 	ldrcs	lr, [r0, -r2, ror #12]
 15135d8:	acf87a98 	vldmiage	r8!, {s15-s166}
 15135dc:	9f9b925a 	svcls	0x009b925a
 15135e0:	1719b66e 	ldrne	fp, [r9, -lr, ror #12]
 15135e4:	0c3d1971 	ldceq	9, cr1, [sp], #-452	; 0xfffffe3c
 15135e8:	18f46303 	ldmne	r4!, {r0, r1, r8, r9, sp, lr}^
 15135ec:	fcbfc6a4 	ldc2	6, cr12, [pc], #656	; 1513884 <v_array+0x18c>
 15135f0:	12ff9440 	rscsne	r9, pc, #64, 8	; 0x40000000
 15135f4:	8ec0883f 	mcrhi	8, 6, r8, cr0, cr15, {1}
 15135f8:	5481c382 	strpl	ip, [r1], #898	; 0x382
 15135fc:	3dba11fa 	ldfccs	f1, [sl, #1000]!	; 0x3e8
 1513600:	9ef62b74 	vmovls.u8	r2, d6[7]
 1513604:	ffef1d46 			; <UNDEFINED> instruction: 0xffef1d46
 1513608:	894305d8 	stmdbhi	r3, {r3, r4, r6, r7, r8, sl}^
 151360c:	76ed8476 	uxtabvc	r8, sp, r6, ror #8
 1513610:	ad9060f3 	ldcge	0, cr6, [r0, #972]	; 0x3cc
 1513614:	38c2ccfa 	stmiacc	r2, {r1, r3, r4, r5, r6, r7, sl, fp, lr, pc}^
 1513618:	62c0ff88 	sbcvs	pc, r0, #136, 30	; 0x220
 151361c:	1579ec0a 	ldrbne	lr, [r9, #-3082]!	; 0xc0a
 1513620:	675e0048 	ldrbvs	r0, [lr, -r8, asr #32]
 1513624:	486be9a4 	stmdami	fp!, {r2, r5, r7, r8, fp, sp, lr, pc}^
 1513628:	0cde44d9 	cfldrdeq	mvd4, [lr], {217}	; 0xd9
 151362c:	56cf0ee8 	strbpl	r0, [pc], r8, ror #29
 1513630:	2618c91b 			; <UNDEFINED> instruction: 0x2618c91b
 1513634:	8a24e311 	bhi	1e4c280 <__bss_end__+0x938740>
 1513638:	642f509c 	strtvs	r5, [pc], #-156	; 1513640 <rsa_pub_key+0xa0>
 151363c:	48d88a99 	ldmmi	r8, {r0, r3, r4, r7, r9, fp, pc}^
 1513640:	629dd425 	addsvs	sp, sp, #620756992	; 0x25000000
 1513644:	a8af95be 	stmiage	pc!, {r1, r2, r3, r4, r5, r7, r8, sl, ip, pc}	; <UNPREDICTABLE>
 1513648:	9d305a0e 	vldmdbls	r0!, {s10-s23}
 151364c:	6eeee264 	cdpvs	2, 14, cr14, cr14, cr4, {3}
 1513650:	25d2f066 	ldrbcs	pc, [r2, #102]	; 0x66	; <UNPREDICTABLE>
 1513654:	db143839 	blle	1a21740 <__bss_end__+0x50dc00>
 1513658:	a86d03d4 	stmdage	sp!, {r2, r4, r6, r7, r8, r9}^
 151365c:	fa80cb0f 	blx	ff5462a0 <__bss_end__+0xfe032760>
 1513660:	def72263 	cdple	2, 15, cr2, cr7, cr3, {3}
 1513664:	83944dbf 	orrshi	r4, r4, #12224	; 0x2fc0
 1513668:	2ec53a81 	vdivcs.f32	s7, s11, s2
 151366c:	a8c593d3 	stmiage	r5, {r0, r1, r4, r6, r7, r8, r9, ip, pc}^
 1513670:	9374b09c 	cmnls	r4, #156	; 0x9c
 1513674:	11fd65c8 	mvnsne	r6, r8, asr #11
 1513678:	2a5e7165 	bcs	2cafc14 <__bss_end__+0x179c0d4>
 151367c:	f148b0b7 			; <UNDEFINED> instruction: 0xf148b0b7
 1513680:	41054302 	tstmi	r5, r2, lsl #6
 1513684:	7a64a9a8 	bvc	2e3dd2c <__bss_end__+0x192a1ec>
 1513688:	ab81b7ec 	blge	ff581640 <__bss_end__+0xfe06db00>
 151368c:	dad35f89 	ble	9eb4b8 <_back_addr-0xb14b48>
 1513690:	0db8b8c3 	ldceq	8, cr11, [r8, #780]!	; 0x30c
 1513694:	3f74dba1 	svccc	0x0074dba1
 1513698:	af3f83eb 	svcge	0x003f83eb
 151369c:	b9975438 	ldmiblt	r7, {r3, r4, r5, sl, ip, lr}

015136a0 <aes_key_ks>:
 15136a0:	12efcdab 	rscne	ip, pc, #10944	; 0x2ac0
 15136a4:	68245713 	stmdavs	r4!, {r0, r1, r4, r8, r9, sl, ip, lr}
 15136a8:	d4c3b2a1 	strble	fp, [r3], #673	; 0x2a1
 15136ac:	beba9090 	mrclt	0, 5, r9, cr10, cr0, {4}

015136b0 <aes_key_kh>:
 15136b0:	12efcdab 	rscne	ip, pc, #10944	; 0x2ac0
 15136b4:	68245713 	stmdavs	r4!, {r0, r1, r4, r8, r9, sl, ip, lr}
 15136b8:	d4c3b2a1 	strble	fp, [r3], #673	; 0x2a1
 15136bc:	beba9090 	mrclt	0, 5, r9, cr10, cr0, {4}

015136c0 <aes_key_kn>:
 15136c0:	12efcdab 	rscne	ip, pc, #10944	; 0x2ac0
 15136c4:	68245713 	stmdavs	r4!, {r0, r1, r4, r8, r9, sl, ip, lr}
 15136c8:	d4c3b2a1 	strble	fp, [r3], #673	; 0x2a1
 15136cc:	beba9090 	mrclt	0, 5, r9, cr10, cr0, {4}

015136d0 <deviceID>:
 15136d0:	31445452 	cmpcc	r4, r2, asr r4
 15136d4:	30783931 	rsbscc	r3, r8, r1, lsr r9
 15136d8:	30303030 	eorscc	r3, r0, r0, lsr r0
 15136dc:	31303030 	teqcc	r0, r0, lsr r0
 15136e0:	00000000 	andeq	r0, r0, r0

015136e4 <UartReg>:
 15136e4:	98007800 	stmdals	r0, {fp, ip, sp, lr}

015136e8 <alloc_current.3981>:
 15136e8:	04000000 	streq	r0, [r0], #-0

Disassembly of section .bss:

015136f0 <otp_retry_cnt>:
	...

015136f8 <v_array>:
	...

01513af8 <dec_array>:
	...

01513b38 <mcp_dscpt_addr>:
 1513b38:	00000000 	andeq	r0, r0, r0

01513b3c <alloc_count.3982>:
 1513b3c:	00000000 	andeq	r0, r0, r0

Disassembly of section .comment:

00000000 <.comment>:
   0:	3a434347 	bcc	10d0d24 <_back_addr-0x42f2dc>
   4:	65522820 	ldrbvs	r2, [r2, #-2080]	; 0x820
   8:	65746c61 	ldrbvs	r6, [r4, #-3169]!	; 0xc61
   c:	5341206b 	movtpl	r2, #4203	; 0x106b
  10:	342d4b44 	strtcc	r4, [sp], #-2884	; 0xb44
  14:	332e392e 	teqcc	lr, #753664	; 0xb8000
  18:	69754220 	ldmdbvs	r5!, {r5, r9, lr}^
  1c:	3220646c 	eorcc	r6, r0, #108, 8	; 0x6c000000
  20:	29303831 	ldmdbcs	r0!, {r0, r4, r5, fp, ip, sp}
  24:	392e3420 	stmdbcc	lr!, {r5, sl, ip, sp}
  28:	3220332e 	eorcc	r3, r0, #-1207959552	; 0xb8000000
  2c:	30353130 	eorscc	r3, r5, r0, lsr r1
  30:	20333134 	eorscs	r3, r3, r4, lsr r1
  34:	65727028 	ldrbvs	r7, [r2, #-40]!	; 0x28
  38:	656c6572 	strbvs	r6, [ip, #-1394]!	; 0x572
  3c:	29657361 	stmdbcs	r5!, {r0, r5, r6, r8, r9, ip, sp, lr}^
	...

Disassembly of section .ARM.attributes:

00000000 <.ARM.attributes>:
   0:	00003241 	andeq	r3, r0, r1, asr #4
   4:	61656100 	cmnvs	r5, r0, lsl #2
   8:	01006962 	tsteq	r0, r2, ror #18
   c:	00000028 	andeq	r0, r0, r8, lsr #32
  10:	412d3805 	teqmi	sp, r5, lsl #16
  14:	070e0600 	streq	r0, [lr, -r0, lsl #12]
  18:	09010841 	stmdbeq	r1, {r0, r6, fp}
  1c:	0c030a02 	stceq	10, cr0, [r3], {2}
  20:	14041201 	strne	r1, [r4], #-513	; 0x201
  24:	17011501 	strne	r1, [r1, -r1, lsl #10]
  28:	1a011803 	bne	4603c <_back_addr-0x14b9fc4>
  2c:	2a012202 	bcs	4883c <_back_addr-0x14b77c4>
  30:	Address 0x00000030 is out of bounds.


Disassembly of section .debug_aranges:

00000000 <.debug_aranges>:
   0:	0000001c 	andeq	r0, r0, ip, lsl r0
   4:	00000002 	andeq	r0, r0, r2
   8:	00040000 	andeq	r0, r4, r0
   c:	00000000 	andeq	r0, r0, r0
  10:	01500000 	cmpeq	r0, r0
  14:	00000074 	andeq	r0, r0, r4, ror r0
	...
  20:	0000001c 	andeq	r0, r0, ip, lsl r0
  24:	00790002 	rsbseq	r0, r9, r2
  28:	00040000 	andeq	r0, r4, r0
  2c:	00000000 	andeq	r0, r0, r0
  30:	01500074 	cmpeq	r0, r4, ror r0
  34:	00000028 	andeq	r0, r0, r8, lsr #32
	...
  40:	0000001c 	andeq	r0, r0, ip, lsl r0
  44:	01240002 	teqeq	r4, r2
  48:	00040000 	andeq	r0, r4, r0
  4c:	00000000 	andeq	r0, r0, r0
  50:	0150009c 			; <UNDEFINED> instruction: 0x0150009c
  54:	000000a0 	andeq	r0, r0, r0, lsr #1
	...
  60:	0000001c 	andeq	r0, r0, ip, lsl r0
  64:	01ef0002 	mvneq	r0, r2
  68:	00040000 	andeq	r0, r4, r0
  6c:	00000000 	andeq	r0, r0, r0
  70:	0150013c 	cmpeq	r0, ip, lsr r1
  74:	00000194 	muleq	r0, r4, r1
	...
  80:	00000014 	andeq	r0, r0, r4, lsl r0
  84:	03370002 	teqeq	r7, #2
  88:	00040000 	andeq	r0, r4, r0
	...
  98:	0000001c 	andeq	r0, r0, ip, lsl r0
  9c:	03890002 	orreq	r0, r9, #2
  a0:	00040000 	andeq	r0, r4, r0
  a4:	00000000 	andeq	r0, r0, r0
  a8:	015002d0 	ldrsbeq	r0, [r0, #-32]	; 0xffffffe0
  ac:	000002b4 			; <UNDEFINED> instruction: 0x000002b4
	...
  b8:	0000001c 	andeq	r0, r0, ip, lsl r0
  bc:	0a1e0002 	beq	7800cc <_back_addr-0xd7ff34>
  c0:	00040000 	andeq	r0, r4, r0
  c4:	00000000 	andeq	r0, r0, r0
  c8:	01500584 	cmpeq	r0, r4, lsl #11
  cc:	0000088c 	andeq	r0, r0, ip, lsl #17
	...
  d8:	0000001c 	andeq	r0, r0, ip, lsl r0
  dc:	1ea60002 	cdpne	0, 10, cr0, cr6, cr2, {0}
  e0:	00040000 	andeq	r0, r4, r0
  e4:	00000000 	andeq	r0, r0, r0
  e8:	01500e10 	cmpeq	r0, r0, lsl lr
  ec:	00000c04 	andeq	r0, r0, r4, lsl #24
	...
  f8:	0000001c 	andeq	r0, r0, ip, lsl r0
  fc:	32ed0002 	rsccc	r0, sp, #2
 100:	00040000 	andeq	r0, r4, r0
 104:	00000000 	andeq	r0, r0, r0
 108:	01501a14 	cmpeq	r0, r4, lsl sl
 10c:	00000c00 	andeq	r0, r0, r0, lsl #24
	...
 118:	0000001c 	andeq	r0, r0, ip, lsl r0
 11c:	4a9f0002 	bmi	fe7c012c <__bss_end__+0xfd2ac5ec>
 120:	00040000 	andeq	r0, r4, r0
 124:	00000000 	andeq	r0, r0, r0
 128:	01502614 	cmpeq	r0, r4, lsl r6
 12c:	00000168 	andeq	r0, r0, r8, ror #2
	...
 138:	0000001c 	andeq	r0, r0, ip, lsl r0
 13c:	4d8e0002 	stcmi	0, cr0, [lr, #8]
 140:	00040000 	andeq	r0, r4, r0
 144:	00000000 	andeq	r0, r0, r0
 148:	0150277c 	cmpeq	r0, ip, ror r7
 14c:	000004c8 	andeq	r0, r0, r8, asr #9
	...
 158:	0000001c 	andeq	r0, r0, ip, lsl r0
 15c:	5ae20002 	bpl	ff88016c <__bss_end__+0xfe36c62c>
 160:	00040000 	andeq	r0, r4, r0
 164:	00000000 	andeq	r0, r0, r0
 168:	01502c44 	cmpeq	r0, r4, asr #24
 16c:	00000218 	andeq	r0, r0, r8, lsl r2
	...

Disassembly of section .debug_info:

00000000 <.debug_info>:
       0:	00000075 	andeq	r0, r0, r5, ror r0
       4:	00000002 	andeq	r0, r0, r2
       8:	01040000 	mrseq	r0, (UNDEF: 4)
       c:	00000000 	andeq	r0, r0, r0
      10:	01500000 	cmpeq	r0, r0
      14:	01500074 	cmpeq	r0, r4, ror r0
      18:	72617473 	rsbvc	r7, r1, #1929379840	; 0x73000000
      1c:	00532e74 	subseq	r2, r3, r4, ror lr
      20:	6d6f682f 	stclvs	8, cr6, [pc, #-188]!	; ffffff6c <__bss_end__+0xfeaec42c>
      24:	61632f65 	cmnvs	r3, r5, ror #30
      28:	686c6f72 	stmdavs	ip!, {r1, r4, r5, r6, r8, r9, sl, fp, sp, lr}^
      2c:	6e2f7573 	mcrvs	5, 1, r7, cr15, cr3, {3}
      30:	732f7361 	teqvc	pc, #-2080374783	; 0x84000001
      34:	622f6e76 	eorvs	r6, pc, #1888	; 0x760
      38:	63746f6f 	cmnvs	r4, #444	; 0x1bc
      3c:	5f65646f 	svcpl	0x0065646f
      40:	36313032 			; <UNDEFINED> instruction: 0x36313032
      44:	31303830 	teqcc	r0, r0, lsr r8
      48:	6f62752f 	svcvs	0x0062752f
      4c:	652f746f 	strvs	r7, [pc, #-1135]!	; fffffbe5 <__bss_end__+0xfeaec0a5>
      50:	706d6178 	rsbvc	r6, sp, r8, ror r1
      54:	2f73656c 	svccs	0x0073656c
      58:	73756665 	cmnvc	r5, #105906176	; 0x6500000
      5c:	72705f65 	rsbsvc	r5, r0, #404	; 0x194
      60:	6172676f 	cmnvs	r2, pc, ror #14
      64:	72656d6d 	rsbvc	r6, r5, #6976	; 0x1b40
      68:	554e4700 	strbpl	r4, [lr, #-1792]	; 0x700
      6c:	20534120 	subscs	r4, r3, r0, lsr #2
      70:	34322e32 	ldrtcc	r2, [r2], #-3634	; 0xe32
      74:	0100302e 	tsteq	r0, lr, lsr #32
      78:	0000a780 	andeq	sl, r0, r0, lsl #15
      7c:	14000400 	strne	r0, [r0], #-1024	; 0x400
      80:	04000000 	streq	r0, [r0], #-0
      84:	0000a901 	andeq	sl, r0, r1, lsl #18
      88:	00000100 	andeq	r0, r0, r0, lsl #2
      8c:	00090000 	andeq	r0, r9, r0
      90:	00740000 	rsbseq	r0, r4, r0
      94:	00280150 	eoreq	r0, r8, r0, asr r1
      98:	00500000 	subseq	r0, r0, r0
      9c:	01020000 	mrseq	r0, (UNDEF: 2)
      a0:	00005908 	andeq	r5, r0, r8, lsl #18
      a4:	06010200 	streq	r0, [r1], -r0, lsl #4
      a8:	0000005b 	andeq	r0, r0, fp, asr r0
      ac:	67070202 	strvs	r0, [r7, -r2, lsl #4]
      b0:	02000000 	andeq	r0, r0, #0
      b4:	009f0502 	addseq	r0, pc, r2, lsl #10
      b8:	04020000 	streq	r0, [r2], #-0
      bc:	00008407 	andeq	r8, r0, r7, lsl #8
      c0:	05040300 	streq	r0, [r4, #-768]	; 0x300
      c4:	00746e69 	rsbseq	r6, r4, r9, ror #28
      c8:	7a070802 	bvc	1c20d8 <_back_addr-0x133df28>
      cc:	02000000 	andeq	r0, r0, #0
      d0:	00910508 	addseq	r0, r1, r8, lsl #10
      d4:	04020000 	streq	r0, [r2], #-0
      d8:	00007f07 	andeq	r7, r0, r7, lsl #30
      dc:	00520400 	subseq	r0, r2, r0, lsl #8
      e0:	3c010000 	stccc	0, cr0, [r1], {-0}
      e4:	00000048 	andeq	r0, r0, r8, asr #32
      e8:	01500074 	cmpeq	r0, r4, ror r0
      ec:	00000028 	andeq	r0, r0, r8, lsr #32
      f0:	00989c01 	addseq	r9, r8, r1, lsl #24
      f4:	73050000 	movwvc	r0, #20480	; 0x5000
      f8:	983c0100 	ldmdals	ip!, {r8}
      fc:	00000000 	andeq	r0, r0, r0
     100:	06000000 	streq	r0, [r0], -r0
     104:	3e01006c 	cdpcc	0, 0, cr0, cr1, cr12, {3}
     108:	00000048 	andeq	r0, r0, r8, asr #32
     10c:	0000002b 	andeq	r0, r0, fp, lsr #32
     110:	9e040700 	cdpls	7, 0, cr0, cr4, cr0, {0}
     114:	08000000 	stmdaeq	r0, {}	; <UNPREDICTABLE>
     118:	000000a3 	andeq	r0, r0, r3, lsr #1
     11c:	62080102 	andvs	r0, r8, #-2147483648	; 0x80000000
     120:	00000000 	andeq	r0, r0, r0
     124:	000000c7 	andeq	r0, r0, r7, asr #1
     128:	00880004 	addeq	r0, r8, r4
     12c:	01040000 	mrseq	r0, (UNDEF: 4)
     130:	000000a9 	andeq	r0, r0, r9, lsr #1
     134:	0001ba01 	andeq	fp, r1, r1, lsl #20
     138:	00000900 	andeq	r0, r0, r0, lsl #18
     13c:	50009c00 	andpl	r9, r0, r0, lsl #24
     140:	0000a001 	andeq	sl, r0, r1
     144:	00008a00 	andeq	r8, r0, r0, lsl #20
     148:	08010200 	stmdaeq	r1, {r9}
     14c:	00000059 	andeq	r0, r0, r9, asr r0
     150:	5b060102 	blpl	180560 <_back_addr-0x137faa0>
     154:	02000000 	andeq	r0, r0, #0
     158:	00670702 	rsbeq	r0, r7, r2, lsl #14
     15c:	02020000 	andeq	r0, r2, #0
     160:	00009f05 	andeq	r9, r0, r5, lsl #30
     164:	07040200 	streq	r0, [r4, -r0, lsl #4]
     168:	00000084 	andeq	r0, r0, r4, lsl #1
     16c:	69050403 	stmdbvs	r5, {r0, r1, sl}
     170:	0200746e 	andeq	r7, r0, #1845493760	; 0x6e000000
     174:	007a0708 	rsbseq	r0, sl, r8, lsl #14
     178:	08020000 	stmdaeq	r2, {}	; <UNPREDICTABLE>
     17c:	00009105 	andeq	r9, r0, r5, lsl #2
     180:	07040200 	streq	r0, [r4, -r0, lsl #4]
     184:	0000007f 	andeq	r0, r0, pc, ror r0
     188:	0001c304 	andeq	ip, r1, r4, lsl #6
     18c:	b23e0100 	eorslt	r0, lr, #0, 2
     190:	9c000000 	stcls	0, cr0, [r0], {-0}
     194:	a0015000 	andge	r5, r1, r0
     198:	01000000 	mrseq	r0, (UNDEF: 0)
     19c:	0000b29c 	muleq	r0, ip, r2
     1a0:	31730500 	cmncc	r3, r0, lsl #10
     1a4:	bf3f0100 	svclt	0x003f0100
     1a8:	5b000000 	blpl	1b0 <_back_addr-0x14ffe50>
     1ac:	06000000 	streq	r0, [r0], -r0
     1b0:	01003273 	tsteq	r0, r3, ror r2
     1b4:	0000bf40 	andeq	fp, r0, r0, asr #30
     1b8:	07510100 	ldrbeq	r0, [r1, -r0, lsl #2]
     1bc:	42010073 	andmi	r0, r1, #115	; 0x73
     1c0:	000000bf 	strheq	r0, [r0], -pc	; <UNPREDICTABLE>
     1c4:	0000009f 	muleq	r0, pc, r0	; <UNPREDICTABLE>
     1c8:	01007407 	tsteq	r0, r7, lsl #8
     1cc:	0000bf43 	andeq	fp, r0, r3, asr #30
     1d0:	0000d500 	andeq	sp, r0, r0, lsl #10
     1d4:	04080000 	streq	r0, [r8], #-0
     1d8:	000000b8 	strheq	r0, [r0], -r8
     1dc:	62080102 	andvs	r0, r8, #-2147483648	; 0x80000000
     1e0:	08000000 	stmdaeq	r0, {}	; <UNPREDICTABLE>
     1e4:	0000c504 	andeq	ip, r0, r4, lsl #10
     1e8:	00b80900 	adcseq	r0, r8, r0, lsl #18
     1ec:	44000000 	strmi	r0, [r0], #-0
     1f0:	04000001 	streq	r0, [r0], #-1
     1f4:	00010b00 	andeq	r0, r1, r0, lsl #22
     1f8:	a9010400 	stmdbge	r1, {sl}
     1fc:	01000000 	mrseq	r0, (UNDEF: 0)
     200:	000001e0 	andeq	r0, r0, r0, ror #3
     204:	00000009 	andeq	r0, r0, r9
     208:	0150013c 	cmpeq	r0, ip, lsr r1
     20c:	00000194 	muleq	r0, r4, r1
     210:	000000e3 	andeq	r0, r0, r3, ror #1
     214:	59080102 	stmdbpl	r8, {r1, r8}
     218:	02000000 	andeq	r0, r0, #0
     21c:	005b0601 	subseq	r0, fp, r1, lsl #12
     220:	02020000 	andeq	r0, r2, #0
     224:	00006707 	andeq	r6, r0, r7, lsl #14
     228:	05020200 	streq	r0, [r2, #-512]	; 0x200
     22c:	0000009f 	muleq	r0, pc, r0	; <UNPREDICTABLE>
     230:	84070402 	strhi	r0, [r7], #-1026	; 0x402
     234:	03000000 	movweq	r0, #0
     238:	6e690504 	cdpvs	5, 6, cr0, cr9, cr4, {0}
     23c:	08020074 	stmdaeq	r2, {r2, r4, r5, r6}
     240:	00007a07 	andeq	r7, r0, r7, lsl #20
     244:	05080200 	streq	r0, [r8, #-512]	; 0x200
     248:	00000091 	muleq	r0, r1, r0
     24c:	7f070402 	svcvc	0x00070402
     250:	04000000 	streq	r0, [r0], #-0
     254:	000001d8 	ldrdeq	r0, [r0], -r8
     258:	005d4101 	subseq	r4, sp, r1, lsl #2
     25c:	013c0000 	teqeq	ip, r0
     260:	01940150 	orrseq	r0, r4, r0, asr r1
     264:	9c010000 	stcls	0, cr0, [r1], {-0}
     268:	0000010e 	andeq	r0, r0, lr, lsl #2
     26c:	72747305 	rsbsvc	r7, r4, #335544320	; 0x14000000
     270:	0e420100 	dvfeqs	f0, f2, f0
     274:	00000001 	andeq	r0, r0, r1
     278:	06000001 	streq	r0, [r0], -r1
     27c:	000001ca 	andeq	r0, r0, sl, asr #3
     280:	01204301 	teqeq	r0, r1, lsl #6
     284:	51010000 	mrspl	r0, (UNDEF: 1)
     288:	0001ea07 	andeq	lr, r1, r7, lsl #20
     28c:	48440100 	stmdami	r4, {r8}^
     290:	37000000 	strcc	r0, [r0, -r0]
     294:	08000001 	stmdaeq	r0, {r0}
     298:	46010073 			; <UNDEFINED> instruction: 0x46010073
     29c:	0000010e 	andeq	r0, r0, lr, lsl #2
     2a0:	00000196 	muleq	r0, r6, r1
     2a4:	63636108 	cmnvs	r3, #8, 2
     2a8:	5d470100 	stfple	f0, [r7, #-0]
     2ac:	ca000000 	bgt	2b4 <_back_addr-0x14ffd4c>
     2b0:	09000001 	stmdbeq	r0, {r0}
     2b4:	000001ef 	andeq	r0, r0, pc, ror #3
     2b8:	005d4701 	subseq	r4, sp, r1, lsl #14
     2bc:	021a0000 	andseq	r0, sl, #0
     2c0:	63080000 	movwvs	r0, #32768	; 0x8000
     2c4:	48480100 	stmdami	r8, {r8}^
     2c8:	2d000000 	stccs	0, cr0, [r0, #-0]
     2cc:	08000002 	stmdaeq	r0, {r1}
     2d0:	0067656e 	rsbeq	r6, r7, lr, ror #10
     2d4:	00484901 	subeq	r4, r8, r1, lsl #18
     2d8:	02790000 	rsbseq	r0, r9, #0
     2dc:	61080000 	mrsvs	r0, (UNDEF: 8)
     2e0:	0100796e 	tsteq	r0, lr, ror #18
     2e4:	00004849 	andeq	r4, r0, r9, asr #16
     2e8:	00029900 	andeq	r9, r2, r0, lsl #18
     2ec:	01d10900 	bicseq	r0, r1, r0, lsl #18
     2f0:	49010000 	stmdbmi	r1, {}	; <UNPREDICTABLE>
     2f4:	00000048 	andeq	r0, r0, r8, asr #32
     2f8:	000002da 	ldrdeq	r0, [r0], -sl
     2fc:	14040a00 	strne	r0, [r4], #-2560	; 0xa00
     300:	0b000001 	bleq	30c <_back_addr-0x14ffcf4>
     304:	00000119 	andeq	r0, r0, r9, lsl r1
     308:	62080102 	andvs	r0, r8, #-2147483648	; 0x80000000
     30c:	0a000000 	beq	314 <_back_addr-0x14ffcec>
     310:	00012604 	andeq	r2, r1, r4, lsl #12
     314:	19040a00 	stmdbne	r4, {r9, fp}
     318:	0c000001 	stceq	0, cr0, [r0], {1}
     31c:	00000025 	andeq	r0, r0, r5, lsr #32
     320:	00000137 	andeq	r0, r0, r7, lsr r1
     324:	f60e000d 			; <UNDEFINED> instruction: 0xf60e000d
     328:	02000001 	andeq	r0, r0, #1
     32c:	00014212 	andeq	r4, r1, r2, lsl r2
     330:	012c0b00 	teqeq	ip, r0, lsl #22
     334:	4e000000 	cdpmi	0, 0, cr0, cr0, cr0, {0}
     338:	04000000 	streq	r0, [r0], #-0
     33c:	0001cb00 	andeq	ip, r1, r0, lsl #22
     340:	a9010400 	stmdbge	r1, {sl}
     344:	01000000 	mrseq	r0, (UNDEF: 0)
     348:	000001fd 	strdeq	r0, [r0], -sp
     34c:	00000009 	andeq	r0, r0, r9
     350:	000001c4 	andeq	r0, r0, r4, asr #3
     354:	00003402 	andeq	r3, r0, r2, lsl #8
     358:	00002d00 	andeq	r2, r0, r0, lsl #26
     35c:	002d0300 	eoreq	r0, sp, r0, lsl #6
     360:	00ff0000 	rscseq	r0, pc, r0
     364:	05070404 	streq	r0, [r7, #-1028]	; 0x404
     368:	04000002 	streq	r0, [r0], #-2
     36c:	00590801 	subseq	r0, r9, r1, lsl #16
     370:	f6050000 			; <UNDEFINED> instruction: 0xf6050000
     374:	01000001 	tsteq	r0, r1
     378:	00004c20 	andeq	r4, r0, r0, lsr #24
     37c:	5c030500 	cfstr32pl	mvfx0, [r3], {-0}
     380:	0601502e 	streq	r5, [r1], -lr, lsr #32
     384:	0000001d 	andeq	r0, r0, sp, lsl r0
     388:	00069100 	andeq	r9, r6, r0, lsl #2
     38c:	10000400 	andne	r0, r0, r0, lsl #8
     390:	04000002 	streq	r0, [r0], #-2
     394:	0000a901 	andeq	sl, r0, r1, lsl #18
     398:	02a40100 	adceq	r0, r4, #0, 2
     39c:	045d0000 	ldrbeq	r0, [sp], #-0
     3a0:	02d00000 	sbcseq	r0, r0, #0
     3a4:	02b40150 	adcseq	r0, r4, #80, 2
     3a8:	01ec0000 	mvneq	r0, r0
     3ac:	01020000 	mrseq	r0, (UNDEF: 2)
     3b0:	00005908 	andeq	r5, r0, r8, lsl #18
     3b4:	06010200 	streq	r0, [r1], -r0, lsl #4
     3b8:	0000005b 	andeq	r0, r0, fp, asr r0
     3bc:	67070202 	strvs	r0, [r7, -r2, lsl #4]
     3c0:	02000000 	andeq	r0, r0, #0
     3c4:	009f0502 	addseq	r0, pc, r2, lsl #10
     3c8:	70030000 	andvc	r0, r3, r0
     3cc:	02000002 	andeq	r0, r0, #2
     3d0:	00004cb4 			; <UNDEFINED> instruction: 0x00004cb4
     3d4:	07040200 	streq	r0, [r4, -r0, lsl #4]
     3d8:	00000084 	andeq	r0, r0, r4, lsl #1
     3dc:	69050404 	stmdbvs	r5, {r2, sl}
     3e0:	0200746e 	andeq	r7, r0, #1845493760	; 0x6e000000
     3e4:	007a0708 	rsbseq	r0, sl, r8, lsl #14
     3e8:	08020000 	stmdaeq	r2, {}	; <UNPREDICTABLE>
     3ec:	00009105 	andeq	r9, r0, r5, lsl #2
     3f0:	07040200 	streq	r0, [r4, -r0, lsl #4]
     3f4:	0000007f 	andeq	r0, r0, pc, ror r0
     3f8:	000a7503 	andeq	r7, sl, r3, lsl #10
     3fc:	68e50200 	stmiavs	r5!, {r9}^
     400:	05000000 	streq	r0, [r0, #-0]
     404:	00008004 	andeq	r8, r0, r4
     408:	00850600 	addeq	r0, r5, r0, lsl #12
     40c:	01020000 	mrseq	r0, (UNDEF: 2)
     410:	00006208 	andeq	r6, r0, r8, lsl #4
     414:	03040700 	movweq	r0, #18176	; 0x4700
     418:	0000b38f 	andeq	fp, r0, pc, lsl #7
     41c:	021c0800 	andseq	r0, ip, #0, 16
     420:	08000000 	stmdaeq	r0, {}	; <UNPREDICTABLE>
     424:	000003a0 	andeq	r0, r0, r0, lsr #7
     428:	03f70801 	mvnseq	r0, #65536	; 0x10000
     42c:	08020000 	stmdaeq	r2, {}	; <UNPREDICTABLE>
     430:	0000022e 	andeq	r0, r0, lr, lsr #4
     434:	02b70803 	adcseq	r0, r7, #196608	; 0x30000
     438:	00040000 	andeq	r0, r4, r0
     43c:	00037503 	andeq	r7, r3, r3, lsl #10
     440:	8c950300 	ldchi	3, cr0, [r5], {0}
     444:	09000000 	stmdbeq	r0, {}	; <UNPREDICTABLE>
     448:	00000421 	andeq	r0, r0, r1, lsr #8
     44c:	00532601 	subseq	r2, r3, r1, lsl #12
     450:	02d00000 	sbcseq	r0, r0, #0
     454:	00080150 	andeq	r0, r8, r0, asr r1
     458:	9c010000 	stcls	0, cr0, [r1], {-0}
     45c:	0002dc0a 	andeq	sp, r2, sl, lsl #24
     460:	532b0100 	teqpl	fp, #0, 2
     464:	d8000000 	stmdale	r0, {}	; <UNPREDICTABLE>
     468:	10015002 	andne	r5, r1, r2
     46c:	01000000 	mrseq	r0, (UNDEF: 0)
     470:	0000fc9c 	muleq	r0, ip, ip
     474:	6d660b00 	vstmdbvs	r6!, {d16-d15}
     478:	2b010074 	blcs	40650 <_back_addr-0x14bf9b0>
     47c:	0000007a 	andeq	r0, r0, sl, ror r0
     480:	0c709102 	ldfeqp	f1, [r0], #-8
     484:	02770a00 	rsbseq	r0, r7, #0, 20
     488:	30010000 	andcc	r0, r1, r0
     48c:	0000015f 	andeq	r0, r0, pc, asr r1
     490:	015002e8 	cmpeq	r0, r8, ror #5
     494:	00000024 	andeq	r0, r0, r4, lsr #32
     498:	015f9c01 	cmpeq	pc, r1, lsl #24
     49c:	440d0000 	strmi	r0, [sp], #-0
     4a0:	01000002 	tsteq	r0, r2
     4a4:	00015f30 	andeq	r5, r1, r0, lsr pc
     4a8:	0e500100 	rdfeqs	f0, f0, f0
     4ac:	00637273 	rsbeq	r7, r3, r3, ror r2
     4b0:	01613001 	cmneq	r1, r1
     4b4:	02ed0000 	rsceq	r0, sp, #0
     4b8:	c90f0000 	stmdbgt	pc, {}	; <UNPREDICTABLE>
     4bc:	0100000c 	tsteq	r0, ip
     4c0:	00006f30 	andeq	r6, r0, r0, lsr pc
     4c4:	00030e00 	andeq	r0, r3, r0, lsl #28
     4c8:	03271000 	teqeq	r7, #0
     4cc:	31010000 	mrscc	r0, (UNDEF: 1)
     4d0:	00000168 	andeq	r0, r0, r8, ror #2
     4d4:	00000368 	andeq	r0, r0, r8, ror #6
     4d8:	00031510 	andeq	r1, r3, r0, lsl r5
     4dc:	68320100 	ldmdavs	r2!, {r8}
     4e0:	7b000001 	blvc	4ec <_back_addr-0x14ffb14>
     4e4:	00000003 	andeq	r0, r0, r3
     4e8:	04050411 	streq	r0, [r5], #-1041	; 0x411
     4ec:	00000167 	andeq	r0, r0, r7, ror #2
     4f0:	85040512 	strhi	r0, [r4, #-1298]	; 0x512
     4f4:	0a000000 	beq	4fc <_back_addr-0x14ffb04>
     4f8:	000002b0 			; <UNDEFINED> instruction: 0x000002b0
     4fc:	00534001 	subseq	r4, r3, r1
     500:	030c0000 	movweq	r0, #49152	; 0xc000
     504:	00580150 	subseq	r0, r8, r0, asr r1
     508:	9c010000 	stcls	0, cr0, [r1], {-0}
     50c:	000001e0 	andeq	r0, r0, r0, ror #3
     510:	0073630e 	rsbseq	r6, r3, lr, lsl #6
     514:	01614001 	cmneq	r1, r1
     518:	03a60000 			; <UNDEFINED> instruction: 0x03a60000
     51c:	630e0000 	movwvs	r0, #57344	; 0xe000
     520:	40010074 	andmi	r0, r1, r4, ror r0
     524:	00000161 	andeq	r0, r0, r1, ror #2
     528:	000003f8 	strdeq	r0, [r0], -r8
     52c:	000cc90f 	andeq	ip, ip, pc, lsl #18
     530:	6f400100 	svcvs	0x00400100
     534:	24000000 	strcs	r0, [r0], #-0
     538:	13000004 	movwne	r0, #4
     53c:	00317573 	eorseq	r7, r1, r3, ror r5
     540:	01e04201 	mvneq	r4, r1, lsl #4
     544:	04a80000 	strteq	r0, [r8], #0
     548:	73130000 	tstvc	r3, #0
     54c:	01003275 	tsteq	r0, r5, ror r2
     550:	0001e042 	andeq	lr, r1, r2, asr #32
     554:	00051c00 	andeq	r1, r5, r0, lsl #24
     558:	65721300 	ldrbvs	r1, [r2, #-768]!	; 0x300
     55c:	43010073 	movwmi	r0, #4211	; 0x1073
     560:	00000053 	andeq	r0, r0, r3, asr r0
     564:	00000590 	muleq	r0, r0, r5
     568:	e6040500 	str	r0, [r4], -r0, lsl #10
     56c:	06000001 	streq	r0, [r0], -r1
     570:	00000025 	andeq	r0, r0, r5, lsr #32
     574:	00028c0a 	andeq	r8, r2, sl, lsl #24
     578:	534b0100 	movtpl	r0, #45312	; 0xb100
     57c:	64000000 	strvs	r0, [r0], #-0
     580:	d0015003 	andle	r5, r1, r3
     584:	01000001 	tsteq	r0, r1
     588:	0004489c 	muleq	r4, ip, r8
     58c:	04421400 	strbeq	r1, [r2], #-1024	; 0x400
     590:	4d010000 	stcmi	0, cr0, [r1, #-0]
     594:	00000041 	andeq	r0, r0, r1, asr #32
     598:	00039314 	andeq	r9, r3, r4, lsl r3
     59c:	414e0100 	mrsmi	r0, (UNDEF: 94)
     5a0:	14000000 	strne	r0, [r0], #-0
     5a4:	000004aa 	andeq	r0, r0, sl, lsr #9
     5a8:	00414f01 	subeq	r4, r1, r1, lsl #30
     5ac:	38140000 	ldmdacc	r4, {}	; <UNPREDICTABLE>
     5b0:	01000003 	tsteq	r0, r3
     5b4:	00004150 	andeq	r4, r0, r0, asr r1
     5b8:	03461400 	movteq	r1, #25600	; 0x6400
     5bc:	51010000 	mrspl	r0, (UNDEF: 1)
     5c0:	00000041 	andeq	r0, r0, r1, asr #32
     5c4:	0002f214 	andeq	pc, r2, r4, lsl r2	; <UNPREDICTABLE>
     5c8:	41520100 	cmpmi	r2, r0, lsl #2
     5cc:	14000000 	strne	r0, [r0], #-0
     5d0:	000002e3 	andeq	r0, r0, r3, ror #5
     5d4:	00415301 	subeq	r5, r1, r1, lsl #6
     5d8:	72130000 	andsvc	r0, r3, #0
     5dc:	01007365 	tsteq	r0, r5, ror #6
     5e0:	00005354 	andeq	r5, r0, r4, asr r3
     5e4:	00061f00 	andeq	r1, r6, r0, lsl #30
     5e8:	030e1500 	movweq	r1, #58624	; 0xe500
     5ec:	56010000 	strpl	r0, [r1], -r0
     5f0:	00000053 	andeq	r0, r0, r3, asr r0
     5f4:	00000271 	andeq	r0, r0, r1, ror r2
     5f8:	e115000c 	tst	r5, ip
     5fc:	01000003 	tsteq	r0, r3
     600:	0000535e 	andeq	r5, r0, lr, asr r3
     604:	00028200 	andeq	r8, r2, r0, lsl #4
     608:	15000c00 	strne	r0, [r0, #-3072]	; 0xc00
     60c:	0000027e 	andeq	r0, r0, lr, ror r2
     610:	00536501 	subseq	r6, r3, r1, lsl #10
     614:	02930000 	addseq	r0, r3, #0
     618:	000c0000 	andeq	r0, ip, r0
     61c:	0003bc15 	andeq	fp, r3, r5, lsl ip
     620:	53870100 	orrpl	r0, r7, #0, 2
     624:	a4000000 	strge	r0, [r0], #-0
     628:	0c000002 	stceq	0, cr0, [r0], {2}
     62c:	03781600 	cmneq	r8, #0, 12
     630:	06010150 			; <UNDEFINED> instruction: 0x06010150
     634:	02bb0000 	adcseq	r0, fp, #0
     638:	01170000 	tsteq	r7, r0
     63c:	5c030550 	cfstr32pl	mvfx0, [r3], {80}	; 0x50
     640:	0001502f 	andeq	r5, r1, pc, lsr #32
     644:	50038416 	andpl	r8, r3, r6, lsl r4
     648:	00060101 	andeq	r0, r6, r1, lsl #2
     64c:	0002d200 	andeq	sp, r2, r0, lsl #4
     650:	50011700 	andpl	r1, r1, r0, lsl #14
     654:	2f800305 	svccs	0x00800305
     658:	16000150 			; <UNDEFINED> instruction: 0x16000150
     65c:	01500390 			; <UNDEFINED> instruction: 0x01500390
     660:	00000601 	andeq	r0, r0, r1, lsl #12
     664:	000002e9 	andeq	r0, r0, r9, ror #5
     668:	05500117 	ldrbeq	r0, [r0, #-279]	; 0x117
     66c:	502fa003 	eorpl	sl, pc, r3
     670:	94180001 	ldrls	r0, [r8], #-1
     674:	12015003 	andne	r5, r1, #3
     678:	18000006 	stmdane	r0, {r1, r2}
     67c:	015003a0 	cmpeq	r0, r0, lsr #7
     680:	00000623 	andeq	r0, r0, r3, lsr #12
     684:	5003bc16 	andpl	fp, r3, r6, lsl ip
     688:	00062a01 	andeq	r2, r6, r1, lsl #20
     68c:	00030f00 	andeq	r0, r3, r0, lsl #30
     690:	50011700 	andpl	r1, r1, r0, lsl #14
     694:	00007402 	andeq	r7, r0, r2, lsl #8
     698:	5003c816 	andpl	ip, r3, r6, lsl r8
     69c:	00060101 	andeq	r0, r6, r1, lsl #2
     6a0:	00032600 	andeq	r2, r3, r0, lsl #12
     6a4:	50011700 	andpl	r1, r1, r0, lsl #14
     6a8:	2fbc0305 	svccs	0x00bc0305
     6ac:	16000150 			; <UNDEFINED> instruction: 0x16000150
     6b0:	015003fc 	ldrsheq	r0, [r0, #-60]	; 0xffffffc4
     6b4:	0000063b 	andeq	r0, r0, fp, lsr r6
     6b8:	0000034c 	andeq	r0, r0, ip, asr #6
     6bc:	01500117 	cmpeq	r0, r7, lsl r1
     6c0:	51011731 	tstpl	r1, r1, lsr r7
     6c4:	17007502 	strne	r7, [r0, -r2, lsl #10]
     6c8:	74025301 	strvc	r5, [r2], #-769	; 0x301
     6cc:	7d021700 	stcvc	7, cr1, [r2, #-0]
     6d0:	00740200 	rsbseq	r0, r4, r0, lsl #4
     6d4:	04041800 	streq	r1, [r4], #-2048	; 0x800
     6d8:	06230150 			; <UNDEFINED> instruction: 0x06230150
     6dc:	30160000 	andscc	r0, r6, r0
     6e0:	01015004 	tsteq	r1, r4
     6e4:	6c000006 	stcvs	0, cr0, [r0], {6}
     6e8:	17000003 	strne	r0, [r0, -r3]
     6ec:	03055001 	movweq	r5, #20481	; 0x5001
     6f0:	01502fc8 	cmpeq	r0, r8, asr #31
     6f4:	046c1600 	strbteq	r1, [ip], #-1536	; 0x600
     6f8:	063b0150 			; <UNDEFINED> instruction: 0x063b0150
     6fc:	03850000 	orreq	r0, r5, #0
     700:	01170000 	tsteq	r7, r0
     704:	17320150 			; <UNDEFINED> instruction: 0x17320150
     708:	75025101 	strvc	r5, [r2, #-257]	; 0x101
     70c:	74180000 	ldrvc	r0, [r8], #-0
     710:	23015004 	movwcs	r5, #4100	; 0x1004
     714:	16000006 	strne	r0, [r0], -r6
     718:	015004a0 	cmpeq	r0, r0, lsr #9
     71c:	00000601 	andeq	r0, r0, r1, lsl #12
     720:	000003a5 	andeq	r0, r0, r5, lsr #7
     724:	05500117 	ldrbeq	r0, [r0, #-279]	; 0x117
     728:	502fd403 	eorpl	sp, pc, r3, lsl #8
     72c:	a4180001 	ldrge	r0, [r8], #-1
     730:	6f015004 	svcvs	0x00015004
     734:	18000006 	stmdane	r0, {r1, r2}
     738:	015004a8 	cmpeq	r0, r8, lsr #9
     73c:	00000623 	andeq	r0, r0, r3, lsr #12
     740:	5004c416 	andpl	ip, r4, r6, lsl r4
     744:	00060101 	andeq	r0, r6, r1, lsl #2
     748:	0003ce00 	andeq	ip, r3, r0, lsl #28
     74c:	50011700 	andpl	r1, r1, r0, lsl #14
     750:	30000305 	andcc	r0, r0, r5, lsl #6
     754:	16000150 			; <UNDEFINED> instruction: 0x16000150
     758:	015004e0 	cmpeq	r0, r0, ror #9
     75c:	0000063b 	andeq	r0, r0, fp, lsr r6
     760:	000003f4 	strdeq	r0, [r0], -r4
     764:	02500117 	subseq	r0, r0, #-1073741819	; 0xc0000005
     768:	01170074 	tsteq	r7, r4, ror r0
     76c:	00770251 	rsbseq	r0, r7, r1, asr r2
     770:	02520117 	subseq	r0, r2, #-1073741819	; 0xc0000005
     774:	01170074 	tsteq	r7, r4, ror r0
     778:	00740253 	rsbseq	r0, r4, r3, asr r2
     77c:	04e81800 	strbteq	r1, [r8], #2048	; 0x800
     780:	06230150 			; <UNDEFINED> instruction: 0x06230150
     784:	f4180000 			; <UNDEFINED> instruction: 0xf4180000
     788:	23015004 	movwcs	r5, #4100	; 0x1004
     78c:	16000006 	strne	r0, [r0], -r6
     790:	01500508 	cmpeq	r0, r8, lsl #10
     794:	00000601 	andeq	r0, r0, r1, lsl #12
     798:	0000041d 	andeq	r0, r0, sp, lsl r4
     79c:	05500117 	ldrbeq	r0, [r0, #-279]	; 0x117
     7a0:	502fac03 	eorpl	sl, pc, r3, lsl #24
     7a4:	20160001 	andscs	r0, r6, r1
     7a8:	01015005 	tsteq	r1, r5
     7ac:	34000006 	strcc	r0, [r0], #-6
     7b0:	17000004 	strne	r0, [r0, -r4]
     7b4:	03055001 	movweq	r5, #20481	; 0x5001
     7b8:	01502fe0 	cmpeq	r0, r0, ror #31
     7bc:	05301900 	ldreq	r1, [r0, #-2304]!	; 0x900
     7c0:	06010150 			; <UNDEFINED> instruction: 0x06010150
     7c4:	01170000 	tsteq	r7, r0
     7c8:	10030550 	andne	r0, r3, r0, asr r5
     7cc:	00015030 	andeq	r5, r1, r0, lsr r0
     7d0:	04530a00 	ldrbeq	r0, [r3], #-2560	; 0xa00
     7d4:	ba010000 	blt	407dc <_back_addr-0x14bf824>
     7d8:	00000053 	andeq	r0, r0, r3, asr r0
     7dc:	01500534 	cmpeq	r0, r4, lsr r5
     7e0:	00000050 	andeq	r0, r0, r0, asr r0
     7e4:	04eb9c01 	strbteq	r9, [fp], #3073	; 0xc01
     7e8:	540f0000 	strpl	r0, [pc], #-0	; 7f0 <_back_addr-0x14ff810>
     7ec:	01000003 	tsteq	r0, r3
     7f0:	000053ba 			; <UNDEFINED> instruction: 0x000053ba
     7f4:	00069a00 	andeq	r9, r6, r0, lsl #20
     7f8:	031a0f00 	tsteq	sl, #0, 30
     7fc:	ba010000 	blt	40804 <_back_addr-0x14bf7fc>
     800:	000004eb 	andeq	r0, r0, fp, ror #9
     804:	000006bb 			; <UNDEFINED> instruction: 0x000006bb
     808:	74657213 	strbtvc	r7, [r5], #-531	; 0x213
     80c:	53bc0100 			; <UNDEFINED> instruction: 0x53bc0100
     810:	dc000000 	stcle	0, cr0, [r0], {-0}
     814:	1a000006 	bne	834 <_back_addr-0x14ff7cc>
     818:	00000259 	andeq	r0, r0, r9, asr r2
     81c:	004cbd01 	subeq	fp, ip, r1, lsl #26
     820:	59150000 	ldmdbpl	r5, {}	; <UNPREDICTABLE>
     824:	01000003 	tsteq	r0, r3
     828:	000053c2 	andeq	r5, r0, r2, asr #7
     82c:	0004aa00 	andeq	sl, r4, r0, lsl #20
     830:	15000c00 	strne	r0, [r0, #-3072]	; 0xc00
     834:	0000030e 	andeq	r0, r0, lr, lsl #6
     838:	00535601 	subseq	r5, r3, r1, lsl #12
     83c:	04bb0000 	ldrteq	r0, [fp], #0
     840:	000c0000 	andeq	r0, ip, r0
     844:	50055818 	andpl	r5, r5, r8, lsl r8
     848:	00068001 	andeq	r8, r6, r1
     84c:	05601600 	strbeq	r1, [r0, #-1536]!	; 0x600
     850:	06870150 	pkhtbeq	r0, r7, r0, asr #2
     854:	04d80000 	ldrbeq	r0, [r8], #0
     858:	01170000 	tsteq	r7, r0
     85c:	00740250 	rsbseq	r0, r4, r0, asr r2
     860:	05641800 	strbeq	r1, [r4, #-2048]!	; 0x800
     864:	01eb0150 	mvneq	r0, r0, asr r1
     868:	7c180000 	ldcvc	0, cr0, [r8], {-0}
     86c:	01015005 	tsteq	r1, r5
     870:	00000006 	andeq	r0, r0, r6
     874:	04f10405 	ldrbteq	r0, [r1], #1029	; 0x405
     878:	68060000 	stmdavs	r6, {}	; <UNPREDICTABLE>
     87c:	1b000001 	blne	888 <_back_addr-0x14ff778>
     880:	00000025 	andeq	r0, r0, r5, lsr #32
     884:	00000501 	andeq	r0, r0, r1, lsl #10
     888:	2c1a001c 	ldccs	0, cr0, [sl], {28}
     88c:	01000003 	tsteq	r0, r3
     890:	0004f607 	andeq	pc, r4, r7, lsl #12
     894:	02491a00 	subeq	r1, r9, #0, 20
     898:	08010000 	stmdaeq	r1, {}	; <UNPREDICTABLE>
     89c:	00000025 	andeq	r0, r0, r5, lsr #32
     8a0:	00031f1a 	andeq	r1, r3, sl, lsl pc
     8a4:	f6090100 			; <UNDEFINED> instruction: 0xf6090100
     8a8:	1a000004 	bne	8c0 <_back_addr-0x14ff740>
     8ac:	00000387 	andeq	r0, r0, r7, lsl #7
     8b0:	00250a01 	eoreq	r0, r5, r1, lsl #20
     8b4:	271a0000 	ldrcs	r0, [sl, -r0]
     8b8:	01000004 	tsteq	r0, r4
     8bc:	0004f60b 	andeq	pc, r4, fp, lsl #12
     8c0:	03681a00 	cmneq	r8, #0, 20
     8c4:	0c010000 	stceq	0, cr0, [r1], {-0}
     8c8:	00000025 	andeq	r0, r0, r5, lsr #32
     8cc:	0004301a 	andeq	r3, r4, sl, lsl r0
     8d0:	f60d0100 			; <UNDEFINED> instruction: 0xf60d0100
     8d4:	1a000004 	bne	8ec <_back_addr-0x14ff714>
     8d8:	0000049d 	muleq	r0, sp, r4
     8dc:	00250e01 	eoreq	r0, r5, r1, lsl #28
     8e0:	391a0000 	ldmdbcc	sl, {}	; <UNPREDICTABLE>
     8e4:	01000004 	tsteq	r0, r4
     8e8:	0004f60f 	andeq	pc, r4, pc, lsl #12
     8ec:	02971a00 	addseq	r1, r7, #0, 20
     8f0:	10010000 	andne	r0, r1, r0
     8f4:	00000025 	andeq	r0, r0, r5, lsr #32
     8f8:	0003ee1a 	andeq	lr, r3, sl, lsl lr
     8fc:	f6110100 			; <UNDEFINED> instruction: 0xf6110100
     900:	1a000004 	bne	918 <_back_addr-0x14ff6e8>
     904:	00000414 	andeq	r0, r0, r4, lsl r4
     908:	00251201 	eoreq	r1, r5, r1, lsl #4
     90c:	0a1a0000 	beq	680914 <_back_addr-0xe7f6ec>
     910:	01000004 	tsteq	r0, r4
     914:	0004f613 	andeq	pc, r4, r3, lsl r6	; <UNPREDICTABLE>
     918:	02ce1a00 	sbceq	r1, lr, #0, 20
     91c:	14010000 	strne	r0, [r1], #-0
     920:	00000025 	andeq	r0, r0, r5, lsr #32
     924:	0000251b 	andeq	r2, r0, fp, lsl r5
     928:	0005ab00 	andeq	sl, r5, r0, lsl #22
     92c:	05ab1d00 	streq	r1, [fp, #3328]!	; 0xd00
     930:	003f0000 	eorseq	r0, pc, r0
     934:	05070402 	streq	r0, [r7, #-1026]	; 0x402
     938:	1e000002 	cdpne	0, 0, cr0, cr0, cr2, {0}
     93c:	000003d2 	ldrdeq	r0, [r0], -r2
     940:	059b1801 	ldreq	r1, [fp, #2049]	; 0x801
     944:	03050000 	movweq	r0, #20480	; 0x5000
     948:	01513af8 	ldrsheq	r3, [r1, #-168]	; 0xffffff58
     94c:	0000251b 	andeq	r2, r0, fp, lsl r5
     950:	0005d400 	andeq	sp, r5, r0, lsl #8
     954:	05ab1f00 	streq	r1, [fp, #3840]!	; 0xf00
     958:	03ff0000 	mvnseq	r0, #0
     95c:	02681e00 	rsbeq	r1, r8, #0, 28
     960:	19010000 	stmdbne	r1, {}	; <UNPREDICTABLE>
     964:	000005c3 	andeq	r0, r0, r3, asr #11
     968:	36f80305 	ldrbtcc	r0, [r8], r5, lsl #6
     96c:	001e0151 	andseq	r0, lr, r1, asr r1
     970:	01000003 	tsteq	r0, r3
     974:	0000251a 	andeq	r2, r0, sl, lsl r5
     978:	f0030500 			; <UNDEFINED> instruction: 0xf0030500
     97c:	1a015136 	bne	54e5c <_back_addr-0x14ab1a4>
     980:	00000259 	andeq	r0, r0, r9, asr r2
     984:	004cbd01 	subeq	fp, ip, r1, lsl #26
     988:	0e150000 	cdpeq	0, 1, cr0, cr5, cr0, {0}
     98c:	01000003 	tsteq	r0, r3
     990:	00005356 	andeq	r5, r0, r6, asr r3
     994:	00061200 	andeq	r1, r6, r0, lsl #4
     998:	15000c00 	strne	r0, [r0, #-3072]	; 0xc00
     99c:	000003e1 	andeq	r0, r0, r1, ror #7
     9a0:	00535e01 	subseq	r5, r3, r1, lsl #28
     9a4:	06230000 	strteq	r0, [r3], -r0
     9a8:	000c0000 	andeq	r0, ip, r0
     9ac:	0003dc20 	andeq	sp, r3, r0, lsr #24
     9b0:	15730300 	ldrbne	r0, [r3, #-768]!	; 0x300
     9b4:	0000027e 	andeq	r0, r0, lr, ror r2
     9b8:	00536501 	subseq	r6, r3, r1, lsl #10
     9bc:	063b0000 	ldrteq	r0, [fp], -r0
     9c0:	000c0000 	andeq	r0, ip, r0
     9c4:	00020e21 	andeq	r0, r2, r1, lsr #28
     9c8:	53210100 	teqpl	r1, #0, 2
     9cc:	69000000 	stmdbvs	r0, {}	; <UNPREDICTABLE>
     9d0:	22000006 	andcs	r0, r0, #6
     9d4:	000000b3 	strheq	r0, [r0], -r3
     9d8:	00066922 	andeq	r6, r6, r2, lsr #18
     9dc:	06692200 	strbteq	r2, [r9], -r0, lsl #4
     9e0:	69220000 	stmdbvs	r2!, {}	; <UNPREDICTABLE>
     9e4:	22000006 	andcs	r0, r0, #6
     9e8:	00000669 	andeq	r0, r0, r9, ror #12
     9ec:	00004c22 	andeq	r4, r0, r2, lsr #24
     9f0:	04050000 	streq	r0, [r5], #-0
     9f4:	00000025 	andeq	r0, r0, r5, lsr #32
     9f8:	0003bc15 	andeq	fp, r3, r5, lsl ip
     9fc:	53870100 	orrpl	r0, r7, #0, 2
     a00:	80000000 	andhi	r0, r0, r0
     a04:	0c000006 	stceq	0, cr0, [r0], {6}
     a08:	03b22000 			; <UNDEFINED> instruction: 0x03b22000
     a0c:	74030000 	strvc	r0, [r3], #-0
     a10:	00035923 	andeq	r5, r3, r3, lsr #18
     a14:	53c20100 	bicpl	r0, r2, #0, 2
     a18:	0c000000 	stceq	0, cr0, [r0], {-0}
     a1c:	14840000 	strne	r0, [r4], #0
     a20:	00040000 	andeq	r0, r4, r0
     a24:	000003db 	ldrdeq	r0, [r0], -fp
     a28:	00a90104 	adceq	r0, r9, r4, lsl #2
     a2c:	b0010000 	andlt	r0, r1, r0
     a30:	5d000006 	stcpl	0, cr0, [r0, #-24]	; 0xffffffe8
     a34:	84000004 	strhi	r0, [r0], #-4
     a38:	8c015005 	stchi	0, cr5, [r1], {5}
     a3c:	52000008 	andpl	r0, r0, #8
     a40:	02000003 	andeq	r0, r0, #3
     a44:	00840704 	addeq	r0, r4, r4, lsl #14
     a48:	04030000 	streq	r0, [r3], #-0
     a4c:	00470f03 	subeq	r0, r7, r3, lsl #30
     a50:	a1040000 	mrsge	r0, (UNDEF: 4)
     a54:	00000007 	andeq	r0, r0, r7
     a58:	00077704 	andeq	r7, r7, r4, lsl #14
     a5c:	82040100 	andhi	r0, r4, #0, 2
     a60:	02000007 	andeq	r0, r0, #7
     a64:	04d10500 	ldrbeq	r0, [r1], #1280	; 0x500
     a68:	13030000 	movwne	r0, #12288	; 0x3000
     a6c:	0000002c 	andeq	r0, r0, ip, lsr #32
     a70:	62080102 	andvs	r0, r8, #-2147483648	; 0x80000000
     a74:	06000000 	streq	r0, [r0], -r0
     a78:	6e690504 	cdpvs	5, 6, cr0, cr9, cr4, {0}
     a7c:	62070074 	andvs	r0, r7, #116	; 0x74
     a80:	04000007 	streq	r0, [r0], #-7
     a84:	007f7f08 	rsbseq	r7, pc, r8, lsl #30
     a88:	40040000 	andmi	r0, r4, r0
     a8c:	00000005 	andeq	r0, r0, r5
     a90:	00073104 	andeq	r3, r7, r4, lsl #2
     a94:	32040100 	andcc	r0, r4, #0, 2
     a98:	7f000008 	svcvc	0x00000008
     a9c:	07040200 	streq	r0, [r4, -r0, lsl #4]
     aa0:	00000205 	andeq	r0, r0, r5, lsl #4
     aa4:	7f070402 	svcvc	0x00070402
     aa8:	02000000 	andeq	r0, r0, #0
     aac:	00670702 	rsbeq	r0, r7, r2, lsl #14
     ab0:	04020000 	streq	r0, [r2], #-0
     ab4:	00009605 	andeq	r9, r0, r5, lsl #12
     ab8:	05080200 	streq	r0, [r8, #-512]	; 0x200
     abc:	00000091 	muleq	r0, r1, r0
     ac0:	5b060102 	blpl	180ed0 <_back_addr-0x137f130>
     ac4:	05000000 	streq	r0, [r0, #-0]
     ac8:	000005c9 	andeq	r0, r0, r9, asr #11
     acc:	00b40c04 	adcseq	r0, r4, r4, lsl #24
     ad0:	01020000 	mrseq	r0, (UNDEF: 2)
     ad4:	00005908 	andeq	r5, r0, r8, lsl #18
     ad8:	05020200 	streq	r0, [r2, #-512]	; 0x200
     adc:	0000009f 	muleq	r0, pc, r0	; <UNPREDICTABLE>
     ae0:	0004e905 	andeq	lr, r4, r5, lsl #18
     ae4:	8d0f0400 	cfstrshi	mvf0, [pc, #-0]	; aec <_back_addr-0x14ff514>
     ae8:	05000000 	streq	r0, [r0, #-0]
     aec:	000005e7 	andeq	r0, r0, r7, ror #11
     af0:	00251204 	eoreq	r1, r5, r4, lsl #4
     af4:	08020000 	stmdaeq	r2, {}	; <UNPREDICTABLE>
     af8:	00007a07 	andeq	r7, r0, r7, lsl #20
     afc:	06f90500 	ldrbteq	r0, [r9], r0, lsl #10
     b00:	5c050000 	stcpl	0, cr0, [r5], {-0}
     b04:	00000025 	andeq	r0, r0, r5, lsr #32
     b08:	0004b805 	andeq	fp, r4, r5, lsl #16
     b0c:	865d0500 	ldrbhi	r0, [sp], -r0, lsl #10
     b10:	05000000 	streq	r0, [r0, #-0]
     b14:	000007f9 	strdeq	r0, [r0], -r9
     b18:	00a96b05 	adceq	r6, r9, r5, lsl #22
     b1c:	50050000 	andpl	r0, r5, r0
     b20:	05000005 	streq	r0, [r0, #-5]
     b24:	0000c26c 	andeq	ip, r0, ip, ror #4
     b28:	07590500 	ldrbeq	r0, [r9, -r0, lsl #10]
     b2c:	6d050000 	stcvs	0, cr0, [r5, #-0]
     b30:	000000cd 	andeq	r0, r0, sp, asr #1
     b34:	0007f305 	andeq	pc, r7, r5, lsl #6
     b38:	b40b0100 	strlt	r0, [fp], #-256	; 0x100
     b3c:	08000000 	stmdaeq	r0, {}	; <UNPREDICTABLE>
     b40:	00000751 	andeq	r0, r0, r1, asr r7
     b44:	00254402 	eoreq	r4, r5, r2, lsl #8
     b48:	3d030000 	stccc	0, cr0, [r3, #-0]
     b4c:	09000001 	stmdbeq	r0, {r0}
     b50:	000009f9 	strdeq	r0, [r0], -r9
     b54:	00254402 	eoreq	r4, r5, r2, lsl #8
     b58:	0a000000 	beq	b60 <_back_addr-0x14ff4a0>
     b5c:	000004be 			; <UNDEFINED> instruction: 0x000004be
     b60:	60035f02 	andvs	r5, r3, r2, lsl #30
     b64:	09000001 	stmdbeq	r0, {r0}
     b68:	000009f9 	strdeq	r0, [r0], -r9
     b6c:	00255f02 	eoreq	r5, r5, r2, lsl #30
     b70:	760b0000 	strvc	r0, [fp], -r0
     b74:	02006c61 	andeq	r6, r0, #24832	; 0x6100
     b78:	0000255f 	andeq	r2, r0, pc, asr r5
     b7c:	ef0c0000 	svc	0x000c0000
     b80:	01000004 	tsteq	r0, r4
     b84:	00590186 	subseq	r0, r9, r6, lsl #3
     b88:	c8010000 	stmdagt	r1, {}	; <UNPREDICTABLE>
     b8c:	0d000001 	stceq	0, cr0, [r0, #-4]
     b90:	000004fd 	strdeq	r0, [r0], -sp
     b94:	b4018601 	strlt	r8, [r1], #-1537	; 0x601
     b98:	0e000000 	cdpeq	0, 0, cr0, cr0, cr0, {0}
     b9c:	0000085e 	andeq	r0, r0, lr, asr r8
     ba0:	0059df01 	subseq	sp, r9, r1, lsl #30
     ba4:	018e0000 	orreq	r0, lr, r0
     ba8:	000f0000 	andeq	r0, pc, r0
     bac:	0001a110 	andeq	sl, r1, r0, lsl r1
     bb0:	02dc1100 	sbcseq	r1, ip, #0, 2
     bb4:	84010000 	strhi	r0, [r1], #-0
     bb8:	00000059 	andeq	r0, r0, r9, asr r0
     bbc:	1000000f 	andne	r0, r0, pc
     bc0:	000001b6 			; <UNDEFINED> instruction: 0x000001b6
     bc4:	00063812 	andeq	r3, r6, r2, lsl r8
     bc8:	59d30100 	ldmibpl	r3, {r8}^
     bcc:	00000000 	andeq	r0, r0, r0
     bd0:	00000f0f 	andeq	r0, r0, pc, lsl #30
     bd4:	06381213 			; <UNDEFINED> instruction: 0x06381213
     bd8:	d3010000 	movwle	r0, #4096	; 0x1000
     bdc:	00000059 	andeq	r0, r0, r9, asr r0
     be0:	000f0f00 	andeq	r0, pc, r0, lsl #30
     be4:	8d0c0000 	stchi	0, cr0, [ip, #-0]
     be8:	01000007 	tsteq	r0, r7
     bec:	005901a3 	subseq	r0, r9, r3, lsr #3
     bf0:	30010000 	andcc	r0, r1, r0
     bf4:	0d000002 	stceq	0, cr0, [r0, #-8]
     bf8:	0000079b 	muleq	r0, fp, r7
     bfc:	b401a301 	strlt	sl, [r1], #-769	; 0x301
     c00:	0e000000 	cdpeq	0, 0, cr0, cr0, cr0, {0}
     c04:	0000085e 	andeq	r0, r0, lr, asr r8
     c08:	0059df01 	subseq	sp, r9, r1, lsl #30
     c0c:	01f60000 	mvnseq	r0, r0
     c10:	000f0000 	andeq	r0, pc, r0
     c14:	00020910 	andeq	r0, r2, r0, lsl r9
     c18:	02dc1100 	sbcseq	r1, ip, #0, 2
     c1c:	84010000 	strhi	r0, [r1], #-0
     c20:	00000059 	andeq	r0, r0, r9, asr r0
     c24:	1000000f 	andne	r0, r0, pc
     c28:	0000021e 	andeq	r0, r0, lr, lsl r2
     c2c:	00063812 	andeq	r3, r6, r2, lsl r8
     c30:	59d30100 	ldmibpl	r3, {r8}^
     c34:	00000000 	andeq	r0, r0, r0
     c38:	00000f0f 	andeq	r0, r0, pc, lsl #30
     c3c:	06381213 			; <UNDEFINED> instruction: 0x06381213
     c40:	d3010000 	movwle	r0, #4096	; 0x1000
     c44:	00000059 	andeq	r0, r0, r9, asr r0
     c48:	000f0f00 	andeq	r0, pc, r0, lsl #30
     c4c:	59140000 	ldmdbpl	r4, {}	; <UNPREDICTABLE>
     c50:	01000005 	tsteq	r0, r5
     c54:	00005974 	andeq	r5, r0, r4, ror r9
     c58:	50058400 	andpl	r8, r5, r0, lsl #8
     c5c:	0001dc01 	andeq	sp, r1, r1, lsl #24
     c60:	ab9c0100 	blge	fe701068 <__bss_end__+0xfd1ed528>
     c64:	15000003 	strne	r0, [r0, #-3]
     c68:	000009f9 	strdeq	r0, [r0], -r9
     c6c:	00ea7401 	rsceq	r7, sl, r1, lsl #8
     c70:	06fc0000 	ldrbteq	r0, [ip], r0
     c74:	0f150000 	svceq	0x00150000
     c78:	01000004 	tsteq	r0, r4
     c7c:	0003ab74 	andeq	sl, r3, r4, ror fp
     c80:	00075600 	andeq	r5, r7, r0, lsl #12
     c84:	06131500 	ldreq	r1, [r3], -r0, lsl #10
     c88:	74010000 	strvc	r0, [r1], #-0
     c8c:	000000df 	ldrdeq	r0, [r0], -pc	; <UNPREDICTABLE>
     c90:	0000078e 	andeq	r0, r0, lr, lsl #15
     c94:	0005ff15 	andeq	pc, r5, r5, lsl pc	; <UNPREDICTABLE>
     c98:	df740100 	svcle	0x00740100
     c9c:	af000000 	svcge	0x00000000
     ca0:	15000007 	strne	r0, [r0, #-7]
     ca4:	00000cc9 	andeq	r0, r0, r9, asr #25
     ca8:	00df7401 	sbcseq	r7, pc, r1, lsl #8
     cac:	07cd0000 	strbeq	r0, [sp, r0]
     cb0:	1c160000 	ldcne	0, cr0, [r6], {-0}
     cb4:	01000006 	tsteq	r0, r6
     cb8:	0000df74 	andeq	sp, r0, r4, ror pc
     cbc:	04910200 	ldreq	r0, [r1], #512	; 0x200
     cc0:	00057515 	andeq	r7, r5, r5, lsl r5
     cc4:	df740100 	svcle	0x00740100
     cc8:	02000000 	andeq	r0, r0, #0
     ccc:	17000008 	strne	r0, [r0, -r8]
     cd0:	0000084b 	andeq	r0, r0, fp, asr #16
     cd4:	dc770144 	ldflee	f0, [r7], #-272	; 0xfffffef0
     cd8:	18000002 	stmdane	r0, {r1}
     cdc:	01006975 	tsteq	r0, r5, ror r9
     ce0:	0003ad78 	andeq	sl, r3, r8, ror sp
     ce4:	73751800 	cmnvc	r5, #0, 16
     ce8:	bd790100 	ldflte	f0, [r9, #-0]
     cec:	18000003 	stmdane	r0, {r0, r1}
     cf0:	01006375 	tsteq	r0, r5, ror r3
     cf4:	0003cd7a 	andeq	ip, r3, sl, ror sp
     cf8:	6c190000 	ldcvs	0, cr0, [r9], {-0}
     cfc:	7b010062 	blvc	40e8c <_back_addr-0x14bf174>
     d00:	000002b1 			; <UNDEFINED> instruction: 0x000002b1
     d04:	7f949103 	svcvc	0x00949103
     d08:	0100691a 	tsteq	r0, sl, lsl r9
     d0c:	0000597c 	andeq	r5, r0, ip, ror r9
     d10:	00087d00 	andeq	r7, r8, r0, lsl #26
     d14:	00001b00 	andeq	r1, r0, r0, lsl #22
     d18:	dc0e0000 	stcle	0, cr0, [lr], {-0}
     d1c:	01000002 	tsteq	r0, r2
     d20:	00005984 	andeq	r5, r0, r4, lsl #19
     d24:	00030d00 	andeq	r0, r3, r0, lsl #26
     d28:	0e000f00 	cdpeq	15, 0, cr0, cr0, cr0, {0}
     d2c:	00000421 	andeq	r0, r0, r1, lsr #8
     d30:	0059aa01 	subseq	sl, r9, r1, lsl #20
     d34:	031e0000 	tsteq	lr, #0
     d38:	000f0000 	andeq	r0, pc, r0
     d3c:	0000201c 	andeq	r2, r0, ip, lsl r0
     d40:	00035100 	andeq	r5, r3, r0, lsl #2
     d44:	00781a00 	rsbseq	r1, r8, r0, lsl #20
     d48:	010b8c01 	tsteq	fp, r1, lsl #24
     d4c:	08ea0000 	stmiaeq	sl!, {}^	; <UNPREDICTABLE>
     d50:	141d0000 	ldrne	r0, [sp], #-0
     d54:	11015006 	tstne	r1, r6
     d58:	1e000014 	mcrne	0, 0, r0, cr0, cr4, {0}
     d5c:	01500674 	cmpeq	r0, r4, ror r6
     d60:	00001411 	andeq	r1, r0, r1, lsl r4
     d64:	0550011f 	ldrbeq	r0, [r0, #-287]	; 0x11f
     d68:	50307c03 	eorspl	r7, r0, r3, lsl #24
     d6c:	20000001 	andcs	r0, r0, r1
     d70:	015005d4 	ldrsbeq	r0, [r0, #-84]	; 0xffffffac
     d74:	00001411 	andeq	r1, r0, r1, lsl r4
     d78:	0000036f 	andeq	r0, r0, pc, ror #6
     d7c:	0550011f 	ldrbeq	r0, [r0, #-287]	; 0x11f
     d80:	50306803 	eorspl	r6, r0, r3, lsl #16
     d84:	51011f01 	tstpl	r1, r1, lsl #30
     d88:	06007d03 	streq	r7, [r0], -r3, lsl #26
     d8c:	07142000 	ldreq	r2, [r4, -r0]
     d90:	14110150 	ldrne	r0, [r1], #-336	; 0x150
     d94:	038d0000 	orreq	r0, sp, #0
     d98:	011f0000 	tsteq	pc, r0
     d9c:	80030550 	andhi	r0, r3, r0, asr r5
     da0:	1f015030 	svcne	0x00015030
     da4:	91035101 	tstls	r3, r1, lsl #2
     da8:	1d007f8c 	stcne	15, cr7, [r0, #-560]	; 0xfffffdd0
     dac:	01500718 	cmpeq	r0, r8, lsl r7
     db0:	00001422 	andeq	r1, r0, r2, lsr #8
     db4:	5007501e 	andpl	r5, r7, lr, lsl r0
     db8:	00141101 	andseq	r1, r4, r1, lsl #2
     dbc:	50011f00 	andpl	r1, r1, r0, lsl #30
     dc0:	308c0305 	addcc	r0, ip, r5, lsl #6
     dc4:	00000150 	andeq	r0, r0, r0, asr r1
     dc8:	22042100 	andcs	r2, r4, #0, 2
     dcc:	0000010b 	andeq	r0, r0, fp, lsl #2
     dd0:	000003bd 			; <UNDEFINED> instruction: 0x000003bd
     dd4:	00007f23 	andeq	r7, r0, r3, lsr #30
     dd8:	22001000 	andcs	r1, r0, #0
     ddc:	00000100 	andeq	r0, r0, r0, lsl #2
     de0:	000003cd 	andeq	r0, r0, sp, asr #7
     de4:	00007f23 	andeq	r7, r0, r3, lsr #30
     de8:	22002000 	andcs	r2, r0, #0
     dec:	000000f5 	strdeq	r0, [r0], -r5
     df0:	000003dd 	ldrdeq	r0, [r0], -sp
     df4:	00007f23 	andeq	r7, r0, r3, lsr #30
     df8:	24004000 	strcs	r4, [r0], #-0
     dfc:	0000071b 	andeq	r0, r0, fp, lsl r7
     e00:	5901fe01 	stmdbpl	r1, {r0, r9, sl, fp, ip, sp, lr, pc}
     e04:	60000000 	andvs	r0, r0, r0
     e08:	b0015007 	andlt	r5, r1, r7
     e0c:	01000000 	mrseq	r0, (UNDEF: 0)
     e10:	0005039c 	muleq	r5, ip, r3
     e14:	656b2500 	strbvs	r2, [fp, #-1280]!	; 0x500
     e18:	08010079 	stmdaeq	r1, {r0, r3, r4, r5, r6}
     e1c:	00050302 	andeq	r0, r5, r2, lsl #6
     e20:	65722600 	ldrbvs	r2, [r2, #-1536]!	; 0x600
     e24:	09010074 	stmdbeq	r1, {r2, r4, r5, r6}
     e28:	00005902 	andeq	r5, r0, r2, lsl #18
     e2c:	00090800 	andeq	r0, r9, r0, lsl #16
     e30:	07412700 	strbeq	r2, [r1, -r0, lsl #14]
     e34:	0b010000 	bleq	40e3c <_back_addr-0x14bf1c4>
     e38:	00005902 	andeq	r5, r0, r2, lsl #18
     e3c:	00042500 	andeq	r2, r4, r0, lsl #10
     e40:	0e000f00 	cdpeq	15, 0, cr0, cr0, cr0, {0}
     e44:	000002dc 	ldrdeq	r0, [r0], -ip
     e48:	00598401 	subseq	r8, r9, r1, lsl #8
     e4c:	04360000 	ldrteq	r0, [r6], #-0
     e50:	000f0000 	andeq	r0, pc, r0
     e54:	01006926 	tsteq	r0, r6, lsr #18
     e58:	0059020e 	subseq	r0, r9, lr, lsl #4
     e5c:	093c0000 	ldmdbeq	ip!, {}	; <UNPREDICTABLE>
     e60:	30270000 	eorcc	r0, r7, r0
     e64:	01000005 	tsteq	r0, r5
     e68:	00590215 	subseq	r0, r9, r5, lsl r2
     e6c:	04560000 	ldrbeq	r0, [r6], #-0
     e70:	000f0000 	andeq	r0, pc, r0
     e74:	50078820 	andpl	r8, r7, r0, lsr #16
     e78:	00143301 	andseq	r3, r4, r1, lsl #6
     e7c:	00048000 	andeq	r8, r4, r0
     e80:	50011f00 	andpl	r1, r1, r0, lsl #30
     e84:	35800305 	strcc	r0, [r0, #773]	; 0x305
     e88:	011f0151 	tsteq	pc, r1, asr r1	; <UNPREDICTABLE>
     e8c:	1f400151 	svcne	0x00400151
     e90:	03055201 	movweq	r5, #20993	; 0x5201
     e94:	01513570 	cmpeq	r1, r0, ror r5
     e98:	0153011f 	cmpeq	r3, pc, lsl r1
     e9c:	9c200030 	stcls	0, cr0, [r0], #-192	; 0xffffff40
     ea0:	11015007 	tstne	r1, r7
     ea4:	97000014 	smladls	r0, r4, r0, r0
     ea8:	1f000004 	svcne	0x00000004
     eac:	03055001 	movweq	r5, #20481	; 0x5001
     eb0:	01503094 			; <UNDEFINED> instruction: 0x01503094
     eb4:	07b02000 	ldreq	r2, [r0, r0]!
     eb8:	14110150 	ldrne	r0, [r1], #-336	; 0x150
     ebc:	04ae0000 	strteq	r0, [lr], #0
     ec0:	011f0000 	tsteq	pc, r0
     ec4:	9c030550 	cfstr32ls	mvfx0, [r3], {80}	; 0x50
     ec8:	00015030 	andeq	r5, r1, r0, lsr r0
     ecc:	5007d020 	andpl	sp, r7, r0, lsr #32
     ed0:	00144501 	andseq	r4, r4, r1, lsl #10
     ed4:	0004d800 	andeq	sp, r4, r0, lsl #16
     ed8:	50011f00 	andpl	r1, r1, r0, lsl #30
     edc:	35700305 	ldrbcc	r0, [r0, #-773]!	; 0x305
     ee0:	011f0151 	tsteq	pc, r1, asr r1	; <UNPREDICTABLE>
     ee4:	1f400151 	svcne	0x00400151
     ee8:	03055201 	movweq	r5, #20993	; 0x5201
     eec:	01513590 			; <UNDEFINED> instruction: 0x01513590
     ef0:	0153011f 	cmpeq	r3, pc, lsl r1
     ef4:	e4200030 	strt	r0, [r0], #-48	; 0x30
     ef8:	11015007 	tstne	r1, r7
     efc:	ef000014 	svc	0x00000014
     f00:	1f000004 	svcne	0x00000004
     f04:	03055001 	movweq	r5, #20481	; 0x5001
     f08:	01503094 			; <UNDEFINED> instruction: 0x01503094
     f0c:	07f81e00 	ldrbeq	r1, [r8, r0, lsl #28]!
     f10:	14110150 	ldrne	r0, [r1], #-336	; 0x150
     f14:	011f0000 	tsteq	pc, r0
     f18:	b8030550 	stmdalt	r3, {r4, r6, r8, sl}
     f1c:	00015030 	andeq	r5, r1, r0, lsr r0
     f20:	00252200 	eoreq	r2, r5, r0, lsl #4
     f24:	05130000 	ldreq	r0, [r3, #-0]
     f28:	7f230000 	svcvc	0x00230000
     f2c:	03000000 	movweq	r0, #0
     f30:	06052400 	streq	r2, [r5], -r0, lsl #8
     f34:	1f010000 	svcne	0x00010000
     f38:	00002502 	andeq	r2, r0, r2, lsl #10
     f3c:	50081000 	andpl	r1, r8, r0
     f40:	00003001 	andeq	r3, r0, r1
     f44:	bb9c0100 	bllt	fe70134c <__bss_end__+0xfd1ed80c>
     f48:	28000005 	stmdacs	r0, {r0, r2}
     f4c:	000007c3 	andeq	r0, r0, r3, asr #15
     f50:	25021f01 	strcs	r1, [r2, #-3841]	; 0xf01
     f54:	b6000000 	strlt	r0, [r0], -r0
     f58:	29000009 	stmdbcs	r0, {r0, r3}
     f5c:	00000504 	andeq	r0, r0, r4, lsl #10
     f60:	25022101 	strcs	r2, [r2, #-257]	; 0x101
     f64:	d7000000 	strle	r0, [r0, -r0]
     f68:	29000009 	stmdbcs	r0, {r0, r3}
     f6c:	000006aa 	andeq	r0, r0, sl, lsr #13
     f70:	25022101 	strcs	r2, [r2, #-257]	; 0x101
     f74:	06000000 	streq	r0, [r0], -r0
     f78:	2900000a 	stmdbcs	r0, {r1, r3}
     f7c:	0000064a 	andeq	r0, r0, sl, asr #12
     f80:	25022201 	strcs	r2, [r2, #-513]	; 0x201
     f84:	28000000 	stmdacs	r0, {}	; <UNPREDICTABLE>
     f88:	2900000a 	stmdbcs	r0, {r1, r3}
     f8c:	000006a4 	andeq	r0, r0, r4, lsr #13
     f90:	25022201 	strcs	r2, [r2, #-513]	; 0x201
     f94:	8c000000 	stchi	0, cr0, [r0], {-0}
     f98:	2900000a 	stmdbcs	r0, {r1, r3}
     f9c:	000007e1 	andeq	r0, r0, r1, ror #15
     fa0:	25022201 	strcs	r2, [r2, #-513]	; 0x201
     fa4:	cc000000 	stcgt	0, cr0, [r0], {-0}
     fa8:	2a00000a 	bcs	fd8 <_back_addr-0x14ff028>
     fac:	00000121 	andeq	r0, r0, r1, lsr #2
     fb0:	0150082c 	cmpeq	r0, ip, lsr #16
     fb4:	00000004 	andeq	r0, r0, r4
     fb8:	2b022a01 	blcs	8b7c4 <_back_addr-0x147483c>
     fbc:	00000131 	andeq	r0, r0, r1, lsr r1
     fc0:	00000ae0 	andeq	r0, r0, r0, ror #21
     fc4:	50082c2c 	andpl	r2, r8, ip, lsr #24
     fc8:	00000401 	andeq	r0, r0, r1, lsl #8
     fcc:	01312b00 	teqeq	r1, r0, lsl #22
     fd0:	0ae00000 	beq	ff800fd8 <__bss_end__+0xfe2ed498>
     fd4:	00000000 	andeq	r0, r0, r0
     fd8:	057d2400 	ldrbeq	r2, [sp, #-1024]!	; 0x400
     fdc:	77010000 	strvc	r0, [r1, -r0]
     fe0:	00005901 	andeq	r5, r0, r1, lsl #18
     fe4:	50084000 	andpl	r4, r8, r0
     fe8:	00002c01 	andeq	r2, r0, r1, lsl #24
     fec:	159c0100 	ldrne	r0, [ip, #256]	; 0x100
     ff0:	26000006 	strcs	r0, [r0], -r6
     ff4:	00746572 	rsbseq	r6, r4, r2, ror r5
     ff8:	25017901 	strcs	r7, [r1, #-2305]	; 0x901
     ffc:	17000000 	strne	r0, [r0, -r0]
    1000:	0e00000b 	cdpeq	0, 0, cr0, cr0, cr11, {0}
    1004:	000002dc 	ldrdeq	r0, [r0], -ip
    1008:	00598401 	subseq	r8, r9, r1, lsl #8
    100c:	05f60000 	ldrbeq	r0, [r6, #0]!
    1010:	000f0000 	andeq	r0, pc, r0
    1014:	50084c20 	andpl	r4, r8, r0, lsr #24
    1018:	00051301 	andeq	r1, r5, r1, lsl #6
    101c:	00060b00 	andeq	r0, r6, r0, lsl #22
    1020:	50011f00 	andpl	r1, r1, r0, lsl #30
    1024:	0e0a0a03 	vmlaeq.f32	s0, s20, s6
    1028:	08641d00 	stmdaeq	r4!, {r8, sl, fp, ip}^
    102c:	14110150 	ldrne	r0, [r1], #-336	; 0x150
    1030:	24000000 	strcs	r0, [r0], #-0
    1034:	00000638 	andeq	r0, r0, r8, lsr r6
    1038:	59022e01 	stmdbpl	r2, {r0, r9, sl, fp, sp}
    103c:	6c000000 	stcvs	0, cr0, [r0], {-0}
    1040:	54015008 	strpl	r5, [r1], #-8
    1044:	01000000 	mrseq	r0, (UNDEF: 0)
    1048:	0007249c 	muleq	r7, ip, r4
    104c:	03cd2800 	biceq	r2, sp, #0, 16
    1050:	2e010000 	cdpcs	0, 0, cr0, cr1, cr0, {0}
    1054:	00005902 	andeq	r5, r0, r2, lsl #18
    1058:	000b3600 	andeq	r3, fp, r0, lsl #12
    105c:	09f92900 	ldmibeq	r9!, {r8, fp, sp}^
    1060:	30010000 	andcc	r0, r1, r0
    1064:	00005902 	andeq	r5, r0, r2, lsl #18
    1068:	000b5700 	andeq	r5, fp, r0, lsl #14
    106c:	07c32900 	strbeq	r2, [r3, r0, lsl #18]
    1070:	30010000 	andcc	r0, r1, r0
    1074:	00005902 	andeq	r5, r0, r2, lsl #18
    1078:	000b8600 	andeq	r8, fp, r0, lsl #12
    107c:	013d2d00 	teqeq	sp, r0, lsl #26
    1080:	08700000 	ldmdaeq	r0!, {}^	; <UNPREDICTABLE>
    1084:	00580150 	subseq	r0, r8, r0, asr r1
    1088:	3a010000 	bcc	41090 <_back_addr-0x14bef70>
    108c:	0006a002 	andeq	sl, r6, r2
    1090:	01542b00 	cmpeq	r4, r0, lsl #22
    1094:	0bb80000 	bleq	fee0109c <__bss_end__+0xfd8ed55c>
    1098:	492e0000 	stmdbmi	lr!, {}	; <UNPREDICTABLE>
    109c:	80000001 	andhi	r0, r0, r1
    10a0:	79c085e8 	stmibvc	r0, {r3, r5, r6, r7, r8, sl, pc}^
    10a4:	0000581b 	andeq	r5, r0, fp, lsl r8
    10a8:	01492e00 	cmpeq	r9, r0, lsl #28
    10ac:	e8800000 	stm	r0, {}	; <UNPREDICTABLE>
    10b0:	2b79c085 	blcs	1e712cc <__bss_end__+0x95d78c>
    10b4:	00000154 	andeq	r0, r0, r4, asr r1
    10b8:	00000bb8 			; <UNDEFINED> instruction: 0x00000bb8
    10bc:	212d0000 	teqcs	sp, r0
    10c0:	7c000001 	stcvc	0, cr0, [r0], {1}
    10c4:	70015008 	andvc	r5, r1, r8
    10c8:	01000000 	mrseq	r0, (UNDEF: 0)
    10cc:	06cf023c 			; <UNDEFINED> instruction: 0x06cf023c
    10d0:	312e0000 	teqcc	lr, r0
    10d4:	84000001 	strhi	r0, [r0], #-1
    10d8:	79c085e8 	stmibvc	r0, {r3, r5, r6, r7, r8, sl, pc}^
    10dc:	0000701b 	andeq	r7, r0, fp, lsl r0
    10e0:	01312e00 	teqeq	r1, r0, lsl #28
    10e4:	e8840000 	stm	r4, {}	; <UNPREDICTABLE>
    10e8:	0079c085 	rsbseq	ip, r9, r5, lsl #1
    10ec:	013d2f00 	teqeq	sp, r0, lsl #30
    10f0:	08b00000 	ldmeq	r0!, {}	; <UNPREDICTABLE>
    10f4:	00040150 	andeq	r0, r4, r0, asr r1
    10f8:	3e010000 	cdpcc	0, 0, cr0, cr1, cr0, {0}
    10fc:	00071402 	andeq	r1, r7, r2, lsl #8
    1100:	01542b00 	cmpeq	r4, r0, lsl #22
    1104:	0bfa0000 	bleq	ffe8110c <__bss_end__+0xfe96d5cc>
    1108:	492e0000 	stmdbmi	lr!, {}	; <UNPREDICTABLE>
    110c:	80000001 	andhi	r0, r0, r1
    1110:	79c085e8 	stmibvc	r0, {r3, r5, r6, r7, r8, sl, pc}^
    1114:	5008b02c 	andpl	fp, r8, ip, lsr #32
    1118:	00000401 	andeq	r0, r0, r1, lsl #8
    111c:	01492e00 	cmpeq	r9, r0, lsl #28
    1120:	e8800000 	stm	r0, {}	; <UNPREDICTABLE>
    1124:	2b79c085 	blcs	1e71340 <__bss_end__+0x95d800>
    1128:	00000154 	andeq	r0, r0, r4, asr r1
    112c:	00000bfa 	strdeq	r0, [r0], -sl
    1130:	b81e0000 	ldmdalt	lr, {}	; <UNPREDICTABLE>
    1134:	57015008 	strpl	r5, [r1, -r8]
    1138:	1f000014 	svcne	0x00000014
    113c:	35015001 	strcc	r5, [r1, #-1]
    1140:	5e300000 	cdppl	0, 3, cr0, cr0, cr0, {0}
    1144:	01000008 	tsteq	r0, r8
    1148:	00590249 	subseq	r0, r9, r9, asr #4
    114c:	08c00000 	stmiaeq	r0, {}^	; <UNPREDICTABLE>
    1150:	002c0150 	eoreq	r0, ip, r0, asr r1
    1154:	9c010000 	stcls	0, cr0, [r1], {-0}
    1158:	000007d2 	ldrdeq	r0, [r0], -r2
    115c:	00066c31 	andeq	r6, r6, r1, lsr ip
    1160:	024b0100 	subeq	r0, fp, #0, 2
    1164:	00000025 	andeq	r0, r0, r5, lsr #32
    1168:	0080a000 	addeq	sl, r0, r0
    116c:	0001212d 	andeq	r2, r1, sp, lsr #2
    1170:	5008c000 	andpl	ip, r8, r0
    1174:	00008801 	andeq	r8, r0, r1, lsl #16
    1178:	02520100 	subseq	r0, r2, #0, 2
    117c:	0000077d 	andeq	r0, r0, sp, ror r7
    1180:	0001312e 	andeq	r3, r1, lr, lsr #2
    1184:	85e88000 	strbhi	r8, [r8, #0]!
    1188:	881b79c0 	ldmdahi	fp, {r6, r7, r8, fp, ip, sp, lr}
    118c:	2e000000 	cdpcs	0, 0, cr0, cr0, cr0, {0}
    1190:	00000131 	andeq	r0, r0, r1, lsr r1
    1194:	c085e880 	addgt	lr, r5, r0, lsl #17
    1198:	2f000079 	svccs	0x00000079
    119c:	0000013d 	andeq	r0, r0, sp, lsr r1
    11a0:	015008d4 	ldrsbeq	r0, [r0, #-132]	; 0xffffff7c
    11a4:	0000000c 	andeq	r0, r0, ip
    11a8:	c2025401 	andgt	r5, r2, #16777216	; 0x1000000
    11ac:	32000007 	andcc	r0, r0, #7
    11b0:	00000154 	andeq	r0, r0, r4, asr r1
    11b4:	0080a000 	addeq	sl, r0, r0
    11b8:	0001492e 	andeq	r4, r1, lr, lsr #18
    11bc:	85e88000 	strbhi	r8, [r8, #0]!
    11c0:	d42c79c0 	strtle	r7, [ip], #-2496	; 0x9c0
    11c4:	0c015008 	stceq	0, cr5, [r1], {8}
    11c8:	2e000000 	cdpcs	0, 0, cr0, cr0, cr0, {0}
    11cc:	00000149 	andeq	r0, r0, r9, asr #2
    11d0:	c085e880 	addgt	lr, r5, r0, lsl #17
    11d4:	01543279 	cmpeq	r4, r9, ror r2
    11d8:	a0000000 	andge	r0, r0, r0
    11dc:	00000080 	andeq	r0, r0, r0, lsl #1
    11e0:	5008e41e 	andpl	lr, r8, lr, lsl r4
    11e4:	00145701 	andseq	r5, r4, r1, lsl #14
    11e8:	50011f00 	andpl	r1, r1, r0, lsl #30
    11ec:	00003501 	andeq	r3, r0, r1, lsl #10
    11f0:	00027e14 	andeq	r7, r2, r4, lsl lr
    11f4:	59b90100 	ldmibpl	r9!, {r8}
    11f8:	ec000000 	stc	0, cr0, [r0], {-0}
    11fc:	70015008 	andvc	r5, r1, r8
    1200:	01000000 	mrseq	r0, (UNDEF: 0)
    1204:	0008b09c 	muleq	r8, ip, r0
    1208:	062f1500 	strteq	r1, [pc], -r0, lsl #10
    120c:	b9010000 	stmdblt	r1, {}	; <UNPREDICTABLE>
    1210:	00000025 	andeq	r0, r0, r5, lsr #32
    1214:	00000c2f 	andeq	r0, r0, pc, lsr #24
    1218:	0006fe15 	andeq	pc, r6, r5, lsl lr	; <UNPREDICTABLE>
    121c:	25b90100 	ldrcs	r0, [r9, #256]!	; 0x100
    1220:	5b000000 	blpl	1228 <_back_addr-0x14fedd8>
    1224:	1500000c 	strne	r0, [r0, #-12]
    1228:	000004c7 	andeq	r0, r0, r7, asr #9
    122c:	08b0b901 	ldmeq	r0!, {r0, r8, fp, ip, sp, pc}
    1230:	0c870000 	stceq	0, cr0, [r7], {0}
    1234:	691a0000 	ldmdbvs	sl, {}	; <UNPREDICTABLE>
    1238:	25bb0100 	ldrcs	r0, [fp, #256]!	; 0x100
    123c:	b3000000 	movwlt	r0, #0
    1240:	1a00000c 	bne	1278 <_back_addr-0x14fed88>
    1244:	bb01006a 	bllt	413f4 <_back_addr-0x14bec0c>
    1248:	00000025 	andeq	r0, r0, r5, lsr #32
    124c:	00000cea 	andeq	r0, r0, sl, ror #25
    1250:	00056233 	andeq	r6, r5, r3, lsr r2
    1254:	25bc0100 	ldrcs	r0, [ip, #256]!	; 0x100
    1258:	14000000 	strne	r0, [r0], #-0
    125c:	3300000d 	movwcc	r0, #13
    1260:	00000686 	andeq	r0, r0, r6, lsl #13
    1264:	0025bc01 	eoreq	fp, r5, r1, lsl #24
    1268:	0d440000 	stcleq	0, cr0, [r4, #-0]
    126c:	5e0e0000 	cdppl	0, 0, cr0, cr14, cr0, {0}
    1270:	01000008 	tsteq	r0, r8
    1274:	000059df 	ldrdeq	r5, [r0], -pc	; <UNPREDICTABLE>
    1278:	00086100 	andeq	r6, r8, r0, lsl #2
    127c:	1c000f00 	stcne	15, cr0, [r0], {-0}
    1280:	000000a0 	andeq	r0, r0, r0, lsr #1
    1284:	00000891 	muleq	r0, r1, r8
    1288:	0006380e 	andeq	r3, r6, lr, lsl #16
    128c:	59d30100 	ldmibpl	r3, {r8}^
    1290:	7b000000 	blvc	1298 <_back_addr-0x14fed68>
    1294:	0f000008 	svceq	0x00000008
    1298:	09481e00 	stmdbeq	r8, {r9, sl, fp, ip}^
    129c:	06150150 			; <UNDEFINED> instruction: 0x06150150
    12a0:	011f0000 	tsteq	pc, r0
    12a4:	00740750 	rsbseq	r0, r4, r0, asr r7
    12a8:	31220076 	teqcc	r2, r6, ror r0
    12ac:	2000001c 	andcs	r0, r0, ip, lsl r0
    12b0:	01500904 	cmpeq	r0, r4, lsl #18
    12b4:	00000513 	andeq	r0, r0, r3, lsl r5
    12b8:	000008a6 	andeq	r0, r0, r6, lsr #17
    12bc:	0350011f 	cmpeq	r0, #-1073741817	; 0xc0000007
    12c0:	000fe00a 	andeq	lr, pc, sl
    12c4:	50095c34 	andpl	r5, r9, r4, lsr ip
    12c8:	00072401 	andeq	r2, r7, r1, lsl #8
    12cc:	04350000 	ldrteq	r0, [r5], #-0
    12d0:	00000116 	andeq	r0, r0, r6, lsl r1
    12d4:	0005ed14 	andeq	lr, r5, r4, lsl sp
    12d8:	59e50100 	stmibpl	r5!, {r8}^
    12dc:	5c000000 	stcpl	0, cr0, [r0], {-0}
    12e0:	20015009 	andcs	r5, r1, r9
    12e4:	01000000 	mrseq	r0, (UNDEF: 0)
    12e8:	0008ef9c 	muleq	r8, ip, pc	; <UNPREDICTABLE>
    12ec:	09701e00 	ldmdbeq	r0!, {r9, sl, fp, ip}^
    12f0:	07d20150 			; <UNDEFINED> instruction: 0x07d20150
    12f4:	011f0000 	tsteq	pc, r0
    12f8:	1f300150 	svcne	0x00300150
    12fc:	0a035101 	beq	d5708 <_back_addr-0x142a8f8>
    1300:	011f0100 	tsteq	pc, r0, lsl #2
    1304:	a0030552 	andge	r0, r3, r2, asr r5
    1308:	00015135 	andeq	r5, r1, r5, lsr r1
    130c:	06521400 	ldrbeq	r1, [r2], -r0, lsl #8
    1310:	ee010000 	cdp	0, 0, cr0, cr1, cr0, {0}
    1314:	00000059 	andeq	r0, r0, r9, asr r0
    1318:	0150097c 	cmpeq	r0, ip, ror r9
    131c:	0000003c 	andeq	r0, r0, ip, lsr r0
    1320:	093f9c01 	ldmdbeq	pc!, {r0, sl, fp, ip, pc}	; <UNPREDICTABLE>
    1324:	25150000 	ldrcs	r0, [r5, #-0]
    1328:	01000006 	tsteq	r0, r6
    132c:	000025ee 	andeq	r2, r0, lr, ror #11
    1330:	000d9b00 	andeq	r9, sp, r0, lsl #22
    1334:	056b1500 	strbeq	r1, [fp, #-1280]!	; 0x500
    1338:	ee010000 	cdp	0, 0, cr0, cr1, cr0, {0}
    133c:	00000025 	andeq	r0, r0, r5, lsr #32
    1340:	00000dd5 	ldrdeq	r0, [r0], -r5
    1344:	0004c715 	andeq	ip, r4, r5, lsl r7
    1348:	b0ee0100 	rsclt	r0, lr, r0, lsl #2
    134c:	f3000008 	vhadd.u8	d0, d0, d8
    1350:	1d00000d 	stcne	0, cr0, [r0, #-52]	; 0xffffffcc
    1354:	015009b0 	ldrheq	r0, [r0, #-144]	; 0xffffff70
    1358:	000007d2 	ldrdeq	r0, [r0], -r2
    135c:	07092400 	streq	r2, [r9, -r0, lsl #8]
    1360:	c0010000 	andgt	r0, r1, r0
    1364:	00005901 	andeq	r5, r0, r1, lsl #18
    1368:	5009b800 	andpl	fp, r9, r0, lsl #16
    136c:	00006c01 	andeq	r6, r0, r1, lsl #24
    1370:	cf9c0100 	svcgt	0x009c0100
    1374:	28000009 	stmdacs	r0, {r0, r3}
    1378:	000004e0 	andeq	r0, r0, r0, ror #9
    137c:	4701c001 	strmi	ip, [r1, -r1]
    1380:	14000000 	strne	r0, [r0], #-0
    1384:	2000000e 	andcs	r0, r0, lr
    1388:	015009e0 	cmpeq	r0, r0, ror #19
    138c:	000007d2 	ldrdeq	r0, [r0], -r2
    1390:	0000098c 	andeq	r0, r0, ip, lsl #19
    1394:	0350011f 	cmpeq	r0, #-1073741817	; 0xc0000007
    1398:	1f0a000a 	svcne	0x000a000a
    139c:	40015101 	andmi	r5, r1, r1, lsl #2
    13a0:	0552011f 	ldrbeq	r0, [r2, #-287]	; 0x11f
    13a4:	5136c003 	teqpl	r6, r3
    13a8:	f8200001 			; <UNDEFINED> instruction: 0xf8200001
    13ac:	d2015009 	andle	r5, r1, #9
    13b0:	af000007 	svcge	0x00000007
    13b4:	1f000009 	svcne	0x00000009
    13b8:	0a035001 	beq	d53c4 <_back_addr-0x142ac3c>
    13bc:	011f0800 	tsteq	pc, r0, lsl #16
    13c0:	1f400151 	svcne	0x00400151
    13c4:	03055201 	movweq	r5, #20993	; 0x5201
    13c8:	015136a0 	cmpeq	r1, r0, lsr #13
    13cc:	0a101e00 	beq	408bd4 <_back_addr-0x10f742c>
    13d0:	07d20150 			; <UNDEFINED> instruction: 0x07d20150
    13d4:	011f0000 	tsteq	pc, r0
    13d8:	000a0350 	andeq	r0, sl, r0, asr r3
    13dc:	51011f09 	tstpl	r1, r9, lsl #30
    13e0:	011f4001 	tsteq	pc, r1
    13e4:	b0030552 	andlt	r0, r3, r2, asr r5
    13e8:	00015136 	andeq	r5, r1, r6, lsr r1
    13ec:	07ca2400 	strbeq	r2, [sl, r0, lsl #8]
    13f0:	d2010000 	andle	r0, r1, #0
    13f4:	00005901 	andeq	r5, r0, r1, lsl #18
    13f8:	500a2400 	andpl	r2, sl, r0, lsl #8
    13fc:	00002001 	andeq	r2, r0, r1
    1400:	099c0100 	ldmibeq	ip, {r8}
    1404:	1e00000a 	cdpne	0, 0, cr0, cr0, cr10, {0}
    1408:	01500a38 	cmpeq	r0, r8, lsr sl
    140c:	000007d2 	ldrdeq	r0, [r0], -r2
    1410:	0350011f 	cmpeq	r0, #-1073741817	; 0xc0000007
    1414:	1f0d200a 	svcne	0x000d200a
    1418:	40015101 	andmi	r5, r1, r1, lsl #2
    141c:	0552011f 	ldrbeq	r0, [r2, #-287]	; 0x11f
    1420:	5136d003 	teqpl	r6, r3
    1424:	24000001 	strcs	r0, [r0], #-1
    1428:	00000596 	muleq	r0, r6, r5
    142c:	59011801 	stmdbpl	r1, {r0, fp, ip}
    1430:	44000000 	strmi	r0, [r0], #-0
    1434:	2001500a 	andcs	r5, r1, sl
    1438:	01000000 	mrseq	r0, (UNDEF: 0)
    143c:	000a799c 	muleq	sl, ip, r9
    1440:	06380e00 	ldrteq	r0, [r8], -r0, lsl #28
    1444:	d3010000 	movwle	r0, #4096	; 0x1000
    1448:	00000059 	andeq	r0, r0, r9, asr r0
    144c:	00000a34 	andeq	r0, r0, r4, lsr sl
    1450:	5e0e000f 	cdppl	0, 0, cr0, cr14, cr15, {0}
    1454:	01000008 	tsteq	r0, r8
    1458:	000059df 	ldrdeq	r5, [r0], -pc	; <UNPREDICTABLE>
    145c:	000a4500 	andeq	r4, sl, r0, lsl #10
    1460:	20000f00 	andcs	r0, r0, r0, lsl #30
    1464:	01500a50 	cmpeq	r0, r0, asr sl
    1468:	00000513 	andeq	r0, r0, r3, lsl r5
    146c:	00000a5a 	andeq	r0, r0, sl, asr sl
    1470:	0350011f 	cmpeq	r0, #-1073741817	; 0xc0000007
    1474:	000fe00a 	andeq	lr, pc, sl
    1478:	500a5820 	andpl	r5, sl, r0, lsr #16
    147c:	00061501 	andeq	r1, r6, r1, lsl #10
    1480:	000a6f00 	andeq	r6, sl, r0, lsl #30
    1484:	50011f00 	andpl	r1, r1, r0, lsl #30
    1488:	0da40a03 	stceq	10, cr0, [r4, #12]!
    148c:	0a5c1d00 	beq	1708894 <__bss_end__+0x1f4d54>
    1490:	07240150 			; <UNDEFINED> instruction: 0x07240150
    1494:	24000000 	strcs	r0, [r0], #-0
    1498:	00000801 	andeq	r0, r0, r1, lsl #16
    149c:	59012201 	stmdbpl	r1, {r0, r9, sp}
    14a0:	64000000 	strvs	r0, [r0], #-0
    14a4:	2001500a 	andcs	r5, r1, sl
    14a8:	01000000 	mrseq	r0, (UNDEF: 0)
    14ac:	000ae99c 	muleq	sl, ip, r9
    14b0:	06380e00 	ldrteq	r0, [r8], -r0, lsl #28
    14b4:	d3010000 	movwle	r0, #4096	; 0x1000
    14b8:	00000059 	andeq	r0, r0, r9, asr r0
    14bc:	00000aa4 	andeq	r0, r0, r4, lsr #21
    14c0:	5e0e000f 	cdppl	0, 0, cr0, cr14, cr15, {0}
    14c4:	01000008 	tsteq	r0, r8
    14c8:	000059df 	ldrdeq	r5, [r0], -pc	; <UNPREDICTABLE>
    14cc:	000ab500 	andeq	fp, sl, r0, lsl #10
    14d0:	20000f00 	andcs	r0, r0, r0, lsl #30
    14d4:	01500a70 	cmpeq	r0, r0, ror sl
    14d8:	00000513 	andeq	r0, r0, r3, lsl r5
    14dc:	00000aca 	andeq	r0, r0, sl, asr #21
    14e0:	0350011f 	cmpeq	r0, #-1073741817	; 0xc0000007
    14e4:	000fe00a 	andeq	lr, pc, sl
    14e8:	500a7820 	andpl	r7, sl, r0, lsr #16
    14ec:	00061501 	andeq	r1, r6, r1, lsl #10
    14f0:	000adf00 	andeq	sp, sl, r0, lsl #30
    14f4:	50011f00 	andpl	r1, r1, r0, lsl #30
    14f8:	0db10a03 	ldceq	10, cr0, [r1, #12]!
    14fc:	0a7c1d00 	beq	1f08904 <__bss_end__+0x9f4dc4>
    1500:	07240150 			; <UNDEFINED> instruction: 0x07240150
    1504:	24000000 	strcs	r0, [r0], #-0
    1508:	00000517 	andeq	r0, r0, r7, lsl r5
    150c:	59012c01 	stmdbpl	r1, {r0, sl, fp, sp}
    1510:	84000000 	strhi	r0, [r0], #-0
    1514:	2001500a 	andcs	r5, r1, sl
    1518:	01000000 	mrseq	r0, (UNDEF: 0)
    151c:	000b599c 	muleq	fp, ip, r9
    1520:	06380e00 	ldrteq	r0, [r8], -r0, lsl #28
    1524:	d3010000 	movwle	r0, #4096	; 0x1000
    1528:	00000059 	andeq	r0, r0, r9, asr r0
    152c:	00000b14 	andeq	r0, r0, r4, lsl fp
    1530:	5e0e000f 	cdppl	0, 0, cr0, cr14, cr15, {0}
    1534:	01000008 	tsteq	r0, r8
    1538:	000059df 	ldrdeq	r5, [r0], -pc	; <UNPREDICTABLE>
    153c:	000b2500 	andeq	r2, fp, r0, lsl #10
    1540:	20000f00 	andcs	r0, r0, r0, lsl #30
    1544:	01500a90 			; <UNDEFINED> instruction: 0x01500a90
    1548:	00000513 	andeq	r0, r0, r3, lsl r5
    154c:	00000b3a 	andeq	r0, r0, sl, lsr fp
    1550:	0350011f 	cmpeq	r0, #-1073741817	; 0xc0000007
    1554:	000fe00a 	andeq	lr, pc, sl
    1558:	500a9820 	andpl	r9, sl, r0, lsr #16
    155c:	00061501 	andeq	r1, r6, r1, lsl #10
    1560:	000b4f00 	andeq	r4, fp, r0, lsl #30
    1564:	50011f00 	andpl	r1, r1, r0, lsl #30
    1568:	0db20a03 	ldceq	10, cr0, [r2, #12]!
    156c:	0a9c1d00 	beq	fe708974 <__bss_end__+0xfd1f4e34>
    1570:	07240150 			; <UNDEFINED> instruction: 0x07240150
    1574:	24000000 	strcs	r0, [r0], #-0
    1578:	000005ce 	andeq	r0, r0, lr, asr #11
    157c:	59013701 	stmdbpl	r1, {r0, r8, r9, sl, ip, sp}
    1580:	a4000000 	strge	r0, [r0], #-0
    1584:	2001500a 	andcs	r5, r1, sl
    1588:	01000000 	mrseq	r0, (UNDEF: 0)
    158c:	000bc99c 	muleq	fp, ip, r9
    1590:	06380e00 	ldrteq	r0, [r8], -r0, lsl #28
    1594:	d3010000 	movwle	r0, #4096	; 0x1000
    1598:	00000059 	andeq	r0, r0, r9, asr r0
    159c:	00000b84 	andeq	r0, r0, r4, lsl #23
    15a0:	5e0e000f 	cdppl	0, 0, cr0, cr14, cr15, {0}
    15a4:	01000008 	tsteq	r0, r8
    15a8:	000059df 	ldrdeq	r5, [r0], -pc	; <UNPREDICTABLE>
    15ac:	000b9500 	andeq	r9, fp, r0, lsl #10
    15b0:	20000f00 	andcs	r0, r0, r0, lsl #30
    15b4:	01500ab0 	ldrheq	r0, [r0, #-160]	; 0xffffff60
    15b8:	00000513 	andeq	r0, r0, r3, lsl r5
    15bc:	00000baa 	andeq	r0, r0, sl, lsr #23
    15c0:	0350011f 	cmpeq	r0, #-1073741817	; 0xc0000007
    15c4:	000fe00a 	andeq	lr, pc, sl
    15c8:	500ab820 	andpl	fp, sl, r0, lsr #16
    15cc:	00061501 	andeq	r1, r6, r1, lsl #10
    15d0:	000bbf00 	andeq	fp, fp, r0, lsl #30
    15d4:	50011f00 	andpl	r1, r1, r0, lsl #30
    15d8:	0da60a03 	stceq	10, cr0, [r6, #12]!
    15dc:	0abc1d00 	beq	fef089e4 <__bss_end__+0xfd9f4ea4>
    15e0:	07240150 			; <UNDEFINED> instruction: 0x07240150
    15e4:	24000000 	strcs	r0, [r0], #-0
    15e8:	0000068e 	andeq	r0, r0, lr, lsl #13
    15ec:	59014201 	stmdbpl	r1, {r0, r9, lr}
    15f0:	c4000000 	strgt	r0, [r0], #-0
    15f4:	2001500a 	andcs	r5, r1, sl
    15f8:	01000000 	mrseq	r0, (UNDEF: 0)
    15fc:	000c399c 	muleq	ip, ip, r9
    1600:	06380e00 	ldrteq	r0, [r8], -r0, lsl #28
    1604:	d3010000 	movwle	r0, #4096	; 0x1000
    1608:	00000059 	andeq	r0, r0, r9, asr r0
    160c:	00000bf4 	strdeq	r0, [r0], -r4
    1610:	5e0e000f 	cdppl	0, 0, cr0, cr14, cr15, {0}
    1614:	01000008 	tsteq	r0, r8
    1618:	000059df 	ldrdeq	r5, [r0], -pc	; <UNPREDICTABLE>
    161c:	000c0500 	andeq	r0, ip, r0, lsl #10
    1620:	20000f00 	andcs	r0, r0, r0, lsl #30
    1624:	01500ad0 	ldrsbeq	r0, [r0, #-160]	; 0xffffff60
    1628:	00000513 	andeq	r0, r0, r3, lsl r5
    162c:	00000c1a 	andeq	r0, r0, sl, lsl ip
    1630:	0350011f 	cmpeq	r0, #-1073741817	; 0xc0000007
    1634:	000fe00a 	andeq	lr, pc, sl
    1638:	500ad820 	andpl	sp, sl, r0, lsr #16
    163c:	00061501 	andeq	r1, r6, r1, lsl #10
    1640:	000c2f00 	andeq	r2, ip, r0, lsl #30
    1644:	50011f00 	andpl	r1, r1, r0, lsl #30
    1648:	0dbb0a03 	ldceq	10, cr0, [fp, #12]!
    164c:	0adc1d00 	beq	ff708a54 <__bss_end__+0xfe1f4f14>
    1650:	07240150 			; <UNDEFINED> instruction: 0x07240150
    1654:	24000000 	strcs	r0, [r0], #-0
    1658:	000003bc 			; <UNDEFINED> instruction: 0x000003bc
    165c:	5901d801 	stmdbpl	r1, {r0, fp, ip, lr, pc}
    1660:	e4000000 	str	r0, [r0], #-0
    1664:	2001500a 	andcs	r5, r1, sl
    1668:	01000000 	mrseq	r0, (UNDEF: 0)
    166c:	000cad9c 	muleq	ip, ip, sp
    1670:	03dc2700 	bicseq	r2, ip, #0, 14
    1674:	e0010000 	and	r0, r1, r0
    1678:	00005901 	andeq	r5, r0, r1, lsl #18
    167c:	000c6500 	andeq	r6, ip, r0, lsl #10
    1680:	36000f00 	strcc	r0, [r0], -r0, lsl #30
    1684:	01003252 	tsteq	r0, r2, asr r2
    1688:	005901e1 	subseq	r0, r9, r1, ror #3
    168c:	0c760000 	ldcleq	0, cr0, [r6], #-0
    1690:	000f0000 	andeq	r0, pc, r0
    1694:	500aec1d 	andpl	lr, sl, sp, lsl ip
    1698:	000a0901 	andeq	r0, sl, r1, lsl #18
    169c:	0af01d00 	beq	ffc08aa4 <__bss_end__+0xfe6f4f64>
    16a0:	0bc90150 	bleq	ff241be8 <__bss_end__+0xfdd2e0a8>
    16a4:	f41d0000 			; <UNDEFINED> instruction: 0xf41d0000
    16a8:	5901500a 	stmdbpl	r1, {r1, r3, ip, lr}
    16ac:	1d00000b 	stcne	0, cr0, [r0, #-44]	; 0xffffffd4
    16b0:	01500af8 	ldrsheq	r0, [r0, #-168]	; 0xffffff58
    16b4:	00001468 	andeq	r1, r0, r8, ror #8
    16b8:	500afc1d 	andpl	pc, sl, sp, lsl ip	; <UNPREDICTABLE>
    16bc:	00147a01 	andseq	r7, r4, r1, lsl #20
    16c0:	0b043400 	bleq	10e6c8 <_back_addr-0x13f1938>
    16c4:	14680150 	strbtne	r0, [r8], #-336	; 0x150
    16c8:	24000000 	strcs	r0, [r0], #-0
    16cc:	000006b8 			; <UNDEFINED> instruction: 0x000006b8
    16d0:	59014d01 	stmdbpl	r1, {r0, r8, sl, fp, lr}
    16d4:	04000000 	streq	r0, [r0], #-0
    16d8:	2001500b 	andcs	r5, r1, fp
    16dc:	01000000 	mrseq	r0, (UNDEF: 0)
    16e0:	000d1d9c 	muleq	sp, ip, sp
    16e4:	06380e00 	ldrteq	r0, [r8], -r0, lsl #28
    16e8:	d3010000 	movwle	r0, #4096	; 0x1000
    16ec:	00000059 	andeq	r0, r0, r9, asr r0
    16f0:	00000cd8 	ldrdeq	r0, [r0], -r8
    16f4:	5e0e000f 	cdppl	0, 0, cr0, cr14, cr15, {0}
    16f8:	01000008 	tsteq	r0, r8
    16fc:	000059df 	ldrdeq	r5, [r0], -pc	; <UNPREDICTABLE>
    1700:	000ce900 	andeq	lr, ip, r0, lsl #18
    1704:	20000f00 	andcs	r0, r0, r0, lsl #30
    1708:	01500b10 	cmpeq	r0, r0, lsl fp
    170c:	00000513 	andeq	r0, r0, r3, lsl r5
    1710:	00000cfe 	strdeq	r0, [r0], -lr
    1714:	0350011f 	cmpeq	r0, #-1073741817	; 0xc0000007
    1718:	000fe00a 	andeq	lr, pc, sl
    171c:	500b1820 	andpl	r1, fp, r0, lsr #16
    1720:	00061501 	andeq	r1, r6, r1, lsl #10
    1724:	000d1300 	andeq	r1, sp, r0, lsl #6
    1728:	50011f00 	andpl	r1, r1, r0, lsl #30
    172c:	0e0e0a03 	vmlaeq.f32	s0, s28, s6
    1730:	0b1c1d00 	bleq	708b38 <_back_addr-0xdf74c8>
    1734:	07240150 			; <UNDEFINED> instruction: 0x07240150
    1738:	24000000 	strcs	r0, [r0], #-0
    173c:	000005b0 			; <UNDEFINED> instruction: 0x000005b0
    1740:	59015801 	stmdbpl	r1, {r0, fp, ip, lr}
    1744:	24000000 	strcs	r0, [r0], #-0
    1748:	2001500b 	andcs	r5, r1, fp
    174c:	01000000 	mrseq	r0, (UNDEF: 0)
    1750:	000d8d9c 	muleq	sp, ip, sp
    1754:	06380e00 	ldrteq	r0, [r8], -r0, lsl #28
    1758:	d3010000 	movwle	r0, #4096	; 0x1000
    175c:	00000059 	andeq	r0, r0, r9, asr r0
    1760:	00000d48 	andeq	r0, r0, r8, asr #26
    1764:	5e0e000f 	cdppl	0, 0, cr0, cr14, cr15, {0}
    1768:	01000008 	tsteq	r0, r8
    176c:	000059df 	ldrdeq	r5, [r0], -pc	; <UNPREDICTABLE>
    1770:	000d5900 	andeq	r5, sp, r0, lsl #18
    1774:	20000f00 	andcs	r0, r0, r0, lsl #30
    1778:	01500b30 	cmpeq	r0, r0, lsr fp
    177c:	00000513 	andeq	r0, r0, r3, lsl r5
    1780:	00000d6e 	andeq	r0, r0, lr, ror #26
    1784:	0350011f 	cmpeq	r0, #-1073741817	; 0xc0000007
    1788:	000fe00a 	andeq	lr, pc, sl
    178c:	500b3820 	andpl	r3, fp, r0, lsr #16
    1790:	00061501 	andeq	r1, r6, r1, lsl #10
    1794:	000d8300 	andeq	r8, sp, r0, lsl #6
    1798:	50011f00 	andpl	r1, r1, r0, lsl #30
    179c:	0e0f0a03 	vmlaeq.f32	s0, s30, s6
    17a0:	0b3c1d00 	bleq	f08ba8 <_back_addr-0x5f7458>
    17a4:	07240150 			; <UNDEFINED> instruction: 0x07240150
    17a8:	24000000 	strcs	r0, [r0], #-0
    17ac:	000007ac 	andeq	r0, r0, ip, lsr #15
    17b0:	59016301 	stmdbpl	r1, {r0, r8, r9, sp, lr}
    17b4:	44000000 	strmi	r0, [r0], #-0
    17b8:	2001500b 	andcs	r5, r1, fp
    17bc:	01000000 	mrseq	r0, (UNDEF: 0)
    17c0:	000dfd9c 	muleq	sp, ip, sp
    17c4:	06380e00 	ldrteq	r0, [r8], -r0, lsl #28
    17c8:	d3010000 	movwle	r0, #4096	; 0x1000
    17cc:	00000059 	andeq	r0, r0, r9, asr r0
    17d0:	00000db8 			; <UNDEFINED> instruction: 0x00000db8
    17d4:	5e0e000f 	cdppl	0, 0, cr0, cr14, cr15, {0}
    17d8:	01000008 	tsteq	r0, r8
    17dc:	000059df 	ldrdeq	r5, [r0], -pc	; <UNPREDICTABLE>
    17e0:	000dc900 	andeq	ip, sp, r0, lsl #18
    17e4:	20000f00 	andcs	r0, r0, r0, lsl #30
    17e8:	01500b50 	cmpeq	r0, r0, asr fp
    17ec:	00000513 	andeq	r0, r0, r3, lsl r5
    17f0:	00000dde 	ldrdeq	r0, [r0], -lr
    17f4:	0350011f 	cmpeq	r0, #-1073741817	; 0xc0000007
    17f8:	000fe00a 	andeq	lr, pc, sl
    17fc:	500b5820 	andpl	r5, fp, r0, lsr #16
    1800:	00061501 	andeq	r1, r6, r1, lsl #10
    1804:	000df300 	andeq	pc, sp, r0, lsl #6
    1808:	50011f00 	andpl	r1, r1, r0, lsl #30
    180c:	0dc20a03 	vstreq	s1, [r2, #12]
    1810:	0b5c1d00 	bleq	1708c18 <__bss_end__+0x1f50d8>
    1814:	07240150 			; <UNDEFINED> instruction: 0x07240150
    1818:	24000000 	strcs	r0, [r0], #-0
    181c:	000006ce 	andeq	r0, r0, lr, asr #13
    1820:	59016d01 	stmdbpl	r1, {r0, r8, sl, fp, sp, lr}
    1824:	64000000 	strvs	r0, [r0], #-0
    1828:	2001500b 	andcs	r5, r1, fp
    182c:	01000000 	mrseq	r0, (UNDEF: 0)
    1830:	000e6d9c 	muleq	lr, ip, sp
    1834:	06380e00 	ldrteq	r0, [r8], -r0, lsl #28
    1838:	d3010000 	movwle	r0, #4096	; 0x1000
    183c:	00000059 	andeq	r0, r0, r9, asr r0
    1840:	00000e28 	andeq	r0, r0, r8, lsr #28
    1844:	5e0e000f 	cdppl	0, 0, cr0, cr14, cr15, {0}
    1848:	01000008 	tsteq	r0, r8
    184c:	000059df 	ldrdeq	r5, [r0], -pc	; <UNPREDICTABLE>
    1850:	000e3900 	andeq	r3, lr, r0, lsl #18
    1854:	20000f00 	andcs	r0, r0, r0, lsl #30
    1858:	01500b70 	cmpeq	r0, r0, ror fp
    185c:	00000513 	andeq	r0, r0, r3, lsl r5
    1860:	00000e4e 	andeq	r0, r0, lr, asr #28
    1864:	0350011f 	cmpeq	r0, #-1073741817	; 0xc0000007
    1868:	000fe00a 	andeq	lr, pc, sl
    186c:	500b7820 	andpl	r7, fp, r0, lsr #16
    1870:	00061501 	andeq	r1, r6, r1, lsl #10
    1874:	000e6300 	andeq	r6, lr, r0, lsl #6
    1878:	50011f00 	andpl	r1, r1, r0, lsl #30
    187c:	0e0a0a03 	vmlaeq.f32	s0, s20, s6
    1880:	0b7c1d00 	bleq	1f08c88 <__bss_end__+0x9f5148>
    1884:	07240150 			; <UNDEFINED> instruction: 0x07240150
    1888:	37000000 	strcc	r0, [r0, -r0]
    188c:	00000160 	andeq	r0, r0, r0, ror #2
    1890:	01500b84 	cmpeq	r0, r4, lsl #23
    1894:	0000006c 	andeq	r0, r0, ip, rrx
    1898:	0f349c01 	svceq	0x00349c01
    189c:	712b0000 	teqvc	fp, r0
    18a0:	67000001 	strvs	r0, [r0, -r1]
    18a4:	3800000e 	stmdacc	r0, {r1, r2, r3}
    18a8:	0000017d 	andeq	r0, r0, sp, ror r1
    18ac:	000e9600 	andeq	r9, lr, r0, lsl #12
    18b0:	000f0f00 	andeq	r0, pc, r0, lsl #30
    18b4:	0000b81c 	andeq	fp, r0, ip, lsl r8
    18b8:	000f0b00 	andeq	r0, pc, r0, lsl #22
    18bc:	01712b00 	cmneq	r1, r0, lsl #22
    18c0:	0ea10000 	cdpeq	0, 10, cr0, cr1, cr0, {0}
    18c4:	b81b0000 	ldmdalt	fp, {}	; <UNPREDICTABLE>
    18c8:	39000000 	stmdbcc	r0, {}	; <UNPREDICTABLE>
    18cc:	01500bd0 	ldrsbeq	r0, [r0, #-176]	; 0xffffff50
    18d0:	0000000c 	andeq	r0, r0, ip
    18d4:	00000ecc 	andeq	r0, r0, ip, asr #29
    18d8:	500bd81e 	andpl	sp, fp, lr, lsl r8
    18dc:	00061501 	andeq	r1, r6, r1, lsl #10
    18e0:	50011f00 	andpl	r1, r1, r0, lsl #30
    18e4:	0da10a03 	stceq	10, cr0, [r1, #12]!
    18e8:	dc390000 	ldcle	0, cr0, [r9], #-0
    18ec:	0801500b 	stmdaeq	r1, {r0, r1, r3, ip, lr}
    18f0:	eb000000 	bl	18f8 <_back_addr-0x14fe708>
    18f4:	1e00000e 	cdpne	0, 0, cr0, cr0, cr14, {0}
    18f8:	01500be4 	cmpeq	r0, r4, ror #23
    18fc:	00000615 	andeq	r0, r0, r5, lsl r6
    1900:	0350011f 	cmpeq	r0, #-1073741817	; 0xc0000007
    1904:	000da00a 	andeq	sl, sp, sl
    1908:	0ba02000 	bleq	fe809910 <__bss_end__+0xfd2f5dd0>
    190c:	05130150 	ldreq	r0, [r3, #-336]	; 0x150
    1910:	0f000000 	svceq	0x00000000
    1914:	011f0000 	tsteq	pc, r0
    1918:	e00a0350 	and	r0, sl, r0, asr r3
    191c:	b41d000f 	ldrlt	r0, [sp], #-15
    1920:	2401500b 	strcs	r5, [r1], #-11
    1924:	00000007 	andeq	r0, r0, r7
    1928:	0bbc2c00 	bleq	fef0c930 <__bss_end__+0xfd9f8df0>
    192c:	00140150 	andseq	r0, r4, r0, asr r1
    1930:	933a0000 	teqls	sl, #0
    1934:	1f000001 	svcne	0x00000001
    1938:	0f00000f 	svceq	0x0000000f
    193c:	0bc81e00 	bleq	ff209144 <__bss_end__+0xfdcf5604>
    1940:	14110150 	ldrne	r0, [r1], #-336	; 0x150
    1944:	011f0000 	tsteq	pc, r0
    1948:	e0030550 	and	r0, r3, r0, asr r5
    194c:	00015030 	andeq	r5, r1, r0, lsr r0
    1950:	c8370000 	ldmdagt	r7!, {}	; <UNPREDICTABLE>
    1954:	f0000001 			; <UNDEFINED> instruction: 0xf0000001
    1958:	6c01500b 	stcvs	0, cr5, [r1], {11}
    195c:	01000000 	mrseq	r0, (UNDEF: 0)
    1960:	000ffb9c 	muleq	pc, ip, fp	; <UNPREDICTABLE>
    1964:	01d92b00 	bicseq	r2, r9, r0, lsl #22
    1968:	0ebf0000 	cdpeq	0, 11, cr0, cr15, cr0, {0}
    196c:	e5380000 	ldr	r0, [r8, #-0]!
    1970:	00000001 	andeq	r0, r0, r1
    1974:	00000f5d 	andeq	r0, r0, sp, asr pc
    1978:	1c000f0f 	stcne	15, cr0, [r0], {15}
    197c:	000000d0 	ldrdeq	r0, [r0], -r0	; <UNPREDICTABLE>
    1980:	00000fd2 	ldrdeq	r0, [r0], -r2
    1984:	0001d92b 	andeq	sp, r1, fp, lsr #18
    1988:	000ef900 	andeq	pc, lr, r0, lsl #18
    198c:	00d01b00 	sbcseq	r1, r0, r0, lsl #22
    1990:	3c390000 	ldccc	0, cr0, [r9], #-0
    1994:	0c01500c 	stceq	0, cr5, [r1], {12}
    1998:	93000000 	movwls	r0, #0
    199c:	1e00000f 	cdpne	0, 0, cr0, cr0, cr15, {0}
    19a0:	01500c44 	cmpeq	r0, r4, asr #24
    19a4:	00000615 	andeq	r0, r0, r5, lsl r6
    19a8:	0350011f 	cmpeq	r0, #-1073741817	; 0xc0000007
    19ac:	000e0c0a 	andeq	r0, lr, sl, lsl #24
    19b0:	0c483900 	mcrreq	9, 0, r3, r8, cr0
    19b4:	00080150 	andeq	r0, r8, r0, asr r1
    19b8:	0fb20000 	svceq	0x00b20000
    19bc:	501e0000 	andspl	r0, lr, r0
    19c0:	1501500c 	strne	r5, [r1, #-12]
    19c4:	1f000006 	svcne	0x00000006
    19c8:	0a035001 	beq	d59d4 <_back_addr-0x142a62c>
    19cc:	00000e0b 	andeq	r0, r0, fp, lsl #28
    19d0:	500c0c20 	andpl	r0, ip, r0, lsr #24
    19d4:	00051301 	andeq	r1, r5, r1, lsl #6
    19d8:	000fc700 	andeq	ip, pc, r0, lsl #14
    19dc:	50011f00 	andpl	r1, r1, r0, lsl #30
    19e0:	0fe00a03 	svceq	0x00e00a03
    19e4:	0c201d00 	stceq	13, cr1, [r0], #-0
    19e8:	07240150 			; <UNDEFINED> instruction: 0x07240150
    19ec:	00000000 	andeq	r0, r0, r0
    19f0:	500c282c 	andpl	r2, ip, ip, lsr #16
    19f4:	00001401 	andeq	r1, r0, r1, lsl #8
    19f8:	01fb3a00 	mvnseq	r3, r0, lsl #20
    19fc:	0fe60000 	svceq	0x00e60000
    1a00:	000f0000 	andeq	r0, pc, r0
    1a04:	500c341e 	andpl	r3, ip, lr, lsl r4
    1a08:	00141101 	andseq	r1, r4, r1, lsl #2
    1a0c:	50011f00 	andpl	r1, r1, r0, lsl #30
    1a10:	30f80305 	rscscc	r0, r8, r5, lsl #6
    1a14:	00000150 	andeq	r0, r0, r0, asr r1
    1a18:	06742400 	ldrbteq	r2, [r4], -r0, lsl #8
    1a1c:	e5010000 	str	r0, [r1, #-0]
    1a20:	00005901 	andeq	r5, r0, r1, lsl #18
    1a24:	500c5c00 	andpl	r5, ip, r0, lsl #24
    1a28:	00009c01 	andeq	r9, r0, r1, lsl #24
    1a2c:	389c0100 	ldmcc	ip, {r8}
    1a30:	20000011 	andcs	r0, r0, r1, lsl r0
    1a34:	01500c78 	cmpeq	r0, r8, ror ip
    1a38:	000007d2 	ldrdeq	r0, [r0], -r2
    1a3c:	00001035 	andeq	r1, r0, r5, lsr r0
    1a40:	0150011f 	cmpeq	r0, pc, lsl r1
    1a44:	51011f30 	tstpl	r1, r0, lsr pc
    1a48:	01000a03 	tsteq	r0, r3, lsl #20
    1a4c:	0252011f 	subseq	r0, r2, #-1073741817	; 0xc0000007
    1a50:	20003074 	andcs	r3, r0, r4, ror r0
    1a54:	01500c88 	cmpeq	r0, r8, lsl #25
    1a58:	000007d2 	ldrdeq	r0, [r0], -r2
    1a5c:	00001056 	andeq	r1, r0, r6, asr r0
    1a60:	0350011f 	cmpeq	r0, #-1073741817	; 0xc0000007
    1a64:	1f08000a 	svcne	0x0008000a
    1a68:	40015101 	andmi	r5, r1, r1, lsl #2
    1a6c:	0352011f 	cmpeq	r2, #-1073741817	; 0xc0000007
    1a70:	0002b074 	andeq	fp, r2, r4, ror r0
    1a74:	500c9820 	andpl	r9, ip, r0, lsr #16
    1a78:	0007d201 	andeq	sp, r7, r1, lsl #4
    1a7c:	00107700 	andseq	r7, r0, r0, lsl #14
    1a80:	50011f00 	andpl	r1, r1, r0, lsl #30
    1a84:	09000a03 	stmdbeq	r0, {r0, r1, r9, fp}
    1a88:	0151011f 	cmpeq	r1, pc, lsl r1
    1a8c:	52011f40 	andpl	r1, r1, #64, 30	; 0x100
    1a90:	02c07403 	sbceq	r7, r0, #50331648	; 0x3000000
    1a94:	0ca82000 	stceq	0, cr2, [r8]
    1a98:	07d20150 			; <UNDEFINED> instruction: 0x07d20150
    1a9c:	10980000 	addsne	r0, r8, r0
    1aa0:	011f0000 	tsteq	pc, r0
    1aa4:	000a0350 	andeq	r0, sl, r0, asr r3
    1aa8:	51011f0a 	tstpl	r1, sl, lsl #30
    1aac:	011f4001 	tsteq	pc, r1
    1ab0:	d0740352 	rsbsle	r0, r4, r2, asr r3
    1ab4:	b8200002 	stmdalt	r0!, {r1}
    1ab8:	d201500c 	andle	r5, r1, #12
    1abc:	b9000007 	stmdblt	r0, {r0, r1, r2}
    1ac0:	1f000010 	svcne	0x00000010
    1ac4:	0a035001 	beq	d5ad0 <_back_addr-0x142a530>
    1ac8:	011f0d20 	tsteq	pc, r0, lsr #26
    1acc:	1f400151 	svcne	0x00400151
    1ad0:	74035201 	strvc	r5, [r3], #-513	; 0x201
    1ad4:	1d0002e0 	sfmne	f0, 4, [r0, #-896]	; 0xfffffc80
    1ad8:	01500cbc 	ldrheq	r0, [r0, #-204]	; 0xffffff34
    1adc:	00000b59 	andeq	r0, r0, r9, asr fp
    1ae0:	500cc01d 	andpl	ip, ip, sp, lsl r0
    1ae4:	000bc901 	andeq	ip, fp, r1, lsl #18
    1ae8:	0cc41d00 	stcleq	13, cr1, [r4], {0}
    1aec:	0cad0150 	stfeqs	f0, [sp], #320	; 0x140
    1af0:	c81d0000 	ldmdagt	sp, {}	; <UNPREDICTABLE>
    1af4:	1d01500c 	stcne	0, cr5, [r1, #-48]	; 0xffffffd0
    1af8:	1d00000d 	stcne	0, cr0, [r0, #-52]	; 0xffffffcc
    1afc:	01500ccc 	cmpeq	r0, ip, asr #25
    1b00:	00000d8d 	andeq	r0, r0, sp, lsl #27
    1b04:	500cd01d 	andpl	sp, ip, sp, lsl r0
    1b08:	000dfd01 	andeq	pc, sp, r1, lsl #26
    1b0c:	0cd82000 	ldcleq	0, cr2, [r8], {0}
    1b10:	01600150 	cmneq	r0, r0, asr r1
    1b14:	11020000 	mrsne	r0, (UNDEF: 2)
    1b18:	011f0000 	tsteq	pc, r0
    1b1c:	00310150 	eorseq	r0, r1, r0, asr r1
    1b20:	500ce020 	andpl	lr, ip, r0, lsr #32
    1b24:	00016001 	andeq	r6, r1, r1
    1b28:	00111500 	andseq	r1, r1, r0, lsl #10
    1b2c:	50011f00 	andpl	r1, r1, r0, lsl #30
    1b30:	20003201 	andcs	r3, r0, r1, lsl #4
    1b34:	01500ce8 	cmpeq	r0, r8, ror #25
    1b38:	000001c8 	andeq	r0, r0, r8, asr #3
    1b3c:	00001128 	andeq	r1, r0, r8, lsr #2
    1b40:	0150011f 	cmpeq	r0, pc, lsl r1
    1b44:	f01e0031 			; <UNDEFINED> instruction: 0xf01e0031
    1b48:	c801500c 	stmdagt	r1, {r2, r3, ip, lr}
    1b4c:	1f000001 	svcne	0x00000001
    1b50:	32015001 	andcc	r5, r1, #1
    1b54:	0a240000 	beq	901b5c <_back_addr-0xbfe4a4>
    1b58:	01000005 	tsteq	r0, r5
    1b5c:	0025025f 	eoreq	r0, r5, pc, asr r2
    1b60:	0cf80000 	ldcleq	0, cr0, [r8]
    1b64:	00800150 	addeq	r0, r0, r0, asr r1
    1b68:	9c010000 	stcls	0, cr0, [r1], {-0}
    1b6c:	000011d7 	ldrdeq	r1, [r0], -r7
    1b70:	0007c328 	andeq	ip, r7, r8, lsr #6
    1b74:	025f0100 	subseq	r0, pc, #0, 2
    1b78:	00000025 	andeq	r0, r0, r5, lsr #32
    1b7c:	00000f17 	andeq	r0, r0, r7, lsl pc
    1b80:	7274703b 	rsbsvc	r7, r4, #59	; 0x3b
    1b84:	025f0100 	subseq	r0, pc, #0, 2
    1b88:	000011d7 	ldrdeq	r1, [r0], -r7
    1b8c:	00000f38 	andeq	r0, r0, r8, lsr pc
    1b90:	746e633b 	strbtvc	r6, [lr], #-827	; 0x33b
    1b94:	025f0100 	subseq	r0, pc, #0, 2
    1b98:	00000025 	andeq	r0, r0, r5, lsr #32
    1b9c:	00000f64 	andeq	r0, r0, r4, ror #30
    1ba0:	7465723c 	strbtvc	r7, [r5], #-572	; 0x23c
    1ba4:	02610100 	rsbeq	r0, r1, #0, 2
    1ba8:	00000025 	andeq	r0, r0, r5, lsr #32
    1bac:	00692600 	rsbeq	r2, r9, r0, lsl #12
    1bb0:	25026201 	strcs	r6, [r2, #-513]	; 0x201
    1bb4:	90000000 	andls	r0, r0, r0
    1bb8:	2900000f 	stmdbcs	r0, {r0, r1, r2, r3}
    1bbc:	00000726 	andeq	r0, r0, r6, lsr #14
    1bc0:	25026301 	strcs	r6, [r2, #-769]	; 0x301
    1bc4:	b0000000 	andlt	r0, r0, r0
    1bc8:	3d00000f 	stccc	0, cr0, [r0, #-60]	; 0xffffffc4
    1bcc:	00000121 	andeq	r0, r0, r1, lsr #2
    1bd0:	01500d08 	cmpeq	r0, r8, lsl #26
    1bd4:	000000e8 	andeq	r0, r0, r8, ror #1
    1bd8:	2b026701 	blcs	9b7e4 <_back_addr-0x146481c>
    1bdc:	00000131 	andeq	r0, r0, r1, lsr r1
    1be0:	0000102a 	andeq	r1, r0, sl, lsr #32
    1be4:	0001081b 	andeq	r0, r1, fp, lsl r8
    1be8:	01312b00 	teqeq	r1, r0, lsl #22
    1bec:	10700000 	rsbsne	r0, r0, r0
    1bf0:	00000000 	andeq	r0, r0, r0
    1bf4:	25043500 	strcs	r3, [r4, #-1280]	; 0x500
    1bf8:	24000000 	strcs	r0, [r0], #-0
    1bfc:	0000081a 	andeq	r0, r0, sl, lsl r8
    1c00:	59026c01 	stmdbpl	r2, {r0, sl, fp, sp, lr}
    1c04:	78000000 	stmdavc	r0, {}	; <UNPREDICTABLE>
    1c08:	5401500d 	strpl	r5, [r1], #-13
    1c0c:	01000000 	mrseq	r0, (UNDEF: 0)
    1c10:	0012c09c 	mulseq	r2, ip, r0
    1c14:	07c32800 	strbeq	r2, [r3, r0, lsl #16]
    1c18:	6c010000 	stcvs	0, cr0, [r1], {-0}
    1c1c:	00005902 	andeq	r5, r0, r2, lsl #18
    1c20:	00109400 	andseq	r9, r0, r0, lsl #8
    1c24:	74703b00 	ldrbtvc	r3, [r0], #-2816	; 0xb00
    1c28:	6c010072 	stcvs	0, cr0, [r1], {114}	; 0x72
    1c2c:	0012c002 	andseq	ip, r2, r2
    1c30:	0010b500 	andseq	fp, r0, r0, lsl #10
    1c34:	6e633e00 	cdpvs	14, 6, cr3, cr3, cr0, {0}
    1c38:	6c010074 	stcvs	0, cr0, [r1], {116}	; 0x74
    1c3c:	00002502 	andeq	r2, r0, r2, lsl #10
    1c40:	3f520100 	svccc	0x00520100
    1c44:	00746572 	rsbseq	r6, r4, r2, ror r5
    1c48:	25026e01 	strcs	r6, [r2, #-3585]	; 0xe01
    1c4c:	7f000000 	svcvc	0x00000000
    1c50:	01006926 	tsteq	r0, r6, lsr #18
    1c54:	0025026f 	eoreq	r0, r5, pc, ror #4
    1c58:	10e10000 	rscne	r0, r1, r0
    1c5c:	04290000 	strteq	r0, [r9], #-0
    1c60:	01000005 	tsteq	r0, r5
    1c64:	00250270 	eoreq	r0, r5, r0, ror r2
    1c68:	11120000 	tstne	r2, r0
    1c6c:	aa400000 	bge	1001c74 <_back_addr-0x4fe38c>
    1c70:	01000006 	tsteq	r0, r6
    1c74:	00250270 	eoreq	r0, r5, r0, ror r2
    1c78:	29000000 	stmdbcs	r0, {}	; <UNPREDICTABLE>
    1c7c:	0000064a 	andeq	r0, r0, sl, asr #12
    1c80:	25027101 	strcs	r7, [r2, #-257]	; 0x101
    1c84:	12000000 	andne	r0, r0, #0
    1c88:	29000011 	stmdbcs	r0, {r0, r4}
    1c8c:	000006a4 	andeq	r0, r0, r4, lsr #13
    1c90:	25027101 	strcs	r7, [r2, #-257]	; 0x101
    1c94:	12000000 	andne	r0, r0, #0
    1c98:	40000011 	andmi	r0, r0, r1, lsl r0
    1c9c:	000007e1 	andeq	r0, r0, r1, ror #15
    1ca0:	25027101 	strcs	r7, [r2, #-257]	; 0x101
    1ca4:	00000000 	andeq	r0, r0, r0
    1ca8:	0007e829 	andeq	lr, r7, r9, lsr #16
    1cac:	02720100 	rsbseq	r0, r2, #0, 2
    1cb0:	00000025 	andeq	r0, r0, r5, lsr #32
    1cb4:	00001132 	andeq	r1, r0, r2, lsr r1
    1cb8:	0001212a 	andeq	r2, r1, sl, lsr #2
    1cbc:	500da800 	andpl	sl, sp, r0, lsl #16
    1cc0:	00000401 	andeq	r0, r0, r1, lsl #8
    1cc4:	027a0100 	rsbseq	r0, sl, #0, 2
    1cc8:	00013141 	andeq	r3, r1, r1, asr #2
    1ccc:	0da82c00 	stceq	12, cr2, [r8]
    1cd0:	00040150 	andeq	r0, r4, r0, asr r1
    1cd4:	31410000 	mrscc	r0, (UNDEF: 65)
    1cd8:	00000001 	andeq	r0, r0, r1
    1cdc:	04350000 	ldrteq	r0, [r5], #-0
    1ce0:	000000b4 	strheq	r0, [r0], -r4
    1ce4:	00065f24 	andeq	r5, r6, r4, lsr #30
    1ce8:	01030100 	mrseq	r0, (UNDEF: 19)
    1cec:	00000059 	andeq	r0, r0, r9, asr r0
    1cf0:	01500dcc 	cmpeq	r0, ip, asr #27
    1cf4:	00000044 	andeq	r0, r0, r4, asr #32
    1cf8:	133b9c01 	teqne	fp, #256	; 0x100
    1cfc:	25280000 	strcs	r0, [r8, #-0]!
    1d00:	01000006 	tsteq	r0, r6
    1d04:	00250103 	eoreq	r0, r5, r3, lsl #2
    1d08:	117e0000 	cmnne	lr, r0
    1d0c:	6b280000 	blvs	a01d14 <_back_addr-0xafe2ec>
    1d10:	01000005 	tsteq	r0, r5
    1d14:	00250103 	eoreq	r0, r5, r3, lsl #2
    1d18:	11b80000 			; <UNDEFINED> instruction: 0x11b80000
    1d1c:	c7280000 	strgt	r0, [r8, -r0]!
    1d20:	01000004 	tsteq	r0, r4
    1d24:	08b00103 	ldmeq	r0!, {r0, r1, r8}
    1d28:	11e40000 	mvnne	r0, r0
    1d2c:	1a270000 	bne	9c1d34 <_back_addr-0xb3e2cc>
    1d30:	01000008 	tsteq	r0, r8
    1d34:	00590114 	subseq	r0, r9, r4, lsl r1
    1d38:	13220000 	teqne	r2, #0
    1d3c:	000f0000 	andeq	r0, pc, r0
    1d40:	500e081e 	andpl	r0, lr, lr, lsl r8
    1d44:	0011dd01 	andseq	sp, r1, r1, lsl #26
    1d48:	51011f00 	tstpl	r1, r0, lsl #30
    1d4c:	5201f303 	andpl	pc, r1, #201326592	; 0xc000000
    1d50:	0352011f 	cmpeq	r2, #-1073741817	; 0xc0000007
    1d54:	005101f3 	ldrsheq	r0, [r1], #-19	; 0xffffffed
    1d58:	00252200 	eoreq	r2, r5, r0, lsl #4
    1d5c:	134b0000 	movtne	r0, #45056	; 0xb000
    1d60:	7f230000 	svcvc	0x00230000
    1d64:	3f000000 	svccc	0x00000000
    1d68:	032c4200 	teqeq	ip, #0, 4
    1d6c:	3e010000 	cdpcc	0, 0, cr0, cr1, cr0, {0}
    1d70:	0000133b 	andeq	r1, r0, fp, lsr r3
    1d74:	35a00305 	strcc	r0, [r0, #773]!	; 0x305
    1d78:	40420151 	submi	r0, r2, r1, asr r1
    1d7c:	01000008 	tsteq	r0, r8
    1d80:	00050352 	andeq	r0, r5, r2, asr r3
    1d84:	c0030500 	andgt	r0, r3, r0, lsl #10
    1d88:	42015136 	andmi	r5, r1, #-2147483635	; 0x8000000d
    1d8c:	00000827 	andeq	r0, r0, r7, lsr #16
    1d90:	05035701 	streq	r5, [r3, #-1793]	; 0x701
    1d94:	03050000 	movweq	r0, #20480	; 0x5000
    1d98:	015136b0 	ldrheq	r3, [r1, #-96]	; 0xffffffa0
    1d9c:	00085342 	andeq	r5, r8, r2, asr #6
    1da0:	035c0100 	cmpeq	ip, #0, 2
    1da4:	05000005 	streq	r0, [r0, #-5]
    1da8:	5136a003 	teqpl	r6, r3
    1dac:	00b42201 	adcseq	r2, r4, r1, lsl #4
    1db0:	139f0000 	orrsne	r0, pc, #0
    1db4:	7f230000 	svcvc	0x00230000
    1db8:	10000000 	andne	r0, r0, r0
    1dbc:	07d84200 	ldrbeq	r4, [r8, r0, lsl #4]
    1dc0:	61010000 	mrsvs	r0, (UNDEF: 1)
    1dc4:	0000138f 	andeq	r1, r0, pc, lsl #7
    1dc8:	36d00305 	ldrbcc	r0, [r0], r5, lsl #6
    1dcc:	b4220151 	strtlt	r0, [r2], #-337	; 0x151
    1dd0:	bb000000 	bllt	1dd8 <_back_addr-0x14fe228>
    1dd4:	43000013 	movwmi	r0, #19
    1dd8:	01f64400 	mvnseq	r4, r0, lsl #8
    1ddc:	12060000 	andne	r0, r6, #0
    1de0:	000013c6 	andeq	r1, r0, r6, asr #7
    1de4:	0013b045 	andseq	fp, r3, r5, asr #32
    1de8:	00b42200 	adcseq	r2, r4, r0, lsl #4
    1dec:	13db0000 	bicsne	r0, fp, #0
    1df0:	7f230000 	svcvc	0x00230000
    1df4:	0f000000 	svceq	0x00000000
    1df8:	06e44600 	strbteq	r4, [r4], r0, lsl #12
    1dfc:	fb010000 	blx	41e06 <_back_addr-0x14be1fa>
    1e00:	0013cb01 	andseq	ip, r3, r1, lsl #22
    1e04:	80030500 	andhi	r0, r3, r0, lsl #10
    1e08:	46015135 			; <UNDEFINED> instruction: 0x46015135
    1e0c:	000006eb 	andeq	r0, r0, fp, ror #13
    1e10:	cb01fc01 	blgt	80e1c <_back_addr-0x147f1e4>
    1e14:	05000013 	streq	r0, [r0, #-19]
    1e18:	51357003 	teqpl	r5, r3
    1e1c:	06f24601 	ldrbteq	r4, [r2], r1, lsl #12
    1e20:	fd010000 	stc2	0, cr0, [r1, #-0]
    1e24:	0013cb01 	andseq	ip, r3, r1, lsl #22
    1e28:	90030500 	andls	r0, r3, r0, lsl #10
    1e2c:	0e015135 	mcreq	1, 0, r5, cr1, cr5, {1}
    1e30:	000002dc 	ldrdeq	r0, [r0], -ip
    1e34:	00598401 	subseq	r8, r9, r1, lsl #8
    1e38:	14220000 	strtne	r0, [r2], #-0
    1e3c:	000f0000 	andeq	r0, pc, r0
    1e40:	0004210e 	andeq	r2, r4, lr, lsl #2
    1e44:	59aa0100 	stmibpl	sl!, {r8}
    1e48:	33000000 	movwcc	r0, #0
    1e4c:	0f000014 	svceq	0x00000014
    1e50:	07412700 	strbeq	r2, [r1, -r0, lsl #14]
    1e54:	0b010000 	bleq	41e5c <_back_addr-0x14be1a4>
    1e58:	00005902 	andeq	r5, r0, r2, lsl #18
    1e5c:	00144500 	andseq	r4, r4, r0, lsl #10
    1e60:	27000f00 	strcs	r0, [r0, -r0, lsl #30]
    1e64:	00000530 	andeq	r0, r0, r0, lsr r5
    1e68:	59021501 	stmdbpl	r2, {r0, r8, sl, ip}
    1e6c:	57000000 	strpl	r0, [r0, -r0]
    1e70:	0f000014 	svceq	0x00000014
    1e74:	07704700 	ldrbeq	r4, [r0, -r0, lsl #14]!
    1e78:	2f070000 	svccs	0x00070000
    1e7c:	00001468 	andeq	r1, r0, r8, ror #8
    1e80:	00002548 	andeq	r2, r0, r8, asr #10
    1e84:	dc270000 	stcle	0, cr0, [r7], #-0
    1e88:	01000003 	tsteq	r0, r3
    1e8c:	005901e0 	subseq	r0, r9, r0, ror #3
    1e90:	147a0000 	ldrbtne	r0, [sl], #-0
    1e94:	000f0000 	andeq	r0, pc, r0
    1e98:	00325249 	eorseq	r5, r2, r9, asr #4
    1e9c:	5901e101 	stmdbpl	r1, {r0, r8, sp, lr, pc}
    1ea0:	0f000000 	svceq	0x00000000
    1ea4:	14430000 	strbne	r0, [r3], #-0
    1ea8:	00040000 	andeq	r0, r4, r0
    1eac:	000007c5 	andeq	r0, r0, r5, asr #15
    1eb0:	00a90104 	adceq	r0, r9, r4, lsl #2
    1eb4:	83010000 	movwhi	r0, #4096	; 0x1000
    1eb8:	5d000008 	stcpl	0, cr0, [r0, #-32]	; 0xffffffe0
    1ebc:	10000004 	andne	r0, r0, r4
    1ec0:	0401500e 	streq	r5, [r1], #-14
    1ec4:	e700000c 	str	r0, [r0, -ip]
    1ec8:	02000006 	andeq	r0, r0, #6
    1ecc:	02050704 	andeq	r0, r5, #4, 14	; 0x100000
    1ed0:	04020000 	streq	r0, [r2], #-0
    1ed4:	00007f07 	andeq	r7, r0, r7, lsl #30
    1ed8:	05040300 	streq	r0, [r4, #-768]	; 0x300
    1edc:	00746e69 	rsbseq	r6, r4, r9, ror #28
    1ee0:	67070202 	strvs	r0, [r7, -r2, lsl #4]
    1ee4:	02000000 	andeq	r0, r0, #0
    1ee8:	00960504 	addseq	r0, r6, r4, lsl #10
    1eec:	6c040000 	stcvs	0, cr0, [r4], {-0}
    1ef0:	0300000a 	movweq	r0, #10
    1ef4:	0000531f 	andeq	r5, r0, pc, lsl r3
    1ef8:	07040200 	streq	r0, [r4, -r0, lsl #4]
    1efc:	00000084 	andeq	r0, r0, r4, lsl #1
    1f00:	62080102 	andvs	r0, r8, #-2147483648	; 0x80000000
    1f04:	02000000 	andeq	r0, r0, #0
    1f08:	00910508 	addseq	r0, r1, r8, lsl #10
    1f0c:	01020000 	mrseq	r0, (UNDEF: 2)
    1f10:	00005b06 	andeq	r5, r0, r6, lsl #22
    1f14:	08010200 	stmdaeq	r1, {r9}
    1f18:	00000059 	andeq	r0, r0, r9, asr r0
    1f1c:	9f050202 	svcls	0x00050202
    1f20:	02000000 	andeq	r0, r0, #0
    1f24:	007a0708 	rsbseq	r0, sl, r8, lsl #14
    1f28:	f9040000 			; <UNDEFINED> instruction: 0xf9040000
    1f2c:	04000006 	streq	r0, [r0], #-6
    1f30:	0000535c 	andeq	r5, r0, ip, asr r3
    1f34:	06040500 	streq	r0, [r4], -r0, lsl #10
    1f38:	00009704 	andeq	r9, r0, r4, lsl #14
    1f3c:	005a0700 	subseq	r0, sl, r0, lsl #14
    1f40:	5a080000 	bpl	201f48 <_back_addr-0x12fe0b8>
    1f44:	ac000000 	stcge	0, cr0, [r0], {-0}
    1f48:	09000000 	stmdbeq	r0, {}	; <UNPREDICTABLE>
    1f4c:	00000025 	andeq	r0, r0, r5, lsr #32
    1f50:	840a000f 	strhi	r0, [sl], #-15
    1f54:	0400000a 	streq	r0, [r0], #-10
    1f58:	d201ee07 	andle	lr, r1, #7, 28	; 0x70
    1f5c:	0b000000 	bleq	1f64 <_back_addr-0x14fe09c>
    1f60:	000009df 	ldrdeq	r0, [r0], -pc	; <UNPREDICTABLE>
    1f64:	094f0b00 	stmdbeq	pc, {r8, r9, fp}^	; <UNPREDICTABLE>
    1f68:	0b010000 	bleq	41f70 <_back_addr-0x14be090>
    1f6c:	000008ce 	andeq	r0, r0, lr, asr #17
    1f70:	09920b02 	ldmibeq	r2, {r1, r8, r9, fp}
    1f74:	00030000 	andeq	r0, r3, r0
    1f78:	0008740c 	andeq	r7, r8, ip, lsl #8
    1f7c:	50053800 	andpl	r3, r5, r0, lsl #16
    1f80:	00000127 	andeq	r0, r0, r7, lsr #2
    1f84:	0008de0d 	andeq	sp, r8, sp, lsl #28
    1f88:	53520500 	cmppl	r2, #0, 10
    1f8c:	00000000 	andeq	r0, r0, r0
    1f90:	79656b0e 	stmdbvc	r5!, {r1, r2, r3, r8, r9, fp, sp, lr}^
    1f94:	27530500 	ldrbcs	r0, [r3, -r0, lsl #10]
    1f98:	04000001 	streq	r0, [r0], #-1
    1f9c:	0009120d 	andeq	r1, r9, sp, lsl #4
    1fa0:	37540500 	ldrbcc	r0, [r4, -r0, lsl #10]
    1fa4:	1c000001 	stcne	0, cr0, [r0], {1}
    1fa8:	00095f0d 	andeq	r5, r9, sp, lsl #30
    1fac:	53550500 	cmppl	r5, #0, 10
    1fb0:	2c000000 	stccs	0, cr0, [r0], {-0}
    1fb4:	0008e30d 	andeq	lr, r8, sp, lsl #6
    1fb8:	53560500 	cmppl	r6, #0, 10
    1fbc:	30000000 	andcc	r0, r0, r0
    1fc0:	0009af0d 	andeq	sl, r9, sp, lsl #30
    1fc4:	53570500 	cmppl	r7, #0, 10
    1fc8:	34000000 	strcc	r0, [r0], #-0
    1fcc:	00530800 	subseq	r0, r3, r0, lsl #16
    1fd0:	01370000 	teqeq	r7, r0
    1fd4:	25090000 	strcs	r0, [r9, #-0]
    1fd8:	05000000 	streq	r0, [r0, #-0]
    1fdc:	00530800 	subseq	r0, r3, r0, lsl #16
    1fe0:	01470000 	mrseq	r0, (UNDEF: 71)
    1fe4:	25090000 	strcs	r0, [r9, #-0]
    1fe8:	03000000 	movweq	r0, #0
    1fec:	09010400 	stmdbeq	r1, {sl}
    1ff0:	58050000 	stmdapl	r5, {}	; <UNPREDICTABLE>
    1ff4:	000000d2 	ldrdeq	r0, [r0], -r2
    1ff8:	0007510f 	andeq	r5, r7, pc, lsl #2
    1ffc:	53440200 	movtpl	r0, #16896	; 0x4200
    2000:	03000000 	movweq	r0, #0
    2004:	0000016e 	andeq	r0, r0, lr, ror #2
    2008:	0009f910 	andeq	pc, r9, r0, lsl r9	; <UNPREDICTABLE>
    200c:	53440200 	movtpl	r0, #16896	; 0x4200
    2010:	00000000 	andeq	r0, r0, r0
    2014:	0004be11 	andeq	fp, r4, r1, lsl lr
    2018:	035f0200 	cmpeq	pc, #0, 4
    201c:	00000191 	muleq	r0, r1, r1
    2020:	0009f910 	andeq	pc, r9, r0, lsl r9	; <UNPREDICTABLE>
    2024:	535f0200 	cmppl	pc, #0, 4
    2028:	12000000 	andne	r0, r0, #0
    202c:	006c6176 	rsbeq	r6, ip, r6, ror r1
    2030:	00535f02 	subseq	r5, r3, r2, lsl #30
    2034:	13000000 	movwne	r0, #0
    2038:	00000980 	andeq	r0, r0, r0, lsl #19
    203c:	33021001 	movwcc	r1, #8193	; 0x2001
    2040:	01000000 	mrseq	r0, (UNDEF: 0)
    2044:	000001d5 	ldrdeq	r0, [r0], -r5
    2048:	000a4e14 	andeq	r4, sl, r4, lsl lr
    204c:	02100100 	andseq	r0, r0, #0, 2
    2050:	000001d5 	ldrdeq	r0, [r0], -r5
    2054:	73657215 	cmnvc	r5, #1342177281	; 0x50000001
    2058:	02150100 	andseq	r0, r5, #0, 2
    205c:	00000033 	andeq	r0, r0, r3, lsr r0
    2060:	000cc916 	andeq	ip, ip, r6, lsl r9
    2064:	02160100 	andseq	r0, r6, #0, 2
    2068:	00000033 	andeq	r0, r0, r3, lsr r0
    206c:	0003dc17 	andeq	sp, r3, r7, lsl ip
    2070:	015a0100 	cmpeq	sl, r0, lsl #2
    2074:	00000033 	andeq	r0, r0, r3, lsr r0
    2078:	06000018 			; <UNDEFINED> instruction: 0x06000018
    207c:	00014704 	andeq	r4, r1, r4, lsl #14
    2080:	09431900 	stmdbeq	r3, {r8, fp, ip}^
    2084:	47010000 	strmi	r0, [r1, -r0]
    2088:	00000033 	andeq	r0, r0, r3, lsr r0
    208c:	00020201 	andeq	r0, r2, r1, lsl #4
    2090:	08bc1000 	ldmeq	ip!, {ip}
    2094:	47010000 	strmi	r0, [r1, -r0]
    2098:	00000053 	andeq	r0, r0, r3, asr r0
    209c:	000a651a 	andeq	r6, sl, sl, lsl r5
    20a0:	53490100 	movtpl	r0, #37120	; 0x9100
    20a4:	00000000 	andeq	r0, r0, r0
    20a8:	00086e1b 	andeq	r6, r8, fp, lsl lr
    20ac:	02ae0100 	adceq	r0, lr, #0, 2
    20b0:	000001d5 	ldrdeq	r0, [r0], -r5
    20b4:	01500e10 	cmpeq	r0, r0, lsl lr
    20b8:	00000070 	andeq	r0, r0, r0, ror r0
    20bc:	02679c01 	rsbeq	r9, r7, #256	; 0x100
    20c0:	c61c0000 	ldrgt	r0, [ip], -r0
    20c4:	0100000b 	tsteq	r0, fp
    20c8:	01d502b1 	ldrheq	r0, [r5, #33]	; 0x21
    20cc:	55010000 	strpl	r0, [r1, #-0]
    20d0:	500e581d 	andpl	r5, lr, sp, lsl r8
    20d4:	00139101 	andseq	r9, r3, r1, lsl #2
    20d8:	00024b00 	andeq	r4, r2, r0, lsl #22
    20dc:	50011e00 	andpl	r1, r1, r0, lsl #28
    20e0:	24444403 	strbcs	r4, [r4], #-1027	; 0x403
    20e4:	0151011e 	cmpeq	r1, lr, lsl r1
    20e8:	52011e30 	andpl	r1, r1, #48, 28	; 0x300
    20ec:	08000a03 	stmdaeq	r0, {r0, r1, r9, fp}
    20f0:	0e6c1f00 	cdpeq	15, 6, cr1, cr12, cr0, {0}
    20f4:	13910150 	orrsne	r0, r1, #80, 2
    20f8:	011e0000 	tsteq	lr, r0
    20fc:	00750250 	rsbseq	r0, r5, r0, asr r2
    2100:	0151011e 	cmpeq	r1, lr, lsl r1
    2104:	52011e30 	andpl	r1, r1, #48, 28	; 0x300
    2108:	00380802 	eorseq	r0, r8, r2, lsl #16
    210c:	0a931b00 	beq	fe4c8d14 <__bss_end__+0xfcfb51d4>
    2110:	de010000 	cdple	0, 0, cr0, cr1, cr0, {0}
    2114:	00003302 	andeq	r3, r0, r2, lsl #6
    2118:	500e8000 	andpl	r8, lr, r0
    211c:	00003401 	andeq	r3, r0, r1, lsl #8
    2120:	f69c0100 			; <UNDEFINED> instruction: 0xf69c0100
    2124:	20000002 	andcs	r0, r0, r2
    2128:	e0010069 	and	r0, r1, r9, rrx
    212c:	00005302 	andeq	r5, r0, r2, lsl #6
    2130:	00121000 	andseq	r1, r2, r0
    2134:	016e2100 	cmneq	lr, r0, lsl #2
    2138:	0e800000 	cdpeq	0, 8, cr0, cr0, cr0, {0}
    213c:	01200150 	teqeq	r0, r0, asr r1
    2140:	e2010000 	and	r0, r1, #0
    2144:	0002ca02 	andeq	ip, r2, r2, lsl #20
    2148:	01852200 	orreq	r2, r5, r0, lsl #4
    214c:	23010000 	movwcs	r0, #4096	; 0x1000
    2150:	0000017a 	andeq	r0, r0, sl, ror r1
    2154:	c085a39c 	umullgt	sl, r5, ip, r3
    2158:	01202479 	teqeq	r0, r9, ror r4
    215c:	85220000 	strhi	r0, [r2, #-0]!
    2160:	01000001 	tsteq	r0, r1
    2164:	00017a23 	andeq	r7, r1, r3, lsr #20
    2168:	85a39c00 	strhi	r9, [r3, #3072]!	; 0xc00
    216c:	000079c0 	andeq	r7, r0, r0, asr #19
    2170:	00015225 	andeq	r5, r1, r5, lsr #4
    2174:	500e8c00 	andpl	r8, lr, r0, lsl #24
    2178:	00013801 	andeq	r3, r1, r1, lsl #16
    217c:	02e40100 	rsceq	r0, r4, #0, 2
    2180:	00016223 	andeq	r6, r1, r3, lsr #4
    2184:	85a39c00 	strhi	r9, [r3, #3072]!	; 0xc00
    2188:	382479c0 	stmdacc	r4!, {r6, r7, r8, fp, ip, sp, lr}
    218c:	23000001 	movwcs	r0, #1
    2190:	00000162 	andeq	r0, r0, r2, ror #2
    2194:	c085a39c 	umullgt	sl, r5, ip, r3
    2198:	00000079 	andeq	r0, r0, r9, ror r0
    219c:	00019126 	andeq	r9, r1, r6, lsr #2
    21a0:	500eb400 	andpl	fp, lr, r0, lsl #8
    21a4:	00010801 	andeq	r0, r1, r1, lsl #16
    21a8:	419c0100 	orrsmi	r0, ip, r0, lsl #2
    21ac:	27000007 	strcs	r0, [r0, -r7]
    21b0:	000001a2 	andeq	r0, r0, r2, lsr #3
    21b4:	0000123c 	andeq	r1, r0, ip, lsr r2
    21b8:	0001ae28 	andeq	sl, r1, r8, lsr #28
    21bc:	01ba2900 			; <UNDEFINED> instruction: 0x01ba2900
    21c0:	12730000 	rsbsne	r0, r3, #0
    21c4:	c62a0000 	strtgt	r0, [sl], -r0
    21c8:	00000001 	andeq	r0, r0, r1
    21cc:	0000032d 	andeq	r0, r0, sp, lsr #6
    21d0:	21001818 	tstcs	r0, r8, lsl r8
    21d4:	0000016e 	andeq	r0, r0, lr, ror #2
    21d8:	01500ec0 	cmpeq	r0, r0, asr #29
    21dc:	00000150 	andeq	r0, r0, r0, asr r1
    21e0:	6c021e01 	stcvs	14, cr1, [r2], {1}
    21e4:	27000003 	strcs	r0, [r0, -r3]
    21e8:	00000185 	andeq	r0, r0, r5, lsl #3
    21ec:	00001287 	andeq	r1, r0, r7, lsl #5
    21f0:	00017a27 	andeq	r7, r1, r7, lsr #20
    21f4:	00129b00 	andseq	r9, r2, r0, lsl #22
    21f8:	01502400 	cmpeq	r0, r0, lsl #8
    21fc:	85270000 	strhi	r0, [r7, #-0]!
    2200:	87000001 	strhi	r0, [r0, -r1]
    2204:	27000012 	smladcs	r0, r2, r0, r0
    2208:	0000017a 	andeq	r0, r0, sl, ror r1
    220c:	0000129b 	muleq	r0, fp, r2
    2210:	6e210000 	cdpvs	0, 2, cr0, cr1, cr0, {0}
    2214:	c8000001 	stmdagt	r0, {r0}
    2218:	7001500e 	andvc	r5, r1, lr
    221c:	01000001 	tsteq	r0, r1
    2220:	03ab0222 			; <UNDEFINED> instruction: 0x03ab0222
    2224:	85270000 	strhi	r0, [r7, #-0]!
    2228:	b3000001 	movwlt	r0, #1
    222c:	27000012 	smladcs	r0, r2, r0, r0
    2230:	0000017a 	andeq	r0, r0, sl, ror r1
    2234:	000012c7 	andeq	r1, r0, r7, asr #5
    2238:	00017024 	andeq	r7, r1, r4, lsr #32
    223c:	01852700 	orreq	r2, r5, r0, lsl #14
    2240:	12b30000 	adcsne	r0, r3, #0
    2244:	7a270000 	bvc	9c224c <_back_addr-0xb3ddb4>
    2248:	c7000001 	strgt	r0, [r0, -r1]
    224c:	00000012 	andeq	r0, r0, r2, lsl r0
    2250:	016e2100 	cmneq	lr, r0, lsl #2
    2254:	0ed40000 	cdpeq	0, 13, cr0, cr4, cr0, {0}
    2258:	01880150 	orreq	r0, r8, r0, asr r1
    225c:	1f010000 	svcne	0x00010000
    2260:	0003ea02 	andeq	lr, r3, r2, lsl #20
    2264:	01852700 	orreq	r2, r5, r0, lsl #14
    2268:	12df0000 	sbcsne	r0, pc, #0
    226c:	7a270000 	bvc	9c2274 <_back_addr-0xb3dd8c>
    2270:	f4000001 	vst4.8	{d0-d3}, [r0], r1
    2274:	24000012 	strcs	r0, [r0], #-18
    2278:	00000188 	andeq	r0, r0, r8, lsl #3
    227c:	00018527 	andeq	r8, r1, r7, lsr #10
    2280:	0012df00 	andseq	sp, r2, r0, lsl #30
    2284:	017a2700 	cmneq	sl, r0, lsl #14
    2288:	12f40000 	rscsne	r0, r4, #0
    228c:	00000000 	andeq	r0, r0, r0
    2290:	00016e2b 	andeq	r6, r1, fp, lsr #28
    2294:	500eec00 	andpl	lr, lr, r0, lsl #24
    2298:	00000401 	andeq	r0, r0, r1, lsl #8
    229c:	02250100 	eoreq	r0, r5, #0, 2
    22a0:	0000042d 	andeq	r0, r0, sp, lsr #8
    22a4:	00018527 	andeq	r8, r1, r7, lsr #10
    22a8:	00130c00 	andseq	r0, r3, r0, lsl #24
    22ac:	017a2700 	cmneq	sl, r0, lsl #14
    22b0:	132d0000 	teqne	sp, #0
    22b4:	ec2c0000 	stc	0, cr0, [ip], #-0
    22b8:	0401500e 	streq	r5, [r1], #-14
    22bc:	27000000 	strcs	r0, [r0, -r0]
    22c0:	00000185 	andeq	r0, r0, r5, lsl #3
    22c4:	0000130c 	andeq	r1, r0, ip, lsl #6
    22c8:	00017a27 	andeq	r7, r1, r7, lsr #20
    22cc:	00132d00 	andseq	r2, r3, r0, lsl #26
    22d0:	2b000000 	blcs	22d8 <_back_addr-0x14fdd28>
    22d4:	0000016e 	andeq	r0, r0, lr, ror #2
    22d8:	01500ef0 	ldrsheq	r0, [r0, #-224]	; 0xffffff20
    22dc:	00000004 	andeq	r0, r0, r4
    22e0:	70022601 	andvc	r2, r2, r1, lsl #12
    22e4:	27000004 	strcs	r0, [r0, -r4]
    22e8:	00000185 	andeq	r0, r0, r5, lsl #3
    22ec:	00001345 	andeq	r1, r0, r5, asr #6
    22f0:	00017a27 	andeq	r7, r1, r7, lsr #20
    22f4:	00136800 	andseq	r6, r3, r0, lsl #16
    22f8:	0ef02c00 	cdpeq	12, 15, cr2, cr0, cr0, {0}
    22fc:	00040150 	andeq	r0, r4, r0, asr r1
    2300:	85270000 	strhi	r0, [r7, #-0]!
    2304:	45000001 	strmi	r0, [r0, #-1]
    2308:	27000013 	smladcs	r0, r3, r0, r0
    230c:	0000017a 	andeq	r0, r0, sl, ror r1
    2310:	00001368 	andeq	r1, r0, r8, ror #6
    2314:	6e2b0000 	cdpvs	0, 2, cr0, cr11, cr0, {0}
    2318:	f4000001 	vst4.8	{d0-d3}, [r0], r1
    231c:	0401500e 	streq	r5, [r1], #-14
    2320:	01000000 	mrseq	r0, (UNDEF: 0)
    2324:	04b30227 	ldrteq	r0, [r3], #551	; 0x227
    2328:	85270000 	strhi	r0, [r7, #-0]!
    232c:	80000001 	andhi	r0, r0, r1
    2330:	27000013 	smladcs	r0, r3, r0, r0
    2334:	0000017a 	andeq	r0, r0, sl, ror r1
    2338:	000013a1 	andeq	r1, r0, r1, lsr #7
    233c:	500ef42c 	andpl	pc, lr, ip, lsr #8
    2340:	00000401 	andeq	r0, r0, r1, lsl #8
    2344:	01852700 	orreq	r2, r5, r0, lsl #14
    2348:	13800000 	orrne	r0, r0, #0
    234c:	7a270000 	bvc	9c2354 <_back_addr-0xb3dcac>
    2350:	a1000001 	tstge	r0, r1
    2354:	00000013 	andeq	r0, r0, r3, lsl r0
    2358:	016e2b00 	cmneq	lr, r0, lsl #22
    235c:	0ef80000 	cdpeq	0, 15, cr0, cr8, cr0, {0}
    2360:	00040150 	andeq	r0, r4, r0, asr r1
    2364:	28010000 	stmdacs	r1, {}	; <UNPREDICTABLE>
    2368:	0004f602 	andeq	pc, r4, r2, lsl #12
    236c:	01852700 	orreq	r2, r5, r0, lsl #14
    2370:	13b90000 			; <UNDEFINED> instruction: 0x13b90000
    2374:	7a270000 	bvc	9c237c <_back_addr-0xb3dc84>
    2378:	dc000001 	stcle	0, cr0, [r0], {1}
    237c:	2c000013 	stccs	0, cr0, [r0], {19}
    2380:	01500ef8 	ldrsheq	r0, [r0, #-232]	; 0xffffff18
    2384:	00000004 	andeq	r0, r0, r4
    2388:	00018527 	andeq	r8, r1, r7, lsr #10
    238c:	0013b900 	andseq	fp, r3, r0, lsl #18
    2390:	017a2700 	cmneq	sl, r0, lsl #14
    2394:	13dc0000 	bicsne	r0, ip, #0
    2398:	00000000 	andeq	r0, r0, r0
    239c:	00016e2b 	andeq	r6, r1, fp, lsr #28
    23a0:	500f0800 	andpl	r0, pc, r0, lsl #16
    23a4:	00000801 	andeq	r0, r0, r1, lsl #16
    23a8:	027d0100 	rsbseq	r0, sp, #0, 2
    23ac:	00000539 	andeq	r0, r0, r9, lsr r5
    23b0:	00018527 	andeq	r8, r1, r7, lsr #10
    23b4:	0013f400 	andseq	pc, r3, r0, lsl #8
    23b8:	017a2700 	cmneq	sl, r0, lsl #14
    23bc:	14080000 	strne	r0, [r8], #-0
    23c0:	082c0000 	stmdaeq	ip!, {}	; <UNPREDICTABLE>
    23c4:	0801500f 	stmdaeq	r1, {r0, r1, r2, r3, ip, lr}
    23c8:	27000000 	strcs	r0, [r0, -r0]
    23cc:	00000185 	andeq	r0, r0, r5, lsl #3
    23d0:	000013f4 	strdeq	r1, [r0], -r4
    23d4:	00017a27 	andeq	r7, r1, r7, lsr #20
    23d8:	00140800 	andseq	r0, r4, r0, lsl #16
    23dc:	2d000000 	stccs	0, cr0, [r0, #-0]
    23e0:	01500f14 	cmpeq	r0, r4, lsl pc
    23e4:	000000a0 	andeq	r0, r0, r0, lsr #1
    23e8:	00000713 	andeq	r0, r0, r3, lsl r7
    23ec:	0001a227 	andeq	sl, r1, r7, lsr #4
    23f0:	00142000 	andseq	r2, r4, r0
    23f4:	0f142c00 	svceq	0x00142c00
    23f8:	00a00150 	adceq	r0, r0, r0, asr r1
    23fc:	ae290000 	cdpge	0, 2, cr0, cr9, cr0, {0}
    2400:	36000001 	strcc	r0, [r0], -r1
    2404:	29000014 	stmdbcs	r0, {r2, r4}
    2408:	000001ba 			; <UNDEFINED> instruction: 0x000001ba
    240c:	00001449 	andeq	r1, r0, r9, asr #8
    2410:	00015221 	andeq	r5, r1, r1, lsr #4
    2414:	500f1400 	andpl	r1, pc, r0, lsl #8
    2418:	0001a001 	andeq	sl, r1, r1
    241c:	02800100 	addeq	r0, r0, #0, 2
    2420:	00000597 	muleq	r0, r7, r5
    2424:	00016227 	andeq	r6, r1, r7, lsr #4
    2428:	0014a500 	andseq	sl, r4, r0, lsl #10
    242c:	01a02400 	lsleq	r2, r0, #8
    2430:	62270000 	eorvs	r0, r7, #0
    2434:	a5000001 	strge	r0, [r0, #-1]
    2438:	00000014 	andeq	r0, r0, r4, lsl r0
    243c:	01522b00 	cmpeq	r2, r0, lsl #22
    2440:	0f540000 	svceq	0x00540000
    2444:	000c0150 	andeq	r0, ip, r0, asr r1
    2448:	9e010000 	cdpls	0, 0, cr0, cr1, cr0, {0}
    244c:	0005c802 	andeq	ip, r5, r2, lsl #16
    2450:	01622700 	cmneq	r2, r0, lsl #14
    2454:	14bd0000 	ldrtne	r0, [sp], #0
    2458:	542c0000 	strtpl	r0, [ip], #-0
    245c:	0c01500f 	stceq	0, cr5, [r1], {15}
    2460:	27000000 	strcs	r0, [r0, -r0]
    2464:	00000162 	andeq	r0, r0, r2, ror #2
    2468:	000014bd 			; <UNDEFINED> instruction: 0x000014bd
    246c:	6e210000 	cdpvs	0, 2, cr0, cr1, cr0, {0}
    2470:	6c000001 	stcvs	0, cr0, [r0], {1}
    2474:	b801500f 	stmdalt	r1, {r0, r1, r2, r3, ip, lr}
    2478:	01000001 	tsteq	r0, r1
    247c:	060702a6 	streq	r0, [r7], -r6, lsr #5
    2480:	85270000 	strhi	r0, [r7, #-0]!
    2484:	d5000001 	strle	r0, [r0, #-1]
    2488:	27000014 	smladcs	r0, r4, r0, r0
    248c:	0000017a 	andeq	r0, r0, sl, ror r1
    2490:	000014e9 	andeq	r1, r0, r9, ror #9
    2494:	0001b824 	andeq	fp, r1, r4, lsr #16
    2498:	01852700 	orreq	r2, r5, r0, lsl #14
    249c:	14d50000 	ldrbne	r0, [r5], #0
    24a0:	7a270000 	bvc	9c24a8 <_back_addr-0xb3db58>
    24a4:	e9000001 	stmdb	r0, {r0}
    24a8:	00000014 	andeq	r0, r0, r4, lsl r0
    24ac:	016e2100 	cmneq	lr, r0, lsl #2
    24b0:	0f780000 	svceq	0x00780000
    24b4:	01d00150 	bicseq	r0, r0, r0, asr r1
    24b8:	a7010000 	strge	r0, [r1, -r0]
    24bc:	00064602 	andeq	r4, r6, r2, lsl #12
    24c0:	01852700 	orreq	r2, r5, r0, lsl #14
    24c4:	15010000 	strne	r0, [r1, #-0]
    24c8:	7a270000 	bvc	9c24d0 <_back_addr-0xb3db30>
    24cc:	15000001 	strne	r0, [r0, #-1]
    24d0:	24000015 	strcs	r0, [r0], #-21
    24d4:	000001d0 	ldrdeq	r0, [r0], -r0	; <UNPREDICTABLE>
    24d8:	00018527 	andeq	r8, r1, r7, lsr #10
    24dc:	00150100 	andseq	r0, r5, r0, lsl #2
    24e0:	017a2700 	cmneq	sl, r0, lsl #14
    24e4:	15150000 	ldrne	r0, [r5, #-0]
    24e8:	00000000 	andeq	r0, r0, r0
    24ec:	0001522b 	andeq	r5, r1, fp, lsr #4
    24f0:	500f8800 	andpl	r8, pc, r0, lsl #16
    24f4:	00000401 	andeq	r0, r0, r1, lsl #8
    24f8:	02a00100 	adceq	r0, r0, #0, 2
    24fc:	00000677 	andeq	r0, r0, r7, ror r6
    2500:	00016227 	andeq	r6, r1, r7, lsr #4
    2504:	00152d00 	andseq	r2, r5, r0, lsl #26
    2508:	0f882c00 	svceq	0x00882c00
    250c:	00040150 	andeq	r0, r4, r0, asr r1
    2510:	62270000 	eorvs	r0, r7, #0
    2514:	2d000001 	stccs	0, cr0, [r0, #-4]
    2518:	00000015 	andeq	r0, r0, r5, lsl r0
    251c:	016e2100 	cmneq	lr, r0, lsl #2
    2520:	0f9c0000 	svceq	0x009c0000
    2524:	01e80150 	mvneq	r0, r0, asr r1
    2528:	8c010000 	stchi	0, cr0, [r1], {-0}
    252c:	0006b602 	andeq	fp, r6, r2, lsl #12
    2530:	01852700 	orreq	r2, r5, r0, lsl #14
    2534:	15450000 	strbne	r0, [r5, #-0]
    2538:	7a270000 	bvc	9c2540 <_back_addr-0xb3dac0>
    253c:	59000001 	stmdbpl	r0, {r0}
    2540:	24000015 	strcs	r0, [r0], #-21
    2544:	000001e8 	andeq	r0, r0, r8, ror #3
    2548:	00018527 	andeq	r8, r1, r7, lsr #10
    254c:	00154500 	andseq	r4, r5, r0, lsl #10
    2550:	017a2700 	cmneq	sl, r0, lsl #14
    2554:	15590000 	ldrbne	r0, [r9, #-0]
    2558:	00000000 	andeq	r0, r0, r0
    255c:	00016e21 	andeq	r6, r1, r1, lsr #28
    2560:	500fa000 	andpl	sl, pc, r0
    2564:	00020001 	andeq	r0, r2, r1
    2568:	028d0100 	addeq	r0, sp, #0, 2
    256c:	000006f5 	strdeq	r0, [r0], -r5
    2570:	00018527 	andeq	r8, r1, r7, lsr #10
    2574:	00157100 	andseq	r7, r5, r0, lsl #2
    2578:	017a2700 	cmneq	sl, r0, lsl #14
    257c:	15850000 	strne	r0, [r5]
    2580:	00240000 	eoreq	r0, r4, r0
    2584:	27000002 	strcs	r0, [r0, -r2]
    2588:	00000185 	andeq	r0, r0, r5, lsl #3
    258c:	00001571 	andeq	r1, r0, r1, ror r5
    2590:	00017a27 	andeq	r7, r1, r7, lsr #20
    2594:	00158500 	andseq	r8, r5, r0, lsl #10
    2598:	1d000000 	stcne	0, cr0, [r0, #-0]
    259c:	01500f3c 	cmpeq	r0, ip, lsr pc
    25a0:	000013b0 			; <UNDEFINED> instruction: 0x000013b0
    25a4:	00000708 	andeq	r0, r0, r8, lsl #14
    25a8:	0150011e 	cmpeq	r0, lr, lsl r1
    25ac:	402e0031 	eormi	r0, lr, r1, lsr r0
    25b0:	c201500f 	andgt	r5, r1, #15
    25b4:	00000013 	andeq	r0, r0, r3, lsl r0
    25b8:	0f001d00 	svceq	0x00001d00
    25bc:	13d40150 	bicsne	r0, r4, #80, 2
    25c0:	072e0000 	streq	r0, [lr, -r0]!
    25c4:	011e0000 	tsteq	lr, r0
    25c8:	01f30350 	mvnseq	r0, r0, asr r3
    25cc:	51011e50 	tstpl	r1, r0, asr lr
    25d0:	00380802 	eorseq	r0, r8, r2, lsl #16
    25d4:	500f042e 	andpl	r0, pc, lr, lsr #8
    25d8:	0013c201 	andseq	ip, r3, r1, lsl #4
    25dc:	0f142e00 	svceq	0x00142e00
    25e0:	13c20150 	bicne	r0, r2, #80, 2
    25e4:	26000000 	strcs	r0, [r0], -r0
    25e8:	000001db 	ldrdeq	r0, [r0], -fp
    25ec:	01500fbc 	ldrheq	r0, [r0, #-252]	; 0xffffff04
    25f0:	00000008 	andeq	r0, r0, r8
    25f4:	07679c01 	strbeq	r9, [r7, -r1, lsl #24]!
    25f8:	eb270000 	bl	9c2600 <_back_addr-0xb3da00>
    25fc:	9d000001 	stcls	0, cr0, [r0, #-4]
    2600:	29000015 	stmdbcs	r0, {r0, r2, r4}
    2604:	000001f6 	strdeq	r0, [r0], -r6
    2608:	000015be 			; <UNDEFINED> instruction: 0x000015be
    260c:	0a202f00 	beq	80e214 <_back_addr-0xcf1dec>
    2610:	52010000 	andpl	r0, r1, #0
    2614:	00000033 	andeq	r0, r0, r3, lsr r0
    2618:	01500fc4 	cmpeq	r0, r4, asr #31
    261c:	00000270 	andeq	r0, r0, r0, ror r2
    2620:	0a539c01 	beq	14e962c <_back_addr-0x169d4>
    2624:	f9300000 			; <UNDEFINED> instruction: 0xf9300000
    2628:	01000009 	tsteq	r0, r9
    262c:	00005352 	andeq	r5, r0, r2, asr r3
    2630:	00161800 	andseq	r1, r6, r0, lsl #16
    2634:	09753100 	ldmdbeq	r5!, {r8, ip, sp}^
    2638:	54010000 	strpl	r0, [r1], #-0
    263c:	00000137 	andeq	r0, r0, r7, lsr r1
    2640:	32609102 	rsbcc	r9, r0, #-2147483648	; 0x80000000
    2644:	54010069 	strpl	r0, [r1], #-105	; 0x69
    2648:	00000053 	andeq	r0, r0, r3, asr r0
    264c:	00001663 	andeq	r1, r0, r3, ror #12
    2650:	00015233 	andeq	r5, r1, r3, lsr r2
    2654:	500fcc00 	andpl	ip, pc, r0, lsl #24
    2658:	00021801 	andeq	r1, r2, r1, lsl #16
    265c:	d6570100 	ldrble	r0, [r7], -r0, lsl #2
    2660:	27000007 	strcs	r0, [r0, -r7]
    2664:	00000162 	andeq	r0, r0, r2, ror #2
    2668:	00001677 	andeq	r1, r0, r7, ror r6
    266c:	00023824 	andeq	r3, r2, r4, lsr #16
    2670:	01622700 	cmneq	r2, r0, lsl #14
    2674:	16b20000 	ldrtne	r0, [r2], r0
    2678:	00000000 	andeq	r0, r0, r0
    267c:	00015233 	andeq	r5, r1, r3, lsr r2
    2680:	50100800 	andspl	r0, r0, r0, lsl #16
    2684:	00025001 	andeq	r5, r2, r1
    2688:	02580100 	subseq	r0, r8, #0, 2
    268c:	27000008 	strcs	r0, [r0, -r8]
    2690:	00000162 	andeq	r0, r0, r2, ror #2
    2694:	000016cb 	andeq	r1, r0, fp, asr #13
    2698:	00026824 	andeq	r6, r2, r4, lsr #16
    269c:	01623400 	cmneq	r2, r0, lsl #8
    26a0:	70030000 	andvc	r0, r3, r0
    26a4:	00009f1c 	andeq	r9, r0, ip, lsl pc
    26a8:	00016e33 	andeq	r6, r1, r3, lsr lr
    26ac:	50101c00 	andspl	r1, r0, r0, lsl #24
    26b0:	00028001 	andeq	r8, r2, r1
    26b4:	38580100 	ldmdacc	r8, {r8}^
    26b8:	35000008 	strcc	r0, [r0, #-8]
    26bc:	00000185 	andeq	r0, r0, r5, lsl #3
    26c0:	00017a27 	andeq	r7, r1, r7, lsr #20
    26c4:	00171c00 	andseq	r1, r7, r0, lsl #24
    26c8:	02982400 	addseq	r2, r8, #0, 8
    26cc:	85350000 	ldrhi	r0, [r5, #-0]!
    26d0:	27000001 	strcs	r0, [r0, -r1]
    26d4:	0000017a 	andeq	r0, r0, sl, ror r1
    26d8:	00001767 	andeq	r1, r0, r7, ror #14
    26dc:	52330000 	eorspl	r0, r3, #0
    26e0:	2c000001 	stccs	0, cr0, [r0], {1}
    26e4:	b0015010 	andlt	r5, r1, r0, lsl r0
    26e8:	01000002 	tsteq	r0, r2
    26ec:	00086459 	andeq	r6, r8, r9, asr r4
    26f0:	01622700 	cmneq	r2, r0, lsl #14
    26f4:	177a0000 	ldrbne	r0, [sl, -r0]!
    26f8:	c8240000 	stmdagt	r4!, {}	; <UNPREDICTABLE>
    26fc:	27000002 	strcs	r0, [r0, -r2]
    2700:	00000162 	andeq	r0, r0, r2, ror #2
    2704:	000017cb 	andeq	r1, r0, fp, asr #15
    2708:	6e330000 	cdpvs	0, 3, cr0, cr3, cr0, {0}
    270c:	3c000001 	stccc	0, cr0, [r0], {1}
    2710:	e0015010 	and	r5, r1, r0, lsl r0
    2714:	01000002 	tsteq	r0, r2
    2718:	00089a59 	andeq	r9, r8, r9, asr sl
    271c:	01853500 	orreq	r3, r5, r0, lsl #10
    2720:	7a270000 	bvc	9c2728 <_back_addr-0xb3d8d8>
    2724:	e0000001 	and	r0, r0, r1
    2728:	24000017 	strcs	r0, [r0], #-23
    272c:	000002f8 	strdeq	r0, [r0], -r8
    2730:	00018535 	andeq	r8, r1, r5, lsr r5
    2734:	017a2700 	cmneq	sl, r0, lsl #14
    2738:	18310000 	ldmdane	r1!, {}	; <UNPREDICTABLE>
    273c:	00000000 	andeq	r0, r0, r0
    2740:	00015233 	andeq	r5, r1, r3, lsr r2
    2744:	50105400 	andspl	r5, r0, r0, lsl #8
    2748:	00031001 	andeq	r1, r3, r1
    274c:	c65a0100 	ldrbgt	r0, [sl], -r0, lsl #2
    2750:	27000008 	strcs	r0, [r0, -r8]
    2754:	00000162 	andeq	r0, r0, r2, ror #2
    2758:	00001846 	andeq	r1, r0, r6, asr #16
    275c:	00032824 	andeq	r2, r3, r4, lsr #16
    2760:	01622700 	cmneq	r2, r0, lsl #14
    2764:	18970000 	ldmne	r7, {}	; <UNPREDICTABLE>
    2768:	00000000 	andeq	r0, r0, r0
    276c:	00016e33 	andeq	r6, r1, r3, lsr lr
    2770:	50106400 	andspl	r6, r0, r0, lsl #8
    2774:	00034001 	andeq	r4, r3, r1
    2778:	fc5a0100 	mrrc2	1, 0, r0, sl, cr0
    277c:	35000008 	strcc	r0, [r0, #-8]
    2780:	00000185 	andeq	r0, r0, r5, lsl #3
    2784:	00017a27 	andeq	r7, r1, r7, lsr #20
    2788:	0018ac00 	andseq	sl, r8, r0, lsl #24
    278c:	03582400 	cmpeq	r8, #0, 8
    2790:	85350000 	ldrhi	r0, [r5, #-0]!
    2794:	27000001 	strcs	r0, [r0, -r1]
    2798:	0000017a 	andeq	r0, r0, sl, ror r1
    279c:	000018fd 	strdeq	r1, [r0], -sp
    27a0:	52330000 	eorspl	r0, r3, #0
    27a4:	7c000001 	stcvc	0, cr0, [r0], {1}
    27a8:	70015010 	andvc	r5, r1, r0, lsl r0
    27ac:	01000003 	tsteq	r0, r3
    27b0:	0009285b 	andeq	r2, r9, fp, asr r8
    27b4:	01622700 	cmneq	r2, r0, lsl #14
    27b8:	19120000 	ldmdbne	r2, {}	; <UNPREDICTABLE>
    27bc:	88240000 	stmdahi	r4!, {}	; <UNPREDICTABLE>
    27c0:	27000003 	strcs	r0, [r0, -r3]
    27c4:	00000162 	andeq	r0, r0, r2, ror #2
    27c8:	00001963 	andeq	r1, r0, r3, ror #18
    27cc:	6e330000 	cdpvs	0, 3, cr0, cr3, cr0, {0}
    27d0:	8c000001 	stchi	0, cr0, [r0], {1}
    27d4:	a0015010 	andge	r5, r1, r0, lsl r0
    27d8:	01000003 	tsteq	r0, r3
    27dc:	00095e5b 	andeq	r5, r9, fp, asr lr
    27e0:	01853500 	orreq	r3, r5, r0, lsl #10
    27e4:	7a270000 	bvc	9c27ec <_back_addr-0xb3d814>
    27e8:	78000001 	stmdavc	r0, {r0}
    27ec:	24000019 	strcs	r0, [r0], #-25
    27f0:	000003b8 			; <UNDEFINED> instruction: 0x000003b8
    27f4:	00018535 	andeq	r8, r1, r5, lsr r5
    27f8:	017a2700 	cmneq	sl, r0, lsl #14
    27fc:	19c90000 	stmibne	r9, {}^	; <UNPREDICTABLE>
    2800:	00000000 	andeq	r0, r0, r0
    2804:	00016e33 	andeq	r6, r1, r3, lsr lr
    2808:	5010a400 	andspl	sl, r0, r0, lsl #8
    280c:	0003d001 	andeq	sp, r3, r1
    2810:	9c5c0100 	ldflse	f0, [ip], {-0}
    2814:	27000009 	strcs	r0, [r0, -r9]
    2818:	00000185 	andeq	r0, r0, r5, lsl #3
    281c:	000019de 	ldrdeq	r1, [r0], -lr
    2820:	00017a27 	andeq	r7, r1, r7, lsr #20
    2824:	0019fc00 	andseq	pc, r9, r0, lsl #24
    2828:	03f02400 	mvnseq	r2, #0, 8
    282c:	85270000 	strhi	r0, [r7, #-0]!
    2830:	4d000001 	stcmi	0, cr0, [r0, #-4]
    2834:	2700001a 	smladcs	r0, sl, r0, r0
    2838:	0000017a 	andeq	r0, r0, sl, ror r1
    283c:	00001a60 	andeq	r1, r0, r0, ror #20
    2840:	6e330000 	cdpvs	0, 3, cr0, cr3, cr0, {0}
    2844:	b4000001 	strlt	r0, [r0], #-1
    2848:	08015010 	stmdaeq	r1, {r4, ip, lr}
    284c:	01000004 	tsteq	r0, r4
    2850:	0009da5d 	andeq	sp, r9, sp, asr sl
    2854:	01852700 	orreq	r2, r5, r0, lsl #14
    2858:	1a750000 	bne	1d42860 <__bss_end__+0x82ed20>
    285c:	7a270000 	bvc	9c2864 <_back_addr-0xb3d79c>
    2860:	93000001 	movwls	r0, #1
    2864:	2400001a 	strcs	r0, [r0], #-26
    2868:	00000428 	andeq	r0, r0, r8, lsr #8
    286c:	00018527 	andeq	r8, r1, r7, lsr #10
    2870:	001ae400 	andseq	lr, sl, r0, lsl #8
    2874:	017a2700 	cmneq	sl, r0, lsl #14
    2878:	1af70000 	bne	ffdc2880 <__bss_end__+0xfe8aed40>
    287c:	00000000 	andeq	r0, r0, r0
    2880:	00016e33 	andeq	r6, r1, r3, lsr lr
    2884:	5010c400 	andspl	ip, r0, r0, lsl #8
    2888:	00044001 	andeq	r4, r4, r1
    288c:	185e0100 	ldmdane	lr, {r8}^
    2890:	2700000a 	strcs	r0, [r0, -sl]
    2894:	00000185 	andeq	r0, r0, r5, lsl #3
    2898:	00001b0c 	andeq	r1, r0, ip, lsl #22
    289c:	00017a27 	andeq	r7, r1, r7, lsr #20
    28a0:	001b2a00 	andseq	r2, fp, r0, lsl #20
    28a4:	04602400 	strbteq	r2, [r0], #-1024	; 0x400
    28a8:	85270000 	strhi	r0, [r7, #-0]!
    28ac:	7b000001 	blvc	28b8 <_back_addr-0x14fd748>
    28b0:	2700001b 	smladcs	r0, fp, r0, r0
    28b4:	0000017a 	andeq	r0, r0, sl, ror r1
    28b8:	00001b8e 	andeq	r1, r0, lr, lsl #23
    28bc:	6e360000 	cdpvs	0, 3, cr0, cr6, cr0, {0}
    28c0:	d4000001 	strle	r0, [r0], #-1
    28c4:	78015010 	stmdavc	r1, {r4, ip, lr}
    28c8:	01000004 	tsteq	r0, r4
    28cc:	0185275f 	orreq	r2, r5, pc, asr r7
    28d0:	1ba30000 	blne	fe8c28d8 <__bss_end__+0xfd3aed98>
    28d4:	7a270000 	bvc	9c28dc <_back_addr-0xb3d724>
    28d8:	c1000001 	tstgt	r0, r1
    28dc:	2400001b 	strcs	r0, [r0], #-27
    28e0:	000004a0 	andeq	r0, r0, r0, lsr #9
    28e4:	00018527 	andeq	r8, r1, r7, lsr #10
    28e8:	001c0500 	andseq	r0, ip, r0, lsl #10
    28ec:	017a2700 	cmneq	sl, r0, lsl #14
    28f0:	1c180000 	ldcne	0, cr0, [r8], {-0}
    28f4:	00000000 	andeq	r0, r0, r0
    28f8:	0a9c2f00 	beq	fe70e500 <__bss_end__+0xfd1fa9c0>
    28fc:	64010000 	strvs	r0, [r1], #-0
    2900:	00000033 	andeq	r0, r0, r3, lsr r0
    2904:	01501234 	cmpeq	r0, r4, lsr r2
    2908:	00000090 	muleq	r0, r0, r0
    290c:	0ad39c01 	beq	ff4e9918 <__bss_end__+0xfdfd5dd8>
    2910:	5f300000 	svcpl	0x00300000
    2914:	01000009 	tsteq	r0, r9
    2918:	000ad364 	andeq	sp, sl, r4, ror #6
    291c:	001c3e00 	andseq	r3, ip, r0, lsl #28
    2920:	09af3000 	stmibeq	pc!, {ip, sp}	; <UNPREDICTABLE>
    2924:	64010000 	strvs	r0, [r1], #-0
    2928:	00000053 	andeq	r0, r0, r3, asr r0
    292c:	00001c81 	andeq	r1, r0, r1, lsl #25
    2930:	0008e330 	andeq	lr, r8, r0, lsr r3
    2934:	d3640100 	cmnle	r4, #0, 2
    2938:	c400000a 	strgt	r0, [r0], #-10
    293c:	3700001c 	smladcc	r0, ip, r0, r0
    2940:	0079656b 	rsbseq	r6, r9, fp, ror #10
    2944:	0ad96401 	beq	ff65b950 <__bss_end__+0xfe147e10>
    2948:	1d070000 	stcne	0, cr0, [r7, #-0]
    294c:	4e380000 	cdpmi	0, 3, cr0, cr8, cr0, {0}
    2950:	0100000a 	tsteq	r0, sl
    2954:	0001d566 	andeq	sp, r1, r6, ror #10
    2958:	001d3e00 	andseq	r3, sp, r0, lsl #28
    295c:	124c2e00 	subne	r2, ip, #0, 28
    2960:	02020150 	andeq	r0, r2, #80, 2
    2964:	9c390000 	ldcls	0, cr0, [r9], #-0
    2968:	91015012 	tstls	r1, r2, lsl r0
    296c:	2e000001 	cdpcs	0, 0, cr0, cr0, cr1, {0}
    2970:	015012a0 	cmpeq	r0, r0, lsr #5
    2974:	00000267 	andeq	r0, r0, r7, ror #4
    2978:	6f040600 	svcvs	0x00040600
    297c:	06000000 	streq	r0, [r0], -r0
    2980:	00005304 	andeq	r5, r0, r4, lsl #6
    2984:	099f2f00 	ldmibeq	pc, {r8, r9, sl, fp, sp}	; <UNPREDICTABLE>
    2988:	7f010000 	svcvc	0x00010000
    298c:	00000033 	andeq	r0, r0, r3, lsr r0
    2990:	015012c4 	cmpeq	r0, r4, asr #5
    2994:	00000090 	muleq	r0, r0, r0
    2998:	0b5f9c01 	bleq	17e99a4 <__bss_end__+0x2d5e64>
    299c:	5f300000 	svcpl	0x00300000
    29a0:	01000009 	tsteq	r0, r9
    29a4:	000ad37f 	andeq	sp, sl, pc, ror r3
    29a8:	001d9300 	andseq	r9, sp, r0, lsl #6
    29ac:	09af3000 	stmibeq	pc!, {ip, sp}	; <UNPREDICTABLE>
    29b0:	7f010000 	svcvc	0x00010000
    29b4:	00000053 	andeq	r0, r0, r3, asr r0
    29b8:	00001dd6 	ldrdeq	r1, [r0], -r6
    29bc:	0008e330 	andeq	lr, r8, r0, lsr r3
    29c0:	d37f0100 	cmnle	pc, #0, 2
    29c4:	1900000a 	stmdbne	r0, {r1, r3}
    29c8:	3700001e 	smladcc	r0, lr, r0, r0
    29cc:	0079656b 	rsbseq	r6, r9, fp, ror #10
    29d0:	0ad97f01 	beq	ff6625dc <__bss_end__+0xfe14ea9c>
    29d4:	1e5c0000 	cdpne	0, 5, cr0, cr12, cr0, {0}
    29d8:	4e380000 	cdpmi	0, 3, cr0, cr8, cr0, {0}
    29dc:	0100000a 	tsteq	r0, sl
    29e0:	0001d581 	andeq	sp, r1, r1, lsl #11
    29e4:	001e9300 	andseq	r9, lr, r0, lsl #6
    29e8:	12dc2e00 	sbcsne	r2, ip, #0, 28
    29ec:	02020150 	andeq	r0, r2, #80, 2
    29f0:	2c390000 	ldccs	0, cr0, [r9], #-0
    29f4:	91015013 	tstls	r1, r3, lsl r0
    29f8:	2e000001 	cdpcs	0, 0, cr0, cr0, cr1, {0}
    29fc:	01501330 	cmpeq	r0, r0, lsr r3
    2a00:	00000267 	andeq	r0, r0, r7, ror #4
    2a04:	05302f00 	ldreq	r2, [r0, #-3840]!	; 0xf00
    2a08:	9a010000 	bls	42a10 <_back_addr-0x14bd5f0>
    2a0c:	00000033 	andeq	r0, r0, r3, lsr r0
    2a10:	01501354 	cmpeq	r0, r4, asr r3
    2a14:	00000094 	muleq	r0, r4, r0
    2a18:	0bdf9c01 	bleq	ff7e9a24 <__bss_end__+0xfe2d5ee4>
    2a1c:	5f300000 	svcpl	0x00300000
    2a20:	01000009 	tsteq	r0, r9
    2a24:	000ad39a 	muleq	sl, sl, r3
    2a28:	001ee800 	andseq	lr, lr, r0, lsl #16
    2a2c:	09af3000 	stmibeq	pc!, {ip, sp}	; <UNPREDICTABLE>
    2a30:	9a010000 	bls	42a38 <_back_addr-0x14bd5c8>
    2a34:	00000053 	andeq	r0, r0, r3, asr r0
    2a38:	00001f2b 	andeq	r1, r0, fp, lsr #30
    2a3c:	0008e330 	andeq	lr, r8, r0, lsr r3
    2a40:	d39a0100 	orrsle	r0, sl, #0, 2
    2a44:	6e00000a 	cdpvs	0, 0, cr0, cr0, cr10, {0}
    2a48:	3700001f 	smladcc	r0, pc, r0, r0	; <UNPREDICTABLE>
    2a4c:	0079656b 	rsbseq	r6, r9, fp, ror #10
    2a50:	0ad99a01 	beq	ff66925c <__bss_end__+0xfe15571c>
    2a54:	1fb10000 	svcne	0x00b10000
    2a58:	4e380000 	cdpmi	0, 3, cr0, cr8, cr0, {0}
    2a5c:	0100000a 	tsteq	r0, sl
    2a60:	0001d59c 	muleq	r1, ip, r5
    2a64:	001fe800 	andseq	lr, pc, r0, lsl #16
    2a68:	136c2e00 	cmnne	ip, #0, 28
    2a6c:	02020150 	andeq	r0, r2, #80, 2
    2a70:	bc390000 	ldclt	0, cr0, [r9], #-0
    2a74:	91015013 	tstls	r1, r3, lsl r0
    2a78:	2e000001 	cdpcs	0, 0, cr0, cr0, cr1, {0}
    2a7c:	015013c0 	cmpeq	r0, r0, asr #7
    2a80:	00000267 	andeq	r0, r0, r7, ror #4
    2a84:	07412f00 	strbeq	r2, [r1, -r0, lsl #30]
    2a88:	b7010000 	strlt	r0, [r1, -r0]
    2a8c:	00000033 	andeq	r0, r0, r3, lsr r0
    2a90:	015013e8 	cmpeq	r0, r8, ror #7
    2a94:	000000ec 	andeq	r0, r0, ip, ror #1
    2a98:	0cfc9c01 	ldcleq	12, cr9, [ip], #4
    2a9c:	5f300000 	svcpl	0x00300000
    2aa0:	01000009 	tsteq	r0, r9
    2aa4:	000ad3b7 			; <UNDEFINED> instruction: 0x000ad3b7
    2aa8:	00203d00 	eoreq	r3, r0, r0, lsl #26
    2aac:	09af3000 	stmibeq	pc!, {ip, sp}	; <UNPREDICTABLE>
    2ab0:	b7010000 	strlt	r0, [r1, -r0]
    2ab4:	00000053 	andeq	r0, r0, r3, asr r0
    2ab8:	0000205b 	andeq	r2, r0, fp, asr r0
    2abc:	0008e330 	andeq	lr, r8, r0, lsr r3
    2ac0:	d3b70100 			; <UNDEFINED> instruction: 0xd3b70100
    2ac4:	7900000a 	stmdbvc	r0, {r1, r3}
    2ac8:	37000020 	strcc	r0, [r0, -r0, lsr #32]
    2acc:	0079656b 	rsbseq	r6, r9, fp, ror #10
    2ad0:	0ad9b701 	beq	ff6706dc <__bss_end__+0xfe15cb9c>
    2ad4:	20970000 	addscs	r0, r7, r0
    2ad8:	72320000 	eorsvc	r0, r2, #0
    2adc:	01007465 	tsteq	r0, r5, ror #8
    2ae0:	000033b9 			; <UNDEFINED> instruction: 0x000033b9
    2ae4:	0020b500 	eoreq	fp, r0, r0, lsl #10
    2ae8:	0a4e3800 	beq	1390af0 <_back_addr-0x16f510>
    2aec:	ba010000 	blt	42af4 <_back_addr-0x14bd50c>
    2af0:	000001d5 	ldrdeq	r0, [r0], -r5
    2af4:	000020e0 	andeq	r2, r0, r0, ror #1
    2af8:	0009683a 	andeq	r6, r9, sl, lsr r8
    2afc:	000cfc00 	andeq	pc, ip, r0, lsl #24
    2b00:	0c030500 	cfstr32eq	mvfx0, [r3], {-0}
    2b04:	2e015031 	mcrcs	0, 0, r5, cr1, cr1, {1}
    2b08:	01501400 	cmpeq	r0, r0, lsl #8
    2b0c:	00000202 	andeq	r0, r0, r2, lsl #4
    2b10:	50144c1d 	andspl	r4, r4, sp, lsl ip
    2b14:	00019101 	andeq	r9, r1, r1, lsl #2
    2b18:	000c7e00 	andeq	r7, ip, r0, lsl #28
    2b1c:	50011e00 	andpl	r1, r1, r0, lsl #28
    2b20:	00007402 	andeq	r7, r0, r2, lsl #8
    2b24:	5014681d 	andspl	r6, r4, sp, lsl r8
    2b28:	0013d401 	andseq	sp, r3, r1, lsl #8
    2b2c:	000c9800 	andeq	r9, ip, r0, lsl #16
    2b30:	50011e00 	andpl	r1, r1, r0, lsl #28
    2b34:	1e007602 	cfmadd32ne	mvax0, mvfx7, mvfx0, mvfx2
    2b38:	77025101 	strvc	r5, [r2, -r1, lsl #2]
    2b3c:	742e0000 	strtvc	r0, [lr], #-0
    2b40:	67015014 	smladvs	r1, r4, r0, r5
    2b44:	1d000002 	stcne	0, cr0, [r0, #-8]
    2b48:	015014a4 	cmpeq	r0, r4, lsr #9
    2b4c:	000013eb 	andeq	r1, r0, fp, ror #7
    2b50:	00000cd0 	ldrdeq	r0, [r0], -r0	; <UNPREDICTABLE>
    2b54:	0550011e 	ldrbeq	r0, [r0, #-286]	; 0x11e
    2b58:	50313403 	eorspl	r3, r1, r3, lsl #8
    2b5c:	51011e01 	tstpl	r1, r1, lsl #28
    2b60:	312c0305 	teqcc	ip, r5, lsl #6
    2b64:	011e0150 	tsteq	lr, r0, asr r1
    2b68:	0c030552 	cfstr32eq	mvfx0, [r3], {82}	; 0x52
    2b6c:	1e015031 	mcrne	0, 0, r5, cr1, cr1, {1}
    2b70:	08025301 	stmdaeq	r2, {r0, r8, r9, ip, lr}
    2b74:	cc1f00c4 	ldcgt	0, cr0, [pc], {196}	; 0xc4
    2b78:	eb015014 	bl	56bd0 <_back_addr-0x14a9430>
    2b7c:	1e000013 	mcrne	0, 0, r0, cr0, cr3, {0}
    2b80:	03055001 	movweq	r5, #20481	; 0x5001
    2b84:	01503134 	cmpeq	r0, r4, lsr r1
    2b88:	0551011e 	ldrbeq	r0, [r1, #-286]	; 0x11e
    2b8c:	50312c03 	eorspl	r2, r1, r3, lsl #24
    2b90:	52011e01 	andpl	r1, r1, #1, 28
    2b94:	310c0305 	tstcc	ip, r5, lsl #6
    2b98:	011e0150 	tsteq	lr, r0, asr r1
    2b9c:	be080253 	mcrlt	2, 0, r0, cr8, cr3, {2}
    2ba0:	9c070000 	stcls	0, cr0, [r7], {-0}
    2ba4:	2f000000 	svccs	0x00000000
    2ba8:	000008ec 	andeq	r0, r0, ip, ror #17
    2bac:	0033e401 	eorseq	lr, r3, r1, lsl #8
    2bb0:	14d40000 	ldrbne	r0, [r4], #0
    2bb4:	00700150 	rsbseq	r0, r0, r0, asr r1
    2bb8:	9c010000 	stcls	0, cr0, [r1], {-0}
    2bbc:	00000d69 	andeq	r0, r0, r9, ror #26
    2bc0:	00095f30 	andeq	r5, r9, r0, lsr pc
    2bc4:	d3e40100 	mvnle	r0, #0, 2
    2bc8:	2a00000a 	bcs	2bf8 <_back_addr-0x14fd408>
    2bcc:	30000021 	andcc	r0, r0, r1, lsr #32
    2bd0:	000009af 	andeq	r0, r0, pc, lsr #19
    2bd4:	0053e401 	subseq	lr, r3, r1, lsl #8
    2bd8:	216d0000 	cmncs	sp, r0
    2bdc:	e3300000 	teq	r0, #0
    2be0:	01000008 	tsteq	r0, r8
    2be4:	000ad3e4 	andeq	sp, sl, r4, ror #7
    2be8:	0021b000 	eoreq	fp, r1, r0
    2bec:	0a4e3800 	beq	1390bf4 <_back_addr-0x16f40c>
    2bf0:	e6010000 	str	r0, [r1], -r0
    2bf4:	000001d5 	ldrdeq	r0, [r0], -r5
    2bf8:	000021f3 	strdeq	r2, [r0], -r3
    2bfc:	5014e82e 	andspl	lr, r4, lr, lsr #16
    2c00:	00020201 	andeq	r0, r2, r1, lsl #4
    2c04:	153c3900 	ldrne	r3, [ip, #-2304]!	; 0x900
    2c08:	01910150 	orrseq	r0, r1, r0, asr r1
    2c0c:	3b000000 	blcc	2c14 <_back_addr-0x14fd3ec>
    2c10:	000009c0 	andeq	r0, r0, r0, asr #19
    2c14:	0102d301 	tsteq	r2, r1, lsl #6
    2c18:	00000d8f 	andeq	r0, r0, pc, lsl #27
    2c1c:	000a4e14 	andeq	r4, sl, r4, lsl lr
    2c20:	02d30100 	sbcseq	r0, r3, #0, 2
    2c24:	000001d5 	ldrdeq	r0, [r0], -r5
    2c28:	0009cf14 	andeq	ip, r9, r4, lsl pc
    2c2c:	02d30100 	sbcseq	r0, r3, #0, 2
    2c30:	00000ad3 	ldrdeq	r0, [r0], -r3
    2c34:	09d62f00 	ldmibeq	r6, {r8, r9, sl, fp, sp}^
    2c38:	f9010000 			; <UNDEFINED> instruction: 0xf9010000
    2c3c:	00000033 	andeq	r0, r0, r3, lsr r0
    2c40:	01501544 	cmpeq	r0, r4, asr #10
    2c44:	00000158 	andeq	r0, r0, r8, asr r1
    2c48:	0e529c01 	cdpeq	12, 5, cr9, cr2, cr1, {0}
    2c4c:	5f300000 	svcpl	0x00300000
    2c50:	01000009 	tsteq	r0, r9
    2c54:	000ad3f9 	strdeq	sp, [sl], -r9
    2c58:	00221c00 	eoreq	r1, r2, r0, lsl #24
    2c5c:	09af3000 	stmibeq	pc!, {ip, sp}	; <UNPREDICTABLE>
    2c60:	f9010000 			; <UNDEFINED> instruction: 0xf9010000
    2c64:	00000053 	andeq	r0, r0, r3, asr r0
    2c68:	00002261 	andeq	r2, r0, r1, ror #4
    2c6c:	0008e330 	andeq	lr, r8, r0, lsr r3
    2c70:	d3f90100 	mvnsle	r0, #0, 2
    2c74:	8a00000a 	bhi	2ca4 <_back_addr-0x14fd35c>
    2c78:	30000022 	andcc	r0, r0, r2, lsr #32
    2c7c:	00000889 	andeq	r0, r0, r9, lsl #17
    2c80:	0053f901 	subseq	pc, r3, r1, lsl #18
    2c84:	22c10000 	sbccs	r0, r1, #0
    2c88:	4e380000 	cdpmi	0, 3, cr0, cr8, cr0, {0}
    2c8c:	0100000a 	tsteq	r0, sl
    2c90:	0001d5fb 	strdeq	sp, [r1], -fp
    2c94:	0022ea00 	eoreq	lr, r2, r0, lsl #20
    2c98:	0a7c3800 	beq	1f10ca0 <__bss_end__+0x9fd160>
    2c9c:	fc010000 	stc2	0, cr0, [r1], {-0}
    2ca0:	00000ad3 	ldrdeq	r0, [r0], -r3
    2ca4:	00002308 	andeq	r2, r0, r8, lsl #6
    2ca8:	73657232 	cmnvc	r5, #536870915	; 0x20000003
    2cac:	33fd0100 	mvnscc	r0, #0, 2
    2cb0:	1b000000 	blne	2cb8 <_back_addr-0x14fd348>
    2cb4:	21000023 	tstcs	r0, r3, lsr #32
    2cb8:	00000d69 	andeq	r0, r0, r9, ror #26
    2cbc:	015015c4 	cmpeq	r0, r4, asr #11
    2cc0:	000004b8 			; <UNDEFINED> instruction: 0x000004b8
    2cc4:	38011e01 	stmdacc	r1, {r0, r9, sl, fp, ip}
    2cc8:	2700000e 	strcs	r0, [r0, -lr]
    2ccc:	00000d82 	andeq	r0, r0, r2, lsl #27
    2cd0:	0000233b 	andeq	r2, r0, fp, lsr r3
    2cd4:	000d7627 	andeq	r7, sp, r7, lsr #12
    2cd8:	00235900 	eoreq	r5, r3, r0, lsl #18
    2cdc:	742e0000 	strtvc	r0, [lr], #-0
    2ce0:	02015015 	andeq	r5, r1, #21
    2ce4:	1f000002 	svcne	0x00000002
    2ce8:	01501674 	cmpeq	r0, r4, ror r6
    2cec:	00000191 	muleq	r0, r1, r1
    2cf0:	0250011e 	subseq	r0, r0, #-2147483641	; 0x80000007
    2cf4:	00000075 	andeq	r0, r0, r5, ror r0
    2cf8:	000a5b3c 	andeq	r5, sl, ip, lsr fp
    2cfc:	01290100 	teqeq	r9, r0, lsl #2
    2d00:	00000033 	andeq	r0, r0, r3, lsr r0
    2d04:	0150169c 			; <UNDEFINED> instruction: 0x0150169c
    2d08:	000000cc 	andeq	r0, r0, ip, asr #1
    2d0c:	0ece9c01 	cdpeq	12, 12, cr9, cr14, cr1, {0}
    2d10:	5f3d0000 	svcpl	0x003d0000
    2d14:	01000009 	tsteq	r0, r9
    2d18:	0ad30129 	beq	ff4c31c4 <__bss_end__+0xfdfaf684>
    2d1c:	23770000 	cmncs	r7, #0
    2d20:	af3d0000 	svcge	0x003d0000
    2d24:	01000009 	tsteq	r0, r9
    2d28:	00530129 	subseq	r0, r3, r9, lsr #2
    2d2c:	23de0000 	bicscs	r0, lr, #0
    2d30:	e33d0000 	teq	sp, #0
    2d34:	01000008 	tsteq	r0, r8
    2d38:	0ad30129 	beq	ff4c31e4 <__bss_end__+0xfdfaf6a4>
    2d3c:	24370000 	ldrtcs	r0, [r7], #-0
    2d40:	693e0000 	ldmdbvs	lr!, {}	; <UNPREDICTABLE>
    2d44:	29010076 	stmdbcs	r1, {r1, r2, r4, r5, r6}
    2d48:	000ad901 	andeq	sp, sl, r1, lsl #18
    2d4c:	00249000 	eoreq	r9, r4, r0
    2d50:	0a4e3f00 	beq	1392958 <_back_addr-0x16d6a8>
    2d54:	2b010000 	blcs	42d5c <_back_addr-0x14bd2a4>
    2d58:	0001d501 	andeq	sp, r1, r1, lsl #10
    2d5c:	0024dd00 	eoreq	sp, r4, r0, lsl #26
    2d60:	16c02e00 	strbne	r2, [r0], r0, lsl #28
    2d64:	02020150 	andeq	r0, r2, #80, 2
    2d68:	18390000 	ldmdane	r9!, {}	; <UNPREDICTABLE>
    2d6c:	91015017 	tstls	r1, r7, lsl r0
    2d70:	00000001 	andeq	r0, r0, r1
    2d74:	0008b53c 	andeq	fp, r8, ip, lsr r5
    2d78:	014e0100 	mrseq	r0, (UNDEF: 94)
    2d7c:	00000033 	andeq	r0, r0, r3, lsr r0
    2d80:	01501768 	cmpeq	r0, r8, ror #14
    2d84:	0000017c 	andeq	r0, r0, ip, ror r1
    2d88:	126a9c01 	rsbne	r9, sl, #256	; 0x100
    2d8c:	1a3d0000 	bne	f42d94 <_back_addr-0x5bd26c>
    2d90:	01000009 	tsteq	r0, r9
    2d94:	0ad3014e 	beq	ff4c32d4 <__bss_end__+0xfdfaf794>
    2d98:	251c0000 	ldrcs	r0, [ip, #-0]
    2d9c:	f53d0000 			; <UNDEFINED> instruction: 0xf53d0000
    2da0:	01000009 	tsteq	r0, r9
    2da4:	0ad3014e 	beq	ff4c32e4 <__bss_end__+0xfdfaf7a4>
    2da8:	25530000 	ldrbcs	r0, [r3, #-0]
    2dac:	363d0000 	ldrtcc	r0, [sp], -r0
    2db0:	0100000a 	tsteq	r0, sl
    2db4:	0ad3014e 	beq	ff4c32f4 <__bss_end__+0xfdfaf7b4>
    2db8:	258a0000 	strcs	r0, [sl]
    2dbc:	69150000 	ldmdbvs	r5, {}	; <UNPREDICTABLE>
    2dc0:	01510100 	cmpeq	r1, r0, lsl #2
    2dc4:	00000033 	andeq	r0, r0, r3, lsr r0
    2dc8:	000a111c 	andeq	r1, sl, ip, lsl r1
    2dcc:	01520100 	cmpeq	r2, r0, lsl #2
    2dd0:	0000126a 	andeq	r1, r0, sl, ror #4
    2dd4:	7df09103 	ldfvcp	f1, [r0, #12]!
    2dd8:	0009f03f 	andeq	pc, r9, pc, lsr r0	; <UNPREDICTABLE>
    2ddc:	01530100 	cmpeq	r3, r0, lsl #2
    2de0:	00000053 	andeq	r0, r0, r3, asr r0
    2de4:	000025a8 	andeq	r2, r0, r8, lsr #11
    2de8:	0008f940 	andeq	pc, r8, r0, asr #18
    2dec:	01540100 	cmpeq	r4, r0, lsl #2
    2df0:	0000128a 	andeq	r1, r0, sl, lsl #5
    2df4:	30313013 	eorscc	r3, r1, r3, lsl r0
    2df8:	6009060d 	andvs	r0, r9, sp, lsl #12
    2dfc:	65014886 	strvs	r4, [r1, #-2182]	; 0x886
    2e00:	01020403 	tsteq	r2, r3, lsl #8
    2e04:	20040005 	andcs	r0, r4, r5
    2e08:	0003dc41 	andeq	sp, r3, r1, asr #24
    2e0c:	015a0100 	cmpeq	sl, r0, lsl #2
    2e10:	00000033 	andeq	r0, r0, r3, lsr r0
    2e14:	00000f74 	andeq	r0, r0, r4, ror pc
    2e18:	0a410018 	beq	1042e80 <_back_addr-0x4bd180>
    2e1c:	01000005 	tsteq	r0, r5
    2e20:	0033016c 	eorseq	r0, r3, ip, ror #2
    2e24:	0f860000 	svceq	0x00860000
    2e28:	00180000 	andseq	r0, r8, r0
    2e2c:	000a4241 	andeq	r4, sl, r1, asr #4
    2e30:	016e0100 	cmneq	lr, r0, lsl #2
    2e34:	00000033 	andeq	r0, r0, r3, lsr r0
    2e38:	00000f98 	muleq	r0, r8, pc	; <UNPREDICTABLE>
    2e3c:	87410018 	smlaldhi	r0, r1, r8, r0
    2e40:	01000009 	tsteq	r0, r9
    2e44:	00330175 	eorseq	r0, r3, r5, ror r1
    2e48:	0faa0000 	svceq	0x00aa0000
    2e4c:	00180000 	andseq	r0, r8, r0
    2e50:	00016e21 	andeq	r6, r1, r1, lsr #28
    2e54:	50178400 	andspl	r8, r7, r0, lsl #8
    2e58:	0004d801 	andeq	sp, r4, r1, lsl #16
    2e5c:	01620100 	cmneq	r2, r0, lsl #2
    2e60:	00000fe5 	andeq	r0, r0, r5, ror #31
    2e64:	00018522 	andeq	r8, r1, r2, lsr #10
    2e68:	7a230200 	bvc	8c3670 <_back_addr-0xc3c990>
    2e6c:	88000001 	stmdahi	r0, {r0}
    2e70:	79c0939e 	stmibvc	r0, {r1, r2, r3, r4, r7, r8, r9, ip, pc}^
    2e74:	0004d824 	andeq	sp, r4, r4, lsr #16
    2e78:	01852200 	orreq	r2, r5, r0, lsl #4
    2e7c:	23020000 	movwcs	r0, #8192	; 0x2000
    2e80:	0000017a 	andeq	r0, r0, sl, ror r1
    2e84:	c0939e88 	addsgt	r9, r3, r8, lsl #29
    2e88:	21000079 	tstcs	r0, r9, ror r0
    2e8c:	0000016e 	andeq	r0, r0, lr, ror #2
    2e90:	01501794 			; <UNDEFINED> instruction: 0x01501794
    2e94:	000004f8 	strdeq	r0, [r0], -r8
    2e98:	20016301 	andcs	r6, r1, r1, lsl #6
    2e9c:	22000010 	andcs	r0, r0, #16
    2ea0:	00000185 	andeq	r0, r0, r5, lsl #3
    2ea4:	017a2300 	cmneq	sl, r0, lsl #6
    2ea8:	9f800000 	svcls	0x00800000
    2eac:	2479c093 	ldrbtcs	ip, [r9], #-147	; 0x93
    2eb0:	000004f8 	strdeq	r0, [r0], -r8
    2eb4:	00018522 	andeq	r8, r1, r2, lsr #10
    2eb8:	7a230000 	bvc	8c2ec0 <_back_addr-0xc3d140>
    2ebc:	80000001 	andhi	r0, r0, r1
    2ec0:	79c0939f 	stmibvc	r0, {r0, r1, r2, r3, r4, r7, r8, r9, ip, pc}^
    2ec4:	6e210000 	cdpvs	0, 2, cr0, cr1, cr0, {0}
    2ec8:	1c000001 	stcne	0, cr0, [r0], {1}
    2ecc:	10015018 	andne	r5, r1, r8, lsl r0
    2ed0:	01000005 	tsteq	r0, r5
    2ed4:	105f0181 	subsne	r0, pc, r1, lsl #3
    2ed8:	85270000 	strhi	r0, [r7, #-0]!
    2edc:	0c000001 	stceq	0, cr0, [r0], {1}
    2ee0:	27000026 	strcs	r0, [r0, -r6, lsr #32]
    2ee4:	0000017a 	andeq	r0, r0, sl, ror r1
    2ee8:	00002643 	andeq	r2, r0, r3, asr #12
    2eec:	00051024 	andeq	r1, r5, r4, lsr #32
    2ef0:	01852700 	orreq	r2, r5, r0, lsl #14
    2ef4:	260c0000 	strcs	r0, [ip], -r0
    2ef8:	7a270000 	bvc	9c2f00 <_back_addr-0xb3d100>
    2efc:	43000001 	movwmi	r0, #1
    2f00:	00000026 	andeq	r0, r0, r6, lsr #32
    2f04:	01522b00 	cmpeq	r2, r0, lsl #22
    2f08:	18340000 	ldmdane	r4!, {}	; <UNPREDICTABLE>
    2f0c:	00040150 	andeq	r0, r4, r0, asr r1
    2f10:	85010000 	strhi	r0, [r1, #-0]
    2f14:	00109001 	andseq	r9, r0, r1
    2f18:	01622700 	cmneq	r2, r0, lsl #14
    2f1c:	265b0000 	ldrbcs	r0, [fp], -r0
    2f20:	342c0000 	strtcc	r0, [ip], #-0
    2f24:	04015018 	streq	r5, [r1], #-24
    2f28:	27000000 	strcs	r0, [r0, -r0]
    2f2c:	00000162 	andeq	r0, r0, r2, ror #2
    2f30:	0000265b 	andeq	r2, r0, fp, asr r6
    2f34:	6e2b0000 	cdpvs	0, 2, cr0, cr11, cr0, {0}
    2f38:	3c000001 	stccc	0, cr0, [r0], {1}
    2f3c:	04015018 	streq	r5, [r1], #-24
    2f40:	01000000 	mrseq	r0, (UNDEF: 0)
    2f44:	10d30185 	sbcsne	r0, r3, r5, lsl #3
    2f48:	85270000 	strhi	r0, [r7, #-0]!
    2f4c:	73000001 	movwvc	r0, #1
    2f50:	27000026 	strcs	r0, [r0, -r6, lsr #32]
    2f54:	0000017a 	andeq	r0, r0, sl, ror r1
    2f58:	00002693 	muleq	r0, r3, r6
    2f5c:	50183c2c 	andspl	r3, r8, ip, lsr #24
    2f60:	00000401 	andeq	r0, r0, r1, lsl #8
    2f64:	01852700 	orreq	r2, r5, r0, lsl #14
    2f68:	26730000 	ldrbtcs	r0, [r3], -r0
    2f6c:	7a270000 	bvc	9c2f74 <_back_addr-0xb3d08c>
    2f70:	93000001 	movwls	r0, #1
    2f74:	00000026 	andeq	r0, r0, r6, lsr #32
    2f78:	01522100 	cmpeq	r2, r0, lsl #2
    2f7c:	18400000 	stmdane	r0, {}^	; <UNPREDICTABLE>
    2f80:	05280150 	streq	r0, [r8, #-336]!	; 0x150
    2f84:	86010000 	strhi	r0, [r1], -r0
    2f88:	00110001 	andseq	r0, r1, r1
    2f8c:	01622700 	cmneq	r2, r0, lsl #14
    2f90:	26ab0000 	strtcs	r0, [fp], r0
    2f94:	28240000 	stmdacs	r4!, {}	; <UNPREDICTABLE>
    2f98:	27000005 	strcs	r0, [r0, -r5]
    2f9c:	00000162 	andeq	r0, r0, r2, ror #2
    2fa0:	000026ab 	andeq	r2, r0, fp, lsr #13
    2fa4:	b42d0000 	strtlt	r0, [sp], #-0
    2fa8:	10015018 	andne	r5, r1, r8, lsl r0
    2fac:	33000000 	movwcc	r0, #0
    2fb0:	41000011 	tstmi	r0, r1, lsl r0
    2fb4:	0000030e 	andeq	r0, r0, lr, lsl #6
    2fb8:	33018a01 	movwcc	r8, #6657	; 0x1a01
    2fbc:	1f000000 	svcne	0x00000000
    2fc0:	18000011 	stmdane	r0, {r0, r4}
    2fc4:	18c01f00 	stmiane	r0, {r8, r9, sl, fp, ip}^
    2fc8:	14020150 	strne	r0, [r2], #-336	; 0x150
    2fcc:	011e0000 	tsteq	lr, r0
    2fd0:	44030550 	strmi	r0, [r3], #-1360	; 0x550
    2fd4:	00015031 	andeq	r5, r1, r1, lsr r0
    2fd8:	17842e00 	strne	r2, [r4, r0, lsl #28]
    2fdc:	13c20150 	bicne	r0, r2, #80, 2
    2fe0:	b81d0000 	ldmdalt	sp, {}	; <UNPREDICTABLE>
    2fe4:	14015017 	strne	r5, [r1], #-23
    2fe8:	57000014 	smladpl	r0, r4, r0, r0
    2fec:	1e000011 	mcrne	0, 0, r0, cr0, cr1, {0}
    2ff0:	75025101 	strvc	r5, [r2, #-257]	; 0x101
    2ff4:	52011e00 	andpl	r1, r1, #0, 28
    2ff8:	01000a03 	tsteq	r0, r3, lsl #20
    2ffc:	17c81d00 	strbne	r1, [r8, r0, lsl #26]
    3000:	13d40150 	bicsne	r0, r4, #80, 2
    3004:	116c0000 	cmnne	ip, r0
    3008:	011e0000 	tsteq	lr, r0
    300c:	000a0351 	andeq	r0, sl, r1, asr r3
    3010:	d81d0001 	ldmdale	sp, {r0}
    3014:	26015017 			; <UNDEFINED> instruction: 0x26015017
    3018:	8c000014 	stchi	0, cr0, [r0], {20}
    301c:	1e000011 	mcrne	0, 0, r0, cr0, cr1, {0}
    3020:	7d025001 	stcvc	0, cr5, [r2, #-4]
    3024:	51011e00 	tstpl	r1, r0, lsl #28
    3028:	011e3001 	tsteq	lr, r1
    302c:	000a0352 	andeq	r0, sl, r2, asr r3
    3030:	f81d0001 			; <UNDEFINED> instruction: 0xf81d0001
    3034:	14015017 	strne	r5, [r1], #-23
    3038:	a7000014 	smladge	r0, r4, r0, r0
    303c:	1e000011 	mcrne	0, 0, r0, cr0, cr1, {0}
    3040:	7d025101 	stfvcs	f5, [r2, #-4]
    3044:	52011e00 	andpl	r1, r1, #0, 28
    3048:	01000a03 	tsteq	r0, r3, lsl #20
    304c:	180c1d00 	stmdane	ip, {r8, sl, fp, ip}
    3050:	14140150 	ldrne	r0, [r4], #-336	; 0x150
    3054:	11c20000 	bicne	r0, r2, r0
    3058:	011e0000 	tsteq	lr, r0
    305c:	00740251 	rsbseq	r0, r4, r1, asr r2
    3060:	0352011e 	cmpeq	r2, #-2147483641	; 0x80000007
    3064:	0001000a 	andeq	r0, r1, sl
    3068:	5018281d 	andspl	r2, r8, sp, lsl r8
    306c:	00141401 	andseq	r1, r4, r1, lsl #8
    3070:	0011de00 	andseq	sp, r1, r0, lsl #28
    3074:	51011e00 	tstpl	r1, r0, lsl #28
    3078:	02807403 	addeq	r7, r0, #50331648	; 0x3000000
    307c:	0352011e 	cmpeq	r2, #-2147483641	; 0x80000007
    3080:	0001000a 	andeq	r0, r1, sl
    3084:	5018641d 	andspl	r6, r8, sp, lsl r4
    3088:	0013b001 	andseq	fp, r3, r1
    308c:	0011f100 	andseq	pc, r1, r0, lsl #2
    3090:	50011e00 	andpl	r1, r1, r0, lsl #28
    3094:	1d003101 	stfnes	f3, [r0, #-4]
    3098:	01501888 	cmpeq	r0, r8, lsl #17
    309c:	00001414 	andeq	r1, r0, r4, lsl r4
    30a0:	0000120b 	andeq	r1, r0, fp, lsl #4
    30a4:	0250011e 	subseq	r0, r0, #-2147483641	; 0x80000007
    30a8:	011e0076 	tsteq	lr, r6, ror r0
    30ac:	20080252 	andcs	r0, r8, r2, asr r2
    30b0:	18941d00 	ldmne	r4, {r8, sl, fp, ip}
    30b4:	13d40150 	bicsne	r0, r4, #80, 2
    30b8:	12250000 	eorne	r0, r5, #0
    30bc:	011e0000 	tsteq	lr, r0
    30c0:	00760250 	rsbseq	r0, r6, r0, asr r2
    30c4:	0251011e 	subseq	r0, r1, #-2147483641	; 0x80000007
    30c8:	1d000074 	stcne	0, cr0, [r0, #-464]	; 0xfffffe30
    30cc:	0150189c 			; <UNDEFINED> instruction: 0x0150189c
    30d0:	00000767 	andeq	r0, r0, r7, ror #14
    30d4:	00001239 	andeq	r1, r0, r9, lsr r2
    30d8:	0250011e 	subseq	r0, r0, #-2147483641	; 0x80000007
    30dc:	1d000076 	stcne	0, cr0, [r0, #-472]	; 0xfffffe28
    30e0:	015018a8 	cmpeq	r0, r8, lsr #17
    30e4:	000013d4 	ldrdeq	r1, [r0], -r4
    30e8:	00001253 	andeq	r1, r0, r3, asr r2
    30ec:	0250011e 	subseq	r0, r0, #-2147483641	; 0x80000007
    30f0:	011e0076 	tsteq	lr, r6, ror r0
    30f4:	00740251 	rsbseq	r0, r4, r1, asr r2
    30f8:	18e01f00 	stmiane	r0!, {r8, r9, sl, fp, ip}^
    30fc:	14380150 	ldrtne	r0, [r8], #-336	; 0x150
    3100:	011e0000 	tsteq	lr, r0
    3104:	00750250 	rsbseq	r0, r5, r0, asr r2
    3108:	0252011e 	subseq	r0, r2, #-2147483641	; 0x80000007
    310c:	00004008 	andeq	r4, r0, r8
    3110:	00005308 	andeq	r5, r0, r8, lsl #6
    3114:	00127a00 	andseq	r7, r2, r0, lsl #20
    3118:	00250900 	eoreq	r0, r5, r0, lsl #18
    311c:	003f0000 	eorseq	r0, pc, r0
    3120:	00005a08 	andeq	r5, r0, r8, lsl #20
    3124:	00128a00 	andseq	r8, r2, r0, lsl #20
    3128:	00250900 	eoreq	r0, r5, r0, lsl #18
    312c:	00120000 	andseq	r0, r2, r0
    3130:	00127a07 	andseq	r7, r2, r7, lsl #20
    3134:	08c23c00 	stmiaeq	r2, {sl, fp, ip, sp}^
    3138:	96010000 	strls	r0, [r1], -r0
    313c:	00003301 	andeq	r3, r0, r1, lsl #6
    3140:	5018e400 	andspl	lr, r8, r0, lsl #8
    3144:	00010801 	andeq	r0, r1, r1, lsl #16
    3148:	0b9c0100 	bleq	fe703550 <__bss_end__+0xfd1efa10>
    314c:	3d000013 	stccc	0, cr0, [r0, #-76]	; 0xffffffb4
    3150:	0000095f 	andeq	r0, r0, pc, asr r9
    3154:	d3019601 	movwle	r9, #5633	; 0x1601
    3158:	c300000a 	movwgt	r0, #10
    315c:	3d000026 	stccc	0, cr0, [r0, #-152]	; 0xffffff68
    3160:	000009af 	andeq	r0, r0, pc, lsr #19
    3164:	53019601 	movwpl	r9, #5633	; 0x1601
    3168:	1f000000 	svcne	0x00000000
    316c:	3d000027 	stccc	0, cr0, [r0, #-156]	; 0xffffff64
    3170:	000008e3 	andeq	r0, r0, r3, ror #17
    3174:	d3019601 	movwle	r9, #5633	; 0x1601
    3178:	6200000a 	andvs	r0, r0, #10
    317c:	3e000027 	cdpcc	0, 0, cr0, cr0, cr7, {1}
    3180:	01007669 	tsteq	r0, r9, ror #12
    3184:	0ad90196 	beq	ff6437e4 <__bss_end__+0xfe12fca4>
    3188:	27a50000 	strcs	r0, [r5, r0]!
    318c:	4e3f0000 	cdpmi	0, 3, cr0, cr15, cr0, {0}
    3190:	0100000a 	tsteq	r0, sl
    3194:	01d50198 			; <UNDEFINED> instruction: 0x01d50198
    3198:	27dc0000 	ldrbcs	r0, [ip, r0]
    319c:	102e0000 	eorne	r0, lr, r0
    31a0:	02015019 	andeq	r5, r1, #25
    31a4:	39000002 	stmdbcc	r0, {r1}
    31a8:	01501980 	cmpeq	r0, r0, lsl #19
    31ac:	00000191 	muleq	r0, r1, r1
    31b0:	08944200 	ldmeq	r4, {r9, lr}
    31b4:	ee010000 	cdp	0, 0, cr0, cr1, cr0, {0}
    31b8:	5019ec02 	andspl	lr, r9, r2, lsl #24
    31bc:	00002801 	andeq	r2, r0, r1, lsl #16
    31c0:	4e9c0100 	fmlmie	f0, f4, f0
    31c4:	3d000013 	stccc	0, cr0, [r0, #-76]	; 0xffffffb4
    31c8:	00000929 	andeq	r0, r0, r9, lsr #18
    31cc:	d302ee01 	movwle	lr, #11777	; 0x2e01
    31d0:	1b00000a 	blne	3200 <_back_addr-0x14fce00>
    31d4:	1c000028 	stcne	0, cr0, [r0], {40}	; 0x28
    31d8:	000008a6 	andeq	r0, r0, r6, lsr #17
    31dc:	6f02f001 	svcvs	0x0002f001
    31e0:	01000000 	mrseq	r0, (UNDEF: 0)
    31e4:	00692051 	rsbeq	r2, r9, r1, asr r0
    31e8:	5302f101 	movwpl	pc, #8449	; 0x2101	; <UNPREDICTABLE>
    31ec:	3c000000 	stccc	0, cr0, [r0], {-0}
    31f0:	00000028 	andeq	r0, r0, r8, lsr #32
    31f4:	0009b643 	andeq	fp, r9, r3, asr #12
    31f8:	03e70600 	mvneq	r0, #0, 12
    31fc:	00000053 	andeq	r0, r0, r3, asr r0
    3200:	00200000 	eoreq	r0, r0, r0
    3204:	0008ab44 	andeq	sl, r8, r4, asr #22
    3208:	01f60700 	mvnseq	r0, r0, lsl #14
    320c:	000000ac 	andeq	r0, r0, ip, lsr #1
    3210:	00025945 	andeq	r5, r2, r5, asr #18
    3214:	53280100 	teqpl	r8, #0, 2
    3218:	05000000 	streq	r0, [r0, #-0]
    321c:	513b3803 	teqpl	fp, r3, lsl #16
    3220:	09344501 	ldmdbeq	r4!, {r0, r8, sl, lr}
    3224:	29010000 	stmdbcs	r1, {}	; <UNPREDICTABLE>
    3228:	0000138c 	andeq	r1, r0, ip, lsl #7
    322c:	311c0305 	tstcc	ip, r5, lsl #6
    3230:	37070150 	smlsdcc	r7, r0, r1, r0
    3234:	46000001 	strmi	r0, [r0], -r1
    3238:	00000a54 	andeq	r0, r0, r4, asr sl
    323c:	008f4708 	addeq	r4, pc, r8, lsl #14
    3240:	13b00000 	movsne	r0, #0
    3244:	8f470000 	svchi	0x00470000
    3248:	47000000 	strmi	r0, [r0, -r0]
    324c:	00000033 	andeq	r0, r0, r3, lsr r0
    3250:	00004847 	andeq	r4, r0, r7, asr #16
    3254:	0a480000 	beq	120325c <_back_addr-0x2fcda4>
    3258:	0600000a 	streq	r0, [r0], -sl
    325c:	13c2030d 	bicne	r0, r2, #872415232	; 0x34000000
    3260:	2c470000 	marcs	acc0, r0, r7
    3264:	00000000 	andeq	r0, r0, r0
    3268:	0003dc41 	andeq	sp, r3, r1, asr #24
    326c:	015a0100 	cmpeq	sl, r0, lsl #2
    3270:	00000033 	andeq	r0, r0, r3, lsr r0
    3274:	000013d4 	ldrdeq	r1, [r0], -r4
    3278:	fe480018 	mcr2	0, 2, r0, cr8, cr8, {0}
    327c:	06000009 	streq	r0, [r0], -r9
    3280:	13eb02f0 	mvnne	r0, #240, 4
    3284:	2c470000 	marcs	acc0, r0, r7
    3288:	47000000 	strmi	r0, [r0, -r0]
    328c:	0000002c 	andeq	r0, r0, ip, lsr #32
    3290:	02dc4900 	sbcseq	r4, ip, #0, 18
    3294:	4d060000 	stcmi	0, cr0, [r6, #-0]
    3298:	00003303 	andeq	r3, r0, r3, lsl #6
    329c:	00140200 	andseq	r0, r4, r0, lsl #4
    32a0:	00914700 	addseq	r4, r1, r0, lsl #14
    32a4:	00180000 	andseq	r0, r8, r0
    32a8:	00030e41 	andeq	r0, r3, r1, asr #28
    32ac:	018a0100 	orreq	r0, sl, r0, lsl #2
    32b0:	00000033 	andeq	r0, r0, r3, lsr r0
    32b4:	00001414 	andeq	r1, r0, r4, lsl r4
    32b8:	42410018 	submi	r0, r1, #24
    32bc:	0100000a 	tsteq	r0, sl
    32c0:	0033016e 	eorseq	r0, r3, lr, ror #2
    32c4:	14260000 	strtne	r0, [r6], #-0
    32c8:	00180000 	andseq	r0, r8, r0
    32cc:	00098741 	andeq	r8, r9, r1, asr #14
    32d0:	01750100 	cmneq	r5, r0, lsl #2
    32d4:	00000033 	andeq	r0, r0, r3, lsr r0
    32d8:	00001438 	andeq	r1, r0, r8, lsr r4
    32dc:	0a170018 	beq	5c3344 <_back_addr-0xf3ccbc>
    32e0:	01000005 	tsteq	r0, r5
    32e4:	0033016c 	eorseq	r0, r3, ip, ror #2
    32e8:	00180000 	andseq	r0, r8, r0
    32ec:	0017ae00 	andseq	sl, r7, r0, lsl #28
    32f0:	d2000400 	andle	r0, r0, #0, 8
    32f4:	0400000b 	streq	r0, [r0], #-11
    32f8:	0000a901 	andeq	sl, r0, r1, lsl #18
    32fc:	0af50100 	beq	ffd43704 <__bss_end__+0xfe82fbc4>
    3300:	045d0000 	ldrbeq	r0, [sp], #-0
    3304:	1a140000 	bne	50330c <_back_addr-0xffccf4>
    3308:	0c000150 	stfeqs	f0, [r0], {80}	; 0x50
    330c:	0baf0000 	bleq	febc3314 <__bss_end__+0xfd6af7d4>
    3310:	04020000 	streq	r0, [r2], #-0
    3314:	00008407 	andeq	r8, r0, r7, lsl #8
    3318:	07040200 	streq	r0, [r4, -r0, lsl #4]
    331c:	00000205 	andeq	r0, r0, r5, lsl #4
    3320:	59080102 	stmdbpl	r8, {r1, r8}
    3324:	02000000 	andeq	r0, r0, #0
    3328:	005b0601 	subseq	r0, fp, r1, lsl #12
    332c:	02020000 	andeq	r0, r2, #0
    3330:	00006707 	andeq	r6, r0, r7, lsl #14
    3334:	05020200 	streq	r0, [r2, #-512]	; 0x200
    3338:	0000009f 	muleq	r0, pc, r0	; <UNPREDICTABLE>
    333c:	69050403 	stmdbvs	r5, {r0, r1, sl}
    3340:	0200746e 	andeq	r7, r0, #1845493760	; 0x6e000000
    3344:	007a0708 	rsbseq	r0, sl, r8, lsl #14
    3348:	08020000 	stmdaeq	r2, {}	; <UNPREDICTABLE>
    334c:	00009105 	andeq	r9, r0, r5, lsl #2
    3350:	07040200 	streq	r0, [r4, -r0, lsl #4]
    3354:	0000007f 	andeq	r0, r0, pc, ror r0
    3358:	000a7504 	andeq	r7, sl, r4, lsl #10
    335c:	64e50200 	strbtvs	r0, [r5], #512	; 0x200
    3360:	05000000 	streq	r0, [r0, #-0]
    3364:	00007c04 	andeq	r7, r0, r4, lsl #24
    3368:	00810600 	addeq	r0, r1, r0, lsl #12
    336c:	01020000 	mrseq	r0, (UNDEF: 2)
    3370:	00006208 	andeq	r6, r0, r8, lsl #4
    3374:	03040700 	movweq	r0, #18176	; 0x4700
    3378:	0000af8f 	andeq	sl, r0, pc, lsl #31
    337c:	021c0800 	andseq	r0, ip, #0, 16
    3380:	08000000 	stmdaeq	r0, {}	; <UNPREDICTABLE>
    3384:	000003a0 	andeq	r0, r0, r0, lsr #7
    3388:	03f70801 	mvnseq	r0, #65536	; 0x10000
    338c:	08020000 	stmdaeq	r2, {}	; <UNPREDICTABLE>
    3390:	0000022e 	andeq	r0, r0, lr, lsr #4
    3394:	02b70803 	adcseq	r0, r7, #196608	; 0x30000
    3398:	00040000 	andeq	r0, r4, r0
    339c:	00037504 	andeq	r7, r3, r4, lsl #10
    33a0:	88950300 	ldmhi	r5, {r8, r9}
    33a4:	09000000 	stmdbeq	r0, {}	; <UNPREDICTABLE>
    33a8:	01003152 	tsteq	r0, r2, asr r1
    33ac:	032501f1 	teqeq	r5, #1073741884	; 0x4000003c
    33b0:	1a140000 	bne	5033b8 <_back_addr-0xffcc48>
    33b4:	01bc0150 			; <UNDEFINED> instruction: 0x01bc0150
    33b8:	9c010000 	stcls	0, cr0, [r1], {-0}
    33bc:	00000325 	andeq	r0, r0, r5, lsr #6
    33c0:	0008de0a 	andeq	sp, r8, sl, lsl #28
    33c4:	01f10100 	mvnseq	r0, r0, lsl #2
    33c8:	00000033 	andeq	r0, r0, r3, lsr r0
    33cc:	00002889 	andeq	r2, r0, r9, lsl #17
    33d0:	0008bc0a 	andeq	fp, r8, sl, lsl #24
    33d4:	01f10100 	mvnseq	r0, r0, lsl #2
    33d8:	00000325 	andeq	r0, r0, r5, lsr #6
    33dc:	000028aa 	andeq	r2, r0, sl, lsr #17
    33e0:	6e656c0b 	cdpvs	12, 6, cr6, cr5, cr11, {0}
    33e4:	01f10100 	mvnseq	r0, r0, lsl #2
    33e8:	00000025 	andeq	r0, r0, r5, lsr #32
    33ec:	000028c8 	andeq	r2, r0, r8, asr #17
    33f0:	7465720c 	strbtvc	r7, [r5], #-524	; 0x20c
    33f4:	01f30100 	mvnseq	r0, r0, lsl #2
    33f8:	0000004f 	andeq	r0, r0, pc, asr #32
    33fc:	000028e6 	andeq	r2, r0, r6, ror #17
    3400:	0100690d 	tsteq	r0, sp, lsl #18
    3404:	002501f4 	strdeq	r0, [r5], -r4	; <UNPREDICTABLE>
    3408:	0e000000 	cdpeq	0, 0, cr0, cr0, cr0, {0}
    340c:	01006b6b 	tsteq	r0, fp, ror #22
    3410:	032b01f6 	teqeq	fp, #-2147483587	; 0x8000003d
    3414:	01950000 	orrseq	r0, r5, r0
    3418:	9f320193 	svcls	0x00320193
    341c:	9f310193 	svcls	0x00310193
    3420:	21080193 			; <UNDEFINED> instruction: 0x21080193
    3424:	0801939f 	stmdaeq	r1, {r0, r1, r2, r3, r4, r7, r8, r9, ip, pc}
    3428:	01939f4a 	orrseq	r9, r3, sl, asr #30
    342c:	939f2c08 	orrsls	r2, pc, #8, 24	; 0x800
    3430:	9f850901 	svcls	0x00850901
    3434:	82090193 	andhi	r0, r9, #-1073741788	; 0xc0000024
    3438:	0801939f 	stmdaeq	r1, {r0, r1, r2, r3, r4, r7, r8, r9, ip, pc}
    343c:	01939f7a 	orrseq	r9, r3, sl, ror pc
    3440:	939f2108 	orrsls	r2, pc, #8, 2
    3444:	9f340801 	svcls	0x00340801
    3448:	3d080193 	stfccs	f0, [r8, #-588]	; 0xfffffdb4
    344c:	4401939f 	strmi	r9, [r1], #-927	; 0x39f
    3450:	9301939f 	movwls	r9, #5023	; 0x139f
    3454:	939f4401 	orrsls	r4, pc, #16777216	; 0x1000000
    3458:	9f990901 	svcls	0x00990901
    345c:	20080193 	mulcs	r8, r3, r1
    3460:	0901939f 	stmdbeq	r1, {r0, r1, r2, r3, r4, r7, r8, r9, ip, pc}
    3464:	01939fa2 	orrseq	r9, r3, r2, lsr #31
    3468:	01939f32 	orrseq	r9, r3, r2, lsr pc
    346c:	939f2208 	orrsls	r2, pc, #8, 4	; 0x80000000
    3470:	9fb50901 	svcls	0x00b50901
    3474:	9f4b0193 	svcls	0x004b0193
    3478:	21080193 			; <UNDEFINED> instruction: 0x21080193
    347c:	4a01939f 	bmi	68300 <_back_addr-0x1497d00>
    3480:	0801939f 	stmdaeq	r1, {r0, r1, r2, r3, r4, r7, r8, r9, ip, pc}
    3484:	01939f71 	orrseq	r9, r3, r1, ror pc
    3488:	939f2208 	orrsls	r2, pc, #8, 4	; 0x80000000
    348c:	9fa00901 	svcls	0x00a00901
    3490:	2d080193 	stfcss	f0, [r8, #-588]	; 0xfffffdb4
    3494:	0801939f 	stmdaeq	r1, {r0, r1, r2, r3, r4, r7, r8, r9, ip, pc}
    3498:	01939f31 	orrseq	r9, r3, r1, lsr pc
    349c:	01939f3a 	orrseq	r9, r3, sl, lsr pc
    34a0:	939f3408 	orrsls	r3, pc, #8, 8	; 0x8000000
    34a4:	9f290801 	svcls	0x00290801
    34a8:	e0930193 	umulls	r0, r3, r3, r1
    34ac:	31720e03 	cmncc	r2, r3, lsl #28
    34b0:	08010036 	stmdaeq	r1, {r1, r2, r4, r5}
    34b4:	00033c02 	andeq	r3, r3, r2, lsl #24
    34b8:	58910200 	ldmpl	r1, {r9}
    34bc:	0009fe0f 	andeq	pc, r9, pc, lsl #28
    34c0:	4f750100 	svcmi	0x00750100
    34c4:	e0000000 	and	r0, r0, r0
    34c8:	10000001 	andne	r0, r0, r1
    34cc:	1ad41100 	bne	ff5078d4 <__bss_end__+0xfdff3d94>
    34d0:	006c0150 	rsbeq	r0, ip, r0, asr r1
    34d4:	02550000 	subseq	r0, r5, #0
    34d8:	fe0f0000 	cdp2	0, 0, cr0, cr15, cr0, {0}
    34dc:	01000009 	tsteq	r0, r9
    34e0:	00004f75 	andeq	r4, r0, r5, ror pc
    34e4:	0001fe00 	andeq	pc, r1, r0, lsl #28
    34e8:	12001000 	andne	r1, r0, #0
    34ec:	01501ae8 	cmpeq	r0, r8, ror #21
    34f0:	0000167e 	andeq	r1, r0, lr, ror r6
    34f4:	00000224 	andeq	r0, r0, r4, lsr #4
    34f8:	02500113 	subseq	r0, r0, #-1073741820	; 0xc0000004
    34fc:	01130076 	tsteq	r3, r6, ror r0
    3500:	00750251 	rsbseq	r0, r5, r1, asr r2
    3504:	02520113 	subseq	r0, r2, #-1073741820	; 0xc0000004
    3508:	01130074 	tsteq	r3, r4, ror r0
    350c:	007d0253 	rsbseq	r0, sp, r3, asr r2
    3510:	1af41200 	bne	ffd07d18 <__bss_end__+0xfe7f41d8>
    3514:	16a80150 	ssatne	r0, #9, r0, asr #2
    3518:	023e0000 	eorseq	r0, lr, #0
    351c:	01130000 	tsteq	r3, r0
    3520:	00740250 	rsbseq	r0, r4, r0, asr r2
    3524:	02510113 	subseq	r0, r1, #-1073741820	; 0xc0000004
    3528:	14000075 	strne	r0, [r0], #-117	; 0x75
    352c:	01501b40 	cmpeq	r0, r0, asr #22
    3530:	000016a8 	andeq	r1, r0, r8, lsr #13
    3534:	02500113 	subseq	r0, r0, #-1073741820	; 0xc0000004
    3538:	01130074 	tsteq	r3, r4, ror r0
    353c:	00750251 	rsbseq	r0, r5, r1, asr r2
    3540:	6c110000 	ldcvs	0, cr0, [r1], {-0}
    3544:	6001501b 	andvs	r5, r1, fp, lsl r0
    3548:	b0000000 	andlt	r0, r0, r0
    354c:	0f000002 	svceq	0x00000002
    3550:	000009fe 	strdeq	r0, [r0], -lr
    3554:	004f7501 	subeq	r7, pc, r1, lsl #10
    3558:	02730000 	rsbseq	r0, r3, #0
    355c:	00100000 	andseq	r0, r0, r0
    3560:	501bc012 	andspl	ip, fp, r2, lsl r0
    3564:	0016b901 	andseq	fp, r6, r1, lsl #18
    3568:	00029900 	andeq	r9, r2, r0, lsl #18
    356c:	50011300 	andpl	r1, r1, r0, lsl #6
    3570:	13007602 	movwne	r7, #1538	; 0x602
    3574:	75025101 	strvc	r5, [r2, #-257]	; 0x101
    3578:	52011300 	andpl	r1, r1, #0, 6
    357c:	13007402 	movwne	r7, #1026	; 0x402
    3580:	7d025301 	stcvc	3, cr5, [r2, #-4]
    3584:	cc140000 	ldcgt	0, cr0, [r4], {-0}
    3588:	a801501b 	stmdage	r1, {r0, r1, r3, r4, ip, lr}
    358c:	13000016 	movwne	r0, #22
    3590:	74025001 	strvc	r5, [r2], #-1
    3594:	51011300 	mrspl	r1, SP_irq
    3598:	00007502 	andeq	r7, r0, r2, lsl #10
    359c:	1a3c1200 	bne	f07da4 <_back_addr-0x5f825c>
    35a0:	16dd0150 			; <UNDEFINED> instruction: 0x16dd0150
    35a4:	02cf0000 	sbceq	r0, pc, #0
    35a8:	01130000 	tsteq	r3, r0
    35ac:	007d0250 	rsbseq	r0, sp, r0, asr r2
    35b0:	01510113 	cmpeq	r1, r3, lsl r1
    35b4:	52011330 	andpl	r1, r1, #48, 6	; 0xc0000000
    35b8:	00007502 	andeq	r7, r0, r2, lsl #10
    35bc:	501acc12 	andspl	ip, sl, r2, lsl ip
    35c0:	0016dd01 	andseq	sp, r6, r1, lsl #26
    35c4:	0002ef00 	andeq	lr, r2, r0, lsl #30
    35c8:	50011300 	andpl	r1, r1, r0, lsl #6
    35cc:	13007402 	movwne	r7, #1026	; 0x402
    35d0:	30015101 	andcc	r5, r1, r1, lsl #2
    35d4:	03520113 	cmpeq	r2, #-1073741820	; 0xc0000004
    35d8:	0004000a 	andeq	r0, r4, sl
    35dc:	501b5012 	andspl	r5, fp, r2, lsl r0
    35e0:	0016dd01 	andseq	sp, r6, r1, lsl #26
    35e4:	00030e00 	andeq	r0, r3, r0, lsl #28
    35e8:	50011300 	andpl	r1, r1, r0, lsl #6
    35ec:	13007d02 	movwne	r7, #3330	; 0xd02
    35f0:	30015101 	andcc	r5, r1, r1, lsl #2
    35f4:	02520113 	subseq	r0, r2, #-1073741820	; 0xc0000004
    35f8:	14000075 	strne	r0, [r0], #-117	; 0x75
    35fc:	01501b5c 	cmpeq	r0, ip, asr fp
    3600:	000016a8 	andeq	r1, r0, r8, lsr #13
    3604:	02500113 	subseq	r0, r0, #-1073741820	; 0xc0000004
    3608:	0113007d 	tsteq	r3, sp, ror r0
    360c:	00750251 	rsbseq	r0, r5, r1, asr r2
    3610:	04050000 	streq	r0, [r5], #-0
    3614:	00000033 	andeq	r0, r0, r3, lsr r0
    3618:	00003315 	andeq	r3, r0, r5, lsl r3
    361c:	00033c00 	andeq	r3, r3, r0, lsl #24
    3620:	002c1600 	eoreq	r1, ip, r0, lsl #12
    3624:	01ff0000 	mvnseq	r0, r0
    3628:	00331500 	eorseq	r1, r3, r0, lsl #10
    362c:	034c0000 	movteq	r0, #49152	; 0xc000
    3630:	2c170000 	ldccs	0, cr0, [r7], {-0}
    3634:	0f000000 	svceq	0x00000000
    3638:	30520900 	subscc	r0, r2, r0, lsl #18
    363c:	02420100 	subeq	r0, r2, #0, 2
    3640:	00000025 	andeq	r0, r0, r5, lsr #32
    3644:	01501bd0 	ldrsbeq	r1, [r0, #-176]	; 0xffffff50
    3648:	000000f4 	strdeq	r0, [r0], -r4
    364c:	04949c01 	ldreq	r9, [r4], #3073	; 0xc01
    3650:	b30a0000 	movwlt	r0, #40960	; 0xa000
    3654:	0100000a 	tsteq	r0, sl
    3658:	03250242 	teqeq	r5, #536870916	; 0x20000004
    365c:	29060000 	stmdbcs	r6, {}	; <UNPREDICTABLE>
    3660:	ed0a0000 	stc	0, cr0, [sl, #-0]
    3664:	01000007 	tsteq	r0, r7
    3668:	00250242 	eoreq	r0, r5, r2, asr #4
    366c:	29240000 	stmdbcs	r4!, {}	; <UNPREDICTABLE>
    3670:	6c0b0000 	stcvs	0, cr0, [fp], {-0}
    3674:	01006e65 	tsteq	r0, r5, ror #28
    3678:	00250242 	eoreq	r0, r5, r2, asr #4
    367c:	29420000 	stmdbcs	r2, {}^	; <UNPREDICTABLE>
    3680:	690c0000 	stmdbvs	ip, {}	; <UNPREDICTABLE>
    3684:	02440100 	subeq	r0, r4, #0, 2
    3688:	00000025 	andeq	r0, r0, r5, lsr #32
    368c:	00002960 	andeq	r2, r0, r0, ror #18
    3690:	000ac818 	andeq	ip, sl, r8, lsl r8
    3694:	02450100 	subeq	r0, r5, #0, 2
    3698:	01501bf0 	ldrsheq	r1, [r0, #-176]	; 0xffffff50
    369c:	00027e19 	andeq	r7, r2, r9, lsl lr
    36a0:	02480100 	subeq	r0, r8, #0, 2
    36a4:	0000004f 	andeq	r0, r0, pc, asr #32
    36a8:	000003c1 	andeq	r0, r0, r1, asr #7
    36ac:	1a0f0010 	bne	3c36f4 <_back_addr-0x113c90c>
    36b0:	01000008 	tsteq	r0, r8
    36b4:	00004fd7 	ldrdeq	r4, [r0], -r7
    36b8:	0003d200 	andeq	sp, r3, r0, lsl #4
    36bc:	0f001000 	svceq	0x00001000
    36c0:	000009fe 	strdeq	r0, [r0], -lr
    36c4:	004f7501 	subeq	r7, pc, r1, lsl #10
    36c8:	03e30000 	mvneq	r0, #0
    36cc:	00100000 	andseq	r0, r0, r0
    36d0:	00030e19 	andeq	r0, r3, r9, lsl lr
    36d4:	027a0100 	rsbseq	r0, sl, #0, 2
    36d8:	0000004f 	andeq	r0, r0, pc, asr #32
    36dc:	000003f5 	strdeq	r0, [r0], -r5
    36e0:	f41a0010 			; <UNDEFINED> instruction: 0xf41a0010
    36e4:	fe01501b 	mcr2	0, 0, r5, cr1, cr11, {0}
    36e8:	12000016 	andne	r0, r0, #22
    36ec:	01501c04 	cmpeq	r0, r4, lsl #24
    36f0:	00001705 	andeq	r1, r0, r5, lsl #14
    36f4:	0000041e 	andeq	r0, r0, lr, lsl r4
    36f8:	02500113 	subseq	r0, r0, #-1073741820	; 0xc0000004
    36fc:	01130077 	tsteq	r3, r7, ror r0
    3700:	00750251 	rsbseq	r0, r5, r1, asr r2
    3704:	02520113 	subseq	r0, r2, #-1073741820	; 0xc0000004
    3708:	1a000076 	bne	38e8 <_back_addr-0x14fc718>
    370c:	01501c08 	cmpeq	r0, r8, lsl #24
    3710:	000016fe 	strdeq	r1, [r0], -lr
    3714:	501c1c12 	andspl	r1, ip, r2, lsl ip
    3718:	0016dd01 	andseq	sp, r6, r1, lsl #26
    371c:	00044000 	andeq	r4, r4, r0
    3720:	51011300 	mrspl	r1, SP_irq
    3724:	01133001 	tsteq	r3, r1
    3728:	00750252 	rsbseq	r0, r5, r2, asr r2
    372c:	1c301200 	lfmne	f1, 4, [r0], #-0
    3730:	17170150 			; <UNDEFINED> instruction: 0x17170150
    3734:	045a0000 	ldrbeq	r0, [sl], #-0
    3738:	01130000 	tsteq	r3, r0
    373c:	00770250 	rsbseq	r0, r7, r0, asr r2
    3740:	02520113 	subseq	r0, r2, #-1073741820	; 0xc0000004
    3744:	12000075 	andne	r0, r0, #117	; 0x75
    3748:	01501c40 	cmpeq	r0, r0, asr #24
    374c:	000016a8 	andeq	r1, r0, r8, lsr #13
    3750:	0000046e 	andeq	r0, r0, lr, ror #8
    3754:	02510113 	subseq	r0, r1, #-1073741820	; 0xc0000004
    3758:	1a000075 	bne	3934 <_back_addr-0x14fc6cc>
    375c:	01501c44 	cmpeq	r0, r4, asr #24
    3760:	000016fe 	strdeq	r1, [r0], -lr
    3764:	501c481a 	andspl	r4, ip, sl, lsl r8
    3768:	0016fe01 	andseq	pc, r6, r1, lsl #28
    376c:	1c941400 	cfldrsne	mvf1, [r4], {0}
    3770:	17280150 			; <UNDEFINED> instruction: 0x17280150
    3774:	01130000 	tsteq	r3, r0
    3778:	68030550 	stmdavs	r3, {r4, r6, r8, sl}
    377c:	00015031 	andeq	r5, r1, r1, lsr r0
    3780:	020e1b00 	andeq	r1, lr, #0, 22
    3784:	18010000 	stmdane	r1, {}	; <UNPREDICTABLE>
    3788:	0000004f 	andeq	r0, r0, pc, asr #32
    378c:	01501cc4 	cmpeq	r0, r4, asr #25
    3790:	00000684 	andeq	r0, r0, r4, lsl #13
    3794:	0ffb9c01 	svceq	0x00fb9c01
    3798:	5b1c0000 	blpl	7037a0 <_back_addr-0xdfc860>
    379c:	01000010 	tsteq	r0, r0, lsl r0
    37a0:	0000af18 	andeq	sl, r0, r8, lsl pc
    37a4:	00298000 	eoreq	r8, r9, r0
    37a8:	0b061c00 	bleq	18a7b0 <_back_addr-0x1375850>
    37ac:	18010000 	stmdane	r1, {}	; <UNPREDICTABLE>
    37b0:	00000325 	andeq	r0, r0, r5, lsr #6
    37b4:	000029de 	ldrdeq	r2, [r0], -lr
    37b8:	000ad41c 	andeq	sp, sl, ip, lsl r4
    37bc:	25180100 	ldrcs	r0, [r8, #-256]	; 0x100
    37c0:	fc000003 	stc2	0, cr0, [r0], {3}
    37c4:	1c000029 	stcne	0, cr0, [r0], {41}	; 0x29
    37c8:	00000adf 	ldrdeq	r0, [r0], -pc	; <UNPREDICTABLE>
    37cc:	03251801 	teqeq	r5, #65536	; 0x10000
    37d0:	2a1a0000 	bcs	6837d8 <_back_addr-0xe7c828>
    37d4:	ea1d0000 	b	7437dc <_back_addr-0xdbc824>
    37d8:	0100000a 	tsteq	r0, sl
    37dc:	00032518 	andeq	r2, r3, r8, lsl r5
    37e0:	00910200 	addseq	r0, r1, r0, lsl #4
    37e4:	6e656c1e 	mcrvs	12, 3, r6, cr5, cr14, {0}
    37e8:	25180100 	ldrcs	r0, [r8, #-256]	; 0x100
    37ec:	38000000 	stmdacc	r0, {}	; <UNPREDICTABLE>
    37f0:	1f00002a 	svcne	0x0000002a
    37f4:	00746572 	rsbseq	r6, r4, r2, ror r5
    37f8:	004f1a01 	subeq	r1, pc, r1, lsl #20
    37fc:	2a8b0000 	bcs	fe2c3804 <__bss_end__+0xfcdafcc4>
    3800:	6b200000 	blvs	803808 <_back_addr-0xcfc7f8>
    3804:	1b01006b 	blne	439b8 <_back_addr-0x14bc648>
    3808:	0000032b 	andeq	r0, r0, fp, lsr #6
    380c:	01930195 			; <UNDEFINED> instruction: 0x01930195
    3810:	01939f32 	orrseq	r9, r3, r2, lsr pc
    3814:	01939f31 	orrseq	r9, r3, r1, lsr pc
    3818:	939f2108 	orrsls	r2, pc, #8, 2
    381c:	9f4a0801 	svcls	0x004a0801
    3820:	2c080193 	stfcss	f0, [r8], {147}	; 0x93
    3824:	0901939f 	stmdbeq	r1, {r0, r1, r2, r3, r4, r7, r8, r9, ip, pc}
    3828:	01939f85 	orrseq	r9, r3, r5, lsl #31
    382c:	939f8209 	orrsls	r8, pc, #-1879048192	; 0x90000000
    3830:	9f7a0801 	svcls	0x007a0801
    3834:	21080193 			; <UNDEFINED> instruction: 0x21080193
    3838:	0801939f 	stmdaeq	r1, {r0, r1, r2, r3, r4, r7, r8, r9, ip, pc}
    383c:	01939f34 	orrseq	r9, r3, r4, lsr pc
    3840:	939f3d08 	orrsls	r3, pc, #8, 26	; 0x200
    3844:	939f4401 	orrsls	r4, pc, #16777216	; 0x1000000
    3848:	44019301 	strmi	r9, [r1], #-769	; 0x301
    384c:	0901939f 	stmdbeq	r1, {r0, r1, r2, r3, r4, r7, r8, r9, ip, pc}
    3850:	01939f99 			; <UNDEFINED> instruction: 0x01939f99
    3854:	939f2008 	orrsls	r2, pc, #8
    3858:	9fa20901 	svcls	0x00a20901
    385c:	9f320193 	svcls	0x00320193
    3860:	22080193 	andcs	r0, r8, #-1073741788	; 0xc0000024
    3864:	0901939f 	stmdbeq	r1, {r0, r1, r2, r3, r4, r7, r8, r9, ip, pc}
    3868:	01939fb5 			; <UNDEFINED> instruction: 0x01939fb5
    386c:	01939f4b 	orrseq	r9, r3, fp, asr #30
    3870:	939f2108 	orrsls	r2, pc, #8, 2
    3874:	939f4a01 	orrsls	r4, pc, #4096	; 0x1000
    3878:	9f710801 	svcls	0x00710801
    387c:	22080193 	andcs	r0, r8, #-1073741788	; 0xc0000024
    3880:	0901939f 	stmdbeq	r1, {r0, r1, r2, r3, r4, r7, r8, r9, ip, pc}
    3884:	01939fa0 	orrseq	r9, r3, r0, lsr #31
    3888:	939f2d08 	orrsls	r2, pc, #8, 26	; 0x200
    388c:	9f310801 	svcls	0x00310801
    3890:	9f3a0193 	svcls	0x003a0193
    3894:	34080193 	strcc	r0, [r8], #-403	; 0x193
    3898:	0801939f 	stmdaeq	r1, {r0, r1, r2, r3, r4, r7, r8, r9, ip, pc}
    389c:	01939f29 	orrseq	r9, r3, r9, lsr #30
    38a0:	2003e093 	mulcs	r3, r3, r0
    38a4:	00303172 	eorseq	r3, r0, r2, ror r1
    38a8:	033c2d01 	teqeq	ip, #1, 26	; 0x40
    38ac:	91030000 	mrsls	r0, (UNDEF: 3)
    38b0:	72207af8 	eorvc	r7, r0, #248, 20	; 0xf8000
    38b4:	01003131 	tsteq	r0, r1, lsr r1
    38b8:	00032b33 	andeq	r2, r3, r3, lsr fp
    38bc:	d8910300 	ldmle	r1, {r8, r9}
    38c0:	3172207b 	cmncc	r2, fp, ror r0
    38c4:	34010032 	strcc	r0, [r1], #-50	; 0x32
    38c8:	0000033c 	andeq	r0, r0, ip, lsr r3
    38cc:	7b889103 	blvc	fe227ce0 <__bss_end__+0xfcd141a0>
    38d0:	33317220 	teqcc	r1, #32, 4
    38d4:	3c350100 	ldfccs	f0, [r5], #-0
    38d8:	03000003 	movweq	r0, #3
    38dc:	207b9891 			; <UNDEFINED> instruction: 0x207b9891
    38e0:	00343172 	eorseq	r3, r4, r2, ror r1
    38e4:	033c3601 	teqeq	ip, #1048576	; 0x100000
    38e8:	91030000 	mrsls	r0, (UNDEF: 3)
    38ec:	72207ba8 	eorvc	r7, r0, #168, 22	; 0x2a000
    38f0:	01003531 	tsteq	r0, r1, lsr r5
    38f4:	00033c37 	andeq	r3, r3, r7, lsr ip
    38f8:	b8910300 	ldmlt	r1, {r8, r9}
    38fc:	3172207b 	cmncc	r2, fp, ror r0
    3900:	38010036 	stmdacc	r1, {r1, r2, r4, r5}
    3904:	0000033c 	andeq	r0, r0, ip, lsr r3
    3908:	7bc89103 	blvc	ff227d1c <__bss_end__+0xfdd141dc>
    390c:	01006921 	tsteq	r0, r1, lsr #18
    3910:	00002539 	andeq	r2, r0, r9, lsr r5
    3914:	c0220000 	eorgt	r0, r2, r0
    3918:	0100000a 	tsteq	r0, sl
    391c:	000ffb3a 	andeq	pc, pc, sl, lsr fp	; <UNPREDICTABLE>
    3920:	f4910300 			; <UNDEFINED> instruction: 0xf4910300
    3924:	0ab3237a 	beq	feccc714 <__bss_end__+0xfd7b8bd4>
    3928:	3b010000 	blcc	43930 <_back_addr-0x14bc6d0>
    392c:	00001000 	andeq	r1, r0, r0
    3930:	00002b30 	andeq	r2, r0, r0, lsr fp
    3934:	0007ed24 	andeq	lr, r7, r4, lsr #26
    3938:	4f3c0100 	svcmi	0x003c0100
    393c:	00000000 	andeq	r0, r0, r0
    3940:	00054025 	andeq	r4, r5, r5, lsr #32
    3944:	000fdc00 	andeq	sp, pc, r0, lsl #24
    3948:	02770f00 	rsbseq	r0, r7, #0, 30
    394c:	73010000 	movwvc	r0, #4096	; 0x1000
    3950:	0000004f 	andeq	r0, r0, pc, asr #32
    3954:	0000066d 	andeq	r0, r0, sp, ror #12
    3958:	fe0f0010 	mcr2	0, 0, r0, cr15, cr0, {0}
    395c:	01000009 	tsteq	r0, r9
    3960:	00004f75 	andeq	r4, r0, r5, ror pc
    3964:	00067e00 	andeq	r7, r6, r0, lsl #28
    3968:	0f001000 	svceq	0x00001000
    396c:	0000081a 	andeq	r0, r0, sl, lsl r8
    3970:	004fd701 	subeq	sp, pc, r1, lsl #14
    3974:	068f0000 	streq	r0, [pc], r0
    3978:	00100000 	andseq	r0, r0, r0
    397c:	501dfc12 	andspl	pc, sp, r2, lsl ip	; <UNPREDICTABLE>
    3980:	00173a01 	andseq	r3, r7, r1, lsl #20
    3984:	0006b000 	andeq	fp, r6, r0
    3988:	50011300 	andpl	r1, r1, r0, lsl #6
    398c:	7bd09103 	blvc	ff427da0 <__bss_end__+0xfdf14260>
    3990:	02510113 	subseq	r0, r1, #-1073741820	; 0xc0000004
    3994:	01130079 	tsteq	r3, r9, ror r0
    3998:	00740252 	rsbseq	r0, r4, r2, asr r2
    399c:	1e101200 	cdpne	2, 1, cr1, cr0, cr0, {0}
    39a0:	167e0150 			; <UNDEFINED> instruction: 0x167e0150
    39a4:	06d80000 	ldrbeq	r0, [r8], r0
    39a8:	01130000 	tsteq	r3, r0
    39ac:	d0910350 	addsle	r0, r1, r0, asr r3
    39b0:	5101137b 	tstpl	r1, fp, ror r3
    39b4:	13007402 	movwne	r7, #1026	; 0x402
    39b8:	75025201 	strvc	r5, [r2, #-513]	; 0x201
    39bc:	53011300 	movwpl	r1, #4864	; 0x1300
    39c0:	7af09103 	bvc	ffc27dd4 <__bss_end__+0xfe714294>
    39c4:	1e1c1200 	cdpne	2, 1, cr1, cr12, cr0, {0}
    39c8:	16a80150 	ssatne	r0, #9, r0, asr #2
    39cc:	06f20000 	ldrbteq	r0, [r2], r0
    39d0:	01130000 	tsteq	r3, r0
    39d4:	00750250 	rsbseq	r0, r5, r0, asr r2
    39d8:	02510113 	subseq	r0, r1, #-1073741820	; 0xc0000004
    39dc:	12000074 	andne	r0, r0, #116	; 0x74
    39e0:	01501e2c 	cmpeq	r0, ip, lsr #28
    39e4:	0000173a 	andeq	r1, r0, sl, lsr r7
    39e8:	00000713 	andeq	r0, r0, r3, lsl r7
    39ec:	03500113 	cmpeq	r0, #-1073741820	; 0xc0000004
    39f0:	137b9091 	cmnne	fp, #145	; 0x91
    39f4:	75025101 	strvc	r5, [r2, #-257]	; 0x101
    39f8:	52011300 	andpl	r1, r1, #0, 6
    39fc:	00007402 	andeq	r7, r0, r2, lsl #8
    3a00:	501e3812 	andspl	r3, lr, r2, lsl r8
    3a04:	0016a801 	andseq	sl, r6, r1, lsl #16
    3a08:	00072e00 	andeq	r2, r7, r0, lsl #28
    3a0c:	50011300 	andpl	r1, r1, r0, lsl #6
    3a10:	7b909103 	blvc	fe427e24 <__bss_end__+0xfcf142e4>
    3a14:	02510113 	subseq	r0, r1, #-1073741820	; 0xc0000004
    3a18:	12000074 	andne	r0, r0, #116	; 0x74
    3a1c:	01501e44 	cmpeq	r0, r4, asr #28
    3a20:	000016a8 	andeq	r1, r0, r8, lsr #13
    3a24:	00000748 	andeq	r0, r0, r8, asr #14
    3a28:	02500113 	subseq	r0, r0, #-1073741820	; 0xc0000004
    3a2c:	0113007a 	tsteq	r3, sl, ror r0
    3a30:	00740251 	rsbseq	r0, r4, r1, asr r2
    3a34:	1e541200 	cdpne	2, 5, cr1, cr4, cr0, {0}
    3a38:	173a0150 			; <UNDEFINED> instruction: 0x173a0150
    3a3c:	07690000 	strbeq	r0, [r9, -r0]!
    3a40:	01130000 	tsteq	r3, r0
    3a44:	d0910350 	addsle	r0, r1, r0, asr r3
    3a48:	5101137b 	tstpl	r1, fp, ror r3
    3a4c:	13007a02 	movwne	r7, #2562	; 0xa02
    3a50:	74025201 	strvc	r5, [r2], #-513	; 0x201
    3a54:	60120000 	andsvs	r0, r2, r0
    3a58:	a801501e 	stmdage	r1, {r1, r2, r3, r4, ip, lr}
    3a5c:	84000016 	strhi	r0, [r0], #-22
    3a60:	13000007 	movwne	r0, #7
    3a64:	91035001 	tstls	r3, r1
    3a68:	01137bd0 			; <UNDEFINED> instruction: 0x01137bd0
    3a6c:	00740251 	rsbseq	r0, r4, r1, asr r2
    3a70:	1e741200 	cdpne	2, 7, cr1, cr4, cr0, {0}
    3a74:	167e0150 			; <UNDEFINED> instruction: 0x167e0150
    3a78:	07ac0000 	streq	r0, [ip, r0]!
    3a7c:	01130000 	tsteq	r3, r0
    3a80:	d0910350 	addsle	r0, r1, r0, asr r3
    3a84:	5101137b 	tstpl	r1, fp, ror r3
    3a88:	13007402 	movwne	r7, #1026	; 0x402
    3a8c:	75025201 	strvc	r5, [r2, #-513]	; 0x201
    3a90:	53011300 	movwpl	r1, #4864	; 0x1300
    3a94:	7af09103 	bvc	ffc27ea8 <__bss_end__+0xfe714368>
    3a98:	1e801200 	cdpne	2, 8, cr1, cr0, cr0, {0}
    3a9c:	16a80150 	ssatne	r0, #9, r0, asr #2
    3aa0:	07c60000 	strbeq	r0, [r6, r0]
    3aa4:	01130000 	tsteq	r3, r0
    3aa8:	00750250 	rsbseq	r0, r5, r0, asr r2
    3aac:	02510113 	subseq	r0, r1, #-1073741820	; 0xc0000004
    3ab0:	12000074 	andne	r0, r0, #116	; 0x74
    3ab4:	01501e90 			; <UNDEFINED> instruction: 0x01501e90
    3ab8:	0000173a 	andeq	r1, r0, sl, lsr r7
    3abc:	000007e7 	andeq	r0, r0, r7, ror #15
    3ac0:	03500113 	cmpeq	r0, #-1073741820	; 0xc0000004
    3ac4:	137ba091 	cmnne	fp, #145	; 0x91
    3ac8:	75025101 	strvc	r5, [r2, #-257]	; 0x101
    3acc:	52011300 	andpl	r1, r1, #0, 6
    3ad0:	00007402 	andeq	r7, r0, r2, lsl #8
    3ad4:	501e9c12 	andspl	r9, lr, r2, lsl ip
    3ad8:	0016a801 	andseq	sl, r6, r1, lsl #16
    3adc:	00080200 	andeq	r0, r8, r0, lsl #4
    3ae0:	50011300 	andpl	r1, r1, r0, lsl #6
    3ae4:	7ba09103 	blvc	fe827ef8 <__bss_end__+0xfd3143b8>
    3ae8:	02510113 	subseq	r0, r1, #-1073741820	; 0xc0000004
    3aec:	12000074 	andne	r0, r0, #116	; 0x74
    3af0:	01501ea8 	cmpeq	r0, r8, lsr #29
    3af4:	000016a8 	andeq	r1, r0, r8, lsr #13
    3af8:	0000081c 	andeq	r0, r0, ip, lsl r8
    3afc:	02500113 	subseq	r0, r0, #-1073741820	; 0xc0000004
    3b00:	0113007b 	tsteq	r3, fp, ror r0
    3b04:	00740251 	rsbseq	r0, r4, r1, asr r2
    3b08:	1eb81200 	cdpne	2, 11, cr1, cr8, cr0, {0}
    3b0c:	173a0150 			; <UNDEFINED> instruction: 0x173a0150
    3b10:	083d0000 	ldmdaeq	sp!, {}	; <UNPREDICTABLE>
    3b14:	01130000 	tsteq	r3, r0
    3b18:	d0910350 	addsle	r0, r1, r0, asr r3
    3b1c:	5101137b 	tstpl	r1, fp, ror r3
    3b20:	13007b02 	movwne	r7, #2818	; 0xb02
    3b24:	74025201 	strvc	r5, [r2], #-513	; 0x201
    3b28:	c4120000 	ldrgt	r0, [r2], #-0
    3b2c:	a801501e 	stmdage	r1, {r1, r2, r3, r4, ip, lr}
    3b30:	58000016 	stmdapl	r0, {r1, r2, r4}
    3b34:	13000008 	movwne	r0, #8
    3b38:	91035001 	tstls	r3, r1
    3b3c:	01137bd0 			; <UNDEFINED> instruction: 0x01137bd0
    3b40:	00740251 	rsbseq	r0, r4, r1, asr r2
    3b44:	1ed81200 	cdpne	2, 13, cr1, cr8, cr0, {0}
    3b48:	167e0150 			; <UNDEFINED> instruction: 0x167e0150
    3b4c:	08800000 	stmeq	r0, {}	; <UNPREDICTABLE>
    3b50:	01130000 	tsteq	r3, r0
    3b54:	d0910350 	addsle	r0, r1, r0, asr r3
    3b58:	5101137b 	tstpl	r1, fp, ror r3
    3b5c:	13007402 	movwne	r7, #1026	; 0x402
    3b60:	75025201 	strvc	r5, [r2, #-513]	; 0x201
    3b64:	53011300 	movwpl	r1, #4864	; 0x1300
    3b68:	7af09103 	bvc	ffc27f7c <__bss_end__+0xfe71443c>
    3b6c:	1ee41200 	cdpne	2, 14, cr1, cr4, cr0, {0}
    3b70:	16a80150 	ssatne	r0, #9, r0, asr #2
    3b74:	089a0000 	ldmeq	sl, {}	; <UNPREDICTABLE>
    3b78:	01130000 	tsteq	r3, r0
    3b7c:	00750250 	rsbseq	r0, r5, r0, asr r2
    3b80:	02510113 	subseq	r0, r1, #-1073741820	; 0xc0000004
    3b84:	12000074 	andne	r0, r0, #116	; 0x74
    3b88:	01501ef4 	ldrsheq	r1, [r0, #-228]	; 0xffffff1c
    3b8c:	0000173a 	andeq	r1, r0, sl, lsr r7
    3b90:	000008bb 			; <UNDEFINED> instruction: 0x000008bb
    3b94:	03500113 	cmpeq	r0, #-1073741820	; 0xc0000004
    3b98:	137bb091 	cmnne	fp, #145	; 0x91
    3b9c:	75025101 	strvc	r5, [r2, #-257]	; 0x101
    3ba0:	52011300 	andpl	r1, r1, #0, 6
    3ba4:	00007402 	andeq	r7, r0, r2, lsl #8
    3ba8:	501f0012 	andspl	r0, pc, r2, lsl r0	; <UNPREDICTABLE>
    3bac:	0016a801 	andseq	sl, r6, r1, lsl #16
    3bb0:	0008d600 	andeq	sp, r8, r0, lsl #12
    3bb4:	50011300 	andpl	r1, r1, r0, lsl #6
    3bb8:	7bb09103 	blvc	fec27fcc <__bss_end__+0xfd71448c>
    3bbc:	02510113 	subseq	r0, r1, #-1073741820	; 0xc0000004
    3bc0:	12000074 	andne	r0, r0, #116	; 0x74
    3bc4:	01501f0c 	cmpeq	r0, ip, lsl #30
    3bc8:	000016a8 	andeq	r1, r0, r8, lsr #13
    3bcc:	000008f1 	strdeq	r0, [r0], -r1
    3bd0:	03500113 	cmpeq	r0, #-1073741820	; 0xc0000004
    3bd4:	13067891 	movwne	r7, #26769	; 0x6891
    3bd8:	74025101 	strvc	r5, [r2], #-257	; 0x101
    3bdc:	1c120000 	ldcne	0, cr0, [r2], {-0}
    3be0:	3a01501f 	bcc	57c64 <_back_addr-0x14a839c>
    3be4:	13000017 	movwne	r0, #23
    3be8:	13000009 	movwne	r0, #9
    3bec:	91035001 	tstls	r3, r1
    3bf0:	01137bd0 			; <UNDEFINED> instruction: 0x01137bd0
    3bf4:	78910351 	ldmvc	r1, {r0, r4, r6, r8, r9}
    3bf8:	52011306 	andpl	r1, r1, #402653184	; 0x18000000
    3bfc:	00007402 	andeq	r7, r0, r2, lsl #8
    3c00:	501f2812 	andspl	r2, pc, r2, lsl r8	; <UNPREDICTABLE>
    3c04:	0016a801 	andseq	sl, r6, r1, lsl #16
    3c08:	00092e00 	andeq	r2, r9, r0, lsl #28
    3c0c:	50011300 	andpl	r1, r1, r0, lsl #6
    3c10:	7bd09103 	blvc	ff428024 <__bss_end__+0xfdf144e4>
    3c14:	02510113 	subseq	r0, r1, #-1073741820	; 0xc0000004
    3c18:	12000074 	andne	r0, r0, #116	; 0x74
    3c1c:	01501f3c 	cmpeq	r0, ip, lsr pc
    3c20:	0000167e 	andeq	r1, r0, lr, ror r6
    3c24:	00000956 	andeq	r0, r0, r6, asr r9
    3c28:	03500113 	cmpeq	r0, #-1073741820	; 0xc0000004
    3c2c:	137bd091 	cmnne	fp, #145	; 0x91
    3c30:	74025101 	strvc	r5, [r2], #-257	; 0x101
    3c34:	52011300 	andpl	r1, r1, #0, 6
    3c38:	13007502 	movwne	r7, #1282	; 0x502
    3c3c:	91035301 	tstls	r3, r1, lsl #6
    3c40:	12007af0 	andne	r7, r0, #240, 20	; 0xf0000
    3c44:	01501f48 	cmpeq	r0, r8, asr #30
    3c48:	000016a8 	andeq	r1, r0, r8, lsr #13
    3c4c:	00000970 	andeq	r0, r0, r0, ror r9
    3c50:	02500113 	subseq	r0, r0, #-1073741820	; 0xc0000004
    3c54:	01130075 	tsteq	r3, r5, ror r0
    3c58:	00740251 	rsbseq	r0, r4, r1, asr r2
    3c5c:	1f581200 	svcne	0x00581200
    3c60:	173a0150 			; <UNDEFINED> instruction: 0x173a0150
    3c64:	09910000 	ldmibeq	r1, {}	; <UNPREDICTABLE>
    3c68:	01130000 	tsteq	r3, r0
    3c6c:	c0910350 	addsgt	r0, r1, r0, asr r3
    3c70:	5101137b 	tstpl	r1, fp, ror r3
    3c74:	13007502 	movwne	r7, #1282	; 0x502
    3c78:	74025201 	strvc	r5, [r2], #-513	; 0x201
    3c7c:	64120000 	ldrvs	r0, [r2], #-0
    3c80:	a801501f 	stmdage	r1, {r0, r1, r2, r3, r4, ip, lr}
    3c84:	ac000016 	stcge	0, cr0, [r0], {22}
    3c88:	13000009 	movwne	r0, #9
    3c8c:	91035001 	tstls	r3, r1
    3c90:	01137bc0 	tsteq	r3, r0, asr #23
    3c94:	00740251 	rsbseq	r0, r4, r1, asr r2
    3c98:	1f741200 	svcne	0x00741200
    3c9c:	16dd0150 			; <UNDEFINED> instruction: 0x16dd0150
    3ca0:	09cd0000 	stmibeq	sp, {}^	; <UNPREDICTABLE>
    3ca4:	01130000 	tsteq	r3, r0
    3ca8:	80910350 	addshi	r0, r1, r0, asr r3
    3cac:	5101137b 	tstpl	r1, fp, ror r3
    3cb0:	13007602 	movwne	r7, #1538	; 0x602
    3cb4:	74025201 	strvc	r5, [r2], #-513	; 0x201
    3cb8:	84120000 	ldrhi	r0, [r2], #-0
    3cbc:	1701501f 	smladne	r1, pc, r0, r5	; <UNPREDICTABLE>
    3cc0:	ef000017 	svc	0x00000017
    3cc4:	13000009 	movwne	r0, #9
    3cc8:	0a035001 	beq	d7cd4 <_back_addr-0x142832c>
    3ccc:	01131000 	tsteq	r3, r0
    3cd0:	80910351 	addshi	r0, r1, r1, asr r3
    3cd4:	5201137b 	andpl	r1, r1, #-335544319	; 0xec000001
    3cd8:	00007402 	andeq	r7, r0, r2, lsl #8
    3cdc:	501f9012 	andspl	r9, pc, r2, lsl r0	; <UNPREDICTABLE>
    3ce0:	0016a801 	andseq	sl, r6, r1, lsl #16
    3ce4:	000a0a00 	andeq	r0, sl, r0, lsl #20
    3ce8:	50011300 	andpl	r1, r1, r0, lsl #6
    3cec:	7b809103 	blvc	fe028100 <__bss_end__+0xfcb145c0>
    3cf0:	02510113 	subseq	r0, r1, #-1073741820	; 0xc0000004
    3cf4:	1a000074 	bne	3ecc <_back_addr-0x14fc134>
    3cf8:	01501f94 			; <UNDEFINED> instruction: 0x01501f94
    3cfc:	000016fe 	strdeq	r1, [r0], -lr
    3d00:	501fa812 	andspl	sl, pc, r2, lsl r8	; <UNPREDICTABLE>
    3d04:	0016b901 	andseq	fp, r6, r1, lsl #18
    3d08:	000a3c00 	andeq	r3, sl, r0, lsl #24
    3d0c:	50011300 	andpl	r1, r1, r0, lsl #6
    3d10:	7b809103 	blvc	fe028124 <__bss_end__+0xfcb145e4>
    3d14:	02510113 	subseq	r0, r1, #-1073741820	; 0xc0000004
    3d18:	01130074 	tsteq	r3, r4, ror r0
    3d1c:	d0910352 	addsle	r0, r1, r2, asr r3
    3d20:	5301137b 	movwpl	r1, #4987	; 0x137b
    3d24:	7b909103 	blvc	fe428138 <__bss_end__+0xfcf145f8>
    3d28:	1fb41200 	svcne	0x00b41200
    3d2c:	16a80150 	ssatne	r0, #9, r0, asr #2
    3d30:	0a570000 	beq	15c3d38 <__bss_end__+0xb01f8>
    3d34:	01130000 	tsteq	r3, r0
    3d38:	d0910350 	addsle	r0, r1, r0, asr r3
    3d3c:	5101137b 	tstpl	r1, fp, ror r3
    3d40:	00007402 	andeq	r7, r0, r2, lsl #8
    3d44:	501fc412 	andspl	ip, pc, r2, lsl r4	; <UNPREDICTABLE>
    3d48:	0016dd01 	andseq	sp, r6, r1, lsl #26
    3d4c:	000a7800 	andeq	r7, sl, r0, lsl #16
    3d50:	50011300 	andpl	r1, r1, r0, lsl #6
    3d54:	7b809103 	blvc	fe028168 <__bss_end__+0xfcb14628>
    3d58:	02510113 	subseq	r0, r1, #-1073741820	; 0xc0000004
    3d5c:	01130076 	tsteq	r3, r6, ror r0
    3d60:	00740252 	rsbseq	r0, r4, r2, asr r2
    3d64:	1fd81200 	svcne	0x00d81200
    3d68:	16b90150 	ssatne	r0, #26, r0, asr #2
    3d6c:	0aa00000 	beq	fe803d74 <__bss_end__+0xfd2f0234>
    3d70:	01130000 	tsteq	r3, r0
    3d74:	a0910350 	addsge	r0, r1, r0, asr r3
    3d78:	5101137b 	tstpl	r1, fp, ror r3
    3d7c:	13007402 	movwne	r7, #1026	; 0x402
    3d80:	75025201 	strvc	r5, [r2, #-513]	; 0x201
    3d84:	53011300 	movwpl	r1, #4864	; 0x1300
    3d88:	7bd09103 	blvc	ff42819c <__bss_end__+0xfdf1465c>
    3d8c:	1fe41200 	svcne	0x00e41200
    3d90:	16a80150 	ssatne	r0, #9, r0, asr #2
    3d94:	0aba0000 	beq	fee83d9c <__bss_end__+0xfd97025c>
    3d98:	01130000 	tsteq	r3, r0
    3d9c:	00750250 	rsbseq	r0, r5, r0, asr r2
    3da0:	02510113 	subseq	r0, r1, #-1073741820	; 0xc0000004
    3da4:	12000074 	andne	r0, r0, #116	; 0x74
    3da8:	01501ff0 	ldrsheq	r1, [r0, #-240]	; 0xffffff10
    3dac:	000016a8 	andeq	r1, r0, r8, lsr #13
    3db0:	00000ad5 	ldrdeq	r0, [r0], -r5
    3db4:	03500113 	cmpeq	r0, #-1073741820	; 0xc0000004
    3db8:	137ba091 	cmnne	fp, #145	; 0x91
    3dbc:	74025101 	strvc	r5, [r2], #-257	; 0x101
    3dc0:	04120000 	ldreq	r0, [r2], #-0
    3dc4:	4c015020 	stcmi	0, cr5, [r1], {32}
    3dc8:	f6000003 			; <UNDEFINED> instruction: 0xf6000003
    3dcc:	1300000a 	movwne	r0, #10
    3dd0:	75025001 	strvc	r5, [r2, #-1]
    3dd4:	51011300 	mrspl	r1, SP_irq
    3dd8:	09800a03 	stmibeq	r0, {r0, r1, r9, fp}
    3ddc:	02520113 	subseq	r0, r2, #-1073741820	; 0xc0000004
    3de0:	1a000074 	bne	3fb8 <_back_addr-0x14fc048>
    3de4:	0150200c 	cmpeq	r0, ip
    3de8:	000016fe 	strdeq	r1, [r0], -lr
    3dec:	50203012 	eorpl	r3, r0, r2, lsl r0
    3df0:	00034c01 	andeq	r4, r3, r1, lsl #24
    3df4:	000b2100 	andeq	r2, fp, r0, lsl #2
    3df8:	50011300 	andpl	r1, r1, r0, lsl #6
    3dfc:	13007902 	movwne	r7, #2306	; 0x902
    3e00:	0a035101 	beq	d820c <_back_addr-0x1427df4>
    3e04:	01130d20 	tsteq	r3, r0, lsr #26
    3e08:	7c910352 	ldcvc	3, cr0, [r1], {82}	; 0x52
    3e0c:	341a0006 	ldrcc	r0, [sl], #-6
    3e10:	fe015020 	cdp2	0, 0, cr5, cr1, cr0, {1}
    3e14:	12000016 	andne	r0, r0, #22
    3e18:	01502058 	cmpeq	r0, r8, asr r0
    3e1c:	000016dd 	ldrdeq	r1, [r0], -sp
    3e20:	00000b4a 	andeq	r0, r0, sl, asr #22
    3e24:	03500113 	cmpeq	r0, #-1073741820	; 0xc0000004
    3e28:	137b8091 	cmnne	fp, #145	; 0x91
    3e2c:	76025101 	strvc	r5, [r2], -r1, lsl #2
    3e30:	52011300 	andpl	r1, r1, #0, 6
    3e34:	12004001 	andne	r4, r0, #1
    3e38:	015020d8 	ldrsbeq	r2, [r0, #-8]
    3e3c:	0000173a 	andeq	r1, r0, sl, lsr r7
    3e40:	00000b6b 	andeq	r0, r0, fp, ror #22
    3e44:	03500113 	cmpeq	r0, #-1073741820	; 0xc0000004
    3e48:	137bd091 	cmnne	fp, #145	; 0x91
    3e4c:	79025101 	stmdbvc	r2, {r0, r8, ip, lr}
    3e50:	52011300 	andpl	r1, r1, #0, 6
    3e54:	00007402 	andeq	r7, r0, r2, lsl #8
    3e58:	5020ec12 	eorpl	lr, r0, r2, lsl ip
    3e5c:	00167e01 	andseq	r7, r6, r1, lsl #28
    3e60:	000b9300 	andeq	r9, fp, r0, lsl #6
    3e64:	50011300 	andpl	r1, r1, r0, lsl #6
    3e68:	7bd09103 	blvc	ff42827c <__bss_end__+0xfdf1473c>
    3e6c:	02510113 	subseq	r0, r1, #-1073741820	; 0xc0000004
    3e70:	01130074 	tsteq	r3, r4, ror r0
    3e74:	00750252 	rsbseq	r0, r5, r2, asr r2
    3e78:	03530113 	cmpeq	r3, #-1073741820	; 0xc0000004
    3e7c:	007af091 			; <UNDEFINED> instruction: 0x007af091
    3e80:	5020f812 	eorpl	pc, r0, r2, lsl r8	; <UNPREDICTABLE>
    3e84:	0016a801 	andseq	sl, r6, r1, lsl #16
    3e88:	000bad00 	andeq	sl, fp, r0, lsl #26
    3e8c:	50011300 	andpl	r1, r1, r0, lsl #6
    3e90:	13007502 	movwne	r7, #1282	; 0x502
    3e94:	74025101 	strvc	r5, [r2], #-257	; 0x101
    3e98:	08120000 	ldmdaeq	r2, {}	; <UNPREDICTABLE>
    3e9c:	3a015021 	bcc	57f28 <_back_addr-0x14a80d8>
    3ea0:	ce000017 	mcrgt	0, 0, r0, cr0, cr7, {0}
    3ea4:	1300000b 	movwne	r0, #11
    3ea8:	91035001 	tstls	r3, r1
    3eac:	01137b90 			; <UNDEFINED> instruction: 0x01137b90
    3eb0:	00750251 	rsbseq	r0, r5, r1, asr r2
    3eb4:	02520113 	subseq	r0, r2, #-1073741820	; 0xc0000004
    3eb8:	12000074 	andne	r0, r0, #116	; 0x74
    3ebc:	01502114 	cmpeq	r0, r4, lsl r1
    3ec0:	000016a8 	andeq	r1, r0, r8, lsr #13
    3ec4:	00000be9 	andeq	r0, r0, r9, ror #23
    3ec8:	03500113 	cmpeq	r0, #-1073741820	; 0xc0000004
    3ecc:	137b9091 	cmnne	fp, #145	; 0x91
    3ed0:	74025101 	strvc	r5, [r2], #-257	; 0x101
    3ed4:	24120000 	ldrcs	r0, [r2], #-0
    3ed8:	dd015021 	stcle	0, cr5, [r1, #-132]	; 0xffffff7c
    3edc:	09000016 	stmdbeq	r0, {r1, r2, r4}
    3ee0:	1300000c 	movwne	r0, #12
    3ee4:	75025001 	strvc	r5, [r2, #-1]
    3ee8:	51011300 	mrspl	r1, SP_irq
    3eec:	13007602 	movwne	r7, #1538	; 0x602
    3ef0:	74025201 	strvc	r5, [r2], #-513	; 0x201
    3ef4:	34120000 	ldrcc	r0, [r2], #-0
    3ef8:	3a015021 	bcc	57f84 <_back_addr-0x14a807c>
    3efc:	2a000017 	bcs	3f60 <_back_addr-0x14fc0a0>
    3f00:	1300000c 	movwne	r0, #12
    3f04:	91035001 	tstls	r3, r1
    3f08:	01137bd0 			; <UNDEFINED> instruction: 0x01137bd0
    3f0c:	007a0251 	rsbseq	r0, sl, r1, asr r2
    3f10:	02520113 	subseq	r0, r2, #-1073741820	; 0xc0000004
    3f14:	12000074 	andne	r0, r0, #116	; 0x74
    3f18:	01502148 	cmpeq	r0, r8, asr #2
    3f1c:	0000167e 	andeq	r1, r0, lr, ror r6
    3f20:	00000c52 	andeq	r0, r0, r2, asr ip
    3f24:	03500113 	cmpeq	r0, #-1073741820	; 0xc0000004
    3f28:	137bd091 	cmnne	fp, #145	; 0x91
    3f2c:	74025101 	strvc	r5, [r2], #-257	; 0x101
    3f30:	52011300 	andpl	r1, r1, #0, 6
    3f34:	13007502 	movwne	r7, #1282	; 0x502
    3f38:	91035301 	tstls	r3, r1, lsl #6
    3f3c:	12007af0 	andne	r7, r0, #240, 20	; 0xf0000
    3f40:	01502154 	cmpeq	r0, r4, asr r1
    3f44:	000016a8 	andeq	r1, r0, r8, lsr #13
    3f48:	00000c6c 	andeq	r0, r0, ip, ror #24
    3f4c:	02500113 	subseq	r0, r0, #-1073741820	; 0xc0000004
    3f50:	01130075 	tsteq	r3, r5, ror r0
    3f54:	00740251 	rsbseq	r0, r4, r1, asr r2
    3f58:	21641200 	cmncs	r4, r0, lsl #4
    3f5c:	173a0150 			; <UNDEFINED> instruction: 0x173a0150
    3f60:	0c8d0000 	stceq	0, cr0, [sp], {0}
    3f64:	01130000 	tsteq	r3, r0
    3f68:	a0910350 	addsge	r0, r1, r0, asr r3
    3f6c:	5101137b 	tstpl	r1, fp, ror r3
    3f70:	13007502 	movwne	r7, #1282	; 0x502
    3f74:	74025201 	strvc	r5, [r2], #-513	; 0x201
    3f78:	70120000 	andsvc	r0, r2, r0
    3f7c:	a8015021 	stmdage	r1, {r0, r5, ip, lr}
    3f80:	a8000016 	stmdage	r0, {r1, r2, r4}
    3f84:	1300000c 	movwne	r0, #12
    3f88:	91035001 	tstls	r3, r1
    3f8c:	01137ba0 	tsteq	r3, r0, lsr #23
    3f90:	00740251 	rsbseq	r0, r4, r1, asr r2
    3f94:	21801200 	orrcs	r1, r0, r0, lsl #4
    3f98:	16dd0150 			; <UNDEFINED> instruction: 0x16dd0150
    3f9c:	0cc80000 	stcleq	0, cr0, [r8], {0}
    3fa0:	01130000 	tsteq	r3, r0
    3fa4:	00750250 	rsbseq	r0, r5, r0, asr r2
    3fa8:	02510113 	subseq	r0, r1, #-1073741820	; 0xc0000004
    3fac:	01130076 	tsteq	r3, r6, ror r0
    3fb0:	00740252 	rsbseq	r0, r4, r2, asr r2
    3fb4:	21941200 	orrscs	r1, r4, r0, lsl #4
    3fb8:	16b90150 	ssatne	r0, #26, r0, asr #2
    3fbc:	0cf10000 	ldcleq	0, cr0, [r1]
    3fc0:	01130000 	tsteq	r3, r0
    3fc4:	80910350 	addshi	r0, r1, r0, asr r3
    3fc8:	5101137b 	tstpl	r1, fp, ror r3
    3fcc:	13007402 	movwne	r7, #1026	; 0x402
    3fd0:	91035201 	tstls	r3, r1, lsl #4
    3fd4:	01137bd0 			; <UNDEFINED> instruction: 0x01137bd0
    3fd8:	90910353 	addsls	r0, r1, r3, asr r3
    3fdc:	a012007b 	andsge	r0, r2, fp, ror r0
    3fe0:	a8015021 	stmdage	r1, {r0, r5, ip, lr}
    3fe4:	0c000016 	stceq	0, cr0, [r0], {22}
    3fe8:	1300000d 	movwne	r0, #13
    3fec:	91035001 	tstls	r3, r1
    3ff0:	01137bd0 			; <UNDEFINED> instruction: 0x01137bd0
    3ff4:	00740251 	rsbseq	r0, r4, r1, asr r2
    3ff8:	21b01200 	lslscs	r1, r0, #4
    3ffc:	16dd0150 			; <UNDEFINED> instruction: 0x16dd0150
    4000:	0d2d0000 	stceq	0, cr0, [sp, #-0]
    4004:	01130000 	tsteq	r3, r0
    4008:	80910350 	addshi	r0, r1, r0, asr r3
    400c:	5101137b 	tstpl	r1, fp, ror r3
    4010:	13007602 	movwne	r7, #1538	; 0x602
    4014:	74025201 	strvc	r5, [r2], #-513	; 0x201
    4018:	c4120000 	ldrgt	r0, [r2], #-0
    401c:	b9015021 	stmdblt	r1, {r0, r5, ip, lr}
    4020:	55000016 	strpl	r0, [r0, #-22]
    4024:	1300000d 	movwne	r0, #13
    4028:	91035001 	tstls	r3, r1
    402c:	01137ba0 	tsteq	r3, r0, lsr #23
    4030:	00740251 	rsbseq	r0, r4, r1, asr r2
    4034:	02520113 	subseq	r0, r2, #-1073741820	; 0xc0000004
    4038:	01130075 	tsteq	r3, r5, ror r0
    403c:	d0910353 	addsle	r0, r1, r3, asr r3
    4040:	d012007b 	andsle	r0, r2, fp, ror r0
    4044:	a8015021 	stmdage	r1, {r0, r5, ip, lr}
    4048:	6f000016 	svcvs	0x00000016
    404c:	1300000d 	movwne	r0, #13
    4050:	75025001 	strvc	r5, [r2, #-1]
    4054:	51011300 	mrspl	r1, SP_irq
    4058:	00007402 	andeq	r7, r0, r2, lsl #8
    405c:	5021e012 	eorpl	lr, r1, r2, lsl r0
    4060:	0016dd01 	andseq	sp, r6, r1, lsl #26
    4064:	000d9000 	andeq	r9, sp, r0
    4068:	50011300 	andpl	r1, r1, r0, lsl #6
    406c:	7ba09103 	blvc	fe828480 <__bss_end__+0xfd314940>
    4070:	02510113 	subseq	r0, r1, #-1073741820	; 0xc0000004
    4074:	01130076 	tsteq	r3, r6, ror r0
    4078:	00740252 	rsbseq	r0, r4, r2, asr r2
    407c:	21f01200 	mvnscs	r1, r0, lsl #4
    4080:	16dd0150 			; <UNDEFINED> instruction: 0x16dd0150
    4084:	0db10000 	ldceq	0, cr0, [r1]
    4088:	01130000 	tsteq	r3, r0
    408c:	d0910350 	addsle	r0, r1, r0, asr r3
    4090:	5101137b 	tstpl	r1, fp, ror r3
    4094:	13007602 	movwne	r7, #1538	; 0x602
    4098:	74025201 	strvc	r5, [r2], #-513	; 0x201
    409c:	fc120000 	ldc2	0, cr0, [r2], {-0}
    40a0:	a8015021 	stmdage	r1, {r0, r5, ip, lr}
    40a4:	cc000016 	stcgt	0, cr0, [r0], {22}
    40a8:	1300000d 	movwne	r0, #13
    40ac:	91035001 	tstls	r3, r1
    40b0:	01137ba0 	tsteq	r3, r0, lsr #23
    40b4:	00740251 	rsbseq	r0, r4, r1, asr r2
    40b8:	22081200 	andcs	r1, r8, #0, 4
    40bc:	16a80150 	ssatne	r0, #9, r0, asr #2
    40c0:	0de70000 	stcleq	0, cr0, [r7]
    40c4:	01130000 	tsteq	r3, r0
    40c8:	d0910350 	addsle	r0, r1, r0, asr r3
    40cc:	5101137b 	tstpl	r1, fp, ror r3
    40d0:	00007402 	andeq	r7, r0, r2, lsl #8
    40d4:	50222412 	eorpl	r2, r2, r2, lsl r4
    40d8:	00034c01 	andeq	r4, r3, r1, lsl #24
    40dc:	000e0800 	andeq	r0, lr, r0, lsl #16
    40e0:	50011300 	andpl	r1, r1, r0, lsl #6
    40e4:	13007502 	movwne	r7, #1282	; 0x502
    40e8:	0a035101 	beq	d84f4 <_back_addr-0x1427b0c>
    40ec:	01130900 	tsteq	r3, r0, lsl #18
    40f0:	00740252 	rsbseq	r0, r4, r2, asr r2
    40f4:	22381200 	eorscs	r1, r8, #0, 4
    40f8:	16dd0150 			; <UNDEFINED> instruction: 0x16dd0150
    40fc:	0e280000 	cdpeq	0, 2, cr0, cr8, cr0, {0}
    4100:	01130000 	tsteq	r3, r0
    4104:	00750250 	rsbseq	r0, r5, r0, asr r2
    4108:	02510113 	subseq	r0, r1, #-1073741820	; 0xc0000004
    410c:	01130076 	tsteq	r3, r6, ror r0
    4110:	00740252 	rsbseq	r0, r4, r2, asr r2
    4114:	223c1a00 	eorscs	r1, ip, #0, 20
    4118:	16fe0150 	usatne	r0, #30, r0, asr #2
    411c:	5c120000 	ldcpl	0, cr0, [r2], {-0}
    4120:	b9015022 	stmdblt	r1, {r1, r5, ip, lr}
    4124:	59000016 	stmdbpl	r0, {r1, r2, r4}
    4128:	1300000e 	movwne	r0, #14
    412c:	91035001 	tstls	r3, r1
    4130:	01137bb0 			; <UNDEFINED> instruction: 0x01137bb0
    4134:	00740251 	rsbseq	r0, r4, r1, asr r2
    4138:	02520113 	subseq	r0, r2, #-1073741820	; 0xc0000004
    413c:	01130075 	tsteq	r3, r5, ror r0
    4140:	d0910353 	addsle	r0, r1, r3, asr r3
    4144:	6812007b 	ldmdavs	r2, {r0, r1, r3, r4, r5, r6}
    4148:	a8015022 	stmdage	r1, {r1, r5, ip, lr}
    414c:	73000016 	movwvc	r0, #22
    4150:	1300000e 	movwne	r0, #14
    4154:	75025001 	strvc	r5, [r2, #-1]
    4158:	51011300 	mrspl	r1, SP_irq
    415c:	00007402 	andeq	r7, r0, r2, lsl #8
    4160:	50227412 	eorpl	r7, r2, r2, lsl r4
    4164:	0016a801 	andseq	sl, r6, r1, lsl #16
    4168:	000e8e00 	andeq	r8, lr, r0, lsl #28
    416c:	50011300 	andpl	r1, r1, r0, lsl #6
    4170:	7bb09103 	blvc	fec28584 <__bss_end__+0xfd714a44>
    4174:	02510113 	subseq	r0, r1, #-1073741820	; 0xc0000004
    4178:	12000074 	andne	r0, r0, #116	; 0x74
    417c:	01502288 	cmpeq	r0, r8, lsl #5
    4180:	0000034c 	andeq	r0, r0, ip, asr #6
    4184:	00000eaf 	andeq	r0, r0, pc, lsr #29
    4188:	02500113 	subseq	r0, r0, #-1073741820	; 0xc0000004
    418c:	01130075 	tsteq	r3, r5, ror r0
    4190:	800a0351 	andhi	r0, sl, r1, asr r3
    4194:	52011311 	andpl	r1, r1, #1140850688	; 0x44000000
    4198:	00007402 	andeq	r7, r0, r2, lsl #8
    419c:	5022901a 	eorpl	r9, r2, sl, lsl r0
    41a0:	0016fe01 	andseq	pc, r6, r1, lsl #28
    41a4:	22ac1200 	adccs	r1, ip, #0, 4
    41a8:	16b90150 	ssatne	r0, #26, r0, asr #2
    41ac:	0ee00000 	cdpeq	0, 14, cr0, cr0, cr0, {0}
    41b0:	01130000 	tsteq	r3, r0
    41b4:	c0910350 	addsgt	r0, r1, r0, asr r3
    41b8:	5101137b 	tstpl	r1, fp, ror r3
    41bc:	13007402 	movwne	r7, #1026	; 0x402
    41c0:	75025201 	strvc	r5, [r2, #-513]	; 0x201
    41c4:	53011300 	movwpl	r1, #4864	; 0x1300
    41c8:	7bd09103 	blvc	ff4285dc <__bss_end__+0xfdf14a9c>
    41cc:	22b81200 	adcscs	r1, r8, #0, 4
    41d0:	16a80150 	ssatne	r0, #9, r0, asr #2
    41d4:	0efa0000 	cdpeq	0, 15, cr0, cr10, cr0, {0}
    41d8:	01130000 	tsteq	r3, r0
    41dc:	00750250 	rsbseq	r0, r5, r0, asr r2
    41e0:	02510113 	subseq	r0, r1, #-1073741820	; 0xc0000004
    41e4:	12000074 	andne	r0, r0, #116	; 0x74
    41e8:	015022c4 	cmpeq	r0, r4, asr #5
    41ec:	000016a8 	andeq	r1, r0, r8, lsr #13
    41f0:	00000f15 	andeq	r0, r0, r5, lsl pc
    41f4:	03500113 	cmpeq	r0, #-1073741820	; 0xc0000004
    41f8:	137bc091 	cmnne	fp, #145	; 0x91
    41fc:	74025101 	strvc	r5, [r2], #-257	; 0x101
    4200:	d8120000 	ldmdale	r2, {}	; <UNPREDICTABLE>
    4204:	4c015022 	stcmi	0, cr5, [r1], {34}	; 0x22
    4208:	36000003 	strcc	r0, [r0], -r3
    420c:	1300000f 	movwne	r0, #15
    4210:	75025001 	strvc	r5, [r2, #-1]
    4214:	51011300 	mrspl	r1, SP_irq
    4218:	10800a03 	addne	r0, r0, r3, lsl #20
    421c:	02520113 	subseq	r0, r2, #-1073741820	; 0xc0000004
    4220:	1a000074 	bne	43f8 <_back_addr-0x14fbc08>
    4224:	015022e0 	cmpeq	r0, r0, ror #5
    4228:	000016fe 	strdeq	r1, [r0], -lr
    422c:	5022fc12 	eorpl	pc, r2, r2, lsl ip	; <UNPREDICTABLE>
    4230:	0016a801 	andseq	sl, r6, r1, lsl #16
    4234:	000f5a00 	andeq	r5, pc, r0, lsl #20
    4238:	50011300 	andpl	r1, r1, r0, lsl #6
    423c:	7b909103 	blvc	fe428650 <__bss_end__+0xfcf14b10>
    4240:	02510113 	subseq	r0, r1, #-1073741820	; 0xc0000004
    4244:	12000074 	andne	r0, r0, #116	; 0x74
    4248:	0150230c 	cmpeq	r0, ip, lsl #6
    424c:	000000ba 	strheq	r0, [r0], -sl
    4250:	00000f7a 	andeq	r0, r0, sl, ror pc
    4254:	01500113 	cmpeq	r0, r3, lsl r1
    4258:	51011331 	tstpl	r1, r1, lsr r3
    425c:	7b909103 	blvc	fe428670 <__bss_end__+0xfcf14b30>
    4260:	02520113 	subseq	r0, r2, #-1073741820	; 0xc0000004
    4264:	12000074 	andne	r0, r0, #116	; 0x74
    4268:	0150231c 	cmpeq	r0, ip, lsl r3
    426c:	0000173a 	andeq	r1, r0, sl, lsr r7
    4270:	00000f95 	muleq	r0, r5, pc	; <UNPREDICTABLE>
    4274:	03500113 	cmpeq	r0, #-1073741820	; 0xc0000004
    4278:	137bd091 	cmnne	fp, #145	; 0x91
    427c:	74025201 	strvc	r5, [r2], #-513	; 0x201
    4280:	28120000 	ldmdacs	r2, {}	; <UNPREDICTABLE>
    4284:	a8015023 	stmdage	r1, {r0, r1, r5, ip, lr}
    4288:	b0000016 	andlt	r0, r0, r6, lsl r0
    428c:	1300000f 	movwne	r0, #15
    4290:	91035001 	tstls	r3, r1
    4294:	01137bd0 			; <UNDEFINED> instruction: 0x01137bd0
    4298:	00740251 	rsbseq	r0, r4, r1, asr r2
    429c:	23381200 	teqcs	r8, #0, 4
    42a0:	034c0150 	movteq	r0, #49488	; 0xc150
    42a4:	0fd20000 	svceq	0x00d20000
    42a8:	01130000 	tsteq	r3, r0
    42ac:	d0910350 	addsle	r0, r1, r0, asr r3
    42b0:	5101137b 	tstpl	r1, fp, ror r3
    42b4:	11000a03 	tstne	r0, r3, lsl #20
    42b8:	02520113 	subseq	r0, r2, #-1073741820	; 0xc0000004
    42bc:	1a000074 	bne	4494 <_back_addr-0x14fbb6c>
    42c0:	01502340 	cmpeq	r0, r0, asr #6
    42c4:	000016fe 	strdeq	r1, [r0], -lr
    42c8:	1dbc1400 	cfldrsne	mvf1, [ip]
    42cc:	16dd0150 			; <UNDEFINED> instruction: 0x16dd0150
    42d0:	01130000 	tsteq	r3, r0
    42d4:	d0910350 	addsle	r0, r1, r0, asr r3
    42d8:	5101137b 	tstpl	r1, fp, ror r3
    42dc:	13007602 	movwne	r7, #1538	; 0x602
    42e0:	0a035201 	beq	d8aec <_back_addr-0x1427514>
    42e4:	00000200 	andeq	r0, r0, r0, lsl #4
    42e8:	00002526 	andeq	r2, r0, r6, lsr #10
    42ec:	06040500 	streq	r0, [r4], -r0, lsl #10
    42f0:	26000010 			; <UNDEFINED> instruction: 0x26000010
    42f4:	00000033 	andeq	r0, r0, r3, lsr r0
    42f8:	00325227 	eorseq	r5, r2, r7, lsr #4
    42fc:	4f027e01 	svcmi	0x00027e01
    4300:	48000000 	stmdami	r0, {}	; <UNPREDICTABLE>
    4304:	c4015023 	strgt	r5, [r1], #-35	; 0x23
    4308:	01000002 	tsteq	r0, r2
    430c:	0015ee9c 	mulseq	r5, ip, lr
    4310:	00690c00 	rsbeq	r0, r9, r0, lsl #24
    4314:	4f028001 	svcmi	0x00028001
    4318:	70000000 	andvc	r0, r0, r0
    431c:	2800002b 	stmdacs	r0, {r0, r1, r3, r5}
    4320:	00000aac 	andeq	r0, r0, ip, lsr #21
    4324:	ee028101 	mvfs	f0, f1
    4328:	03000015 	movweq	r0, #21
    432c:	2977f891 	ldmdbcs	r7!, {r0, r4, r7, fp, ip, sp, lr, pc}^
    4330:	00000b01 	andeq	r0, r0, r1, lsl #22
    4334:	33028201 	movwcc	r8, #8705	; 0x2201
    4338:	00000000 	andeq	r0, r0, r0
    433c:	6769730e 	strbvs	r7, [r9, -lr, lsl #6]!
    4340:	02830100 	addeq	r0, r3, #0, 2
    4344:	000015ff 	strdeq	r1, [r0], -pc	; <UNPREDICTABLE>
    4348:	73f89103 	mvnsvc	r9, #-1073741824	; 0xc0000000
    434c:	000b1028 	andeq	r1, fp, r8, lsr #32
    4350:	02840100 	addeq	r0, r4, #0, 2
    4354:	000015ff 	strdeq	r1, [r0], -pc	; <UNPREDICTABLE>
    4358:	75f89103 	ldrbvc	r9, [r8, #259]!	; 0x103
    435c:	00081a0f 	andeq	r1, r8, pc, lsl #20
    4360:	4fd70100 	svcmi	0x00d70100
    4364:	80000000 	andhi	r0, r0, r0
    4368:	10000010 	andne	r0, r0, r0, lsl r0
    436c:	06051900 	streq	r1, [r5], -r0, lsl #18
    4370:	93010000 	movwls	r0, #4096	; 0x1000
    4374:	00004f02 	andeq	r4, r0, r2, lsl #30
    4378:	00109200 	andseq	r9, r0, r0, lsl #4
    437c:	19001000 	stmdbne	r0, {ip}
    4380:	0000027e 	andeq	r0, r0, lr, ror r2
    4384:	4f024801 	svcmi	0x00024801
    4388:	a4000000 	strge	r0, [r0], #-0
    438c:	10000010 	andne	r0, r0, r0, lsl r0
    4390:	05682500 	strbeq	r2, [r8, #-1280]!	; 0x500
    4394:	116c0000 	cmnne	ip, r0
    4398:	b0190000 	andslt	r0, r9, r0
    439c:	01000002 	tsteq	r0, r2
    43a0:	004f02b5 	strheq	r0, [pc], #-37	; <UNPREDICTABLE>
    43a4:	10bf0000 	adcsne	r0, pc, r0
    43a8:	00100000 	andseq	r0, r0, r0
    43ac:	5025fc11 	eorpl	pc, r5, r1, lsl ip	; <UNPREDICTABLE>
    43b0:	00001001 	andeq	r1, r0, r1
    43b4:	0010f200 	andseq	pc, r0, r0, lsl #4
    43b8:	030e1900 	movweq	r1, #59648	; 0xe900
    43bc:	7a010000 	bvc	443c4 <_back_addr-0x14bbc3c>
    43c0:	00004f02 	andeq	r4, r0, r2, lsl #30
    43c4:	0010de00 	andseq	sp, r0, r0, lsl #28
    43c8:	14001000 	strne	r1, [r0], #-0
    43cc:	01502608 	cmpeq	r0, r8, lsl #12
    43d0:	00001728 	andeq	r1, r0, r8, lsr #14
    43d4:	05500113 	ldrbeq	r0, [r0, #-275]	; 0x113
    43d8:	5031a803 	eorspl	sl, r1, r3, lsl #16
    43dc:	12000001 	andne	r0, r0, #1
    43e0:	01502574 	cmpeq	r0, r4, ror r5
    43e4:	00001717 	andeq	r1, r0, r7, lsl r7
    43e8:	00001114 	andeq	r1, r0, r4, lsl r1
    43ec:	03500113 	cmpeq	r0, #-1073741820	; 0xc0000004
    43f0:	1312000a 	tstne	r2, #10
    43f4:	91035101 	tstls	r3, r1, lsl #2
    43f8:	011375f0 			; <UNDEFINED> instruction: 0x011375f0
    43fc:	20080252 	andcs	r0, r8, r2, asr r2
    4400:	25781a00 	ldrbcs	r1, [r8, #-2560]!	; 0xa00
    4404:	16fe0150 	usatne	r0, #30, r0, asr #2
    4408:	8c120000 	ldchi	0, cr0, [r2], {-0}
    440c:	4b015025 	blmi	584a8 <_back_addr-0x14a7b58>
    4410:	41000017 	tstmi	r0, r7, lsl r0
    4414:	13000011 	movwne	r0, #17
    4418:	03055001 	movweq	r5, #20481	; 0x5001
    441c:	01503198 			; <UNDEFINED> instruction: 0x01503198
    4420:	03510113 	cmpeq	r1, #-1073741820	; 0xc0000004
    4424:	1375f091 	cmnne	r5, #145	; 0x91
    4428:	08025201 	stmdaeq	r2, {r0, r9, ip, lr}
    442c:	9c120020 	ldcls	0, cr0, [r2], {32}
    4430:	6d015025 	stcvs	0, cr5, [r1, #-148]	; 0xffffff6c
    4434:	62000017 	andvs	r0, r0, #23
    4438:	13000011 	movwne	r0, #17
    443c:	7d025001 	stcvc	0, cr5, [r2, #-4]
    4440:	51011300 	mrspl	r1, SP_irq
    4444:	75f09103 	ldrbvc	r9, [r0, #259]!	; 0x103
    4448:	02520113 	subseq	r0, r2, #-1073741820	; 0xc0000004
    444c:	1a002008 	bne	c474 <_back_addr-0x14f3b8c>
    4450:	015025a8 	cmpeq	r0, r8, lsr #11
    4454:	000016fe 	strdeq	r1, [r0], -lr
    4458:	25b01100 	ldrcs	r1, [r0, #256]!	; 0x100
    445c:	000c0150 	andeq	r0, ip, r0, asr r1
    4460:	119f0000 	orrsne	r0, pc, r0
    4464:	0e190000 	cdpeq	0, 1, cr0, cr9, cr0, {0}
    4468:	01000003 	tsteq	r0, r3
    446c:	004f027a 	subeq	r0, pc, sl, ror r2	; <UNPREDICTABLE>
    4470:	118b0000 	orrne	r0, fp, r0
    4474:	00100000 	andseq	r0, r0, r0
    4478:	5025bc14 	eorpl	fp, r5, r4, lsl ip
    447c:	00172801 	andseq	r2, r7, r1, lsl #16
    4480:	50011300 	andpl	r1, r1, r0, lsl #6
    4484:	31bc0305 			; <UNDEFINED> instruction: 0x31bc0305
    4488:	00000150 	andeq	r0, r0, r0, asr r1
    448c:	50236412 	eorpl	r6, r3, r2, lsl r4
    4490:	0016dd01 	andseq	sp, r6, r1, lsl #26
    4494:	0011c000 	andseq	ip, r1, r0
    4498:	50011300 	andpl	r1, r1, r0, lsl #6
    449c:	77f09103 	ldrbvc	r9, [r0, r3, lsl #2]!
    44a0:	01510113 	cmpeq	r1, r3, lsl r1
    44a4:	52011330 	andpl	r1, r1, #48, 6	; 0xc0000000
    44a8:	04000a03 	streq	r0, [r0], #-2563	; 0xa03
    44ac:	23741200 	cmncs	r4, #0, 4
    44b0:	16dd0150 			; <UNDEFINED> instruction: 0x16dd0150
    44b4:	11e00000 	mvnne	r0, r0
    44b8:	01130000 	tsteq	r3, r0
    44bc:	007d0250 	rsbseq	r0, sp, r0, asr r2
    44c0:	01510113 	cmpeq	r1, r3, lsl r1
    44c4:	52011330 	andpl	r1, r1, #48, 6	; 0xc0000000
    44c8:	01000a03 	tsteq	r0, r3, lsl #20
    44cc:	23841200 	orrcs	r1, r4, #0, 4
    44d0:	16dd0150 			; <UNDEFINED> instruction: 0x16dd0150
    44d4:	12010000 	andne	r0, r1, #0
    44d8:	01130000 	tsteq	r3, r0
    44dc:	f0910350 			; <UNDEFINED> instruction: 0xf0910350
    44e0:	51011375 	tstpl	r1, r5, ror r3
    44e4:	01133001 	tsteq	r3, r1
    44e8:	000a0352 	andeq	r0, sl, r2, asr r3
    44ec:	94120001 	ldrls	r0, [r2], #-1
    44f0:	17015023 	strne	r5, [r1, -r3, lsr #32]
    44f4:	22000017 	andcs	r0, r0, #23
    44f8:	13000012 	movwne	r0, #18
    44fc:	30015001 	andcc	r5, r1, r1
    4500:	03510113 	cmpeq	r1, #-1073741820	; 0xc0000004
    4504:	1377f091 	cmnne	r7, #145	; 0x91
    4508:	0a035201 	beq	d8d14 <_back_addr-0x14272ec>
    450c:	12000100 	andne	r0, r0, #0, 2
    4510:	015023a4 	cmpeq	r0, r4, lsr #7
    4514:	00001717 	andeq	r1, r0, r7, lsl r7
    4518:	00001244 	andeq	r1, r0, r4, asr #4
    451c:	03500113 	cmpeq	r0, #-1073741820	; 0xc0000004
    4520:	1308000a 	movwne	r0, #32778	; 0x800a
    4524:	91035101 	tstls	r3, r1, lsl #2
    4528:	011379f0 			; <UNDEFINED> instruction: 0x011379f0
    452c:	20080252 	andcs	r0, r8, r2, asr r2
    4530:	23b41200 			; <UNDEFINED> instruction: 0x23b41200
    4534:	17170150 			; <UNDEFINED> instruction: 0x17170150
    4538:	12650000 	rsbne	r0, r5, #0
    453c:	01130000 	tsteq	r3, r0
    4540:	000a0350 	andeq	r0, sl, r0, asr r3
    4544:	51011309 	tstpl	r1, r9, lsl #6
    4548:	7a909103 	bvc	fe42895c <__bss_end__+0xfcf14e1c>
    454c:	01520113 	cmpeq	r2, r3, lsl r1
    4550:	c4120040 	ldrgt	r0, [r2], #-64	; 0x40
    4554:	17015023 	strne	r5, [r1, -r3, lsr #32]
    4558:	86000017 			; <UNDEFINED> instruction: 0x86000017
    455c:	13000012 	movwne	r0, #18
    4560:	0a035001 	beq	d856c <_back_addr-0x1427a94>
    4564:	01130980 	tsteq	r3, r0, lsl #19
    4568:	a0910351 	addsge	r0, r1, r1, asr r3
    456c:	5201137a 	andpl	r1, r1, #-402653183	; 0xe8000001
    4570:	12004001 	andne	r4, r0, #1
    4574:	015023d4 	ldrsbeq	r2, [r0, #-52]	; 0xffffffcc
    4578:	00001717 	andeq	r1, r0, r7, lsl r7
    457c:	000012a7 	andeq	r1, r0, r7, lsr #5
    4580:	03500113 	cmpeq	r0, #-1073741820	; 0xc0000004
    4584:	130b000a 	movwne	r0, #45066	; 0xb00a
    4588:	91035101 	tstls	r3, r1, lsl #2
    458c:	01137ab0 			; <UNDEFINED> instruction: 0x01137ab0
    4590:	00400152 	subeq	r0, r0, r2, asr r1
    4594:	5023e412 	eorpl	lr, r3, r2, lsl r4
    4598:	00171701 	andseq	r1, r7, r1, lsl #14
    459c:	0012c800 	andseq	ip, r2, r0, lsl #16
    45a0:	50011300 	andpl	r1, r1, r0, lsl #6
    45a4:	10000a03 	andne	r0, r0, r3, lsl #20
    45a8:	03510113 	cmpeq	r1, #-1073741820	; 0xc0000004
    45ac:	137ac091 	cmnne	sl, #145	; 0x91
    45b0:	40015201 	andmi	r5, r1, r1, lsl #4
    45b4:	23f41200 	mvnscs	r1, #0, 4
    45b8:	17170150 			; <UNDEFINED> instruction: 0x17170150
    45bc:	12e90000 	rscne	r0, r9, #0
    45c0:	01130000 	tsteq	r3, r0
    45c4:	800a0350 	andhi	r0, sl, r0, asr r3
    45c8:	51011310 	tstpl	r1, r0, lsl r3
    45cc:	7ad09103 	bvc	ff4289e0 <__bss_end__+0xfdf14ea0>
    45d0:	01520113 	cmpeq	r2, r3, lsl r1
    45d4:	04120040 	ldreq	r0, [r2], #-64	; 0x40
    45d8:	17015024 	strne	r5, [r1, -r4, lsr #32]
    45dc:	0a000017 	beq	4640 <_back_addr-0x14fb9c0>
    45e0:	13000013 	movwne	r0, #19
    45e4:	0a035001 	beq	d85f0 <_back_addr-0x1427a10>
    45e8:	01131100 	tsteq	r3, r0, lsl #2
    45ec:	e0910351 	adds	r0, r1, r1, asr r3
    45f0:	5201137a 	andpl	r1, r1, #-402653183	; 0xe8000001
    45f4:	12004001 	andne	r4, r0, #1
    45f8:	01502414 	cmpeq	r0, r4, lsl r4
    45fc:	00001717 	andeq	r1, r0, r7, lsl r7
    4600:	0000132b 	andeq	r1, r0, fp, lsr #6
    4604:	03500113 	cmpeq	r0, #-1073741820	; 0xc0000004
    4608:	1311800a 	tstne	r1, #10
    460c:	91035101 	tstls	r3, r1, lsl #2
    4610:	01137af0 			; <UNDEFINED> instruction: 0x01137af0
    4614:	00400152 	subeq	r0, r0, r2, asr r1
    4618:	50241c12 	eorpl	r1, r4, r2, lsl ip
    461c:	00177f01 	andseq	r7, r7, r1, lsl #30
    4620:	00134000 	andseq	r4, r3, r0
    4624:	50011300 	andpl	r1, r1, r0, lsl #6
    4628:	0da20a03 	stceq	10, cr0, [r2, #12]!
    462c:	24281200 	strtcs	r1, [r8], #-512	; 0x200
    4630:	177f0150 			; <UNDEFINED> instruction: 0x177f0150
    4634:	13550000 	cmpne	r5, #0
    4638:	01130000 	tsteq	r3, r0
    463c:	a40a0350 	strge	r0, [sl], #-848	; 0x350
    4640:	3412000d 	ldrcc	r0, [r2], #-13
    4644:	7f015024 	svcvc	0x00015024
    4648:	6a000017 	bvs	46ac <_back_addr-0x14fb954>
    464c:	13000013 	movwne	r0, #19
    4650:	0a035001 	beq	d865c <_back_addr-0x14279a4>
    4654:	12000da6 	andne	r0, r0, #10624	; 0x2980
    4658:	01502440 	cmpeq	r0, r0, asr #8
    465c:	0000177f 	andeq	r1, r0, pc, ror r7
    4660:	0000137f 	andeq	r1, r0, pc, ror r3
    4664:	03500113 	cmpeq	r0, #-1073741820	; 0xc0000004
    4668:	000daf0a 	andeq	sl, sp, sl, lsl #30
    466c:	50244c12 	eorpl	r4, r4, r2, lsl ip
    4670:	00177f01 	andseq	r7, r7, r1, lsl #30
    4674:	00139400 	andseq	r9, r3, r0, lsl #8
    4678:	50011300 	andpl	r1, r1, r0, lsl #6
    467c:	0db00a03 	ldceq	10, cr0, [r0, #12]!
    4680:	24581200 	ldrbcs	r1, [r8], #-512	; 0x200
    4684:	177f0150 			; <UNDEFINED> instruction: 0x177f0150
    4688:	13a90000 			; <UNDEFINED> instruction: 0x13a90000
    468c:	01130000 	tsteq	r3, r0
    4690:	b10a0350 	tstlt	sl, r0, asr r3
    4694:	6412000d 	ldrvs	r0, [r2], #-13
    4698:	7f015024 	svcvc	0x00015024
    469c:	be000017 	mcrlt	0, 0, r0, cr0, cr7, {0}
    46a0:	13000013 	movwne	r0, #19
    46a4:	0a035001 	beq	d86b0 <_back_addr-0x1427950>
    46a8:	12000db2 	andne	r0, r0, #11392	; 0x2c80
    46ac:	01502470 	cmpeq	r0, r0, ror r4
    46b0:	0000177f 	andeq	r1, r0, pc, ror r7
    46b4:	000013d3 	ldrdeq	r1, [r0], -r3
    46b8:	03500113 	cmpeq	r0, #-1073741820	; 0xc0000004
    46bc:	000db30a 	andeq	fp, sp, sl, lsl #6
    46c0:	50247c12 	eorpl	r7, r4, r2, lsl ip
    46c4:	00177f01 	andseq	r7, r7, r1, lsl #30
    46c8:	0013e800 	andseq	lr, r3, r0, lsl #16
    46cc:	50011300 	andpl	r1, r1, r0, lsl #6
    46d0:	0db40a03 	ldceq	10, cr0, [r4, #12]!
    46d4:	24881200 	strcs	r1, [r8], #512	; 0x200
    46d8:	177f0150 			; <UNDEFINED> instruction: 0x177f0150
    46dc:	13fd0000 	mvnsne	r0, #0
    46e0:	01130000 	tsteq	r3, r0
    46e4:	b50a0350 	strlt	r0, [sl, #-848]	; 0x350
    46e8:	9412000d 	ldrls	r0, [r2], #-13
    46ec:	7f015024 	svcvc	0x00015024
    46f0:	12000017 	andne	r0, r0, #23
    46f4:	13000014 	movwne	r0, #20
    46f8:	0a035001 	beq	d8704 <_back_addr-0x14278fc>
    46fc:	12000db6 	andne	r0, r0, #11648	; 0x2d80
    4700:	015024a0 	cmpeq	r0, r0, lsr #9
    4704:	0000177f 	andeq	r1, r0, pc, ror r7
    4708:	00001427 	andeq	r1, r0, r7, lsr #8
    470c:	03500113 	cmpeq	r0, #-1073741820	; 0xc0000004
    4710:	000db70a 	andeq	fp, sp, sl, lsl #14
    4714:	5024ac12 	eorpl	sl, r4, r2, lsl ip
    4718:	00177f01 	andseq	r7, r7, r1, lsl #30
    471c:	00143c00 	andseq	r3, r4, r0, lsl #24
    4720:	50011300 	andpl	r1, r1, r0, lsl #6
    4724:	0db80a03 	ldceq	10, cr0, [r8, #12]!
    4728:	24b81200 	ldrtcs	r1, [r8], #512	; 0x200
    472c:	177f0150 			; <UNDEFINED> instruction: 0x177f0150
    4730:	14510000 	ldrbne	r0, [r1], #-0
    4734:	01130000 	tsteq	r3, r0
    4738:	ba0a0350 	blt	285480 <_back_addr-0x127ab80>
    473c:	c412000d 	ldrgt	r0, [r2], #-13
    4740:	7f015024 	svcvc	0x00015024
    4744:	66000017 			; <UNDEFINED> instruction: 0x66000017
    4748:	13000014 	movwne	r0, #20
    474c:	0a035001 	beq	d8758 <_back_addr-0x14278a8>
    4750:	12000dbb 	andne	r0, r0, #11968	; 0x2ec0
    4754:	015024d0 	ldrsbeq	r2, [r0, #-64]	; 0xffffffc0
    4758:	0000177f 	andeq	r1, r0, pc, ror r7
    475c:	0000147b 	andeq	r1, r0, fp, ror r4
    4760:	03500113 	cmpeq	r0, #-1073741820	; 0xc0000004
    4764:	000dc20a 	andeq	ip, sp, sl, lsl #4
    4768:	5024dc12 	eorpl	sp, r4, r2, lsl ip
    476c:	00177f01 	andseq	r7, r7, r1, lsl #30
    4770:	00149000 	andseq	r9, r4, r0
    4774:	50011300 	andpl	r1, r1, r0, lsl #6
    4778:	0e0b0a03 	vmlaeq.f32	s0, s22, s6
    477c:	24e81200 	strbtcs	r1, [r8], #512	; 0x200
    4780:	177f0150 			; <UNDEFINED> instruction: 0x177f0150
    4784:	14a50000 	strtne	r0, [r5], #0
    4788:	01130000 	tsteq	r3, r0
    478c:	0c0a0350 	stceq	3, cr0, [sl], {80}	; 0x50
    4790:	f412000e 			; <UNDEFINED> instruction: 0xf412000e
    4794:	7f015024 	svcvc	0x00015024
    4798:	ba000017 	blt	47fc <_back_addr-0x14fb804>
    479c:	13000014 	movwne	r0, #20
    47a0:	0a035001 	beq	d87ac <_back_addr-0x1427854>
    47a4:	12000e0e 	andne	r0, r0, #14, 28	; 0xe0
    47a8:	01502500 	cmpeq	r0, r0, lsl #10
    47ac:	0000177f 	andeq	r1, r0, pc, ror r7
    47b0:	000014cf 	andeq	r1, r0, pc, asr #9
    47b4:	03500113 	cmpeq	r0, #-1073741820	; 0xc0000004
    47b8:	000e230a 	andeq	r2, lr, sl, lsl #6
    47bc:	50250c12 	eorpl	r0, r5, r2, lsl ip
    47c0:	00177f01 	andseq	r7, r7, r1, lsl #30
    47c4:	0014e400 	andseq	lr, r4, r0, lsl #8
    47c8:	50011300 	andpl	r1, r1, r0, lsl #6
    47cc:	0e240a03 	vmuleq.f32	s0, s8, s6
    47d0:	25241200 	strcs	r1, [r4, #-512]!	; 0x200
    47d4:	17910150 			; <UNDEFINED> instruction: 0x17910150
    47d8:	150b0000 	strne	r0, [fp, #-0]
    47dc:	01130000 	tsteq	r3, r0
    47e0:	f0910350 			; <UNDEFINED> instruction: 0xf0910350
    47e4:	51011377 	tstpl	r1, r7, ror r3
    47e8:	01a50a03 			; <UNDEFINED> instruction: 0x01a50a03
    47ec:	02520113 	subseq	r0, r2, #-1073741820	; 0xc0000004
    47f0:	0113007d 	tsteq	r3, sp, ror r0
    47f4:	00300153 	eorseq	r0, r0, r3, asr r1
    47f8:	50253812 	eorpl	r3, r5, r2, lsl r8
    47fc:	00174b01 	andseq	r4, r7, r1, lsl #22
    4800:	00153000 	andseq	r3, r5, r0
    4804:	50011300 	andpl	r1, r1, r0, lsl #6
    4808:	317c0305 	cmncc	ip, r5, lsl #6
    480c:	01130150 	tsteq	r3, r0, asr r1
    4810:	f0910351 			; <UNDEFINED> instruction: 0xf0910351
    4814:	52011377 	andpl	r1, r1, #-603979775	; 0xdc000001
    4818:	01a50a03 			; <UNDEFINED> instruction: 0x01a50a03
    481c:	254c1200 	strbcs	r1, [ip, #-512]	; 0x200
    4820:	174b0150 	smlsldne	r0, fp, r0, r1
    4824:	15530000 	ldrbne	r0, [r3, #-0]
    4828:	01130000 	tsteq	r3, r0
    482c:	88030550 	stmdahi	r3, {r4, r6, r8, sl}
    4830:	13015031 	movwne	r5, #4145	; 0x1031
    4834:	7d025101 	stfvcs	f5, [r2, #-4]
    4838:	52011300 	andpl	r1, r1, #0, 6
    483c:	00200802 	eoreq	r0, r0, r2, lsl #16
    4840:	5025501a 	eorpl	r5, r5, sl, lsl r0
    4844:	0016fe01 	andseq	pc, r6, r1, lsl #28
    4848:	25601200 	strbcs	r1, [r0, #-512]!	; 0x200
    484c:	17050150 	smlsdne	r5, r0, r1, r0
    4850:	157d0000 	ldrbne	r0, [sp, #-0]!
    4854:	01130000 	tsteq	r3, r0
    4858:	000a0350 	andeq	r0, sl, r0, asr r3
    485c:	51011312 	tstpl	r1, r2, lsl r3
    4860:	13200802 	teqne	r0, #131072	; 0x20000
    4864:	7d025201 	sfmvc	f5, 4, [r2, #-4]
    4868:	641a0000 	ldrvs	r0, [sl], #-0
    486c:	fe015025 	cdp2	0, 0, cr5, cr1, cr5, {1}
    4870:	1a000016 	bne	48d0 <_back_addr-0x14fb730>
    4874:	015025c0 	cmpeq	r0, r0, asr #11
    4878:	000016fe 	strdeq	r1, [r0], -lr
    487c:	5025d012 	eorpl	sp, r5, r2, lsl r0
    4880:	0016dd01 	andseq	sp, r6, r1, lsl #26
    4884:	0015b000 	andseq	fp, r5, r0
    4888:	50011300 	andpl	r1, r1, r0, lsl #6
    488c:	77f09103 	ldrbvc	r9, [r0, r3, lsl #2]!
    4890:	01510113 	cmpeq	r1, r3, lsl r1
    4894:	52011330 	andpl	r1, r1, #48, 6	; 0xc0000000
    4898:	04000a03 	streq	r0, [r0], #-2563	; 0xa03
    489c:	25e01200 	strbcs	r1, [r0, #512]!	; 0x200
    48a0:	16dd0150 			; <UNDEFINED> instruction: 0x16dd0150
    48a4:	15d00000 	ldrbne	r0, [r0]
    48a8:	01130000 	tsteq	r3, r0
    48ac:	007d0250 	rsbseq	r0, sp, r0, asr r2
    48b0:	01510113 	cmpeq	r1, r3, lsl r1
    48b4:	52011330 	andpl	r1, r1, #48, 6	; 0xc0000000
    48b8:	01000a03 	tsteq	r0, r3, lsl #20
    48bc:	25f01400 	ldrbcs	r1, [r0, #1024]!	; 0x400
    48c0:	16dd0150 			; <UNDEFINED> instruction: 0x16dd0150
    48c4:	01130000 	tsteq	r3, r0
    48c8:	f0910350 			; <UNDEFINED> instruction: 0xf0910350
    48cc:	51011375 	tstpl	r1, r5, ror r3
    48d0:	01133001 	tsteq	r3, r1
    48d4:	000a0352 	andeq	r0, sl, r2, asr r3
    48d8:	15000001 	strne	r0, [r0, #-1]
    48dc:	00000033 	andeq	r0, r0, r3, lsr r0
    48e0:	000015ff 	strdeq	r1, [r0], -pc	; <UNPREDICTABLE>
    48e4:	00002c16 	andeq	r2, r0, r6, lsl ip
    48e8:	0003ff00 	andeq	pc, r3, r0, lsl #30
    48ec:	00003315 	andeq	r3, r0, r5, lsl r3
    48f0:	00160f00 	andseq	r0, r6, r0, lsl #30
    48f4:	002c1700 	eoreq	r1, ip, r0, lsl #14
    48f8:	00ff0000 	rscseq	r0, pc, r0
    48fc:	0003e12a 	andeq	lr, r3, sl, lsr #2
    4900:	02c70100 	sbceq	r0, r7, #0, 2
    4904:	0000004f 	andeq	r0, r0, pc, asr #32
    4908:	0150260c 	cmpeq	r0, ip, lsl #12
    490c:	00000008 	andeq	r0, r0, r8
    4910:	164d9c01 	strbne	r9, [sp], -r1, lsl #24
    4914:	05190000 	ldreq	r0, [r9, #-0]
    4918:	01000006 	tsteq	r0, r6
    491c:	004f0293 	umaaleq	r0, pc, r3, r2	; <UNPREDICTABLE>
    4920:	163b0000 	ldrtne	r0, [fp], -r0
    4924:	00100000 	andseq	r0, r0, r0
    4928:	5026142b 	eorpl	r1, r6, fp, lsr #8
    492c:	00177f01 	andseq	r7, r7, r1, lsl #30
    4930:	50011300 	andpl	r1, r1, r0, lsl #6
    4934:	0da60a03 	stceq	10, cr0, [r6, #12]!
    4938:	33150000 	tstcc	r5, #0
    493c:	5d000000 	stcpl	0, cr0, [r0, #-0]
    4940:	17000016 	smladne	r0, r6, r0, r0
    4944:	0000002c 	andeq	r0, r0, ip, lsr #32
    4948:	d22c003f 	eorle	r0, ip, #63	; 0x3f
    494c:	01000003 	tsteq	r0, r3
    4950:	00164d04 	andseq	r4, r6, r4, lsl #26
    4954:	02682c00 	rsbeq	r2, r8, #0, 24
    4958:	05010000 	streq	r0, [r1, #-0]
    495c:	000015ee 	andeq	r1, r0, lr, ror #11
    4960:	0003002c 	andeq	r0, r3, ip, lsr #32
    4964:	33060100 	movwcc	r0, #24832	; 0x6100
    4968:	2d000000 	stccs	0, cr0, [r0, #-0]
    496c:	00000530 	andeq	r0, r0, r0, lsr r5
    4970:	004f8804 	subeq	r8, pc, r4, lsl #16
    4974:	16a20000 	strtne	r0, [r2], r0
    4978:	252e0000 	strcs	r0, [lr, #-0]!
    497c:	2e000003 	cdpcs	0, 0, cr0, cr0, cr3, {0}
    4980:	00000025 	andeq	r0, r0, r5, lsr #32
    4984:	0003252e 	andeq	r2, r3, lr, lsr #10
    4988:	16a22e00 	strtne	r2, [r2], r0, lsl #28
    498c:	05000000 	streq	r0, [r0, #-0]
    4990:	00002504 	andeq	r2, r0, r4, lsl #10
    4994:	09fe0f00 	ldmibeq	lr!, {r8, r9, sl, fp}^
    4998:	75010000 	strvc	r0, [r1, #-0]
    499c:	0000004f 	andeq	r0, r0, pc, asr #32
    49a0:	000016b9 			; <UNDEFINED> instruction: 0x000016b9
    49a4:	412d0010 	teqmi	sp, r0, lsl r0
    49a8:	04000007 	streq	r0, [r0], #-7
    49ac:	00004f89 	andeq	r4, r0, r9, lsl #31
    49b0:	0016dd00 	andseq	sp, r6, r0, lsl #26
    49b4:	03252e00 	teqeq	r5, #0, 28
    49b8:	252e0000 	strcs	r0, [lr, #-0]!
    49bc:	2e000000 	cdpcs	0, 0, cr0, cr0, cr0, {0}
    49c0:	00000325 	andeq	r0, r0, r5, lsr #6
    49c4:	0016a22e 	andseq	sl, r6, lr, lsr #4
    49c8:	542d0000 	strtpl	r0, [sp], #-0
    49cc:	0300000a 	movweq	r0, #10
    49d0:	0016fc88 	andseq	pc, r6, r8, lsl #25
    49d4:	0016fc00 	andseq	pc, r6, r0, lsl #24
    49d8:	16fc2e00 	ldrbtne	r2, [ip], r0, lsl #28
    49dc:	4f2e0000 	svcmi	0x002e0000
    49e0:	2e000000 	cdpcs	0, 0, cr0, cr0, cr0, {0}
    49e4:	0000006b 	andeq	r0, r0, fp, rrx
    49e8:	30042f00 	andcc	r2, r4, r0, lsl #30
    49ec:	000003dc 	ldrdeq	r0, [r0], -ip
    49f0:	7e197303 	cdpvc	3, 1, cr7, cr9, cr3, {0}
    49f4:	01000002 	tsteq	r0, r2
    49f8:	004f0248 	subeq	r0, pc, r8, asr #4
    49fc:	17170000 	ldrne	r0, [r7, -r0]
    4a00:	00100000 	andseq	r0, r0, r0
    4a04:	00081a0f 	andeq	r1, r8, pc, lsl #20
    4a08:	4fd70100 	svcmi	0x00d70100
    4a0c:	28000000 	stmdacs	r0, {}	; <UNPREDICTABLE>
    4a10:	10000017 	andne	r0, r0, r7, lsl r0
    4a14:	030e1900 	movweq	r1, #59648	; 0xe900
    4a18:	7a010000 	bvc	44a20 <_back_addr-0x14bb5e0>
    4a1c:	00004f02 	andeq	r4, r0, r2, lsl #30
    4a20:	00173a00 	andseq	r3, r7, r0, lsl #20
    4a24:	0f001000 	svceq	0x00001000
    4a28:	00000277 	andeq	r0, r0, r7, ror r2
    4a2c:	004f7301 	subeq	r7, pc, r1, lsl #6
    4a30:	174b0000 	strbne	r0, [fp, -r0]
    4a34:	00100000 	andseq	r0, r0, r0
    4a38:	000ab831 	andeq	fp, sl, r1, lsr r8
    4a3c:	66870300 	strvs	r0, [r7], r0, lsl #6
    4a40:	2e000017 	mcrcs	0, 0, r0, cr0, cr7, {0}
    4a44:	00000076 	andeq	r0, r0, r6, ror r0
    4a48:	0017662e 	andseq	r6, r7, lr, lsr #12
    4a4c:	00252e00 	eoreq	r2, r5, r0, lsl #28
    4a50:	05000000 	streq	r0, [r0, #-0]
    4a54:	00176c04 	andseq	r6, r7, r4, lsl #24
    4a58:	b0193200 	andslt	r3, r9, r0, lsl #4
    4a5c:	01000002 	tsteq	r0, r2
    4a60:	004f02b5 	strheq	r0, [pc], #-37	; <UNPREDICTABLE>
    4a64:	177f0000 	ldrbne	r0, [pc, -r0]!
    4a68:	00100000 	andseq	r0, r0, r0
    4a6c:	00060519 	andeq	r0, r6, r9, lsl r5
    4a70:	02930100 	addseq	r0, r3, #0, 2
    4a74:	0000004f 	andeq	r0, r0, pc, asr #32
    4a78:	00001791 	muleq	r0, r1, r7
    4a7c:	c2330010 	eorsgt	r0, r3, #16
    4a80:	04000008 	streq	r0, [r0], #-8
    4a84:	00004f8d 	andeq	r4, r0, sp, lsl #31
    4a88:	03252e00 	teqeq	r5, #0, 28
    4a8c:	252e0000 	strcs	r0, [lr, #-0]!
    4a90:	2e000000 	cdpcs	0, 0, cr0, cr0, cr0, {0}
    4a94:	00000325 	andeq	r0, r0, r5, lsr #6
    4a98:	0016a22e 	andseq	sl, r6, lr, lsr #4
    4a9c:	eb000000 	bl	4aa4 <_back_addr-0x14fb55c>
    4aa0:	04000002 	streq	r0, [r0], #-2
    4aa4:	000ea600 	andeq	sl, lr, r0, lsl #12
    4aa8:	a9010400 	stmdbge	r1, {sl}
    4aac:	01000000 	mrseq	r0, (UNDEF: 0)
    4ab0:	00000b2a 	andeq	r0, r0, sl, lsr #22
    4ab4:	0000045d 	andeq	r0, r0, sp, asr r4
    4ab8:	01502614 	cmpeq	r0, r4, lsl r6
    4abc:	00000168 	andeq	r0, r0, r8, ror #2
    4ac0:	00000e95 	muleq	r0, r5, lr
    4ac4:	0007f302 	andeq	pc, r7, r2, lsl #6
    4ac8:	30b00200 	adcscc	r0, r0, r0, lsl #4
    4acc:	03000000 	movweq	r0, #0
    4ad0:	00590801 	subseq	r0, r9, r1, lsl #16
    4ad4:	01030000 	mrseq	r0, (UNDEF: 3)
    4ad8:	00005b06 	andeq	r5, r0, r6, lsl #22
    4adc:	07020300 	streq	r0, [r2, -r0, lsl #6]
    4ae0:	00000067 	andeq	r0, r0, r7, rrx
    4ae4:	9f050203 	svcls	0x00050203
    4ae8:	02000000 	andeq	r0, r0, #0
    4aec:	00000270 	andeq	r0, r0, r0, ror r2
    4af0:	0057b402 	subseq	fp, r7, r2, lsl #8
    4af4:	04030000 	streq	r0, [r3], #-0
    4af8:	00008407 	andeq	r8, r0, r7, lsl #8
    4afc:	05040400 	streq	r0, [r4, #-1024]	; 0x400
    4b00:	00746e69 	rsbseq	r6, r4, r9, ror #28
    4b04:	7a070803 	bvc	1c6b18 <_back_addr-0x13394e8>
    4b08:	03000000 	movweq	r0, #0
    4b0c:	00910508 	addseq	r0, r1, r8, lsl #10
    4b10:	17020000 	strne	r0, [r2, -r0]
    4b14:	0200000b 	andeq	r0, r0, #11
    4b18:	000025b8 			; <UNDEFINED> instruction: 0x000025b8
    4b1c:	07040300 	streq	r0, [r4, -r0, lsl #6]
    4b20:	0000007f 	andeq	r0, r0, pc, ror r0
    4b24:	000b8305 	andeq	r8, fp, r5, lsl #6
    4b28:	4c130100 	ldfmis	f0, [r3], {-0}
    4b2c:	01000000 	mrseq	r0, (UNDEF: 0)
    4b30:	000000ac 	andeq	r0, r0, ip, lsr #1
    4b34:	000b3f06 	andeq	r3, fp, r6, lsl #30
    4b38:	57130100 	ldrpl	r0, [r3, -r0, lsl #2]
    4b3c:	06000000 	streq	r0, [r0], -r0
    4b40:	00000b7c 	andeq	r0, r0, ip, ror fp
    4b44:	00571301 	subseq	r1, r7, r1, lsl #6
    4b48:	05000000 	streq	r0, [r0, #-0]
    4b4c:	00000b1c 	andeq	r0, r0, ip, lsl fp
    4b50:	00733d01 	rsbseq	r3, r3, r1, lsl #26
    4b54:	de010000 	cdple	0, 0, cr0, cr1, cr0, {0}
    4b58:	06000000 	streq	r0, [r0], -r0
    4b5c:	00000b3f 	andeq	r0, r0, pc, lsr fp
    4b60:	004c3d01 	subeq	r3, ip, r1, lsl #26
    4b64:	6c060000 	stcvs	0, cr0, [r6], {-0}
    4b68:	0100000b 	tsteq	r0, fp
    4b6c:	00004c3d 	andeq	r4, r0, sp, lsr ip
    4b70:	0b720700 	bleq	1c86778 <__bss_end__+0x772c38>
    4b74:	3f010000 	svccc	0x00010000
    4b78:	00000073 	andeq	r0, r0, r3, ror r0
    4b7c:	00850800 	addeq	r0, r5, r0, lsl #16
    4b80:	26140000 	ldrcs	r0, [r4], -r0
    4b84:	00580150 	subseq	r0, r8, r0, asr r1
    4b88:	9c010000 	stcls	0, cr0, [r1], {-0}
    4b8c:	00000118 	andeq	r0, r0, r8, lsl r1
    4b90:	00009509 	andeq	r9, r0, r9, lsl #10
    4b94:	002bc000 	eoreq	ip, fp, r0
    4b98:	00a00a00 	adceq	r0, r0, r0, lsl #20
    4b9c:	51010000 	mrspl	r0, (UNDEF: 1)
    4ba0:	0005800b 	andeq	r8, r5, fp
    4ba4:	00a00a00 	adceq	r0, r0, r0, lsl #20
    4ba8:	51010000 	mrspl	r0, (UNDEF: 1)
    4bac:	00009509 	andeq	r9, r0, r9, lsl #10
    4bb0:	002c0700 	eoreq	r0, ip, r0, lsl #14
    4bb4:	0c000000 	stceq	0, cr0, [r0], {-0}
    4bb8:	00000b32 	andeq	r0, r0, r2, lsr fp
    4bbc:	004c2e01 	subeq	r2, ip, r1, lsl #28
    4bc0:	266c0000 	strbtcs	r0, [ip], -r0
    4bc4:	002c0150 	eoreq	r0, ip, r0, asr r1
    4bc8:	9c010000 	stcls	0, cr0, [r1], {-0}
    4bcc:	00000141 	andeq	r0, r0, r1, asr #2
    4bd0:	000b3f0d 	andeq	r3, fp, sp, lsl #30
    4bd4:	4c2e0100 	stfmis	f0, [lr], #-0
    4bd8:	35000000 	strcc	r0, [r0, #-0]
    4bdc:	0000002c 	andeq	r0, r0, ip, lsr #32
    4be0:	0000ac08 	andeq	sl, r0, r8, lsl #24
    4be4:	50269800 	eorpl	r9, r6, r0, lsl #16
    4be8:	00003001 	andeq	r3, r0, r1
    4bec:	949c0100 	ldrls	r0, [ip], #256	; 0x100
    4bf0:	09000001 	stmdbeq	r0, {r0}
    4bf4:	000000bc 	strheq	r0, [r0], -ip
    4bf8:	00002c56 	andeq	r2, r0, r6, asr ip
    4bfc:	0000c70a 	andeq	ip, r0, sl, lsl #14
    4c00:	0e510100 	rdfeqs	f0, f1, f0
    4c04:	000000d2 	ldrdeq	r0, [r0], -r2
    4c08:	26a80f00 	strtcs	r0, [r8], r0, lsl #30
    4c0c:	00140150 	andseq	r0, r4, r0, asr r1
    4c10:	c70a0000 	strgt	r0, [sl, -r0]
    4c14:	01000000 	mrseq	r0, (UNDEF: 0)
    4c18:	00bc0951 	adcseq	r0, ip, r1, asr r9
    4c1c:	2c900000 	ldccs	0, cr0, [r0], {0}
    4c20:	a80f0000 	stmdage	pc, {}	; <UNPREDICTABLE>
    4c24:	14015026 	strne	r5, [r1], #-38	; 0x26
    4c28:	10000000 	andne	r0, r0, r0
    4c2c:	000000d2 	ldrdeq	r0, [r0], -r2
    4c30:	11000000 	mrsne	r0, (UNDEF: 0)
    4c34:	00000a0a 	andeq	r0, r0, sl, lsl #20
    4c38:	26c85e01 	strbcs	r5, [r8], r1, lsl #28
    4c3c:	005c0150 	subseq	r0, ip, r0, asr r1
    4c40:	9c010000 	stcls	0, cr0, [r1], {-0}
    4c44:	00000243 	andeq	r0, r0, r3, asr #4
    4c48:	000b470d 	andeq	r4, fp, sp, lsl #14
    4c4c:	575e0100 	ldrbpl	r0, [lr, -r0, lsl #2]
    4c50:	be000000 	cdplt	0, 0, cr0, cr0, cr0, {0}
    4c54:	1200002c 	andne	r0, r0, #44	; 0x2c
    4c58:	00000b62 	andeq	r0, r0, r2, ror #22
    4c5c:	004c6001 	subeq	r6, ip, r1
    4c60:	2cdf0000 	ldclcs	0, cr0, [pc], {0}
    4c64:	85130000 	ldrhi	r0, [r3, #-0]
    4c68:	dc000000 	stcle	0, cr0, [r0], {-0}
    4c6c:	98015026 	stmdals	r1, {r1, r2, r5, ip, lr}
    4c70:	01000005 	tsteq	r0, r5
    4c74:	0001fb68 	andeq	pc, r1, r8, ror #22
    4c78:	00a00a00 	adceq	r0, r0, r0, lsl #20
    4c7c:	51010000 	mrspl	r0, (UNDEF: 1)
    4c80:	00009514 	andeq	r9, r0, r4, lsl r5
    4c84:	980b0000 	stmdals	fp, {}	; <UNPREDICTABLE>
    4c88:	0a000005 	beq	4ca4 <_back_addr-0x14fb35c>
    4c8c:	000000a0 	andeq	r0, r0, r0, lsr #1
    4c90:	95145101 	ldrls	r5, [r4, #-257]	; 0x101
    4c94:	00000000 	andeq	r0, r0, r0
    4c98:	ac150000 	ldcge	0, cr0, [r5], {-0}
    4c9c:	f8000000 			; <UNDEFINED> instruction: 0xf8000000
    4ca0:	b8015026 	stmdalt	r1, {r1, r2, r5, ip, lr}
    4ca4:	01000005 	tsteq	r0, r5
    4ca8:	00c70a6b 	sbceq	r0, r7, fp, ror #20
    4cac:	51010000 	mrspl	r0, (UNDEF: 1)
    4cb0:	0000bc14 	andeq	fp, r0, r4, lsl ip
    4cb4:	b80b0000 	stmdalt	fp, {}	; <UNPREDICTABLE>
    4cb8:	0e000005 	cdpeq	0, 0, cr0, cr0, cr5, {0}
    4cbc:	000000d2 	ldrdeq	r0, [r0], -r2
    4cc0:	05b80b00 	ldreq	r0, [r8, #2816]!	; 0xb00
    4cc4:	c70a0000 	strgt	r0, [sl, -r0]
    4cc8:	01000000 	mrseq	r0, (UNDEF: 0)
    4ccc:	00bc1451 	adcseq	r1, ip, r1, asr r4
    4cd0:	0b000000 	bleq	4cd8 <_back_addr-0x14fb328>
    4cd4:	000005b8 			; <UNDEFINED> instruction: 0x000005b8
    4cd8:	0000d210 	andeq	sp, r0, r0, lsl r2
    4cdc:	00000000 	andeq	r0, r0, r0
    4ce0:	70160000 	andsvc	r0, r6, r0
    4ce4:	01000007 	tsteq	r0, r7
    4ce8:	5027246d 	eorpl	r2, r7, sp, ror #8
    4cec:	00005801 	andeq	r5, r0, r1, lsl #16
    4cf0:	0d9c0100 	ldfeqs	f0, [ip]
    4cf4:	00000b54 	andeq	r0, r0, r4, asr fp
    4cf8:	00576d01 	subseq	r6, r7, r1, lsl #26
    4cfc:	2cfe0000 	ldclcs	0, cr0, [lr]
    4d00:	62120000 	andsvs	r0, r2, #0
    4d04:	0100000b 	tsteq	r0, fp
    4d08:	00004c6f 	andeq	r4, r0, pc, ror #24
    4d0c:	002d1f00 	eoreq	r1, sp, r0, lsl #30
    4d10:	00851300 	addeq	r1, r5, r0, lsl #6
    4d14:	27340000 	ldrcs	r0, [r4, -r0]!
    4d18:	05d00150 	ldrbeq	r0, [r0, #336]	; 0x150
    4d1c:	75010000 	strvc	r0, [r1, #-0]
    4d20:	000002a6 	andeq	r0, r0, r6, lsr #5
    4d24:	0000a00a 	andeq	sl, r0, sl
    4d28:	14510100 	ldrbne	r0, [r1], #-256	; 0x100
    4d2c:	00000095 	muleq	r0, r5, r0
    4d30:	05d00b00 	ldrbeq	r0, [r0, #2816]	; 0xb00
    4d34:	a00a0000 	andge	r0, sl, r0
    4d38:	01000000 	mrseq	r0, (UNDEF: 0)
    4d3c:	00951451 	addseq	r1, r5, r1, asr r4
    4d40:	00000000 	andeq	r0, r0, r0
    4d44:	00ac1500 	adceq	r1, ip, r0, lsl #10
    4d48:	27500000 	ldrbcs	r0, [r0, -r0]
    4d4c:	05f00150 	ldrbeq	r0, [r0, #336]!	; 0x150
    4d50:	78010000 	stmdavc	r1, {}	; <UNPREDICTABLE>
    4d54:	0000c70a 	andeq	ip, r0, sl, lsl #14
    4d58:	14510100 	ldrbne	r0, [r1], #-256	; 0x100
    4d5c:	000000bc 	strheq	r0, [r0], -ip
    4d60:	05f00b00 	ldrbeq	r0, [r0, #2816]!	; 0xb00
    4d64:	d20e0000 	andle	r0, lr, #0
    4d68:	00000000 	andeq	r0, r0, r0
    4d6c:	0005f00b 	andeq	pc, r5, fp
    4d70:	00c70a00 	sbceq	r0, r7, r0, lsl #20
    4d74:	51010000 	mrspl	r0, (UNDEF: 1)
    4d78:	0000bc14 	andeq	fp, r0, r4, lsl ip
    4d7c:	f00b0000 			; <UNDEFINED> instruction: 0xf00b0000
    4d80:	10000005 	andne	r0, r0, r5
    4d84:	000000d2 	ldrdeq	r0, [r0], -r2
    4d88:	00000000 	andeq	r0, r0, r0
    4d8c:	0d500000 	ldcleq	0, cr0, [r0, #-0]
    4d90:	00040000 	andeq	r0, r4, r0
    4d94:	00000fe5 	andeq	r0, r0, r5, ror #31
    4d98:	00a90104 	adceq	r0, r9, r4, lsl #2
    4d9c:	df010000 	svcle	0x00010000
    4da0:	5d00000b 	stcpl	0, cr0, [r0, #-44]	; 0xffffffd4
    4da4:	7c000004 	stcvc	0, cr0, [r0], {4}
    4da8:	c8015027 	stmdagt	r1, {r0, r1, r2, r5, ip, lr}
    4dac:	b2000004 	andlt	r0, r0, #4
    4db0:	0200000f 	andeq	r0, r0, #15
    4db4:	000007f3 	strdeq	r0, [r0], -r3
    4db8:	0030b002 	eorseq	fp, r0, r2
    4dbc:	01030000 	mrseq	r0, (UNDEF: 3)
    4dc0:	00005908 	andeq	r5, r0, r8, lsl #18
    4dc4:	06010300 	streq	r0, [r1], -r0, lsl #6
    4dc8:	0000005b 	andeq	r0, r0, fp, asr r0
    4dcc:	67070203 	strvs	r0, [r7, -r3, lsl #4]
    4dd0:	03000000 	movweq	r0, #0
    4dd4:	009f0502 	addseq	r0, pc, r2, lsl #10
    4dd8:	70020000 	andvc	r0, r2, r0
    4ddc:	02000002 	andeq	r0, r0, #2
    4de0:	000057b4 			; <UNDEFINED> instruction: 0x000057b4
    4de4:	07040300 	streq	r0, [r4, -r0, lsl #6]
    4de8:	00000084 	andeq	r0, r0, r4, lsl #1
    4dec:	69050404 	stmdbvs	r5, {r2, sl}
    4df0:	0300746e 	movweq	r7, #1134	; 0x46e
    4df4:	007a0708 	rsbseq	r0, sl, r8, lsl #14
    4df8:	08030000 	stmdaeq	r3, {}	; <UNPREDICTABLE>
    4dfc:	00009105 	andeq	r9, r0, r5, lsl #2
    4e00:	07040300 	streq	r0, [r4, -r0, lsl #6]
    4e04:	0000007f 	andeq	r0, r0, pc, ror r0
    4e08:	000a7502 	andeq	r7, sl, r2, lsl #10
    4e0c:	73e50200 	mvnvc	r0, #0, 4
    4e10:	05000000 	streq	r0, [r0, #-0]
    4e14:	00008b04 	andeq	r8, r0, r4, lsl #22
    4e18:	00900600 	addseq	r0, r0, r0, lsl #12
    4e1c:	01030000 	mrseq	r0, (UNDEF: 3)
    4e20:	00006208 	andeq	r6, r0, r8, lsl #4
    4e24:	03040700 	movweq	r0, #18176	; 0x4700
    4e28:	0000be2f 	andeq	fp, r0, pc, lsr #28
    4e2c:	4c440800 	mcrrmi	8, 0, r0, r4, cr0
    4e30:	3203004c 	andcc	r0, r3, #76	; 0x4c
    4e34:	0000004c 	andeq	r0, r0, ip, asr #32
    4e38:	00180804 	andseq	r0, r8, r4, lsl #16
    4e3c:	000bb209 	andeq	fp, fp, r9, lsl #4
    4e40:	4c330300 	ldcmi	3, cr0, [r3], #-0
    4e44:	04000000 	streq	r0, [r0], #-0
    4e48:	00000018 	andeq	r0, r0, r8, lsl r0
    4e4c:	37030407 	strcc	r0, [r3, -r7, lsl #8]
    4e50:	000000e5 	andeq	r0, r0, r5, ror #1
    4e54:	44425208 	strbmi	r5, [r2], #-520	; 0x208
    4e58:	4c3a0300 	ldcmi	3, cr0, [sl], #-0
    4e5c:	04000000 	streq	r0, [r0], #-0
    4e60:	09001808 	stmdbeq	r0, {r3, fp, ip}
    4e64:	00000bb2 			; <UNDEFINED> instruction: 0x00000bb2
    4e68:	004c3b03 	subeq	r3, ip, r3, lsl #22
    4e6c:	18040000 	stmdane	r4, {}	; <UNPREDICTABLE>
    4e70:	07000000 	streq	r0, [r0, -r0]
    4e74:	0c3f0304 	ldceq	3, cr0, [pc], #-16	; 4e6c <_back_addr-0x14fb194>
    4e78:	08000001 	stmdaeq	r0, {r0}
    4e7c:	00444854 	subeq	r4, r4, r4, asr r8
    4e80:	004c4203 	subeq	r4, ip, r3, lsl #4
    4e84:	08040000 	stmdaeq	r4, {}	; <UNPREDICTABLE>
    4e88:	b2090018 	andlt	r0, r9, #24
    4e8c:	0300000b 	movweq	r0, #11
    4e90:	00004c43 	andeq	r4, r0, r3, asr #24
    4e94:	00180400 	andseq	r0, r8, r0, lsl #8
    4e98:	910a0000 	mrsls	r0, (UNDEF: 10)
    4e9c:	0400000d 	streq	r0, [r0], #-13
    4ea0:	01452c03 	cmpeq	r5, r3, lsl #24
    4ea4:	bd0b0000 	stclt	0, cr0, [fp, #-0]
    4ea8:	0300000c 	movweq	r0, #12
    4eac:	00004c2e 	andeq	r4, r0, lr, lsr #24
    4eb0:	0dec0b00 	stcleq	11, cr0, [ip]
    4eb4:	35030000 	strcc	r0, [r3, #-0]
    4eb8:	00000097 	muleq	r0, r7, r0
    4ebc:	000b8d0b 	andeq	r8, fp, fp, lsl #26
    4ec0:	be3d0300 	cdplt	3, 3, cr0, cr13, cr0, {0}
    4ec4:	0b000000 	bleq	4ecc <_back_addr-0x14fb134>
    4ec8:	00000b95 	muleq	r0, r5, fp
    4ecc:	00e54503 	rsceq	r4, r5, r3, lsl #10
    4ed0:	02000000 	andeq	r0, r0, #0
    4ed4:	00000d92 	muleq	r0, r2, sp
    4ed8:	010c4703 	tsteq	ip, r3, lsl #14
    4edc:	04070000 	streq	r0, [r7], #-0
    4ee0:	01774c03 	cmneq	r7, r3, lsl #24
    4ee4:	44080000 	strmi	r0, [r8], #-0
    4ee8:	03004d4c 	movweq	r4, #3404	; 0xd4c
    4eec:	00004c4f 	andeq	r4, r0, pc, asr #24
    4ef0:	18080400 	stmdane	r8, {sl}
    4ef4:	0bb20900 	bleq	fec872fc <__bss_end__+0xfd7737bc>
    4ef8:	50030000 	andpl	r0, r3, r0
    4efc:	0000004c 	andeq	r0, r0, ip, asr #32
    4f00:	00001804 	andeq	r1, r0, r4, lsl #16
    4f04:	03040700 	movweq	r0, #18176	; 0x4700
    4f08:	0001cb53 	andeq	ip, r1, r3, asr fp
    4f0c:	0dd10900 	ldcleq	9, cr0, [r1]
    4f10:	56030000 	strpl	r0, [r3], -r0
    4f14:	0000004c 	andeq	r0, r0, ip, asr #32
    4f18:	001f0104 	andseq	r0, pc, r4, lsl #2
    4f1c:	000bd909 	andeq	sp, fp, r9, lsl #18
    4f20:	4c570300 	mrrcmi	3, 0, r0, r7, cr0
    4f24:	04000000 	streq	r0, [r0], #-0
    4f28:	09001e01 	stmdbeq	r0, {r0, r9, sl, fp, ip}
    4f2c:	00000c31 	andeq	r0, r0, r1, lsr ip
    4f30:	004c5803 	subeq	r5, ip, r3, lsl #16
    4f34:	01040000 	mrseq	r0, (UNDEF: 4)
    4f38:	7609001d 			; <UNDEFINED> instruction: 0x7609001d
    4f3c:	0300000d 	movweq	r0, #13
    4f40:	00004c59 	andeq	r4, r0, r9, asr ip
    4f44:	1c010400 	cfstrsne	mvf0, [r1], {-0}
    4f48:	0bb20900 	bleq	fec87350 <__bss_end__+0xfd773810>
    4f4c:	5a030000 	bpl	c4f54 <_back_addr-0x143b0ac>
    4f50:	0000004c 	andeq	r0, r0, ip, asr #32
    4f54:	00001c04 	andeq	r1, r0, r4, lsl #24
    4f58:	0d650a00 	vstmdbeq	r5!, {s1-s0}
    4f5c:	03040000 	movweq	r0, #16384	; 0x4000
    4f60:	0001f949 	andeq	pc, r1, r9, asr #18
    4f64:	0cbd0b00 	vpopeq	{d0-d-1}
    4f68:	4b030000 	blmi	c4f70 <_back_addr-0x143b090>
    4f6c:	0000004c 	andeq	r0, r0, ip, asr #32
    4f70:	000dec0b 	andeq	lr, sp, fp, lsl #24
    4f74:	50510300 	subspl	r0, r1, r0, lsl #6
    4f78:	0b000001 	bleq	4f84 <_back_addr-0x14fb07c>
    4f7c:	00000b8d 	andeq	r0, r0, sp, lsl #23
    4f80:	01775b03 	cmneq	r7, r3, lsl #22
    4f84:	02000000 	andeq	r0, r0, #0
    4f88:	00000d66 	andeq	r0, r0, r6, ror #26
    4f8c:	01cb5d03 	biceq	r5, fp, r3, lsl #26
    4f90:	04070000 	streq	r0, [r7], #-0
    4f94:	02586203 	subseq	r6, r8, #805306368	; 0x30000000
    4f98:	ab090000 	blge	244fa0 <_back_addr-0x12bb060>
    4f9c:	0300000c 	movweq	r0, #12
    4fa0:	00004c65 	andeq	r4, r0, r5, ror #24
    4fa4:	1f010400 	svcne	0x00010400
    4fa8:	49490800 	stmdbmi	r9, {fp}^
    4fac:	67030044 	strvs	r0, [r3, -r4, asr #32]
    4fb0:	0000004c 	andeq	r0, r0, ip, asr #32
    4fb4:	001c0304 	andseq	r0, ip, r4, lsl #6
    4fb8:	000c3c09 	andeq	r3, ip, r9, lsl #24
    4fbc:	4c6d0300 	stclmi	3, cr0, [sp], #-0
    4fc0:	04000000 	streq	r0, [r0], #-0
    4fc4:	09001a02 	stmdbeq	r0, {r1, r9, fp, ip}
    4fc8:	00000c50 	andeq	r0, r0, r0, asr ip
    4fcc:	004c6e03 	subeq	r6, ip, r3, lsl #28
    4fd0:	02040000 	andeq	r0, r4, #0
    4fd4:	46090018 			; <UNDEFINED> instruction: 0x46090018
    4fd8:	0300000c 	movweq	r0, #12
    4fdc:	00004c71 	andeq	r4, r0, r1, ror ip
    4fe0:	00180400 	andseq	r0, r8, r0, lsl #8
    4fe4:	04070000 	streq	r0, [r7], #-0
    4fe8:	02ca7403 	sbceq	r7, sl, #50331648	; 0x3000000
    4fec:	ae090000 	cdpge	0, 0, cr0, cr9, cr0, {0}
    4ff0:	0300000d 	movweq	r0, #13
    4ff4:	00004c77 	andeq	r4, r0, r7, ror ip
    4ff8:	1f010400 	svcne	0x00010400
    4ffc:	0db40900 	ldceq	9, cr0, [r4]
    5000:	7c030000 	stcvc	0, cr0, [r3], {-0}
    5004:	0000004c 	andeq	r0, r0, ip, asr #32
    5008:	001e0104 	andseq	r0, lr, r4, lsl #2
    500c:	000ce909 	andeq	lr, ip, r9, lsl #18
    5010:	4c7e0300 	ldclmi	3, cr0, [lr], #-0
    5014:	04000000 	streq	r0, [r0], #-0
    5018:	09001d01 	stmdbeq	r0, {r0, r8, sl, fp, ip}
    501c:	00000bbb 			; <UNDEFINED> instruction: 0x00000bbb
    5020:	004c8003 	subeq	r8, ip, r3
    5024:	01040000 	mrseq	r0, (UNDEF: 4)
    5028:	3c09001c 	stccc	0, cr0, [r9], {28}
    502c:	0300000c 	movweq	r0, #12
    5030:	00004c81 	andeq	r4, r0, r1, lsl #25
    5034:	1a020400 	bne	8603c <_back_addr-0x1479fc4>
    5038:	0c960900 	ldceq	9, cr0, [r6], {0}
    503c:	82030000 	andhi	r0, r3, #0
    5040:	0000004c 	andeq	r0, r0, ip, asr #32
    5044:	00180204 	andseq	r0, r8, r4, lsl #4
    5048:	000c4609 	andeq	r4, ip, r9, lsl #12
    504c:	4c880300 	stcmi	3, cr0, [r8], {0}
    5050:	04000000 	streq	r0, [r0], #-0
    5054:	00000018 	andeq	r0, r0, r8, lsl r0
    5058:	000d050a 	andeq	r0, sp, sl, lsl #10
    505c:	5f030400 	svcpl	0x00030400
    5060:	000002f8 	strdeq	r0, [r0], -r8
    5064:	000cbd0b 	andeq	fp, ip, fp, lsl #26
    5068:	4c610300 	stclmi	3, cr0, [r1], #-0
    506c:	0b000000 	bleq	5074 <_back_addr-0x14faf8c>
    5070:	00000dec 	andeq	r0, r0, ip, ror #27
    5074:	02047203 	andeq	r7, r4, #805306368	; 0x30000000
    5078:	8d0b0000 	stchi	0, cr0, [fp, #-0]
    507c:	0300000b 	movweq	r0, #11
    5080:	00025889 	andeq	r5, r2, r9, lsl #17
    5084:	06020000 	streq	r0, [r2], -r0
    5088:	0300000d 	movweq	r0, #13
    508c:	0002ca8b 	andeq	ip, r2, fp, lsl #21
    5090:	03040700 	movweq	r0, #18176	; 0x4700
    5094:	00037590 	muleq	r3, r0, r5
    5098:	4c570800 	mrrcmi	8, 0, r0, r7, cr0
    509c:	93030053 	movwls	r0, #12371	; 0x3053
    50a0:	0000004c 	andeq	r0, r0, ip, asr #32
    50a4:	001e0204 	andseq	r0, lr, r4, lsl #4
    50a8:	50545308 	subspl	r5, r4, r8, lsl #6
    50ac:	4c980300 	ldcmi	3, cr0, [r8], {0}
    50b0:	04000000 	streq	r0, [r0], #-0
    50b4:	08001d01 	stmdaeq	r0, {r0, r8, sl, fp, ip}
    50b8:	004e4550 	subeq	r4, lr, r0, asr r5
    50bc:	004c9b03 	subeq	r9, ip, r3, lsl #22
    50c0:	01040000 	mrseq	r0, (UNDEF: 4)
    50c4:	4508001c 	strmi	r0, [r8, #-28]
    50c8:	03005350 	movweq	r5, #848	; 0x350
    50cc:	00004c9c 	muleq	r0, ip, ip
    50d0:	1a020400 	bne	860d8 <_back_addr-0x1479f28>
    50d4:	52420800 	subpl	r0, r2, #0, 16
    50d8:	a103004b 	tstge	r3, fp, asr #32
    50dc:	0000004c 	andeq	r0, r0, ip, asr #32
    50e0:	00190104 	andseq	r0, r9, r4, lsl #2
    50e4:	000bef09 	andeq	lr, fp, r9, lsl #30
    50e8:	4ca40300 	stcmi	3, cr0, [r4]
    50ec:	04000000 	streq	r0, [r0], #-0
    50f0:	09001801 	stmdbeq	r0, {r0, fp, ip}
    50f4:	00000bb2 			; <UNDEFINED> instruction: 0x00000bb2
    50f8:	004ca503 	subeq	sl, ip, r3, lsl #10
    50fc:	18040000 	stmdane	r4, {}	; <UNPREDICTABLE>
    5100:	0a000000 	beq	5108 <_back_addr-0x14faef8>
    5104:	00000c24 	andeq	r0, r0, r4, lsr #24
    5108:	988d0304 	stmls	sp, {r2, r8, r9}
    510c:	0b000003 	bleq	5120 <_back_addr-0x14faee0>
    5110:	00000cbd 			; <UNDEFINED> instruction: 0x00000cbd
    5114:	004c8f03 	subeq	r8, ip, r3, lsl #30
    5118:	e50b0000 	str	r0, [fp, #-0]
    511c:	0300000d 	movweq	r0, #13
    5120:	000303a6 	andeq	r0, r3, r6, lsr #7
    5124:	25020000 	strcs	r0, [r2, #-0]
    5128:	0300000c 	movweq	r0, #12
    512c:	000375a8 	andeq	r7, r3, r8, lsr #11
    5130:	03040700 	movweq	r0, #18176	; 0x4700
    5134:	0003f7ad 	andeq	pc, r3, sp, lsr #15
    5138:	54440800 	strbpl	r0, [r4], #-2048	; 0x800
    513c:	b0030052 	andlt	r0, r3, r2, asr r0
    5140:	0000004c 	andeq	r0, r0, ip, asr #32
    5144:	001f0104 	andseq	r0, pc, r4, lsl #2
    5148:	53545208 	cmppl	r4, #8, 4	; 0x80000000
    514c:	4cb30300 	ldcmi	3, cr0, [r3]
    5150:	04000000 	streq	r0, [r0], #-0
    5154:	09001e01 	stmdbeq	r0, {r0, r9, sl, fp, ip}
    5158:	00000c3c 	andeq	r0, r0, ip, lsr ip
    515c:	004cb603 	subeq	fp, ip, r3, lsl #12
    5160:	02040000 	andeq	r0, r4, #0
    5164:	4609001c 			; <UNDEFINED> instruction: 0x4609001c
    5168:	0300000c 	movweq	r0, #12
    516c:	00004cb7 			; <UNDEFINED> instruction: 0x00004cb7
    5170:	011b0400 	tsteq	fp, r0, lsl #8
    5174:	0ce40900 	stcleq	9, cr0, [r4]
    5178:	b8030000 	stmdalt	r3, {}	; <UNPREDICTABLE>
    517c:	0000004c 	andeq	r0, r0, ip, asr #32
    5180:	00000104 	andeq	r0, r0, r4, lsl #2
    5184:	0d7c0a00 	vldmdbeq	ip!, {s1-s0}
    5188:	03040000 	movweq	r0, #16384	; 0x4000
    518c:	00041aaa 	andeq	r1, r4, sl, lsr #21
    5190:	0cbd0b00 	vpopeq	{d0-d-1}
    5194:	ac030000 	stcge	0, cr0, [r3], {-0}
    5198:	0000004c 	andeq	r0, r0, ip, asr #32
    519c:	000de50b 	andeq	lr, sp, fp, lsl #10
    51a0:	a3b90300 			; <UNDEFINED> instruction: 0xa3b90300
    51a4:	00000003 	andeq	r0, r0, r3
    51a8:	000d7d02 	andeq	r7, sp, r2, lsl #26
    51ac:	f7bb0300 			; <UNDEFINED> instruction: 0xf7bb0300
    51b0:	07000003 	streq	r0, [r0, -r3]
    51b4:	b0c00304 	sbclt	r0, r0, r4, lsl #6
    51b8:	08000004 	stmdaeq	r0, {r2}
    51bc:	03005244 	movweq	r5, #580	; 0x244
    51c0:	00004cc3 	andeq	r4, r0, r3, asr #25
    51c4:	1f010400 	svcne	0x00010400
    51c8:	454f0800 	strbmi	r0, [pc, #-2048]	; 49d0 <_back_addr-0x14fb630>
    51cc:	4cc70300 	stclmi	3, cr0, [r7], {0}
    51d0:	04000000 	streq	r0, [r0], #-0
    51d4:	08001e01 	stmdaeq	r0, {r0, r9, sl, fp, ip}
    51d8:	03004550 	movweq	r4, #1360	; 0x550
    51dc:	00004ccc 	andeq	r4, r0, ip, asr #25
    51e0:	1d010400 	cfstrsne	mvf0, [r1, #-0]
    51e4:	45460800 	strbmi	r0, [r6, #-2048]	; 0x800
    51e8:	4ccd0300 	stclmi	3, cr0, [sp], {0}
    51ec:	04000000 	streq	r0, [r0], #-0
    51f0:	08001c01 	stmdaeq	r0, {r0, sl, fp, ip}
    51f4:	03004942 	movweq	r4, #2370	; 0x942
    51f8:	00004cce 	andeq	r4, r0, lr, asr #25
    51fc:	1b010400 	blne	46204 <_back_addr-0x14b9dfc>
    5200:	0c6c0900 	stcleq	9, cr0, [ip], #-0
    5204:	cf030000 	svcgt	0x00030000
    5208:	0000004c 	andeq	r0, r0, ip, asr #32
    520c:	001a0104 	andseq	r0, sl, r4, lsl #2
    5210:	000c8909 	andeq	r8, ip, r9, lsl #18
    5214:	4cd20300 	ldclmi	3, cr0, [r2], {0}
    5218:	04000000 	streq	r0, [r0], #-0
    521c:	08001901 	stmdaeq	r0, {r0, r8, fp, ip}
    5220:	00454652 	subeq	r4, r5, r2, asr r6
    5224:	004cd503 	subeq	sp, ip, r3, lsl #10
    5228:	01040000 	mrseq	r0, (UNDEF: 4)
    522c:	b2090018 	andlt	r0, r9, #24
    5230:	0300000b 	movweq	r0, #11
    5234:	00004cd7 	ldrdeq	r4, [r0], -r7
    5238:	00180400 	andseq	r0, r8, r0, lsl #8
    523c:	ff0a0000 			; <UNDEFINED> instruction: 0xff0a0000
    5240:	0400000b 	streq	r0, [r0], #-11
    5244:	04d3bd03 	ldrbeq	fp, [r3], #3331	; 0xd03
    5248:	bd0b0000 	stclt	0, cr0, [fp, #-0]
    524c:	0300000c 	movweq	r0, #12
    5250:	00004cbf 			; <UNDEFINED> instruction: 0x00004cbf
    5254:	0de50b00 	stcleq	11, cr0, [r5]
    5258:	d8030000 	stmdale	r3, {}	; <UNPREDICTABLE>
    525c:	00000425 	andeq	r0, r0, r5, lsr #8
    5260:	0c000200 	sfmeq	f0, 4, [r0], {-0}
    5264:	da030000 	ble	c526c <_back_addr-0x143ad94>
    5268:	000004b0 			; <UNDEFINED> instruction: 0x000004b0
    526c:	df030407 	svcle	0x00030407
    5270:	0000054f 	andeq	r0, r0, pc, asr #10
    5274:	000c7909 	andeq	r7, ip, r9, lsl #18
    5278:	4ce30300 	stclmi	3, cr0, [r3]
    527c:	04000000 	streq	r0, [r0], #-0
    5280:	09001f01 	stmdbeq	r0, {r0, r8, r9, sl, fp, ip}
    5284:	00000c3c 	andeq	r0, r0, ip, lsr ip
    5288:	004ce503 	subeq	lr, ip, r3, lsl #10
    528c:	03040000 	movweq	r0, #16384	; 0x4000
    5290:	4308001c 	movwmi	r0, #32796	; 0x801c
    5294:	03005354 	movweq	r5, #852	; 0x354
    5298:	00004ce6 	andeq	r4, r0, r6, ror #25
    529c:	1b010400 	blne	462a4 <_back_addr-0x14b9d5c>
    52a0:	53440800 	movtpl	r0, #18432	; 0x4800
    52a4:	e9030052 	stmdb	r3, {r1, r4, r6}
    52a8:	0000004c 	andeq	r0, r0, ip, asr #32
    52ac:	001a0104 	andseq	r0, sl, r4, lsl #2
    52b0:	00495208 	subeq	r5, r9, r8, lsl #4
    52b4:	004cec03 	subeq	lr, ip, r3, lsl #24
    52b8:	01040000 	mrseq	r0, (UNDEF: 4)
    52bc:	44080019 	strmi	r0, [r8], #-25
    52c0:	03004443 	movweq	r4, #1091	; 0x443
    52c4:	00004cef 	andeq	r4, r0, pc, ror #25
    52c8:	18010400 	stmdane	r1, {sl}
    52cc:	0c460900 	mcrreq	9, 0, r0, r6, cr0
    52d0:	f2030000 	vhadd.s8	d0, d3, d0
    52d4:	0000004c 	andeq	r0, r0, ip, asr #32
    52d8:	00001804 	andeq	r1, r0, r4, lsl #16
    52dc:	0d2f0a00 	vstmdbeq	pc!, {s0-s-1}
    52e0:	03040000 	movweq	r0, #16384	; 0x4000
    52e4:	000572dc 	ldrdeq	r7, [r5], -ip
    52e8:	0cbd0b00 	vpopeq	{d0-d-1}
    52ec:	de030000 	cdple	0, 0, cr0, cr3, cr0, {0}
    52f0:	0000004c 	andeq	r0, r0, ip, asr #32
    52f4:	000de50b 	andeq	lr, sp, fp, lsl #10
    52f8:	def40300 	cdple	3, 15, cr0, cr4, cr0, {0}
    52fc:	00000004 	andeq	r0, r0, r4
    5300:	000d3002 	andeq	r3, sp, r2
    5304:	4ff60300 	svcmi	0x00f60300
    5308:	07000005 	streq	r0, [r0, -r5]
    530c:	a4fb0304 	ldrbtge	r0, [fp], #772	; 0x304
    5310:	08000005 	stmdaeq	r0, {r0, r2}
    5314:	00524353 	subseq	r4, r2, r3, asr r3
    5318:	004cfe03 	subeq	pc, ip, r3, lsl #28
    531c:	08040000 	stmdaeq	r4, {}	; <UNPREDICTABLE>
    5320:	b2090018 	andlt	r0, r9, #24
    5324:	0300000b 	movweq	r0, #11
    5328:	00004cff 	strdeq	r4, [r0], -pc	; <UNPREDICTABLE>
    532c:	00180400 	andseq	r0, r8, r0, lsl #8
    5330:	ba0a0000 	blt	285338 <_back_addr-0x127acc8>
    5334:	0400000d 	streq	r0, [r0], #-13
    5338:	05c8f803 	strbeq	pc, [r8, #2051]	; 0x803	; <UNPREDICTABLE>
    533c:	bd0b0000 	stclt	0, cr0, [fp, #-0]
    5340:	0300000c 	movweq	r0, #12
    5344:	00004cfa 	strdeq	r4, [r0], -sl
    5348:	0de50c00 	stcleq	12, cr0, [r5]
    534c:	00030000 	andeq	r0, r3, r0
    5350:	00057d01 	andeq	r7, r5, r1, lsl #26
    5354:	bb0d0000 	bllt	34535c <_back_addr-0x11baca4>
    5358:	0300000d 	movweq	r0, #13
    535c:	05a40102 	streq	r0, [r4, #258]!	; 0x102
    5360:	db0e0000 	blle	385368 <_back_addr-0x117ac98>
    5364:	2000000c 	andcs	r0, r0, ip
    5368:	4a010503 	bmi	4677c <_back_addr-0x14b9884>
    536c:	0f000006 	svceq	0x00000006
    5370:	00000cef 	andeq	r0, r0, pc, ror #25
    5374:	45010703 	strmi	r0, [r1, #-1795]	; 0x703
    5378:	00000001 	andeq	r0, r0, r1
    537c:	000bce0f 	andeq	ip, fp, pc, lsl #28
    5380:	01080300 	mrseq	r0, (UNDEF: 56)
    5384:	000001f9 	strdeq	r0, [r0], -r9
    5388:	0bf40f04 	bleq	ffd08fa0 <__bss_end__+0xfe7f5460>
    538c:	09030000 	stmdbeq	r3, {}	; <UNPREDICTABLE>
    5390:	0002f801 	andeq	pc, r2, r1, lsl #16
    5394:	a60f0800 	strge	r0, [pc], -r0, lsl #16
    5398:	0300000d 	movweq	r0, #13
    539c:	0398010a 	orrseq	r0, r8, #-2147483646	; 0x80000002
    53a0:	0f0c0000 	svceq	0x000c0000
    53a4:	00000d5d 	andeq	r0, r0, sp, asr sp
    53a8:	1a010b03 	bne	47fbc <_back_addr-0x14b8044>
    53ac:	10000004 	andne	r0, r0, r4
    53b0:	000c8e0f 	andeq	r8, ip, pc, lsl #28
    53b4:	010c0300 	mrseq	r0, LR_mon
    53b8:	000004d3 	ldrdeq	r0, [r0], -r3
    53bc:	0c570f14 	mrrceq	15, 1, r0, r7, cr4
    53c0:	0d030000 	stceq	0, cr0, [r3, #-0]
    53c4:	00057201 	andeq	r7, r5, r1, lsl #4
    53c8:	710f1800 	tstvc	pc, r0, lsl #16
    53cc:	0300000c 	movweq	r0, #12
    53d0:	05c8010e 	strbeq	r0, [r8, #270]	; 0x10e
    53d4:	001c0000 	andseq	r0, ip, r0
    53d8:	000cdc0d 	andeq	sp, ip, sp, lsl #24
    53dc:	01100300 	tsteq	r0, r0, lsl #6
    53e0:	000005d4 	ldrdeq	r0, [r0], -r4
    53e4:	000d4410 	andeq	r4, sp, r0, lsl r4
    53e8:	01670100 	cmneq	r7, r0, lsl #2
    53ec:	0000066e 	andeq	r0, r0, lr, ror #12
    53f0:	000cfd11 	andeq	pc, ip, r1, lsl sp	; <UNPREDICTABLE>
    53f4:	6e670100 	powvss	f0, f7, f0
    53f8:	00000006 	andeq	r0, r0, r6
    53fc:	00300405 	eorseq	r0, r0, r5, lsl #8
    5400:	25120000 	ldrcs	r0, [r2, #-0]
    5404:	0100000d 	tsteq	r0, sp
    5408:	068c018e 	streq	r0, [ip], lr, lsl #3
    540c:	36110000 	ldrcc	r0, [r1], -r0
    5410:	0100000c 	tsteq	r0, ip
    5414:	0000578e 	andeq	r5, r0, lr, lsl #15
    5418:	87120000 	ldrhi	r0, [r2, -r0]
    541c:	01000009 	tsteq	r0, r9
    5420:	06c301f6 			; <UNDEFINED> instruction: 0x06c301f6
    5424:	64130000 	ldrvs	r0, [r3], #-0
    5428:	01007473 	tsteq	r0, r3, ror r4
    542c:	0006c3f6 	strdeq	ip, [r6], -r6
    5430:	0c361100 	ldfeqs	f1, [r6], #-0
    5434:	f6010000 			; <UNDEFINED> instruction: 0xf6010000
    5438:	00000025 	andeq	r0, r0, r5, lsr #32
    543c:	0004b311 	andeq	fp, r4, r1, lsl r3
    5440:	4cf60100 	ldfmie	f0, [r6]
    5444:	14000000 	strne	r0, [r0], #-0
    5448:	f8010069 			; <UNDEFINED> instruction: 0xf8010069
    544c:	0000004c 	andeq	r0, r0, ip, asr #32
    5450:	16041500 	strne	r1, [r4], -r0, lsl #10
    5454:	000003dc 	ldrdeq	r0, [r0], -ip
    5458:	277c3301 	ldrbcs	r3, [ip, -r1, lsl #6]!
    545c:	001c0150 	andseq	r0, ip, r0, asr r1
    5460:	9c010000 	stcls	0, cr0, [r1], {-0}
    5464:	0003b217 	andeq	fp, r3, r7, lsl r2
    5468:	98480100 	stmdals	r8, {r8}^
    546c:	54015027 	strpl	r5, [r1], #-39	; 0x27
    5470:	01000000 	mrseq	r0, (UNDEF: 0)
    5474:	00070a9c 	muleq	r7, ip, sl
    5478:	066c1800 	strbteq	r1, [ip], -r0, lsl #16
    547c:	4a010000 	bmi	45484 <_back_addr-0x14bab7c>
    5480:	00000057 	andeq	r0, r0, r7, asr r0
    5484:	00002d3e 	andeq	r2, r0, lr, lsr sp
    5488:	000c5f19 	andeq	r5, ip, r9, lsl pc
    548c:	574b0100 	strbpl	r0, [fp, -r0, lsl #2]
    5490:	00000000 	andeq	r0, r0, r0
    5494:	00005550 	andeq	r5, r0, r0, asr r5
    5498:	00035917 	andeq	r5, r3, r7, lsl r9
    549c:	ec620100 	stfe	f0, [r2], #-0
    54a0:	28015027 	stmdacs	r1, {r0, r1, r2, r5, ip, lr}
    54a4:	01000000 	mrseq	r0, (UNDEF: 0)
    54a8:	00072d9c 	muleq	r7, ip, sp
    54ac:	0c9b1a00 	vldmiaeq	fp, {s2-s1}
    54b0:	62010000 	andvs	r0, r1, #0
    54b4:	0000005e 	andeq	r0, r0, lr, asr r0
    54b8:	17005001 	strne	r5, [r0, -r1]
    54bc:	0000030e 	andeq	r0, r0, lr, lsl #6
    54c0:	28146e01 	ldmdacs	r4, {r0, r9, sl, fp, sp, lr}
    54c4:	00680150 	rsbeq	r0, r8, r0, asr r1
    54c8:	9c010000 	stcls	0, cr0, [r1], {-0}
    54cc:	00000795 	muleq	r0, r5, r7
    54d0:	0068631b 	rsbeq	r6, r8, fp, lsl r3
    54d4:	00856e01 	addeq	r6, r5, r1, lsl #28
    54d8:	2d590000 	ldclcs	0, cr0, [r9, #-0]
    54dc:	631c0000 	tstvs	ip, #0
    54e0:	01003868 	tsteq	r0, r8, ror #16
    54e4:	00003072 	andeq	r3, r0, r2, ror r0
    54e8:	002d9100 	eoreq	r9, sp, r0, lsl #2
    54ec:	06561d00 	ldrbeq	r1, [r6], -r0, lsl #26
    54f0:	28280000 	stmdacs	r8!, {}	; <UNPREDICTABLE>
    54f4:	06080150 			; <UNDEFINED> instruction: 0x06080150
    54f8:	78010000 	stmdavc	r1, {}	; <UNPREDICTABLE>
    54fc:	00000778 	andeq	r0, r0, r8, ror r7
    5500:	0006621e 	andeq	r6, r6, lr, lsl r2
    5504:	561f0000 	ldrpl	r0, [pc], -r0
    5508:	3c000006 	stccc	0, cr0, [r0], {6}
    550c:	14015028 	strne	r5, [r1], #-40	; 0x28
    5510:	01000000 	mrseq	r0, (UNDEF: 0)
    5514:	0662207b 			; <UNDEFINED> instruction: 0x0662207b
    5518:	f2060000 	vhadd.s8	d0, d6, d0
    551c:	000054de 	ldrdeq	r5, [r0], -lr
    5520:	17000000 	strne	r0, [r0, -r0]
    5524:	00000c1a 	andeq	r0, r0, sl, lsl ip
    5528:	287c3a01 	ldmdacs	ip!, {r0, r9, fp, ip, sp}^
    552c:	00600150 	rsbeq	r0, r0, r0, asr r1
    5530:	9c010000 	stcls	0, cr0, [r1], {-0}
    5534:	00000822 	andeq	r0, r0, r2, lsr #16
    5538:	0009f921 	andeq	pc, r9, r1, lsr #18
    553c:	223a0100 	eorscs	r0, sl, #0, 2
    5540:	b0000008 	andlt	r0, r0, r8
    5544:	2100002d 	tstcs	r0, sp, lsr #32
    5548:	00000d58 	andeq	r0, r0, r8, asr sp
    554c:	004c3a01 	subeq	r3, ip, r1, lsl #20
    5550:	2de70000 	stclcs	0, cr0, [r7]
    5554:	36210000 	strtcc	r0, [r1], -r0
    5558:	0100000c 	tsteq	r0, ip
    555c:	00004c3a 	andeq	r4, r0, sl, lsr ip
    5560:	002e1e00 	eoreq	r1, lr, r0, lsl #28
    5564:	006e1c00 	rsbeq	r1, lr, r0, lsl #24
    5568:	005e3b01 	subseq	r3, lr, r1, lsl #22
    556c:	2e550000 	cdpcs	0, 5, cr0, cr5, cr0, {0}
    5570:	20220000 	eorcs	r0, r2, r0
    5574:	23000006 	movwcs	r0, #6
    5578:	00000a0a 	andeq	r0, r0, sl, lsl #20
    557c:	005e4301 	subseq	r4, lr, r1, lsl #6
    5580:	07fa0000 	ldrbeq	r0, [sl, r0]!
    5584:	00240000 	eoreq	r0, r4, r0
    5588:	5028b425 	eorpl	fp, r8, r5, lsr #8
    558c:	000d3501 	andeq	r3, sp, r1, lsl #10
    5590:	00080d00 	andeq	r0, r8, r0, lsl #26
    5594:	50012600 	andpl	r2, r1, r0, lsl #12
    5598:	27003101 	strcs	r3, [r0, -r1, lsl #2]
    559c:	015028d8 	ldrsbeq	r2, [r0, #-136]	; 0xffffff78
    55a0:	0000072d 	andeq	r0, r0, sp, lsr #14
    55a4:	05500126 	ldrbeq	r0, [r0, #-294]	; 0x126
    55a8:	5031d803 	eorspl	sp, r1, r3, lsl #16
    55ac:	00000001 	andeq	r0, r0, r1
    55b0:	08280405 	stmdaeq	r8!, {r0, r2, sl}
    55b4:	4c280000 	stcmi	0, cr0, [r8], #-0
    55b8:	17000000 	strne	r0, [r0, -r0]
    55bc:	00000dc7 	andeq	r0, r0, r7, asr #27
    55c0:	28dc8001 	ldmcs	ip, {r0, pc}^
    55c4:	00500150 	subseq	r0, r0, r0, asr r1
    55c8:	9c010000 	stcls	0, cr0, [r1], {-0}
    55cc:	00000889 	andeq	r0, r0, r9, lsl #17
    55d0:	6c617629 	stclvs	6, cr7, [r1], #-164	; 0xffffff5c
    55d4:	4c800100 	stfmis	f0, [r0], {0}
    55d8:	01000000 	mrseq	r0, (UNDEF: 0)
    55dc:	656c1b50 	strbvs	r1, [ip, #-2896]!	; 0xb50
    55e0:	8001006e 	andhi	r0, r1, lr, rrx
    55e4:	0000004c 	andeq	r0, r0, ip, asr #32
    55e8:	00002eb9 			; <UNDEFINED> instruction: 0x00002eb9
    55ec:	0068631c 	rsbeq	r6, r8, ip, lsl r3
    55f0:	00308301 	eorseq	r8, r0, r1, lsl #6
    55f4:	2ed70000 	cdpcs	0, 13, cr0, cr7, cr0, {0}
    55f8:	562a0000 	strtpl	r0, [sl], -r0
    55fc:	08000006 	stmdaeq	r0, {r1, r2}
    5600:	40015029 	andmi	r5, r1, r9, lsr #32
    5604:	01000006 	tsteq	r0, r6
    5608:	06622089 	strbteq	r2, [r2], -r9, lsl #1
    560c:	f2060000 	vhadd.s8	d0, d6, d0
    5610:	000055ec 	andeq	r5, r0, ip, ror #11
    5614:	2b000000 	blcs	561c <_back_addr-0x14fa9e4>
    5618:	00000674 	andeq	r0, r0, r4, ror r6
    561c:	0150292c 	cmpeq	r0, ip, lsr #18
    5620:	00000008 	andeq	r0, r0, r8
    5624:	08bc9c01 	ldmeq	ip!, {r0, sl, fp, ip, pc}
    5628:	802c0000 	eorhi	r0, ip, r0
    562c:	f5000006 			; <UNDEFINED> instruction: 0xf5000006
    5630:	2700002e 	strcs	r0, [r0, -lr, lsr #32]
    5634:	01502934 	cmpeq	r0, r4, lsr r9
    5638:	0000082d 	andeq	r0, r0, sp, lsr #16
    563c:	03500126 	cmpeq	r0, #-2147483639	; 0x80000009
    5640:	265001f3 			; <UNDEFINED> instruction: 0x265001f3
    5644:	38015101 	stmdacc	r1, {r0, r8, ip, lr}
    5648:	9d160000 	ldcls	0, cr0, [r6, #-0]
    564c:	0100000b 	tsteq	r0, fp
    5650:	5029349a 	mlapl	r9, sl, r4, r3
    5654:	00000401 	andeq	r0, r0, r1, lsl #8
    5658:	179c0100 	ldrne	r0, [ip, r0, lsl #2]
    565c:	00000be6 	andeq	r0, r0, r6, ror #23
    5660:	2938a001 	ldmdbcs	r8!, {r0, sp, pc}
    5664:	00240150 	eoreq	r0, r4, r0, asr r1
    5668:	9c010000 	stcls	0, cr0, [r1], {-0}
    566c:	0000090b 	andeq	r0, r0, fp, lsl #18
    5670:	00686329 	rsbeq	r6, r8, r9, lsr #6
    5674:	0090a001 	addseq	sl, r0, r1
    5678:	50010000 	andpl	r0, r1, r0
    567c:	0006561f 	andeq	r5, r6, pc, lsl r6
    5680:	50294400 	eorpl	r4, r9, r0, lsl #8
    5684:	00001801 	andeq	r1, r0, r1, lsl #16
    5688:	20a40100 	adccs	r0, r4, r0, lsl #2
    568c:	00000662 	andeq	r0, r0, r2, ror #12
    5690:	5670f206 	ldrbtpl	pc, [r0], -r6, lsl #4	; <UNPREDICTABLE>
    5694:	00000000 	andeq	r0, r0, r0
    5698:	0c7e2d00 	ldcleq	13, cr2, [lr], #-0
    569c:	a8010000 	stmdage	r1, {}	; <UNPREDICTABLE>
    56a0:	00000057 	andeq	r0, r0, r7, asr r0
    56a4:	0150295c 	cmpeq	r0, ip, asr r9
    56a8:	0000000c 	andeq	r0, r0, ip
    56ac:	095e9c01 	ldmdbeq	lr, {r0, sl, fp, ip, pc}^
    56b0:	731b0000 	tstvc	fp, #0
    56b4:	5ea80100 	fdvple	f0, f0, f0
    56b8:	16000009 	strne	r0, [r0], -r9
    56bc:	2300002f 	movwcs	r0, #47	; 0x2f
    56c0:	000001d8 	ldrdeq	r0, [r0], -r8
    56c4:	005eaa01 	subseq	sl, lr, r1, lsl #20
    56c8:	09420000 	stmdbeq	r2, {}^	; <UNPREDICTABLE>
    56cc:	00240000 	eoreq	r0, r4, r0
    56d0:	50296827 	eorpl	r6, r9, r7, lsr #16
    56d4:	000d4601 	andeq	r4, sp, r1, lsl #12
    56d8:	50012600 	andpl	r2, r1, r0, lsl #12
    56dc:	5001f303 	andpl	pc, r1, r3, lsl #6
    56e0:	01510126 	cmpeq	r1, r6, lsr #2
    56e4:	52012630 	andpl	r2, r1, #48, 12	; 0x3000000
    56e8:	00004001 	andeq	r4, r0, r1
    56ec:	00900405 	addseq	r0, r0, r5, lsl #8
    56f0:	0c2d0000 	stceq	0, cr0, [sp], #-0
    56f4:	0100000c 	tsteq	r0, ip
    56f8:	0006c3ad 	andeq	ip, r6, sp, lsr #7
    56fc:	50296800 	eorpl	r6, r9, r0, lsl #16
    5700:	00005401 	andeq	r5, r0, r1, lsl #8
    5704:	bc9c0100 	ldflts	f0, [ip], {0}
    5708:	21000009 	tstcs	r0, r9
    570c:	00000d3c 	andeq	r0, r0, ip, lsr sp
    5710:	0057ad01 	subseq	sl, r7, r1, lsl #26
    5714:	2f370000 	svccs	0x00370000
    5718:	c02e0000 	eorgt	r0, lr, r0
    571c:	0100000b 	tsteq	r0, fp
    5720:	000057af 	andeq	r5, r0, pc, lsr #15
    5724:	e8030500 	stmda	r3, {r8, sl}
    5728:	2e015136 	mcrcs	1, 0, r5, cr1, cr6, {1}
    572c:	00000cc3 	andeq	r0, r0, r3, asr #25
    5730:	0057b001 	subseq	fp, r7, r1
    5734:	03050000 	movweq	r0, #20480	; 0x5000
    5738:	01513b3c 	cmpeq	r1, ip, lsr fp
    573c:	0100701c 	tsteq	r0, ip, lsl r0
    5740:	0006c3b1 			; <UNDEFINED> instruction: 0x0006c3b1
    5744:	002f6e00 	eoreq	r6, pc, r0, lsl #28
    5748:	b02d0000 	eorlt	r0, sp, r0
    574c:	0100000c 	tsteq	r0, ip
    5750:	00005ec2 	andeq	r5, r0, r2, asr #29
    5754:	5029bc00 	eorpl	fp, r9, r0, lsl #24
    5758:	00003401 	andeq	r3, r0, r1, lsl #8
    575c:	e39c0100 	orrs	r0, ip, #0, 2
    5760:	1b000009 	blne	578c <_back_addr-0x14fa874>
    5764:	c2010063 	andgt	r0, r1, #99	; 0x63
    5768:	00000090 	muleq	r0, r0, r0
    576c:	00002f81 	andeq	r2, r0, r1, lsl #31
    5770:	0ab81700 	beq	fee0b378 <__bss_end__+0xfd8f7838>
    5774:	ce010000 	cdpgt	0, 0, cr0, cr1, cr0, {0}
    5778:	015029f0 	ldrsheq	r2, [r0, #-144]	; 0xffffff70
    577c:	000000b0 	strheq	r0, [r0], -r0	; <UNPREDICTABLE>
    5780:	0b1b9c01 	bleq	6ec78c <_back_addr-0xe13874>
    5784:	731b0000 	tstvc	fp, #0
    5788:	01007274 	tsteq	r0, r4, ror r2
    578c:	000085ce 	andeq	r8, r0, lr, asr #11
    5790:	002fbb00 	eoreq	fp, pc, r0, lsl #22
    5794:	75621b00 	strbvc	r1, [r2, #-2816]!	; 0xb00
    5798:	ce010066 	cdpgt	0, 0, cr0, cr1, cr6, {3}
    579c:	00000b1b 	andeq	r0, r0, fp, lsl fp
    57a0:	00002ff5 	strdeq	r2, [r0], -r5
    57a4:	0009af21 	andeq	sl, r9, r1, lsr #30
    57a8:	57ce0100 	strbpl	r0, [lr, r0, lsl #2]
    57ac:	52000000 	andpl	r0, r0, #0
    57b0:	1c000030 	stcne	0, cr0, [r0], {48}	; 0x30
    57b4:	d0010069 	andle	r0, r1, r9, rrx
    57b8:	00000057 	andeq	r0, r0, r7, asr r0
    57bc:	00003097 	muleq	r0, r7, r0
    57c0:	7274701c 	rsbsvc	r7, r4, #28
    57c4:	5ed10100 	cdppl	1, 13, cr0, cr1, cr0, {0}
    57c8:	f5000009 			; <UNDEFINED> instruction: 0xf5000009
    57cc:	2f00002f 	svccs	0x0000002f
    57d0:	00000968 	andeq	r0, r0, r8, ror #18
    57d4:	00000b39 	andeq	r0, r0, r9, lsr fp
    57d8:	31d00305 	bicscc	r0, r0, r5, lsl #6
    57dc:	74300150 	ldrtvc	r0, [r0], #-336	; 0x150
    57e0:	30000006 	andcc	r0, r0, r6
    57e4:	1001502a 	andne	r5, r1, sl, lsr #32
    57e8:	01000000 	mrseq	r0, (UNDEF: 0)
    57ec:	000a82da 	ldrdeq	r8, [sl], -sl
    57f0:	06802c00 	streq	r2, [r0], r0, lsl #24
    57f4:	30c20000 	sbccc	r0, r2, r0
    57f8:	40310000 	eorsmi	r0, r1, r0
    57fc:	2d01502a 	stccs	0, cr5, [r1, #-168]	; 0xffffff58
    5800:	26000008 	strcs	r0, [r0], -r8
    5804:	75025001 	strvc	r5, [r2, #-1]
    5808:	51012601 	tstpl	r1, r1, lsl #12
    580c:	00003801 	andeq	r3, r0, r1, lsl #16
    5810:	502a2425 	eorpl	r2, sl, r5, lsr #8
    5814:	00072d01 	andeq	r2, r7, r1, lsl #26
    5818:	000aa600 	andeq	sl, sl, r0, lsl #12
    581c:	50012600 	andpl	r2, r1, r0, lsl #12
    5820:	31d00312 	bicscc	r0, r0, r2, lsl r3
    5824:	01f30150 	mvnseq	r0, r0, asr r1
    5828:	5001f350 	andpl	pc, r1, r0, asr r3	; <UNPREDICTABLE>
    582c:	01282930 	teqeq	r8, r0, lsr r9
    5830:	00131600 	andseq	r1, r3, r0, lsl #12
    5834:	502a3025 	eorpl	r3, sl, r5, lsr #32
    5838:	00072d01 	andeq	r2, r7, r1, lsl #26
    583c:	000abd00 	andeq	fp, sl, r0, lsl #26
    5840:	50012600 	andpl	r2, r1, r0, lsl #12
    5844:	31ec0305 	mvncc	r0, r5, lsl #6
    5848:	25000150 	strcs	r0, [r0, #-336]	; 0x150
    584c:	01502a4c 	cmpeq	r0, ip, asr #20
    5850:	0000072d 	andeq	r0, r0, sp, lsr #14
    5854:	00000ad4 	ldrdeq	r0, [r0], -r4
    5858:	05500126 	ldrbeq	r0, [r0, #-294]	; 0x126
    585c:	5031f403 	eorspl	pc, r1, r3, lsl #8
    5860:	58250001 	stmdapl	r5!, {r0}
    5864:	2d01502a 	stccs	0, cr5, [r1, #-168]	; 0xffffff58
    5868:	e7000008 	str	r0, [r0, -r8]
    586c:	2600000a 	strcs	r0, [r0], -sl
    5870:	32015101 	andcc	r5, r1, #1073741824	; 0x40000000
    5874:	2a783200 	bcs	1e1207c <__bss_end__+0x8fe53c>
    5878:	072d0150 			; <UNDEFINED> instruction: 0x072d0150
    587c:	90330000 	eorsls	r0, r3, r0
    5880:	2d01502a 	stccs	0, cr5, [r1, #-168]	; 0xffffff58
    5884:	07000007 	streq	r0, [r0, -r7]
    5888:	2600000b 	strcs	r0, [r0], -fp
    588c:	03055001 	movweq	r5, #20481	; 0x5001
    5890:	01502fa8 	cmpeq	r0, r8, lsr #31
    5894:	2aa02700 	bcs	fe80f49c <__bss_end__+0xfd2fb95c>
    5898:	072d0150 			; <UNDEFINED> instruction: 0x072d0150
    589c:	01260000 	teqeq	r6, r0
    58a0:	e4030550 	str	r0, [r3], #-1360	; 0x550
    58a4:	00015031 	andeq	r5, r1, r1, lsr r0
    58a8:	21040500 	tstcs	r4, r0, lsl #10
    58ac:	3400000b 	strcc	r0, [r0], #-11
    58b0:	00009035 	andeq	r9, r0, r5, lsr r0
    58b4:	000b3200 	andeq	r3, fp, r0, lsl #4
    58b8:	0b323600 	bleq	c930c0 <_back_addr-0x86cf40>
    58bc:	00070000 	andeq	r0, r7, r0
    58c0:	05070403 	streq	r0, [r7, #-1027]	; 0x403
    58c4:	06000002 	streq	r0, [r0], -r2
    58c8:	00000b22 	andeq	r0, r0, r2, lsr #22
    58cc:	000a542d 	andeq	r5, sl, sp, lsr #8
    58d0:	c3f00100 	mvnsgt	r0, #0, 2
    58d4:	a0000006 	andge	r0, r0, r6
    58d8:	2401502a 	strcs	r5, [r1], #-42	; 0x2a
    58dc:	01000000 	mrseq	r0, (UNDEF: 0)
    58e0:	000bb59c 	muleq	fp, ip, r5
    58e4:	00732900 	rsbseq	r2, r3, r0, lsl #18
    58e8:	06c3f001 	strbeq	pc, [r3], r1	; <UNPREDICTABLE>
    58ec:	50010000 	andpl	r0, r1, r0
    58f0:	0100631b 	tsteq	r0, fp, lsl r3
    58f4:	00005ef0 	strdeq	r5, [r0], -r0
    58f8:	0030fb00 	eorseq	pc, r0, r0, lsl #22
    58fc:	0cc92100 	stfeqe	f2, [r9], {0}
    5900:	f0010000 			; <UNDEFINED> instruction: 0xf0010000
    5904:	0000007a 	andeq	r0, r0, sl, ror r0
    5908:	0000311c 	andeq	r3, r0, ip, lsl r1
    590c:	00068c2a 	andeq	r8, r6, sl, lsr #24
    5910:	502aa000 	eorpl	sl, sl, r0
    5914:	00065801 	andeq	r5, r6, r1, lsl #16
    5918:	2cf20100 	ldfcse	f0, [r2]
    591c:	000006ae 	andeq	r0, r0, lr, lsr #13
    5920:	0000313d 	andeq	r3, r0, sp, lsr r1
    5924:	0006a320 	andeq	sl, r6, r0, lsr #6
    5928:	20510100 	subscs	r0, r1, r0, lsl #2
    592c:	00000698 	muleq	r0, r8, r6
    5930:	58225001 	stmdapl	r2!, {r0, ip, lr}
    5934:	37000006 	strcc	r0, [r0, -r6]
    5938:	000006b9 			; <UNDEFINED> instruction: 0x000006b9
    593c:	0000315e 	andeq	r3, r0, lr, asr r1
    5940:	2b000000 	blcs	5948 <_back_addr-0x14fa6b8>
    5944:	0000068c 	andeq	r0, r0, ip, lsl #13
    5948:	01502ac4 	cmpeq	r0, r4, asr #21
    594c:	0000001c 	andeq	r0, r0, ip, lsl r0
    5950:	0beb9c01 	bleq	ffaec95c <__bss_end__+0xfe5d8e1c>
    5954:	982c0000 	stmdals	ip!, {}	; <UNPREDICTABLE>
    5958:	72000006 	andvc	r0, r0, #6
    595c:	20000031 	andcs	r0, r0, r1, lsr r0
    5960:	000006a3 	andeq	r0, r0, r3, lsr #13
    5964:	ae2c5101 	sufgee	f5, f4, f1
    5968:	93000006 	movwls	r0, #6
    596c:	37000031 	smladxcc	r0, r1, r0, r0
    5970:	000006b9 			; <UNDEFINED> instruction: 0x000006b9
    5974:	000031b4 			; <UNDEFINED> instruction: 0x000031b4
    5978:	0a421700 	beq	108b580 <_back_addr-0x474a80>
    597c:	fd010000 	stc2	0, cr0, [r1, #-0]
    5980:	01502ae0 	cmpeq	r0, r0, ror #21
    5984:	0000009c 	muleq	r0, ip, r0
    5988:	0c349c01 	ldceq	12, cr9, [r4], #-4
    598c:	64290000 	strtvs	r0, [r9], #-0
    5990:	01007473 	tsteq	r0, r3, ror r4
    5994:	0006c3fd 	strdeq	ip, [r6], -sp
    5998:	29500100 	ldmdbcs	r0, {r8}^
    599c:	00637273 	rsbeq	r7, r3, r3, ror r2
    59a0:	06c3fd01 	strbeq	pc, [r3], r1, lsl #26	; <UNPREDICTABLE>
    59a4:	51010000 	mrspl	r0, (UNDEF: 1)
    59a8:	0004b31a 	andeq	fp, r4, sl, lsl r3
    59ac:	57fd0100 	ldrbpl	r0, [sp, r0, lsl #2]!
    59b0:	01000000 	mrseq	r0, (UNDEF: 0)
    59b4:	00693852 	rsbeq	r3, r9, r2, asr r8
    59b8:	0c34ff01 	ldceq	15, cr15, [r4], #-4
    59bc:	91020000 	mrsls	r0, (UNDEF: 2)
    59c0:	5728007c 			; <UNDEFINED> instruction: 0x5728007c
    59c4:	39000000 	stmdbcc	r0, {}	; <UNPREDICTABLE>
    59c8:	00000dd6 	ldrdeq	r0, [r0], -r6
    59cc:	5e010c01 	cdppl	12, 0, cr0, cr1, cr1, {0}
    59d0:	7c000000 	stcvc	0, cr0, [r0], {-0}
    59d4:	5801502b 	stmdapl	r1, {r0, r1, r3, r5, ip, lr}
    59d8:	01000000 	mrseq	r0, (UNDEF: 0)
    59dc:	000cae9c 	muleq	ip, ip, lr
    59e0:	31733a00 	cmncc	r3, r0, lsl #20
    59e4:	010c0100 	mrseq	r0, (UNDEF: 28)
    59e8:	000006c3 	andeq	r0, r0, r3, asr #13
    59ec:	000031ec 	andeq	r3, r0, ip, ror #3
    59f0:	0032733a 	eorseq	r7, r2, sl, lsr r3
    59f4:	c3010c01 	movwgt	r0, #7169	; 0x1c01
    59f8:	3f000006 	svccc	0x00000006
    59fc:	3b000032 	blcc	5acc <_back_addr-0x14fa534>
    5a00:	000004b3 			; <UNDEFINED> instruction: 0x000004b3
    5a04:	4c010c01 	stcmi	12, cr0, [r1], {1}
    5a08:	6b000000 	blvs	5a10 <_back_addr-0x14fa5f0>
    5a0c:	3c000032 	stccc	0, cr0, [r0], {50}	; 0x32
    5a10:	0e010069 	cdpeq	0, 0, cr0, cr1, cr9, {3}
    5a14:	00004c01 	andeq	r4, r0, r1, lsl #24
    5a18:	00329700 	eorseq	r9, r2, r0, lsl #14
    5a1c:	31703c00 	cmncc	r0, r0, lsl #24
    5a20:	010f0100 	mrseq	r0, (UNDEF: 31)
    5a24:	0000095e 	andeq	r0, r0, lr, asr r9
    5a28:	000031ec 	andeq	r3, r0, ip, ror #3
    5a2c:	0032703c 	eorseq	r7, r2, ip, lsr r0
    5a30:	5e010f01 	cdppl	15, 0, cr0, cr1, cr1, {0}
    5a34:	f9000009 			; <UNDEFINED> instruction: 0xf9000009
    5a38:	00000032 	andeq	r0, r0, r2, lsr r0
    5a3c:	000ccf39 	andeq	ip, ip, r9, lsr pc
    5a40:	011c0100 	tsteq	ip, r0, lsl #2
    5a44:	0000005e 	andeq	r0, r0, lr, asr r0
    5a48:	01502bd4 	ldrsbeq	r2, [r0, #-180]	; 0xffffff4c
    5a4c:	00000044 	andeq	r0, r0, r4, asr #32
    5a50:	0cf59c01 	ldcleq	12, cr9, [r5], #4
    5a54:	733a0000 	teqvc	sl, #0
    5a58:	1c010031 	stcne	0, cr0, [r1], {49}	; 0x31
    5a5c:	00008501 	andeq	r8, r0, r1, lsl #10
    5a60:	00332500 	eorseq	r2, r3, r0, lsl #10
    5a64:	32733a00 	rsbscc	r3, r3, #0, 20
    5a68:	011c0100 	tsteq	ip, r0, lsl #2
    5a6c:	00000085 	andeq	r0, r0, r5, lsl #1
    5a70:	00003346 	andeq	r3, r0, r6, asr #6
    5a74:	0100693c 	tsteq	r0, ip, lsr r9
    5a78:	004c011e 	subeq	r0, ip, lr, lsl r1
    5a7c:	33670000 	cmncc	r7, #0
    5a80:	3d000000 	stccc	0, cr0, [r0, #-0]
    5a84:	00000d16 	andeq	r0, r0, r6, lsl sp
    5a88:	18012a01 	stmdane	r1, {r0, r9, fp, sp}
    5a8c:	2801502c 	stmdacs	r1, {r2, r3, r5, ip, lr}
    5a90:	01000000 	mrseq	r0, (UNDEF: 0)
    5a94:	0d513d9c 	ldcleq	13, cr3, [r1, #-624]	; 0xfffffd90
    5a98:	47010000 	strmi	r0, [r1, -r0]
    5a9c:	502c4001 	eorpl	r4, ip, r1
    5aa0:	00000401 	andeq	r0, r0, r1, lsl #8
    5aa4:	2e9c0100 	fmlcse	f0, f4, f0
    5aa8:	00000d89 	andeq	r0, r0, r9, lsl #27
    5aac:	0d2a1501 	cfstr32eq	mvfx1, [sl, #-4]!
    5ab0:	03050000 	movweq	r0, #20480	; 0x5000
    5ab4:	015136e4 	cmpeq	r1, r4, ror #13
    5ab8:	0d300405 	cfldrseq	mvf0, [r0, #-20]!	; 0xffffffec
    5abc:	4a280000 	bmi	a05ac4 <_back_addr-0xafa53c>
    5ac0:	23000006 	movwcs	r0, #6
    5ac4:	00000a0a 	andeq	r0, r0, sl, lsl #20
    5ac8:	005e4301 	subseq	r4, lr, r1, lsl #6
    5acc:	0d460000 	stcleq	0, cr0, [r6, #-0]
    5ad0:	00240000 	eoreq	r0, r4, r0
    5ad4:	0001d83e 	andeq	sp, r1, lr, lsr r8
    5ad8:	5eaa0100 	fdvple	f0, f2, f0
    5adc:	24000000 	strcs	r0, [r0], #-0
    5ae0:	08f50000 	ldmeq	r5!, {}^	; <UNPREDICTABLE>
    5ae4:	00040000 	andeq	r0, r4, r0
    5ae8:	0000135b 	andeq	r1, r0, fp, asr r3
    5aec:	00a90104 	adceq	r0, r9, r4, lsl #2
    5af0:	ee010000 	cdp	0, 0, cr0, cr1, cr0, {0}
    5af4:	5d00000e 	stcpl	0, cr0, [r0, #-56]	; 0xffffffc8
    5af8:	44000004 	strmi	r0, [r0], #-4
    5afc:	1801502c 	stmdane	r1, {r2, r3, r5, ip, lr}
    5b00:	44000002 	strmi	r0, [r0], #-2
    5b04:	02000011 	andeq	r0, r0, #17
    5b08:	02050704 	andeq	r0, r5, #4, 14	; 0x100000
    5b0c:	04020000 	streq	r0, [r2], #-0
    5b10:	00007f07 	andeq	r7, r0, r7, lsl #30
    5b14:	05040300 	streq	r0, [r4, #-768]	; 0x300
    5b18:	00746e69 	rsbseq	r6, r4, r9, ror #28
    5b1c:	67070202 	strvs	r0, [r7, -r2, lsl #4]
    5b20:	02000000 	andeq	r0, r0, #0
    5b24:	00960504 	addseq	r0, r6, r4, lsl #10
    5b28:	04020000 	streq	r0, [r2], #-0
    5b2c:	00008407 	andeq	r8, r0, r7, lsl #8
    5b30:	08010200 	stmdaeq	r1, {r9}
    5b34:	00000062 	andeq	r0, r0, r2, rrx
    5b38:	91050802 	tstls	r5, r2, lsl #16
    5b3c:	02000000 	andeq	r0, r0, #0
    5b40:	005b0601 	subseq	r0, fp, r1, lsl #12
    5b44:	01020000 	mrseq	r0, (UNDEF: 2)
    5b48:	00005908 	andeq	r5, r0, r8, lsl #18
    5b4c:	05020200 	streq	r0, [r2, #-512]	; 0x200
    5b50:	0000009f 	muleq	r0, pc, r0	; <UNPREDICTABLE>
    5b54:	7a070802 	bvc	1c7b64 <_back_addr-0x133849c>
    5b58:	04000000 	streq	r0, [r0], #-0
    5b5c:	00323373 	eorseq	r3, r2, r3, ror r3
    5b60:	00332403 	eorseq	r2, r3, r3, lsl #8
    5b64:	75040000 	strvc	r0, [r4, #-0]
    5b68:	03003233 	movweq	r3, #563	; 0x233
    5b6c:	00004825 	andeq	r4, r0, r5, lsr #16
    5b70:	0a840500 	beq	fe106f78 <__bss_end__+0xfcbf3438>
    5b74:	05040000 	streq	r0, [r4, #-0]
    5b78:	00b501ee 	adcseq	r0, r5, lr, ror #3
    5b7c:	df060000 	svcle	0x00060000
    5b80:	00000009 	andeq	r0, r0, r9
    5b84:	00094f06 	andeq	r4, r9, r6, lsl #30
    5b88:	ce060100 	adfgts	f0, f6, f0
    5b8c:	02000008 	andeq	r0, r0, #8
    5b90:	00099206 	andeq	r9, r9, r6, lsl #4
    5b94:	07000300 	streq	r0, [r0, -r0, lsl #6]
    5b98:	00000df4 	strdeq	r0, [r0], -r4
    5b9c:	e3012701 	movw	r2, #5889	; 0x1701
    5ba0:	08000000 	stmdaeq	r0, {}	; <UNPREDICTABLE>
    5ba4:	00001039 	andeq	r1, r0, r9, lsr r0
    5ba8:	00842701 	addeq	r2, r4, r1, lsl #14
    5bac:	5b080000 	blpl	205bb4 <_back_addr-0x12fa44c>
    5bb0:	01000010 	tsteq	r0, r0, lsl r0
    5bb4:	00008427 	andeq	r8, r0, r7, lsr #8
    5bb8:	0df80900 	ldcleq	9, cr0, [r8]
    5bbc:	28010000 	stmdacs	r1, {}	; <UNPREDICTABLE>
    5bc0:	00000084 	andeq	r0, r0, r4, lsl #1
    5bc4:	0fc30a00 	svceq	0x00c30a00
    5bc8:	2e010000 	cdpcs	0, 0, cr0, cr1, cr0, {0}
    5bcc:	00000084 	andeq	r0, r0, r4, lsl #1
    5bd0:	0000ff01 	andeq	pc, r0, r1, lsl #30
    5bd4:	0fc70900 	svceq	0x00c70900
    5bd8:	30010000 	andcc	r0, r1, r0
    5bdc:	00000084 	andeq	r0, r0, r4, lsl #1
    5be0:	0edd0a00 	vfnmseq.f32	s1, s26, s0
    5be4:	1b020000 	blne	85bec <_back_addr-0x147a414>
    5be8:	00000079 	andeq	r0, r0, r9, ror r0
    5bec:	00012f03 	andeq	r2, r1, r3, lsl #30
    5bf0:	006e0b00 	rsbeq	r0, lr, r0, lsl #22
    5bf4:	00841b02 	addeq	r1, r4, r2, lsl #22
    5bf8:	48090000 	stmdami	r9, {}	; <UNPREDICTABLE>
    5bfc:	0200000f 	andeq	r0, r0, #15
    5c00:	0000791d 	andeq	r7, r0, sp, lsl r9
    5c04:	08a60900 	stmiaeq	r6!, {r8, fp}
    5c08:	1e020000 	cdpne	0, 0, cr0, cr2, cr0, {0}
    5c0c:	00000084 	andeq	r0, r0, r4, lsl #1
    5c10:	0e320700 	cdpeq	7, 3, cr0, cr2, cr0, {0}
    5c14:	40010000 	andmi	r0, r1, r0
    5c18:	00019401 	andeq	r9, r1, r1, lsl #8
    5c1c:	10390800 	eorsne	r0, r9, r0, lsl #16
    5c20:	40010000 	andmi	r0, r1, r0
    5c24:	00000084 	andeq	r0, r0, r4, lsl #1
    5c28:	000f4e08 	andeq	r4, pc, r8, lsl #28
    5c2c:	84400100 	strbhi	r0, [r0], #-256	; 0x100
    5c30:	08000000 	stmdaeq	r0, {}	; <UNPREDICTABLE>
    5c34:	00000f1a 	andeq	r0, r0, sl, lsl pc
    5c38:	00844101 	addeq	r4, r4, r1, lsl #2
    5c3c:	23080000 	movwcs	r0, #32768	; 0x8000
    5c40:	0100000f 	tsteq	r0, pc
    5c44:	00008441 	andeq	r8, r0, r1, asr #8
    5c48:	0f670800 	svceq	0x00670800
    5c4c:	42010000 	andmi	r0, r1, #0
    5c50:	00000084 	andeq	r0, r0, r4, lsl #1
    5c54:	7961770c 	stmdbvc	r1!, {r2, r3, r8, r9, sl, ip, sp, lr}^
    5c58:	33440100 	movtcc	r0, #16640	; 0x4100
    5c5c:	0c000000 	stceq	0, cr0, [r0], {-0}
    5c60:	00746573 	rsbseq	r6, r4, r3, ror r5
    5c64:	00334401 	eorseq	r4, r3, r1, lsl #8
    5c68:	48090000 	stmdami	r9, {}	; <UNPREDICTABLE>
    5c6c:	0100000e 	tsteq	r0, lr
    5c70:	00003344 	andeq	r3, r0, r4, asr #6
    5c74:	85070000 	strhi	r0, [r7, #-0]
    5c78:	0100000f 	tsteq	r0, pc
    5c7c:	01f90158 	mvnseq	r0, r8, asr r1
    5c80:	39080000 	stmdbcc	r8, {}	; <UNPREDICTABLE>
    5c84:	01000010 	tsteq	r0, r0, lsl r0
    5c88:	00008458 	andeq	r8, r0, r8, asr r4
    5c8c:	0f4e0800 	svceq	0x004e0800
    5c90:	58010000 	stmdapl	r1, {}	; <UNPREDICTABLE>
    5c94:	00000084 	andeq	r0, r0, r4, lsl #1
    5c98:	000f1a08 	andeq	r1, pc, r8, lsl #20
    5c9c:	84590100 	ldrbhi	r0, [r9], #-256	; 0x100
    5ca0:	08000000 	stmdaeq	r0, {}	; <UNPREDICTABLE>
    5ca4:	00000f23 	andeq	r0, r0, r3, lsr #30
    5ca8:	00845901 	addeq	r5, r4, r1, lsl #18
    5cac:	67080000 	strvs	r0, [r8, -r0]
    5cb0:	0100000f 	tsteq	r0, pc
    5cb4:	0000845a 	andeq	r8, r0, sl, asr r4
    5cb8:	61770c00 	cmnvs	r7, r0, lsl #24
    5cbc:	5c010079 	stcpl	0, cr0, [r1], {121}	; 0x79
    5cc0:	00000033 	andeq	r0, r0, r3, lsr r0
    5cc4:	7465730c 	strbtvc	r7, [r5], #-780	; 0x30c
    5cc8:	335c0100 	cmpcc	ip, #0, 2
    5ccc:	09000000 	stmdbeq	r0, {}	; <UNPREDICTABLE>
    5cd0:	00000e48 	andeq	r0, r0, r8, asr #28
    5cd4:	00335c01 	eorseq	r5, r3, r1, lsl #24
    5cd8:	0a000000 	beq	5ce0 <_back_addr-0x14fa320>
    5cdc:	00000e15 	andeq	r0, r0, r5, lsl lr
    5ce0:	00843701 	addeq	r3, r4, r1, lsl #14
    5ce4:	15010000 	strne	r0, [r1, #-0]
    5ce8:	09000002 	stmdbeq	r0, {r1}
    5cec:	00000e19 	andeq	r0, r0, r9, lsl lr
    5cf0:	00843901 	addeq	r3, r4, r1, lsl #18
    5cf4:	07000000 	streq	r0, [r0, -r0]
    5cf8:	00000ef9 	strdeq	r0, [r0], -r9
    5cfc:	4e01a601 	cfmadd32mi	mvax0, mvfx10, mvfx1, mvfx1
    5d00:	08000002 	stmdaeq	r0, {r1}
    5d04:	00000f75 	andeq	r0, r0, r5, ror pc
    5d08:	0084a601 	addeq	sl, r4, r1, lsl #12
    5d0c:	a8080000 	stmdage	r8, {}	; <UNPREDICTABLE>
    5d10:	0100000f 	tsteq	r0, pc
    5d14:	000084a7 	andeq	r8, r0, r7, lsr #9
    5d18:	0f6c0800 	svceq	0x006c0800
    5d1c:	a7010000 	strge	r0, [r1, -r0]
    5d20:	00000084 	andeq	r0, r0, r4, lsl #1
    5d24:	61766d0c 	cmnvs	r6, ip, lsl #26
    5d28:	84a90100 	strthi	r0, [r9], #256	; 0x100
    5d2c:	00000000 	andeq	r0, r0, r0
    5d30:	0010710d 	andseq	r7, r0, sp, lsl #2
    5d34:	01fb0100 	mvnseq	r0, r0, lsl #2
    5d38:	000eb50e 	andeq	fp, lr, lr, lsl #10
    5d3c:	01ed0100 	mvneq	r0, r0, lsl #2
    5d40:	000e9807 	andeq	r9, lr, r7, lsl #16
    5d44:	01730100 	cmneq	r3, r0, lsl #2
    5d48:	000002c3 	andeq	r0, r0, r3, asr #5
    5d4c:	00103908 	andseq	r3, r0, r8, lsl #18
    5d50:	84730100 	ldrbthi	r0, [r3], #-256	; 0x100
    5d54:	08000000 	stmdaeq	r0, {}	; <UNPREDICTABLE>
    5d58:	00000f7b 	andeq	r0, r0, fp, ror pc
    5d5c:	00847301 	addeq	r7, r4, r1, lsl #6
    5d60:	c7090000 	strgt	r0, [r9, -r0]
    5d64:	0100000f 	tsteq	r0, pc
    5d68:	00008475 	andeq	r8, r0, r5, ror r4
    5d6c:	0f4e0900 	svceq	0x004e0900
    5d70:	76010000 	strvc	r0, [r1], -r0
    5d74:	00000084 	andeq	r0, r0, r4, lsl #1
    5d78:	000f1a09 	andeq	r1, pc, r9, lsl #20
    5d7c:	84760100 	ldrbthi	r0, [r6], #-256	; 0x100
    5d80:	09000000 	stmdbeq	r0, {}	; <UNPREDICTABLE>
    5d84:	00000f67 	andeq	r0, r0, r7, ror #30
    5d88:	00847601 	addeq	r7, r4, r1, lsl #12
    5d8c:	15090000 	strne	r0, [r9, #-0]
    5d90:	0100000f 	tsteq	r0, pc
    5d94:	00008476 	andeq	r8, r0, r6, ror r4
    5d98:	0f230900 	svceq	0x00230900
    5d9c:	77010000 	strvc	r0, [r1, -r0]
    5da0:	00000084 	andeq	r0, r0, r4, lsl #1
    5da4:	0e840f00 	cdpeq	15, 8, cr0, cr4, cr0, {0}
    5da8:	96010000 	strls	r0, [r1], -r0
    5dac:	01502c44 	cmpeq	r0, r4, asr #24
    5db0:	000000e4 	andeq	r0, r0, r4, ror #1
    5db4:	04cc9c01 	strbeq	r9, [ip], #3073	; 0xc01
    5db8:	7b100000 	blvc	405dc0 <_back_addr-0x10fa240>
    5dbc:	0100000f 	tsteq	r0, pc
    5dc0:	00008496 	muleq	r0, r6, r4
    5dc4:	11500100 	cmpne	r0, r0, lsl #2
    5dc8:	00001039 	andeq	r1, r0, r9, lsr r0
    5dcc:	00849801 	addeq	r9, r4, r1, lsl #16
    5dd0:	33b00000 	movscc	r0, #0
    5dd4:	55110000 	ldrpl	r0, [r1, #-0]
    5dd8:	01000010 	tsteq	r0, r0, lsl r0
    5ddc:	00008498 	muleq	r0, r8, r4
    5de0:	0033cf00 	eorseq	ip, r3, r0, lsl #30
    5de4:	0f571100 	svceq	0x00571100
    5de8:	98010000 	stmdals	r1, {}	; <UNPREDICTABLE>
    5dec:	00000084 	andeq	r0, r0, r4, lsl #1
    5df0:	0000345b 	andeq	r3, r0, fp, asr r4
    5df4:	000e1912 	andeq	r1, lr, r2, lsl r9
    5df8:	849a0100 	ldrhi	r0, [sl], #256	; 0x100
    5dfc:	01000000 	mrseq	r0, (UNDEF: 0)
    5e00:	01f91357 	mvnseq	r1, r7, asr r3
    5e04:	2c480000 	marcs	acc0, r0, r8
    5e08:	00040150 	andeq	r0, r4, r0, asr r1
    5e0c:	9a010000 	bls	45e14 <_back_addr-0x14ba1ec>
    5e10:	00000344 	andeq	r0, r0, r4, asr #6
    5e14:	502c4814 	eorpl	r4, ip, r4, lsl r8
    5e18:	00000401 	andeq	r0, r0, r1, lsl #8
    5e1c:	02091500 	andeq	r1, r9, #0, 10
    5e20:	57010000 	strpl	r0, [r1, -r0]
    5e24:	5e160000 	cdppl	0, 1, cr0, cr6, cr0, {0}
    5e28:	7c000002 	stcvc	0, cr0, [r0], {2}
    5e2c:	7001502c 	andvc	r5, r1, ip, lsr #32
    5e30:	01000006 	tsteq	r0, r6
    5e34:	027517a1 	rsbseq	r1, r5, #42205184	; 0x2840000
    5e38:	6a180000 	bvs	605e40 <_back_addr-0xefa1c0>
    5e3c:	7a000002 	bvc	5e4c <_back_addr-0x14fa1b4>
    5e40:	19000034 	stmdbne	r0, {r2, r4, r5}
    5e44:	00000670 	andeq	r0, r0, r0, ror r6
    5e48:	0002801a 	andeq	r8, r2, sl, lsl r0
    5e4c:	028b1b00 	addeq	r1, fp, #0, 22
    5e50:	34a50000 	strtcc	r0, [r5], #0
    5e54:	961b0000 	ldrls	r0, [fp], -r0
    5e58:	c7000002 	strgt	r0, [r0, -r2]
    5e5c:	1b000034 	blne	5f34 <_back_addr-0x14fa0cc>
    5e60:	000002a1 	andeq	r0, r0, r1, lsr #5
    5e64:	000034e4 	andeq	r3, r0, r4, ror #9
    5e68:	0002ac1b 	andeq	sl, r2, fp, lsl ip
    5e6c:	00351300 	eorseq	r1, r5, r0, lsl #6
    5e70:	02b71b00 	adcseq	r1, r7, #0, 22
    5e74:	35260000 	strcc	r0, [r6, #-0]!
    5e78:	b5130000 	ldrlt	r0, [r3, #-0]
    5e7c:	7c000000 	stcvc	0, cr0, [r0], {-0}
    5e80:	0801502c 	stmdaeq	r1, {r2, r3, r5, ip, lr}
    5e84:	01000000 	mrseq	r0, (UNDEF: 0)
    5e88:	0003d179 	andeq	sp, r3, r9, ror r1
    5e8c:	00cc1800 	sbceq	r1, ip, r0, lsl #16
    5e90:	35440000 	strbcc	r0, [r4, #-0]
    5e94:	c1180000 	tstgt	r8, r0
    5e98:	7a000000 	bvc	5ea0 <_back_addr-0x14fa160>
    5e9c:	14000034 	strne	r0, [r0], #-52	; 0x34
    5ea0:	01502c7c 	cmpeq	r0, ip, ror ip
    5ea4:	00000008 	andeq	r0, r0, r8
    5ea8:	0000d71b 	andeq	sp, r0, fp, lsl r7
    5eac:	00356400 	eorseq	r6, r5, r0, lsl #8
    5eb0:	13000000 	movwne	r0, #0
    5eb4:	000000e3 	andeq	r0, r0, r3, ror #1
    5eb8:	01502c84 	cmpeq	r0, r4, lsl #25
    5ebc:	00000004 	andeq	r0, r0, r4
    5ec0:	03f87b01 	mvnseq	r7, #1024	; 0x400
    5ec4:	84140000 	ldrhi	r0, [r4], #-0
    5ec8:	0401502c 	streq	r5, [r1], #-44	; 0x2c
    5ecc:	1b000000 	blne	5ed4 <_back_addr-0x14fa12c>
    5ed0:	000000f3 	strdeq	r0, [r0], -r3
    5ed4:	00003582 	andeq	r3, r0, r2, lsl #11
    5ed8:	ff1c0000 			; <UNDEFINED> instruction: 0xff1c0000
    5edc:	98000000 	stmdals	r0, {}	; <UNPREDICTABLE>
    5ee0:	8801502c 	stmdahi	r1, {r2, r3, r5, ip, lr}
    5ee4:	01000006 	tsteq	r0, r6
    5ee8:	0004298a 	andeq	r2, r4, sl, lsl #19
    5eec:	010f1700 	tsteq	pc, r0, lsl #14
    5ef0:	88190000 	ldmdahi	r9, {}	; <UNPREDICTABLE>
    5ef4:	1b000006 	blne	5f14 <_back_addr-0x14fa0ec>
    5ef8:	00000118 	andeq	r0, r0, r8, lsl r1
    5efc:	00003595 	muleq	r0, r5, r5
    5f00:	0001231b 	andeq	r2, r1, fp, lsl r3
    5f04:	0035b500 	eorseq	fp, r5, r0, lsl #10
    5f08:	13000000 	movwne	r0, #0
    5f0c:	00000194 	muleq	r0, r4, r1
    5f10:	01502cd0 	ldrsbeq	r2, [r0, #-192]	; 0xffffff40
    5f14:	00000020 	andeq	r0, r0, r0, lsr #32
    5f18:	047b9101 	ldrbteq	r9, [fp], #-257	; 0x101
    5f1c:	cc170000 	ldcgt	0, cr0, [r7], {-0}
    5f20:	17000001 	strne	r0, [r0, -r1]
    5f24:	000001c1 	andeq	r0, r0, r1, asr #3
    5f28:	0001b617 	andeq	fp, r1, r7, lsl r6
    5f2c:	01ab1700 			; <UNDEFINED> instruction: 0x01ab1700
    5f30:	a0170000 	andsge	r0, r7, r0
    5f34:	14000001 	strne	r0, [r0], #-1
    5f38:	01502cd0 	ldrsbeq	r2, [r0, #-192]	; 0xffffff40
    5f3c:	00000020 	andeq	r0, r0, r0, lsr #32
    5f40:	0001d71b 	andeq	sp, r1, fp, lsl r7
    5f44:	0035c800 	eorseq	ip, r5, r0, lsl #16
    5f48:	01e21b00 	mvneq	r1, r0, lsl #22
    5f4c:	35e80000 	strbcc	r0, [r8, #0]!
    5f50:	ed1b0000 	ldc	0, cr0, [fp, #-0]
    5f54:	08000001 	stmdaeq	r0, {r0}
    5f58:	00000036 	andeq	r0, r0, r6, lsr r0
    5f5c:	012f1d00 	teqeq	pc, r0, lsl #26
    5f60:	2d040000 	stccs	0, cr0, [r4, #-0]
    5f64:	00240150 	eoreq	r0, r4, r0, asr r1
    5f68:	8e010000 	cdphi	0, 0, cr0, cr1, cr0, {0}
    5f6c:	00016717 	andeq	r6, r1, r7, lsl r7
    5f70:	015c1700 	cmpeq	ip, r0, lsl #14
    5f74:	51170000 	tstpl	r7, r0
    5f78:	17000001 	strne	r0, [r0, -r1]
    5f7c:	00000146 	andeq	r0, r0, r6, asr #2
    5f80:	00013b17 	andeq	r3, r1, r7, lsl fp
    5f84:	2d041400 	cfstrscs	mvf1, [r4, #-0]
    5f88:	00240150 	eoreq	r0, r4, r0, asr r1
    5f8c:	721b0000 	andsvc	r0, fp, #0
    5f90:	2e000001 	cdpcs	0, 0, cr0, cr0, cr1, {0}
    5f94:	1b000036 	blne	6074 <_back_addr-0x14f9f8c>
    5f98:	0000017d 	andeq	r0, r0, sp, ror r1
    5f9c:	00003659 	andeq	r3, r0, r9, asr r6
    5fa0:	0001881b 	andeq	r8, r1, fp, lsl r8
    5fa4:	00368600 	eorseq	r8, r6, r0, lsl #12
    5fa8:	00000000 	andeq	r0, r0, r0
    5fac:	ff1e0000 			; <UNDEFINED> instruction: 0xff1e0000
    5fb0:	0100000d 	tsteq	r0, sp
    5fb4:	2d280150 	stfcss	f0, [r8, #-320]!	; 0xfffffec0
    5fb8:	00180150 	andseq	r0, r8, r0, asr r1
    5fbc:	9c010000 	stcls	0, cr0, [r1], {-0}
    5fc0:	0010081e 	andseq	r0, r0, lr, lsl r8
    5fc4:	016a0100 	cmneq	sl, r0, lsl #2
    5fc8:	01502d40 	cmpeq	r0, r0, asr #26
    5fcc:	00000004 	andeq	r0, r0, r4
    5fd0:	201e9c01 	andscs	r9, lr, r1, lsl #24
    5fd4:	01000010 	tsteq	r0, r0, lsl r0
    5fd8:	2d440170 	stfcse	f0, [r4, #-448]	; 0xfffffe40
    5fdc:	00040150 	andeq	r0, r4, r0, asr r1
    5fe0:	9c010000 	stcls	0, cr0, [r1], {-0}
    5fe4:	000f2d1e 	andeq	r2, pc, lr, lsl sp	; <UNPREDICTABLE>
    5fe8:	01760100 	cmneq	r6, r0, lsl #2
    5fec:	01502d48 	cmpeq	r0, r8, asr #26
    5ff0:	00000004 	andeq	r0, r0, r4
    5ff4:	601f9c01 	andsvs	r9, pc, r1, lsl #24
    5ff8:	01000010 	tsteq	r0, r0, lsl r0
    5ffc:	2d4c0106 	stfcse	f0, [ip, #-24]	; 0xffffffe8
    6000:	00140150 	andseq	r0, r4, r0, asr r1
    6004:	9c010000 	stcls	0, cr0, [r1], {-0}
    6008:	00000543 	andeq	r0, r0, r3, asr #10
    600c:	502d5820 	eorpl	r5, sp, r0, lsr #16
    6010:	0002c301 	andeq	ip, r2, r1, lsl #6
    6014:	00053d00 	andeq	r3, r5, r0, lsl #26
    6018:	50012100 	andpl	r2, r1, r0, lsl #2
    601c:	22003201 	andcs	r3, r0, #268435456	; 0x10000000
    6020:	01502d60 	cmpeq	r0, r0, ror #26
    6024:	0ec21e00 	cdpeq	14, 12, cr1, cr2, cr0, {0}
    6028:	7c010000 	stcvc	0, cr0, [r1], {-0}
    602c:	502d6001 	eorpl	r6, sp, r1
    6030:	00000401 	andeq	r0, r0, r1, lsl #8
    6034:	239c0100 	orrscs	r0, ip, #0, 2
    6038:	0000024e 	andeq	r0, r0, lr, asr #4
    603c:	01502d64 	cmpeq	r0, r4, ror #26
    6040:	00000014 	andeq	r0, r0, r4, lsl r0
    6044:	05819c01 	streq	r9, [r1, #3073]	; 0xc01
    6048:	70200000 	eorvc	r0, r0, r0
    604c:	c301502d 	movwgt	r5, #4141	; 0x102d
    6050:	7b000002 	blvc	6060 <_back_addr-0x14f9fa0>
    6054:	21000005 	tstcs	r0, r5
    6058:	31015001 	tstcc	r1, r1
    605c:	2d782200 	lfmcs	f2, 2, [r8, #-0]
    6060:	1f000150 	svcne	0x00000150
    6064:	00000feb 	andeq	r0, r0, fp, ror #31
    6068:	78012501 	stmdavc	r1, {r0, r8, sl, sp}
    606c:	3001502d 	andcc	r5, r1, sp, lsr #32
    6070:	01000000 	mrseq	r0, (UNDEF: 0)
    6074:	0005da9c 	muleq	r5, ip, sl
    6078:	024e2400 	subeq	r2, lr, #0, 8
    607c:	2d800000 	stccs	0, cr0, [r0]
    6080:	000c0150 	andeq	r0, ip, r0, asr r1
    6084:	28010000 	stmdacs	r1, {}	; <UNPREDICTABLE>
    6088:	0005c401 	andeq	ip, r5, r1, lsl #8
    608c:	2d882000 	stccs	0, cr2, [r8]
    6090:	02c30150 	sbceq	r0, r3, #80, 2
    6094:	05be0000 	ldreq	r0, [lr, #0]!
    6098:	01210000 	teqeq	r1, r0
    609c:	00310150 	eorseq	r0, r1, r0, asr r1
    60a0:	502d8c25 	eorpl	r8, sp, r5, lsr #24
    60a4:	56260001 	strtpl	r0, [r6], -r1
    60a8:	8c000002 	stchi	0, cr0, [r0], {2}
    60ac:	1c01502d 	stcne	0, cr5, [r1], {45}	; 0x2d
    60b0:	01000000 	mrseq	r0, (UNDEF: 0)
    60b4:	80250129 	eorhi	r0, r5, r9, lsr #2
    60b8:	0001502d 	andeq	r5, r1, sp, lsr #32
    60bc:	000e671f 	andeq	r6, lr, pc, lsl r7
    60c0:	01820100 	orreq	r0, r2, r0, lsl #2
    60c4:	01502da8 	cmpeq	r0, r8, lsr #27
    60c8:	00000004 	andeq	r0, r0, r4
    60cc:	060d9c01 	streq	r9, [sp], -r1, lsl #24
    60d0:	75270000 	strvc	r0, [r7, #-0]!
    60d4:	0100000f 	tsteq	r0, pc
    60d8:	00840182 	addeq	r0, r4, r2, lsl #3
    60dc:	50010000 	andpl	r0, r1, r0
    60e0:	646e6528 	strbtvs	r6, [lr], #-1320	; 0x528
    60e4:	01820100 	orreq	r0, r2, r0, lsl #2
    60e8:	00000084 	andeq	r0, r0, r4, lsl #1
    60ec:	07005101 	streq	r5, [r0, -r1, lsl #2]
    60f0:	0000103f 	andeq	r1, r0, pc, lsr r0
    60f4:	5101d301 	tstpl	r1, r1, lsl #6
    60f8:	08000006 	stmdaeq	r0, {r1, r2}
    60fc:	00000f75 	andeq	r0, r0, r5, ror pc
    6100:	0084d301 	addeq	sp, r4, r1, lsl #6
    6104:	a8080000 	stmdage	r8, {}	; <UNPREDICTABLE>
    6108:	0100000f 	tsteq	r0, pc
    610c:	000084d3 	ldrdeq	r8, [r0], -r3
    6110:	0fff0800 	svceq	0x00ff0800
    6114:	d3010000 	movwle	r0, #4096	; 0x1000
    6118:	00000084 	andeq	r0, r0, r4, lsl #1
    611c:	000f6c09 	andeq	r6, pc, r9, lsl #24
    6120:	84d50100 	ldrbhi	r0, [r5], #256	; 0x100
    6124:	09000000 	stmdbeq	r0, {}	; <UNPREDICTABLE>
    6128:	00000fc7 	andeq	r0, r0, r7, asr #31
    612c:	0084d501 	addeq	sp, r4, r1, lsl #10
    6130:	1f000000 	svcne	0x00000000
    6134:	00000e1f 	andeq	r0, r0, pc, lsl lr
    6138:	ac011e01 	stcge	14, cr1, [r1], {1}
    613c:	3c01502d 	stccc	0, cr5, [r1], {45}	; 0x2d
    6140:	01000000 	mrseq	r0, (UNDEF: 0)
    6144:	0007379c 	muleq	r7, ip, r7
    6148:	0f752900 	svceq	0x00752900
    614c:	1e010000 	cdpne	0, 0, cr0, cr1, cr0, {0}
    6150:	00002c01 	andeq	r2, r0, r1, lsl #24
    6154:	0036b700 	eorseq	fp, r6, r0, lsl #14
    6158:	0fa82900 	svceq	0x00a82900
    615c:	1e010000 	cdpne	0, 0, cr0, cr1, cr0, {0}
    6160:	00002c01 	andeq	r2, r0, r1, lsl #24
    6164:	0036d800 	eorseq	sp, r6, r0, lsl #16
    6168:	060d2400 	streq	r2, [sp], -r0, lsl #8
    616c:	2dac0000 	stccs	0, cr0, [ip]
    6170:	00380150 	eorseq	r0, r8, r0, asr r1
    6174:	20010000 	andcs	r0, r1, r0
    6178:	00073101 	andeq	r3, r7, r1, lsl #2
    617c:	062f2a00 	strteq	r2, [pc], -r0, lsl #20
    6180:	18040000 	stmdane	r4, {}	; <UNPREDICTABLE>
    6184:	00000624 	andeq	r0, r0, r4, lsr #12
    6188:	000036d8 	ldrdeq	r3, [r0], -r8
    618c:	00061918 	andeq	r1, r6, r8, lsl r9
    6190:	0036b700 	eorseq	fp, r6, r0, lsl #14
    6194:	2dac1400 	cfstrscs	mvf1, [ip]
    6198:	00380150 	eorseq	r0, r8, r0, asr r1
    619c:	3a1b0000 	bcc	6c61a4 <_back_addr-0xe39e5c>
    61a0:	f9000006 			; <UNDEFINED> instruction: 0xf9000006
    61a4:	1a000036 	bne	6284 <_back_addr-0x14f9d7c>
    61a8:	00000645 	andeq	r0, r0, r5, asr #12
    61ac:	0000e313 	andeq	lr, r0, r3, lsl r3
    61b0:	502dac00 	eorpl	sl, sp, r0, lsl #24
    61b4:	00000401 	andeq	r0, r0, r1, lsl #8
    61b8:	f1d70100 			; <UNDEFINED> instruction: 0xf1d70100
    61bc:	14000006 	strne	r0, [r0], #-6
    61c0:	01502dac 	cmpeq	r0, ip, lsr #27
    61c4:	00000004 	andeq	r0, r0, r4
    61c8:	0000f31b 	andeq	pc, r0, fp, lsl r3	; <UNPREDICTABLE>
    61cc:	00371d00 	eorseq	r1, r7, r0, lsl #26
    61d0:	1d000000 	stcne	0, cr0, [r0, #-0]
    61d4:	00000215 	andeq	r0, r0, r5, lsl r2
    61d8:	01502dc0 	cmpeq	r0, r0, asr #27
    61dc:	00000020 	andeq	r0, r0, r0, lsr #32
    61e0:	3718e101 	ldrcc	lr, [r8, -r1, lsl #2]
    61e4:	30000002 	andcc	r0, r0, r2
    61e8:	18000037 	stmdane	r0, {r0, r1, r2, r4, r5}
    61ec:	0000022c 	andeq	r0, r0, ip, lsr #4
    61f0:	00003743 	andeq	r3, r0, r3, asr #14
    61f4:	00022118 	andeq	r2, r2, r8, lsl r1
    61f8:	00376400 	eorseq	r6, r7, r0, lsl #8
    61fc:	2dc01400 	cfstrdcs	mvd1, [r0]
    6200:	00200150 	eoreq	r0, r0, r0, asr r1
    6204:	421b0000 	andsmi	r0, fp, #0
    6208:	93000002 	movwls	r0, #2
    620c:	00000037 	andeq	r0, r0, r7, lsr r0
    6210:	22000000 	andcs	r0, r0, #0
    6214:	01502de8 	cmpeq	r0, r8, ror #27
    6218:	09fe1f00 	ldmibeq	lr!, {r8, r9, sl, fp, ip}^
    621c:	30010000 	andcc	r0, r1, r0
    6220:	502de801 	eorpl	lr, sp, r1, lsl #16
    6224:	00000801 	andeq	r0, r0, r1, lsl #16
    6228:	8a9c0100 	bhi	fe706630 <__bss_end__+0xfd1f2af0>
    622c:	29000007 	stmdbcs	r0, {r0, r1, r2}
    6230:	00000f75 	andeq	r0, r0, r5, ror pc
    6234:	2c013001 	stccs	0, cr3, [r1], {1}
    6238:	a6000000 	strge	r0, [r0], -r0
    623c:	29000037 	stmdbcs	r0, {r0, r1, r2, r4, r5}
    6240:	000004b3 			; <UNDEFINED> instruction: 0x000004b3
    6244:	2c013001 	stccs	0, cr3, [r1], {1}
    6248:	c7000000 	strgt	r0, [r0, -r0]
    624c:	2b000037 	blcs	6330 <_back_addr-0x14f9cd0>
    6250:	01502df0 	ldrsheq	r2, [r0, #-208]	; 0xffffff30
    6254:	00000651 	andeq	r0, r0, r1, asr r6
    6258:	03500121 	cmpeq	r0, #1073741832	; 0x40000008
    625c:	215001f3 	ldrshcs	r0, [r0, #-19]	; 0xffffffed
    6260:	f3075101 	vrhadd.u8	d5, d7, d1
    6264:	01f35001 	mvnseq	r5, r1
    6268:	00002251 	andeq	r2, r0, r1, asr r2
    626c:	000fce1f 	andeq	ip, pc, pc, lsl lr	; <UNPREDICTABLE>
    6270:	01880100 	orreq	r0, r8, r0, lsl #2
    6274:	01502df0 	ldrsheq	r2, [r0, #-208]	; 0xffffff30
    6278:	00000004 	andeq	r0, r0, r4
    627c:	07bd9c01 	ldreq	r9, [sp, r1, lsl #24]!
    6280:	75270000 	strvc	r0, [r7, #-0]!
    6284:	0100000f 	tsteq	r0, pc
    6288:	00840188 	addeq	r0, r4, r8, lsl #3
    628c:	50010000 	andpl	r0, r1, r0
    6290:	646e6528 	strbtvs	r6, [lr], #-1320	; 0x528
    6294:	01880100 	orreq	r0, r8, r0, lsl #2
    6298:	00000084 	andeq	r0, r0, r4, lsl #1
    629c:	07005101 	streq	r5, [r0, -r1, lsl #2]
    62a0:	00000fad 	andeq	r0, r0, sp, lsr #31
    62a4:	f601b301 			; <UNDEFINED> instruction: 0xf601b301
    62a8:	08000007 	stmdaeq	r0, {r0, r1, r2}
    62ac:	00000f75 	andeq	r0, r0, r5, ror pc
    62b0:	0084b301 	addeq	fp, r4, r1, lsl #6
    62b4:	a8080000 	stmdage	r8, {}	; <UNPREDICTABLE>
    62b8:	0100000f 	tsteq	r0, pc
    62bc:	000084b3 			; <UNDEFINED> instruction: 0x000084b3
    62c0:	0f6c0800 	svceq	0x006c0800
    62c4:	b3010000 	movwlt	r0, #4096	; 0x1000
    62c8:	00000084 	andeq	r0, r0, r4, lsl #1
    62cc:	61766d0c 	cmnvs	r6, ip, lsl #26
    62d0:	84b50100 	ldrthi	r0, [r5], #256	; 0x100
    62d4:	00000000 	andeq	r0, r0, r0
    62d8:	000e4f1f 	andeq	r4, lr, pc, lsl pc
    62dc:	01110100 	tsteq	r1, r0, lsl #2
    62e0:	01502df4 	ldrsheq	r2, [r0, #-212]	; 0xffffff2c
    62e4:	00000068 	andeq	r0, r0, r8, rrx
    62e8:	08dc9c01 	ldmeq	ip, {r0, sl, fp, ip, pc}^
    62ec:	75290000 	strvc	r0, [r9, #-0]!
    62f0:	0100000f 	tsteq	r0, pc
    62f4:	002c0111 	eoreq	r0, ip, r1, lsl r1
    62f8:	37e80000 	strbcc	r0, [r8, r0]!
    62fc:	a8290000 	stmdage	r9!, {}	; <UNPREDICTABLE>
    6300:	0100000f 	tsteq	r0, pc
    6304:	002c0111 	eoreq	r0, ip, r1, lsl r1
    6308:	38090000 	stmdacc	r9, {}	; <UNPREDICTABLE>
    630c:	0d240000 	stceq	0, cr0, [r4, #-0]
    6310:	f8000006 			; <UNDEFINED> instruction: 0xf8000006
    6314:	5c01502d 	stcpl	0, cr5, [r1], {45}	; 0x2d
    6318:	01000000 	mrseq	r0, (UNDEF: 0)
    631c:	08d60114 	ldmeq	r6, {r2, r4, r8}^
    6320:	2f2a0000 	svccs	0x002a0000
    6324:	03000006 	movweq	r0, #6
    6328:	00062418 	andeq	r2, r6, r8, lsl r4
    632c:	00380900 	eorseq	r0, r8, r0, lsl #18
    6330:	06191800 	ldreq	r1, [r9], -r0, lsl #16
    6334:	37e80000 	strbcc	r0, [r8, r0]!
    6338:	f8140000 			; <UNDEFINED> instruction: 0xf8140000
    633c:	5c01502d 	stcpl	0, cr5, [r1], {45}	; 0x2d
    6340:	1b000000 	blne	6348 <_back_addr-0x14f9cb8>
    6344:	0000063a 	andeq	r0, r0, sl, lsr r6
    6348:	0000382a 	andeq	r3, r0, sl, lsr #16
    634c:	0006451a 	andeq	r4, r6, sl, lsl r5
    6350:	00e31300 	rsceq	r1, r3, r0, lsl #6
    6354:	2df80000 	ldclcs	0, cr0, [r8]
    6358:	00040150 	andeq	r0, r4, r0, asr r1
    635c:	d7010000 	strle	r0, [r1, -r0]
    6360:	00000896 	muleq	r0, r6, r8
    6364:	502df814 	eorpl	pc, sp, r4, lsl r8	; <UNPREDICTABLE>
    6368:	00000401 	andeq	r0, r0, r1, lsl #8
    636c:	00f31b00 	rscseq	r1, r3, r0, lsl #22
    6370:	384e0000 	stmdacc	lr, {}^	; <UNPREDICTABLE>
    6374:	00000000 	andeq	r0, r0, r0
    6378:	0007bd1d 	andeq	fp, r7, sp, lsl sp
    637c:	502e0c00 	eorpl	r0, lr, r0, lsl #24
    6380:	00004401 	andeq	r4, r0, r1, lsl #8
    6384:	18e40100 	stmiane	r4!, {r8}^
    6388:	000007df 	ldrdeq	r0, [r0], -pc	; <UNPREDICTABLE>
    638c:	00003861 	andeq	r3, r0, r1, ror #16
    6390:	0007d418 	andeq	sp, r7, r8, lsl r4
    6394:	00387400 	eorseq	r7, r8, r0, lsl #8
    6398:	07c91800 	strbeq	r1, [r9, r0, lsl #16]
    639c:	38920000 	ldmcc	r2, {}	; <UNPREDICTABLE>
    63a0:	0c140000 	ldceq	0, cr0, [r4], {-0}
    63a4:	4401502e 	strmi	r5, [r1], #-46	; 0x2e
    63a8:	1b000000 	blne	63b0 <_back_addr-0x14f9c50>
    63ac:	000007ea 	andeq	r0, r0, sl, ror #15
    63b0:	000038b0 			; <UNDEFINED> instruction: 0x000038b0
    63b4:	00000000 	andeq	r0, r0, r0
    63b8:	502e5c22 	eorpl	r5, lr, r2, lsr #24
    63bc:	b62c0001 	strtlt	r0, [ip], -r1
    63c0:	04000009 	streq	r0, [r0], #-9
    63c4:	004803e7 	subeq	r0, r8, r7, ror #7
    63c8:	00000000 	andeq	r0, r0, r0
    63cc:	ab2d0020 	blge	b46454 <_back_addr-0x9b9bac>
    63d0:	05000008 	streq	r0, [r0, #-8]
    63d4:	008f01f6 	strdeq	r0, [pc], r6
    63d8:	Address 0x000063d8 is out of bounds.


Disassembly of section .debug_abbrev:

00000000 <.debug_abbrev>:
       0:	10001101 	andne	r1, r0, r1, lsl #2
       4:	12011106 	andne	r1, r1, #-2147483647	; 0x80000001
       8:	1b080301 	blne	200c14 <_back_addr-0x12ff3ec>
       c:	13082508 	movwne	r2, #34056	; 0x8508
      10:	00000005 	andeq	r0, r0, r5
      14:	25011101 	strcs	r1, [r1, #-257]	; 0x101
      18:	030b130e 	movweq	r1, #45838	; 0xb30e
      1c:	110e1b0e 	tstne	lr, lr, lsl #22
      20:	10061201 	andne	r1, r6, r1, lsl #4
      24:	02000017 	andeq	r0, r0, #23
      28:	0b0b0024 	bleq	2c00c0 <_back_addr-0x123ff40>
      2c:	0e030b3e 	vmoveq.16	d3[0], r0
      30:	24030000 	strcs	r0, [r3], #-0
      34:	3e0b0b00 	vmlacc.f64	d0, d11, d0
      38:	0008030b 	andeq	r0, r8, fp, lsl #6
      3c:	012e0400 	teqeq	lr, r0, lsl #8
      40:	0e03193f 	mcreq	9, 0, r1, cr3, cr15, {1}
      44:	0b3b0b3a 	bleq	ec2d34 <_back_addr-0x63d2cc>
      48:	13491927 	movtne	r1, #39207	; 0x9927
      4c:	06120111 			; <UNDEFINED> instruction: 0x06120111
      50:	42971840 	addsmi	r1, r7, #64, 16	; 0x400000
      54:	00130119 	andseq	r0, r3, r9, lsl r1
      58:	00050500 	andeq	r0, r5, r0, lsl #10
      5c:	0b3a0803 	bleq	e82070 <_back_addr-0x67df90>
      60:	13490b3b 	movtne	r0, #39739	; 0x9b3b
      64:	00001702 	andeq	r1, r0, r2, lsl #14
      68:	03003406 	movweq	r3, #1030	; 0x406
      6c:	3b0b3a08 	blcc	2ce894 <_back_addr-0x123176c>
      70:	0213490b 	andseq	r4, r3, #180224	; 0x2c000
      74:	07000017 	smladeq	r0, r7, r0, r0
      78:	0b0b000f 	bleq	2c00bc <_back_addr-0x123ff44>
      7c:	00001349 	andeq	r1, r0, r9, asr #6
      80:	49002608 	stmdbmi	r0, {r3, r9, sl, sp}
      84:	00000013 	andeq	r0, r0, r3, lsl r0
      88:	25011101 	strcs	r1, [r1, #-257]	; 0x101
      8c:	030b130e 	movweq	r1, #45838	; 0xb30e
      90:	110e1b0e 	tstne	lr, lr, lsl #22
      94:	10061201 	andne	r1, r6, r1, lsl #4
      98:	02000017 	andeq	r0, r0, #23
      9c:	0b0b0024 	bleq	2c0134 <_back_addr-0x123fecc>
      a0:	0e030b3e 	vmoveq.16	d3[0], r0
      a4:	24030000 	strcs	r0, [r3], #-0
      a8:	3e0b0b00 	vmlacc.f64	d0, d11, d0
      ac:	0008030b 	andeq	r0, r8, fp, lsl #6
      b0:	012e0400 	teqeq	lr, r0, lsl #8
      b4:	0e03193f 	mcreq	9, 0, r1, cr3, cr15, {1}
      b8:	0b3b0b3a 	bleq	ec2da8 <_back_addr-0x63d258>
      bc:	13491927 	movtne	r1, #39207	; 0x9927
      c0:	06120111 			; <UNDEFINED> instruction: 0x06120111
      c4:	42971840 	addsmi	r1, r7, #64, 16	; 0x400000
      c8:	00130119 	andseq	r0, r3, r9, lsl r1
      cc:	00050500 	andeq	r0, r5, r0, lsl #10
      d0:	0b3a0803 	bleq	e820e4 <_back_addr-0x67df1c>
      d4:	13490b3b 	movtne	r0, #39739	; 0x9b3b
      d8:	00001702 	andeq	r1, r0, r2, lsl #14
      dc:	03000506 	movweq	r0, #1286	; 0x506
      e0:	3b0b3a08 	blcc	2ce908 <_back_addr-0x12316f8>
      e4:	0213490b 	andseq	r4, r3, #180224	; 0x2c000
      e8:	07000018 	smladeq	r0, r8, r0, r0
      ec:	08030034 	stmdaeq	r3, {r2, r4, r5}
      f0:	0b3b0b3a 	bleq	ec2de0 <_back_addr-0x63d220>
      f4:	17021349 	strne	r1, [r2, -r9, asr #6]
      f8:	0f080000 	svceq	0x00080000
      fc:	490b0b00 	stmdbmi	fp, {r8, r9, fp}
     100:	09000013 	stmdbeq	r0, {r0, r1, r4}
     104:	13490026 	movtne	r0, #36902	; 0x9026
     108:	01000000 	mrseq	r0, (UNDEF: 0)
     10c:	0e250111 	mcreq	1, 1, r0, cr5, cr1, {0}
     110:	0e030b13 	vmoveq.32	d3[0], r0
     114:	01110e1b 	tsteq	r1, fp, lsl lr
     118:	17100612 			; <UNDEFINED> instruction: 0x17100612
     11c:	24020000 	strcs	r0, [r2], #-0
     120:	3e0b0b00 	vmlacc.f64	d0, d11, d0
     124:	000e030b 	andeq	r0, lr, fp, lsl #6
     128:	00240300 	eoreq	r0, r4, r0, lsl #6
     12c:	0b3e0b0b 	bleq	f82d60 <_back_addr-0x57d2a0>
     130:	00000803 	andeq	r0, r0, r3, lsl #16
     134:	3f012e04 	svccc	0x00012e04
     138:	3a0e0319 	bcc	380da4 <_back_addr-0x117f25c>
     13c:	270b3b0b 	strcs	r3, [fp, -fp, lsl #22]
     140:	11134919 	tstne	r3, r9, lsl r9
     144:	40061201 	andmi	r1, r6, r1, lsl #4
     148:	19429718 	stmdbne	r2, {r3, r4, r8, r9, sl, ip, pc}^
     14c:	00001301 	andeq	r1, r0, r1, lsl #6
     150:	03000505 	movweq	r0, #1285	; 0x505
     154:	3b0b3a08 	blcc	2ce97c <_back_addr-0x1231684>
     158:	0213490b 	andseq	r4, r3, #180224	; 0x2c000
     15c:	06000017 			; <UNDEFINED> instruction: 0x06000017
     160:	0e030005 	cdpeq	0, 0, cr0, cr3, cr5, {0}
     164:	0b3b0b3a 	bleq	ec2e54 <_back_addr-0x63d1ac>
     168:	18021349 	stmdane	r2, {r0, r3, r6, r8, r9, ip}
     16c:	05070000 	streq	r0, [r7, #-0]
     170:	3a0e0300 	bcc	380d78 <_back_addr-0x117f288>
     174:	490b3b0b 	stmdbmi	fp, {r0, r1, r3, r8, r9, fp, ip, sp}
     178:	00170213 	andseq	r0, r7, r3, lsl r2
     17c:	00340800 	eorseq	r0, r4, r0, lsl #16
     180:	0b3a0803 	bleq	e82194 <_back_addr-0x67de6c>
     184:	13490b3b 	movtne	r0, #39739	; 0x9b3b
     188:	00001702 	andeq	r1, r0, r2, lsl #14
     18c:	03003409 	movweq	r3, #1033	; 0x409
     190:	3b0b3a0e 	blcc	2ce9d0 <_back_addr-0x1231630>
     194:	0213490b 	andseq	r4, r3, #180224	; 0x2c000
     198:	0a000017 	beq	1fc <_back_addr-0x14ffe04>
     19c:	0b0b000f 	bleq	2c01e0 <_back_addr-0x123fe20>
     1a0:	00001349 	andeq	r1, r0, r9, asr #6
     1a4:	4900260b 	stmdbmi	r0, {r0, r1, r3, r9, sl, sp}
     1a8:	0c000013 	stceq	0, cr0, [r0], {19}
     1ac:	13490101 	movtne	r0, #37121	; 0x9101
     1b0:	00001301 	andeq	r1, r0, r1, lsl #6
     1b4:	0000210d 	andeq	r2, r0, sp, lsl #2
     1b8:	00340e00 	eorseq	r0, r4, r0, lsl #28
     1bc:	0b3a0e03 	bleq	e839d0 <_back_addr-0x67c630>
     1c0:	13490b3b 	movtne	r0, #39739	; 0x9b3b
     1c4:	193c193f 	ldmdbne	ip!, {r0, r1, r2, r3, r4, r5, r8, fp, ip}
     1c8:	01000000 	mrseq	r0, (UNDEF: 0)
     1cc:	0e250111 	mcreq	1, 1, r0, cr5, cr1, {0}
     1d0:	0e030b13 	vmoveq.32	d3[0], r0
     1d4:	17100e1b 			; <UNDEFINED> instruction: 0x17100e1b
     1d8:	01020000 	mrseq	r0, (UNDEF: 2)
     1dc:	01134901 	tsteq	r3, r1, lsl #18
     1e0:	03000013 	movweq	r0, #19
     1e4:	13490021 	movtne	r0, #36897	; 0x9021
     1e8:	00000b2f 	andeq	r0, r0, pc, lsr #22
     1ec:	0b002404 	bleq	9204 <_back_addr-0x14f6dfc>
     1f0:	030b3e0b 	movweq	r3, #48651	; 0xbe0b
     1f4:	0500000e 	streq	r0, [r0, #-14]
     1f8:	0e030034 	mcreq	0, 0, r0, cr3, cr4, {1}
     1fc:	0b3b0b3a 	bleq	ec2eec <_back_addr-0x63d114>
     200:	193f1349 	ldmdbne	pc!, {r0, r3, r6, r8, r9, ip}	; <UNPREDICTABLE>
     204:	00001802 	andeq	r1, r0, r2, lsl #16
     208:	49002606 	stmdbmi	r0, {r1, r2, r9, sl, sp}
     20c:	00000013 	andeq	r0, r0, r3, lsl r0
     210:	25011101 	strcs	r1, [r1, #-257]	; 0x101
     214:	030b130e 	movweq	r1, #45838	; 0xb30e
     218:	110e1b0e 	tstne	lr, lr, lsl #22
     21c:	10061201 	andne	r1, r6, r1, lsl #4
     220:	02000017 	andeq	r0, r0, #23
     224:	0b0b0024 	bleq	2c02bc <_back_addr-0x123fd44>
     228:	0e030b3e 	vmoveq.16	d3[0], r0
     22c:	16030000 	strne	r0, [r3], -r0
     230:	3a0e0300 	bcc	380e38 <_back_addr-0x117f1c8>
     234:	490b3b0b 	stmdbmi	fp, {r0, r1, r3, r8, r9, fp, ip, sp}
     238:	04000013 	streq	r0, [r0], #-19
     23c:	0b0b0024 	bleq	2c02d4 <_back_addr-0x123fd2c>
     240:	08030b3e 	stmdaeq	r3, {r1, r2, r3, r4, r5, r8, r9, fp}
     244:	0f050000 	svceq	0x00050000
     248:	490b0b00 	stmdbmi	fp, {r8, r9, fp}
     24c:	06000013 			; <UNDEFINED> instruction: 0x06000013
     250:	13490026 	movtne	r0, #36902	; 0x9026
     254:	04070000 	streq	r0, [r7], #-0
     258:	3a0b0b01 	bcc	2c2e64 <_back_addr-0x123d19c>
     25c:	010b3b0b 	tsteq	fp, fp, lsl #22
     260:	08000013 	stmdaeq	r0, {r0, r1, r4}
     264:	0e030028 	cdpeq	0, 0, cr0, cr3, cr8, {1}
     268:	00000d1c 	andeq	r0, r0, ip, lsl sp
     26c:	3f002e09 	svccc	0x00002e09
     270:	3a0e0319 	bcc	380edc <_back_addr-0x117f124>
     274:	490b3b0b 	stmdbmi	fp, {r0, r1, r3, r8, r9, fp, ip, sp}
     278:	12011113 	andne	r1, r1, #-1073741820	; 0xc0000004
     27c:	97184006 	ldrls	r4, [r8, -r6]
     280:	00001942 	andeq	r1, r0, r2, asr #18
     284:	3f012e0a 	svccc	0x00012e0a
     288:	3a0e0319 	bcc	380ef4 <_back_addr-0x117f10c>
     28c:	270b3b0b 	strcs	r3, [fp, -fp, lsl #22]
     290:	11134919 	tstne	r3, r9, lsl r9
     294:	40061201 	andmi	r1, r6, r1, lsl #4
     298:	19429718 	stmdbne	r2, {r3, r4, r8, r9, sl, ip, pc}^
     29c:	00001301 	andeq	r1, r0, r1, lsl #6
     2a0:	0300050b 	movweq	r0, #1291	; 0x50b
     2a4:	3b0b3a08 	blcc	2ceacc <_back_addr-0x1231534>
     2a8:	0213490b 	andseq	r4, r3, #180224	; 0x2c000
     2ac:	0c000018 	stceq	0, cr0, [r0], {24}
     2b0:	00000018 	andeq	r0, r0, r8, lsl r0
     2b4:	0300050d 	movweq	r0, #1293	; 0x50d
     2b8:	3b0b3a0e 	blcc	2ceaf8 <_back_addr-0x1231508>
     2bc:	0213490b 	andseq	r4, r3, #180224	; 0x2c000
     2c0:	0e000018 	mcreq	0, 0, r0, cr0, cr8, {0}
     2c4:	08030005 	stmdaeq	r3, {r0, r2}
     2c8:	0b3b0b3a 	bleq	ec2fb8 <_back_addr-0x63d048>
     2cc:	17021349 	strne	r1, [r2, -r9, asr #6]
     2d0:	050f0000 	streq	r0, [pc, #-0]	; 2d8 <_back_addr-0x14ffd28>
     2d4:	3a0e0300 	bcc	380edc <_back_addr-0x117f124>
     2d8:	490b3b0b 	stmdbmi	fp, {r0, r1, r3, r8, r9, fp, ip, sp}
     2dc:	00170213 	andseq	r0, r7, r3, lsl r2
     2e0:	00341000 	eorseq	r1, r4, r0
     2e4:	0b3a0e03 	bleq	e83af8 <_back_addr-0x67c508>
     2e8:	13490b3b 	movtne	r0, #39739	; 0x9b3b
     2ec:	00001702 	andeq	r1, r0, r2, lsl #14
     2f0:	0b000f11 	bleq	3f3c <_back_addr-0x14fc0c4>
     2f4:	1200000b 	andne	r0, r0, #11
     2f8:	00000026 	andeq	r0, r0, r6, lsr #32
     2fc:	03003413 	movweq	r3, #1043	; 0x413
     300:	3b0b3a08 	blcc	2ceb28 <_back_addr-0x12314d8>
     304:	0213490b 	andseq	r4, r3, #180224	; 0x2c000
     308:	14000017 	strne	r0, [r0], #-23
     30c:	0e030034 	mcreq	0, 0, r0, cr3, cr4, {1}
     310:	0b3b0b3a 	bleq	ec3000 <_back_addr-0x63d000>
     314:	00001349 	andeq	r1, r0, r9, asr #6
     318:	3f012e15 	svccc	0x00012e15
     31c:	3a0e0319 	bcc	380f88 <_back_addr-0x117f078>
     320:	490b3b0b 	stmdbmi	fp, {r0, r1, r3, r8, r9, fp, ip, sp}
     324:	01193c13 	tsteq	r9, r3, lsl ip
     328:	16000013 			; <UNDEFINED> instruction: 0x16000013
     32c:	01018289 	smlabbeq	r1, r9, r2, r8
     330:	13310111 	teqne	r1, #1073741828	; 0x40000004
     334:	00001301 	andeq	r1, r0, r1, lsl #6
     338:	01828a17 	orreq	r8, r2, r7, lsl sl
     33c:	91180200 	tstls	r8, r0, lsl #4
     340:	00001842 	andeq	r1, r0, r2, asr #16
     344:	01828918 	orreq	r8, r2, r8, lsl r9
     348:	31011100 	mrscc	r1, (UNDEF: 17)
     34c:	19000013 	stmdbne	r0, {r0, r1, r4}
     350:	01018289 	smlabbeq	r1, r9, r2, r8
     354:	13310111 	teqne	r1, #1073741828	; 0x40000004
     358:	341a0000 	ldrcc	r0, [sl], #-0
     35c:	3a0e0300 	bcc	380f64 <_back_addr-0x117f09c>
     360:	490b3b0b 	stmdbmi	fp, {r0, r1, r3, r8, r9, fp, ip, sp}
     364:	3c193f13 	ldccc	15, cr3, [r9], {19}
     368:	1b000019 	blne	3d4 <_back_addr-0x14ffc2c>
     36c:	13490101 	movtne	r0, #37121	; 0x9101
     370:	00001301 	andeq	r1, r0, r1, lsl #6
     374:	0000211c 	andeq	r2, r0, ip, lsl r1
     378:	00211d00 	eoreq	r1, r1, r0, lsl #26
     37c:	0b2f1349 	bleq	bc50a8 <_back_addr-0x93af58>
     380:	341e0000 	ldrcc	r0, [lr], #-0
     384:	3a0e0300 	bcc	380f8c <_back_addr-0x117f074>
     388:	490b3b0b 	stmdbmi	fp, {r0, r1, r3, r8, r9, fp, ip, sp}
     38c:	02193f13 	andseq	r3, r9, #19, 30	; 0x4c
     390:	1f000018 	svcne	0x00000018
     394:	13490021 	movtne	r0, #36897	; 0x9021
     398:	0000052f 	andeq	r0, r0, pc, lsr #10
     39c:	3f002e20 	svccc	0x00002e20
     3a0:	3a0e0319 	bcc	38100c <_back_addr-0x117eff4>
     3a4:	270b3b0b 	strcs	r3, [fp, -fp, lsl #22]
     3a8:	00193c19 	andseq	r3, r9, r9, lsl ip
     3ac:	012e2100 	teqeq	lr, r0, lsl #2
     3b0:	0e03193f 	mcreq	9, 0, r1, cr3, cr15, {1}
     3b4:	0b3b0b3a 	bleq	ec30a4 <_back_addr-0x63cf5c>
     3b8:	13491927 	movtne	r1, #39207	; 0x9927
     3bc:	1301193c 	movwne	r1, #6460	; 0x193c
     3c0:	05220000 	streq	r0, [r2, #-0]!
     3c4:	00134900 	andseq	r4, r3, r0, lsl #18
     3c8:	012e2300 	teqeq	lr, r0, lsl #6
     3cc:	0e03193f 	mcreq	9, 0, r1, cr3, cr15, {1}
     3d0:	0b3b0b3a 	bleq	ec30c0 <_back_addr-0x63cf40>
     3d4:	193c1349 	ldmdbne	ip!, {r0, r3, r6, r8, r9, ip}
     3d8:	01000000 	mrseq	r0, (UNDEF: 0)
     3dc:	0e250111 	mcreq	1, 1, r0, cr5, cr1, {0}
     3e0:	0e030b13 	vmoveq.32	d3[0], r0
     3e4:	01110e1b 	tsteq	r1, fp, lsl lr
     3e8:	17100612 			; <UNDEFINED> instruction: 0x17100612
     3ec:	24020000 	strcs	r0, [r2], #-0
     3f0:	3e0b0b00 	vmlacc.f64	d0, d11, d0
     3f4:	000e030b 	andeq	r0, lr, fp, lsl #6
     3f8:	01040300 	mrseq	r0, LR_abt
     3fc:	0b3a0b0b 	bleq	e83030 <_back_addr-0x67cfd0>
     400:	13010b3b 	movwne	r0, #6971	; 0x1b3b
     404:	28040000 	stmdacs	r4, {}	; <UNPREDICTABLE>
     408:	1c0e0300 	stcne	3, cr0, [lr], {-0}
     40c:	0500000d 	streq	r0, [r0, #-13]
     410:	0e030016 	mcreq	0, 0, r0, cr3, cr6, {0}
     414:	0b3b0b3a 	bleq	ec3104 <_back_addr-0x63cefc>
     418:	00001349 	andeq	r1, r0, r9, asr #6
     41c:	0b002406 	bleq	943c <_back_addr-0x14f6bc4>
     420:	030b3e0b 	movweq	r3, #48651	; 0xbe0b
     424:	07000008 	streq	r0, [r0, -r8]
     428:	0e030104 	adfeqs	f0, f3, f4
     42c:	0b3a0b0b 	bleq	e83060 <_back_addr-0x67cfa0>
     430:	13010b3b 	movwne	r0, #6971	; 0x1b3b
     434:	2e080000 	cdpcs	0, 0, cr0, cr8, cr0, {0}
     438:	3a0e0301 	bcc	381044 <_back_addr-0x117efbc>
     43c:	270b3b0b 	strcs	r3, [fp, -fp, lsl #22]
     440:	20134919 	andscs	r4, r3, r9, lsl r9
     444:	0013010b 	andseq	r0, r3, fp, lsl #2
     448:	00050900 	andeq	r0, r5, r0, lsl #18
     44c:	0b3a0e03 	bleq	e83c60 <_back_addr-0x67c3a0>
     450:	13490b3b 	movtne	r0, #39739	; 0x9b3b
     454:	2e0a0000 	cdpcs	0, 0, cr0, cr10, cr0, {0}
     458:	3a0e0301 	bcc	381064 <_back_addr-0x117ef9c>
     45c:	270b3b0b 	strcs	r3, [fp, -fp, lsl #22]
     460:	010b2019 	tsteq	fp, r9, lsl r0
     464:	0b000013 	bleq	4b8 <_back_addr-0x14ffb48>
     468:	08030005 	stmdaeq	r3, {r0, r2}
     46c:	0b3b0b3a 	bleq	ec315c <_back_addr-0x63cea4>
     470:	00001349 	andeq	r1, r0, r9, asr #6
     474:	3f012e0c 	svccc	0x00012e0c
     478:	3a0e0319 	bcc	3810e4 <_back_addr-0x117ef1c>
     47c:	27053b0b 	strcs	r3, [r5, -fp, lsl #22]
     480:	20134919 	andscs	r4, r3, r9, lsl r9
     484:	0013010b 	andseq	r0, r3, fp, lsl #2
     488:	00050d00 	andeq	r0, r5, r0, lsl #26
     48c:	0b3a0e03 	bleq	e83ca0 <_back_addr-0x67c360>
     490:	1349053b 	movtne	r0, #38203	; 0x953b
     494:	2e0e0000 	cdpcs	0, 0, cr0, cr14, cr0, {0}
     498:	03193f01 	tsteq	r9, #1, 30
     49c:	3b0b3a0e 	blcc	2cecdc <_back_addr-0x1231324>
     4a0:	3c13490b 	ldccc	9, cr4, [r3], {11}
     4a4:	00130119 	andseq	r0, r3, r9, lsl r1
     4a8:	00180f00 	andseq	r0, r8, r0, lsl #30
     4ac:	0b100000 	bleq	4004b4 <_back_addr-0x10ffb4c>
     4b0:	00130101 	andseq	r0, r3, r1, lsl #2
     4b4:	012e1100 	teqeq	lr, r0, lsl #2
     4b8:	0e03193f 	mcreq	9, 0, r1, cr3, cr15, {1}
     4bc:	0b3b0b3a 	bleq	ec31ac <_back_addr-0x63ce54>
     4c0:	193c1349 	ldmdbne	ip!, {r0, r3, r6, r8, r9, ip}
     4c4:	2e120000 	cdpcs	0, 1, cr0, cr2, cr0, {0}
     4c8:	03193f01 	tsteq	r9, #1, 30
     4cc:	3b0b3a0e 	blcc	2ced0c <_back_addr-0x12312f4>
     4d0:	2013490b 	andscs	r4, r3, fp, lsl #18
     4d4:	1300000b 	movwne	r0, #11
     4d8:	0000010b 	andeq	r0, r0, fp, lsl #2
     4dc:	3f012e14 	svccc	0x00012e14
     4e0:	3a0e0319 	bcc	38114c <_back_addr-0x117eeb4>
     4e4:	270b3b0b 	strcs	r3, [fp, -fp, lsl #22]
     4e8:	11134919 	tstne	r3, r9, lsl r9
     4ec:	40061201 	andmi	r1, r6, r1, lsl #4
     4f0:	19429718 	stmdbne	r2, {r3, r4, r8, r9, sl, ip, pc}^
     4f4:	00001301 	andeq	r1, r0, r1, lsl #6
     4f8:	03000515 	movweq	r0, #1301	; 0x515
     4fc:	3b0b3a0e 	blcc	2ced3c <_back_addr-0x12312c4>
     500:	0213490b 	andseq	r4, r3, #180224	; 0x2c000
     504:	16000017 			; <UNDEFINED> instruction: 0x16000017
     508:	0e030005 	cdpeq	0, 0, cr0, cr3, cr5, {0}
     50c:	0b3b0b3a 	bleq	ec31fc <_back_addr-0x63ce04>
     510:	18021349 	stmdane	r2, {r0, r3, r6, r8, r9, ip}
     514:	17170000 	ldrne	r0, [r7, -r0]
     518:	0b0e0301 	bleq	381124 <_back_addr-0x117eedc>
     51c:	3b0b3a0b 	blcc	2ced50 <_back_addr-0x12312b0>
     520:	0013010b 	andseq	r0, r3, fp, lsl #2
     524:	000d1800 	andeq	r1, sp, r0, lsl #16
     528:	0b3a0803 	bleq	e8253c <_back_addr-0x67dac4>
     52c:	13490b3b 	movtne	r0, #39739	; 0x9b3b
     530:	34190000 	ldrcc	r0, [r9], #-0
     534:	3a080300 	bcc	20113c <_back_addr-0x12feec4>
     538:	490b3b0b 	stmdbmi	fp, {r0, r1, r3, r8, r9, fp, ip, sp}
     53c:	00180213 	andseq	r0, r8, r3, lsl r2
     540:	00341a00 	eorseq	r1, r4, r0, lsl #20
     544:	0b3a0803 	bleq	e82558 <_back_addr-0x67daa8>
     548:	13490b3b 	movtne	r0, #39739	; 0x9b3b
     54c:	00001702 	andeq	r1, r0, r2, lsl #14
     550:	55010b1b 	strpl	r0, [r1, #-2843]	; 0xb1b
     554:	1c000017 	stcne	0, cr0, [r0], {23}
     558:	1755010b 	ldrbne	r0, [r5, -fp, lsl #2]
     55c:	00001301 	andeq	r1, r0, r1, lsl #6
     560:	0182891d 	orreq	r8, r2, sp, lsl r9
     564:	31011100 	mrscc	r1, (UNDEF: 17)
     568:	1e000013 	mcrne	0, 0, r0, cr0, cr3, {0}
     56c:	01018289 	smlabbeq	r1, r9, r2, r8
     570:	13310111 	teqne	r1, #1073741828	; 0x40000004
     574:	8a1f0000 	bhi	7c057c <_back_addr-0xd3fa84>
     578:	02000182 	andeq	r0, r0, #-2147483616	; 0x80000020
     57c:	18429118 	stmdane	r2, {r3, r4, r8, ip, pc}^
     580:	89200000 	stmdbhi	r0!, {}	; <UNPREDICTABLE>
     584:	11010182 	smlabbne	r1, r2, r1, r0
     588:	01133101 	tsteq	r3, r1, lsl #2
     58c:	21000013 	tstcs	r0, r3, lsl r0
     590:	0b0b000f 	bleq	2c05d4 <_back_addr-0x123fa2c>
     594:	01220000 	teqeq	r2, r0
     598:	01134901 	tsteq	r3, r1, lsl #18
     59c:	23000013 	movwcs	r0, #19
     5a0:	13490021 	movtne	r0, #36897	; 0x9021
     5a4:	00000b2f 	andeq	r0, r0, pc, lsr #22
     5a8:	3f012e24 	svccc	0x00012e24
     5ac:	3a0e0319 	bcc	381218 <_back_addr-0x117ede8>
     5b0:	27053b0b 	strcs	r3, [r5, -fp, lsl #22]
     5b4:	11134919 	tstne	r3, r9, lsl r9
     5b8:	40061201 	andmi	r1, r6, r1, lsl #4
     5bc:	19429718 	stmdbne	r2, {r3, r4, r8, r9, sl, ip, pc}^
     5c0:	00001301 	andeq	r1, r0, r1, lsl #6
     5c4:	03003425 	movweq	r3, #1061	; 0x425
     5c8:	3b0b3a08 	blcc	2cedf0 <_back_addr-0x1231210>
     5cc:	00134905 	andseq	r4, r3, r5, lsl #18
     5d0:	00342600 	eorseq	r2, r4, r0, lsl #12
     5d4:	0b3a0803 	bleq	e825e8 <_back_addr-0x67da18>
     5d8:	1349053b 	movtne	r0, #38203	; 0x953b
     5dc:	00001702 	andeq	r1, r0, r2, lsl #14
     5e0:	3f012e27 	svccc	0x00012e27
     5e4:	3a0e0319 	bcc	381250 <_back_addr-0x117edb0>
     5e8:	49053b0b 	stmdbmi	r5, {r0, r1, r3, r8, r9, fp, ip, sp}
     5ec:	01193c13 	tsteq	r9, r3, lsl ip
     5f0:	28000013 	stmdacs	r0, {r0, r1, r4}
     5f4:	0e030005 	cdpeq	0, 0, cr0, cr3, cr5, {0}
     5f8:	053b0b3a 	ldreq	r0, [fp, #-2874]!	; 0xb3a
     5fc:	17021349 	strne	r1, [r2, -r9, asr #6]
     600:	34290000 	strtcc	r0, [r9], #-0
     604:	3a0e0300 	bcc	38120c <_back_addr-0x117edf4>
     608:	49053b0b 	stmdbmi	r5, {r0, r1, r3, r8, r9, fp, ip, sp}
     60c:	00170213 	andseq	r0, r7, r3, lsl r2
     610:	011d2a00 	tsteq	sp, r0, lsl #20
     614:	01111331 	tsteq	r1, r1, lsr r3
     618:	0b580612 	bleq	1601e68 <__bss_end__+0xee328>
     61c:	00000559 	andeq	r0, r0, r9, asr r5
     620:	3100052b 	tstcc	r0, fp, lsr #10
     624:	00170213 	andseq	r0, r7, r3, lsl r2
     628:	010b2c00 	tsteq	fp, r0, lsl #24
     62c:	06120111 			; <UNDEFINED> instruction: 0x06120111
     630:	1d2d0000 	stcne	0, cr0, [sp, #-0]
     634:	52133101 	andspl	r3, r3, #1073741824	; 0x40000000
     638:	58175501 	ldmdapl	r7, {r0, r8, sl, ip, lr}
     63c:	0105590b 	tsteq	r5, fp, lsl #18
     640:	2e000013 	mcrcs	0, 0, r0, cr0, cr3, {0}
     644:	13310005 	teqne	r1, #5
     648:	00000d1c 	andeq	r0, r0, ip, lsl sp
     64c:	31011d2f 	tstcc	r1, pc, lsr #26
     650:	12011113 	andne	r1, r1, #-1073741820	; 0xc0000004
     654:	590b5806 	stmdbpl	fp, {r1, r2, fp, ip, lr}
     658:	00130105 	andseq	r0, r3, r5, lsl #2
     65c:	012e3000 	teqeq	lr, r0
     660:	0e03193f 	mcreq	9, 0, r1, cr3, cr15, {1}
     664:	053b0b3a 	ldreq	r0, [fp, #-2874]!	; 0xb3a
     668:	01111349 	tsteq	r1, r9, asr #6
     66c:	18400612 	stmdane	r0, {r1, r4, r9, sl}^
     670:	01194297 			; <UNDEFINED> instruction: 0x01194297
     674:	31000013 	tstcc	r0, r3, lsl r0
     678:	0e030034 	mcreq	0, 0, r0, cr3, cr4, {1}
     67c:	053b0b3a 	ldreq	r0, [fp, #-2874]!	; 0xb3a
     680:	061c1349 	ldreq	r1, [ip], -r9, asr #6
     684:	05320000 	ldreq	r0, [r2, #-0]!
     688:	1c133100 	ldfnes	f3, [r3], {-0}
     68c:	33000006 	movwcc	r0, #6
     690:	0e030034 	mcreq	0, 0, r0, cr3, cr4, {1}
     694:	0b3b0b3a 	bleq	ec3384 <_back_addr-0x63cc7c>
     698:	17021349 	strne	r1, [r2, -r9, asr #6]
     69c:	89340000 	ldmdbhi	r4!, {}	; <UNPREDICTABLE>
     6a0:	11000182 	smlabbne	r0, r2, r1, r0
     6a4:	19429501 	stmdbne	r2, {r0, r8, sl, ip, pc}^
     6a8:	00001331 	andeq	r1, r0, r1, lsr r3
     6ac:	0b000f35 	bleq	4388 <_back_addr-0x14fbc78>
     6b0:	0013490b 	andseq	r4, r3, fp, lsl #18
     6b4:	012e3600 	teqeq	lr, r0, lsl #12
     6b8:	0803193f 	stmdaeq	r3, {r0, r1, r2, r3, r4, r5, r8, fp, ip}
     6bc:	053b0b3a 	ldreq	r0, [fp, #-2874]!	; 0xb3a
     6c0:	193c1349 	ldmdbne	ip!, {r0, r3, r6, r8, r9, ip}
     6c4:	00001301 	andeq	r1, r0, r1, lsl #6
     6c8:	31012e37 	tstcc	r1, r7, lsr lr
     6cc:	12011113 	andne	r1, r1, #-1073741820	; 0xc0000004
     6d0:	97184006 	ldrls	r4, [r8, -r6]
     6d4:	13011942 	movwne	r1, #6466	; 0x1942
     6d8:	2e380000 	cdpcs	0, 3, cr0, cr8, cr0, {0}
     6dc:	20134701 	andscs	r4, r3, r1, lsl #14
     6e0:	0013010b 	andseq	r0, r3, fp, lsl #2
     6e4:	010b3900 	tsteq	fp, r0, lsl #18
     6e8:	06120111 			; <UNDEFINED> instruction: 0x06120111
     6ec:	00001301 	andeq	r1, r0, r1, lsl #6
     6f0:	47012e3a 	smladxmi	r1, sl, lr, r2
     6f4:	01193c13 	tsteq	r9, r3, lsl ip
     6f8:	3b000013 	blcc	74c <_back_addr-0x14ff8b4>
     6fc:	08030005 	stmdaeq	r3, {r0, r2}
     700:	053b0b3a 	ldreq	r0, [fp, #-2874]!	; 0xb3a
     704:	17021349 	strne	r1, [r2, -r9, asr #6]
     708:	343c0000 	ldrtcc	r0, [ip], #-0
     70c:	3a080300 	bcc	201314 <_back_addr-0x12fecec>
     710:	49053b0b 	stmdbmi	r5, {r0, r1, r3, r8, r9, fp, ip, sp}
     714:	000b1c13 	andeq	r1, fp, r3, lsl ip
     718:	011d3d00 	tsteq	sp, r0, lsl #26
     71c:	01521331 	cmpeq	r2, r1, lsr r3
     720:	0b581755 	bleq	160647c <__bss_end__+0xf293c>
     724:	00000559 	andeq	r0, r0, r9, asr r5
     728:	0300053e 	movweq	r0, #1342	; 0x53e
     72c:	3b0b3a08 	blcc	2cef54 <_back_addr-0x12310ac>
     730:	02134905 	andseq	r4, r3, #81920	; 0x14000
     734:	3f000018 	svccc	0x00000018
     738:	08030034 	stmdaeq	r3, {r2, r4, r5}
     73c:	053b0b3a 	ldreq	r0, [fp, #-2874]!	; 0xb3a
     740:	0d1c1349 	ldceq	3, cr1, [ip, #-292]	; 0xfffffedc
     744:	34400000 	strbcc	r0, [r0], #-0
     748:	3a0e0300 	bcc	381350 <_back_addr-0x117ecb0>
     74c:	49053b0b 	stmdbmi	r5, {r0, r1, r3, r8, r9, fp, ip, sp}
     750:	000b1c13 	andeq	r1, fp, r3, lsl ip
     754:	00054100 	andeq	r4, r5, r0, lsl #2
     758:	00001331 	andeq	r1, r0, r1, lsr r3
     75c:	03003442 	movweq	r3, #1090	; 0x442
     760:	3b0b3a0e 	blcc	2cefa0 <_back_addr-0x1231060>
     764:	0213490b 	andseq	r4, r3, #180224	; 0x2c000
     768:	43000018 	movwmi	r0, #24
     76c:	00000021 	andeq	r0, r0, r1, lsr #32
     770:	03003444 	movweq	r3, #1092	; 0x444
     774:	3b0b3a0e 	blcc	2cefb4 <_back_addr-0x123104c>
     778:	3f13490b 	svccc	0x0013490b
     77c:	00193c19 	andseq	r3, r9, r9, lsl ip
     780:	00264500 	eoreq	r4, r6, r0, lsl #10
     784:	00001349 	andeq	r1, r0, r9, asr #6
     788:	03003446 	movweq	r3, #1094	; 0x446
     78c:	3b0b3a0e 	blcc	2cefcc <_back_addr-0x1231034>
     790:	3f134905 	svccc	0x00134905
     794:	00180219 	andseq	r0, r8, r9, lsl r2
     798:	012e4700 	teqeq	lr, r0, lsl #14
     79c:	0e03193f 	mcreq	9, 0, r1, cr3, cr15, {1}
     7a0:	0b3b0b3a 	bleq	ec3490 <_back_addr-0x63cb70>
     7a4:	193c1927 	ldmdbne	ip!, {r0, r1, r2, r5, r8, fp, ip}
     7a8:	00001301 	andeq	r1, r0, r1, lsl #6
     7ac:	49000548 	stmdbmi	r0, {r3, r6, r8, sl}
     7b0:	49000013 	stmdbmi	r0, {r0, r1, r4}
     7b4:	193f012e 	ldmdbne	pc!, {r1, r2, r3, r5, r8}	; <UNPREDICTABLE>
     7b8:	0b3a0803 	bleq	e827cc <_back_addr-0x67d834>
     7bc:	1349053b 	movtne	r0, #38203	; 0x953b
     7c0:	0000193c 	andeq	r1, r0, ip, lsr r9
     7c4:	01110100 	tsteq	r1, r0, lsl #2
     7c8:	0b130e25 	bleq	4c4064 <_back_addr-0x103bf9c>
     7cc:	0e1b0e03 	cdpeq	14, 1, cr0, cr11, cr3, {0}
     7d0:	06120111 			; <UNDEFINED> instruction: 0x06120111
     7d4:	00001710 	andeq	r1, r0, r0, lsl r7
     7d8:	0b002402 	bleq	97e8 <_back_addr-0x14f6818>
     7dc:	030b3e0b 	movweq	r3, #48651	; 0xbe0b
     7e0:	0300000e 	movweq	r0, #14
     7e4:	0b0b0024 	bleq	2c087c <_back_addr-0x123f784>
     7e8:	08030b3e 	stmdaeq	r3, {r1, r2, r3, r4, r5, r8, r9, fp}
     7ec:	16040000 	strne	r0, [r4], -r0
     7f0:	3a0e0300 	bcc	3813f8 <_back_addr-0x117ec08>
     7f4:	490b3b0b 	stmdbmi	fp, {r0, r1, r3, r8, r9, fp, ip, sp}
     7f8:	05000013 	streq	r0, [r0, #-19]
     7fc:	0b0b000f 	bleq	2c0840 <_back_addr-0x123f7c0>
     800:	0f060000 	svceq	0x00060000
     804:	490b0b00 	stmdbmi	fp, {r8, r9, fp}
     808:	07000013 	smladeq	r0, r3, r0, r0
     80c:	13490026 	movtne	r0, #36902	; 0x9026
     810:	01080000 	mrseq	r0, (UNDEF: 8)
     814:	01134901 	tsteq	r3, r1, lsl #18
     818:	09000013 	stmdbeq	r0, {r0, r1, r4}
     81c:	13490021 	movtne	r0, #36897	; 0x9021
     820:	00000b2f 	andeq	r0, r0, pc, lsr #22
     824:	0301040a 	movweq	r0, #5130	; 0x140a
     828:	3a0b0b0e 	bcc	2c3468 <_back_addr-0x123cb98>
     82c:	01053b0b 	tsteq	r5, fp, lsl #22
     830:	0b000013 	bleq	884 <_back_addr-0x14ff77c>
     834:	0e030028 	cdpeq	0, 0, cr0, cr3, cr8, {1}
     838:	00000d1c 	andeq	r0, r0, ip, lsl sp
     83c:	0301130c 	movweq	r1, #4876	; 0x130c
     840:	3a0b0b0e 	bcc	2c3480 <_back_addr-0x123cb80>
     844:	010b3b0b 	tsteq	fp, fp, lsl #22
     848:	0d000013 	stceq	0, cr0, [r0, #-76]	; 0xffffffb4
     84c:	0e03000d 	cdpeq	0, 0, cr0, cr3, cr13, {0}
     850:	0b3b0b3a 	bleq	ec3540 <_back_addr-0x63cac0>
     854:	0b381349 	bleq	e05580 <_back_addr-0x6faa80>
     858:	0d0e0000 	stceq	0, cr0, [lr, #-0]
     85c:	3a080300 	bcc	201464 <_back_addr-0x12feb9c>
     860:	490b3b0b 	stmdbmi	fp, {r0, r1, r3, r8, r9, fp, ip, sp}
     864:	000b3813 	andeq	r3, fp, r3, lsl r8
     868:	012e0f00 	teqeq	lr, r0, lsl #30
     86c:	0b3a0e03 	bleq	e84080 <_back_addr-0x67bf80>
     870:	19270b3b 	stmdbne	r7!, {r0, r1, r3, r4, r5, r8, r9, fp}
     874:	0b201349 	bleq	8055a0 <_back_addr-0xcfaa60>
     878:	00001301 	andeq	r1, r0, r1, lsl #6
     87c:	03000510 	movweq	r0, #1296	; 0x510
     880:	3b0b3a0e 	blcc	2cf0c0 <_back_addr-0x1230f40>
     884:	0013490b 	andseq	r4, r3, fp, lsl #18
     888:	012e1100 	teqeq	lr, r0, lsl #2
     88c:	0b3a0e03 	bleq	e840a0 <_back_addr-0x67bf60>
     890:	19270b3b 	stmdbne	r7!, {r0, r1, r3, r4, r5, r8, r9, fp}
     894:	13010b20 	movwne	r0, #6944	; 0x1b20
     898:	05120000 	ldreq	r0, [r2, #-0]
     89c:	3a080300 	bcc	2014a4 <_back_addr-0x12feb5c>
     8a0:	490b3b0b 	stmdbmi	fp, {r0, r1, r3, r8, r9, fp, ip, sp}
     8a4:	13000013 	movwne	r0, #19
     8a8:	0e03012e 	adfeqsp	f0, f3, #0.5
     8ac:	053b0b3a 	ldreq	r0, [fp, #-2874]!	; 0xb3a
     8b0:	13491927 	movtne	r1, #39207	; 0x9927
     8b4:	13010b20 	movwne	r0, #6944	; 0x1b20
     8b8:	05140000 	ldreq	r0, [r4, #-0]
     8bc:	3a0e0300 	bcc	3814c4 <_back_addr-0x117eb3c>
     8c0:	49053b0b 	stmdbmi	r5, {r0, r1, r3, r8, r9, fp, ip, sp}
     8c4:	15000013 	strne	r0, [r0, #-19]
     8c8:	08030034 	stmdaeq	r3, {r2, r4, r5}
     8cc:	053b0b3a 	ldreq	r0, [fp, #-2874]!	; 0xb3a
     8d0:	00001349 	andeq	r1, r0, r9, asr #6
     8d4:	03003416 	movweq	r3, #1046	; 0x416
     8d8:	3b0b3a0e 	blcc	2cf118 <_back_addr-0x1230ee8>
     8dc:	00134905 	andseq	r4, r3, r5, lsl #18
     8e0:	012e1700 	teqeq	lr, r0, lsl #14
     8e4:	0e03193f 	mcreq	9, 0, r1, cr3, cr15, {1}
     8e8:	053b0b3a 	ldreq	r0, [fp, #-2874]!	; 0xb3a
     8ec:	193c1349 	ldmdbne	ip!, {r0, r3, r6, r8, r9, ip}
     8f0:	18180000 	ldmdane	r8, {}	; <UNPREDICTABLE>
     8f4:	19000000 	stmdbne	r0, {}	; <UNPREDICTABLE>
     8f8:	193f012e 	ldmdbne	pc!, {r1, r2, r3, r5, r8}	; <UNPREDICTABLE>
     8fc:	0b3a0e03 	bleq	e84110 <_back_addr-0x67bef0>
     900:	19270b3b 	stmdbne	r7!, {r0, r1, r3, r4, r5, r8, r9, fp}
     904:	0b201349 	bleq	805630 <_back_addr-0xcfa9d0>
     908:	00001301 	andeq	r1, r0, r1, lsl #6
     90c:	0300341a 	movweq	r3, #1050	; 0x41a
     910:	3b0b3a0e 	blcc	2cf150 <_back_addr-0x1230eb0>
     914:	0013490b 	andseq	r4, r3, fp, lsl #18
     918:	012e1b00 	teqeq	lr, r0, lsl #22
     91c:	0b3a0e03 	bleq	e84130 <_back_addr-0x67bed0>
     920:	1927053b 	stmdbne	r7!, {r0, r1, r3, r4, r5, r8, sl}
     924:	01111349 	tsteq	r1, r9, asr #6
     928:	18400612 	stmdane	r0, {r1, r4, r9, sl}^
     92c:	01194297 			; <UNDEFINED> instruction: 0x01194297
     930:	1c000013 	stcne	0, cr0, [r0], {19}
     934:	0e030034 	mcreq	0, 0, r0, cr3, cr4, {1}
     938:	053b0b3a 	ldreq	r0, [fp, #-2874]!	; 0xb3a
     93c:	18021349 	stmdane	r2, {r0, r3, r6, r8, r9, ip}
     940:	891d0000 	ldmdbhi	sp, {}	; <UNPREDICTABLE>
     944:	11010182 	smlabbne	r1, r2, r1, r0
     948:	01133101 	tsteq	r3, r1, lsl #2
     94c:	1e000013 	mcrne	0, 0, r0, cr0, cr3, {0}
     950:	0001828a 	andeq	r8, r1, sl, lsl #5
     954:	42911802 	addsmi	r1, r1, #131072	; 0x20000
     958:	1f000018 	svcne	0x00000018
     95c:	01018289 	smlabbeq	r1, r9, r2, r8
     960:	13310111 	teqne	r1, #1073741828	; 0x40000004
     964:	34200000 	strtcc	r0, [r0], #-0
     968:	3a080300 	bcc	201570 <_back_addr-0x12fea90>
     96c:	49053b0b 	stmdbmi	r5, {r0, r1, r3, r8, r9, fp, ip, sp}
     970:	00170213 	andseq	r0, r7, r3, lsl r2
     974:	011d2100 	tsteq	sp, r0, lsl #2
     978:	01521331 	cmpeq	r2, r1, lsr r3
     97c:	0b581755 	bleq	16066d8 <__bss_end__+0xf2b98>
     980:	13010559 	movwne	r0, #5465	; 0x1559
     984:	05220000 	streq	r0, [r2, #-0]!
     988:	1c133100 	ldfnes	f3, [r3], {-0}
     98c:	2300000b 	movwcs	r0, #11
     990:	13310005 	teqne	r1, #5
     994:	00000d1c 	andeq	r0, r0, ip, lsl sp
     998:	55010b24 	strpl	r0, [r1, #-2852]	; 0xb24
     99c:	25000017 	strcs	r0, [r0, #-23]
     9a0:	1331011d 	teqne	r1, #1073741831	; 0x40000007
     9a4:	17550152 			; <UNDEFINED> instruction: 0x17550152
     9a8:	05590b58 	ldrbeq	r0, [r9, #-2904]	; 0xb58
     9ac:	2e260000 	cdpcs	0, 2, cr0, cr6, cr0, {0}
     9b0:	11133101 	tstne	r3, r1, lsl #2
     9b4:	40061201 	andmi	r1, r6, r1, lsl #4
     9b8:	19429718 	stmdbne	r2, {r3, r4, r8, r9, sl, ip, pc}^
     9bc:	00001301 	andeq	r1, r0, r1, lsl #6
     9c0:	31000527 	tstcc	r0, r7, lsr #10
     9c4:	00170213 	andseq	r0, r7, r3, lsl r2
     9c8:	00342800 	eorseq	r2, r4, r0, lsl #16
     9cc:	00001331 	andeq	r1, r0, r1, lsr r3
     9d0:	31003429 	tstcc	r0, r9, lsr #8
     9d4:	00170213 	andseq	r0, r7, r3, lsl r2
     9d8:	012e2a00 	teqeq	lr, r0, lsl #20
     9dc:	0b201347 	bleq	805700 <_back_addr-0xcfa900>
     9e0:	00001301 	andeq	r1, r0, r1, lsl #6
     9e4:	31011d2b 	tstcc	r1, fp, lsr #26
     9e8:	12011113 	andne	r1, r1, #-1073741820	; 0xc0000004
     9ec:	590b5806 	stmdbpl	fp, {r1, r2, fp, ip, lr}
     9f0:	00130105 	andseq	r0, r3, r5, lsl #2
     9f4:	010b2c00 	tsteq	fp, r0, lsl #24
     9f8:	06120111 			; <UNDEFINED> instruction: 0x06120111
     9fc:	0b2d0000 	bleq	b40a04 <_back_addr-0x9bf5fc>
     a00:	12011101 	andne	r1, r1, #1073741824	; 0x40000000
     a04:	00130106 	andseq	r0, r3, r6, lsl #2
     a08:	82892e00 	addhi	r2, r9, #0, 28
     a0c:	01110001 	tsteq	r1, r1
     a10:	00001331 	andeq	r1, r0, r1, lsr r3
     a14:	3f012e2f 	svccc	0x00012e2f
     a18:	3a0e0319 	bcc	381684 <_back_addr-0x117e97c>
     a1c:	270b3b0b 	strcs	r3, [fp, -fp, lsl #22]
     a20:	11134919 	tstne	r3, r9, lsl r9
     a24:	40061201 	andmi	r1, r6, r1, lsl #4
     a28:	19429718 	stmdbne	r2, {r3, r4, r8, r9, sl, ip, pc}^
     a2c:	00001301 	andeq	r1, r0, r1, lsl #6
     a30:	03000530 	movweq	r0, #1328	; 0x530
     a34:	3b0b3a0e 	blcc	2cf274 <_back_addr-0x1230d8c>
     a38:	0213490b 	andseq	r4, r3, #180224	; 0x2c000
     a3c:	31000017 	tstcc	r0, r7, lsl r0
     a40:	0e030034 	mcreq	0, 0, r0, cr3, cr4, {1}
     a44:	0b3b0b3a 	bleq	ec3734 <_back_addr-0x63c8cc>
     a48:	18021349 	stmdane	r2, {r0, r3, r6, r8, r9, ip}
     a4c:	34320000 	ldrtcc	r0, [r2], #-0
     a50:	3a080300 	bcc	201658 <_back_addr-0x12fe9a8>
     a54:	490b3b0b 	stmdbmi	fp, {r0, r1, r3, r8, r9, fp, ip, sp}
     a58:	00170213 	andseq	r0, r7, r3, lsl r2
     a5c:	011d3300 	tsteq	sp, r0, lsl #6
     a60:	01521331 	cmpeq	r2, r1, lsr r3
     a64:	0b581755 	bleq	16067c0 <__bss_end__+0xf2c80>
     a68:	13010b59 	movwne	r0, #7001	; 0x1b59
     a6c:	05340000 	ldreq	r0, [r4, #-0]!
     a70:	02133100 	andseq	r3, r3, #0, 2
     a74:	35000018 	strcc	r0, [r0, #-24]
     a78:	13310005 	teqne	r1, #5
     a7c:	1d360000 	ldcne	0, cr0, [r6, #-0]
     a80:	52133101 	andspl	r3, r3, #1073741824	; 0x40000000
     a84:	58175501 	ldmdapl	r7, {r0, r8, sl, ip, lr}
     a88:	000b590b 	andeq	r5, fp, fp, lsl #18
     a8c:	00053700 	andeq	r3, r5, r0, lsl #14
     a90:	0b3a0803 	bleq	e82aa4 <_back_addr-0x67d55c>
     a94:	13490b3b 	movtne	r0, #39739	; 0x9b3b
     a98:	00001702 	andeq	r1, r0, r2, lsl #14
     a9c:	03003438 	movweq	r3, #1080	; 0x438
     aa0:	3b0b3a0e 	blcc	2cf2e0 <_back_addr-0x1230d20>
     aa4:	0213490b 	andseq	r4, r3, #180224	; 0x2c000
     aa8:	39000017 	stmdbcc	r0, {r0, r1, r2, r4}
     aac:	00018289 	andeq	r8, r1, r9, lsl #5
     ab0:	42950111 	addsmi	r0, r5, #1073741828	; 0x40000004
     ab4:	00133119 	andseq	r3, r3, r9, lsl r1
     ab8:	00343a00 	eorseq	r3, r4, r0, lsl #20
     abc:	13490e03 	movtne	r0, #40451	; 0x9e03
     ac0:	18021934 	stmdane	r2, {r2, r4, r5, r8, fp, ip}
     ac4:	2e3b0000 	cdpcs	0, 3, cr0, cr11, cr0, {0}
     ac8:	3a0e0301 	bcc	3816d4 <_back_addr-0x117e92c>
     acc:	27053b0b 	strcs	r3, [r5, -fp, lsl #22]
     ad0:	010b2019 	tsteq	fp, r9, lsl r0
     ad4:	3c000013 	stccc	0, cr0, [r0], {19}
     ad8:	193f012e 	ldmdbne	pc!, {r1, r2, r3, r5, r8}	; <UNPREDICTABLE>
     adc:	0b3a0e03 	bleq	e842f0 <_back_addr-0x67bd10>
     ae0:	1927053b 	stmdbne	r7!, {r0, r1, r3, r4, r5, r8, sl}
     ae4:	01111349 	tsteq	r1, r9, asr #6
     ae8:	18400612 	stmdane	r0, {r1, r4, r9, sl}^
     aec:	01194297 			; <UNDEFINED> instruction: 0x01194297
     af0:	3d000013 	stccc	0, cr0, [r0, #-76]	; 0xffffffb4
     af4:	0e030005 	cdpeq	0, 0, cr0, cr3, cr5, {0}
     af8:	053b0b3a 	ldreq	r0, [fp, #-2874]!	; 0xb3a
     afc:	17021349 	strne	r1, [r2, -r9, asr #6]
     b00:	053e0000 	ldreq	r0, [lr, #-0]!
     b04:	3a080300 	bcc	20170c <_back_addr-0x12fe8f4>
     b08:	49053b0b 	stmdbmi	r5, {r0, r1, r3, r8, r9, fp, ip, sp}
     b0c:	00170213 	andseq	r0, r7, r3, lsl r2
     b10:	00343f00 	eorseq	r3, r4, r0, lsl #30
     b14:	0b3a0e03 	bleq	e84328 <_back_addr-0x67bcd8>
     b18:	1349053b 	movtne	r0, #38203	; 0x953b
     b1c:	00001702 	andeq	r1, r0, r2, lsl #14
     b20:	03003440 	movweq	r3, #1088	; 0x440
     b24:	3b0b3a0e 	blcc	2cf364 <_back_addr-0x1230c9c>
     b28:	1c134905 	ldcne	9, cr4, [r3], {5}
     b2c:	4100000a 	tstmi	r0, sl
     b30:	193f012e 	ldmdbne	pc!, {r1, r2, r3, r5, r8}	; <UNPREDICTABLE>
     b34:	0b3a0e03 	bleq	e84348 <_back_addr-0x67bcb8>
     b38:	1349053b 	movtne	r0, #38203	; 0x953b
     b3c:	1301193c 	movwne	r1, #6460	; 0x193c
     b40:	2e420000 	cdpcs	0, 4, cr0, cr2, cr0, {0}
     b44:	03193f01 	tsteq	r9, #1, 30
     b48:	3b0b3a0e 	blcc	2cf388 <_back_addr-0x1230c78>
     b4c:	11192705 	tstne	r9, r5, lsl #14
     b50:	40061201 	andmi	r1, r6, r1, lsl #4
     b54:	19429718 	stmdbne	r2, {r3, r4, r8, r9, sl, ip, pc}^
     b58:	00001301 	andeq	r1, r0, r1, lsl #6
     b5c:	03003443 	movweq	r3, #1091	; 0x443
     b60:	3b0b3a0e 	blcc	2cf3a0 <_back_addr-0x1230c60>
     b64:	1c134905 	ldcne	9, cr4, [r3], {5}
     b68:	44000006 	strmi	r0, [r0], #-6
     b6c:	0e030034 	mcreq	0, 0, r0, cr3, cr4, {1}
     b70:	053b0b3a 	ldreq	r0, [fp, #-2874]!	; 0xb3a
     b74:	193f1349 	ldmdbne	pc!, {r0, r3, r6, r8, r9, ip}	; <UNPREDICTABLE>
     b78:	0000193c 	andeq	r1, r0, ip, lsr r9
     b7c:	03003445 	movweq	r3, #1093	; 0x445
     b80:	3b0b3a0e 	blcc	2cf3c0 <_back_addr-0x1230c40>
     b84:	3f13490b 	svccc	0x0013490b
     b88:	00180219 	andseq	r0, r8, r9, lsl r2
     b8c:	012e4600 	teqeq	lr, r0, lsl #12
     b90:	0e03193f 	mcreq	9, 0, r1, cr3, cr15, {1}
     b94:	0b3b0b3a 	bleq	ec3884 <_back_addr-0x63c77c>
     b98:	13491927 	movtne	r1, #39207	; 0x9927
     b9c:	1301193c 	movwne	r1, #6460	; 0x193c
     ba0:	05470000 	strbeq	r0, [r7, #-0]
     ba4:	00134900 	andseq	r4, r3, r0, lsl #18
     ba8:	012e4800 	teqeq	lr, r0, lsl #16
     bac:	0e03193f 	mcreq	9, 0, r1, cr3, cr15, {1}
     bb0:	053b0b3a 	ldreq	r0, [fp, #-2874]!	; 0xb3a
     bb4:	193c1927 	ldmdbne	ip!, {r0, r1, r2, r5, r8, fp, ip}
     bb8:	00001301 	andeq	r1, r0, r1, lsl #6
     bbc:	3f012e49 	svccc	0x00012e49
     bc0:	3a0e0319 	bcc	38182c <_back_addr-0x117e7d4>
     bc4:	27053b0b 	strcs	r3, [r5, -fp, lsl #22]
     bc8:	3c134919 	ldccc	9, cr4, [r3], {25}
     bcc:	00130119 	andseq	r0, r3, r9, lsl r1
     bd0:	11010000 	mrsne	r0, (UNDEF: 1)
     bd4:	130e2501 	movwne	r2, #58625	; 0xe501
     bd8:	1b0e030b 	blne	38180c <_back_addr-0x117e7f4>
     bdc:	1201110e 	andne	r1, r1, #-2147483645	; 0x80000003
     be0:	00171006 	andseq	r1, r7, r6
     be4:	00240200 	eoreq	r0, r4, r0, lsl #4
     be8:	0b3e0b0b 	bleq	f8381c <_back_addr-0x57c7e4>
     bec:	00000e03 	andeq	r0, r0, r3, lsl #28
     bf0:	0b002403 	bleq	9c04 <_back_addr-0x14f63fc>
     bf4:	030b3e0b 	movweq	r3, #48651	; 0xbe0b
     bf8:	04000008 	streq	r0, [r0], #-8
     bfc:	0e030016 	mcreq	0, 0, r0, cr3, cr6, {0}
     c00:	0b3b0b3a 	bleq	ec38f0 <_back_addr-0x63c710>
     c04:	00001349 	andeq	r1, r0, r9, asr #6
     c08:	0b000f05 	bleq	4824 <_back_addr-0x14fb7dc>
     c0c:	0013490b 	andseq	r4, r3, fp, lsl #18
     c10:	00260600 	eoreq	r0, r6, r0, lsl #12
     c14:	00001349 	andeq	r1, r0, r9, asr #6
     c18:	0b010407 	bleq	41c3c <_back_addr-0x14be3c4>
     c1c:	3b0b3a0b 	blcc	2cf450 <_back_addr-0x1230bb0>
     c20:	0013010b 	andseq	r0, r3, fp, lsl #2
     c24:	00280800 	eoreq	r0, r8, r0, lsl #16
     c28:	0d1c0e03 	ldceq	14, cr0, [ip, #-12]
     c2c:	2e090000 	cdpcs	0, 0, cr0, cr9, cr0, {0}
     c30:	03193f01 	tsteq	r9, #1, 30
     c34:	3b0b3a08 	blcc	2cf45c <_back_addr-0x1230ba4>
     c38:	49192705 	ldmdbmi	r9, {r0, r2, r8, r9, sl, sp}
     c3c:	12011113 	andne	r1, r1, #-1073741820	; 0xc0000004
     c40:	97184006 	ldrls	r4, [r8, -r6]
     c44:	13011942 	movwne	r1, #6466	; 0x1942
     c48:	050a0000 	streq	r0, [sl, #-0]
     c4c:	3a0e0300 	bcc	381854 <_back_addr-0x117e7ac>
     c50:	49053b0b 	stmdbmi	r5, {r0, r1, r3, r8, r9, fp, ip, sp}
     c54:	00170213 	andseq	r0, r7, r3, lsl r2
     c58:	00050b00 	andeq	r0, r5, r0, lsl #22
     c5c:	0b3a0803 	bleq	e82c70 <_back_addr-0x67d390>
     c60:	1349053b 	movtne	r0, #38203	; 0x953b
     c64:	00001702 	andeq	r1, r0, r2, lsl #14
     c68:	0300340c 	movweq	r3, #1036	; 0x40c
     c6c:	3b0b3a08 	blcc	2cf494 <_back_addr-0x1230b6c>
     c70:	02134905 	andseq	r4, r3, #81920	; 0x14000
     c74:	0d000017 	stceq	0, cr0, [r0, #-92]	; 0xffffffa4
     c78:	08030034 	stmdaeq	r3, {r2, r4, r5}
     c7c:	053b0b3a 	ldreq	r0, [fp, #-2874]!	; 0xb3a
     c80:	0b1c1349 	bleq	7059ac <_back_addr-0xdfa654>
     c84:	340e0000 	strcc	r0, [lr], #-0
     c88:	3a080300 	bcc	201890 <_back_addr-0x12fe770>
     c8c:	49053b0b 	stmdbmi	r5, {r0, r1, r3, r8, r9, fp, ip, sp}
     c90:	00180213 	andseq	r0, r8, r3, lsl r2
     c94:	012e0f00 	teqeq	lr, r0, lsl #30
     c98:	0e03193f 	mcreq	9, 0, r1, cr3, cr15, {1}
     c9c:	0b3b0b3a 	bleq	ec398c <_back_addr-0x63c674>
     ca0:	193c1349 	ldmdbne	ip!, {r0, r3, r6, r8, r9, ip}
     ca4:	00001301 	andeq	r1, r0, r1, lsl #6
     ca8:	00001810 	andeq	r1, r0, r0, lsl r8
     cac:	010b1100 	mrseq	r1, (UNDEF: 27)
     cb0:	06120111 			; <UNDEFINED> instruction: 0x06120111
     cb4:	00001301 	andeq	r1, r0, r1, lsl #6
     cb8:	01828912 	orreq	r8, r2, r2, lsl r9
     cbc:	31011101 	tstcc	r1, r1, lsl #2
     cc0:	00130113 	andseq	r0, r3, r3, lsl r1
     cc4:	828a1300 	addhi	r1, sl, #0, 6
     cc8:	18020001 	stmdane	r2, {r0}
     ccc:	00184291 	mulseq	r8, r1, r2
     cd0:	82891400 	addhi	r1, r9, #0, 8
     cd4:	01110101 	tsteq	r1, r1, lsl #2
     cd8:	00001331 	andeq	r1, r0, r1, lsr r3
     cdc:	49010115 	stmdbmi	r1, {r0, r2, r4, r8}
     ce0:	00130113 	andseq	r0, r3, r3, lsl r1
     ce4:	00211600 	eoreq	r1, r1, r0, lsl #12
     ce8:	052f1349 	streq	r1, [pc, #-841]!	; 9a7 <_back_addr-0x14ff659>
     cec:	21170000 	tstcs	r7, r0
     cf0:	2f134900 	svccs	0x00134900
     cf4:	1800000b 	stmdane	r0, {r0, r1, r3}
     cf8:	0e03000a 	cdpeq	0, 0, cr0, cr3, cr10, {0}
     cfc:	053b0b3a 	ldreq	r0, [fp, #-2874]!	; 0xb3a
     d00:	00000111 	andeq	r0, r0, r1, lsl r1
     d04:	3f012e19 	svccc	0x00012e19
     d08:	3a0e0319 	bcc	381974 <_back_addr-0x117e68c>
     d0c:	49053b0b 	stmdbmi	r5, {r0, r1, r3, r8, r9, fp, ip, sp}
     d10:	01193c13 	tsteq	r9, r3, lsl ip
     d14:	1a000013 	bne	d68 <_back_addr-0x14ff298>
     d18:	00018289 	andeq	r8, r1, r9, lsl #5
     d1c:	13310111 	teqne	r1, #1073741828	; 0x40000004
     d20:	2e1b0000 	cdpcs	0, 1, cr0, cr11, cr0, {0}
     d24:	03193f01 	tsteq	r9, #1, 30
     d28:	3b0b3a0e 	blcc	2cf568 <_back_addr-0x1230a98>
     d2c:	4919270b 	ldmdbmi	r9, {r0, r1, r3, r8, r9, sl, sp}
     d30:	12011113 	andne	r1, r1, #-1073741820	; 0xc0000004
     d34:	97184006 	ldrls	r4, [r8, -r6]
     d38:	13011942 	movwne	r1, #6466	; 0x1942
     d3c:	051c0000 	ldreq	r0, [ip, #-0]
     d40:	3a0e0300 	bcc	381948 <_back_addr-0x117e6b8>
     d44:	490b3b0b 	stmdbmi	fp, {r0, r1, r3, r8, r9, fp, ip, sp}
     d48:	00170213 	andseq	r0, r7, r3, lsl r2
     d4c:	00051d00 	andeq	r1, r5, r0, lsl #26
     d50:	0b3a0e03 	bleq	e84564 <_back_addr-0x67ba9c>
     d54:	13490b3b 	movtne	r0, #39739	; 0x9b3b
     d58:	00001802 	andeq	r1, r0, r2, lsl #16
     d5c:	0300051e 	movweq	r0, #1310	; 0x51e
     d60:	3b0b3a08 	blcc	2cf588 <_back_addr-0x1230a78>
     d64:	0213490b 	andseq	r4, r3, #180224	; 0x2c000
     d68:	1f000017 	svcne	0x00000017
     d6c:	08030034 	stmdaeq	r3, {r2, r4, r5}
     d70:	0b3b0b3a 	bleq	ec3a60 <_back_addr-0x63c5a0>
     d74:	17021349 	strne	r1, [r2, -r9, asr #6]
     d78:	34200000 	strtcc	r0, [r0], #-0
     d7c:	3a080300 	bcc	201984 <_back_addr-0x12fe67c>
     d80:	490b3b0b 	stmdbmi	fp, {r0, r1, r3, r8, r9, fp, ip, sp}
     d84:	00180213 	andseq	r0, r8, r3, lsl r2
     d88:	00342100 	eorseq	r2, r4, r0, lsl #2
     d8c:	0b3a0803 	bleq	e82da0 <_back_addr-0x67d260>
     d90:	13490b3b 	movtne	r0, #39739	; 0x9b3b
     d94:	00000b1c 	andeq	r0, r0, ip, lsl fp
     d98:	03003422 	movweq	r3, #1058	; 0x422
     d9c:	3b0b3a0e 	blcc	2cf5dc <_back_addr-0x1230a24>
     da0:	0213490b 	andseq	r4, r3, #180224	; 0x2c000
     da4:	23000018 	movwcs	r0, #24
     da8:	0e030034 	mcreq	0, 0, r0, cr3, cr4, {1}
     dac:	0b3b0b3a 	bleq	ec3a9c <_back_addr-0x63c564>
     db0:	17021349 	strne	r1, [r2, -r9, asr #6]
     db4:	34240000 	strtcc	r0, [r4], #-0
     db8:	3a0e0300 	bcc	3819c0 <_back_addr-0x117e640>
     dbc:	490b3b0b 	stmdbmi	fp, {r0, r1, r3, r8, r9, fp, ip, sp}
     dc0:	000b1c13 	andeq	r1, fp, r3, lsl ip
     dc4:	010b2500 	tsteq	fp, r0, lsl #10
     dc8:	13011755 	movwne	r1, #5973	; 0x1755
     dcc:	35260000 	strcc	r0, [r6, #-0]!
     dd0:	00134900 	andseq	r4, r3, r0, lsl #18
     dd4:	012e2700 	teqeq	lr, r0, lsl #14
     dd8:	0803193f 	stmdaeq	r3, {r0, r1, r2, r3, r4, r5, r8, fp, ip}
     ddc:	053b0b3a 	ldreq	r0, [fp, #-2874]!	; 0xb3a
     de0:	01111349 	tsteq	r1, r9, asr #6
     de4:	18400612 	stmdane	r0, {r1, r4, r9, sl}^
     de8:	01194297 			; <UNDEFINED> instruction: 0x01194297
     dec:	28000013 	stmdacs	r0, {r0, r1, r4}
     df0:	0e030034 	mcreq	0, 0, r0, cr3, cr4, {1}
     df4:	053b0b3a 	ldreq	r0, [fp, #-2874]!	; 0xb3a
     df8:	18021349 	stmdane	r2, {r0, r3, r6, r8, r9, ip}
     dfc:	34290000 	strtcc	r0, [r9], #-0
     e00:	3a0e0300 	bcc	381a08 <_back_addr-0x117e5f8>
     e04:	49053b0b 	stmdbmi	r5, {r0, r1, r3, r8, r9, fp, ip, sp}
     e08:	000b1c13 	andeq	r1, fp, r3, lsl ip
     e0c:	012e2a00 	teqeq	lr, r0, lsl #20
     e10:	0e03193f 	mcreq	9, 0, r1, cr3, cr15, {1}
     e14:	053b0b3a 	ldreq	r0, [fp, #-2874]!	; 0xb3a
     e18:	01111349 	tsteq	r1, r9, asr #6
     e1c:	18400612 	stmdane	r0, {r1, r4, r9, sl}^
     e20:	01194297 			; <UNDEFINED> instruction: 0x01194297
     e24:	2b000013 	blcs	e78 <_back_addr-0x14ff188>
     e28:	01018289 	smlabbeq	r1, r9, r2, r8
     e2c:	42950111 	addsmi	r0, r5, #1073741828	; 0x40000004
     e30:	00133119 	andseq	r3, r3, r9, lsl r1
     e34:	00342c00 	eorseq	r2, r4, r0, lsl #24
     e38:	0b3a0e03 	bleq	e8464c <_back_addr-0x67b9b4>
     e3c:	13490b3b 	movtne	r0, #39739	; 0x9b3b
     e40:	193c193f 	ldmdbne	ip!, {r0, r1, r2, r3, r4, r5, r8, fp, ip}
     e44:	2e2d0000 	cdpcs	0, 2, cr0, cr13, cr0, {0}
     e48:	03193f01 	tsteq	r9, #1, 30
     e4c:	3b0b3a0e 	blcc	2cf68c <_back_addr-0x1230974>
     e50:	4919270b 	ldmdbmi	r9, {r0, r1, r3, r8, r9, sl, sp}
     e54:	01193c13 	tsteq	r9, r3, lsl ip
     e58:	2e000013 	mcrcs	0, 0, r0, cr0, cr3, {0}
     e5c:	13490005 	movtne	r0, #36869	; 0x9005
     e60:	0f2f0000 	svceq	0x002f0000
     e64:	000b0b00 	andeq	r0, fp, r0, lsl #22
     e68:	002e3000 	eoreq	r3, lr, r0
     e6c:	0e03193f 	mcreq	9, 0, r1, cr3, cr15, {1}
     e70:	0b3b0b3a 	bleq	ec3b60 <_back_addr-0x63c4a0>
     e74:	193c1927 	ldmdbne	ip!, {r0, r1, r2, r5, r8, fp, ip}
     e78:	2e310000 	cdpcs	0, 3, cr0, cr1, cr0, {0}
     e7c:	03193f01 	tsteq	r9, #1, 30
     e80:	3b0b3a0e 	blcc	2cf6c0 <_back_addr-0x1230940>
     e84:	3c19270b 	ldccc	7, cr2, [r9], {11}
     e88:	00130119 	andseq	r0, r3, r9, lsl r1
     e8c:	00263200 	eoreq	r3, r6, r0, lsl #4
     e90:	2e330000 	cdpcs	0, 3, cr0, cr3, cr0, {0}
     e94:	03193f01 	tsteq	r9, #1, 30
     e98:	3b0b3a0e 	blcc	2cf6d8 <_back_addr-0x1230928>
     e9c:	4919270b 	ldmdbmi	r9, {r0, r1, r3, r8, r9, sl, sp}
     ea0:	00193c13 	andseq	r3, r9, r3, lsl ip
     ea4:	11010000 	mrsne	r0, (UNDEF: 1)
     ea8:	130e2501 	movwne	r2, #58625	; 0xe501
     eac:	1b0e030b 	blne	381ae0 <_back_addr-0x117e520>
     eb0:	1201110e 	andne	r1, r1, #-2147483645	; 0x80000003
     eb4:	00171006 	andseq	r1, r7, r6
     eb8:	00160200 	andseq	r0, r6, r0, lsl #4
     ebc:	0b3a0e03 	bleq	e846d0 <_back_addr-0x67b930>
     ec0:	13490b3b 	movtne	r0, #39739	; 0x9b3b
     ec4:	24030000 	strcs	r0, [r3], #-0
     ec8:	3e0b0b00 	vmlacc.f64	d0, d11, d0
     ecc:	000e030b 	andeq	r0, lr, fp, lsl #6
     ed0:	00240400 	eoreq	r0, r4, r0, lsl #8
     ed4:	0b3e0b0b 	bleq	f83b08 <_back_addr-0x57c4f8>
     ed8:	00000803 	andeq	r0, r0, r3, lsl #16
     edc:	3f012e05 	svccc	0x00012e05
     ee0:	3a0e0319 	bcc	381b4c <_back_addr-0x117e4b4>
     ee4:	270b3b0b 	strcs	r3, [fp, -fp, lsl #22]
     ee8:	20134919 	andscs	r4, r3, r9, lsl r9
     eec:	0013010b 	andseq	r0, r3, fp, lsl #2
     ef0:	00050600 	andeq	r0, r5, r0, lsl #12
     ef4:	0b3a0e03 	bleq	e84708 <_back_addr-0x67b8f8>
     ef8:	13490b3b 	movtne	r0, #39739	; 0x9b3b
     efc:	34070000 	strcc	r0, [r7], #-0
     f00:	3a0e0300 	bcc	381b08 <_back_addr-0x117e4f8>
     f04:	490b3b0b 	stmdbmi	fp, {r0, r1, r3, r8, r9, fp, ip, sp}
     f08:	08000013 	stmdaeq	r0, {r0, r1, r4}
     f0c:	1331012e 	teqne	r1, #-2147483637	; 0x8000000b
     f10:	06120111 			; <UNDEFINED> instruction: 0x06120111
     f14:	42971840 	addsmi	r1, r7, #64, 16	; 0x400000
     f18:	00130119 	andseq	r0, r3, r9, lsl r1
     f1c:	00050900 	andeq	r0, r5, r0, lsl #18
     f20:	17021331 	smladxne	r2, r1, r3, r1
     f24:	050a0000 	streq	r0, [sl, #-0]
     f28:	02133100 	andseq	r3, r3, #0, 2
     f2c:	0b000018 	bleq	f94 <_back_addr-0x14ff06c>
     f30:	1755010b 	ldrbne	r0, [r5, -fp, lsl #2]
     f34:	2e0c0000 	cdpcs	0, 0, cr0, cr12, cr0, {0}
     f38:	03193f01 	tsteq	r9, #1, 30
     f3c:	3b0b3a0e 	blcc	2cf77c <_back_addr-0x1230884>
     f40:	4919270b 	ldmdbmi	r9, {r0, r1, r3, r8, r9, sl, sp}
     f44:	12011113 	andne	r1, r1, #-1073741820	; 0xc0000004
     f48:	97184006 	ldrls	r4, [r8, -r6]
     f4c:	13011942 	movwne	r1, #6466	; 0x1942
     f50:	050d0000 	streq	r0, [sp, #-0]
     f54:	3a0e0300 	bcc	381b5c <_back_addr-0x117e4a4>
     f58:	490b3b0b 	stmdbmi	fp, {r0, r1, r3, r8, r9, fp, ip, sp}
     f5c:	00170213 	andseq	r0, r7, r3, lsl r2
     f60:	00340e00 	eorseq	r0, r4, r0, lsl #28
     f64:	0b1c1331 	bleq	705c30 <_back_addr-0xdfa3d0>
     f68:	0b0f0000 	bleq	3c0f70 <_back_addr-0x113f090>
     f6c:	12011101 	andne	r1, r1, #1073741824	; 0x40000000
     f70:	10000006 	andne	r0, r0, r6
     f74:	13310034 	teqne	r1, #52	; 0x34
     f78:	2e110000 	cdpcs	0, 1, cr0, cr1, cr0, {0}
     f7c:	03193f01 	tsteq	r9, #1, 30
     f80:	3b0b3a0e 	blcc	2cf7c0 <_back_addr-0x1230840>
     f84:	1119270b 	tstne	r9, fp, lsl #14
     f88:	40061201 	andmi	r1, r6, r1, lsl #4
     f8c:	19429718 	stmdbne	r2, {r3, r4, r8, r9, sl, ip, pc}^
     f90:	00001301 	andeq	r1, r0, r1, lsl #6
     f94:	03003412 	movweq	r3, #1042	; 0x412
     f98:	3b0b3a0e 	blcc	2cf7d8 <_back_addr-0x1230828>
     f9c:	0213490b 	andseq	r4, r3, #180224	; 0x2c000
     fa0:	13000017 	movwne	r0, #23
     fa4:	1331011d 	teqne	r1, #1073741831	; 0x40000007
     fa8:	17550152 			; <UNDEFINED> instruction: 0x17550152
     fac:	0b590b58 	bleq	1643d14 <__bss_end__+0x1301d4>
     fb0:	00001301 	andeq	r1, r0, r1, lsl #6
     fb4:	31000514 	tstcc	r0, r4, lsl r5
     fb8:	000b1c13 	andeq	r1, fp, r3, lsl ip
     fbc:	011d1500 	tsteq	sp, r0, lsl #10
     fc0:	01521331 	cmpeq	r2, r1, lsr r3
     fc4:	0b581755 	bleq	1606d20 <__bss_end__+0xf31e0>
     fc8:	00000b59 	andeq	r0, r0, r9, asr fp
     fcc:	3f012e16 	svccc	0x00012e16
     fd0:	3a0e0319 	bcc	381c3c <_back_addr-0x117e3c4>
     fd4:	270b3b0b 	strcs	r3, [fp, -fp, lsl #22]
     fd8:	12011119 	andne	r1, r1, #1073741830	; 0x40000006
     fdc:	97184006 	ldrls	r4, [r8, -r6]
     fe0:	00001942 	andeq	r1, r0, r2, asr #18
     fe4:	01110100 	tsteq	r1, r0, lsl #2
     fe8:	0b130e25 	bleq	4c4884 <_back_addr-0x103b77c>
     fec:	0e1b0e03 	cdpeq	14, 1, cr0, cr11, cr3, {0}
     ff0:	06120111 			; <UNDEFINED> instruction: 0x06120111
     ff4:	00001710 	andeq	r1, r0, r0, lsl r7
     ff8:	03001602 	movweq	r1, #1538	; 0x602
     ffc:	3b0b3a0e 	blcc	2cf83c <_back_addr-0x12307c4>
    1000:	0013490b 	andseq	r4, r3, fp, lsl #18
    1004:	00240300 	eoreq	r0, r4, r0, lsl #6
    1008:	0b3e0b0b 	bleq	f83c3c <_back_addr-0x57c3c4>
    100c:	00000e03 	andeq	r0, r0, r3, lsl #28
    1010:	0b002404 	bleq	a028 <_back_addr-0x14f5fd8>
    1014:	030b3e0b 	movweq	r3, #48651	; 0xbe0b
    1018:	05000008 	streq	r0, [r0, #-8]
    101c:	0b0b000f 	bleq	2c1060 <_back_addr-0x123efa0>
    1020:	00001349 	andeq	r1, r0, r9, asr #6
    1024:	49002606 	stmdbmi	r0, {r1, r2, r9, sl, sp}
    1028:	07000013 	smladeq	r0, r3, r0, r0
    102c:	0b0b0113 	bleq	2c1480 <_back_addr-0x123eb80>
    1030:	0b3b0b3a 	bleq	ec3d20 <_back_addr-0x63c2e0>
    1034:	00001301 	andeq	r1, r0, r1, lsl #6
    1038:	03000d08 	movweq	r0, #3336	; 0xd08
    103c:	3b0b3a08 	blcc	2cf864 <_back_addr-0x123079c>
    1040:	0b13490b 	bleq	4d3474 <_back_addr-0x102cb8c>
    1044:	0c0b0d0b 	stceq	13, cr0, [fp], {11}
    1048:	000b380b 	andeq	r3, fp, fp, lsl #16
    104c:	000d0900 	andeq	r0, sp, r0, lsl #18
    1050:	0b3a0e03 	bleq	e84864 <_back_addr-0x67b79c>
    1054:	13490b3b 	movtne	r0, #39739	; 0x9b3b
    1058:	0b0d0b0b 	bleq	343c8c <_back_addr-0x11bc374>
    105c:	0b380b0c 	bleq	e03c94 <_back_addr-0x6fc36c>
    1060:	170a0000 	strne	r0, [sl, -r0]
    1064:	0b0e0301 	bleq	381c70 <_back_addr-0x117e390>
    1068:	3b0b3a0b 	blcc	2cf89c <_back_addr-0x1230764>
    106c:	0013010b 	andseq	r0, r3, fp, lsl #2
    1070:	000d0b00 	andeq	r0, sp, r0, lsl #22
    1074:	0b3a0e03 	bleq	e84888 <_back_addr-0x67b778>
    1078:	13490b3b 	movtne	r0, #39739	; 0x9b3b
    107c:	0d0c0000 	stceq	0, cr0, [ip, #-0]
    1080:	3a0e0300 	bcc	381c88 <_back_addr-0x117e378>
    1084:	49053b0b 	stmdbmi	r5, {r0, r1, r3, r8, r9, fp, ip, sp}
    1088:	0d000013 	stceq	0, cr0, [r0, #-76]	; 0xffffffb4
    108c:	0e030016 	mcreq	0, 0, r0, cr3, cr6, {0}
    1090:	053b0b3a 	ldreq	r0, [fp, #-2874]!	; 0xb3a
    1094:	00001349 	andeq	r1, r0, r9, asr #6
    1098:	0301130e 	movweq	r1, #4878	; 0x130e
    109c:	3a0b0b0e 	bcc	2c3cdc <_back_addr-0x123c324>
    10a0:	01053b0b 	tsteq	r5, fp, lsl #22
    10a4:	0f000013 	svceq	0x00000013
    10a8:	0e03000d 	cdpeq	0, 0, cr0, cr3, cr13, {0}
    10ac:	053b0b3a 	ldreq	r0, [fp, #-2874]!	; 0xb3a
    10b0:	0b381349 	bleq	e05ddc <_back_addr-0x6fa224>
    10b4:	2e100000 	cdpcs	0, 1, cr0, cr0, cr0, {0}
    10b8:	3a0e0301 	bcc	381cc4 <_back_addr-0x117e33c>
    10bc:	270b3b0b 	strcs	r3, [fp, -fp, lsl #22]
    10c0:	010b2019 	tsteq	fp, r9, lsl r0
    10c4:	11000013 	tstne	r0, r3, lsl r0
    10c8:	0e030005 	cdpeq	0, 0, cr0, cr3, cr5, {0}
    10cc:	0b3b0b3a 	bleq	ec3dbc <_back_addr-0x63c244>
    10d0:	00001349 	andeq	r1, r0, r9, asr #6
    10d4:	3f012e12 	svccc	0x00012e12
    10d8:	3a0e0319 	bcc	381d44 <_back_addr-0x117e2bc>
    10dc:	270b3b0b 	strcs	r3, [fp, -fp, lsl #22]
    10e0:	010b2019 	tsteq	fp, r9, lsl r0
    10e4:	13000013 	movwne	r0, #19
    10e8:	08030005 	stmdaeq	r3, {r0, r2}
    10ec:	0b3b0b3a 	bleq	ec3ddc <_back_addr-0x63c224>
    10f0:	00001349 	andeq	r1, r0, r9, asr #6
    10f4:	03003414 	movweq	r3, #1044	; 0x414
    10f8:	3b0b3a08 	blcc	2cf920 <_back_addr-0x12306e0>
    10fc:	0013490b 	andseq	r4, r3, fp, lsl #18
    1100:	000f1500 	andeq	r1, pc, r0, lsl #10
    1104:	00000b0b 	andeq	r0, r0, fp, lsl #22
    1108:	3f002e16 	svccc	0x00002e16
    110c:	3a0e0319 	bcc	381d78 <_back_addr-0x117e288>
    1110:	270b3b0b 	strcs	r3, [fp, -fp, lsl #22]
    1114:	12011119 	andne	r1, r1, #1073741830	; 0x40000006
    1118:	97184006 	ldrls	r4, [r8, -r6]
    111c:	00001942 	andeq	r1, r0, r2, asr #18
    1120:	3f012e17 	svccc	0x00012e17
    1124:	3a0e0319 	bcc	381d90 <_back_addr-0x117e270>
    1128:	270b3b0b 	strcs	r3, [fp, -fp, lsl #22]
    112c:	12011119 	andne	r1, r1, #1073741830	; 0x40000006
    1130:	97184006 	ldrls	r4, [r8, -r6]
    1134:	13011942 	movwne	r1, #6466	; 0x1942
    1138:	34180000 	ldrcc	r0, [r8], #-0
    113c:	3a0e0300 	bcc	381d44 <_back_addr-0x117e2bc>
    1140:	490b3b0b 	stmdbmi	fp, {r0, r1, r3, r8, r9, fp, ip, sp}
    1144:	00170213 	andseq	r0, r7, r3, lsl r2
    1148:	00341900 	eorseq	r1, r4, r0, lsl #18
    114c:	0b3a0e03 	bleq	e84960 <_back_addr-0x67b6a0>
    1150:	13490b3b 	movtne	r0, #39739	; 0x9b3b
    1154:	0000061c 	andeq	r0, r0, ip, lsl r6
    1158:	0300051a 	movweq	r0, #1306	; 0x51a
    115c:	3b0b3a0e 	blcc	2cf99c <_back_addr-0x1230664>
    1160:	0213490b 	andseq	r4, r3, #180224	; 0x2c000
    1164:	1b000018 	blne	11cc <_back_addr-0x14fee34>
    1168:	08030005 	stmdaeq	r3, {r0, r2}
    116c:	0b3b0b3a 	bleq	ec3e5c <_back_addr-0x63c1a4>
    1170:	17021349 	strne	r1, [r2, -r9, asr #6]
    1174:	341c0000 	ldrcc	r0, [ip], #-0
    1178:	3a080300 	bcc	201d80 <_back_addr-0x12fe280>
    117c:	490b3b0b 	stmdbmi	fp, {r0, r1, r3, r8, r9, fp, ip, sp}
    1180:	00170213 	andseq	r0, r7, r3, lsl r2
    1184:	011d1d00 	tsteq	sp, r0, lsl #26
    1188:	01521331 	cmpeq	r2, r1, lsr r3
    118c:	0b581755 	bleq	1606ee8 <__bss_end__+0xf33a8>
    1190:	13010b59 	movwne	r0, #7001	; 0x1b59
    1194:	051e0000 	ldreq	r0, [lr, #-0]
    1198:	00133100 	andseq	r3, r3, r0, lsl #2
    119c:	011d1f00 	tsteq	sp, r0, lsl #30
    11a0:	01111331 	tsteq	r1, r1, lsr r3
    11a4:	0b580612 	bleq	16029f4 <__bss_end__+0xeeeb4>
    11a8:	00000b59 	andeq	r0, r0, r9, asr fp
    11ac:	31000520 	tstcc	r0, r0, lsr #10
    11b0:	00180213 	andseq	r0, r8, r3, lsl r2
    11b4:	00052100 	andeq	r2, r5, r0, lsl #2
    11b8:	0b3a0e03 	bleq	e849cc <_back_addr-0x67b634>
    11bc:	13490b3b 	movtne	r0, #39739	; 0x9b3b
    11c0:	00001702 	andeq	r1, r0, r2, lsl #14
    11c4:	55010b22 	strpl	r0, [r1, #-2850]	; 0xb22
    11c8:	23000017 	movwcs	r0, #23
    11cc:	193f012e 	ldmdbne	pc!, {r1, r2, r3, r5, r8}	; <UNPREDICTABLE>
    11d0:	0b3a0e03 	bleq	e849e4 <_back_addr-0x67b61c>
    11d4:	13490b3b 	movtne	r0, #39739	; 0x9b3b
    11d8:	1301193c 	movwne	r1, #6460	; 0x193c
    11dc:	18240000 	stmdane	r4!, {}	; <UNPREDICTABLE>
    11e0:	25000000 	strcs	r0, [r0, #-0]
    11e4:	01018289 	smlabbeq	r1, r9, r2, r8
    11e8:	13310111 	teqne	r1, #1073741828	; 0x40000004
    11ec:	00001301 	andeq	r1, r0, r1, lsl #6
    11f0:	01828a26 	orreq	r8, r2, r6, lsr #20
    11f4:	91180200 	tstls	r8, r0, lsl #4
    11f8:	00001842 	andeq	r1, r0, r2, asr #16
    11fc:	01828927 	orreq	r8, r2, r7, lsr #18
    1200:	95011101 	strls	r1, [r1, #-257]	; 0x101
    1204:	13311942 	teqne	r1, #1081344	; 0x108000
    1208:	35280000 	strcc	r0, [r8, #-0]!
    120c:	00134900 	andseq	r4, r3, r0, lsl #18
    1210:	00052900 	andeq	r2, r5, r0, lsl #18
    1214:	0b3a0803 	bleq	e83228 <_back_addr-0x67cdd8>
    1218:	13490b3b 	movtne	r0, #39739	; 0x9b3b
    121c:	00001802 	andeq	r1, r0, r2, lsl #16
    1220:	31011d2a 	tstcc	r1, sl, lsr #26
    1224:	55015213 	strpl	r5, [r1, #-531]	; 0x213
    1228:	590b5817 	stmdbpl	fp, {r0, r1, r2, r4, fp, ip, lr}
    122c:	2b00000b 	blcs	1260 <_back_addr-0x14feda0>
    1230:	1331012e 	teqne	r1, #-2147483637	; 0x8000000b
    1234:	06120111 			; <UNDEFINED> instruction: 0x06120111
    1238:	42971840 	addsmi	r1, r7, #64, 16	; 0x400000
    123c:	00130119 	andseq	r0, r3, r9, lsl r1
    1240:	00052c00 	andeq	r2, r5, r0, lsl #24
    1244:	17021331 	smladxne	r2, r1, r3, r1
    1248:	2e2d0000 	cdpcs	0, 2, cr0, cr13, cr0, {0}
    124c:	03193f01 	tsteq	r9, #1, 30
    1250:	3b0b3a0e 	blcc	2cfa90 <_back_addr-0x1230570>
    1254:	4919270b 	ldmdbmi	r9, {r0, r1, r3, r8, r9, sl, sp}
    1258:	12011113 	andne	r1, r1, #-1073741820	; 0xc0000004
    125c:	97184006 	ldrls	r4, [r8, -r6]
    1260:	13011942 	movwne	r1, #6466	; 0x1942
    1264:	342e0000 	strtcc	r0, [lr], #-0
    1268:	3a0e0300 	bcc	381e70 <_back_addr-0x117e190>
    126c:	490b3b0b 	stmdbmi	fp, {r0, r1, r3, r8, r9, fp, ip, sp}
    1270:	00180213 	andseq	r0, r8, r3, lsl r2
    1274:	00342f00 	eorseq	r2, r4, r0, lsl #30
    1278:	13490e03 	movtne	r0, #40451	; 0x9e03
    127c:	18021934 	stmdane	r2, {r2, r4, r5, r8, fp, ip}
    1280:	1d300000 	ldcne	0, cr0, [r0, #-0]
    1284:	11133101 	tstne	r3, r1, lsl #2
    1288:	58061201 	stmdapl	r6, {r0, r9, ip}
    128c:	010b590b 	tsteq	fp, fp, lsl #18
    1290:	31000013 	tstcc	r0, r3, lsl r0
    1294:	01018289 	smlabbeq	r1, r9, r2, r8
    1298:	13310111 	teqne	r1, #1073741828	; 0x40000004
    129c:	89320000 	ldmdbhi	r2!, {}	; <UNPREDICTABLE>
    12a0:	11000182 	smlabbne	r0, r2, r1, r0
    12a4:	00133101 	andseq	r3, r3, r1, lsl #2
    12a8:	82893300 	addhi	r3, r9, #0, 6
    12ac:	01110101 	tsteq	r1, r1, lsl #2
    12b0:	31194295 			; <UNDEFINED> instruction: 0x31194295
    12b4:	00130113 	andseq	r0, r3, r3, lsl r1
    12b8:	00263400 	eoreq	r3, r6, r0, lsl #8
    12bc:	01350000 	teqeq	r5, r0
    12c0:	01134901 	tsteq	r3, r1, lsl #18
    12c4:	36000013 			; <UNDEFINED> instruction: 0x36000013
    12c8:	13490021 	movtne	r0, #36897	; 0x9021
    12cc:	00000b2f 	andeq	r0, r0, pc, lsr #22
    12d0:	31003437 	tstcc	r0, r7, lsr r4
    12d4:	00170213 	andseq	r0, r7, r3, lsl r2
    12d8:	00343800 	eorseq	r3, r4, r0, lsl #16
    12dc:	0b3a0803 	bleq	e832f0 <_back_addr-0x67cd10>
    12e0:	13490b3b 	movtne	r0, #39739	; 0x9b3b
    12e4:	00001802 	andeq	r1, r0, r2, lsl #16
    12e8:	3f012e39 	svccc	0x00012e39
    12ec:	3a0e0319 	bcc	381f58 <_back_addr-0x117e0a8>
    12f0:	27053b0b 	strcs	r3, [r5, -fp, lsl #22]
    12f4:	11134919 	tstne	r3, r9, lsl r9
    12f8:	40061201 	andmi	r1, r6, r1, lsl #4
    12fc:	19429718 	stmdbne	r2, {r3, r4, r8, r9, sl, ip, pc}^
    1300:	00001301 	andeq	r1, r0, r1, lsl #6
    1304:	0300053a 	movweq	r0, #1338	; 0x53a
    1308:	3b0b3a08 	blcc	2cfb30 <_back_addr-0x12304d0>
    130c:	02134905 	andseq	r4, r3, #81920	; 0x14000
    1310:	3b000017 	blcc	1374 <_back_addr-0x14fec8c>
    1314:	0e030005 	cdpeq	0, 0, cr0, cr3, cr5, {0}
    1318:	053b0b3a 	ldreq	r0, [fp, #-2874]!	; 0xb3a
    131c:	17021349 	strne	r1, [r2, -r9, asr #6]
    1320:	343c0000 	ldrtcc	r0, [ip], #-0
    1324:	3a080300 	bcc	201f2c <_back_addr-0x12fe0d4>
    1328:	49053b0b 	stmdbmi	r5, {r0, r1, r3, r8, r9, fp, ip, sp}
    132c:	00170213 	andseq	r0, r7, r3, lsl r2
    1330:	002e3d00 	eoreq	r3, lr, r0, lsl #26
    1334:	0e03193f 	mcreq	9, 0, r1, cr3, cr15, {1}
    1338:	053b0b3a 	ldreq	r0, [fp, #-2874]!	; 0xb3a
    133c:	01111927 	tsteq	r1, r7, lsr #18
    1340:	18400612 	stmdane	r0, {r1, r4, r9, sl}^
    1344:	00194297 	mulseq	r9, r7, r2
    1348:	012e3e00 	teqeq	lr, r0, lsl #28
    134c:	0e03193f 	mcreq	9, 0, r1, cr3, cr15, {1}
    1350:	0b3b0b3a 	bleq	ec4040 <_back_addr-0x63bfc0>
    1354:	193c1349 	ldmdbne	ip!, {r0, r3, r6, r8, r9, ip}
    1358:	01000000 	mrseq	r0, (UNDEF: 0)
    135c:	0e250111 	mcreq	1, 1, r0, cr5, cr1, {0}
    1360:	0e030b13 	vmoveq.32	d3[0], r0
    1364:	01110e1b 	tsteq	r1, fp, lsl lr
    1368:	17100612 			; <UNDEFINED> instruction: 0x17100612
    136c:	24020000 	strcs	r0, [r2], #-0
    1370:	3e0b0b00 	vmlacc.f64	d0, d11, d0
    1374:	000e030b 	andeq	r0, lr, fp, lsl #6
    1378:	00240300 	eoreq	r0, r4, r0, lsl #6
    137c:	0b3e0b0b 	bleq	f83fb0 <_back_addr-0x57c050>
    1380:	00000803 	andeq	r0, r0, r3, lsl #16
    1384:	03001604 	movweq	r1, #1540	; 0x604
    1388:	3b0b3a08 	blcc	2cfbb0 <_back_addr-0x1230450>
    138c:	0013490b 	andseq	r4, r3, fp, lsl #18
    1390:	01040500 	tsteq	r4, r0, lsl #10
    1394:	0b0b0e03 	bleq	2c4ba8 <_back_addr-0x123b458>
    1398:	053b0b3a 	ldreq	r0, [fp, #-2874]!	; 0xb3a
    139c:	00001301 	andeq	r1, r0, r1, lsl #6
    13a0:	03002806 	movweq	r2, #2054	; 0x806
    13a4:	000d1c0e 	andeq	r1, sp, lr, lsl #24
    13a8:	012e0700 	teqeq	lr, r0, lsl #14
    13ac:	0b3a0e03 	bleq	e84bc0 <_back_addr-0x67b440>
    13b0:	19270b3b 	stmdbne	r7!, {r0, r1, r3, r4, r5, r8, r9, fp}
    13b4:	13010b20 	movwne	r0, #6944	; 0x1b20
    13b8:	05080000 	streq	r0, [r8, #-0]
    13bc:	3a0e0300 	bcc	381fc4 <_back_addr-0x117e03c>
    13c0:	490b3b0b 	stmdbmi	fp, {r0, r1, r3, r8, r9, fp, ip, sp}
    13c4:	09000013 	stmdbeq	r0, {r0, r1, r4}
    13c8:	0e030034 	mcreq	0, 0, r0, cr3, cr4, {1}
    13cc:	0b3b0b3a 	bleq	ec40bc <_back_addr-0x63bf44>
    13d0:	00001349 	andeq	r1, r0, r9, asr #6
    13d4:	03012e0a 	movweq	r2, #7690	; 0x1e0a
    13d8:	3b0b3a0e 	blcc	2cfc18 <_back_addr-0x12303e8>
    13dc:	4919270b 	ldmdbmi	r9, {r0, r1, r3, r8, r9, sl, sp}
    13e0:	010b2013 	tsteq	fp, r3, lsl r0
    13e4:	0b000013 	bleq	1438 <_back_addr-0x14febc8>
    13e8:	08030005 	stmdaeq	r3, {r0, r2}
    13ec:	0b3b0b3a 	bleq	ec40dc <_back_addr-0x63bf24>
    13f0:	00001349 	andeq	r1, r0, r9, asr #6
    13f4:	0300340c 	movweq	r3, #1036	; 0x40c
    13f8:	3b0b3a08 	blcc	2cfc20 <_back_addr-0x12303e0>
    13fc:	0013490b 	andseq	r4, r3, fp, lsl #18
    1400:	002e0d00 	eoreq	r0, lr, r0, lsl #26
    1404:	0e03193f 	mcreq	9, 0, r1, cr3, cr15, {1}
    1408:	0b3b0b3a 	bleq	ec40f8 <_back_addr-0x63bf08>
    140c:	0b201927 	bleq	8078b0 <_back_addr-0xcf8750>
    1410:	2e0e0000 	cdpcs	0, 0, cr0, cr14, cr0, {0}
    1414:	3a0e0300 	bcc	38201c <_back_addr-0x117dfe4>
    1418:	270b3b0b 	strcs	r3, [fp, -fp, lsl #22]
    141c:	000b2019 	andeq	r2, fp, r9, lsl r0
    1420:	012e0f00 	teqeq	lr, r0, lsl #30
    1424:	0b3a0e03 	bleq	e84c38 <_back_addr-0x67b3c8>
    1428:	19270b3b 	stmdbne	r7!, {r0, r1, r3, r4, r5, r8, r9, fp}
    142c:	06120111 			; <UNDEFINED> instruction: 0x06120111
    1430:	42971840 	addsmi	r1, r7, #64, 16	; 0x400000
    1434:	00130119 	andseq	r0, r3, r9, lsl r1
    1438:	00051000 	andeq	r1, r5, r0
    143c:	0b3a0e03 	bleq	e84c50 <_back_addr-0x67b3b0>
    1440:	13490b3b 	movtne	r0, #39739	; 0x9b3b
    1444:	00001802 	andeq	r1, r0, r2, lsl #16
    1448:	03003411 	movweq	r3, #1041	; 0x411
    144c:	3b0b3a0e 	blcc	2cfc8c <_back_addr-0x1230374>
    1450:	0213490b 	andseq	r4, r3, #180224	; 0x2c000
    1454:	12000017 	andne	r0, r0, #23
    1458:	0e030034 	mcreq	0, 0, r0, cr3, cr4, {1}
    145c:	0b3b0b3a 	bleq	ec414c <_back_addr-0x63beb4>
    1460:	18021349 	stmdane	r2, {r0, r3, r6, r8, r9, ip}
    1464:	1d130000 	ldcne	0, cr0, [r3, #-0]
    1468:	11133101 	tstne	r3, r1, lsl #2
    146c:	58061201 	stmdapl	r6, {r0, r9, ip}
    1470:	010b590b 	tsteq	fp, fp, lsl #18
    1474:	14000013 	strne	r0, [r0], #-19
    1478:	0111010b 	tsteq	r1, fp, lsl #2
    147c:	00000612 	andeq	r0, r0, r2, lsl r6
    1480:	31003415 	tstcc	r0, r5, lsl r4
    1484:	00180213 	andseq	r0, r8, r3, lsl r2
    1488:	011d1600 	tsteq	sp, r0, lsl #12
    148c:	01521331 	cmpeq	r2, r1, lsr r3
    1490:	0b581755 	bleq	16071ec <__bss_end__+0xf36ac>
    1494:	00000b59 	andeq	r0, r0, r9, asr fp
    1498:	31000517 	tstcc	r0, r7, lsl r5
    149c:	18000013 	stmdane	r0, {r0, r1, r4}
    14a0:	13310005 	teqne	r1, #5
    14a4:	00001702 	andeq	r1, r0, r2, lsl #14
    14a8:	55010b19 	strpl	r0, [r1, #-2841]	; 0xb19
    14ac:	1a000017 	bne	1510 <_back_addr-0x14feaf0>
    14b0:	13310034 	teqne	r1, #52	; 0x34
    14b4:	341b0000 	ldrcc	r0, [fp], #-0
    14b8:	02133100 	andseq	r3, r3, #0, 2
    14bc:	1c000017 	stcne	0, cr0, [r0], {23}
    14c0:	1331011d 	teqne	r1, #1073741831	; 0x40000007
    14c4:	17550152 			; <UNDEFINED> instruction: 0x17550152
    14c8:	0b590b58 	bleq	1644230 <__bss_end__+0x1306f0>
    14cc:	00001301 	andeq	r1, r0, r1, lsl #6
    14d0:	31011d1d 	tstcc	r1, sp, lsl sp
    14d4:	12011113 	andne	r1, r1, #-1073741820	; 0xc0000004
    14d8:	590b5806 	stmdbpl	fp, {r1, r2, fp, ip, lr}
    14dc:	1e00000b 	cdpne	0, 0, cr0, cr0, cr11, {0}
    14e0:	193f002e 	ldmdbne	pc!, {r1, r2, r3, r5}	; <UNPREDICTABLE>
    14e4:	0b3a0e03 	bleq	e84cf8 <_back_addr-0x67b308>
    14e8:	1927053b 	stmdbne	r7!, {r0, r1, r3, r4, r5, r8, sl}
    14ec:	06120111 			; <UNDEFINED> instruction: 0x06120111
    14f0:	42971840 	addsmi	r1, r7, #64, 16	; 0x400000
    14f4:	1f000019 	svcne	0x00000019
    14f8:	193f012e 	ldmdbne	pc!, {r1, r2, r3, r5, r8}	; <UNPREDICTABLE>
    14fc:	0b3a0e03 	bleq	e84d10 <_back_addr-0x67b2f0>
    1500:	1927053b 	stmdbne	r7!, {r0, r1, r3, r4, r5, r8, sl}
    1504:	06120111 			; <UNDEFINED> instruction: 0x06120111
    1508:	42971840 	addsmi	r1, r7, #64, 16	; 0x400000
    150c:	00130119 	andseq	r0, r3, r9, lsl r1
    1510:	82892000 	addhi	r2, r9, #0
    1514:	01110101 	tsteq	r1, r1, lsl #2
    1518:	13011331 	movwne	r1, #4913	; 0x1331
    151c:	8a210000 	bhi	841524 <_back_addr-0xcbeadc>
    1520:	02000182 	andeq	r0, r0, #-2147483616	; 0x80000020
    1524:	18429118 	stmdane	r2, {r3, r4, r8, ip, pc}^
    1528:	89220000 	stmdbhi	r2!, {}	; <UNPREDICTABLE>
    152c:	11000182 	smlabbne	r0, r2, r1, r0
    1530:	19429501 	stmdbne	r2, {r0, r8, sl, ip, pc}^
    1534:	2e230000 	cdpcs	0, 2, cr0, cr3, cr0, {0}
    1538:	11133101 	tstne	r3, r1, lsl #2
    153c:	40061201 	andmi	r1, r6, r1, lsl #4
    1540:	19429718 	stmdbne	r2, {r3, r4, r8, r9, sl, ip, pc}^
    1544:	00001301 	andeq	r1, r0, r1, lsl #6
    1548:	31011d24 	tstcc	r1, r4, lsr #26
    154c:	12011113 	andne	r1, r1, #-1073741820	; 0xc0000004
    1550:	590b5806 	stmdbpl	fp, {r1, r2, fp, ip, lr}
    1554:	00130105 	andseq	r0, r3, r5, lsl #2
    1558:	82892500 	addhi	r2, r9, #0, 10
    155c:	01110001 	tsteq	r1, r1
    1560:	1d260000 	stcne	0, cr0, [r6, #-0]
    1564:	11133100 	tstne	r3, r0, lsl #2
    1568:	58061201 	stmdapl	r6, {r0, r9, ip}
    156c:	0005590b 	andeq	r5, r5, fp, lsl #18
    1570:	00052700 	andeq	r2, r5, r0, lsl #14
    1574:	0b3a0e03 	bleq	e84d88 <_back_addr-0x67b278>
    1578:	1349053b 	movtne	r0, #38203	; 0x953b
    157c:	00001802 	andeq	r1, r0, r2, lsl #16
    1580:	03000528 	movweq	r0, #1320	; 0x528
    1584:	3b0b3a08 	blcc	2cfdac <_back_addr-0x1230254>
    1588:	02134905 	andseq	r4, r3, #81920	; 0x14000
    158c:	29000018 	stmdbcs	r0, {r3, r4}
    1590:	0e030005 	cdpeq	0, 0, cr0, cr3, cr5, {0}
    1594:	053b0b3a 	ldreq	r0, [fp, #-2874]!	; 0xb3a
    1598:	17021349 	strne	r1, [r2, -r9, asr #6]
    159c:	052a0000 	streq	r0, [sl, #-0]!
    15a0:	1c133100 	ldfnes	f3, [r3], {-0}
    15a4:	2b00000b 	blcs	15d8 <_back_addr-0x14fea28>
    15a8:	01018289 	smlabbeq	r1, r9, r2, r8
    15ac:	42950111 	addsmi	r0, r5, #1073741828	; 0x40000004
    15b0:	00133119 	andseq	r3, r3, r9, lsl r1
    15b4:	00342c00 	eorseq	r2, r4, r0, lsl #24
    15b8:	0b3a0e03 	bleq	e84dcc <_back_addr-0x67b234>
    15bc:	1349053b 	movtne	r0, #38203	; 0x953b
    15c0:	0000061c 	andeq	r0, r0, ip, lsl r6
    15c4:	0300342d 	movweq	r3, #1069	; 0x42d
    15c8:	3b0b3a0e 	blcc	2cfe08 <_back_addr-0x12301f8>
    15cc:	3f134905 	svccc	0x00134905
    15d0:	00193c19 	andseq	r3, r9, r9, lsl ip
	...

Disassembly of section .debug_line:

00000000 <.debug_line>:
       0:	0000004c 	andeq	r0, r0, ip, asr #32
       4:	001e0002 	andseq	r0, lr, r2
       8:	01020000 	mrseq	r0, (UNDEF: 2)
       c:	000d0efb 	strdeq	r0, [sp], -fp
      10:	01010101 	tsteq	r1, r1, lsl #2
      14:	01000000 	mrseq	r0, (UNDEF: 0)
      18:	00010000 	andeq	r0, r1, r0
      1c:	72617473 	rsbvc	r7, r1, #1929379840	; 0x73000000
      20:	00532e74 	subseq	r2, r3, r4, ror lr
      24:	00000000 	andeq	r0, r0, r0
      28:	0c020500 	cfstr32eq	mvfx0, [r2], {-0}
      2c:	03015000 	movweq	r5, #4096	; 0x1000
      30:	2f2f010e 	svccs	0x002f010e
      34:	2f2f302f 	svccs	0x002f302f
      38:	2f2f302f 	svccs	0x002f302f
      3c:	2f2f2f30 	svccs	0x002f2f30
      40:	2f312f2f 	svccs	0x00312f2f
      44:	302f2f2f 	eorcc	r2, pc, pc, lsr #30
      48:	022f2f2f 	eoreq	r2, pc, #47, 30	; 0xbc
      4c:	01010002 	tsteq	r1, r2
      50:	00000036 	andeq	r0, r0, r6, lsr r0
      54:	001f0002 	andseq	r0, pc, r2
      58:	01020000 	mrseq	r0, (UNDEF: 2)
      5c:	000d0efb 	strdeq	r0, [sp], -fp
      60:	01010101 	tsteq	r1, r1, lsl #2
      64:	01000000 	mrseq	r0, (UNDEF: 0)
      68:	00010000 	andeq	r0, r1, r0
      6c:	6c727473 	cfldrdvs	mvd7, [r2], #-460	; 0xfffffe34
      70:	632e6e65 	teqvs	lr, #1616	; 0x650
      74:	00000000 	andeq	r0, r0, r0
      78:	02050000 	andeq	r0, r5, #0
      7c:	01500074 	cmpeq	r0, r4, ror r0
      80:	15013c03 	strne	r3, [r1, #-3075]	; 0xc03
      84:	000402f8 	strdeq	r0, [r4], -r8
      88:	00550101 	subseq	r0, r5, r1, lsl #2
      8c:	00020000 	andeq	r0, r2, r0
      90:	0000001f 	andeq	r0, r0, pc, lsl r0
      94:	0efb0102 	cdpeq	1, 15, cr0, cr11, cr2, {0}
      98:	0101000d 	tsteq	r1, sp
      9c:	00000101 	andeq	r0, r0, r1, lsl #2
      a0:	00000100 	andeq	r0, r0, r0, lsl #2
      a4:	74730001 	ldrbtvc	r0, [r3], #-1
      a8:	72747372 	rsbsvc	r7, r4, #-939524095	; 0xc8000001
      ac:	0000632e 	andeq	r6, r0, lr, lsr #6
      b0:	00000000 	andeq	r0, r0, r0
      b4:	009c0205 	addseq	r0, ip, r5, lsl #4
      b8:	c0030150 	andgt	r0, r3, r0, asr r1
      bc:	62160100 	andsvs	r0, r6, #0, 2
      c0:	04020035 	streq	r0, [r2], #-53	; 0x35
      c4:	82066901 	andhi	r6, r6, #16384	; 0x4000
      c8:	02006806 	andeq	r6, r0, #393216	; 0x60000
      cc:	684e0104 	stmdavs	lr, {r2, r8}^
      d0:	7003a3f0 	strdvc	sl, [r3], -r0
      d4:	2e150382 	cdpcs	3, 1, cr0, cr5, cr2, {4}
      d8:	032e6b03 	teqeq	lr, #3072	; 0xc00
      dc:	02022e15 	andeq	r2, r2, #336	; 0x150
      e0:	dd010100 	stfles	f0, [r1, #-0]
      e4:	02000000 	andeq	r0, r0, #0
      e8:	00008800 	andeq	r8, r0, r0, lsl #16
      ec:	fb010200 	blx	408f6 <_back_addr-0x14bf70a>
      f0:	01000d0e 	tsteq	r0, lr, lsl #26
      f4:	00010101 	andeq	r0, r1, r1, lsl #2
      f8:	00010000 	andeq	r0, r1, r0
      fc:	682f0100 	stmdavs	pc!, {r8}	; <UNPREDICTABLE>
     100:	2f656d6f 	svccs	0x00656d6f
     104:	6f726163 	svcvs	0x00726163
     108:	7573686c 	ldrbvc	r6, [r3, #-2156]!	; 0x86c
     10c:	73616e2f 	cmnvc	r1, #752	; 0x2f0
     110:	6e76732f 	cdpvs	3, 7, cr7, cr6, cr15, {1}
     114:	6f6f622f 	svcvs	0x006f622f
     118:	646f6374 	strbtvs	r6, [pc], #-884	; 120 <_back_addr-0x14ffee0>
     11c:	30325f65 	eorscc	r5, r2, r5, ror #30
     120:	38303631 	ldmdacc	r0!, {r0, r4, r5, r9, sl, ip, sp}
     124:	752f3130 	strvc	r3, [pc, #-304]!	; fffffffc <__bss_end__+0xfeaec4bc>
     128:	746f6f62 	strbtvc	r6, [pc], #-3938	; 130 <_back_addr-0x14ffed0>
     12c:	6178652f 	cmnvs	r8, pc, lsr #10
     130:	656c706d 	strbvs	r7, [ip, #-109]!	; 0x6d
     134:	66652f73 	uqsub16vs	r2, r5, r3
     138:	5f657375 	svcpl	0x00657375
     13c:	676f7270 			; <UNDEFINED> instruction: 0x676f7270
     140:	6d6d6172 	stfvse	f6, [sp, #-456]!	; 0xfffffe38
     144:	692f7265 	stmdbvs	pc!, {r0, r2, r5, r6, r9, ip, sp, lr}	; <UNPREDICTABLE>
     148:	756c636e 	strbvc	r6, [ip, #-878]!	; 0x36e
     14c:	642f6564 	strtvs	r6, [pc], #-1380	; 154 <_back_addr-0x14ffeac>
     150:	6f627276 	svcvs	0x00627276
     154:	695f746f 	ldmdbvs	pc, {r0, r1, r2, r3, r5, r6, sl, ip, sp, lr}^	; <UNPREDICTABLE>
     158:	0000636e 	andeq	r6, r0, lr, ror #6
     15c:	74727473 	ldrbtvc	r7, [r2], #-1139	; 0x473
     160:	2e6c756f 	cdpcs	5, 6, cr7, cr12, cr15, {3}
     164:	00000063 	andeq	r0, r0, r3, rrx
     168:	79746300 	ldmdbvc	r4!, {r8, r9, sp, lr}^
     16c:	682e6570 	stmdavs	lr!, {r4, r5, r6, r8, sl, sp, lr}
     170:	00000100 	andeq	r0, r0, r0, lsl #2
     174:	02050000 	andeq	r0, r5, #0
     178:	0150013c 	cmpeq	r0, ip, lsr r1
     17c:	0100c403 	tsteq	r0, r3, lsl #8
     180:	04020066 	streq	r0, [r2], #-102	; 0x66
     184:	660b0301 	strvs	r0, [fp], -r1, lsl #6
     188:	01040200 	mrseq	r0, R12_usr
     18c:	2f4f834b 	svccs	0x004f834b
     190:	0402004c 	streq	r0, [r2], #-76	; 0x4c
     194:	064a0601 	strbeq	r0, [sl], -r1, lsl #12
     198:	67659f88 	strbvs	r9, [r5, -r8, lsl #31]!
     19c:	0200db2d 	andeq	sp, r0, #46080	; 0xb400
     1a0:	0b030104 	bleq	c05b8 <_back_addr-0x143fa48>
     1a4:	032cdd66 	teqeq	ip, #6528	; 0x1980
     1a8:	4b2f2e70 	blmi	bcbb70 <_back_addr-0x934490>
     1ac:	854b302d 	strbhi	r3, [fp, #-45]	; 0x2d
     1b0:	2f4b4c4c 	svccs	0x004b4c4c
     1b4:	039f6852 	orrseq	r6, pc, #5373952	; 0x520000
     1b8:	84898257 	strhi	r8, [r9], #599	; 0x257
     1bc:	022d302d 	eoreq	r3, sp, #45	; 0x2d
     1c0:	01010008 	tsteq	r1, r8
     1c4:	00000024 	andeq	r0, r0, r4, lsr #32
     1c8:	001e0002 	andseq	r0, lr, r2
     1cc:	01020000 	mrseq	r0, (UNDEF: 2)
     1d0:	000d0efb 	strdeq	r0, [sp], -fp
     1d4:	01010101 	tsteq	r1, r1, lsl #2
     1d8:	01000000 	mrseq	r0, (UNDEF: 0)
     1dc:	00010000 	andeq	r0, r1, r0
     1e0:	70797463 	rsbsvc	r7, r9, r3, ror #8
     1e4:	00632e65 	rsbeq	r2, r3, r5, ror #28
     1e8:	00000000 	andeq	r0, r0, r0
     1ec:	00000162 	andeq	r0, r0, r2, ror #2
     1f0:	00d50002 	sbcseq	r0, r5, r2
     1f4:	01020000 	mrseq	r0, (UNDEF: 2)
     1f8:	000d0efb 	strdeq	r0, [sp], -fp
     1fc:	01010101 	tsteq	r1, r1, lsl #2
     200:	01000000 	mrseq	r0, (UNDEF: 0)
     204:	2f010000 	svccs	0x00010000
     208:	656d6f68 	strbvs	r6, [sp, #-3944]!	; 0xf68
     20c:	756f6c2f 	strbvc	r6, [pc, #-3119]!	; fffff5e5 <__bss_end__+0xfeaebaa5>
     210:	682f7369 	stmdavs	pc!, {r0, r3, r5, r6, r8, r9, ip, sp, lr}	; <UNPREDICTABLE>
     214:	2f6b6e61 	svccs	0x006b6e61
     218:	696c796b 	stmdbvs	ip!, {r0, r1, r3, r5, r6, r8, fp, ip, sp, lr}^
     21c:	6f622f6e 	svcvs	0x00622f6e
     220:	6f63746f 	svcvs	0x0063746f
     224:	752f6564 	strvc	r6, [pc, #-1380]!	; fffffcc8 <__bss_end__+0xfeaec188>
     228:	746f6f62 	strbtvc	r6, [pc], #-3938	; 230 <_back_addr-0x14ffdd0>
     22c:	6178652f 	cmnvs	r8, pc, lsr #10
     230:	656c706d 	strbvs	r7, [ip, #-109]!	; 0x6d
     234:	66652f73 	uqsub16vs	r2, r5, r3
     238:	5f657375 	svcpl	0x00657375
     23c:	676f7270 			; <UNDEFINED> instruction: 0x676f7270
     240:	6d6d6172 	stfvse	f6, [sp, #-456]!	; 0xfffffe38
     244:	692f7265 	stmdbvs	pc!, {r0, r2, r5, r6, r9, ip, sp, lr}	; <UNPREDICTABLE>
     248:	756c636e 	strbvc	r6, [ip, #-878]!	; 0x36e
     24c:	2f006564 	svccs	0x00006564
     250:	656d6f68 	strbvs	r6, [sp, #-3944]!	; 0xf68
     254:	756f6c2f 	strbvc	r6, [pc, #-3119]!	; fffff62d <__bss_end__+0xfeaebaed>
     258:	682f7369 	stmdavs	pc!, {r0, r3, r5, r6, r8, r9, ip, sp, lr}	; <UNPREDICTABLE>
     25c:	2f6b6e61 	svccs	0x006b6e61
     260:	696c796b 	stmdbvs	ip!, {r0, r1, r3, r5, r6, r8, fp, ip, sp, lr}^
     264:	6f622f6e 	svcvs	0x00622f6e
     268:	6f63746f 	svcvs	0x0063746f
     26c:	752f6564 	strvc	r6, [pc, #-1380]!	; fffffd10 <__bss_end__+0xfeaec1d0>
     270:	746f6f62 	strbtvc	r6, [pc], #-3938	; 278 <_back_addr-0x14ffd88>
     274:	6178652f 	cmnvs	r8, pc, lsr #10
     278:	656c706d 	strbvs	r7, [ip, #-109]!	; 0x6d
     27c:	66652f73 	uqsub16vs	r2, r5, r3
     280:	5f657375 	svcpl	0x00657375
     284:	676f7270 			; <UNDEFINED> instruction: 0x676f7270
     288:	6d6d6172 	stfvse	f6, [sp, #-456]!	; 0xfffffe38
     28c:	692f7265 	stmdbvs	pc!, {r0, r2, r5, r6, r9, ip, sp, lr}	; <UNPREDICTABLE>
     290:	756c636e 	strbvc	r6, [ip, #-878]!	; 0x36e
     294:	642f6564 	strtvs	r6, [pc], #-1380	; 29c <_back_addr-0x14ffd64>
     298:	6f627276 	svcvs	0x00627276
     29c:	695f746f 	ldmdbvs	pc, {r0, r1, r2, r3, r5, r6, sl, ip, sp, lr}^	; <UNPREDICTABLE>
     2a0:	0000636e 	andeq	r6, r0, lr, ror #6
     2a4:	73756665 	cmnvc	r5, #105906176	; 0x6500000
     2a8:	69616d65 	stmdbvs	r1!, {r0, r2, r5, r6, r8, sl, fp, sp, lr}^
     2ac:	00632e6e 	rsbeq	r2, r3, lr, ror #28
     2b0:	73000000 	movwvc	r0, #0
     2b4:	65647379 	strbvs	r7, [r4, #-889]!	; 0x379
     2b8:	682e7366 	stmdavs	lr!, {r1, r2, r5, r6, r8, r9, ip, sp, lr}
     2bc:	00000100 	andeq	r0, r0, r0, lsl #2
     2c0:	6c697475 	cfstrdvs	mvd7, [r9], #-468	; 0xfffffe2c
     2c4:	0200682e 	andeq	r6, r0, #3014656	; 0x2e0000
     2c8:	00000000 	andeq	r0, r0, r0
     2cc:	02d00205 	sbcseq	r0, r0, #1342177280	; 0x50000000
     2d0:	26030150 			; <UNDEFINED> instruction: 0x26030150
     2d4:	304d1401 	subcc	r1, sp, r1, lsl #8
     2d8:	49831668 	stmibmi	r3, {r3, r5, r6, r9, sl, ip}
     2dc:	2e09034e 	cdpcs	3, 0, cr0, cr9, cr14, {2}
     2e0:	4fd14b16 	svcmi	0x00d14b16
     2e4:	02040200 	andeq	r0, r4, #0, 4
     2e8:	322a8681 	eorcc	r8, sl, #135266304	; 0x8100000
     2ec:	2e0a0331 	mcrcs	3, 0, r0, cr10, cr1, {1}
     2f0:	034a7603 	movteq	r7, #42499	; 0xa603
     2f4:	67322e0a 	ldrvs	r2, [r2, -sl, lsl #28]!
     2f8:	03306b69 	teqeq	r0, #107520	; 0x1a400
     2fc:	18034a68 	stmdane	r3, {r3, r5, r6, r9, fp, lr}
     300:	036a694a 	cmneq	sl, #1212416	; 0x128000
     304:	1e038262 	cdpne	2, 0, cr8, cr3, cr2, {3}
     308:	0330d766 	teqeq	r0, #26738688	; 0x1980000
     30c:	52036636 	andpl	r6, r3, #56623104	; 0x3600000
     310:	5f034666 	svcpl	0x00034666
     314:	66260366 	strtvs	r0, [r6], -r6, ror #6
     318:	36832ff1 			; <UNDEFINED> instruction: 0x36832ff1
     31c:	03665203 	cmneq	r6, #805306368	; 0x30000000
     320:	2f699e31 	svccs	0x00699e31
     324:	6b504c32 	blvs	14133f4 <_back_addr-0xecc0c>
     328:	2f4b2f9d 	svccs	0x004b2f9d
     32c:	4a44034c 	bmi	1101064 <_back_addr-0x3fef9c>
     330:	00c5032d 	sbceq	r0, r5, sp, lsr #6
     334:	666b0366 	strbtvs	r0, [fp], -r6, ror #6
     338:	2e0e0368 	cdpcs	3, 0, cr0, cr14, cr8, {3}
     33c:	16821b03 	strne	r1, [r2], r3, lsl #22
     340:	4b32454b 	blmi	c91874 <_back_addr-0x86e78c>
     344:	304b2f2f 	subcc	r2, fp, pc, lsr #30
     348:	302c302f 	eorcc	r3, ip, pc, lsr #32
     34c:	0004024c 	andeq	r0, r4, ip, asr #4
     350:	03910101 	orrseq	r0, r1, #1073741824	; 0x40000000
     354:	00020000 	andeq	r0, r2, r0
     358:	00000126 	andeq	r0, r0, r6, lsr #2
     35c:	0efb0102 	cdpeq	1, 15, cr0, cr11, cr2, {0}
     360:	0101000d 	tsteq	r1, sp
     364:	00000101 	andeq	r0, r0, r1, lsl #2
     368:	00000100 	andeq	r0, r0, r0, lsl #2
     36c:	636e6901 	cmnvs	lr, #16384	; 0x4000
     370:	6564756c 	strbvs	r7, [r4, #-1388]!	; 0x56c
     374:	7276642f 	rsbsvc	r6, r6, #788529152	; 0x2f000000
     378:	746f6f62 	strbtvc	r6, [pc], #-3938	; 380 <_back_addr-0x14ffc80>
     37c:	636e695f 	cmnvs	lr, #1556480	; 0x17c000
     380:	6f682f00 	svcvs	0x00682f00
     384:	6c2f656d 	cfstr32vs	mvfx6, [pc], #-436	; 1d8 <_back_addr-0x14ffe28>
     388:	7369756f 	cmnvc	r9, #465567744	; 0x1bc00000
     38c:	6e61682f 	cdpvs	8, 6, cr6, cr1, cr15, {1}
     390:	796b2f6b 	stmdbvc	fp!, {r0, r1, r3, r5, r6, r8, r9, sl, fp, sp}^
     394:	2f6e696c 	svccs	0x006e696c
     398:	746f6f62 	strbtvc	r6, [pc], #-3938	; 3a0 <_back_addr-0x14ffc60>
     39c:	65646f63 	strbvs	r6, [r4, #-3939]!	; 0xf63
     3a0:	6f62752f 	svcvs	0x0062752f
     3a4:	652f746f 	strvs	r7, [pc, #-1135]!	; ffffff3d <__bss_end__+0xfeaec3fd>
     3a8:	706d6178 	rsbvc	r6, sp, r8, ror r1
     3ac:	2f73656c 	svccs	0x0073656c
     3b0:	73756665 	cmnvc	r5, #105906176	; 0x6500000
     3b4:	72705f65 	rsbsvc	r5, r0, #404	; 0x194
     3b8:	6172676f 	cmnvs	r2, pc, ror #14
     3bc:	72656d6d 	rsbvc	r6, r5, #6976	; 0x1b40
     3c0:	2f2e2e2f 	svccs	0x002e2e2f
     3c4:	692f2e2e 	stmdbvs	pc!, {r1, r2, r3, r5, r9, sl, fp, sp}	; <UNPREDICTABLE>
     3c8:	756c636e 	strbvc	r6, [ip, #-878]!	; 0x36e
     3cc:	612f6564 	teqvs	pc, r4, ror #10
     3d0:	2f006d73 	svccs	0x00006d73
     3d4:	656d6f68 	strbvs	r6, [sp, #-3944]!	; 0xf68
     3d8:	756f6c2f 	strbvc	r6, [pc, #-3119]!	; fffff7b1 <__bss_end__+0xfeaebc71>
     3dc:	682f7369 	stmdavs	pc!, {r0, r3, r5, r6, r8, r9, ip, sp, lr}	; <UNPREDICTABLE>
     3e0:	2f6b6e61 	svccs	0x006b6e61
     3e4:	696c796b 	stmdbvs	ip!, {r0, r1, r3, r5, r6, r8, fp, ip, sp, lr}^
     3e8:	6f622f6e 	svcvs	0x00622f6e
     3ec:	6f63746f 	svcvs	0x0063746f
     3f0:	752f6564 	strvc	r6, [pc, #-1380]!	; fffffe94 <__bss_end__+0xfeaec354>
     3f4:	746f6f62 	strbtvc	r6, [pc], #-3938	; 3fc <_back_addr-0x14ffc04>
     3f8:	6178652f 	cmnvs	r8, pc, lsr #10
     3fc:	656c706d 	strbvs	r7, [ip, #-109]!	; 0x6d
     400:	66652f73 	uqsub16vs	r2, r5, r3
     404:	5f657375 	svcpl	0x00657375
     408:	676f7270 			; <UNDEFINED> instruction: 0x676f7270
     40c:	6d6d6172 	stfvse	f6, [sp, #-456]!	; 0xfffffe38
     410:	692f7265 	stmdbvs	pc!, {r0, r2, r5, r6, r9, ip, sp, lr}	; <UNPREDICTABLE>
     414:	756c636e 	strbvc	r6, [ip, #-878]!	; 0x36e
     418:	642f6564 	strtvs	r6, [pc], #-1380	; 420 <_back_addr-0x14ffbe0>
     41c:	6f627276 	svcvs	0x00627276
     420:	695f746f 	ldmdbvs	pc, {r0, r1, r2, r3, r5, r6, sl, ip, sp, lr}^	; <UNPREDICTABLE>
     424:	0000636e 	andeq	r6, r0, lr, ror #6
     428:	73756665 	cmnvc	r5, #105906176	; 0x6500000
     42c:	00632e65 	rsbeq	r2, r3, r5, ror #28
     430:	69000000 	stmdbvs	r0, {}	; <UNPREDICTABLE>
     434:	00682e6f 	rsbeq	r2, r8, pc, ror #28
     438:	6f000001 	svcvs	0x00000001
     43c:	725f7074 	subsvc	r7, pc, #116	; 0x74
     440:	682e6765 	stmdavs	lr!, {r0, r2, r5, r6, r8, r9, sl, sp, lr}
     444:	00000000 	andeq	r0, r0, r0
     448:	65707974 	ldrbvs	r7, [r0, #-2420]!	; 0x974
     44c:	00682e73 	rsbeq	r2, r8, r3, ror lr
     450:	74000002 	strvc	r0, [r0], #-2
     454:	73657079 	cmnvc	r5, #121	; 0x79
     458:	0000682e 	andeq	r6, r0, lr, lsr #16
     45c:	74630000 	strbtvc	r0, [r3], #-0
     460:	2e657079 	mcrcs	0, 3, r7, cr5, cr9, {3}
     464:	00030068 	andeq	r0, r3, r8, rrx
     468:	6d697400 	cfstrdvs	mvd7, [r9, #-0]
     46c:	682e7265 	stmdavs	lr!, {r0, r2, r5, r6, r9, ip, sp, lr}
     470:	00000100 	andeq	r0, r0, r0, lsl #2
     474:	6d6d6f63 	stclvs	15, cr6, [sp, #-396]!	; 0xfffffe74
     478:	2e646e61 	cdpcs	14, 6, cr6, cr4, cr1, {3}
     47c:	00000068 	andeq	r0, r0, r8, rrx
     480:	05000000 	streq	r0, [r0, #-0]
     484:	50058402 	andpl	r8, r5, r2, lsl #8
     488:	00f40301 	rscseq	r0, r4, r1, lsl #6
     48c:	09036601 	stmdbeq	r3, {r0, r9, sl, sp, lr}
     490:	2f4b4b66 	svccs	0x004b4b66
     494:	2e12034c 	cdpcs	3, 1, cr0, cr2, cr12, {2}
     498:	2f2e6e03 	svccs	0x002e6e03
     49c:	4a1103dd 	bmi	441418 <_back_addr-0x10bebe8>
     4a0:	034a6f03 	movteq	r6, #44803	; 0xaf03
     4a4:	7603f20a 	strvc	pc, [r3], -sl, lsl #4
     4a8:	2e0d032e 	cdpcs	3, 0, cr0, cr13, cr14, {1}
     4ac:	302e7303 	eorcc	r7, lr, r3, lsl #6
     4b0:	4b30492f 	blmi	c12974 <_back_addr-0x8ed68c>
     4b4:	4c4c2c30 	mcrrmi	12, 3, r2, ip, cr0
     4b8:	0331652f 	teqeq	r1, #197132288	; 0xbc00000
     4bc:	0c034a74 	stceq	10, cr4, [r3], {116}	; 0x74
     4c0:	2e74032e 	cdpcs	3, 7, cr0, cr4, cr14, {1}
     4c4:	032e0d03 	teqeq	lr, #3, 26	; 0xc0
     4c8:	11032e73 	tstne	r3, r3, ror lr
     4cc:	003e0866 	eorseq	r0, lr, r6, ror #16
     4d0:	65010402 	strvs	r0, [r1, #-1026]	; 0x402
     4d4:	02040200 	andeq	r0, r4, #0, 4
     4d8:	30814b49 	addcc	r4, r1, r9, asr #22
     4dc:	2c304e2c 	ldccs	14, cr4, [r0], #-176	; 0xffffff50
     4e0:	2b892f68 	blcs	fe24c288 <__bss_end__+0xfcd38748>
     4e4:	4d2d2c31 	stcmi	12, cr2, [sp, #-196]!	; 0xffffff3c
     4e8:	032e5903 	teqeq	lr, #49152	; 0xc000
     4ec:	032f4a2b 	teqeq	pc, #176128	; 0x2b000
     4f0:	32884a76 	addcc	r4, r8, #483328	; 0x76000
     4f4:	4a02d003 	bmi	b4508 <_back_addr-0x144baf8>
     4f8:	082e0c03 	stmdaeq	lr!, {r0, r1, sl, fp}
     4fc:	04020021 	streq	r0, [r2], #-33	; 0x21
     500:	0200a303 	andeq	sl, r0, #201326592	; 0xc000000
     504:	509c0304 	addspl	r0, ip, r4, lsl #6
     508:	040200bb 	streq	r0, [r2], #-187	; 0xbb
     50c:	0200a103 	andeq	sl, r0, #-1073741824	; 0xc0000000
     510:	509c0304 	addspl	r0, ip, r4, lsl #6
     514:	302f1685 	eorcc	r1, pc, r5, lsl #13
     518:	044b302f 	strbeq	r3, [fp], #-47	; 0x2f
     51c:	7ca00302 	stcvc	3, cr0, [r0], #8
     520:	0301042e 	movweq	r0, #5166	; 0x142e
     524:	4b2e03e0 	blmi	b814ac <_back_addr-0x97eb54>
     528:	4a7ecc03 	bmi	1fb353c <__bss_end__+0xa9f9fc>
     52c:	302f4b33 	eorcc	r4, pc, r3, lsr fp	; <UNPREDICTABLE>
     530:	034d302c 	movteq	r3, #53292	; 0xd02c
     534:	164a01ab 	strbne	r0, [sl], -fp, lsr #3
     538:	b3030204 	movwlt	r0, #12804	; 0x3204
     53c:	01042e7c 	tsteq	r4, ip, ror lr
     540:	4a03cc03 	bmi	f3554 <_back_addr-0x140caac>
     544:	99030204 	stmdbls	r3, {r2, r9}
     548:	01042e7c 	tsteq	r4, ip, ror lr
     54c:	2e03ef03 	cdpcs	15, 0, cr14, cr3, cr3, {0}
     550:	ac030204 	sfmge	f0, 4, [r3], {4}
     554:	0200667c 	andeq	r6, r0, #124, 12	; 0x7c00000
     558:	65030104 	strvs	r0, [r3, #-260]	; 0x104
     55c:	0001042e 	andeq	r0, r1, lr, lsr #8
     560:	03010402 	movweq	r0, #5122	; 0x1402
     564:	4c6603f1 	stclmi	3, cr0, [r6], #-964	; 0xfffffc3c
     568:	2e6f0330 	mcrcs	3, 3, r0, cr15, cr0, {1}
     56c:	b7030204 	strlt	r0, [r3, -r4, lsl #4]
     570:	01042e7c 	tsteq	r4, ip, ror lr
     574:	2e03da03 	vmlacs.f32	s26, s6, s6
     578:	02044d35 	andeq	r4, r4, #3392	; 0xd40
     57c:	017c8103 	cmneq	ip, r3, lsl #2
     580:	ff030104 			; <UNDEFINED> instruction: 0xff030104
     584:	02044a03 	andeq	r4, r4, #12288	; 0x3000
     588:	2e7c8103 	expcse	f0, f3
     58c:	8b030104 	blhi	c09a4 <_back_addr-0x143f65c>
     590:	02042e04 	andeq	r2, r4, #4, 28	; 0x40
     594:	2e7c9003 	cdpcs	0, 7, cr9, cr12, cr3, {0}
     598:	f0030104 			; <UNDEFINED> instruction: 0xf0030104
     59c:	03356603 	teqeq	r5, #3145728	; 0x300000
     5a0:	2e4a7cdd 	mcrcs	12, 2, r7, cr10, cr13, {6}
     5a4:	034a0d03 	movteq	r0, #44291	; 0xad03
     5a8:	0d032e73 	stceq	14, cr2, [r3, #-460]	; 0xfffffe34
     5ac:	0200302e 	andeq	r3, r0, #46	; 0x2e
     5b0:	9e060204 	cdpls	2, 0, cr0, cr6, cr4, {0}
     5b4:	2f2d8906 	svccs	0x002d8906
     5b8:	76034c2f 	strvc	r4, [r3], -pc, lsr #24
     5bc:	2e0a032e 	cdpcs	3, 0, cr0, cr10, cr14, {1}
     5c0:	032e7603 	teqeq	lr, #3145728	; 0x300000
     5c4:	352a661a 	strcc	r6, [sl, #-1562]!	; 0x61a
     5c8:	30698432 	rsbcc	r8, r9, r2, lsr r4
     5cc:	0b039c89 	bleq	e77f8 <_back_addr-0x1418808>
     5d0:	032f2c2e 	teqeq	pc, #11776	; 0x2e00
     5d4:	134a01c1 	movtne	r0, #41409	; 0xa1c1
     5d8:	09032f2d 	stmdbeq	r3, {r0, r2, r3, r5, r8, r9, sl, fp, sp}
     5dc:	75038782 	strvc	r8, [r3, #-1922]	; 0x782
     5e0:	820b034a 	andhi	r0, fp, #671088641	; 0x28000001
     5e4:	8a4a7803 	bhi	129e5f8 <_back_addr-0x261a08>
     5e8:	03842fa1 	orreq	r2, r4, #644	; 0x284
     5ec:	32667ec3 	rsbcc	r7, r6, #3120	; 0xc30
     5f0:	4c304b4b 	ldcmi	11, cr4, [r0], #-300	; 0xfffffed4
     5f4:	304b4b32 	subcc	r4, fp, r2, lsr fp
     5f8:	4b4b324c 	blmi	12ccf30 <_back_addr-0x2330d0>
     5fc:	4b324d30 	blmi	c93ac4 <_back_addr-0x86c53c>
     600:	324d304b 	subcc	r3, sp, #75	; 0x4b
     604:	03304b4b 	teqeq	r0, #76800	; 0x12c00
     608:	2f4a018e 	svccs	0x004a018e
     60c:	2f2f3031 	svccs	0x002f3031
     610:	ec032d30 	stc	13, cr2, [r3], {48}	; 0x30
     614:	4b322e7e 	blmi	c8c014 <_back_addr-0x873fec>
     618:	324d304b 	subcc	r3, sp, #75	; 0x4b
     61c:	4d304b4b 	fldmdbxmi	r0!, {d4-d40}	;@ Deprecated
     620:	304b4b32 	subcc	r4, fp, r2, lsr fp
     624:	4b4b324c 	blmi	12ccf5c <_back_addr-0x2330a4>
     628:	4a110330 	bmi	4412f0 <_back_addr-0x10bed10>
     62c:	2f2e4913 	svccs	0x002e4913
     630:	51514d34 	cmppl	r1, r4, lsr sp
     634:	2e69034c 	cdpcs	3, 6, cr0, cr9, cr12, {2}
     638:	4a120367 	bmi	4813dc <_back_addr-0x107ec24>
     63c:	4c667903 	stclmi	9, cr7, [r6], #-12
     640:	13660c03 	cmnne	r6, #768	; 0x300
     644:	342f2e49 	strtcc	r2, [pc], #-3657	; 64c <_back_addr-0x14ff9b4>
     648:	4c51514d 	ldfmie	f5, [r1], {77}	; 0x4d
     64c:	672e6903 	strvs	r6, [lr, -r3, lsl #18]!
     650:	034a1203 	movteq	r1, #41475	; 0xa203
     654:	034c6679 	movteq	r6, #50809	; 0xc679
     658:	bb2f6631 	bllt	bd9f24 <_back_addr-0x9260dc>
     65c:	84838383 	strhi	r8, [r3], #899	; 0x383
     660:	2f2f2f2f 	svccs	0x002f2f2f
     664:	4b4b2f2f 	blmi	12cc328 <_back_addr-0x233cd8>
     668:	e7034d4b 	str	r4, [r3, -fp, asr #26]
     66c:	2c174a00 	ldccs	10, cr4, [r7], {-0}
     670:	03020430 	movweq	r0, #9264	; 0x2430
     674:	044a7be1 	strbeq	r7, [sl], #-3041	; 0xbe1
     678:	049a0301 	ldreq	r0, [sl], #769	; 0x301
     67c:	0302044a 	movweq	r0, #9290	; 0x244a
     680:	04827be9 	streq	r7, [r2], #3049	; 0xbe9
     684:	049e0301 	ldreq	r0, [lr], #769	; 0x301
     688:	02042c4a 	andeq	r2, r4, #18944	; 0x4a00
     68c:	03040200 	movweq	r0, #16896	; 0x4200
     690:	667be103 	ldrbtvs	lr, [fp], -r3, lsl #2
     694:	042b31a0 	strteq	r3, [fp], #-416	; 0x1a0
     698:	049f0301 	ldreq	r0, [pc], #769	; 6a0 <_back_addr-0x14ff960>
     69c:	854f482e 	strbhi	r4, [pc, #-2094]	; fffffe76 <__bss_end__+0xfeaec336>
     6a0:	032f2d1a 	teqeq	pc, #1664	; 0x680
     6a4:	02002e78 	andeq	r2, r0, #120, 28	; 0x780
     6a8:	0a030304 	beq	c12c0 <_back_addr-0x143ed40>
     6ac:	0402004a 	streq	r0, [r2], #-74	; 0x4a
     6b0:	02002f03 	andeq	r2, r0, #3, 30
     6b4:	004b0304 	subeq	r0, fp, r4, lsl #6
     6b8:	2f030402 	svccs	0x00030402
     6bc:	02000204 	andeq	r0, r0, #4, 4	; 0x40000000
     6c0:	d1030304 	tstle	r3, r4, lsl #6
     6c4:	0104667b 	tsteq	r4, fp, ror r6
     6c8:	03040200 	movweq	r0, #16896	; 0x4200
     6cc:	2e04af03 	cdpcs	15, 0, cr10, cr4, cr3, {0}
     6d0:	03040200 	movweq	r0, #16896	; 0x4200
     6d4:	87035245 	strhi	r5, [r3, -r5, asr #4]
     6d8:	8930827d 	ldmdbhi	r0!, {r0, r2, r3, r4, r5, r6, r9, pc}
     6dc:	2e0b0380 	cdpcs	3, 0, cr0, cr11, cr0, {4}
     6e0:	04024b64 	streq	r4, [r2], #-2916	; 0xb64
     6e4:	c4010100 	strgt	r0, [r1], #-256	; 0x100
     6e8:	02000004 	andeq	r0, r0, #4
     6ec:	00017200 	andeq	r7, r1, r0, lsl #4
     6f0:	fb010200 	blx	40efa <_back_addr-0x14bf106>
     6f4:	01000d0e 	tsteq	r0, lr, lsl #26
     6f8:	00010101 	andeq	r0, r1, r1, lsl #2
     6fc:	00010000 	andeq	r0, r1, r0
     700:	6e690100 	powvse	f0, f1, f0
     704:	64756c63 	ldrbtvs	r6, [r5], #-3171	; 0xc63
     708:	76642f65 	strbtvc	r2, [r4], -r5, ror #30
     70c:	6f6f6272 	svcvs	0x006f6272
     710:	6e695f74 	mcrvs	15, 3, r5, cr9, cr4, {3}
     714:	682f0063 	stmdavs	pc!, {r0, r1, r5, r6}	; <UNPREDICTABLE>
     718:	2f656d6f 	svccs	0x00656d6f
     71c:	69756f6c 	ldmdbvs	r5!, {r2, r3, r5, r6, r8, r9, sl, fp, sp, lr}^
     720:	61682f73 	smcvs	33523	; 0x82f3
     724:	6b2f6b6e 	blvs	bdb4e4 <_back_addr-0x924b1c>
     728:	6e696c79 	mcrvs	12, 3, r6, cr9, cr9, {3}
     72c:	6f6f622f 	svcvs	0x006f622f
     730:	646f6374 	strbtvs	r6, [pc], #-884	; 738 <_back_addr-0x14ff8c8>
     734:	62752f65 	rsbsvs	r2, r5, #404	; 0x194
     738:	2f746f6f 	svccs	0x00746f6f
     73c:	6d617865 	stclvs	8, cr7, [r1, #-404]!	; 0xfffffe6c
     740:	73656c70 	cmnvc	r5, #112, 24	; 0x7000
     744:	7566652f 	strbvc	r6, [r6, #-1327]!	; 0x52f
     748:	705f6573 	subsvc	r6, pc, r3, ror r5	; <UNPREDICTABLE>
     74c:	72676f72 	rsbvc	r6, r7, #456	; 0x1c8
     750:	656d6d61 	strbvs	r6, [sp, #-3425]!	; 0xd61
     754:	2e2e2f72 	mcrcs	15, 1, r2, cr14, cr2, {3}
     758:	2f2e2e2f 	svccs	0x002e2e2f
     75c:	6c636e69 	stclvs	14, cr6, [r3], #-420	; 0xfffffe5c
     760:	2f656475 	svccs	0x00656475
     764:	006d7361 	rsbeq	r7, sp, r1, ror #6
     768:	6d6f682f 	stclvs	8, cr6, [pc, #-188]!	; 6b4 <_back_addr-0x14ff94c>
     76c:	6f6c2f65 	svcvs	0x006c2f65
     770:	2f736975 	svccs	0x00736975
     774:	6b6e6168 	blvs	1b98d1c <__bss_end__+0x6851dc>
     778:	6c796b2f 	ldclvs	11, cr6, [r9], #-188	; 0xffffff44
     77c:	622f6e69 	eorvs	r6, pc, #1680	; 0x690
     780:	63746f6f 	cmnvs	r4, #444	; 0x1bc
     784:	2f65646f 	svccs	0x0065646f
     788:	6f6f6275 	svcvs	0x006f6275
     78c:	78652f74 	stmdavc	r5!, {r2, r4, r5, r6, r8, r9, sl, fp, sp}^
     790:	6c706d61 	ldclvs	13, cr6, [r0], #-388	; 0xfffffe7c
     794:	652f7365 	strvs	r7, [pc, #-869]!	; 437 <_back_addr-0x14ffbc9>
     798:	65737566 	ldrbvs	r7, [r3, #-1382]!	; 0x566
     79c:	6f72705f 	svcvs	0x0072705f
     7a0:	6d617267 	sfmvs	f7, 2, [r1, #-412]!	; 0xfffffe64
     7a4:	2f72656d 	svccs	0x0072656d
     7a8:	2e2f2e2e 	cdpcs	14, 2, cr2, cr15, cr14, {1}
     7ac:	6e692f2e 	cdpvs	15, 6, cr2, cr9, cr14, {1}
     7b0:	64756c63 	ldrbtvs	r6, [r5], #-3171	; 0xc63
     7b4:	696c2f65 	stmdbvs	ip!, {r0, r2, r5, r6, r8, r9, sl, fp, sp}^
     7b8:	0078756e 	rsbseq	r7, r8, lr, ror #10
     7bc:	6d6f682f 	stclvs	8, cr6, [pc, #-188]!	; 708 <_back_addr-0x14ff8f8>
     7c0:	6f6c2f65 	svcvs	0x006c2f65
     7c4:	2f736975 	svccs	0x00736975
     7c8:	6b6e6168 	blvs	1b98d70 <__bss_end__+0x685230>
     7cc:	6c796b2f 	ldclvs	11, cr6, [r9], #-188	; 0xffffff44
     7d0:	622f6e69 	eorvs	r6, pc, #1680	; 0x690
     7d4:	63746f6f 	cmnvs	r4, #444	; 0x1bc
     7d8:	2f65646f 	svccs	0x0065646f
     7dc:	6f6f6275 	svcvs	0x006f6275
     7e0:	78652f74 	stmdavc	r5!, {r2, r4, r5, r6, r8, r9, sl, fp, sp}^
     7e4:	6c706d61 	ldclvs	13, cr6, [r0], #-388	; 0xfffffe7c
     7e8:	652f7365 	strvs	r7, [pc, #-869]!	; 48b <_back_addr-0x14ffb75>
     7ec:	65737566 	ldrbvs	r7, [r3, #-1382]!	; 0x566
     7f0:	6f72705f 	svcvs	0x0072705f
     7f4:	6d617267 	sfmvs	f7, 2, [r1, #-412]!	; 0xfffffe64
     7f8:	2f72656d 	svccs	0x0072656d
     7fc:	2e2f2e2e 	cdpcs	14, 2, cr2, cr15, cr14, {1}
     800:	6e692f2e 	cdpvs	15, 6, cr2, cr9, cr14, {1}
     804:	64756c63 	ldrbtvs	r6, [r5], #-3171	; 0xc63
     808:	6d000065 	stcvs	0, cr0, [r0, #-404]	; 0xfffffe6c
     80c:	632e7063 	teqvs	lr, #99	; 0x63
     810:	00000000 	andeq	r0, r0, r0
     814:	682e6f69 	stmdavs	lr!, {r0, r3, r5, r6, r8, r9, sl, fp, sp, lr}
     818:	00000100 	andeq	r0, r0, r0, lsl #2
     81c:	69736f70 	ldmdbvs	r3!, {r4, r5, r6, r8, r9, sl, fp, sp, lr}^
     820:	79745f78 	ldmdbvc	r4!, {r3, r4, r5, r6, r8, r9, sl, fp, ip, lr}^
     824:	2e736570 	mrccs	5, 3, r6, cr3, cr0, {3}
     828:	00020068 	andeq	r0, r2, r8, rrx
     82c:	70797400 	rsbsvc	r7, r9, r0, lsl #8
     830:	682e7365 	stmdavs	lr!, {r0, r2, r5, r6, r8, r9, ip, sp, lr}
     834:	00000300 	andeq	r0, r0, r0, lsl #6
     838:	2e70636d 	cdpcs	3, 7, cr6, cr0, cr13, {3}
     83c:	00000068 	andeq	r0, r0, r8, rrx
     840:	6d6f6300 	stclvs	3, cr6, [pc, #-0]	; 848 <_back_addr-0x14ff7b8>
     844:	2e6e6f6d 	cdpcs	15, 6, cr6, cr14, cr13, {3}
     848:	00040068 	andeq	r0, r4, r8, rrx
     84c:	74656e00 	strbtvc	r6, [r5], #-3584	; 0xe00
     850:	0400682e 	streq	r6, [r0], #-2094	; 0x82e
     854:	74730000 	ldrbtvc	r0, [r3], #-0
     858:	676e6972 			; <UNDEFINED> instruction: 0x676e6972
     85c:	0300682e 	movweq	r6, #2094	; 0x82e
     860:	00000000 	andeq	r0, r0, r0
     864:	0e100205 	cdpeq	2, 1, cr0, cr0, cr5, {0}
     868:	ae030150 	fltgesm	f3, r0
     86c:	0b030105 	bleq	c0c88 <_back_addr-0x143f378>
     870:	305a082e 	subscc	r0, sl, lr, lsr #16
     874:	834e3064 	movthi	r3, #57444	; 0xe064
     878:	032e0d03 	teqeq	lr, #3, 26	; 0xc0
     87c:	0d032e73 	stceq	14, cr2, [r3, #-460]	; 0xfffffe34
     880:	2e0f034a 	cdpcs	3, 0, cr0, cr15, cr10, {2}
     884:	87030204 	strhi	r0, [r3, -r4, lsl #4]
     888:	6503017b 	strvs	r0, [r3, #-379]	; 0x17b
     88c:	2e1b0366 	cdpcs	3, 1, cr0, cr11, cr6, {3}
     890:	044a6503 	strbeq	r6, [sl], #-1283	; 0x503
     894:	05990301 	ldreq	r0, [r9, #769]	; 0x301
     898:	0402002e 	streq	r0, [r2], #-46	; 0x2e
     89c:	2f524902 	svccs	0x00524902
     8a0:	2e7ea503 	cdpcs	5, 7, cr10, cr14, cr3, {0}
     8a4:	4a790319 	bmi	1e41510 <__bss_end__+0x92d9d0>
     8a8:	d5030204 	strle	r0, [r3, #-516]	; 0x204
     8ac:	01042e7c 	tsteq	r4, ip, ror lr
     8b0:	6603c003 	strvs	ip, [r3], -r3
     8b4:	c0030204 	andgt	r0, r3, r4, lsl #4
     8b8:	01042e7c 	tsteq	r4, ip, ror lr
     8bc:	6603c203 	strvs	ip, [r3], -r3, lsl #4
     8c0:	be030204 	cdplt	2, 0, cr0, cr3, cr4, {0}
     8c4:	01042e7c 	tsteq	r4, ip, ror lr
     8c8:	2e03c403 	cdpcs	4, 0, cr12, cr3, cr3, {0}
     8cc:	bc030204 	sfmlt	f0, 4, [r3], {4}
     8d0:	01042e7c 	tsteq	r4, ip, ror lr
     8d4:	9e03c403 	cdpls	4, 0, cr12, cr3, cr3, {0}
     8d8:	2e00cf03 	cdpcs	15, 0, cr12, cr0, cr3, {0}
     8dc:	0302042f 	movweq	r0, #9263	; 0x242f
     8e0:	042e7bec 	strteq	r7, [lr], #-3052	; 0xbec
     8e4:	04980301 	ldreq	r0, [r8], #769	; 0x301
     8e8:	0302044a 	movweq	r0, #9290	; 0x244a
     8ec:	042e7bcd 	strteq	r7, [lr], #-3021	; 0xbcd
     8f0:	04b50301 	ldrteq	r0, [r5], #769	; 0x301
     8f4:	0e03a02e 	cdpeq	0, 0, cr10, cr3, cr14, {1}
     8f8:	02044b4a 	andeq	r4, r4, #75776	; 0x12800
     8fc:	2e7bba03 	vaddcs.f32	s23, s22, s6
     900:	b5030104 	strlt	r0, [r3, #-260]	; 0x104
     904:	02046604 	andeq	r6, r4, #4, 12	; 0x400000
     908:	4a7bcb03 	bmi	1ef351c <__bss_end__+0x9df9dc>
     90c:	d3030104 	movwle	r0, #12548	; 0x3104
     910:	2d2f6604 	stccs	6, cr6, [pc, #-16]!	; 908 <_back_addr-0x14ff6f8>
     914:	c8030204 	stmdagt	r3, {r2, r9}
     918:	65032e7b 	strvs	r2, [r3, #-3707]	; 0xe7b
     91c:	030104d6 	movweq	r0, #5334	; 0x14d6
     920:	042e04d8 	strteq	r0, [lr], #-1240	; 0x4d8
     924:	7bc30302 	blvc	ff0c1534 <__bss_end__+0xfdbad9f4>
     928:	03010482 	movweq	r0, #5250	; 0x1482
     92c:	046604a8 	strbteq	r0, [r6], #-1192	; 0x4a8
     930:	7bd80302 	blvc	ff601540 <__bss_end__+0xfe0eda00>
     934:	0301042e 	movweq	r0, #5166	; 0x142e
     938:	034a03b3 	movteq	r0, #41907	; 0xa3b3
     93c:	1a4a7caf 	bne	129fc00 <_back_addr-0x260400>
     940:	0302044d 	movweq	r0, #9293	; 0x244d
     944:	01044a73 	tsteq	r4, r3, ror sl
     948:	664a0d03 	strbvs	r0, [sl], -r3, lsl #26
     94c:	02000204 	andeq	r0, r0, #4, 4	; 0x40000000
     950:	73030304 	movwvc	r0, #13060	; 0x3304
     954:	01044d4a 	tsteq	r4, sl, asr #26
     958:	2f660d03 	svccs	0x00660d03
     95c:	0302042d 	movweq	r0, #9261	; 0x242d
     960:	03852e70 	orreq	r2, r5, #112, 28	; 0x700
     964:	03692e18 	cmneq	r9, #24, 28	; 0x180
     968:	03692e62 	cmneq	r9, #1568	; 0x620
     96c:	03852e18 	orreq	r2, r5, #24, 28	; 0x180
     970:	03694a62 	cmneq	r9, #401408	; 0x62000
     974:	03852e18 	orreq	r2, r5, #24, 28	; 0x180
     978:	03694a62 	cmneq	r9, #401408	; 0x62000
     97c:	47852e18 	usada8mi	r5, r8, lr, r2
     980:	04290104 	strteq	r0, [r9], #-260	; 0x104
     984:	2b313302 	blcs	c4d594 <_back_addr-0x8b2a6c>
     988:	042a0104 	strteq	r0, [sl], #-260	; 0x104
     98c:	2b313202 	blcs	c4d19c <_back_addr-0x8b2e64>
     990:	042b0104 	strteq	r0, [fp], #-260	; 0x104
     994:	2b313102 	blcs	c4cda4 <_back_addr-0x8b325c>
     998:	042c0104 	strteq	r0, [ip], #-260	; 0x104
     99c:	01043002 	tsteq	r4, r2
     9a0:	3002042f 	andcc	r0, r2, pc, lsr #8
     9a4:	042c0104 	strteq	r0, [ip], #-260	; 0x104
     9a8:	9e660302 	cdpls	3, 6, cr0, cr6, cr2, {0}
     9ac:	1b032b31 	blne	cb678 <_back_addr-0x1434988>
     9b0:	042b694a 	strteq	r6, [fp], #-2378	; 0x94a
     9b4:	02042d01 	andeq	r2, r4, #1, 26	; 0x40
     9b8:	a12b6967 	teqge	fp, r7, ror #18
     9bc:	a12ba12b 	teqge	fp, fp, lsr #2
     9c0:	4a65032b 	bmi	1941674 <__bss_end__+0x42db34>
     9c4:	1b032b69 	blne	cb770 <_back_addr-0x1434890>
     9c8:	032b694a 	teqeq	fp, #1212416	; 0x128000
     9cc:	2b694a65 	blcs	1a53368 <__bss_end__+0x53f828>
     9d0:	694a1b03 	stmdbvs	sl, {r0, r1, r8, r9, fp, ip}^
     9d4:	4a65032b 	bmi	1941688 <__bss_end__+0x42db48>
     9d8:	1b032b69 	blne	cb784 <_back_addr-0x143487c>
     9dc:	032b694a 	teqeq	fp, #1212416	; 0x128000
     9e0:	2b694a65 	blcs	1a5337c <__bss_end__+0x53f83c>
     9e4:	1d030104 	stfnes	f0, [r3, #-16]
     9e8:	2f852e4a 	svccs	0x00852e4a
     9ec:	4b4b514d 	blmi	12d4f28 <_back_addr-0x22b0d8>
     9f0:	314c4b4b 	cmpcc	ip, fp, asr #22
     9f4:	2d302f2c 	ldccs	15, cr2, [r0, #-176]!	; 0xffffff50
     9f8:	692e7103 	stmdbvs	lr!, {r0, r1, r8, ip, sp, lr}
     9fc:	4e667a03 	vmulmi.f32	s15, s12, s6
     a00:	312e0f03 	teqcc	lr, r3, lsl #30
     a04:	4d2f852e 	cfstr32mi	mvfx8, [pc, #-184]!	; 954 <_back_addr-0x14ff6ac>
     a08:	4b4b4b51 	blmi	12d3754 <_back_addr-0x22c8ac>
     a0c:	2c314c4b 	ldccs	12, cr4, [r1], #-300	; 0xfffffed4
     a10:	032d302f 	teqeq	sp, #47	; 0x2f
     a14:	03692e71 	cmneq	r9, #1808	; 0x710
     a18:	034e667a 	movteq	r6, #59002	; 0xe67a
     a1c:	2e312e0f 	cdpcs	14, 3, cr2, cr1, cr15, {0}
     a20:	524d2f85 	subpl	r2, sp, #532	; 0x214
     a24:	4b4b4b4b 	blmi	12d3758 <_back_addr-0x22c8a8>
     a28:	2f2c314c 	svccs	0x002c314c
     a2c:	71032d30 	tstvc	r3, r0, lsr sp
     a30:	7903692e 	stmdbvc	r3, {r1, r2, r3, r5, r8, fp, sp, lr}
     a34:	0f034f82 	svceq	0x00034f82
     a38:	862e322e 	strthi	r3, [lr], -lr, lsr #4
     a3c:	09034f2f 	stmdbeq	r3, {r0, r1, r2, r3, r5, r8, r9, sl, fp, lr}
     a40:	4b4b4b4a 	blmi	12d3770 <_back_addr-0x22c890>
     a44:	2c31504b 	ldccs	0, cr5, [r1], #-300	; 0xfffffed4
     a48:	032f2f2f 	teqeq	pc, #47, 30	; 0xbc
     a4c:	79036609 	stmdbvc	r3, {r0, r3, r9, sl, sp, lr}
     a50:	9e68032e 	cdpls	3, 6, cr0, cr8, cr14, {1}
     a54:	f32f454f 	vrshl.u32	q2, <illegal reg q7.5>, <illegal reg q7.5>
     a58:	f34a7903 	vmls.i8	d23, d10, d3
     a5c:	2e4a2603 	cdpcs	6, 4, cr2, cr10, cr3, {0}
     a60:	09032f69 	stmdbeq	r3, {r0, r3, r5, r6, r8, r9, sl, fp, sp}
     a64:	2a6b2a4a 	bcs	1acb394 <__bss_end__+0x5b7854>
     a68:	32632a6b 	rsbcc	r2, r3, #438272	; 0x6b000
     a6c:	2e090362 	cdpcs	3, 0, cr0, cr9, cr2, {3}
     a70:	174e2f2d 	strbne	r2, [lr, -sp, lsr #30]
     a74:	4a780369 	bmi	1e01820 <__bss_end__+0x8edce0>
     a78:	4f2f696e 	svcmi	0x002f696e
     a7c:	6530494b 	ldrvs	r4, [r0, #-2379]!	; 0x94b
     a80:	2c4c322c 	sfmcs	f3, 2, [ip], {44}	; 0x2c
     a84:	2e09032a 	cdpcs	3, 0, cr0, cr9, cr10, {1}
     a88:	032e0903 	teqeq	lr, #49152	; 0xc000
     a8c:	034a03bc 	movteq	r0, #41916	; 0xa3bc
     a90:	03ba7cc7 			; <UNDEFINED> instruction: 0x03ba7cc7
     a94:	034a03b9 	movteq	r0, #41913	; 0xa3b9
     a98:	034a7cc7 	movteq	r7, #44231	; 0xacc7
     a9c:	082e03ba 	stmdaeq	lr!, {r1, r3, r4, r5, r7, r8, r9}
     aa0:	ba03f321 	blt	fd72c <_back_addr-0x14028d4>
     aa4:	2d20087c 	stccs	8, cr0, [r0, #-496]!	; 0xfffffe10
     aa8:	312b4d2f 	teqcc	fp, pc, lsr #26
     aac:	03312b2f 	teqeq	r1, #48128	; 0xbc00
     ab0:	5a03660d 	bpl	da2ec <_back_addr-0x1425d14>
     ab4:	6626032e 	strtvs	r0, [r6], -lr, lsr #6
     ab8:	a4631532 	strbtge	r1, [r3], #-1330	; 0x532
     abc:	4c2c4f2f 	stcmi	15, cr4, [ip], #-188	; 0xffffff44
     ac0:	4b2e0903 	blmi	b82ed4 <_back_addr-0x97d12c>
     ac4:	4d4b4b4b 	vstrmi	d20, [fp, #-300]	; 0xfffffed4
     ac8:	322f2a33 	eorcc	r2, pc, #208896	; 0x33000
     acc:	2e6d032d 	cdpcs	3, 6, cr0, cr13, cr13, {1}
     ad0:	6530494b 	ldrvs	r4, [r0, #-2379]!	; 0x94b
     ad4:	10036730 	andne	r6, r3, r0, lsr r7
     ad8:	03828582 	orreq	r8, r2, #545259520	; 0x20800000
     adc:	042f2e0a 	strteq	r2, [pc], #-3594	; ae4 <_back_addr-0x14ff51c>
     ae0:	7e8c0302 	cdpvc	3, 8, cr0, cr12, cr2, {0}
     ae4:	0301042e 	movweq	r0, #5166	; 0x142e
     ae8:	044a0285 	strbeq	r0, [sl], #-645	; 0x285
     aec:	7dfb0302 	ldclvc	3, cr0, [fp, #8]!
     af0:	0301042e 	movweq	r0, #5166	; 0x142e
     af4:	31820285 	orrcc	r0, r2, r5, lsl #5
     af8:	498486a1 	stmibmi	r4, {r0, r5, r7, r9, sl, pc}
     afc:	2f4b492f 	svccs	0x004b492f
     b00:	030204a2 	movweq	r0, #9378	; 0x24a2
     b04:	04827dea 	streq	r7, [r2], #3562	; 0xdea
     b08:	02960301 	addseq	r0, r6, #67108864	; 0x4000000
     b0c:	0302044a 	movweq	r0, #9290	; 0x244a
     b10:	03667dea 	cmneq	r6, #14976	; 0x3a80
     b14:	01042e65 	tsteq	r4, r5, ror #28
     b18:	2e02ba03 	vmlacs.f32	s22, s4, s6
     b1c:	e1030204 	tst	r3, r4, lsl #4
     b20:	65032e7d 	strvs	r2, [r3, #-3709]	; 0xe7d
     b24:	0301042e 	movweq	r0, #5166	; 0x142e
     b28:	852e02bb 	strhi	r0, [lr, #-699]!	; 0x2bb
     b2c:	0302044e 	movweq	r0, #9294	; 0x244e
     b30:	044a7dbe 	strbeq	r7, [sl], #-3518	; 0xdbe
     b34:	02bb0301 	adcseq	r0, fp, #67108864	; 0x4000000
     b38:	4a0a032e 	bmi	2817f8 <_back_addr-0x127e808>
     b3c:	67672d4b 	strbvs	r2, [r7, -fp, asr #26]!
     b40:	032f674b 	teqeq	pc, #19660800	; 0x12c0000
     b44:	03674a75 	cmneq	r7, #479232	; 0x75000
     b48:	57032e0a 	strpl	r2, [r3, -sl, lsl #28]
     b4c:	ba2b034a 	blt	ac187c <_back_addr-0xa3e784>
     b50:	2b036715 	blcs	da7ac <_back_addr-0x1425854>
     b54:	2e51032e 	cdpcs	3, 5, cr0, cr1, cr14, {1}
     b58:	2c502fa5 	mrrccs	15, 10, r2, r0, cr5
     b5c:	2e0b034c 	cdpcs	3, 0, cr0, cr11, cr12, {2}
     b60:	4b4b4b4b 	blmi	12d3894 <_back_addr-0x22c76c>
     b64:	4d4b4b4b 	vstrmi	d20, [fp, #-300]	; 0xfffffed4
     b68:	032e0b03 	teqeq	lr, #3072	; 0xc00
     b6c:	09032e76 	stmdbeq	r3, {r1, r2, r4, r5, r6, r9, sl, fp, sp}
     b70:	032d302e 	teqeq	sp, #46	; 0x2e
     b74:	26032e5b 			; <UNDEFINED> instruction: 0x26032e5b
     b78:	2e60032e 	cdpcs	3, 6, cr0, cr0, cr14, {1}
     b7c:	6530494b 	ldrvs	r4, [r0, #-2379]!	; 0x94b
     b80:	474d6531 	smlaldxmi	r6, sp, r1, r5
     b84:	032f6730 	teqeq	pc, #48, 14	; 0xc00000
     b88:	008202c2 	addeq	r0, r2, r2, asr #5
     b8c:	6c030402 	cfstrsvs	mvf0, [r3], {2}
     b90:	03040200 	movweq	r0, #16896	; 0x4200
     b94:	0402002d 	streq	r0, [r2], #-45	; 0x2d
     b98:	02002d03 	andeq	r2, r0, #3, 26	; 0xc0
     b9c:	00300304 	eorseq	r0, r0, r4, lsl #6
     ba0:	2f030402 	svccs	0x00030402
     ba4:	03040200 	movweq	r0, #16896	; 0x4200
     ba8:	0202332b 	andeq	r3, r2, #-1409286144	; 0xac000000
     bac:	e2010100 	and	r0, r1, #0, 2
     bb0:	02000002 	andeq	r0, r0, #2
     bb4:	0000de00 	andeq	sp, r0, r0, lsl #28
     bb8:	fb010200 	blx	413c2 <_back_addr-0x14bec3e>
     bbc:	01000d0e 	tsteq	r0, lr, lsl #26
     bc0:	00010101 	andeq	r0, r1, r1, lsl #2
     bc4:	00010000 	andeq	r0, r1, r0
     bc8:	682f0100 	stmdavs	pc!, {r8}	; <UNPREDICTABLE>
     bcc:	2f656d6f 	svccs	0x00656d6f
     bd0:	69756f6c 	ldmdbvs	r5!, {r2, r3, r5, r6, r8, r9, sl, fp, sp, lr}^
     bd4:	61682f73 	smcvs	33523	; 0x82f3
     bd8:	6b2f6b6e 	blvs	bdb998 <_back_addr-0x924668>
     bdc:	6e696c79 	mcrvs	12, 3, r6, cr9, cr9, {3}
     be0:	6f6f622f 	svcvs	0x006f622f
     be4:	646f6374 	strbtvs	r6, [pc], #-884	; bec <_back_addr-0x14ff414>
     be8:	62752f65 	rsbsvs	r2, r5, #404	; 0x194
     bec:	2f746f6f 	svccs	0x00746f6f
     bf0:	6d617865 	stclvs	8, cr7, [r1, #-404]!	; 0xfffffe6c
     bf4:	73656c70 	cmnvc	r5, #112, 24	; 0x7000
     bf8:	7566652f 	strbvc	r6, [r6, #-1327]!	; 0x52f
     bfc:	705f6573 	subsvc	r6, pc, r3, ror r5	; <UNPREDICTABLE>
     c00:	72676f72 	rsbvc	r6, r7, #456	; 0x1c8
     c04:	656d6d61 	strbvs	r6, [sp, #-3425]!	; 0xd61
     c08:	6e692f72 	mcrvs	15, 3, r2, cr9, cr2, {3}
     c0c:	64756c63 	ldrbtvs	r6, [r5], #-3171	; 0xc63
     c10:	682f0065 	stmdavs	pc!, {r0, r2, r5, r6}	; <UNPREDICTABLE>
     c14:	2f656d6f 	svccs	0x00656d6f
     c18:	69756f6c 	ldmdbvs	r5!, {r2, r3, r5, r6, r8, r9, sl, fp, sp, lr}^
     c1c:	61682f73 	smcvs	33523	; 0x82f3
     c20:	6b2f6b6e 	blvs	bdb9e0 <_back_addr-0x924620>
     c24:	6e696c79 	mcrvs	12, 3, r6, cr9, cr9, {3}
     c28:	6f6f622f 	svcvs	0x006f622f
     c2c:	646f6374 	strbtvs	r6, [pc], #-884	; c34 <_back_addr-0x14ff3cc>
     c30:	62752f65 	rsbsvs	r2, r5, #404	; 0x194
     c34:	2f746f6f 	svccs	0x00746f6f
     c38:	6d617865 	stclvs	8, cr7, [r1, #-404]!	; 0xfffffe6c
     c3c:	73656c70 	cmnvc	r5, #112, 24	; 0x7000
     c40:	7566652f 	strbvc	r6, [r6, #-1327]!	; 0x52f
     c44:	705f6573 	subsvc	r6, pc, r3, ror r5	; <UNPREDICTABLE>
     c48:	72676f72 	rsbvc	r6, r7, #456	; 0x1c8
     c4c:	656d6d61 	strbvs	r6, [sp, #-3425]!	; 0xd61
     c50:	6e692f72 	mcrvs	15, 3, r2, cr9, cr2, {3}
     c54:	64756c63 	ldrbtvs	r6, [r5], #-3171	; 0xc63
     c58:	76642f65 	strbtvc	r2, [r4], -r5, ror #30
     c5c:	6f6f6272 	svcvs	0x006f6272
     c60:	6e695f74 	mcrvs	15, 3, r5, cr9, cr4, {3}
     c64:	6f000063 	svcvs	0x00000063
     c68:	73756662 	cmnvc	r5, #102760448	; 0x6200000
     c6c:	62694c65 	rsbvs	r4, r9, #25856	; 0x6500
     c70:	0000632e 	andeq	r6, r0, lr, lsr #6
     c74:	79730000 	ldmdbvc	r3!, {}^	; <UNPREDICTABLE>
     c78:	66656473 			; <UNDEFINED> instruction: 0x66656473
     c7c:	00682e73 	rsbeq	r2, r8, r3, ror lr
     c80:	75000001 	strvc	r0, [r0, #-1]
     c84:	2e6c6974 	mcrcs	9, 3, r6, cr12, cr4, {3}
     c88:	00020068 	andeq	r0, r2, r8, rrx
     c8c:	70636d00 	rsbvc	r6, r3, r0, lsl #26
     c90:	0000682e 	andeq	r6, r0, lr, lsr #16
     c94:	00000000 	andeq	r0, r0, r0
     c98:	1a140205 	bne	5014b4 <_back_addr-0xffeb4c>
     c9c:	f1030150 			; <UNDEFINED> instruction: 0xf1030150
     ca0:	18030103 	stmdane	r3, {r0, r1, r8}
     ca4:	4a120382 	bmi	481ab4 <_back_addr-0x107e54c>
     ca8:	034a5603 	movteq	r5, #42499	; 0xa603
     cac:	12032e18 	andne	r2, r3, #24, 28	; 0x180
     cb0:	666f032e 	strbtvs	r0, [pc], -lr, lsr #6
     cb4:	4b4b4b4b 	blmi	12d39e8 <_back_addr-0x22c618>
     cb8:	4b4b4b4b 	blmi	12d39ec <_back_addr-0x22c614>
     cbc:	4b4b4b4b 	blmi	12d39f0 <_back_addr-0x22c610>
     cc0:	4c4b4b4b 	mcrrmi	11, 4, r4, fp, cr11
     cc4:	4a110332 	bmi	441994 <_back_addr-0x10be66c>
     cc8:	2b4e679f 	blcs	139ab4c <_back_addr-0x1654b4>
     ccc:	2d2f2a31 	vstmdbcs	pc!, {s4-s52}
     cd0:	30492f2f 	subcc	r2, r9, pc, lsr #30
     cd4:	2f2d2f2d 	svccs	0x002d2f2d
     cd8:	6983334b 	stmibvs	r3, {r0, r1, r3, r6, r8, r9, ip, sp}
     cdc:	32826503 	addcc	r6, r2, #12582912	; 0xc00000
     ce0:	2d2b322a 	sfmcs	f3, 4, [fp, #-168]!	; 0xffffff58
     ce4:	2f2d2f2f 	svccs	0x002d2f2f
     ce8:	2b2f2d2f 	blcs	bcc1ac <_back_addr-0x933e54>
     cec:	2f302b32 	svccs	0x00302b32
     cf0:	2f2f2f2c 	svccs	0x002f2f2c
     cf4:	03821903 	orreq	r1, r2, #49152	; 0xc000
     cf8:	71032e0f 	tstvc	r3, pc, lsl #28
     cfc:	832f8666 	teqhi	pc, #106954752	; 0x6600000
     d00:	9f2e0903 	svcls	0x002e0903
     d04:	3032839f 	mlascc	r2, pc, r3, r8	; <UNPREDICTABLE>
     d08:	0402004c 	streq	r0, [r2], #-76	; 0x4c
     d0c:	03720802 	cmneq	r2, #131072	; 0x20000
     d10:	2f674a1f 	svccs	0x00674a1f
     d14:	be2e6603 	cfmadda32lt	mvax0, mvax6, mvfx14, mvfx3
     d18:	034a0f03 	movteq	r0, #44803	; 0xaf03
     d1c:	034a7ba4 	movteq	r7, #43940	; 0xaba4
     d20:	5b032e25 	blpl	cc5bc <_back_addr-0x1433a44>
     d24:	2e21034a 	cdpcs	3, 2, cr0, cr1, cr10, {2}
     d28:	032e7303 	teqeq	lr, #201326592	; 0xc000000
     d2c:	21034a6c 	tstcs	r3, ip, ror #20
     d30:	2e5f034a 	cdpcs	3, 5, cr0, cr15, cr10, {2}
     d34:	032e2503 	teqeq	lr, #12582912	; 0xc00000
     d38:	12032e6f 	andne	r2, r3, #1776	; 0x6f0
     d3c:	2e5a032e 	cdpcs	3, 5, cr0, cr10, cr14, {1}
     d40:	032e1403 	teqeq	lr, #50331648	; 0x3000000
     d44:	4b2a2e16 	blmi	a8c5a4 <_back_addr-0xa73a5c>
     d48:	2e650336 	mcrcs	3, 3, r0, cr5, cr6, {1}
     d4c:	034a1303 	movteq	r1, #41731	; 0xa303
     d50:	13032e6d 	movwne	r2, #15981	; 0x3e6d
     d54:	2e14034a 	cdpcs	3, 1, cr0, cr4, cr10, {2}
     d58:	2f667003 	svccs	0x00667003
     d5c:	302d302d 	eorcc	r3, sp, sp, lsr #32
     d60:	342e7a03 	strtcc	r7, [lr], #-2563	; 0xa03
     d64:	2e7a0330 	mrccs	3, 3, r0, cr10, cr0, {1}
     d68:	322a2f34 	eorcc	r2, sl, #52, 30	; 0xd0
     d6c:	2f312b2f 	svccs	0x00312b2f
     d70:	4b4b4b4b 	blmi	12d3aa4 <_back_addr-0x22c55c>
     d74:	304c4b4b 	subcc	r4, ip, fp, asr #22
     d78:	039e4403 	orrseq	r4, lr, #50331648	; 0x3000000
     d7c:	032e03d5 	teqeq	lr, #1409286147	; 0x54000003
     d80:	344a7daf 	strbcc	r7, [sl], #-3503	; 0xdaf
     d84:	4a00c603 	bmi	32598 <_back_addr-0x14cda68>
     d88:	4a7fb403 	bmi	1fedd9c <__bss_end__+0xada25c>
     d8c:	679f4b34 			; <UNDEFINED> instruction: 0x679f4b34
     d90:	66090383 	strvs	r0, [r9], -r3, lsl #7
     d94:	9f678367 	svcls	0x00678367
     d98:	09038367 	stmdbeq	r3, {r0, r1, r2, r5, r6, r8, r9, pc}
     d9c:	67836766 	strvs	r6, [r3, r6, ror #14]
     da0:	6b83679f 	blvs	fe0dac24 <__bss_end__+0xfcbc70e4>
     da4:	9f678367 	svcls	0x00678367
     da8:	836b8367 	cmnhi	fp, #-1677721599	; 0x9c000001
     dac:	9f316783 	svcls	0x00316783
     db0:	6a9f8767 	bvs	fe7e2b54 <__bss_end__+0xfd2cf014>
     db4:	4b2f6569 	blmi	bda360 <_back_addr-0x925ca0>
     db8:	0282032f 	addeq	r0, r2, #-1140850688	; 0xbc000000
     dbc:	4a750366 	bmi	1d41b5c <__bss_end__+0x82e01c>
     dc0:	7cb50383 	ldcvc	3, cr0, [r5], #524	; 0x20c
     dc4:	03d5032e 	bicseq	r0, r5, #-1207959552	; 0xb8000000
     dc8:	7cfe032e 	ldclvc	3, cr0, [lr], #184	; 0xb8
     dcc:	2e6c034a 	cdpcs	3, 6, cr0, cr12, cr10, {2}
     dd0:	03661403 	cmneq	r6, #50331648	; 0x3000000
     dd4:	1a032e6c 	bne	cc78c <_back_addr-0x1433874>
     dd8:	666e032e 	strbtvs	r0, [lr], -lr, lsr #6
     ddc:	322e7a03 	eorcc	r7, lr, #12288	; 0x3000
     de0:	0c032d2a 	stceq	13, cr2, [r3], {42}	; 0x2a
     de4:	2e76032e 	cdpcs	3, 7, cr0, cr6, cr14, {1}
     de8:	302d312c 	eorcc	r3, sp, ip, lsr #2
     dec:	322c312d 	eorcc	r3, ip, #1073741835	; 0x4000000b
     df0:	312d312c 	teqcc	sp, ip, lsr #2
     df4:	2f322a30 	svccs	0x00322a30
     df8:	2f2d322b 	svccs	0x002d322b
     dfc:	2e0f0329 	cdpcs	3, 0, cr0, cr15, cr9, {1}
     e00:	83679f2f 	cmnhi	r7, #47, 30	; 0xbc
     e04:	9f838767 	svcls	0x00838767
     e08:	87678367 	strbhi	r8, [r7, -r7, ror #6]!
     e0c:	9f87679f 	svcls	0x0087679f
     e10:	67838367 	strvs	r8, [r3, r7, ror #6]
     e14:	2f654b6b 	svccs	0x00654b6b
     e18:	672f2d2f 	strvs	r2, [pc, -pc, lsr #26]!
     e1c:	02d6032c 	sbcseq	r0, r6, #44, 6	; 0xb0000000
     e20:	7e80032e 	cdpvc	3, 8, cr0, cr0, cr14, {1}
     e24:	696a9f4a 	stmdbvs	sl!, {r1, r3, r6, r8, r9, sl, fp, ip, pc}^
     e28:	2f4b2f65 	svccs	0x004b2f65
     e2c:	696a9f4c 	stmdbvs	sl!, {r2, r3, r6, r8, r9, sl, fp, ip, pc}^
     e30:	2f4b2f65 	svccs	0x004b2f65
     e34:	2f304869 	svccs	0x00304869
     e38:	039f6af3 	orrseq	r6, pc, #995328	; 0xf3000
     e3c:	356602f0 	strbcc	r0, [r6, #-752]!	; 0x2f0
     e40:	034a7903 	movteq	r7, #43267	; 0xa903
     e44:	57032e30 	smladxpl	r3, r0, lr, r2
     e48:	84834b2e 	strhi	r4, [r3], #2862	; 0xb2e
     e4c:	83838383 	orrhi	r8, r3, #201326594	; 0xc000002
     e50:	83838383 	orrhi	r8, r3, #201326594	; 0xc000002
     e54:	67676783 	strbvs	r6, [r7, -r3, lsl #15]!
     e58:	67676767 	strbvs	r6, [r7, -r7, ror #14]!
     e5c:	67676767 	strbvs	r6, [r7, -r7, ror #14]!
     e60:	67676767 	strbvs	r6, [r7, -r7, ror #14]!
     e64:	67676767 	strbvs	r6, [r7, -r7, ror #14]!
     e68:	30484c67 	subcc	r4, r8, r7, ror #24
     e6c:	2f9f9f68 	svccs	0x009f9f68
     e70:	2f833183 	svccs	0x00833183
     e74:	0402009f 	streq	r0, [r2], #-159	; 0x9f
     e78:	0200bf02 	andeq	fp, r0, #2, 30
     e7c:	76030204 	strvc	r0, [r3], -r4, lsl #4
     e80:	4a0e032e 	bmi	381b40 <_back_addr-0x117e4c0>
     e84:	83833068 	orrhi	r3, r3, #104	; 0x68
     e88:	66720383 	ldrbtvs	r0, [r2], -r3, lsl #7
     e8c:	13821103 	orrne	r1, r2, #-1073741824	; 0xc0000000
     e90:	01000402 	tsteq	r0, r2, lsl #8
     e94:	00011901 	andeq	r1, r1, r1, lsl #18
     e98:	73000200 	movwvc	r0, #512	; 0x200
     e9c:	02000000 	andeq	r0, r0, #0
     ea0:	0d0efb01 	vstreq	d15, [lr, #-4]
     ea4:	01010100 	mrseq	r0, (UNDEF: 17)
     ea8:	00000001 	andeq	r0, r0, r1
     eac:	01000001 	tsteq	r0, r1
     eb0:	6d6f682f 	stclvs	8, cr6, [pc, #-188]!	; dfc <_back_addr-0x14ff204>
     eb4:	6f6c2f65 	svcvs	0x006c2f65
     eb8:	2f736975 	svccs	0x00736975
     ebc:	6b6e6168 	blvs	1b99464 <__bss_end__+0x685924>
     ec0:	6c796b2f 	ldclvs	11, cr6, [r9], #-188	; 0xffffff44
     ec4:	622f6e69 	eorvs	r6, pc, #1680	; 0x690
     ec8:	63746f6f 	cmnvs	r4, #444	; 0x1bc
     ecc:	2f65646f 	svccs	0x0065646f
     ed0:	6f6f6275 	svcvs	0x006f6275
     ed4:	78652f74 	stmdavc	r5!, {r2, r4, r5, r6, r8, r9, sl, fp, sp}^
     ed8:	6c706d61 	ldclvs	13, cr6, [r0], #-388	; 0xfffffe7c
     edc:	652f7365 	strvs	r7, [pc, #-869]!	; b7f <_back_addr-0x14ff481>
     ee0:	65737566 	ldrbvs	r7, [r3, #-1382]!	; 0x566
     ee4:	6f72705f 	svcvs	0x0072705f
     ee8:	6d617267 	sfmvs	f7, 2, [r1, #-412]!	; 0xfffffe64
     eec:	2f72656d 	svccs	0x0072656d
     ef0:	6c636e69 	stclvs	14, cr6, [r3], #-420	; 0xfffffe5c
     ef4:	00656475 	rsbeq	r6, r5, r5, ror r4
     ef8:	6d697400 	cfstrdvs	mvd7, [r9, #-0]
     efc:	632e7265 	teqvs	lr, #1342177286	; 0x50000006
     f00:	00000000 	andeq	r0, r0, r0
     f04:	64737973 	ldrbtvs	r7, [r3], #-2419	; 0x973
     f08:	2e736665 	cdpcs	6, 7, cr6, cr3, cr5, {3}
     f0c:	00010068 	andeq	r0, r1, r8, rrx
     f10:	05000000 	streq	r0, [r0, #-0]
     f14:	50261402 	eorpl	r1, r6, r2, lsl #8
     f18:	01130301 	tsteq	r3, r1, lsl #6
     f1c:	034d4b14 	movteq	r4, #56084	; 0xdb14
     f20:	7303660d 	movwvc	r6, #13837	; 0x360d
     f24:	2e0d034a 	cdpcs	3, 0, cr0, cr13, cr10, {2}
     f28:	032e6d03 	teqeq	lr, #3, 26	; 0xc0
     f2c:	73032e13 	movwvc	r2, #15891	; 0x3e13
     f30:	0c03312e 	stfeqs	f3, [r3], {46}	; 0x2e
     f34:	2e74032e 	cdpcs	3, 7, cr0, cr4, cr14, {1}
     f38:	032e0c03 	teqeq	lr, #768	; 0x300
     f3c:	30352e77 	eorscc	r2, r5, r7, ror lr
     f40:	87321450 			; <UNDEFINED> instruction: 0x87321450
     f44:	322e7703 	eorcc	r7, lr, #786432	; 0xc0000
     f48:	1631314d 	ldrtne	r3, [r1], -sp, asr #2
     f4c:	03661003 	cmneq	r6, #3
     f50:	77032e79 	smlsdxvc	r3, r9, lr, r2
     f54:	661d039e 			; <UNDEFINED> instruction: 0x661d039e
     f58:	7fb3031a 	svcvc	0x00b3031a
     f5c:	00c5039e 	smulleq	r0, r5, lr, r3
     f60:	b603364a 	strlt	r3, [r3], -sl, asr #12
     f64:	0a032e7f 	beq	cc968 <_back_addr-0x1433698>
     f68:	2203302e 	andcs	r3, r3, #46	; 0x2e
     f6c:	2e1c032e 	cdpcs	3, 1, cr0, cr12, cr14, {1}
     f70:	2e7fb303 	cdpcs	3, 7, cr11, cr15, cr3, {0}
     f74:	30353131 	eorscc	r3, r5, r1, lsr r1
     f78:	01040200 	mrseq	r0, R12_usr
     f7c:	032e2203 	teqeq	lr, #805306368	; 0x30000000
     f80:	18306621 	ldmdane	r0!, {r0, r5, r9, sl, sp, lr}
     f84:	827fa603 	rsbshi	sl, pc, #3145728	; 0x300000
     f88:	4a00d403 	bmi	35f9c <_back_addr-0x14ca064>
     f8c:	7fa90334 	svcvc	0x00a90334
     f90:	2e0a032e 	cdpcs	3, 0, cr0, cr10, cr14, {1}
     f94:	2e220330 	mcrcs	3, 1, r0, cr2, cr0, {1}
     f98:	032e2903 	teqeq	lr, #49152	; 0xc000
     f9c:	312e7fa6 	teqcc	lr, r6, lsr #31
     fa0:	00303531 	eorseq	r3, r0, r1, lsr r5
     fa4:	03010402 	movweq	r0, #5122	; 0x1402
     fa8:	2e032e22 	cdpcs	14, 0, cr2, cr3, cr2, {1}
     fac:	00020266 	andeq	r0, r2, r6, ror #4
     fb0:	018e0101 	orreq	r0, lr, r1, lsl #2
     fb4:	00020000 	andeq	r0, r2, r0
     fb8:	0000007c 	andeq	r0, r0, ip, ror r0
     fbc:	0efb0102 	cdpeq	1, 15, cr0, cr11, cr2, {0}
     fc0:	0101000d 	tsteq	r1, sp
     fc4:	00000101 	andeq	r0, r0, r1, lsl #2
     fc8:	00000100 	andeq	r0, r0, r0, lsl #2
     fcc:	6f682f01 	svcvs	0x00682f01
     fd0:	6c2f656d 	cfstr32vs	mvfx6, [pc], #-436	; e24 <_back_addr-0x14ff1dc>
     fd4:	7369756f 	cmnvc	r9, #465567744	; 0x1bc00000
     fd8:	6e61682f 	cdpvs	8, 6, cr6, cr1, cr15, {1}
     fdc:	796b2f6b 	stmdbvc	fp!, {r0, r1, r3, r5, r6, r8, r9, sl, fp, sp}^
     fe0:	2f6e696c 	svccs	0x006e696c
     fe4:	746f6f62 	strbtvc	r6, [pc], #-3938	; fec <_back_addr-0x14ff014>
     fe8:	65646f63 	strbvs	r6, [r4, #-3939]!	; 0xf63
     fec:	6f62752f 	svcvs	0x0062752f
     ff0:	652f746f 	strvs	r7, [pc, #-1135]!	; b89 <_back_addr-0x14ff477>
     ff4:	706d6178 	rsbvc	r6, sp, r8, ror r1
     ff8:	2f73656c 	svccs	0x0073656c
     ffc:	73756665 	cmnvc	r5, #105906176	; 0x6500000
    1000:	72705f65 	rsbsvc	r5, r0, #404	; 0x194
    1004:	6172676f 	cmnvs	r2, pc, ror #14
    1008:	72656d6d 	rsbvc	r6, r5, #6976	; 0x1b40
    100c:	636e692f 	cmnvs	lr, #770048	; 0xbc000
    1010:	6564756c 	strbvs	r7, [r4, #-1388]!	; 0x56c
    1014:	74750000 	ldrbtvc	r0, [r5], #-0
    1018:	632e6c69 	teqvs	lr, #26880	; 0x6900
    101c:	00000000 	andeq	r0, r0, r0
    1020:	64737973 	ldrbtvs	r7, [r3], #-2419	; 0x973
    1024:	2e736665 	cdpcs	6, 7, cr6, cr3, cr5, {3}
    1028:	00010068 	andeq	r0, r1, r8, rrx
    102c:	72617500 	rsbvc	r7, r1, #0, 10
    1030:	00682e74 	rsbeq	r2, r8, r4, ror lr
    1034:	00000001 	andeq	r0, r0, r1
    1038:	7c020500 	cfstr32vc	mvfx0, [r2], {-0}
    103c:	03015027 	movweq	r5, #4135	; 0x1027
    1040:	4b130133 	blmi	4c1514 <_back_addr-0x103eaec>
    1044:	4a120367 	bmi	481de8 <_back_addr-0x107e218>
    1048:	03334517 	teqeq	r3, #96468992	; 0x5c00000
    104c:	79032e0c 	stmdbvc	r3, {r2, r3, r9, sl, fp, sp}
    1050:	7603332e 	strvc	r3, [r3], -lr, lsr #6
    1054:	2e0d032e 	cdpcs	3, 0, cr0, cr13, cr14, {1}
    1058:	032e7303 	teqeq	lr, #201326592	; 0xc000000
    105c:	73032e0e 	movwvc	r2, #15886	; 0x3e0e
    1060:	30336a2e 	eorscc	r6, r3, lr, lsr #20
    1064:	502f2f2f 	eorpl	r2, pc, pc, lsr #30
    1068:	080b0313 	stmdaeq	fp, {r0, r1, r4, r8, r9}
    106c:	7703173c 	smladxvc	r3, ip, r7, r1
    1070:	4a0b039e 	bmi	2c1ef0 <_back_addr-0x123e110>
    1074:	84667303 	strbthi	r7, [r6], #-771	; 0x303
    1078:	032e0903 	teqeq	lr, #49152	; 0xc000
    107c:	03848275 	orreq	r8, r4, #1342177287	; 0x50000007
    1080:	8014664f 	andshi	r6, r4, pc, asr #12
    1084:	034f4c84 	movteq	r4, #64644	; 0xfc84
    1088:	4fa24a79 	svcmi	0x00a24a79
    108c:	00c10329 	sbceq	r0, r1, r9, lsr #6
    1090:	674c4e4a 	strbvs	r4, [ip, -sl, asr #28]
    1094:	03826103 	orreq	r6, r2, #-1073741824	; 0xc0000000
    1098:	61038221 	tstvs	r3, r1, lsr #4
    109c:	2e1f032e 	cdpcs	3, 1, cr0, cr15, cr14, {1}
    10a0:	0314314c 	tsteq	r4, #76, 2
    10a4:	03344a0a 	teqeq	r4, #40960	; 0xa000
    10a8:	03846648 	orreq	r6, r4, #72, 12	; 0x4800000
    10ac:	6a134a3e 	bvs	4d39ac <_back_addr-0x102c654>
    10b0:	87334517 			; <UNDEFINED> instruction: 0x87334517
    10b4:	312b2f4c 	teqcc	fp, ip, asr #30
    10b8:	2c302d4d 	ldccs	13, cr2, [r0], #-308	; 0xfffffecc
    10bc:	2e760330 	mrccs	3, 3, r0, cr6, cr0, {1}
    10c0:	312e0b03 	teqcc	lr, r3, lsl #22
    10c4:	9b686813 	blls	1a1b118 <__bss_end__+0x5075d8>
    10c8:	46163135 			; <UNDEFINED> instruction: 0x46163135
    10cc:	03d76b32 	bicseq	r6, r7, #51200	; 0xc800
    10d0:	03667fb8 	cmneq	r6, #184, 30	; 0x2e0
    10d4:	698200ca 	stmibvs	r2, {r1, r3, r6, r7}
    10d8:	46484d68 	strbmi	r4, [r8], -r8, ror #26
    10dc:	2e7a0334 	mrccs	3, 3, r0, cr10, cr4, {1}
    10e0:	032d4b52 	teqeq	sp, #83968	; 0x14800
    10e4:	12032e6f 	andne	r2, r3, #1776	; 0x6f0
    10e8:	2e6e034a 	cdpcs	3, 6, cr0, cr14, cr10, {2}
    10ec:	1a2e1d03 	bne	b88500 <_back_addr-0x977b00>
    10f0:	352e7903 	strcc	r7, [lr, #-2307]!	; 0x903
    10f4:	31452d67 	cmpcc	r5, r7, ror #26
    10f8:	04020014 	streq	r0, [r2], #-20
    10fc:	02006703 	andeq	r6, r0, #786432	; 0xc0000
    1100:	6b2d0304 	blvs	b41d18 <_back_addr-0x9be2e8>
    1104:	02004b6a 	andeq	r4, r0, #108544	; 0x1a800
    1108:	00830304 	addeq	r0, r3, r4, lsl #6
    110c:	81030402 	tsthi	r3, r2, lsl #8
    1110:	020047c1 	andeq	r4, r0, #50593792	; 0x3040000
    1114:	009f0304 	addseq	r0, pc, r4, lsl #6
    1118:	9d030402 	cfstrsls	mvf0, [r3, #-8]
    111c:	03184dbd 	tsteq	r8, #12096	; 0x2f40
    1120:	00364a7a 	eorseq	r4, r6, sl, ror sl
    1124:	08020402 	stmdaeq	r2, {r1, sl}
    1128:	4d475056 	stclmi	0, cr5, [r7, #-344]	; 0xfffffea8
    112c:	d468154e 	strbtle	r1, [r8], #-1358	; 0x54e
    1130:	52292f6d 	eorpl	r2, r9, #436	; 0x1b4
    1134:	2f2a4e13 	svccs	0x002a4e13
    1138:	30312f2d 	eorscc	r2, r1, sp, lsr #30
    113c:	024a1603 	subeq	r1, sl, #3145728	; 0x300000
    1140:	01010002 	tsteq	r1, r2
    1144:	000001dd 	ldrdeq	r0, [r0], -sp
    1148:	00ec0002 	rsceq	r0, ip, r2
    114c:	01020000 	mrseq	r0, (UNDEF: 2)
    1150:	000d0efb 	strdeq	r0, [sp], -fp
    1154:	01010101 	tsteq	r1, r1, lsl #2
    1158:	01000000 	mrseq	r0, (UNDEF: 0)
    115c:	2f010000 	svccs	0x00010000
    1160:	656d6f68 	strbvs	r6, [sp, #-3944]!	; 0xf68
    1164:	756f6c2f 	strbvc	r6, [pc, #-3119]!	; 53d <_back_addr-0x14ffac3>
    1168:	682f7369 	stmdavs	pc!, {r0, r3, r5, r6, r8, r9, ip, sp, lr}	; <UNPREDICTABLE>
    116c:	2f6b6e61 	svccs	0x006b6e61
    1170:	696c796b 	stmdbvs	ip!, {r0, r1, r3, r5, r6, r8, fp, ip, sp, lr}^
    1174:	6f622f6e 	svcvs	0x00622f6e
    1178:	6f63746f 	svcvs	0x0063746f
    117c:	752f6564 	strvc	r6, [pc, #-1380]!	; c20 <_back_addr-0x14ff3e0>
    1180:	746f6f62 	strbtvc	r6, [pc], #-3938	; 1188 <_back_addr-0x14fee78>
    1184:	6178652f 	cmnvs	r8, pc, lsr #10
    1188:	656c706d 	strbvs	r7, [ip, #-109]!	; 0x6d
    118c:	66652f73 	uqsub16vs	r2, r5, r3
    1190:	5f657375 	svcpl	0x00657375
    1194:	676f7270 			; <UNDEFINED> instruction: 0x676f7270
    1198:	6d6d6172 	stfvse	f6, [sp, #-456]!	; 0xfffffe38
    119c:	2e2f7265 	cdpcs	2, 2, cr7, cr15, cr5, {3}
    11a0:	2e2e2f2e 	cdpcs	15, 2, cr2, cr14, cr14, {1}
    11a4:	636e692f 	cmnvs	lr, #770048	; 0xbc000
    11a8:	6564756c 	strbvs	r7, [r4, #-1388]!	; 0x56c
    11ac:	6d73612f 	ldfvse	f6, [r3, #-188]!	; 0xffffff44
    11b0:	6f682f00 	svcvs	0x00682f00
    11b4:	6c2f656d 	cfstr32vs	mvfx6, [pc], #-436	; 1008 <_back_addr-0x14feff8>
    11b8:	7369756f 	cmnvc	r9, #465567744	; 0x1bc00000
    11bc:	6e61682f 	cdpvs	8, 6, cr6, cr1, cr15, {1}
    11c0:	796b2f6b 	stmdbvc	fp!, {r0, r1, r3, r5, r6, r8, r9, sl, fp, sp}^
    11c4:	2f6e696c 	svccs	0x006e696c
    11c8:	746f6f62 	strbtvc	r6, [pc], #-3938	; 11d0 <_back_addr-0x14fee30>
    11cc:	65646f63 	strbvs	r6, [r4, #-3939]!	; 0xf63
    11d0:	6f62752f 	svcvs	0x0062752f
    11d4:	652f746f 	strvs	r7, [pc, #-1135]!	; d6d <_back_addr-0x14ff293>
    11d8:	706d6178 	rsbvc	r6, sp, r8, ror r1
    11dc:	2f73656c 	svccs	0x0073656c
    11e0:	73756665 	cmnvc	r5, #105906176	; 0x6500000
    11e4:	72705f65 	rsbsvc	r5, r0, #404	; 0x194
    11e8:	6172676f 	cmnvs	r2, pc, ror #14
    11ec:	72656d6d 	rsbvc	r6, r5, #6976	; 0x1b40
    11f0:	2f2e2e2f 	svccs	0x002e2e2f
    11f4:	692f2e2e 	stmdbvs	pc!, {r1, r2, r3, r5, r9, sl, fp, sp}	; <UNPREDICTABLE>
    11f8:	756c636e 	strbvc	r6, [ip, #-878]!	; 0x36e
    11fc:	00006564 	andeq	r6, r0, r4, ror #10
    1200:	68636163 	stmdavs	r3!, {r0, r1, r5, r6, r8, sp, lr}^
    1204:	37765f65 	ldrbcc	r5, [r6, -r5, ror #30]!
    1208:	0000632e 	andeq	r6, r0, lr, lsr #6
    120c:	74750000 	ldrbtvc	r0, [r5], #-0
    1210:	2e736c69 	cdpcs	12, 7, cr6, cr3, cr9, {3}
    1214:	00010068 	andeq	r0, r1, r8, rrx
    1218:	70797400 	rsbsvc	r7, r9, r0, lsl #8
    121c:	682e7365 	stmdavs	lr!, {r0, r2, r5, r6, r8, r9, ip, sp, lr}
    1220:	00000100 	andeq	r0, r0, r0, lsl #2
    1224:	6d6d6f63 	stclvs	15, cr6, [sp, #-396]!	; 0xfffffe74
    1228:	682e6e6f 	stmdavs	lr!, {r0, r1, r2, r3, r5, r6, r9, sl, fp, sp, lr}
    122c:	00000200 	andeq	r0, r0, r0, lsl #4
    1230:	2e74656e 	cdpcs	5, 7, cr6, cr4, cr14, {3}
    1234:	00020068 	andeq	r0, r2, r8, rrx
    1238:	05000000 	streq	r0, [r0, #-0]
    123c:	502c4402 	eorpl	r4, ip, r2, lsl #8
    1240:	01960301 	orrseq	r0, r6, r1, lsl #6
    1244:	7fa50301 	svcvc	0x00a50301
    1248:	00dc032e 	sbcseq	r0, ip, lr, lsr #6
    124c:	0200322e 	andeq	r3, r0, #-536870910	; 0xe0000002
    1250:	00500204 	subseq	r0, r0, r4, lsl #4
    1254:	03020402 	movweq	r0, #9218	; 0x2402
    1258:	4c672e7a 	stclmi	14, cr2, [r7], #-488	; 0xfffffe18
    125c:	7f8a032d 	svcvc	0x008a032d
    1260:	0336314a 	teqeq	r6, #-2147483630	; 0x80000012
    1264:	292e00cf 	stmdbcs	lr!, {r0, r1, r2, r3, r6, r7}
    1268:	02042c33 	andeq	r2, r4, #13056	; 0x3300
    126c:	2e7f9e03 	cdpcs	14, 7, cr9, cr15, cr3, {0}
    1270:	e6030104 	str	r0, [r3], -r4, lsl #2
    1274:	02042e00 	andeq	r2, r4, #0, 28
    1278:	2e7f9903 	cdpcs	9, 7, cr9, cr15, cr3, {0}
    127c:	332d2f31 	teqcc	sp, #49, 30	; 0xc4
    1280:	0301042f 	movweq	r0, #5167	; 0x142f
    1284:	2d2e00e7 	stccs	0, cr0, [lr, #-924]!	; 0xfffffc64
    1288:	5403312f 	strpl	r3, [r3], #-303	; 0x12f
    128c:	03342f66 	teqeq	r4, #408	; 0x198
    1290:	03492e79 	movteq	r2, #40569	; 0x9e79
    1294:	32034a0d 	andcc	r4, r3, #53248	; 0xd000
    1298:	2e7a032e 	cdpcs	3, 7, cr0, cr10, cr14, {1}
    129c:	7fa7036e 	svcvc	0x00a7036e
    12a0:	312f672e 	teqcc	pc, lr, lsr #14
    12a4:	0285032a 	addeq	r0, r5, #-1476395008	; 0xa8000000
    12a8:	314d1766 	cmpcc	sp, r6, ror #14
    12ac:	4a0c0331 	bmi	301f78 <_back_addr-0x11fe088>
    12b0:	90033434 	andls	r3, r3, r4, lsr r4
    12b4:	2f012e7f 	svccs	0x00012e7f
    12b8:	f3032d4d 	vpadd.f32	q1, <illegal reg q1.5>, <illegal reg q6.5>
    12bc:	ff032e00 			; <UNDEFINED> instruction: 0xff032e00
    12c0:	2f012e7e 	svccs	0x00012e7e
    12c4:	27032d4d 	strcs	r2, [r3, -sp, asr #26]
    12c8:	56032f2e 	strpl	r2, [r3], -lr, lsr #30
    12cc:	71034c2e 	tstvc	r3, lr, lsr #24
    12d0:	30304c2e 	eorscc	r4, r0, lr, lsr #24
    12d4:	018b0330 	orreq	r0, fp, r0, lsr r3
    12d8:	7f9c034a 	svcvc	0x009c034a
    12dc:	7e94032e 	cdpvc	3, 9, cr0, cr4, cr14, {1}
    12e0:	01a50301 			; <UNDEFINED> instruction: 0x01a50301
    12e4:	302c332e 	eorcc	r3, ip, lr, lsr #6
    12e8:	4b2e4f03 	blmi	b94efc <_back_addr-0x96b104>
    12ec:	3c032c4c 	stccc	12, cr2, [r3], {76}	; 0x4c
    12f0:	2e390366 	cdpcs	3, 3, cr0, cr9, cr6, {3}
    12f4:	132e0f03 	teqne	lr, #3, 30
    12f8:	4a00d703 	bmi	36f0c <_back_addr-0x14c90f4>
    12fc:	2e7f8903 	cdpcs	9, 7, cr8, cr15, cr3, {0}
    1300:	7ea10301 	cdpvc	3, 10, cr0, cr1, cr1, {0}
    1304:	01a5032e 			; <UNDEFINED> instruction: 0x01a5032e
    1308:	302c332e 	eorcc	r3, ip, lr, lsr #6
    130c:	6a2e5e03 	bvs	b98b20 <_back_addr-0x9674e0>
    1310:	32353246 	eorscc	r3, r5, #1610612740	; 0x60000004
    1314:	4c31322a 	lfmmi	f3, 4, [r1], #-168	; 0xffffff58
    1318:	661c032c 	ldrvs	r0, [ip], -ip, lsr #6
    131c:	2d2e2e03 	stccs	14, cr2, [lr, #-12]!
    1320:	01000202 	tsteq	r0, r2, lsl #4
    1324:	Address 0x00001324 is out of bounds.


Disassembly of section .debug_frame:

00000000 <.debug_frame>:
   0:	0000000c 	andeq	r0, r0, ip
   4:	ffffffff 			; <UNDEFINED> instruction: 0xffffffff
   8:	7c020001 	stcvc	0, cr0, [r2], {1}
   c:	000d0c0e 	andeq	r0, sp, lr, lsl #24
  10:	0000000c 	andeq	r0, r0, ip
  14:	00000000 	andeq	r0, r0, r0
  18:	01500074 	cmpeq	r0, r4, ror r0
  1c:	00000028 	andeq	r0, r0, r8, lsr #32
  20:	0000000c 	andeq	r0, r0, ip
  24:	ffffffff 			; <UNDEFINED> instruction: 0xffffffff
  28:	7c020001 	stcvc	0, cr0, [r2], {1}
  2c:	000d0c0e 	andeq	r0, sp, lr, lsl #24
  30:	0000001c 	andeq	r0, r0, ip, lsl r0
  34:	00000020 	andeq	r0, r0, r0, lsr #32
  38:	0150009c 			; <UNDEFINED> instruction: 0x0150009c
  3c:	000000a0 	andeq	r0, r0, r0, lsr #1
  40:	840c0e48 	strhi	r0, [ip], #-3656	; 0xe48
  44:	8e028503 	cfsh32hi	mvfx8, mvfx2, #3
  48:	0e440201 	cdpeq	2, 4, cr0, cr4, cr1, {0}
  4c:	cec5c400 	cdpgt	4, 12, cr12, cr5, cr0, {0}
  50:	0000000c 	andeq	r0, r0, ip
  54:	ffffffff 			; <UNDEFINED> instruction: 0xffffffff
  58:	7c020001 	stcvc	0, cr0, [r2], {1}
  5c:	000d0c0e 	andeq	r0, sp, lr, lsl #24
  60:	00000020 	andeq	r0, r0, r0, lsr #32
  64:	00000050 	andeq	r0, r0, r0, asr r0
  68:	0150013c 	cmpeq	r0, ip, lsr r1
  6c:	00000194 	muleq	r0, r4, r1
  70:	84200e42 	strthi	r0, [r0], #-3650	; 0xe42
  74:	86078508 	strhi	r8, [r7], -r8, lsl #10
  78:	88058706 	stmdahi	r5, {r1, r2, r8, r9, sl, pc}
  7c:	8a038904 	bhi	e2494 <_back_addr-0x141db6c>
  80:	00018e02 	andeq	r8, r1, r2, lsl #28
  84:	0000000c 	andeq	r0, r0, ip
  88:	ffffffff 			; <UNDEFINED> instruction: 0xffffffff
  8c:	7c020001 	stcvc	0, cr0, [r2], {1}
  90:	000d0c0e 	andeq	r0, sp, lr, lsl #24
  94:	0000000c 	andeq	r0, r0, ip
  98:	00000084 	andeq	r0, r0, r4, lsl #1
  9c:	015002d0 	ldrsbeq	r0, [r0, #-32]	; 0xffffffe0
  a0:	00000008 	andeq	r0, r0, r8
  a4:	00000020 	andeq	r0, r0, r0, lsr #32
  a8:	00000084 	andeq	r0, r0, r4, lsl #1
  ac:	015002d8 	ldrsbeq	r0, [r0, #-40]	; 0xffffffd8
  b0:	00000010 	andeq	r0, r0, r0, lsl r0
  b4:	80100e42 	andshi	r0, r0, r2, asr #28
  b8:	82038104 	andhi	r8, r3, #4, 2
  bc:	44018302 	strmi	r8, [r1], #-770	; 0x302
  c0:	c0c1c2c3 	sbcgt	ip, r1, r3, asr #5
  c4:	0000000e 	andeq	r0, r0, lr
  c8:	0000000c 	andeq	r0, r0, ip
  cc:	00000084 	andeq	r0, r0, r4, lsl #1
  d0:	015002e8 	cmpeq	r0, r8, ror #5
  d4:	00000024 	andeq	r0, r0, r4, lsr #32
  d8:	00000018 	andeq	r0, r0, r8, lsl r0
  dc:	00000084 	andeq	r0, r0, r4, lsl #1
  e0:	0150030c 	cmpeq	r0, ip, lsl #6
  e4:	00000058 	andeq	r0, r0, r8, asr r0
  e8:	8e040e54 	mcrhi	14, 0, r0, cr4, cr4, {2}
  ec:	000e5401 	andeq	r5, lr, r1, lsl #8
  f0:	000000ce 	andeq	r0, r0, lr, asr #1
  f4:	0000002c 	andeq	r0, r0, ip, lsr #32
  f8:	00000084 	andeq	r0, r0, r4, lsl #1
  fc:	01500364 	cmpeq	r0, r4, ror #6
 100:	000001d0 	ldrdeq	r0, [r0], -r0	; <UNPREDICTABLE>
 104:	84140e42 	ldrhi	r0, [r4], #-3650	; 0xe42
 108:	86048505 	strhi	r8, [r4], -r5, lsl #10
 10c:	8e028703 	cdphi	7, 0, cr8, cr2, cr3, {0}
 110:	200e4601 	andcs	r4, lr, r1, lsl #12
 114:	0e0a5202 	cdpeq	2, 0, cr5, cr10, cr2, {0}
 118:	020b4214 	andeq	r4, fp, #20, 4	; 0x40000001
 11c:	140e0a7a 	strne	r0, [lr], #-2682	; 0xa7a
 120:	00000b42 	andeq	r0, r0, r2, asr #22
 124:	00000014 	andeq	r0, r0, r4, lsl r0
 128:	00000084 	andeq	r0, r0, r4, lsl #1
 12c:	01500534 	cmpeq	r0, r4, lsr r5
 130:	00000050 	andeq	r0, r0, r0, asr r0
 134:	84080e4a 	strhi	r0, [r8], #-3658	; 0xe4a
 138:	00018e02 	andeq	r8, r1, r2, lsl #28
 13c:	0000000c 	andeq	r0, r0, ip
 140:	ffffffff 			; <UNDEFINED> instruction: 0xffffffff
 144:	7c020001 	stcvc	0, cr0, [r2], {1}
 148:	000d0c0e 	andeq	r0, sp, lr, lsl #24
 14c:	00000030 	andeq	r0, r0, r0, lsr r0
 150:	0000013c 	andeq	r0, r0, ip, lsr r1
 154:	01500584 	cmpeq	r0, r4, lsl #11
 158:	000001dc 	ldrdeq	r0, [r0], -ip
 15c:	84240e42 	strthi	r0, [r4], #-3650	; 0xe42
 160:	86088509 	strhi	r8, [r8], -r9, lsl #10
 164:	88068707 	stmdahi	r6, {r0, r1, r2, r8, r9, sl, pc}
 168:	8a048905 	bhi	122584 <_back_addr-0x13dda7c>
 16c:	8e028b03 	vmlahi.f64	d8, d2, d3
 170:	780e4401 	stmdavc	lr, {r0, sl, lr}
 174:	0e0ad802 	cdpeq	8, 0, cr13, cr10, cr2, {0}
 178:	4c0b4224 	sfmmi	f4, 4, [fp], {36}	; 0x24
 17c:	0000240e 	andeq	r2, r0, lr, lsl #8
 180:	0000001c 	andeq	r0, r0, ip, lsl r0
 184:	0000013c 	andeq	r0, r0, ip, lsr r1
 188:	01500760 	cmpeq	r0, r0, ror #14
 18c:	000000b0 	strheq	r0, [r0], -r0	; <UNPREDICTABLE>
 190:	84180e42 	ldrhi	r0, [r8], #-3650	; 0xe42
 194:	86058506 	strhi	r8, [r5], -r6, lsl #10
 198:	88038704 	stmdahi	r3, {r2, r8, r9, sl, pc}
 19c:	00018e02 	andeq	r8, r1, r2, lsl #28
 1a0:	0000000c 	andeq	r0, r0, ip
 1a4:	0000013c 	andeq	r0, r0, ip, lsr r1
 1a8:	01500810 	cmpeq	r0, r0, lsl r8
 1ac:	00000030 	andeq	r0, r0, r0, lsr r0
 1b0:	00000014 	andeq	r0, r0, r4, lsl r0
 1b4:	0000013c 	andeq	r0, r0, ip, lsr r1
 1b8:	01500840 	cmpeq	r0, r0, asr #16
 1bc:	0000002c 	andeq	r0, r0, ip, lsr #32
 1c0:	84080e42 	strhi	r0, [r8], #-3650	; 0xe42
 1c4:	00018e02 	andeq	r8, r1, r2, lsl #28
 1c8:	00000014 	andeq	r0, r0, r4, lsl r0
 1cc:	0000013c 	andeq	r0, r0, ip, lsr r1
 1d0:	0150086c 	cmpeq	r0, ip, ror #16
 1d4:	00000054 	andeq	r0, r0, r4, asr r0
 1d8:	84080e62 	strhi	r0, [r8], #-3682	; 0xe62
 1dc:	00018e02 	andeq	r8, r1, r2, lsl #28
 1e0:	00000014 	andeq	r0, r0, r4, lsl r0
 1e4:	0000013c 	andeq	r0, r0, ip, lsr r1
 1e8:	015008c0 	cmpeq	r0, r0, asr #17
 1ec:	0000002c 	andeq	r0, r0, ip, lsr #32
 1f0:	84080e46 	strhi	r0, [r8], #-3654	; 0xe46
 1f4:	00018e02 	andeq	r8, r1, r2, lsl #28
 1f8:	00000024 	andeq	r0, r0, r4, lsr #32
 1fc:	0000013c 	andeq	r0, r0, ip, lsr r1
 200:	015008ec 	cmpeq	r0, ip, ror #17
 204:	00000070 	andeq	r0, r0, r0, ror r0
 208:	84180e42 	ldrhi	r0, [r8], #-3650	; 0xe42
 20c:	86058506 	strhi	r8, [r5], -r6, lsl #10
 210:	88038704 	stmdahi	r3, {r2, r8, r9, sl, pc}
 214:	74018e02 	strvc	r8, [r1], #-3586	; 0xe02
 218:	c6c7c8ce 	strbgt	ip, [r7], lr, asr #17
 21c:	000ec4c5 	andeq	ip, lr, r5, asr #9
 220:	00000014 	andeq	r0, r0, r4, lsl r0
 224:	0000013c 	andeq	r0, r0, ip, lsr r1
 228:	0150095c 	cmpeq	r0, ip, asr r9
 22c:	00000020 	andeq	r0, r0, r0, lsr #32
 230:	84080e42 	strhi	r0, [r8], #-3650	; 0xe42
 234:	00018e02 	andeq	r8, r1, r2, lsl #28
 238:	00000014 	andeq	r0, r0, r4, lsl r0
 23c:	0000013c 	andeq	r0, r0, ip, lsr r1
 240:	0150097c 	cmpeq	r0, ip, ror r9
 244:	0000003c 	andeq	r0, r0, ip, lsr r0
 248:	84080e42 	strhi	r0, [r8], #-3650	; 0xe42
 24c:	00018e02 	andeq	r8, r1, r2, lsl #28
 250:	00000014 	andeq	r0, r0, r4, lsl r0
 254:	0000013c 	andeq	r0, r0, ip, lsr r1
 258:	015009b8 	ldrheq	r0, [r0, #-152]	; 0xffffff68
 25c:	0000006c 	andeq	r0, r0, ip, rrx
 260:	84080e44 	strhi	r0, [r8], #-3652	; 0xe44
 264:	00018e02 	andeq	r8, r1, r2, lsl #28
 268:	00000014 	andeq	r0, r0, r4, lsl r0
 26c:	0000013c 	andeq	r0, r0, ip, lsr r1
 270:	01500a24 	cmpeq	r0, r4, lsr #20
 274:	00000020 	andeq	r0, r0, r0, lsr #32
 278:	84080e42 	strhi	r0, [r8], #-3650	; 0xe42
 27c:	00018e02 	andeq	r8, r1, r2, lsl #28
 280:	00000014 	andeq	r0, r0, r4, lsl r0
 284:	0000013c 	andeq	r0, r0, ip, lsr r1
 288:	01500a44 	cmpeq	r0, r4, asr #20
 28c:	00000020 	andeq	r0, r0, r0, lsr #32
 290:	84080e42 	strhi	r0, [r8], #-3650	; 0xe42
 294:	00018e02 	andeq	r8, r1, r2, lsl #28
 298:	00000014 	andeq	r0, r0, r4, lsl r0
 29c:	0000013c 	andeq	r0, r0, ip, lsr r1
 2a0:	01500a64 	cmpeq	r0, r4, ror #20
 2a4:	00000020 	andeq	r0, r0, r0, lsr #32
 2a8:	84080e42 	strhi	r0, [r8], #-3650	; 0xe42
 2ac:	00018e02 	andeq	r8, r1, r2, lsl #28
 2b0:	00000014 	andeq	r0, r0, r4, lsl r0
 2b4:	0000013c 	andeq	r0, r0, ip, lsr r1
 2b8:	01500a84 	cmpeq	r0, r4, lsl #21
 2bc:	00000020 	andeq	r0, r0, r0, lsr #32
 2c0:	84080e42 	strhi	r0, [r8], #-3650	; 0xe42
 2c4:	00018e02 	andeq	r8, r1, r2, lsl #28
 2c8:	00000014 	andeq	r0, r0, r4, lsl r0
 2cc:	0000013c 	andeq	r0, r0, ip, lsr r1
 2d0:	01500aa4 	cmpeq	r0, r4, lsr #21
 2d4:	00000020 	andeq	r0, r0, r0, lsr #32
 2d8:	84080e42 	strhi	r0, [r8], #-3650	; 0xe42
 2dc:	00018e02 	andeq	r8, r1, r2, lsl #28
 2e0:	00000014 	andeq	r0, r0, r4, lsl r0
 2e4:	0000013c 	andeq	r0, r0, ip, lsr r1
 2e8:	01500ac4 	cmpeq	r0, r4, asr #21
 2ec:	00000020 	andeq	r0, r0, r0, lsr #32
 2f0:	84080e42 	strhi	r0, [r8], #-3650	; 0xe42
 2f4:	00018e02 	andeq	r8, r1, r2, lsl #28
 2f8:	00000018 	andeq	r0, r0, r8, lsl r0
 2fc:	0000013c 	andeq	r0, r0, ip, lsr r1
 300:	01500ae4 	cmpeq	r0, r4, ror #21
 304:	00000020 	andeq	r0, r0, r0, lsr #32
 308:	84080e42 	strhi	r0, [r8], #-3650	; 0xe42
 30c:	4c018e02 	stcmi	14, cr8, [r1], {2}
 310:	000ec4ce 	andeq	ip, lr, lr, asr #9
 314:	00000014 	andeq	r0, r0, r4, lsl r0
 318:	0000013c 	andeq	r0, r0, ip, lsr r1
 31c:	01500b04 	cmpeq	r0, r4, lsl #22
 320:	00000020 	andeq	r0, r0, r0, lsr #32
 324:	84080e42 	strhi	r0, [r8], #-3650	; 0xe42
 328:	00018e02 	andeq	r8, r1, r2, lsl #28
 32c:	00000014 	andeq	r0, r0, r4, lsl r0
 330:	0000013c 	andeq	r0, r0, ip, lsr r1
 334:	01500b24 	cmpeq	r0, r4, lsr #22
 338:	00000020 	andeq	r0, r0, r0, lsr #32
 33c:	84080e42 	strhi	r0, [r8], #-3650	; 0xe42
 340:	00018e02 	andeq	r8, r1, r2, lsl #28
 344:	00000014 	andeq	r0, r0, r4, lsl r0
 348:	0000013c 	andeq	r0, r0, ip, lsr r1
 34c:	01500b44 	cmpeq	r0, r4, asr #22
 350:	00000020 	andeq	r0, r0, r0, lsr #32
 354:	84080e42 	strhi	r0, [r8], #-3650	; 0xe42
 358:	00018e02 	andeq	r8, r1, r2, lsl #28
 35c:	00000014 	andeq	r0, r0, r4, lsl r0
 360:	0000013c 	andeq	r0, r0, ip, lsr r1
 364:	01500b64 	cmpeq	r0, r4, ror #22
 368:	00000020 	andeq	r0, r0, r0, lsr #32
 36c:	84080e42 	strhi	r0, [r8], #-3650	; 0xe42
 370:	00018e02 	andeq	r8, r1, r2, lsl #28
 374:	00000014 	andeq	r0, r0, r4, lsl r0
 378:	0000013c 	andeq	r0, r0, ip, lsr r1
 37c:	01500b84 	cmpeq	r0, r4, lsl #23
 380:	0000006c 	andeq	r0, r0, ip, rrx
 384:	84080e46 	strhi	r0, [r8], #-3654	; 0xe46
 388:	00018e02 	andeq	r8, r1, r2, lsl #28
 38c:	00000014 	andeq	r0, r0, r4, lsl r0
 390:	0000013c 	andeq	r0, r0, ip, lsr r1
 394:	01500bf0 	ldrsheq	r0, [r0, #-176]	; 0xffffff50
 398:	0000006c 	andeq	r0, r0, ip, rrx
 39c:	84080e46 	strhi	r0, [r8], #-3654	; 0xe46
 3a0:	00018e02 	andeq	r8, r1, r2, lsl #28
 3a4:	00000014 	andeq	r0, r0, r4, lsl r0
 3a8:	0000013c 	andeq	r0, r0, ip, lsr r1
 3ac:	01500c5c 	cmpeq	r0, ip, asr ip
 3b0:	0000009c 	muleq	r0, ip, r0
 3b4:	84080e42 	strhi	r0, [r8], #-3650	; 0xe42
 3b8:	00018e02 	andeq	r8, r1, r2, lsl #28
 3bc:	00000018 	andeq	r0, r0, r8, lsl r0
 3c0:	0000013c 	andeq	r0, r0, ip, lsr r1
 3c4:	01500cf8 	ldrsheq	r0, [r0, #-200]	; 0xffffff38
 3c8:	00000080 	andeq	r0, r0, r0, lsl #1
 3cc:	8e040e4e 	cdphi	14, 0, cr0, cr4, cr14, {2}
 3d0:	000e6e01 	andeq	r6, lr, r1, lsl #28
 3d4:	000000ce 	andeq	r0, r0, lr, asr #1
 3d8:	00000018 	andeq	r0, r0, r8, lsl r0
 3dc:	0000013c 	andeq	r0, r0, ip, lsr r1
 3e0:	01500d78 	cmpeq	r0, r8, ror sp
 3e4:	00000054 	andeq	r0, r0, r4, asr r0
 3e8:	8e040e48 	cdphi	14, 0, cr0, cr4, cr8, {2}
 3ec:	000e5e01 	andeq	r5, lr, r1, lsl #28
 3f0:	000000ce 	andeq	r0, r0, lr, asr #1
 3f4:	00000014 	andeq	r0, r0, r4, lsl r0
 3f8:	0000013c 	andeq	r0, r0, ip, lsr r1
 3fc:	01500dcc 	cmpeq	r0, ip, asr #27
 400:	00000044 	andeq	r0, r0, r4, asr #32
 404:	84080e42 	strhi	r0, [r8], #-3650	; 0xe42
 408:	00018e02 	andeq	r8, r1, r2, lsl #28
 40c:	0000000c 	andeq	r0, r0, ip
 410:	ffffffff 			; <UNDEFINED> instruction: 0xffffffff
 414:	7c020001 	stcvc	0, cr0, [r2], {1}
 418:	000d0c0e 	andeq	r0, sp, lr, lsl #24
 41c:	00000018 	andeq	r0, r0, r8, lsl r0
 420:	0000040c 	andeq	r0, r0, ip, lsl #8
 424:	01500e10 	cmpeq	r0, r0, lsl lr
 428:	00000070 	andeq	r0, r0, r0, ror r0
 42c:	84100e42 	ldrhi	r0, [r0], #-3650	; 0xe42
 430:	86038504 	strhi	r8, [r3], -r4, lsl #10
 434:	00018e02 	andeq	r8, r1, r2, lsl #28
 438:	0000000c 	andeq	r0, r0, ip
 43c:	0000040c 	andeq	r0, r0, ip, lsl #8
 440:	01500e80 	cmpeq	r0, r0, lsl #29
 444:	00000034 	andeq	r0, r0, r4, lsr r0
 448:	00000020 	andeq	r0, r0, r0, lsr #32
 44c:	0000040c 	andeq	r0, r0, ip, lsl #8
 450:	01500eb4 	ldrheq	r0, [r0, #-228]	; 0xffffff1c
 454:	00000108 	andeq	r0, r0, r8, lsl #2
 458:	84100e46 	ldrhi	r0, [r0], #-3654	; 0xe46
 45c:	86038504 	strhi	r8, [r3], -r4, lsl #10
 460:	02018e02 	andeq	r8, r1, #2, 28
 464:	c4000e7a 	strgt	r0, [r0], #-3706	; 0xe7a
 468:	00cec6c5 	sbceq	ip, lr, r5, asr #13
 46c:	0000000c 	andeq	r0, r0, ip
 470:	0000040c 	andeq	r0, r0, ip, lsl #8
 474:	01500fbc 	ldrheq	r0, [r0, #-252]	; 0xffffff04
 478:	00000008 	andeq	r0, r0, r8
 47c:	00000028 	andeq	r0, r0, r8, lsr #32
 480:	0000040c 	andeq	r0, r0, ip, lsl #8
 484:	01500fc4 	cmpeq	r0, r4, asr #31
 488:	00000270 	andeq	r0, r0, r0, ror r2
 48c:	840c0e42 	strhi	r0, [ip], #-3650	; 0xe42
 490:	8e028503 	cfsh32hi	mvfx8, mvfx2, #3
 494:	200e4801 	andcs	r4, lr, r1, lsl #16
 498:	0e0a8a02 	vmlaeq.f32	s16, s20, s4
 49c:	5c0b420c 	sfmpl	f4, 4, [fp], {12}
 4a0:	420c0e0a 	andmi	r0, ip, #10, 28	; 0xa0
 4a4:	0000000b 	andeq	r0, r0, fp
 4a8:	00000028 	andeq	r0, r0, r8, lsr #32
 4ac:	0000040c 	andeq	r0, r0, ip, lsl #8
 4b0:	01501234 	cmpeq	r0, r4, lsr r2
 4b4:	00000090 	muleq	r0, r0, r0
 4b8:	84180e42 	ldrhi	r0, [r8], #-3650	; 0xe42
 4bc:	86058506 	strhi	r8, [r5], -r6, lsl #10
 4c0:	88038704 	stmdahi	r3, {r2, r8, r9, sl, pc}
 4c4:	70018e02 	andvc	r8, r1, r2, lsl #28
 4c8:	c7c8ce0a 	strbgt	ip, [r8, sl, lsl #28]
 4cc:	0ec4c5c6 	cdpeq	5, 12, cr12, cr4, cr6, {6}
 4d0:	000b4200 	andeq	r4, fp, r0, lsl #4
 4d4:	00000028 	andeq	r0, r0, r8, lsr #32
 4d8:	0000040c 	andeq	r0, r0, ip, lsl #8
 4dc:	015012c4 	cmpeq	r0, r4, asr #5
 4e0:	00000090 	muleq	r0, r0, r0
 4e4:	84180e42 	ldrhi	r0, [r8], #-3650	; 0xe42
 4e8:	86058506 	strhi	r8, [r5], -r6, lsl #10
 4ec:	88038704 	stmdahi	r3, {r2, r8, r9, sl, pc}
 4f0:	70018e02 	andvc	r8, r1, r2, lsl #28
 4f4:	c7c8ce0a 	strbgt	ip, [r8, sl, lsl #28]
 4f8:	0ec4c5c6 	cdpeq	5, 12, cr12, cr4, cr6, {6}
 4fc:	000b4200 	andeq	r4, fp, r0, lsl #4
 500:	00000028 	andeq	r0, r0, r8, lsr #32
 504:	0000040c 	andeq	r0, r0, ip, lsl #8
 508:	01501354 	cmpeq	r0, r4, asr r3
 50c:	00000094 	muleq	r0, r4, r0
 510:	84180e42 	ldrhi	r0, [r8], #-3650	; 0xe42
 514:	86058506 	strhi	r8, [r5], -r6, lsl #10
 518:	88038704 	stmdahi	r3, {r2, r8, r9, sl, pc}
 51c:	70018e02 	andvc	r8, r1, r2, lsl #28
 520:	c7c8ce0a 	strbgt	ip, [r8, sl, lsl #28]
 524:	0ec4c5c6 	cdpeq	5, 12, cr12, cr4, cr6, {6}
 528:	000b4200 	andeq	r4, fp, r0, lsl #4
 52c:	0000001c 	andeq	r0, r0, ip, lsl r0
 530:	0000040c 	andeq	r0, r0, ip, lsl #8
 534:	015013e8 	cmpeq	r0, r8, ror #7
 538:	000000ec 	andeq	r0, r0, ip, ror #1
 53c:	84180e42 	ldrhi	r0, [r8], #-3650	; 0xe42
 540:	86058506 	strhi	r8, [r5], -r6, lsl #10
 544:	88038704 	stmdahi	r3, {r2, r8, r9, sl, pc}
 548:	00018e02 	andeq	r8, r1, r2, lsl #28
 54c:	00000024 	andeq	r0, r0, r4, lsr #32
 550:	0000040c 	andeq	r0, r0, ip, lsl #8
 554:	015014d4 	ldrsbeq	r1, [r0, #-68]	; 0xffffffbc
 558:	00000070 	andeq	r0, r0, r0, ror r0
 55c:	84100e42 	ldrhi	r0, [r0], #-3650	; 0xe42
 560:	86038504 	strhi	r8, [r3], -r4, lsl #10
 564:	70018e02 	andvc	r8, r1, r2, lsl #28
 568:	c5c6ce0a 	strbgt	ip, [r6, #3594]	; 0xe0a
 56c:	42000ec4 	andmi	r0, r0, #196, 28	; 0xc40
 570:	0000000b 	andeq	r0, r0, fp
 574:	00000028 	andeq	r0, r0, r8, lsr #32
 578:	0000040c 	andeq	r0, r0, ip, lsl #8
 57c:	01501544 	cmpeq	r0, r4, asr #10
 580:	00000158 	andeq	r0, r0, r8, asr r1
 584:	84180e4c 	ldrhi	r0, [r8], #-3660	; 0xe4c
 588:	86058506 	strhi	r8, [r5], -r6, lsl #10
 58c:	88038704 	stmdahi	r3, {r2, r8, r9, sl, pc}
 590:	02018e02 	andeq	r8, r1, #2, 28
 594:	c4000e9c 	strgt	r0, [r0], #-3740	; 0xe9c
 598:	c8c7c6c5 	stmiagt	r7, {r0, r2, r6, r7, r9, sl, lr, pc}^
 59c:	000000ce 	andeq	r0, r0, lr, asr #1
 5a0:	00000040 	andeq	r0, r0, r0, asr #32
 5a4:	0000040c 	andeq	r0, r0, ip, lsl #8
 5a8:	0150169c 			; <UNDEFINED> instruction: 0x0150169c
 5ac:	000000cc 	andeq	r0, r0, ip, asr #1
 5b0:	84180e48 	ldrhi	r0, [r8], #-3656	; 0xe48
 5b4:	86058506 	strhi	r8, [r5], -r6, lsl #10
 5b8:	88038704 	stmdahi	r3, {r2, r8, r9, sl, pc}
 5bc:	74018e02 	strvc	r8, [r1], #-3586	; 0xe02
 5c0:	c7c8ce0a 	strbgt	ip, [r8, sl, lsl #28]
 5c4:	0ec4c5c6 	cdpeq	5, 12, cr12, cr4, cr6, {6}
 5c8:	600b4200 	andvs	r4, fp, r0, lsl #4
 5cc:	c5c4000e 	strbgt	r0, [r4, #14]
 5d0:	cec8c7c6 	cdpgt	7, 12, cr12, cr8, cr6, {6}
 5d4:	84180e44 	ldrhi	r0, [r8], #-3652	; 0xe44
 5d8:	86058506 	strhi	r8, [r5], -r6, lsl #10
 5dc:	88038704 	stmdahi	r3, {r2, r8, r9, sl, pc}
 5e0:	00018e02 	andeq	r8, r1, r2, lsl #28
 5e4:	00000028 	andeq	r0, r0, r8, lsr #32
 5e8:	0000040c 	andeq	r0, r0, ip, lsl #8
 5ec:	01501768 	cmpeq	r0, r8, ror #14
 5f0:	0000017c 	andeq	r0, r0, ip, ror r1
 5f4:	84100e42 	ldrhi	r0, [r0], #-3650	; 0xe42
 5f8:	86038504 	strhi	r8, [r3], -r4, lsl #10
 5fc:	46018e02 	strmi	r8, [r1], -r2, lsl #28
 600:	0202900e 	andeq	r9, r2, #14
 604:	100e0a9c 	mulne	lr, ip, sl
 608:	0a4a0b42 	beq	1283318 <_back_addr-0x27cce8>
 60c:	0b42100e 	bleq	108464c <_back_addr-0x47b9b4>
 610:	00000028 	andeq	r0, r0, r8, lsr #32
 614:	0000040c 	andeq	r0, r0, ip, lsl #8
 618:	015018e4 	cmpeq	r0, r4, ror #17
 61c:	00000108 	andeq	r0, r0, r8, lsl #2
 620:	84180e4c 	ldrhi	r0, [r8], #-3660	; 0xe4c
 624:	86058506 	strhi	r8, [r5], -r6, lsl #10
 628:	88038704 	stmdahi	r3, {r2, r8, r9, sl, pc}
 62c:	02018e02 	andeq	r8, r1, #2, 28
 630:	c8ce0a40 	stmiagt	lr, {r6, r9, fp}^
 634:	c4c5c6c7 	strbgt	ip, [r5], #1735	; 0x6c7
 638:	0b42000e 	bleq	1080678 <_back_addr-0x47f988>
 63c:	0000000c 	andeq	r0, r0, ip
 640:	0000040c 	andeq	r0, r0, ip, lsl #8
 644:	015019ec 	cmpeq	r0, ip, ror #19
 648:	00000028 	andeq	r0, r0, r8, lsr #32
 64c:	0000000c 	andeq	r0, r0, ip
 650:	ffffffff 			; <UNDEFINED> instruction: 0xffffffff
 654:	7c020001 	stcvc	0, cr0, [r2], {1}
 658:	000d0c0e 	andeq	r0, sp, lr, lsl #24
 65c:	00000024 	andeq	r0, r0, r4, lsr #32
 660:	0000064c 	andeq	r0, r0, ip, asr #12
 664:	01501a14 	cmpeq	r0, r4, lsl sl
 668:	000001bc 			; <UNDEFINED> instruction: 0x000001bc
 66c:	84140e42 	ldrhi	r0, [r4], #-3650	; 0xe42
 670:	86048505 	strhi	r8, [r4], -r5, lsl #10
 674:	8e028703 	cdphi	7, 0, cr8, cr2, cr3, {0}
 678:	280e4601 	stmdacs	lr, {r0, r9, sl, lr}
 67c:	0e0aa202 	cdpeq	2, 0, cr10, cr10, cr2, {0}
 680:	000b4214 	andeq	r4, fp, r4, lsl r2
 684:	0000001c 	andeq	r0, r0, ip, lsl r0
 688:	0000064c 	andeq	r0, r0, ip, asr #12
 68c:	01501bd0 	ldrsbeq	r1, [r0, #-176]	; 0xffffff50
 690:	000000f4 	strdeq	r0, [r0], -r4
 694:	84180e42 	ldrhi	r0, [r8], #-3650	; 0xe42
 698:	86058506 	strhi	r8, [r5], -r6, lsl #10
 69c:	88038704 	stmdahi	r3, {r2, r8, r9, sl, pc}
 6a0:	00018e02 	andeq	r8, r1, r2, lsl #28
 6a4:	00000044 	andeq	r0, r0, r4, asr #32
 6a8:	0000064c 	andeq	r0, r0, ip, asr #12
 6ac:	01501cc4 	cmpeq	r0, r4, asr #25
 6b0:	00000684 	andeq	r0, r0, r4, lsl #13
 6b4:	84240e42 	strthi	r0, [r4], #-3650	; 0xe42
 6b8:	86088509 	strhi	r8, [r8], -r9, lsl #10
 6bc:	88068707 	stmdahi	r6, {r0, r1, r2, r8, r9, sl, pc}
 6c0:	8a048905 	bhi	122adc <_back_addr-0x13dd524>
 6c4:	8e028b03 	vmlahi.f64	d8, d2, d3
 6c8:	900e4601 	andls	r4, lr, r1, lsl #12
 6cc:	0a820205 	beq	fe080ee8 <__bss_end__+0xfcb6d3a8>
 6d0:	0b42240e 	bleq	1089710 <_back_addr-0x4768f0>
 6d4:	0a012003 	beq	486e8 <_back_addr-0x14b7918>
 6d8:	0b42240e 	bleq	1089718 <_back_addr-0x4768e8>
 6dc:	240e0a4e 	strcs	r0, [lr], #-2638	; 0xa4e
 6e0:	02030b42 	andeq	r0, r3, #67584	; 0x10800
 6e4:	240e0a01 	strcs	r0, [lr], #-2561	; 0xa01
 6e8:	00000b42 	andeq	r0, r0, r2, asr #22
 6ec:	00000020 	andeq	r0, r0, r0, lsr #32
 6f0:	0000064c 	andeq	r0, r0, ip, asr #12
 6f4:	01502348 	cmpeq	r0, r8, asr #6
 6f8:	000002c4 	andeq	r0, r0, r4, asr #5
 6fc:	84080e42 	strhi	r0, [r8], #-3650	; 0xe42
 700:	46018e02 	strmi	r8, [r1], -r2, lsl #28
 704:	030c880e 	movweq	r8, #51214	; 0xc80e
 708:	0e0a0150 	flteqem	f2, r0
 70c:	000b4208 	andeq	r4, fp, r8, lsl #4
 710:	0000000c 	andeq	r0, r0, ip
 714:	0000064c 	andeq	r0, r0, ip, asr #12
 718:	0150260c 	cmpeq	r0, ip, lsl #12
 71c:	00000008 	andeq	r0, r0, r8
 720:	0000000c 	andeq	r0, r0, ip
 724:	ffffffff 			; <UNDEFINED> instruction: 0xffffffff
 728:	7c020001 	stcvc	0, cr0, [r2], {1}
 72c:	000d0c0e 	andeq	r0, sp, lr, lsl #24
 730:	00000014 	andeq	r0, r0, r4, lsl r0
 734:	00000720 	andeq	r0, r0, r0, lsr #14
 738:	01502614 	cmpeq	r0, r4, lsl r6
 73c:	00000058 	andeq	r0, r0, r8, asr r0
 740:	84080e58 	strhi	r0, [r8], #-3672	; 0xe58
 744:	00018e02 	andeq	r8, r1, r2, lsl #28
 748:	0000000c 	andeq	r0, r0, ip
 74c:	00000720 	andeq	r0, r0, r0, lsr #14
 750:	0150266c 	cmpeq	r0, ip, ror #12
 754:	0000002c 	andeq	r0, r0, ip, lsr #32
 758:	0000000c 	andeq	r0, r0, ip
 75c:	00000720 	andeq	r0, r0, r0, lsr #14
 760:	01502698 			; <UNDEFINED> instruction: 0x01502698
 764:	00000030 	andeq	r0, r0, r0, lsr r0
 768:	00000014 	andeq	r0, r0, r4, lsl r0
 76c:	00000720 	andeq	r0, r0, r0, lsr #14
 770:	015026c8 	cmpeq	r0, r8, asr #13
 774:	0000005c 	andeq	r0, r0, ip, asr r0
 778:	8e040e50 	mcrhi	14, 0, r0, cr4, cr0, {2}
 77c:	00000001 	andeq	r0, r0, r1
 780:	00000014 	andeq	r0, r0, r4, lsl r0
 784:	00000720 	andeq	r0, r0, r0, lsr #14
 788:	01502724 	cmpeq	r0, r4, lsr #14
 78c:	00000058 	andeq	r0, r0, r8, asr r0
 790:	8e040e4e 	cdphi	14, 0, cr0, cr4, cr14, {2}
 794:	00000001 	andeq	r0, r0, r1
 798:	0000000c 	andeq	r0, r0, ip
 79c:	ffffffff 			; <UNDEFINED> instruction: 0xffffffff
 7a0:	7c020001 	stcvc	0, cr0, [r2], {1}
 7a4:	000d0c0e 	andeq	r0, sp, lr, lsl #24
 7a8:	0000000c 	andeq	r0, r0, ip
 7ac:	00000798 	muleq	r0, r8, r7
 7b0:	0150277c 	cmpeq	r0, ip, ror r7
 7b4:	0000001c 	andeq	r0, r0, ip, lsl r0
 7b8:	00000014 	andeq	r0, r0, r4, lsl r0
 7bc:	00000798 	muleq	r0, r8, r7
 7c0:	01502798 			; <UNDEFINED> instruction: 0x01502798
 7c4:	00000054 	andeq	r0, r0, r4, asr r0
 7c8:	84080e46 	strhi	r0, [r8], #-3654	; 0xe46
 7cc:	00018e02 	andeq	r8, r1, r2, lsl #28
 7d0:	0000000c 	andeq	r0, r0, ip
 7d4:	00000798 	muleq	r0, r8, r7
 7d8:	015027ec 	cmpeq	r0, ip, ror #15
 7dc:	00000028 	andeq	r0, r0, r8, lsr #32
 7e0:	0000000c 	andeq	r0, r0, ip
 7e4:	00000798 	muleq	r0, r8, r7
 7e8:	01502814 	cmpeq	r0, r4, lsl r8
 7ec:	00000068 	andeq	r0, r0, r8, rrx
 7f0:	00000024 	andeq	r0, r0, r4, lsr #32
 7f4:	00000798 	muleq	r0, r8, r7
 7f8:	0150287c 	cmpeq	r0, ip, ror r8
 7fc:	00000060 	andeq	r0, r0, r0, rrx
 800:	84180e4a 	ldrhi	r0, [r8], #-3658	; 0xe4a
 804:	86058506 	strhi	r8, [r5], -r6, lsl #10
 808:	88038704 	stmdahi	r3, {r2, r8, r9, sl, pc}
 80c:	62018e02 	andvs	r8, r1, #2, 28
 810:	c6c7c8ce 	strbgt	ip, [r7], lr, asr #17
 814:	000ec4c5 	andeq	ip, lr, r5, asr #9
 818:	0000000c 	andeq	r0, r0, ip
 81c:	00000798 	muleq	r0, r8, r7
 820:	015028dc 	ldrsbeq	r2, [r0, #-140]	; 0xffffff74
 824:	00000050 	andeq	r0, r0, r0, asr r0
 828:	0000000c 	andeq	r0, r0, ip
 82c:	00000798 	muleq	r0, r8, r7
 830:	0150292c 	cmpeq	r0, ip, lsr #18
 834:	00000008 	andeq	r0, r0, r8
 838:	0000000c 	andeq	r0, r0, ip
 83c:	00000798 	muleq	r0, r8, r7
 840:	01502934 	cmpeq	r0, r4, lsr r9
 844:	00000004 	andeq	r0, r0, r4
 848:	0000000c 	andeq	r0, r0, ip
 84c:	00000798 	muleq	r0, r8, r7
 850:	01502938 	cmpeq	r0, r8, lsr r9
 854:	00000024 	andeq	r0, r0, r4, lsr #32
 858:	0000000c 	andeq	r0, r0, ip
 85c:	00000798 	muleq	r0, r8, r7
 860:	0150295c 	cmpeq	r0, ip, asr r9
 864:	0000000c 	andeq	r0, r0, ip
 868:	00000014 	andeq	r0, r0, r4, lsl r0
 86c:	00000798 	muleq	r0, r8, r7
 870:	01502968 	cmpeq	r0, r8, ror #18
 874:	00000054 	andeq	r0, r0, r4, asr r0
 878:	84080e46 	strhi	r0, [r8], #-3654	; 0xe46
 87c:	00018e02 	andeq	r8, r1, r2, lsl #28
 880:	0000000c 	andeq	r0, r0, ip
 884:	00000798 	muleq	r0, r8, r7
 888:	015029bc 	ldrheq	r2, [r0, #-156]	; 0xffffff64
 88c:	00000034 	andeq	r0, r0, r4, lsr r0
 890:	0000002c 	andeq	r0, r0, ip, lsr #32
 894:	00000798 	muleq	r0, r8, r7
 898:	015029f0 	ldrsheq	r2, [r0, #-144]	; 0xffffff70
 89c:	000000b0 	strheq	r0, [r0], -r0	; <UNPREDICTABLE>
 8a0:	84100e46 	ldrhi	r0, [r0], #-3654	; 0xe46
 8a4:	86038504 	strhi	r8, [r3], -r4, lsl #10
 8a8:	02018e02 	andeq	r8, r1, #2, 28
 8ac:	c6ce0a48 	strbgt	r0, [lr], r8, asr #20
 8b0:	000ec4c5 	andeq	ip, lr, r5, asr #9
 8b4:	ce460b42 	vmlsgt.f64	d16, d6, d2
 8b8:	0ec4c5c6 	cdpeq	5, 12, cr12, cr4, cr6, {6}
 8bc:	00000000 	andeq	r0, r0, r0
 8c0:	0000000c 	andeq	r0, r0, ip
 8c4:	00000798 	muleq	r0, r8, r7
 8c8:	01502aa0 	cmpeq	r0, r0, lsr #21
 8cc:	00000024 	andeq	r0, r0, r4, lsr #32
 8d0:	0000000c 	andeq	r0, r0, ip
 8d4:	00000798 	muleq	r0, r8, r7
 8d8:	01502ac4 	cmpeq	r0, r4, asr #21
 8dc:	0000001c 	andeq	r0, r0, ip, lsl r0
 8e0:	00000018 	andeq	r0, r0, r8, lsl r0
 8e4:	00000798 	muleq	r0, r8, r7
 8e8:	01502ae0 	cmpeq	r0, r0, ror #21
 8ec:	0000009c 	muleq	r0, ip, r0
 8f0:	64080e44 	strvs	r0, [r8], #-3652	; 0xe44
 8f4:	42000e0a 	andmi	r0, r0, #10, 28	; 0xa0
 8f8:	000e620b 	andeq	r6, lr, fp, lsl #4
 8fc:	00000018 	andeq	r0, r0, r8, lsl r0
 900:	00000798 	muleq	r0, r8, r7
 904:	01502b7c 	cmpeq	r0, ip, ror fp
 908:	00000058 	andeq	r0, r0, r8, asr r0
 90c:	8e040e46 	cdphi	14, 0, cr0, cr4, cr6, {2}
 910:	000e6201 	andeq	r6, lr, r1, lsl #4
 914:	000000ce 	andeq	r0, r0, lr, asr #1
 918:	0000000c 	andeq	r0, r0, ip
 91c:	00000798 	muleq	r0, r8, r7
 920:	01502bd4 	ldrsbeq	r2, [r0, #-180]	; 0xffffff4c
 924:	00000044 	andeq	r0, r0, r4, asr #32
 928:	0000000c 	andeq	r0, r0, ip
 92c:	00000798 	muleq	r0, r8, r7
 930:	01502c18 	cmpeq	r0, r8, lsl ip
 934:	00000028 	andeq	r0, r0, r8, lsr #32
 938:	0000000c 	andeq	r0, r0, ip
 93c:	00000798 	muleq	r0, r8, r7
 940:	01502c40 	cmpeq	r0, r0, asr #24
 944:	00000004 	andeq	r0, r0, r4
 948:	0000000c 	andeq	r0, r0, ip
 94c:	ffffffff 			; <UNDEFINED> instruction: 0xffffffff
 950:	7c020001 	stcvc	0, cr0, [r2], {1}
 954:	000d0c0e 	andeq	r0, sp, lr, lsl #24
 958:	00000020 	andeq	r0, r0, r0, lsr #32
 95c:	00000948 	andeq	r0, r0, r8, asr #18
 960:	01502c44 	cmpeq	r0, r4, asr #24
 964:	000000e4 	andeq	r0, r0, r4, ror #1
 968:	841c0e42 	ldrhi	r0, [ip], #-3650	; 0xe42
 96c:	86068507 	strhi	r8, [r6], -r7, lsl #10
 970:	88048705 	stmdahi	r4, {r0, r2, r8, r9, sl, pc}
 974:	8e028903 	cdphi	9, 0, cr8, cr2, cr3, {0}
 978:	00000001 	andeq	r0, r0, r1
 97c:	0000000c 	andeq	r0, r0, ip
 980:	00000948 	andeq	r0, r0, r8, asr #18
 984:	01502d28 	cmpeq	r0, r8, lsr #26
 988:	00000018 	andeq	r0, r0, r8, lsl r0
 98c:	0000000c 	andeq	r0, r0, ip
 990:	00000948 	andeq	r0, r0, r8, asr #18
 994:	01502d40 	cmpeq	r0, r0, asr #26
 998:	00000004 	andeq	r0, r0, r4
 99c:	0000000c 	andeq	r0, r0, ip
 9a0:	00000948 	andeq	r0, r0, r8, asr #18
 9a4:	01502d44 	cmpeq	r0, r4, asr #26
 9a8:	00000004 	andeq	r0, r0, r4
 9ac:	0000000c 	andeq	r0, r0, ip
 9b0:	00000948 	andeq	r0, r0, r8, asr #18
 9b4:	01502d48 	cmpeq	r0, r8, asr #26
 9b8:	00000004 	andeq	r0, r0, r4
 9bc:	00000018 	andeq	r0, r0, r8, lsl r0
 9c0:	00000948 	andeq	r0, r0, r8, asr #18
 9c4:	01502d4c 	cmpeq	r0, ip, asr #26
 9c8:	00000014 	andeq	r0, r0, r4, lsl r0
 9cc:	84080e42 	strhi	r0, [r8], #-3650	; 0xe42
 9d0:	46018e02 	strmi	r8, [r1], -r2, lsl #28
 9d4:	000ec4ce 	andeq	ip, lr, lr, asr #9
 9d8:	0000000c 	andeq	r0, r0, ip
 9dc:	00000948 	andeq	r0, r0, r8, asr #18
 9e0:	01502d60 	cmpeq	r0, r0, ror #26
 9e4:	00000004 	andeq	r0, r0, r4
 9e8:	00000018 	andeq	r0, r0, r8, lsl r0
 9ec:	00000948 	andeq	r0, r0, r8, asr #18
 9f0:	01502d64 	cmpeq	r0, r4, ror #26
 9f4:	00000014 	andeq	r0, r0, r4, lsl r0
 9f8:	84080e42 	strhi	r0, [r8], #-3650	; 0xe42
 9fc:	46018e02 	strmi	r8, [r1], -r2, lsl #28
 a00:	000ec4ce 	andeq	ip, lr, lr, asr #9
 a04:	00000014 	andeq	r0, r0, r4, lsl r0
 a08:	00000948 	andeq	r0, r0, r8, asr #18
 a0c:	01502d78 	cmpeq	r0, r8, ror sp
 a10:	00000030 	andeq	r0, r0, r0, lsr r0
 a14:	84080e42 	strhi	r0, [r8], #-3650	; 0xe42
 a18:	00018e02 	andeq	r8, r1, r2, lsl #28
 a1c:	0000000c 	andeq	r0, r0, ip
 a20:	00000948 	andeq	r0, r0, r8, asr #18
 a24:	01502da8 	cmpeq	r0, r8, lsr #27
 a28:	00000004 	andeq	r0, r0, r4
 a2c:	0000000c 	andeq	r0, r0, ip
 a30:	00000948 	andeq	r0, r0, r8, asr #18
 a34:	01502dac 	cmpeq	r0, ip, lsr #27
 a38:	0000003c 	andeq	r0, r0, ip, lsr r0
 a3c:	0000000c 	andeq	r0, r0, ip
 a40:	00000948 	andeq	r0, r0, r8, asr #18
 a44:	01502de8 	cmpeq	r0, r8, ror #27
 a48:	00000008 	andeq	r0, r0, r8
 a4c:	0000000c 	andeq	r0, r0, ip
 a50:	00000948 	andeq	r0, r0, r8, asr #18
 a54:	01502df0 	ldrsheq	r2, [r0, #-208]	; 0xffffff30
 a58:	00000004 	andeq	r0, r0, r4
 a5c:	00000018 	andeq	r0, r0, r8, lsl r0
 a60:	00000948 	andeq	r0, r0, r8, asr #18
 a64:	01502df4 	ldrsheq	r2, [r0, #-212]	; 0xffffff2c
 a68:	00000068 	andeq	r0, r0, r8, rrx
 a6c:	8e040e42 	cdphi	14, 0, cr0, cr4, cr2, {2}
 a70:	0ece7001 	cdpeq	0, 12, cr7, cr14, cr1, {0}
 a74:	00000000 	andeq	r0, r0, r0

Disassembly of section .debug_str:

00000000 <.debug_str>:
       0:	6c727473 	cfldrdvs	mvd7, [r2], #-460	; 0xfffffe34
       4:	632e6e65 	teqvs	lr, #1616	; 0x650
       8:	6f682f00 	svcvs	0x00682f00
       c:	632f656d 	teqvs	pc, #457179136	; 0x1b400000
      10:	6c6f7261 	sfmvs	f7, 2, [pc], #-388	; fffffe94 <__bss_end__+0xfeaec354>
      14:	2f757368 	svccs	0x00757368
      18:	2f73616e 	svccs	0x0073616e
      1c:	2f6e7673 	svccs	0x006e7673
      20:	746f6f62 	strbtvc	r6, [pc], #-3938	; 28 <_back_addr-0x14fffd8>
      24:	65646f63 	strbvs	r6, [r4, #-3939]!	; 0xf63
      28:	3130325f 	teqcc	r0, pc, asr r2
      2c:	30383036 	eorscc	r3, r8, r6, lsr r0
      30:	62752f31 	rsbsvs	r2, r5, #49, 30	; 0xc4
      34:	2f746f6f 	svccs	0x00746f6f
      38:	6d617865 	stclvs	8, cr7, [r1, #-404]!	; 0xfffffe6c
      3c:	73656c70 	cmnvc	r5, #112, 24	; 0x7000
      40:	7566652f 	strbvc	r6, [r6, #-1327]!	; 0x52f
      44:	705f6573 	subsvc	r6, pc, r3, ror r5	; <UNPREDICTABLE>
      48:	72676f72 	rsbvc	r6, r7, #456	; 0x1c8
      4c:	656d6d61 	strbvs	r6, [sp, #-3425]!	; 0xd61
      50:	74730072 	ldrbtvc	r0, [r3], #-114	; 0x72
      54:	6e656c72 	mcrvs	12, 3, r6, cr5, cr2, {3}
      58:	736e7500 	cmnvc	lr, #0, 10
      5c:	656e6769 	strbvs	r6, [lr, #-1897]!	; 0x769
      60:	68632064 	stmdavs	r3!, {r2, r5, r6, sp}^
      64:	73007261 	movwvc	r7, #609	; 0x261
      68:	74726f68 	ldrbtvc	r6, [r2], #-3944	; 0xf68
      6c:	736e7520 	cmnvc	lr, #32, 10	; 0x8000000
      70:	656e6769 	strbvs	r6, [lr, #-1897]!	; 0x769
      74:	6e692064 	cdpvs	0, 6, cr2, cr9, cr4, {3}
      78:	6f6c0074 	svcvs	0x006c0074
      7c:	6c20676e 	stcvs	7, cr6, [r0], #-440	; 0xfffffe48
      80:	20676e6f 	rsbcs	r6, r7, pc, ror #28
      84:	69736e75 	ldmdbvs	r3!, {r0, r2, r4, r5, r6, r9, sl, fp, sp, lr}^
      88:	64656e67 	strbtvs	r6, [r5], #-3687	; 0xe67
      8c:	746e6920 	strbtvc	r6, [lr], #-2336	; 0x920
      90:	6e6f6c00 	cdpvs	12, 6, cr6, cr15, cr0, {0}
      94:	6f6c2067 	svcvs	0x006c2067
      98:	6920676e 	stmdbvs	r0!, {r1, r2, r3, r5, r6, r8, r9, sl, sp, lr}
      9c:	7300746e 	movwvc	r7, #1134	; 0x46e
      a0:	74726f68 	ldrbtvc	r6, [r2], #-3944	; 0xf68
      a4:	746e6920 	strbtvc	r6, [lr], #-2336	; 0x920
      a8:	554e4700 	strbpl	r4, [lr, #-1792]	; 0x700
      ac:	34204320 	strtcc	r4, [r0], #-800	; 0x320
      b0:	332e392e 	teqcc	lr, #753664	; 0xb8000
      b4:	31303220 	teqcc	r0, r0, lsr #4
      b8:	31343035 	teqcc	r4, r5, lsr r0
      bc:	70282033 	eorvc	r2, r8, r3, lsr r0
      c0:	65726572 	ldrbvs	r6, [r2, #-1394]!	; 0x572
      c4:	7361656c 	cmnvc	r1, #108, 10	; 0x1b000000
      c8:	2d202965 	stccs	9, cr2, [r0, #-404]!	; 0xfffffe6c
      cc:	74696c6d 	strbtvc	r6, [r9], #-3181	; 0xc6d
      d0:	2d656c74 	stclcs	12, cr6, [r5, #-464]!	; 0xfffffe30
      d4:	69646e65 	stmdbvs	r4!, {r0, r2, r5, r6, r9, sl, fp, sp, lr}^
      d8:	2d206e61 	stccs	14, cr6, [r0, #-388]!	; 0xfffffe7c
      dc:	7570666d 	ldrbvc	r6, [r0, #-1645]!	; 0x66d
      e0:	6f656e3d 	svcvs	0x00656e3d
      e4:	6d2d206e 	stcvs	0, cr2, [sp, #-440]!	; 0xfffffe48
      e8:	616f6c66 	cmnvs	pc, r6, ror #24
      ec:	62612d74 	rsbvs	r2, r1, #116, 26	; 0x1d00
      f0:	6f733d69 	svcvs	0x00733d69
      f4:	70667466 	rsbvc	r7, r6, r6, ror #8
      f8:	746d2d20 	strbtvc	r2, [sp], #-3360	; 0xd20
      fc:	3d656e75 	stclcc	14, cr6, [r5, #-468]!	; 0xfffffe2c
     100:	74726f63 	ldrbtvc	r6, [r2], #-3939	; 0xf63
     104:	612d7865 	teqvs	sp, r5, ror #16
     108:	2d203335 	stccs	3, cr3, [r0, #-212]!	; 0xffffff2c
     10c:	6f6c666d 	svcvs	0x006c666d
     110:	612d7461 	teqvs	sp, r1, ror #8
     114:	733d6962 	teqvc	sp, #1605632	; 0x188000
     118:	2074666f 	rsbscs	r6, r4, pc, ror #12
     11c:	68746d2d 	ldmdavs	r4!, {r0, r2, r3, r5, r8, sl, fp, sp, lr}^
     120:	2d626d75 	stclcs	13, cr6, [r2, #-468]!	; 0xfffffe2c
     124:	65746e69 	ldrbvs	r6, [r4, #-3689]!	; 0xe69
     128:	726f7772 	rsbvc	r7, pc, #29884416	; 0x1c80000
     12c:	6d2d206b 	stcvs	0, cr2, [sp, #-428]!	; 0xfffffe54
     130:	206d7261 	rsbcs	r7, sp, r1, ror #4
     134:	62616d2d 	rsbvs	r6, r1, #2880	; 0xb40
     138:	61613d69 	cmnvs	r1, r9, ror #26
     13c:	2d736370 	ldclcs	3, cr6, [r3, #-448]!	; 0xfffffe40
     140:	756e696c 	strbvc	r6, [lr, #-2412]!	; 0x96c
     144:	6d2d2078 	stcvs	0, cr2, [sp, #-480]!	; 0xfffffe20
     148:	68637261 	stmdavs	r3!, {r0, r5, r6, r9, ip, sp, lr}^
     14c:	6d72613d 	ldfvse	f6, [r2, #-244]!	; 0xffffff0c
     150:	612d3876 	teqvs	sp, r6, ror r8
     154:	746d2d20 	strbtvc	r2, [sp], #-3360	; 0xd20
     158:	642d736c 	strtvs	r7, [sp], #-876	; 0x36c
     15c:	656c6169 	strbvs	r6, [ip, #-361]!	; 0x169
     160:	673d7463 	ldrvs	r7, [sp, -r3, ror #8]!
     164:	2d20756e 	cfstr32cs	mvfx7, [r0, #-440]!	; 0xfffffe48
     168:	4f2d2067 	svcmi	0x002d2067
     16c:	662d2032 			; <UNDEFINED> instruction: 0x662d2032
     170:	2d657375 	stclcs	3, cr7, [r5, #-468]!	; 0xfffffe2c
     174:	20736c74 	rsbscs	r6, r3, r4, ror ip
     178:	6f6e662d 	svcvs	0x006e662d
     17c:	6d6f632d 	stclvs	3, cr6, [pc, #-180]!	; d0 <_back_addr-0x14fff30>
     180:	206e6f6d 	rsbcs	r6, lr, sp, ror #30
     184:	657a662d 	ldrbvs	r6, [sl, #-1581]!	; 0x62d
     188:	692d6f72 	pushvs	{r1, r4, r5, r6, r8, r9, sl, fp, sp, lr}
     18c:	6974696e 	ldmdbvs	r4!, {r1, r2, r3, r5, r6, r8, fp, sp, lr}^
     190:	7a696c61 	bvc	1a5b31c <__bss_end__+0x5477dc>
     194:	692d6465 	pushvs	{r0, r2, r5, r6, sl, sp, lr}
     198:	73622d6e 	cmnvc	r2, #7040	; 0x1b80
     19c:	662d2073 			; <UNDEFINED> instruction: 0x662d2073
     1a0:	622d6f6e 	eorvs	r6, sp, #440	; 0x1b8
     1a4:	746c6975 	strbtvc	r6, [ip], #-2421	; 0x975
     1a8:	2d206e69 	stccs	14, cr6, [r0, #-420]!	; 0xfffffe5c
     1ac:	65726666 	ldrbvs	r6, [r2, #-1638]!	; 0x666
     1b0:	61747365 	cmnvs	r4, r5, ror #6
     1b4:	6e69646e 	cdpvs	4, 6, cr6, cr9, cr14, {3}
     1b8:	74730067 	ldrbtvc	r0, [r3], #-103	; 0x67
     1bc:	72747372 	rsbsvc	r7, r4, #-939524095	; 0xc8000001
     1c0:	7300632e 	movwvc	r6, #814	; 0x32e
     1c4:	74737274 	ldrbtvc	r7, [r3], #-628	; 0x274
     1c8:	6e650072 	mcrvs	0, 3, r0, cr5, cr2, {3}
     1cc:	72747064 	rsbsvc	r7, r4, #100	; 0x64
     1d0:	74756300 	ldrbtvc	r6, [r5], #-768	; 0x300
     1d4:	006d696c 	rsbeq	r6, sp, ip, ror #18
     1d8:	74727473 	ldrbtvc	r7, [r2], #-1139	; 0x473
     1dc:	006c756f 	rsbeq	r7, ip, pc, ror #10
     1e0:	74727473 	ldrbtvc	r7, [r2], #-1139	; 0x473
     1e4:	2e6c756f 	cdpcs	5, 6, cr7, cr12, cr15, {3}
     1e8:	61620063 	cmnvs	r2, r3, rrx
     1ec:	63006573 	movwvs	r6, #1395	; 0x573
     1f0:	666f7475 			; <UNDEFINED> instruction: 0x666f7475
     1f4:	635f0066 	cmpvs	pc, #102	; 0x66
     1f8:	65707974 	ldrbvs	r7, [r0, #-2420]!	; 0x974
     1fc:	79746300 	ldmdbvc	r4!, {r8, r9, sp, lr}^
     200:	632e6570 	teqvs	lr, #112, 10	; 0x1c000000
     204:	7a697300 	bvc	1a5ce0c <__bss_end__+0x5492cc>
     208:	70797465 	rsbsvc	r7, r9, r5, ror #8
     20c:	626f0065 	rsbvs	r0, pc, #101	; 0x65
     210:	65737566 	ldrbvs	r7, [r3, #-1382]!	; 0x566
     214:	7465675f 	strbtvc	r6, [r5], #-1887	; 0x75f
     218:	00746573 	rsbseq	r6, r4, r3, ror r5
     21c:	4d554e45 	ldclmi	14, cr4, [r5, #-276]	; 0xfffffeec
     220:	5059545f 	subspl	r5, r9, pc, asr r4
     224:	4e555f45 	cdpmi	15, 5, cr5, cr5, cr5, {2}
     228:	574f4e4b 	strbpl	r4, [pc, -fp, asr #28]
     22c:	4e45004e 	cdpmi	0, 4, cr0, cr5, cr14, {2}
     230:	545f4d55 	ldrbpl	r4, [pc], #-3413	; 238 <_back_addr-0x14ffdc8>
     234:	5f455059 	svcpl	0x00455059
     238:	5f534541 	svcpl	0x00534541
     23c:	5f434544 	svcpl	0x00434544
     240:	0059454b 	subseq	r4, r9, fp, asr #10
     244:	74736564 	ldrbtvc	r6, [r3], #-1380	; 0x564
     248:	61737200 	cmnvs	r3, r0, lsl #4
     24c:	6275705f 	rsbsvs	r7, r5, #95	; 0x5f
     250:	79656b5f 	stmdbvc	r5!, {r0, r1, r2, r3, r4, r6, r8, r9, fp, sp, lr}^
     254:	646e655f 	strbtvs	r6, [lr], #-1375	; 0x55f
     258:	70636d00 	rsbvc	r6, r3, r0, lsl #26
     25c:	6373645f 	cmnvs	r3, #1593835520	; 0x5f000000
     260:	615f7470 	cmpvs	pc, r0, ror r4	; <UNPREDICTABLE>
     264:	00726464 	rsbseq	r6, r2, r4, ror #8
     268:	72615f76 	rsbvc	r5, r1, #472	; 0x1d8
     26c:	00796172 	rsbseq	r6, r9, r2, ror r1
     270:	544e4955 	strbpl	r4, [lr], #-2389	; 0x955
     274:	6d003233 	sfmvs	f3, 4, [r0, #-204]	; 0xffffff34
     278:	70636d65 	rsbvc	r6, r3, r5, ror #26
     27c:	74730079 	ldrbtvc	r0, [r3], #-121	; 0x79
     280:	5f747261 	svcpl	0x00747261
     284:	676f7270 			; <UNDEFINED> instruction: 0x676f7270
     288:	006d6172 	rsbeq	r6, sp, r2, ror r1
     28c:	705f6f64 	subsvc	r6, pc, r4, ror #30
     290:	72676f72 	rsbvc	r6, r7, #456	; 0x1c8
     294:	61006d61 	tstvs	r0, r1, ror #26
     298:	6b5f7365 	blvs	17dd034 <__bss_end__+0x2c94f4>
     29c:	5f337965 	svcpl	0x00337965
     2a0:	00646e65 	rsbeq	r6, r4, r5, ror #28
     2a4:	73756665 	cmnvc	r5, #105906176	; 0x6500000
     2a8:	69616d65 	stmdbvs	r1!, {r0, r2, r5, r6, r8, sl, fp, sp, lr}^
     2ac:	00632e6e 	rsbeq	r2, r3, lr, ror #28
     2b0:	636d656d 	cmnvs	sp, #457179136	; 0x1b400000
     2b4:	4500706d 	strmi	r7, [r0, #-109]	; 0x6d
     2b8:	5f4d554e 	svcpl	0x004d554e
     2bc:	45505954 	ldrbmi	r5, [r0, #-2388]	; 0x954
     2c0:	5345415f 	movtpl	r4, #20831	; 0x515f
     2c4:	4345445f 	movtmi	r4, #21599	; 0x545f
     2c8:	4545535f 	strbmi	r5, [r5, #-863]	; 0x35f
     2cc:	75630044 	strbvc	r0, [r3, #-68]!	; 0x44
     2d0:	645f7473 	ldrbvs	r7, [pc], #-1139	; 2d8 <_back_addr-0x14ffd28>
     2d4:	5f617461 	svcpl	0x00617461
     2d8:	00646e65 	rsbeq	r6, r4, r5, ror #28
     2dc:	6e697270 	mcrvs	2, 3, r7, cr9, cr0, {3}
     2e0:	63006674 	movwvs	r6, #1652	; 0x674
     2e4:	5f747375 	svcpl	0x00747375
     2e8:	61746164 	cmnvs	r4, r4, ror #2
     2ec:	7a69735f 	bvc	1a5d070 <__bss_end__+0x549530>
     2f0:	65610065 	strbvs	r0, [r1, #-101]!	; 0x65
     2f4:	65735f73 	ldrbvs	r5, [r3, #-3955]!	; 0xf73
     2f8:	735f6465 	cmpvc	pc, #1694498816	; 0x65000000
     2fc:	00657a69 	rsbeq	r7, r5, r9, ror #20
     300:	5f70746f 	svcpl	0x0070746f
     304:	72746572 	rsbsvc	r6, r4, #478150656	; 0x1c800000
     308:	6e635f79 	mcrvs	15, 3, r5, cr3, cr9, {3}
     30c:	72700074 	rsbsvc	r0, r0, #116	; 0x74
     310:	73746e69 	cmnvc	r4, #1680	; 0x690
     314:	63727300 	cmnvs	r2, #0, 6
     318:	72610038 	rsbvc	r0, r1, #56	; 0x38
     31c:	61007667 	tstvs	r0, r7, ror #12
     320:	6b5f7365 	blvs	17dd0bc <__bss_end__+0x2c957c>
     324:	64007965 	strvs	r7, [r0], #-2405	; 0x965
     328:	00387473 	eorseq	r7, r8, r3, ror r4
     32c:	5f617372 	svcpl	0x00617372
     330:	5f627570 	svcpl	0x00627570
     334:	0079656b 	rsbseq	r6, r9, fp, ror #10
     338:	5f736561 	svcpl	0x00736561
     33c:	3279656b 	rsbscc	r6, r9, #448790528	; 0x1ac00000
     340:	7a69735f 	bvc	1a5d0c4 <__bss_end__+0x549584>
     344:	65610065 	strbvs	r0, [r1, #-101]!	; 0x65
     348:	656b5f73 	strbvs	r5, [fp, #-3955]!	; 0xf73
     34c:	735f3379 	cmpvc	pc, #-469762047	; 0xe4000001
     350:	00657a69 	rsbeq	r7, r5, r9, ror #20
     354:	63677261 	cmnvs	r7, #268435462	; 0x10000006
     358:	74657300 	strbtvc	r7, [r5], #-768	; 0x300
     35c:	636f665f 	cmnvs	pc, #99614720	; 0x5f00000
     360:	755f7375 	ldrbvc	r7, [pc, #-885]	; fffffff3 <__bss_end__+0xfeaec4b3>
     364:	00747261 	rsbseq	r7, r4, r1, ror #4
     368:	5f736561 	svcpl	0x00736561
     36c:	3179656b 	cmncc	r9, fp, ror #10
     370:	646e655f 	strbtvs	r6, [lr], #-1375	; 0x55f
     374:	70746f00 	rsbsvc	r6, r4, r0, lsl #30
     378:	74656d5f 	strbtvc	r6, [r5], #-3423	; 0xd5f
     37c:	5f646f68 	svcpl	0x00646f68
     380:	6d756e65 	ldclvs	14, cr6, [r5, #-404]!	; 0xfffffe6c
     384:	6100745f 	tstvs	r0, pc, asr r4
     388:	6b5f7365 	blvs	17dd124 <__bss_end__+0x2c95e4>
     38c:	655f7965 	ldrbvs	r7, [pc, #-2405]	; fffffa2f <__bss_end__+0xfeaebeef>
     390:	6100646e 	tstvs	r0, lr, ror #8
     394:	6b5f7365 	blvs	17dd130 <__bss_end__+0x2c95f0>
     398:	735f7965 	cmpvc	pc, #1654784	; 0x194000
     39c:	00657a69 	rsbeq	r7, r5, r9, ror #20
     3a0:	4d554e45 	ldclmi	14, cr4, [r5, #-276]	; 0xfffffeec
     3a4:	5059545f 	subspl	r5, r9, pc, asr r4
     3a8:	45415f45 	strbmi	r5, [r1, #-3909]	; 0xf45
     3ac:	454b5f53 	strbmi	r5, [fp, #-3923]	; 0xf53
     3b0:	6e690059 	mcrvs	0, 3, r0, cr9, cr9, {2}
     3b4:	755f7469 	ldrbvc	r7, [pc, #-1129]	; ffffff53 <__bss_end__+0xfeaec413>
     3b8:	00747261 	rsbseq	r7, r4, r1, ror #4
     3bc:	625f6f64 	subsvs	r6, pc, #100, 30	; 0x190
     3c0:	5f6e7275 	svcpl	0x006e7275
     3c4:	655f706d 	ldrbvs	r7, [pc, #-109]	; 35f <_back_addr-0x14ffca1>
     3c8:	65737566 	ldrbvs	r7, [r3, #-1382]!	; 0x566
     3cc:	7469625f 	strbtvc	r6, [r9], #-607	; 0x25f
     3d0:	65640073 	strbvs	r0, [r4, #-115]!	; 0x73
     3d4:	72615f63 	rsbvc	r5, r1, #396	; 0x18c
     3d8:	00796172 	rsbseq	r6, r9, r2, ror r1
     3dc:	636e7973 	cmnvs	lr, #1884160	; 0x1cc000
     3e0:	66626f00 	strbtvs	r6, [r2], -r0, lsl #30
     3e4:	5f657375 	svcpl	0x00657375
     3e8:	6764756a 	strbvs	r7, [r4, -sl, ror #10]!
     3ec:	65610065 	strbvs	r0, [r1, #-101]!	; 0x65
     3f0:	65735f73 	ldrbvs	r5, [r3, #-3955]!	; 0xf73
     3f4:	45006465 	strmi	r6, [r0, #-1125]	; 0x465
     3f8:	5f4d554e 	svcpl	0x004d554e
     3fc:	45505954 	ldrbmi	r5, [r0, #-2388]	; 0x954
     400:	5345415f 	movtpl	r4, #20831	; 0x515f
     404:	4545535f 	strbmi	r5, [r5, #-863]	; 0x35f
     408:	75630044 	strbvc	r0, [r3, #-68]!	; 0x44
     40c:	645f7473 	ldrbvs	r7, [pc], #-1139	; 414 <_back_addr-0x14ffbec>
     410:	00617461 	rsbeq	r7, r1, r1, ror #8
     414:	5f736561 	svcpl	0x00736561
     418:	64656573 	strbtvs	r6, [r5], #-1395	; 0x573
     41c:	646e655f 	strbtvs	r6, [lr], #-1375	; 0x55f
     420:	72746300 	rsbsvc	r6, r4, #0, 6
     424:	6100636c 	tstvs	r0, ip, ror #6
     428:	6b5f7365 	blvs	17dd1c4 <__bss_end__+0x2c9684>
     42c:	00317965 	eorseq	r7, r1, r5, ror #18
     430:	5f736561 	svcpl	0x00736561
     434:	3279656b 	rsbscc	r6, r9, #448790528	; 0x1ac00000
     438:	73656100 	cmnvc	r5, #0, 2
     43c:	79656b5f 	stmdbvc	r5!, {r0, r1, r2, r3, r4, r6, r8, r9, fp, sp, lr}^
     440:	73720033 	cmnvc	r2, #51	; 0x33
     444:	75705f61 	ldrbvc	r5, [r0, #-3937]!	; 0xf61
     448:	656b5f62 	strbvs	r5, [fp, #-3938]!	; 0xf62
     44c:	69735f79 	ldmdbvs	r3!, {r0, r3, r4, r5, r6, r8, r9, sl, fp, ip, lr}^
     450:	6500657a 	strvs	r6, [r0, #-1402]	; 0x57a
     454:	65737566 	ldrbvs	r7, [r3, #-1382]!	; 0x566
     458:	6e69616d 	powvsez	f6, f1, #5.0
     45c:	6f682f00 	svcvs	0x00682f00
     460:	6c2f656d 	cfstr32vs	mvfx6, [pc], #-436	; 2b4 <_back_addr-0x14ffd4c>
     464:	7369756f 	cmnvc	r9, #465567744	; 0x1bc00000
     468:	6e61682f 	cdpvs	8, 6, cr6, cr1, cr15, {1}
     46c:	796b2f6b 	stmdbvc	fp!, {r0, r1, r3, r5, r6, r8, r9, sl, fp, sp}^
     470:	2f6e696c 	svccs	0x006e696c
     474:	746f6f62 	strbtvc	r6, [pc], #-3938	; 47c <_back_addr-0x14ffb84>
     478:	65646f63 	strbvs	r6, [r4, #-3939]!	; 0xf63
     47c:	6f62752f 	svcvs	0x0062752f
     480:	652f746f 	strvs	r7, [pc, #-1135]!	; 19 <_back_addr-0x14fffe7>
     484:	706d6178 	rsbvc	r6, sp, r8, ror r1
     488:	2f73656c 	svccs	0x0073656c
     48c:	73756665 	cmnvc	r5, #105906176	; 0x6500000
     490:	72705f65 	rsbsvc	r5, r0, #404	; 0x194
     494:	6172676f 	cmnvs	r2, pc, ror #14
     498:	72656d6d 	rsbvc	r6, r5, #6976	; 0x1b40
     49c:	73656100 	cmnvc	r5, #0, 2
     4a0:	79656b5f 	stmdbvc	r5!, {r0, r1, r2, r3, r4, r6, r8, r9, fp, sp, lr}^
     4a4:	6e655f32 	mcrvs	15, 3, r5, cr5, cr2, {1}
     4a8:	65610064 	strbvs	r0, [r1, #-100]!	; 0x64
     4ac:	656b5f73 	strbvs	r5, [fp, #-3955]!	; 0xf73
     4b0:	735f3179 	cmpvc	pc, #1073741854	; 0x4000001e
     4b4:	00657a69 	rsbeq	r7, r5, r9, ror #20
     4b8:	6e6f6c75 	mcrvs	12, 3, r6, cr15, cr5, {3}
     4bc:	74720067 	ldrbtvc	r0, [r2], #-103	; 0x67
     4c0:	756f5f64 	strbvc	r5, [pc, #-3940]!	; fffff564 <__bss_end__+0xfeaeba24>
     4c4:	73006c74 	movwvc	r6, #3188	; 0xc74
     4c8:	615f6372 	cmpvs	pc, r2, ror r3	; <UNPREDICTABLE>
     4cc:	79617272 	stmdbvc	r1!, {r1, r4, r5, r6, r9, ip, sp, lr}^
     4d0:	70746f00 	rsbsvc	r6, r4, r0, lsl #30
     4d4:	7365615f 	cmnvc	r5, #-1073741801	; 0xc0000017
     4d8:	756e655f 	strbvc	r6, [lr, #-1375]!	; 0x55f
     4dc:	00745f6d 	rsbseq	r5, r4, sp, ror #30
     4e0:	5f736561 	svcpl	0x00736561
     4e4:	6d756e65 	ldclvs	14, cr6, [r5, #-404]!	; 0xfffffe6c
     4e8:	755f5f00 	ldrbvc	r5, [pc, #-3840]	; fffff5f0 <__bss_end__+0xfeaebab0>
     4ec:	64003631 	strvs	r3, [r0], #-1585	; 0x631
     4f0:	75625f6f 	strbvc	r5, [r2, #-3951]!	; 0xf6f
     4f4:	655f6e72 	ldrbvs	r6, [pc, #-3698]	; fffff68a <__bss_end__+0xfeaebb4a>
     4f8:	65737566 	ldrbvs	r7, [r3, #-1382]!	; 0x566
     4fc:	79656b5f 	stmdbvc	r5!, {r0, r1, r2, r3, r4, r6, r8, r9, fp, sp, lr}^
     500:	006c6573 	rsbeq	r6, ip, r3, ror r5
     504:	5f766964 	svcpl	0x00766964
     508:	544f006e 	strbpl	r0, [pc], #-110	; 510 <_back_addr-0x14ffaf0>
     50c:	65475f50 	strbvs	r5, [r7, #-3920]	; 0xf50
     510:	6f575f74 	svcvs	0x00575f74
     514:	64006472 	strvs	r6, [r0], #-1138	; 0x472
     518:	75625f6f 	strbvc	r5, [r2, #-3951]!	; 0xf6f
     51c:	655f6e72 	ldrbvs	r6, [pc, #-3698]	; fffff6b2 <__bss_end__+0xfeaebb72>
     520:	65737566 	ldrbvs	r7, [r3, #-1382]!	; 0x566
     524:	726f6e5f 	rsbvc	r6, pc, #1520	; 0x5f0
     528:	5f6c616d 	svcpl	0x006c616d
     52c:	00676264 	rsbeq	r6, r7, r4, ror #4
     530:	5f534541 	svcpl	0x00534541
     534:	5f424345 	svcpl	0x00424345
     538:	72636564 	rsbvc	r6, r3, #100, 10	; 0x19000000
     53c:	00747079 	rsbseq	r7, r4, r9, ror r0
     540:	5f444d43 	svcpl	0x00444d43
     544:	5f544552 	svcpl	0x00544552
     548:	43435553 	movtmi	r5, #13651	; 0x3553
     54c:	00535345 	subseq	r5, r3, r5, asr #6
     550:	746e6975 	strbtvc	r6, [lr], #-2421	; 0x975
     554:	745f3631 	ldrbvc	r3, [pc], #-1585	; 55c <_back_addr-0x14ffaa4>
     558:	625f6500 	subsvs	r6, pc, #0, 10
     55c:	65666675 	strbvs	r6, [r6, #-1653]!	; 0x675
     560:	65720072 	ldrbvs	r0, [r2, #-114]!	; 0x72
     564:	625f6c61 	subsvs	r6, pc, #24832	; 0x6100
     568:	74007469 	strvc	r7, [r0], #-1129	; 0x469
     56c:	6c61746f 	cfstrdvs	mvd7, [r1], #-444	; 0xfffffe44
     570:	65747962 	ldrbvs	r7, [r4, #-2402]!	; 0x962
     574:	6e696c00 	cdpvs	12, 6, cr6, cr9, cr0, {0}
     578:	6e656c65 	cdpvs	12, 6, cr6, cr5, cr5, {3}
     57c:	5f6f6400 	svcpl	0x006f6400
     580:	6e727562 	cdpvs	5, 7, cr7, cr2, cr2, {3}
     584:	7566655f 	strbvc	r6, [r6, #-1375]!	; 0x55f
     588:	675f6573 			; <UNDEFINED> instruction: 0x675f6573
     58c:	706d7465 	rsbvc	r7, sp, r5, ror #8
     590:	74736574 	ldrbtvc	r6, [r3], #-1396	; 0x574
     594:	6f640032 	svcvs	0x00640032
     598:	7275625f 	rsbsvc	r6, r5, #-268435451	; 0xf0000005
     59c:	66655f6e 	strbtvs	r5, [r5], -lr, ror #30
     5a0:	5f657375 	svcpl	0x00657375
     5a4:	5f617372 	svcpl	0x00617372
     5a8:	5f6d6770 	svcpl	0x006d6770
     5ac:	00736964 	rsbseq	r6, r3, r4, ror #18
     5b0:	625f6f64 	subsvs	r6, pc, #100, 30	; 0x190
     5b4:	5f6e7275 	svcpl	0x006e7275
     5b8:	73756665 	cmnvc	r5, #105906176	; 0x6500000
     5bc:	69645f65 	stmdbvs	r4!, {r0, r2, r5, r6, r8, r9, sl, fp, ip, lr}^
     5c0:	656e6f73 	strbvs	r6, [lr, #-3955]!	; 0xf73
     5c4:	65726f63 	ldrbvs	r6, [r2, #-3939]!	; 0xf63
     5c8:	755f5f00 	ldrbvc	r5, [pc, #-3840]	; fffff6d0 <__bss_end__+0xfeaebb90>
     5cc:	6f640038 	svcvs	0x00640038
     5d0:	7275625f 	rsbsvc	r6, r5, #-268435451	; 0xf0000005
     5d4:	66655f6e 	strbtvs	r5, [r5], -lr, ror #30
     5d8:	5f657375 	svcpl	0x00657375
     5dc:	75636573 	strbvc	r6, [r3, #-1395]!	; 0x573
     5e0:	6f626572 	svcvs	0x00626572
     5e4:	5f00746f 	svcpl	0x0000746f
     5e8:	3233755f 	eorscc	r7, r3, #398458880	; 0x17c00000
     5ec:	5f6f6400 	svcpl	0x006f6400
     5f0:	6e727562 	cdpvs	5, 7, cr7, cr2, cr2, {3}
     5f4:	7566655f 	strbvc	r6, [r6, #-1375]!	; 0x55f
     5f8:	725f6573 	subsvc	r6, pc, #482344960	; 0x1cc00000
     5fc:	77006173 	smlsdxvc	r0, r3, r1, r6
     600:	68746469 	ldmdavs	r4!, {r0, r3, r5, r6, sl, sp, lr}^
     604:	50544f00 	subspl	r4, r4, r0, lsl #30
     608:	44554a5f 	ldrbmi	r4, [r5], #-2655	; 0xa5f
     60c:	425f4547 	subsmi	r4, pc, #297795584	; 0x11c00000
     610:	6e005449 	cdpvs	4, 0, cr5, cr0, cr9, {2}
     614:	755f746f 	ldrbvc	r7, [pc, #-1135]	; 1ad <_back_addr-0x14ffe53>
     618:	00316573 	eorseq	r6, r1, r3, ror r5
     61c:	5f746f6e 	svcpl	0x00746f6e
     620:	32657375 	rsbcc	r7, r5, #-738197503	; 0xd4000001
     624:	61747300 	cmnvs	r4, r0, lsl #6
     628:	79627472 	stmdbvc	r2!, {r1, r4, r5, r6, sl, ip, sp, lr}^
     62c:	73006574 	movwvc	r6, #1396	; 0x574
     630:	74726174 	ldrbtvc	r6, [r2], #-372	; 0x174
     634:	00746962 	rsbseq	r6, r4, r2, ror #18
     638:	5f50544f 	svcpl	0x0050544f
     63c:	676f7250 			; <UNDEFINED> instruction: 0x676f7250
     640:	5f6d6172 	svcpl	0x006d6172
     644:	72617453 	rsbvc	r7, r1, #1392508928	; 0x53000000
     648:	6c610074 	stclvs	0, cr0, [r1], #-464	; 0xfffffe30
     64c:	5f6e6769 	svcpl	0x006e6769
     650:	7562006e 	strbvc	r0, [r2, #-110]!	; 0x6e
     654:	695f6e72 	ldmdbvs	pc, {r1, r4, r5, r6, r9, sl, fp, sp, lr}^	; <UNPREDICTABLE>
     658:	65745f64 	ldrbvs	r5, [r4, #-3940]!	; 0xf64
     65c:	72007473 	andvc	r7, r0, #1929379840	; 0x73000000
     660:	5f646165 	svcpl	0x00646165
     664:	745f6469 	ldrbvc	r6, [pc], #-1129	; 66c <_back_addr-0x14ff994>
     668:	00747365 	rsbseq	r7, r4, r5, ror #6
     66c:	5f676572 	svcpl	0x00676572
     670:	006c6176 	rsbeq	r6, ip, r6, ror r1
     674:	625f6f64 	subsvs	r6, pc, #100, 30	; 0x190
     678:	5f6e7275 	svcpl	0x006e7275
     67c:	73756665 	cmnvc	r5, #105906176	; 0x6500000
     680:	6c615f65 	stclvs	15, cr5, [r1], #-404	; 0xfffffe6c
     684:	6572006c 	ldrbvs	r0, [r2, #-108]!	; 0x6c
     688:	61765f6d 	cmnvs	r6, sp, ror #30
     68c:	6f64006c 	svcvs	0x0064006c
     690:	7275625f 	rsbsvc	r6, r5, #-268435451	; 0xf0000005
     694:	66655f6e 	strbtvs	r5, [r5], -lr, ror #30
     698:	5f657375 	svcpl	0x00657375
     69c:	746f6f62 	strbtvc	r6, [pc], #-3938	; 6a4 <_back_addr-0x14ff95c>
     6a0:	00636e65 	rsbeq	r6, r3, r5, ror #28
     6a4:	67696c61 	strbvs	r6, [r9, -r1, ror #24]!
     6a8:	65725f6e 	ldrbvs	r5, [r2, #-3950]!	; 0xf6e
     6ac:	006e5f6d 	rsbeq	r5, lr, sp, ror #30
     6b0:	73756665 	cmnvc	r5, #105906176	; 0x6500000
     6b4:	00632e65 	rsbeq	r2, r3, r5, ror #28
     6b8:	625f6f64 	subsvs	r6, pc, #100, 30	; 0x190
     6bc:	5f6e7275 	svcpl	0x006e7275
     6c0:	73756665 	cmnvc	r5, #105906176	; 0x6500000
     6c4:	6f6c5f65 	svcvs	0x006c5f65
     6c8:	6f736461 	svcvs	0x00736461
     6cc:	6f640073 	svcvs	0x00640073
     6d0:	7275625f 	rsbsvc	r6, r5, #-268435451	; 0xf0000005
     6d4:	66655f6e 	strbtvs	r5, [r5], -lr, ror #30
     6d8:	5f657375 	svcpl	0x00657375
     6dc:	6574706d 	ldrbvs	r7, [r4, #-109]!	; 0x6d
     6e0:	00327473 	eorseq	r7, r2, r3, ror r4
     6e4:	61727261 	cmnvs	r2, r1, ror #4
     6e8:	61004179 	tstvs	r0, r9, ror r1
     6ec:	79617272 	stmdbvc	r1!, {r1, r4, r5, r6, r9, ip, sp, lr}^
     6f0:	72610042 	rsbvc	r0, r1, #66	; 0x42
     6f4:	43796172 	cmnmi	r9, #-2147483620	; 0x8000001c
     6f8:	6e697500 	cdpvs	5, 6, cr7, cr9, cr0, {0}
     6fc:	6f740074 	svcvs	0x00740074
     700:	626c6174 	rsbvs	r6, ip, #116, 2
     704:	73657479 	cmnvc	r5, #2030043136	; 0x79000000
     708:	5f6f6400 	svcpl	0x006f6400
     70c:	6e727562 	cdpvs	5, 7, cr7, cr2, cr2, {3}
     710:	7566655f 	strbvc	r6, [r6, #-1375]!	; 0x55f
     714:	615f6573 	cmpvs	pc, r3, ror r5	; <UNPREDICTABLE>
     718:	72007365 	andvc	r7, r0, #-1811939327	; 0x94000001
     71c:	5f646165 	svcpl	0x00646165
     720:	73756665 	cmnvc	r5, #105906176	; 0x6500000
     724:	74730065 	ldrbtvc	r0, [r3], #-101	; 0x65
     728:	5f747261 	svcpl	0x00747261
     72c:	72646461 	rsbvc	r6, r4, #1627389952	; 0x61000000
     730:	444d4300 	strbmi	r4, [sp], #-768	; 0x300
     734:	5445525f 	strbpl	r5, [r5], #-607	; 0x25f
     738:	4941465f 	stmdbmi	r1, {r0, r1, r2, r3, r4, r6, r9, sl, lr}^
     73c:	4552554c 	ldrbmi	r5, [r2, #-1356]	; 0x54c
     740:	53454100 	movtpl	r4, #20736	; 0x5100
     744:	4243455f 	submi	r4, r3, #398458880	; 0x17c00000
     748:	636e655f 	cmnvs	lr, #398458880	; 0x17c00000
     74c:	74707972 	ldrbtvc	r7, [r0], #-2418	; 0x972
     750:	64747200 	ldrbtvs	r7, [r4], #-512	; 0x200
     754:	6c6e695f 	stclvs	9, cr6, [lr], #-380	; 0xfffffe84
     758:	6e697500 	cdpvs	5, 6, cr7, cr9, cr0, {0}
     75c:	5f323374 	svcpl	0x00323374
     760:	6f630074 	svcvs	0x00630074
     764:	6e616d6d 	cdpvs	13, 6, cr6, cr1, cr13, {3}
     768:	65725f64 	ldrbvs	r5, [r2, #-3940]!	; 0xf64
     76c:	00745f74 	rsbseq	r5, r4, r4, ror pc
     770:	6c656475 	cfstrdvs	mvd6, [r5], #-468	; 0xfffffe2c
     774:	4f007961 	svcmi	0x00007961
     778:	415f5054 	cmpmi	pc, r4, asr r0	; <UNPREDICTABLE>
     77c:	4b5f5345 	blmi	17d5498 <__bss_end__+0x2c1958>
     780:	544f0048 	strbpl	r0, [pc], #-72	; 788 <_back_addr-0x14ff878>
     784:	45415f50 	strbmi	r5, [r1, #-3920]	; 0xf50
     788:	4e4b5f53 	mcrmi	15, 2, r5, cr11, cr3, {2}
     78c:	5f6f6400 	svcpl	0x006f6400
     790:	6e727562 	cdpvs	5, 7, cr7, cr2, cr2, {3}
     794:	7566655f 	strbvc	r6, [r6, #-1375]!	; 0x55f
     798:	685f6573 	ldmdavs	pc, {r0, r1, r4, r5, r6, r8, sl, sp, lr}^	; <UNPREDICTABLE>
     79c:	6b686377 	blvs	1a19580 <__bss_end__+0x505a40>
     7a0:	50544f00 	subspl	r4, r4, r0, lsl #30
     7a4:	5345415f 	movtpl	r4, #20831	; 0x515f
     7a8:	00534b5f 	subseq	r4, r3, pc, asr fp
     7ac:	625f6f64 	subsvs	r6, pc, #100, 30	; 0x190
     7b0:	5f6e7275 	svcpl	0x006e7275
     7b4:	73756665 	cmnvc	r5, #105906176	; 0x6500000
     7b8:	73755f65 	cmnvc	r5, #404	; 0x194
     7bc:	72733262 	rsbsvc	r3, r3, #536870918	; 0x20000006
     7c0:	6f006d61 	svcvs	0x00006d61
     7c4:	65736666 	ldrbvs	r6, [r3, #-1638]!	; 0x666
     7c8:	6f640074 	svcvs	0x00640074
     7cc:	7275625f 	rsbsvc	r6, r5, #-268435451	; 0xf0000005
     7d0:	66655f6e 	strbtvs	r5, [r5], -lr, ror #30
     7d4:	5f657375 	svcpl	0x00657375
     7d8:	69766564 	ldmdbvs	r6!, {r2, r5, r6, r8, sl, sp, lr}^
     7dc:	44496563 	strbmi	r6, [r9], #-1379	; 0x563
     7e0:	61657200 	cmnvs	r5, r0, lsl #4
     7e4:	006e5f6c 	rsbeq	r5, lr, ip, ror #30
     7e8:	6c616572 	cfstr64vs	mvdx6, [r1], #-456	; 0xfffffe38
     7ec:	73666f5f 	cmnvc	r6, #380	; 0x17c
     7f0:	55007465 	strpl	r7, [r0, #-1125]	; 0x465
     7f4:	38544e49 	ldmdacc	r4, {r0, r3, r6, r9, sl, fp, lr}^
     7f8:	6e697500 	cdpvs	5, 6, cr7, cr9, cr0, {0}
     7fc:	745f3874 	ldrbvc	r3, [pc], #-2164	; 804 <_back_addr-0x14ff7fc>
     800:	5f6f6400 	svcpl	0x006f6400
     804:	6e727562 	cdpvs	5, 7, cr7, cr2, cr2, {3}
     808:	7566655f 	strbvc	r6, [r6, #-1375]!	; 0x55f
     80c:	735f6573 	cmpvc	pc, #482344960	; 0x1cc00000
     810:	72756365 	rsbsvc	r6, r5, #-1811939327	; 0x94000001
     814:	62645f65 	rsbvs	r5, r4, #404	; 0x194
     818:	544f0067 	strbpl	r0, [pc], #-103	; 820 <_back_addr-0x14ff7e0>
     81c:	65475f50 	strbvs	r5, [r7, #-3920]	; 0xf50
     820:	79425f74 	stmdbvc	r2, {r2, r4, r5, r6, r8, r9, sl, fp, ip, lr}^
     824:	61006574 	tstvs	r0, r4, ror r5
     828:	6b5f7365 	blvs	17dd5c4 <__bss_end__+0x2c9a84>
     82c:	6b5f7965 	blvs	17dedc8 <__bss_end__+0x2cb288>
     830:	4d430068 	stclmi	0, cr0, [r3, #-416]	; 0xfffffe60
     834:	45525f44 	ldrbmi	r5, [r2, #-3908]	; 0xf44
     838:	53555f54 	cmppl	r5, #84, 30	; 0x150
     83c:	00454741 	subeq	r4, r5, r1, asr #14
     840:	5f736561 	svcpl	0x00736561
     844:	5f79656b 	svcpl	0x0079656b
     848:	6c006e6b 	stcvs	14, cr6, [r0], {107}	; 0x6b
     84c:	62656e69 	rsbvs	r6, r5, #1680	; 0x690
     850:	61006675 	tstvs	r0, r5, ror r6
     854:	6b5f7365 	blvs	17dd5f0 <__bss_end__+0x2c9ab0>
     858:	6b5f7965 	blvs	17dedf4 <__bss_end__+0x2cb2b4>
     85c:	544f0073 	strbpl	r0, [pc], #-115	; 864 <_back_addr-0x14ff79c>
     860:	72505f50 	subsvc	r5, r0, #80, 30	; 0x140
     864:	6172676f 	cmnvs	r2, pc, ror #14
     868:	6e455f6d 	cdpvs	15, 4, cr5, cr5, cr13, {3}
     86c:	6c610064 	stclvs	0, cr0, [r1], #-400	; 0xfffffe70
     870:	5f636f6c 	svcpl	0x00636f6c
     874:	5f70636d 	svcpl	0x0070636d
     878:	63736564 	cmnvs	r3, #100, 10	; 0x19000000
     87c:	74706972 	ldrbtvc	r6, [r0], #-2418	; 0x972
     880:	6d00726f 	sfmvs	f7, 4, [r0, #-444]	; 0xfffffe44
     884:	632e7063 	teqvs	lr, #99	; 0x63
     888:	6f6c6200 	svcvs	0x006c6200
     88c:	735f6b63 	cmpvc	pc, #101376	; 0x18c00
     890:	00657a69 	rsbeq	r7, r5, r9, ror #20
     894:	65766572 	ldrbvs	r6, [r6, #-1394]!	; 0x572
     898:	5f657372 	svcpl	0x00657372
     89c:	6e676973 	mcrvs	9, 3, r6, cr7, cr3, {3}
     8a0:	72757461 	rsbsvc	r7, r5, #1627389952	; 0x61000000
     8a4:	65740065 	ldrbvs	r0, [r4, #-101]!	; 0x65
     8a8:	6e00706d 	cdpvs	0, 0, cr7, cr0, cr13, {3}
     8ac:	735f7465 	cmpvc	pc, #1694498816	; 0x65000000
     8b0:	65746174 	ldrbvs	r6, [r4, #-372]!	; 0x174
     8b4:	5f6f6400 	svcpl	0x006f6400
     8b8:	00415352 	subeq	r5, r1, r2, asr r3
     8bc:	75706e69 	ldrbvc	r6, [r0, #-3689]!	; 0xe69
     8c0:	48530074 	ldmdami	r3, {r2, r4, r5, r6}^
     8c4:	36353241 	ldrtcc	r3, [r5], -r1, asr #4
     8c8:	7361685f 	cmnvc	r1, #6225920	; 0x5f0000
     8cc:	454e0068 	strbmi	r0, [lr, #-104]	; 0x68
     8d0:	4f4f4c54 	svcmi	0x004f4c54
     8d4:	55535f50 	ldrbpl	r5, [r3, #-3920]	; 0xf50
     8d8:	53454343 	movtpl	r4, #21315	; 0x5343
     8dc:	6f6d0053 	svcvs	0x006d0053
     8e0:	64006564 	strvs	r6, [r0], #-1380	; 0x564
     8e4:	615f7473 	cmpvs	pc, r3, ror r4	; <UNPREDICTABLE>
     8e8:	00726464 	rsbseq	r6, r2, r4, ror #8
     8ec:	5f534541 	svcpl	0x00534541
     8f0:	68736168 	ldmdavs	r3!, {r3, r5, r6, r8, sp, lr}^
     8f4:	656e6f5f 	strbvs	r6, [lr, #-3935]!	; 0xf5f
     8f8:	676c6100 	strbvs	r6, [ip, -r0, lsl #2]!
     8fc:	64695f6f 	strbtvs	r5, [r9], #-3951	; 0xf6f
     900:	6d5f7400 	cfldrdvs	mvd7, [pc, #-0]	; 908 <_back_addr-0x14ff6f8>
     904:	645f7063 	ldrbvs	r7, [pc], #-99	; 90c <_back_addr-0x14ff6f4>
     908:	72637365 	rsbvc	r7, r3, #-1811939327	; 0x94000001
     90c:	6f747069 	svcvs	0x00747069
     910:	6e690072 	mcrvs	0, 3, r0, cr9, cr2, {3}
     914:	656b5f69 	strbvs	r5, [fp, #-3945]!	; 0xf69
     918:	69730079 	ldmdbvs	r3!, {r0, r3, r4, r5, r6}^
     91c:	74616e67 	strbtvc	r6, [r1], #-3687	; 0xe67
     920:	5f657275 	svcpl	0x00657275
     924:	72646461 	rsbvc	r6, r4, #1627389952	; 0x61000000
     928:	69537000 	ldmdbvs	r3, {ip, sp, lr}^
     92c:	74616e67 	strbtvc	r6, [r1], #-3687	; 0xe67
     930:	00657275 	rsbeq	r7, r5, r5, ror r2
     934:	6b5f684b 	blvs	17daa68 <__bss_end__+0x2c6f28>
     938:	645f7965 	ldrbvs	r7, [pc], #-2405	; 940 <_back_addr-0x14ff6c0>
     93c:	75616665 	strbvc	r6, [r1, #-1637]!	; 0x665
     940:	7300746c 	movwvc	r7, #1132	; 0x46c
     944:	5f706177 	svcpl	0x00706177
     948:	69646e65 	stmdbvs	r4!, {r0, r2, r5, r6, r9, sl, fp, sp, lr}^
     94c:	4e006e61 	cdpmi	14, 0, cr6, cr0, cr1, {3}
     950:	4f4c5445 	svcmi	0x004c5445
     954:	525f504f 	subspl	r5, pc, #79	; 0x4f
     958:	41545345 	cmpmi	r4, r5, asr #6
     95c:	73005452 	movwvc	r5, #1106	; 0x452
     960:	615f6372 	cmpvs	pc, r2, ror r3	; <UNPREDICTABLE>
     964:	00726464 	rsbseq	r6, r2, r4, ror #8
     968:	55465f5f 	strbpl	r5, [r6, #-3935]	; 0xf5f
     96c:	4954434e 	ldmdbmi	r4, {r1, r2, r3, r6, r8, r9, lr}^
     970:	5f5f4e4f 	svcpl	0x005f4e4f
     974:	63616200 	cmnvs	r1, #0, 4
     978:	5f70756b 	svcpl	0x0070756b
     97c:	006c6176 	rsbeq	r6, ip, r6, ror r1
     980:	6d5f6f64 	ldclvs	15, cr6, [pc, #-400]	; 7f8 <_back_addr-0x14ff808>
     984:	73007063 	movwvc	r7, #99	; 0x63
     988:	6d5f7465 	cfldrdvs	mvd7, [pc, #-404]	; 7fc <_back_addr-0x14ff804>
     98c:	726f6d65 	rsbvc	r6, pc, #6464	; 0x1940
     990:	454e0079 	strbmi	r0, [lr, #-121]	; 0x79
     994:	4f4f4c54 	svcmi	0x004f4c54
     998:	41465f50 	cmpmi	r6, r0, asr pc
     99c:	41004c49 	tstmi	r0, r9, asr #24
     9a0:	435f5345 	cmpmi	pc, #335544321	; 0x14000001
     9a4:	655f4342 	ldrbvs	r4, [pc, #-834]	; 66a <_back_addr-0x14ff996>
     9a8:	7972636e 	ldmdbvc	r2!, {r1, r2, r3, r5, r6, r8, r9, sp, lr}^
     9ac:	6c007470 	cfstrsvs	mvf7, [r0], {112}	; 0x70
     9b0:	74676e65 	strbtvc	r6, [r7], #-3685	; 0xe65
     9b4:	6c610068 	stclvs	0, cr0, [r1], #-416	; 0xfffffe60
     9b8:	5f636f6c 	svcpl	0x00636f6c
     9bc:	00727470 	rsbseq	r7, r2, r0, ror r4
     9c0:	61647075 	smcvs	18181	; 0x4705
     9c4:	695f6574 	ldmdbvs	pc, {r2, r4, r5, r6, r8, sl, sp, lr}^	; <UNPREDICTABLE>
     9c8:	6974696e 	ldmdbvs	r4!, {r1, r2, r3, r5, r6, r8, fp, sp, lr}^
     9cc:	765f6c61 	ldrbvc	r6, [pc], -r1, ror #24
     9d0:	6f746365 	svcvs	0x00746365
     9d4:	45410072 	strbmi	r0, [r1, #-114]	; 0x72
     9d8:	61685f53 	cmnvs	r8, r3, asr pc
     9dc:	4e006873 	mcrmi	8, 0, r6, cr0, cr3, {3}
     9e0:	4f4c5445 	svcmi	0x004c5445
     9e4:	435f504f 	cmpmi	pc, #79	; 0x4f
     9e8:	49544e4f 	ldmdbmi	r4, {r0, r1, r2, r3, r6, r9, sl, fp, lr}^
     9ec:	0045554e 	subeq	r5, r5, lr, asr #10
     9f0:	746e6374 	strbtvc	r6, [lr], #-884	; 0x374
     9f4:	61737200 	cmnvs	r3, r0, lsl #4
     9f8:	6464615f 	strbtvs	r6, [r4], #-351	; 0x15f
     9fc:	6c660072 	stclvs	0, cr0, [r6], #-456	; 0xfffffe38
     a00:	5f687375 	svcpl	0x00687375
     a04:	68636163 	stmdavs	r3!, {r0, r1, r5, r6, r8, sp, lr}^
     a08:	646d0065 	strbtvs	r0, [sp], #-101	; 0x65
     a0c:	79616c65 	stmdbvc	r1!, {r0, r2, r5, r6, sl, fp, sp, lr}^
     a10:	62757000 	rsbsvs	r7, r5, #0
     a14:	4563696c 	strbmi	r6, [r3, #-2412]!	; 0x96c
     a18:	6e6f7078 	mcrvs	0, 3, r7, cr15, cr8, {3}
     a1c:	00746e65 	rsbseq	r6, r4, r5, ror #28
     a20:	65766572 	ldrbvs	r6, [r6, #-1394]!	; 0x572
     a24:	5f657372 	svcpl	0x00657372
     a28:	5f617372 	svcpl	0x00617372
     a2c:	6e676973 	mcrvs	9, 3, r6, cr7, cr3, {3}
     a30:	72757461 	rsbsvc	r7, r5, #1627389952	; 0x61000000
     a34:	756f0065 	strbvc	r0, [pc, #-101]!	; 9d7 <_back_addr-0x14ff629>
     a38:	74757074 	ldrbtvc	r7, [r5], #-116	; 0x74
     a3c:	6464615f 	strbtvs	r6, [r4], #-351	; 0x15f
     a40:	6f630072 	svcvs	0x00630072
     a44:	6d5f7970 	ldclvs	9, cr7, [pc, #-448]	; 88c <_back_addr-0x14ff774>
     a48:	726f6d65 	rsbvc	r6, pc, #6464	; 0x1940
     a4c:	73640079 	cmnvc	r4, #121	; 0x79
     a50:	00747063 	rsbseq	r7, r4, r3, rrx
     a54:	736d656d 	cmnvc	sp, #457179136	; 0x1b400000
     a58:	53007465 	movwpl	r7, #1125	; 0x465
     a5c:	5f314148 	svcpl	0x00314148
     a60:	68736168 	ldmdavs	r3!, {r3, r5, r6, r8, sp, lr}^
     a64:	74756f00 	ldrbtvc	r6, [r5], #-3840	; 0xf00
     a68:	00747570 	rsbseq	r7, r4, r0, ror r5
     a6c:	656b5f5f 	strbvs	r5, [fp, #-3935]!	; 0xf5f
     a70:	6c656e72 	stclvs	14, cr6, [r5], #-456	; 0xfffffe38
     a74:	7a69735f 	bvc	1a5d7f8 <__bss_end__+0x549cb8>
     a78:	00745f65 	rsbseq	r5, r4, r5, ror #30
     a7c:	5f637273 	svcpl	0x00637273
     a80:	00727470 	rsbseq	r7, r2, r0, ror r4
     a84:	5f74656e 	svcpl	0x0074656e
     a88:	706f6f6c 	rsbvc	r6, pc, ip, ror #30
     a8c:	6174735f 	cmnvs	r4, pc, asr r3
     a90:	6c006574 	cfstr32vs	mvfx6, [r0], {116}	; 0x74
     a94:	5f64616f 	svcpl	0x0064616f
     a98:	0070746f 	rsbseq	r7, r0, pc, ror #8
     a9c:	5f534541 	svcpl	0x00534541
     aa0:	5f434243 	svcpl	0x00434243
     aa4:	72636564 	rsbvc	r6, r3, #100, 10	; 0x19000000
     aa8:	00747079 	rsbseq	r7, r4, r9, ror r0
     aac:	62706d74 	rsbsvs	r6, r0, #116, 26	; 0x1d00
     ab0:	70006675 	andvc	r6, r0, r5, ror r6
     ab4:	0079656b 	rsbseq	r6, r9, fp, ror #10
     ab8:	64786568 	ldrbtvs	r6, [r8], #-1384	; 0x568
     abc:	00706d75 	rsbseq	r6, r0, r5, ror sp
     ac0:	5f79656b 	svcpl	0x0079656b
     ac4:	006d6572 	rsbeq	r6, sp, r2, ror r5
     ac8:	52544552 	subspl	r4, r4, #343932928	; 0x14800000
     acc:	54535f59 	ldrbpl	r5, [r3], #-3929	; 0xf59
     ad0:	00545241 	subseq	r5, r4, r1, asr #4
     ad4:	5f636e65 	svcpl	0x00636e65
     ad8:	61727261 	cmnvs	r2, r1, ror #4
     adc:	65003179 	strvs	r3, [r0, #-377]	; 0x179
     ae0:	615f636e 	cmpvs	pc, lr, ror #6
     ae4:	79617272 	stmdbvc	r1!, {r1, r4, r5, r6, r9, ip, sp, lr}^
     ae8:	6e650032 	mcrvs	0, 3, r0, cr5, cr2, {1}
     aec:	72615f63 	rsbvc	r5, r1, #396	; 0x18c
     af0:	33796172 	cmncc	r9, #-2147483620	; 0x8000001c
     af4:	66626f00 	strbtvs	r6, [r2], -r0, lsl #30
     af8:	4c657375 	stclmi	3, cr7, [r5], #-468	; 0xfffffe2c
     afc:	632e6269 	teqvs	lr, #-1879048186	; 0x90000006
     b00:	706d7400 	rsbvc	r7, sp, r0, lsl #8
     b04:	6e650038 	mcrvs	0, 3, r0, cr5, cr8, {1}
     b08:	72615f63 	rsbvc	r5, r1, #396	; 0x18c
     b0c:	00796172 	rsbseq	r6, r9, r2, ror r1
     b10:	5f676973 	svcpl	0x00676973
     b14:	62006472 	andvs	r6, r0, #1912602624	; 0x72000000
     b18:	006c6f6f 	rsbeq	r6, ip, pc, ror #30
     b1c:	74737953 	ldrbtvc	r7, [r3], #-2387	; 0x953
     b20:	69546d65 	ldmdbvs	r4, {r0, r2, r5, r6, r8, sl, fp, sp, lr}^
     b24:	756f656d 	strbvc	r6, [pc, #-1389]!	; 5bf <_back_addr-0x14ffa41>
     b28:	69740074 	ldmdbvs	r4!, {r2, r4, r5, r6}^
     b2c:	2e72656d 	cdpcs	5, 7, cr6, cr2, cr13, {3}
     b30:	69440063 	stmdbvs	r4, {r0, r1, r5, r6}^
     b34:	6c626173 	stfvse	f6, [r2], #-460	; 0xfffffe34
     b38:	6d695465 	cfstrdvs	mvd5, [r9, #-404]!	; 0xfffffe6c
     b3c:	74007265 	strvc	r7, [r0], #-613	; 0x265
     b40:	72656d69 	rsbvc	r6, r5, #6720	; 0x1a40
     b44:	64004449 	strvs	r4, [r0], #-1097	; 0x449
     b48:	6e694d77 	mcrvs	13, 3, r4, cr9, cr7, {3}
     b4c:	63655369 	cmnvs	r5, #-1543503871	; 0xa4000001
     b50:	00646e6f 	rsbeq	r6, r4, pc, ror #28
     b54:	694d7764 	stmdbvs	sp, {r2, r5, r6, r8, r9, sl, ip, sp, lr}^
     b58:	536f7263 	cmnpl	pc, #805306374	; 0x30000006
     b5c:	6e6f6365 	cdpvs	3, 6, cr6, cr15, cr5, {3}
     b60:	65640064 	strbvs	r0, [r4, #-100]!	; 0x64
     b64:	5479616c 	ldrbtpl	r6, [r9], #-364	; 0x16c
     b68:	00656d69 	rsbeq	r6, r5, r9, ror #26
     b6c:	696d696c 	stmdbvs	sp!, {r2, r3, r5, r6, r8, fp, sp, lr}^
     b70:	49620074 	stmdbmi	r2!, {r2, r4, r5, r6}^
     b74:	6174536f 	cmnvs	r4, pc, ror #6
     b78:	00737574 	rsbseq	r7, r3, r4, ror r5
     b7c:	6e497764 	cdpvs	7, 4, cr7, cr9, cr4, {3}
     b80:	49007469 	stmdbmi	r0, {r0, r3, r5, r6, sl, ip, sp, lr}
     b84:	5474696e 	ldrbtpl	r6, [r4], #-2414	; 0x96e
     b88:	72656d69 	rsbvc	r6, r5, #6720	; 0x1a40
     b8c:	65694600 	strbvs	r4, [r9, #-1536]!	; 0x600
     b90:	3173646c 	cmncc	r3, ip, ror #8
     b94:	65694600 	strbvs	r4, [r9, #-1536]!	; 0x600
     b98:	3273646c 	rsbscc	r6, r3, #108, 8	; 0x6c000000
     b9c:	73797300 	cmnvc	r9, #0, 6
     ba0:	6163645f 	cmnvs	r3, pc, asr r4
     ba4:	5f656863 	svcpl	0x00656863
     ba8:	73756c66 	cmnvc	r5, #26112	; 0x6600
     bac:	6c615f68 	stclvs	15, cr5, [r1], #-416	; 0xfffffe60
     bb0:	6552006c 	ldrbvs	r0, [r2, #-108]	; 0x6c
     bb4:	76726573 			; <UNDEFINED> instruction: 0x76726573
     bb8:	44006465 	strmi	r6, [r0], #-1125	; 0x465
     bbc:	004d414d 	subeq	r4, sp, sp, asr #2
     bc0:	6f6c6c61 	svcvs	0x006c6c61
     bc4:	75635f63 	strbvc	r5, [r3, #-3939]!	; 0xf63
     bc8:	6e657272 	mcrvs	2, 3, r7, cr5, cr2, {3}
     bcc:	61550074 	cmpvs	r5, r4, ror r0
     bd0:	65497472 	strbvs	r7, [r9, #-1138]	; 0x472
     bd4:	6d6c4472 	cfstrdvs	mvd4, [ip, #-456]!	; 0xfffffe38
     bd8:	42544500 	subsmi	r4, r4, #0, 10
     bdc:	75004945 	strvc	r4, [r0, #-2373]	; 0x945
     be0:	2e6c6974 	mcrcs	9, 3, r6, cr12, cr4, {3}
     be4:	75700063 	ldrbvc	r0, [r0, #-99]!	; 0x63
     be8:	68635f74 	stmdavs	r3!, {r2, r4, r5, r6, r8, r9, sl, fp, ip, lr}^
     bec:	44007261 	strmi	r7, [r0], #-609	; 0x261
     bf0:	0042414c 	subeq	r4, r2, ip, asr #2
     bf4:	74726155 	ldrbtvc	r6, [r2], #-341	; 0x155
     bf8:	46726949 	ldrbtmi	r6, [r2], -r9, asr #18
     bfc:	5f007263 	svcpl	0x00007263
     c00:	54524155 	ldrbpl	r4, [r2], #-341	; 0x155
     c04:	5f474552 	svcpl	0x00474552
     c08:	0052534c 	subseq	r5, r2, ip, asr #6
     c0c:	706d6973 	rsbvc	r6, sp, r3, ror r9
     c10:	6d5f656c 	cfldr64vs	mvdx6, [pc, #-432]	; a68 <_back_addr-0x14ff598>
     c14:	6f6c6c61 	svcvs	0x006c6c61
     c18:	61770063 	cmnvs	r7, r3, rrx
     c1c:	645f7469 	ldrbvs	r7, [pc], #-1129	; c24 <_back_addr-0x14ff3dc>
     c20:	00656e6f 	rsbeq	r6, r5, pc, ror #28
     c24:	5241555f 	subpl	r5, r1, #398458880	; 0x17c00000
     c28:	47455254 	smlsldmi	r5, r5, r4, r2	; <UNPREDICTABLE>
     c2c:	52434c5f 	subpl	r4, r3, #24320	; 0x5f00
     c30:	534c4500 	movtpl	r4, #50432	; 0xc500
     c34:	61760049 	cmnvs	r6, r9, asr #32
     c38:	0065756c 	rsbeq	r7, r5, ip, ror #10
     c3c:	65736552 	ldrbvs	r6, [r3, #-1362]!	; 0x552
     c40:	64657672 	strbtvs	r7, [r5], #-1650	; 0x672
     c44:	65520030 	ldrbvs	r0, [r2, #-48]	; 0x30
     c48:	76726573 			; <UNDEFINED> instruction: 0x76726573
     c4c:	00316465 	eorseq	r6, r1, r5, ror #8
     c50:	4f464946 	svcmi	0x00464946
     c54:	55003631 	strpl	r3, [r0, #-1585]	; 0x631
     c58:	4d747261 	lfmmi	f7, 2, [r4, #-388]!	; 0xfffffe7c
     c5c:	75007273 	strvc	r7, [r0, #-627]	; 0x273
     c60:	78754d72 	ldmdavc	r5!, {r1, r4, r5, r6, r8, sl, fp, lr}^
     c64:	5f646150 	svcpl	0x00646150
     c68:	006c6176 	rsbeq	r6, ip, r6, ror r1
     c6c:	45524854 	ldrbmi	r4, [r2, #-2132]	; 0x854
     c70:	72615500 	rsbvc	r5, r1, #0, 10
     c74:	72635374 	rsbvc	r5, r3, #116, 6	; 0xd0000001
     c78:	54434400 	strbpl	r4, [r3], #-1024	; 0x400
     c7c:	65680053 	strbvs	r0, [r8, #-83]!	; 0x53
     c80:	72747378 	rsbsvc	r7, r4, #120, 6	; 0xe0000001
     c84:	746e6932 	strbtvc	r6, [lr], #-2354	; 0x932
     c88:	4d455400 	cfstrdmi	mvd5, [r5, #-0]
     c8c:	61550054 	cmpvs	r5, r4, asr r0
     c90:	734c7472 	movtvc	r7, #50290	; 0xc472
     c94:	54520072 	ldrbpl	r0, [r2], #-114	; 0x72
     c98:	63004752 	movwvs	r4, #1874	; 0x752
     c9c:	65727275 	ldrbvs	r7, [r2, #-629]!	; 0x275
     ca0:	6155746e 	cmpvs	r5, lr, ror #8
     ca4:	6f507472 	svcvs	0x00507472
     ca8:	49007472 	stmdbmi	r0, {r1, r4, r5, r6, sl, ip, sp, lr}
     cac:	00444e50 	subeq	r4, r4, r0, asr lr
     cb0:	685f7369 	ldmdavs	pc, {r0, r3, r5, r6, r8, r9, ip, sp, lr}^	; <UNPREDICTABLE>
     cb4:	645f7865 	ldrbvs	r7, [pc], #-2149	; cbc <_back_addr-0x14ff344>
     cb8:	74696769 	strbtvc	r6, [r9], #-1897	; 0x769
     cbc:	6c615600 	stclvs	6, cr5, [r1], #-0
     cc0:	61006575 	tstvs	r0, r5, ror r5
     cc4:	636f6c6c 	cmnvs	pc, #108, 24	; 0x6c00
     cc8:	756f635f 	strbvc	r6, [pc, #-863]!	; 971 <_back_addr-0x14ff68f>
     ccc:	6300746e 	movwvs	r7, #1134	; 0x46e
     cd0:	61706d6f 	cmnvs	r0, pc, ror #26
     cd4:	735f6572 	cmpvc	pc, #478150656	; 0x1c800000
     cd8:	5f007274 	svcpl	0x00007274
     cdc:	54524155 	ldrbpl	r4, [r2], #-341	; 0x155
     ce0:	00474552 	subeq	r4, r7, r2, asr r5
     ce4:	504f4f4c 	subpl	r4, pc, ip, asr #30
     ce8:	52465400 	subpl	r5, r6, #0, 8
     cec:	55005453 	strpl	r5, [r0, #-1107]	; 0x453
     cf0:	52747261 	rsbspl	r7, r4, #268435462	; 0x10000006
     cf4:	68547262 	ldmdavs	r4, {r1, r5, r6, r9, ip, sp, lr}^
     cf8:	6c6c4465 	cfstrdvs	mvd4, [ip], #-404	; 0xfffffe6c
     cfc:	705f7000 	subsvc	r7, pc, r0
     d00:	6d617261 	sfmvs	f7, 2, [r1, #-388]!	; 0xfffffe7c
     d04:	41555f00 	cmpmi	r5, r0, lsl #30
     d08:	45525452 	ldrbmi	r5, [r2, #-1106]	; 0x452
     d0c:	49495f47 	stmdbmi	r9, {r0, r1, r2, r6, r8, r9, sl, fp, ip, lr}^
     d10:	43465f52 	movtmi	r5, #28498	; 0x6f52
     d14:	61770052 	cmnvs	r7, r2, asr r0
     d18:	64686374 	strbtvs	r6, [r8], #-884	; 0x374
     d1c:	725f676f 	subsvc	r6, pc, #29097984	; 0x1bc0000
     d20:	74657365 	strbtvc	r7, [r5], #-869	; 0x365
     d24:	69727000 	ldmdbvs	r2!, {ip, sp, lr}^
     d28:	685f746e 	ldmdavs	pc, {r1, r2, r3, r5, r6, sl, ip, sp, lr}^	; <UNPREDICTABLE>
     d2c:	5f007865 	svcpl	0x00007865
     d30:	54524155 	ldrbpl	r4, [r2], #-341	; 0x155
     d34:	5f474552 	svcpl	0x00474552
     d38:	0052534d 	subseq	r5, r2, sp, asr #6
     d3c:	79625f6e 	stmdbvc	r2!, {r1, r2, r3, r5, r6, r8, r9, sl, fp, ip, lr}^
     d40:	00736574 	rsbseq	r6, r3, r4, ror r5
     d44:	69726573 	ldmdbvs	r2!, {r0, r1, r4, r5, r6, r8, sl, sp, lr}^
     d48:	775f6c61 	ldrbvc	r6, [pc, -r1, ror #24]
     d4c:	65746972 	ldrbvs	r6, [r4, #-2418]!	; 0x972
     d50:	645f5f00 	ldrbvs	r5, [pc], #-3840	; d58 <_back_addr-0x14ff2a8>
     d54:	00307669 	eorseq	r7, r0, r9, ror #12
     d58:	6b73616d 	blvs	1cd9314 <__bss_end__+0x7c57d4>
     d5c:	72615500 	rsbvc	r5, r1, #0, 10
     d60:	72634d74 	rsbvc	r4, r3, #116, 26	; 0x1d00
     d64:	41555f00 	cmpmi	r5, r0, lsl #30
     d68:	45525452 	ldrbmi	r5, [r2, #-1106]	; 0x452
     d6c:	45495f47 	strbmi	r5, [r9, #-3911]	; 0xf47
     d70:	4c445f52 	mcrrmi	15, 5, r5, r4, cr2
     d74:	4445004d 	strbmi	r0, [r5], #-77	; 0x4d
     d78:	00495353 	subeq	r5, r9, r3, asr r3
     d7c:	5241555f 	subpl	r5, r1, #398458880	; 0x17c00000
     d80:	47455254 	smlsldmi	r5, r5, r4, r2	; <UNPREDICTABLE>
     d84:	52434d5f 	subpl	r4, r3, #6080	; 0x17c0
     d88:	72615500 	rsbvc	r5, r1, #0, 10
     d8c:	67655274 			; <UNDEFINED> instruction: 0x67655274
     d90:	41555f00 	cmpmi	r5, r0, lsl #30
     d94:	45525452 	ldrbmi	r5, [r2, #-1106]	; 0x452
     d98:	42525f47 	subsmi	r5, r2, #284	; 0x11c
     d9c:	48545f52 	ldmdami	r4, {r1, r4, r6, r8, r9, sl, fp, ip, lr}^
     da0:	4c445f52 	mcrrmi	15, 5, r5, r4, cr2
     da4:	6155004c 	cmpvs	r5, ip, asr #32
     da8:	634c7472 	movtvs	r7, #50290	; 0xc472
     dac:	46450072 			; <UNDEFINED> instruction: 0x46450072
     db0:	004f4649 	subeq	r4, pc, r9, asr #12
     db4:	53524652 	cmppl	r2, #85983232	; 0x5200000
     db8:	555f0054 	ldrbpl	r0, [pc, #-84]	; d6c <_back_addr-0x14ff294>
     dbc:	52545241 	subspl	r5, r4, #268435460	; 0x10000004
     dc0:	535f4745 	cmppl	pc, #18087936	; 0x1140000
     dc4:	70005243 	andvc	r5, r0, r3, asr #4
     dc8:	746e6972 	strbtvc	r6, [lr], #-2418	; 0x972
     dcc:	6c61765f 	stclvs	6, cr7, [r1], #-380	; 0xfffffe84
     dd0:	42524500 	subsmi	r4, r2, #0, 10
     dd4:	6f630049 	svcvs	0x00630049
     dd8:	7261706d 	rsbvc	r7, r1, #109	; 0x6d
     ddc:	656d5f65 	strbvs	r5, [sp, #-3941]!	; 0xf65
     de0:	79726f6d 	ldmdbvc	r2!, {r0, r2, r3, r5, r6, r8, r9, sl, fp, sp, lr}^
     de4:	65694600 	strbvs	r4, [r9, #-1536]!	; 0x600
     de8:	0073646c 	rsbseq	r6, r3, ip, ror #8
     dec:	6c656946 	stclvs	9, cr6, [r5], #-280	; 0xfffffee8
     df0:	00307364 	eorseq	r7, r0, r4, ror #6
     df4:	5f746573 	svcpl	0x00746573
     df8:	65737363 	ldrbvs	r7, [r3, #-867]!	; 0x363
     dfc:	6900726c 	stmdbvs	r0, {r2, r3, r5, r6, r9, ip, sp, lr}
     e00:	6c61766e 	stclvs	6, cr7, [r1], #-440	; 0xfffffe48
     e04:	74616469 	strbtvc	r6, [r1], #-1129	; 0x469
     e08:	63695f65 	cmnvs	r9, #404	; 0x194
     e0c:	65686361 	strbvs	r6, [r8, #-865]!	; 0x361
     e10:	6c6c615f 	stfvse	f6, [ip], #-380	; 0xfffffe84
     e14:	74656700 	strbtvc	r6, [r5], #-1792	; 0x700
     e18:	696c635f 	stmdbvs	ip!, {r0, r1, r2, r3, r4, r6, r8, r9, sp, lr}^
     e1c:	66007264 	strvs	r7, [r0], -r4, ror #4
     e20:	6873756c 	ldmdavs	r3!, {r2, r3, r5, r6, r8, sl, ip, sp, lr}^
     e24:	6163645f 	cmnvs	r3, pc, asr r4
     e28:	5f656863 	svcpl	0x00656863
     e2c:	676e6172 			; <UNDEFINED> instruction: 0x676e6172
     e30:	37760065 	ldrbcc	r0, [r6, -r5, rrx]!
     e34:	766e695f 			; <UNDEFINED> instruction: 0x766e695f
     e38:	645f6c61 	ldrbvs	r6, [pc], #-3169	; e40 <_back_addr-0x14ff1c0>
     e3c:	68636163 	stmdavs	r3!, {r0, r1, r5, r6, r8, sp, lr}^
     e40:	656c5f65 	strbvs	r5, [ip, #-3941]!	; 0xf65
     e44:	5f6c6576 	svcpl	0x006c6576
     e48:	77746573 			; <UNDEFINED> instruction: 0x77746573
     e4c:	69007961 	stmdbvs	r0, {r0, r5, r6, r8, fp, ip, sp, lr}
     e50:	6c61766e 	stclvs	6, cr7, [r1], #-440	; 0xfffffe48
     e54:	74616469 	strbtvc	r6, [r1], #-1129	; 0x469
     e58:	63645f65 	cmnvs	r4, #404	; 0x194
     e5c:	65686361 	strbvs	r6, [r8, #-865]!	; 0x361
     e60:	6e61725f 	mcrvs	2, 3, r7, cr1, cr15, {2}
     e64:	5f006567 	svcpl	0x00006567
     e68:	5f37765f 	svcpl	0x0037765f
     e6c:	6574756f 	ldrbvs	r7, [r4, #-1391]!	; 0x56f
     e70:	61635f72 	smcvs	13810	; 0x35f2
     e74:	5f656863 	svcpl	0x00656863
     e78:	73756c66 	cmnvc	r5, #26112	; 0x6600
     e7c:	61725f68 	cmnvs	r2, r8, ror #30
     e80:	0065676e 	rsbeq	r6, r5, lr, ror #14
     e84:	6d5f3776 	ldclvs	7, cr3, [pc, #-472]	; cb4 <_back_addr-0x14ff34c>
     e88:	746e6961 	strbtvc	r6, [lr], #-2401	; 0x961
     e8c:	6163645f 	cmnvs	r3, pc, asr r4
     e90:	5f656863 	svcpl	0x00656863
     e94:	006c6c61 	rsbeq	r6, ip, r1, ror #24
     e98:	6d5f3776 	ldclvs	7, cr3, [pc, #-472]	; cc8 <_back_addr-0x14ff338>
     e9c:	746e6961 	strbtvc	r6, [lr], #-2401	; 0x961
     ea0:	6163645f 	cmnvs	r3, pc, asr r4
     ea4:	5f656863 	svcpl	0x00656863
     ea8:	6576656c 	ldrbvs	r6, [r6, #-1388]!	; 0x56c
     eac:	65735f6c 	ldrbvs	r5, [r3, #-3948]!	; 0xf6c
     eb0:	79617774 	stmdbvc	r1!, {r2, r4, r5, r6, r8, r9, sl, ip, sp, lr}^
     eb4:	5f377600 	svcpl	0x00377600
     eb8:	61766e69 	cmnvs	r6, r9, ror #28
     ebc:	6c745f6c 	ldclvs	15, cr5, [r4], #-432	; 0xfffffe50
     ec0:	5f5f0062 	svcpl	0x005f0062
     ec4:	6f5f3776 	svcvs	0x005f3776
     ec8:	72657475 	rsbvc	r7, r5, #1962934272	; 0x75000000
     ecc:	6361635f 	cmnvs	r1, #2080374785	; 0x7c000001
     ed0:	695f6568 	ldmdbvs	pc, {r3, r5, r6, r8, sl, sp, lr}^	; <UNPREDICTABLE>
     ed4:	6c61766e 	stclvs	6, cr7, [r1], #-440	; 0xfffffe48
     ed8:	6c6c615f 	stfvse	f6, [ip], #-380	; 0xfffffe84
     edc:	676f6c00 	strbvs	r6, [pc, -r0, lsl #24]!
     ee0:	6e5f325f 	mrcvs	2, 2, r3, cr15, cr15, {2}
     ee4:	756f725f 	strbvc	r7, [pc, #-607]!	; c8d <_back_addr-0x14ff373>
     ee8:	755f646e 	ldrbvc	r6, [pc, #-1134]	; a82 <_back_addr-0x14ff57e>
     eec:	61630070 	smcvs	12288	; 0x3000
     ef0:	5f656863 	svcpl	0x00656863
     ef4:	632e3776 	teqvs	lr, #30932992	; 0x1d80000
     ef8:	5f377600 	svcpl	0x00377600
     efc:	63616364 	cmnvs	r1, #100, 6	; 0x90000001
     f00:	635f6568 	cmpvs	pc, #104, 10	; 0x1a000000
     f04:	6e61656c 	cdpvs	5, 6, cr6, cr1, cr12, {3}
     f08:	766e695f 			; <UNDEFINED> instruction: 0x766e695f
     f0c:	725f6c61 	subsvc	r6, pc, #24832	; 0x6100
     f10:	65676e61 	strbvs	r6, [r7, #-3681]!	; 0xe61
     f14:	676f6c00 	strbvs	r6, [pc, -r0, lsl #24]!
     f18:	756e5f32 	strbvc	r5, [lr, #-3890]!	; 0xf32
     f1c:	61775f6d 	cmnvs	r7, sp, ror #30
     f20:	77007379 	smlsdxvc	r0, r9, r3, r7
     f24:	735f7961 	cmpvc	pc, #1589248	; 0x184000
     f28:	74666968 	strbtvc	r6, [r6], #-2408	; 0x968
     f2c:	765f5f00 	ldrbvc	r5, [pc], -r0, lsl #30
     f30:	756f5f37 	strbvc	r5, [pc, #-3895]!	; 1 <_back_addr-0x14fffff>
     f34:	5f726574 	svcpl	0x00726574
     f38:	68636163 	stmdavs	r3!, {r0, r1, r5, r6, r8, sp, lr}^
     f3c:	6c665f65 	stclvs	15, cr5, [r6], #-404	; 0xfffffe6c
     f40:	5f687375 	svcpl	0x00687375
     f44:	006c6c61 	rsbeq	r6, ip, r1, ror #24
     f48:	32676f6c 	rsbcc	r6, r7, #108, 30	; 0x1b0
     f4c:	756e006e 	strbvc	r0, [lr, #-110]!	; 0x6e
     f50:	65735f6d 	ldrbvs	r5, [r3, #-3949]!	; 0xf6d
     f54:	6c007374 	stcvs	3, cr7, [r0], {116}	; 0x74
     f58:	6c657665 	stclvs	6, cr7, [r5], #-404	; 0xfffffe6c
     f5c:	6174735f 	cmnvs	r4, pc, asr r3
     f60:	625f7472 	subsvs	r7, pc, #1912602624	; 0x72000000
     f64:	6c007469 	cfstrsvs	mvf7, [r0], {105}	; 0x69
     f68:	5f32676f 	svcpl	0x0032676f
     f6c:	656e696c 	strbvs	r6, [lr, #-2412]!	; 0x96c
     f70:	6e656c5f 	mcrvs	12, 3, r6, cr5, cr15, {2}
     f74:	61747300 	cmnvs	r4, r0, lsl #6
     f78:	6f007472 	svcvs	0x00007472
     f7c:	61726570 	cmnvs	r2, r0, ror r5
     f80:	6e6f6974 	mcrvs	9, 3, r6, cr15, cr4, {3}
     f84:	5f377600 	svcpl	0x00377600
     f88:	61656c63 	cmnvs	r5, r3, ror #24
     f8c:	6e695f6e 	cdpvs	15, 6, cr5, cr9, cr14, {3}
     f90:	5f6c6176 	svcpl	0x006c6176
     f94:	63616364 	cmnvs	r1, #100, 6	; 0x90000001
     f98:	6c5f6568 	cfldr64vs	mvdx6, [pc], {104}	; 0x68
     f9c:	6c657665 	stclvs	6, cr7, [r5], #-404	; 0xfffffe6c
     fa0:	7465735f 	strbtvc	r7, [r5], #-863	; 0x35f
     fa4:	00796177 	rsbseq	r6, r9, r7, ror r1
     fa8:	706f7473 	rsbvc	r7, pc, r3, ror r4	; <UNPREDICTABLE>
     fac:	5f377600 	svcpl	0x00377600
     fb0:	63616364 	cmnvs	r1, #100, 6	; 0x90000001
     fb4:	695f6568 	ldmdbvs	pc, {r3, r5, r6, r8, sl, sp, lr}^	; <UNPREDICTABLE>
     fb8:	6c61766e 	stclvs	6, cr7, [r1], #-440	; 0xfffffe48
     fbc:	6e61725f 	mcrvs	2, 3, r7, cr1, cr15, {2}
     fc0:	67006567 	strvs	r6, [r0, -r7, ror #10]
     fc4:	635f7465 	cmpvs	pc, #1694498816	; 0x65000000
     fc8:	64697363 	strbtvs	r7, [r9], #-867	; 0x363
     fcc:	5f5f0072 	svcpl	0x005f0072
     fd0:	6f5f3776 	svcvs	0x005f3776
     fd4:	72657475 	rsbvc	r7, r5, #1962934272	; 0x75000000
     fd8:	6361635f 	cmnvs	r1, #2080374785	; 0x7c000001
     fdc:	695f6568 	ldmdbvs	pc, {r3, r5, r6, r8, sl, sp, lr}^	; <UNPREDICTABLE>
     fe0:	6c61766e 	stclvs	6, cr7, [r1], #-440	; 0xfffffe48
     fe4:	6e61725f 	mcrvs	2, 3, r7, cr1, cr15, {2}
     fe8:	61006567 	tstvs	r0, r7, ror #10
     fec:	695f6d72 	ldmdbvs	pc, {r1, r4, r5, r6, r8, sl, fp, sp, lr}^	; <UNPREDICTABLE>
     ff0:	5f74696e 	svcpl	0x0074696e
     ff4:	6f666562 	svcvs	0x00666562
     ff8:	6d5f6572 	cfldr64vs	mvdx6, [pc, #-456]	; e38 <_back_addr-0x14ff1c8>
     ffc:	7200756d 	andvc	r7, r0, #457179136	; 0x1b400000
    1000:	65676e61 	strbvs	r6, [r7, #-3681]!	; 0xe61
    1004:	00706f5f 	rsbseq	r6, r0, pc, asr pc
    1008:	37765f5f 			; <UNDEFINED> instruction: 0x37765f5f
    100c:	74756f5f 	ldrbtvc	r6, [r5], #-3935	; 0xf5f
    1010:	635f7265 	cmpvs	pc, #1342177286	; 0x50000006
    1014:	65686361 	strbvs	r6, [r8, #-865]!	; 0x361
    1018:	616e655f 	cmnvs	lr, pc, asr r5
    101c:	00656c62 	rsbeq	r6, r5, r2, ror #24
    1020:	37765f5f 			; <UNDEFINED> instruction: 0x37765f5f
    1024:	74756f5f 	ldrbtvc	r6, [r5], #-3935	; 0xf5f
    1028:	635f7265 	cmpvs	pc, #1342177286	; 0x50000006
    102c:	65686361 	strbvs	r6, [r8, #-865]!	; 0x361
    1030:	7369645f 	cmnvc	r9, #1593835520	; 0x5f000000
    1034:	656c6261 	strbvs	r6, [ip, #-609]!	; 0x261
    1038:	76656c00 	strbtvc	r6, [r5], -r0, lsl #24
    103c:	76006c65 	strvc	r6, [r0], -r5, ror #24
    1040:	63645f37 	cmnvs	r4, #55, 30	; 0xdc
    1044:	65686361 	strbvs	r6, [r8, #-865]!	; 0x361
    1048:	69616d5f 	stmdbvs	r1!, {r0, r1, r2, r3, r4, r6, r8, sl, fp, sp, lr}^
    104c:	725f746e 	subsvc	r7, pc, #1845493760	; 0x6e000000
    1050:	65676e61 	strbvs	r6, [r7, #-3681]!	; 0xe61
    1054:	63616300 	cmnvs	r1, #0, 6
    1058:	745f6568 	ldrbvc	r6, [pc], #-1384	; 1060 <_back_addr-0x14fefa0>
    105c:	00657079 	rsbeq	r7, r5, r9, ror r0
    1060:	73756c66 	cmnvc	r5, #26112	; 0x6600
    1064:	63645f68 	cmnvs	r4, #104, 30	; 0x1a0
    1068:	65686361 	strbvs	r6, [r8, #-865]!	; 0x361
    106c:	6c6c615f 	stfvse	f6, [ip], #-380	; 0xfffffe84
    1070:	766e6900 	strbtvc	r6, [lr], -r0, lsl #18
    1074:	64696c61 	strbtvs	r6, [r9], #-3169	; 0xc61
    1078:	5f657461 	svcpl	0x00657461
    107c:	63616364 	cmnvs	r1, #100, 6	; 0x90000001
    1080:	615f6568 	cmpvs	pc, r8, ror #10
    1084:	Address 0x00001084 is out of bounds.


Disassembly of section .debug_loc:

00000000 <.debug_loc>:
       0:	00000000 	andeq	r0, r0, r0
       4:	00000008 	andeq	r0, r0, r8
       8:	08500001 	ldmdaeq	r0, {r0}^
       c:	18000000 	stmdane	r0, {}	; <UNPREDICTABLE>
      10:	01000000 	mrseq	r0, (UNDEF: 0)
      14:	00185300 	andseq	r5, r8, r0, lsl #6
      18:	00200000 	eoreq	r0, r0, r0
      1c:	00030000 	andeq	r0, r3, r0
      20:	009f7f73 	addseq	r7, pc, r3, ror pc	; <UNPREDICTABLE>
	...
      2c:	10000000 	andne	r0, r0, r0
      30:	02000000 	andeq	r0, r0, #0
      34:	109f3000 	addsne	r3, pc, r0
      38:	14000000 	strne	r0, [r0], #-0
      3c:	07000000 	streq	r0, [r0, -r0]
      40:	20007000 	andcs	r7, r0, r0
      44:	9f220073 	svcls	0x00220073
      48:	00000014 	andeq	r0, r0, r4, lsl r0
      4c:	00000020 	andeq	r0, r0, r0, lsr #32
      50:	00510001 	subseq	r0, r1, r1
	...
      5c:	30000000 	andcc	r0, r0, r0
      60:	01000000 	mrseq	r0, (UNDEF: 0)
      64:	00305000 	eorseq	r5, r0, r0
      68:	00380000 	eorseq	r0, r8, r0
      6c:	00030000 	andeq	r0, r3, r0
      70:	389f7f70 	ldmcc	pc, {r4, r5, r6, r8, r9, sl, fp, ip, sp, lr}	; <UNPREDICTABLE>
      74:	90000000 	andls	r0, r0, r0
      78:	01000000 	mrseq	r0, (UNDEF: 0)
      7c:	00985000 	addseq	r5, r8, r0
      80:	009c0000 	addseq	r0, ip, r0
      84:	00010000 	andeq	r0, r1, r0
      88:	00009c50 	andeq	r9, r0, r0, asr ip
      8c:	0000a000 	andeq	sl, r0, r0
      90:	f3000400 	vshl.u8	d0, d0, d0
      94:	009f5001 	addseq	r5, pc, r1
      98:	00000000 	andeq	r0, r0, r0
      9c:	60000000 	andvs	r0, r0, r0
      a0:	6c000000 	stcvs	0, cr0, [r0], {-0}
      a4:	01000000 	mrseq	r0, (UNDEF: 0)
      a8:	006c5e00 	rsbeq	r5, ip, r0, lsl #28
      ac:	00740000 	rsbseq	r0, r4, r0
      b0:	00030000 	andeq	r0, r3, r0
      b4:	749f7f73 	ldrvc	r7, [pc], #3955	; bc <_back_addr-0x14fff44>
      b8:	78000000 	stmdavc	r0, {}	; <UNPREDICTABLE>
      bc:	01000000 	mrseq	r0, (UNDEF: 0)
      c0:	00785300 	rsbseq	r5, r8, r0, lsl #6
      c4:	00900000 	addseq	r0, r0, r0
      c8:	00010000 	andeq	r0, r1, r0
      cc:	0000005e 	andeq	r0, r0, lr, asr r0
      d0:	00000000 	andeq	r0, r0, r0
      d4:	00004000 	andeq	r4, r0, r0
      d8:	00006000 	andeq	r6, r0, r0
      dc:	50000100 	andpl	r0, r0, r0, lsl #2
      e0:	0000006c 	andeq	r0, r0, ip, rrx
      e4:	00000070 	andeq	r0, r0, r0, ror r0
      e8:	705c0001 	subsvc	r0, ip, r1
      ec:	74000000 	strvc	r0, [r0], #-0
      f0:	03000000 	movweq	r0, #0
      f4:	9f7f7c00 	svcls	0x007f7c00
	...
     104:	00000014 	andeq	r0, r0, r4, lsl r0
     108:	14500001 	ldrbne	r0, [r0], #-1
     10c:	50000000 	andpl	r0, r0, r0
     110:	01000001 	tsteq	r0, r1
     114:	01505800 	cmpeq	r0, r0, lsl #16
     118:	01580000 	cmpeq	r8, r0
     11c:	00040000 	andeq	r0, r4, r0
     120:	9f5001f3 	svcls	0x005001f3
     124:	00000158 	andeq	r0, r0, r8, asr r1
     128:	00000194 	muleq	r0, r4, r1
     12c:	00580001 	subseq	r0, r8, r1
	...
     138:	68000000 	stmdavs	r0, {}	; <UNPREDICTABLE>
     13c:	01000000 	mrseq	r0, (UNDEF: 0)
     140:	00685200 	rsbeq	r5, r8, r0, lsl #4
     144:	007c0000 	rsbseq	r0, ip, r0
     148:	00040000 	andeq	r0, r4, r0
     14c:	9f5201f3 	svcls	0x005201f3
     150:	0000007c 	andeq	r0, r0, ip, ror r0
     154:	00000084 	andeq	r0, r0, r4, lsl #1
     158:	84520001 	ldrbhi	r0, [r2], #-1
     15c:	a8000000 	stmdage	r0, {}	; <UNPREDICTABLE>
     160:	04000000 	streq	r0, [r0], #-0
     164:	5201f300 	andpl	pc, r1, #0, 6
     168:	0000a89f 	muleq	r0, pc, r8	; <UNPREDICTABLE>
     16c:	00017c00 	andeq	r7, r1, r0, lsl #24
     170:	52000100 	andpl	r0, r0, #0, 2
     174:	0000017c 	andeq	r0, r0, ip, ror r1
     178:	00000188 	andeq	r0, r0, r8, lsl #3
     17c:	01f30004 	mvnseq	r0, r4
     180:	01889f52 	orreq	r9, r8, r2, asr pc
     184:	01940000 	orrseq	r0, r4, r0
     188:	00020000 	andeq	r0, r2, r0
     18c:	00009f40 	andeq	r9, r0, r0, asr #30
     190:	00000000 	andeq	r0, r0, r0
     194:	00100000 	andseq	r0, r0, r0
     198:	00400000 	subeq	r0, r0, r0
     19c:	00010000 	andeq	r0, r1, r0
     1a0:	00004050 	andeq	r4, r0, r0, asr r0
     1a4:	00015800 	andeq	r5, r1, r0, lsl #16
     1a8:	53000100 	movwpl	r0, #256	; 0x100
     1ac:	00000158 	andeq	r0, r0, r8, asr r1
     1b0:	0000015c 	andeq	r0, r0, ip, asr r1
     1b4:	5c500001 	mrrcpl	0, 0, r0, r0, cr1	; <UNPREDICTABLE>
     1b8:	94000001 	strls	r0, [r0], #-1
     1bc:	01000001 	tsteq	r0, r1
     1c0:	00005300 	andeq	r5, r0, r0, lsl #6
     1c4:	00000000 	andeq	r0, r0, r0
     1c8:	00a80000 	adceq	r0, r8, r0
     1cc:	00b40000 	adcseq	r0, r4, r0
     1d0:	00020000 	andeq	r0, r2, r0
     1d4:	00b49f30 	adcseq	r9, r4, r0, lsr pc
     1d8:	00d00000 	sbcseq	r0, r0, r0
     1dc:	00010000 	andeq	r0, r1, r0
     1e0:	0000d056 	andeq	sp, r0, r6, asr r0
     1e4:	0000d400 	andeq	sp, r0, r0, lsl #8
     1e8:	7a000600 	bvc	19f0 <_back_addr-0x14fe610>
     1ec:	1e007600 	cfmadd32ne	mvax0, mvfx7, mvfx0, mvfx0
     1f0:	0000d49f 	muleq	r0, pc, r4	; <UNPREDICTABLE>
     1f4:	00012400 	andeq	r2, r1, r0, lsl #8
     1f8:	56000100 	strpl	r0, [r0], -r0, lsl #2
     1fc:	00000128 	andeq	r0, r0, r8, lsr #2
     200:	00000140 	andeq	r0, r0, r0, asr #2
     204:	44560001 	ldrbmi	r0, [r6], #-1
     208:	58000001 	stmdapl	r0, {r0}
     20c:	01000001 	tsteq	r0, r1
     210:	00005000 	andeq	r5, r0, r0
     214:	00000000 	andeq	r0, r0, r0
     218:	00a80000 	adceq	r0, r8, r0
     21c:	013c0000 	teqeq	ip, r0
     220:	00010000 	andeq	r0, r1, r0
     224:	00000050 	andeq	r0, r0, r0, asr r0
     228:	00000000 	andeq	r0, r0, r0
     22c:	00001400 	andeq	r1, r0, r0, lsl #8
     230:	00001800 	andeq	r1, r0, r0, lsl #16
     234:	5e000100 	adfpls	f0, f0, f0
     238:	00000020 	andeq	r0, r0, r0, lsr #32
     23c:	0000007c 	andeq	r0, r0, ip, ror r0
     240:	7c5e0001 	mrrcvc	0, 0, r0, lr, cr1
     244:	94000000 	strls	r0, [r0], #-0
     248:	03000000 	movweq	r0, #0
     24c:	9f300800 	svcls	0x00300800
     250:	000000b4 	strheq	r0, [r0], -r4
     254:	000000e8 	andeq	r0, r0, r8, ror #1
     258:	045e0001 	ldrbeq	r0, [lr], #-1
     25c:	28000001 	stmdacs	r0, {r0}
     260:	01000001 	tsteq	r0, r1
     264:	01585e00 	cmpeq	r8, r0, lsl #28
     268:	01940000 	orrseq	r0, r4, r0
     26c:	00010000 	andeq	r0, r1, r0
     270:	0000005e 	andeq	r0, r0, lr, asr r0
     274:	00000000 	andeq	r0, r0, r0
     278:	00003800 	andeq	r3, r0, r0, lsl #16
     27c:	00004400 	andeq	r4, r0, r0, lsl #8
     280:	30000200 	andcc	r0, r0, r0, lsl #4
     284:	0001589f 	muleq	r1, pc, r8	; <UNPREDICTABLE>
     288:	00016800 	andeq	r6, r1, r0, lsl #16
     28c:	31000200 	mrscc	r0, R8_usr
     290:	0000009f 	muleq	r0, pc, r0	; <UNPREDICTABLE>
     294:	00000000 	andeq	r0, r0, r0
     298:	0000a800 	andeq	sl, r0, r0, lsl #16
     29c:	0000b400 	andeq	fp, r0, r0, lsl #8
     2a0:	30000200 	andcc	r0, r0, r0, lsl #4
     2a4:	0000b49f 	muleq	r0, pc, r4	; <UNPREDICTABLE>
     2a8:	0000d000 	andeq	sp, r0, r0
     2ac:	55000100 	strpl	r0, [r0, #-256]	; 0x100
     2b0:	000000d0 	ldrdeq	r0, [r0], -r0	; <UNPREDICTABLE>
     2b4:	000000d8 	ldrdeq	r0, [r0], -r8
     2b8:	9f310002 	svcls	0x00310002
     2bc:	000000d8 	ldrdeq	r0, [r0], -r8
     2c0:	00000120 	andeq	r0, r0, r0, lsr #2
     2c4:	28550001 	ldmdacs	r5, {r0}^
     2c8:	58000001 	stmdapl	r0, {r0}
     2cc:	01000001 	tsteq	r0, r1
     2d0:	00005500 	andeq	r5, r0, r0, lsl #10
     2d4:	00000000 	andeq	r0, r0, r0
     2d8:	00a80000 	adceq	r0, r8, r0
     2dc:	01580000 	cmpeq	r8, r0
     2e0:	00010000 	andeq	r0, r1, r0
     2e4:	00000059 	andeq	r0, r0, r9, asr r0
     2e8:	00000000 	andeq	r0, r0, r0
     2ec:	00001800 	andeq	r1, r0, r0, lsl #16
     2f0:	00002800 	andeq	r2, r0, r0, lsl #16
     2f4:	51000100 	mrspl	r0, (UNDEF: 16)
     2f8:	00000028 	andeq	r0, r0, r8, lsr #32
     2fc:	0000003c 	andeq	r0, r0, ip, lsr r0
     300:	01f30004 	mvnseq	r0, r4
     304:	00009f51 	andeq	r9, r0, r1, asr pc
     308:	00000000 	andeq	r0, r0, r0
     30c:	00180000 	andseq	r0, r8, r0
     310:	001c0000 	andseq	r0, ip, r0
     314:	00010000 	andeq	r0, r1, r0
     318:	00001c52 	andeq	r1, r0, r2, asr ip
     31c:	00002400 	andeq	r2, r0, r0, lsl #8
     320:	72000300 	andvc	r0, r0, #0, 6
     324:	00249f7f 	eoreq	r9, r4, pc, ror pc
     328:	00280000 	eoreq	r0, r8, r0
     32c:	00060000 	andeq	r0, r6, r0
     330:	315201f3 	ldrshcc	r0, [r2, #-19]	; 0xffffffed
     334:	00289f1c 	eoreq	r9, r8, ip, lsl pc
     338:	002c0000 	eoreq	r0, ip, r0
     33c:	000b0000 	andeq	r0, fp, r0
     340:	f3200071 	vqadd.u32	q0, q0, <illegal reg q8.5>
     344:	71225201 	teqvc	r2, r1, lsl #4
     348:	2c9f2200 	lfmcs	f2, 4, [pc], {0}
     34c:	3c000000 	stccc	0, cr0, [r0], {-0}
     350:	0b000000 	bleq	358 <_back_addr-0x14ffca8>
     354:	20007100 	andcs	r7, r0, r0, lsl #2
     358:	f3220071 	vqadd.u32	q0, q1, <illegal reg q8.5>
     35c:	9f225201 	svcls	0x00225201
	...
     368:	0000001c 	andeq	r0, r0, ip, lsl r0
     36c:	00000028 	andeq	r0, r0, r8, lsr #32
     370:	00500001 	subseq	r0, r0, r1
     374:	00000000 	andeq	r0, r0, r0
     378:	1c000000 	stcne	0, cr0, [r0], {-0}
     37c:	2c000000 	stccs	0, cr0, [r0], {-0}
     380:	01000000 	mrseq	r0, (UNDEF: 0)
     384:	002c5100 	eoreq	r5, ip, r0, lsl #2
     388:	00300000 	eorseq	r0, r0, r0
     38c:	00030000 	andeq	r0, r3, r0
     390:	309f7f71 	addscc	r7, pc, r1, ror pc	; <UNPREDICTABLE>
     394:	3c000000 	stccc	0, cr0, [r0], {-0}
     398:	01000000 	mrseq	r0, (UNDEF: 0)
     39c:	00005100 	andeq	r5, r0, r0, lsl #2
     3a0:	00000000 	andeq	r0, r0, r0
     3a4:	003c0000 	eorseq	r0, ip, r0
     3a8:	00500000 	subseq	r0, r0, r0
     3ac:	00010000 	andeq	r0, r1, r0
     3b0:	00005050 	andeq	r5, r0, r0, asr r0
     3b4:	00006000 	andeq	r6, r0, r0
     3b8:	5c000100 	stfpls	f0, [r0], {-0}
     3bc:	00000060 	andeq	r0, r0, r0, rrx
     3c0:	00000068 	andeq	r0, r0, r8, rrx
     3c4:	7f7c0003 	svcvc	0x007c0003
     3c8:	0000689f 	muleq	r0, pc, r8	; <UNPREDICTABLE>
     3cc:	00008c00 	andeq	r8, r0, r0, lsl #24
     3d0:	f3000400 	vshl.u8	d0, d0, d0
     3d4:	8c9f5001 	ldchi	0, cr5, [pc], {1}
     3d8:	90000000 	andls	r0, r0, r0
     3dc:	01000000 	mrseq	r0, (UNDEF: 0)
     3e0:	00905000 	addseq	r5, r0, r0
     3e4:	00940000 	addseq	r0, r4, r0
     3e8:	00040000 	andeq	r0, r4, r0
     3ec:	9f5001f3 	svcls	0x005001f3
	...
     3f8:	0000003c 	andeq	r0, r0, ip, lsr r0
     3fc:	00000068 	andeq	r0, r0, r8, rrx
     400:	68510001 	ldmdavs	r1, {r0}^
     404:	8c000000 	stchi	0, cr0, [r0], {-0}
     408:	04000000 	streq	r0, [r0], #-0
     40c:	5101f300 	mrspl	pc, SP_irq	; <UNPREDICTABLE>
     410:	00008c9f 	muleq	r0, pc, ip	; <UNPREDICTABLE>
     414:	00009400 	andeq	r9, r0, r0, lsl #8
     418:	51000100 	mrspl	r0, (UNDEF: 16)
	...
     424:	0000003c 	andeq	r0, r0, ip, lsr r0
     428:	0000005c 	andeq	r0, r0, ip, asr r0
     42c:	5c520001 	mrrcpl	0, 0, r0, r2, cr1
     430:	68000000 	stmdavs	r0, {}	; <UNPREDICTABLE>
     434:	04000000 	streq	r0, [r0], #-0
     438:	5201f300 	andpl	pc, r1, #0, 6
     43c:	0000689f 	muleq	r0, pc, r8	; <UNPREDICTABLE>
     440:	00006c00 	andeq	r6, r0, r0, lsl #24
     444:	f3000b00 	vqrdmulh.s<illegal width 8>	d0, d0, d0
     448:	007c5001 	rsbseq	r5, ip, r1
     44c:	5201f31c 	andpl	pc, r1, #28, 6	; 0x70000000
     450:	006c9f22 	rsbeq	r9, ip, r2, lsr #30
     454:	00780000 	rsbseq	r0, r8, r0
     458:	000d0000 	andeq	r0, sp, r0
     45c:	f35001f3 	vbsl	q8, q8, <illegal reg q9.5>
     460:	7c225201 	sfmvc	f5, 4, [r2], #-4
     464:	01231c00 	teqeq	r3, r0, lsl #24
     468:	0000789f 	muleq	r0, pc, r8	; <UNPREDICTABLE>
     46c:	00008400 	andeq	r8, r0, r0, lsl #8
     470:	f3000b00 	vqrdmulh.s<illegal width 8>	d0, d0, d0
     474:	007c5001 	rsbseq	r5, ip, r1
     478:	5201f31c 	andpl	pc, r1, #28, 6	; 0x70000000
     47c:	00849f22 	addeq	r9, r4, r2, lsr #30
     480:	008c0000 	addeq	r0, ip, r0
     484:	000d0000 	andeq	r0, sp, r0
     488:	f35001f3 	vbsl	q8, q8, <illegal reg q9.5>
     48c:	7c225201 	sfmvc	f5, 4, [r2], #-4
     490:	01231c00 	teqeq	r3, r0, lsl #24
     494:	00008c9f 	muleq	r0, pc, ip	; <UNPREDICTABLE>
     498:	00009400 	andeq	r9, r0, r0, lsl #8
     49c:	52000100 	andpl	r0, r0, #0, 2
	...
     4a8:	00000040 	andeq	r0, r0, r0, asr #32
     4ac:	00000050 	andeq	r0, r0, r0, asr r0
     4b0:	50500001 	subspl	r0, r0, r1
     4b4:	60000000 	andvs	r0, r0, r0
     4b8:	01000000 	mrseq	r0, (UNDEF: 0)
     4bc:	00605c00 	rsbeq	r5, r0, r0, lsl #24
     4c0:	00680000 	rsbeq	r0, r8, r0
     4c4:	00030000 	andeq	r0, r3, r0
     4c8:	689f7f7c 	ldmvs	pc, {r2, r3, r4, r5, r6, r8, r9, sl, fp, ip, sp, lr}	; <UNPREDICTABLE>
     4cc:	6c000000 	stcvs	0, cr0, [r0], {-0}
     4d0:	01000000 	mrseq	r0, (UNDEF: 0)
     4d4:	006c5c00 	rsbeq	r5, ip, r0, lsl #24
     4d8:	00780000 	rsbseq	r0, r8, r0
     4dc:	00030000 	andeq	r0, r3, r0
     4e0:	789f7f7c 	ldmvc	pc, {r2, r3, r4, r5, r6, r8, r9, sl, fp, ip, sp, lr}	; <UNPREDICTABLE>
     4e4:	84000000 	strhi	r0, [r0], #-0
     4e8:	01000000 	mrseq	r0, (UNDEF: 0)
     4ec:	00845c00 	addeq	r5, r4, r0, lsl #24
     4f0:	008c0000 	addeq	r0, ip, r0
     4f4:	00030000 	andeq	r0, r3, r0
     4f8:	8c9f7f7c 	ldchi	15, cr7, [pc], {124}	; 0x7c
     4fc:	90000000 	andls	r0, r0, r0
     500:	01000000 	mrseq	r0, (UNDEF: 0)
     504:	00905000 	addseq	r5, r0, r0
     508:	00940000 	addseq	r0, r4, r0
     50c:	00040000 	andeq	r0, r4, r0
     510:	9f5001f3 	svcls	0x005001f3
	...
     51c:	00000040 	andeq	r0, r0, r0, asr #32
     520:	00000068 	andeq	r0, r0, r8, rrx
     524:	68510001 	ldmdavs	r1, {r0}^
     528:	6c000000 	stcvs	0, cr0, [r0], {-0}
     52c:	0b000000 	bleq	534 <_back_addr-0x14ffacc>
     530:	5101f300 	mrspl	pc, SP_irq	; <UNPREDICTABLE>
     534:	1c5001f3 	ldfnee	f0, [r0], {243}	; 0xf3
     538:	9f22007c 	svcls	0x0022007c
     53c:	0000006c 	andeq	r0, r0, ip, rrx
     540:	00000078 	andeq	r0, r0, r8, ror r0
     544:	01f3000c 	mvnseq	r0, ip
     548:	007c2050 	rsbseq	r2, ip, r0, asr r0
     54c:	5101f322 	tstpl	r1, r2, lsr #6
     550:	00789f22 	rsbseq	r9, r8, r2, lsr #30
     554:	00840000 	addeq	r0, r4, r0
     558:	000b0000 	andeq	r0, fp, r0
     55c:	f35101f3 	vbsl	q8, <illegal reg q8.5>, <illegal reg q9.5>
     560:	7c1c5001 	ldcvc	0, cr5, [ip], {1}
     564:	849f2200 	ldrhi	r2, [pc], #512	; 56c <_back_addr-0x14ffa94>
     568:	8c000000 	stchi	0, cr0, [r0], {-0}
     56c:	0c000000 	stceq	0, cr0, [r0], {-0}
     570:	5001f300 	andpl	pc, r1, r0, lsl #6
     574:	22007c20 	andcs	r7, r0, #32, 24	; 0x2000
     578:	225101f3 	subscs	r0, r1, #-1073741764	; 0xc000003c
     57c:	00008c9f 	muleq	r0, pc, ip	; <UNPREDICTABLE>
     580:	00009400 	andeq	r9, r0, r0, lsl #8
     584:	51000100 	mrspl	r0, (UNDEF: 16)
	...
     590:	00000040 	andeq	r0, r0, r0, asr #32
     594:	00000050 	andeq	r0, r0, r0, asr r0
     598:	9f300002 	svcls	0x00300002
     59c:	00000050 	andeq	r0, r0, r0, asr r0
     5a0:	00000054 	andeq	r0, r0, r4, asr r0
     5a4:	00730006 	rsbseq	r0, r3, r6
     5a8:	9f1c0070 	svcls	0x001c0070
     5ac:	00000054 	andeq	r0, r0, r4, asr r0
     5b0:	00000068 	andeq	r0, r0, r8, rrx
     5b4:	68500001 	ldmdavs	r0, {r0}^
     5b8:	70000000 	andvc	r0, r0, r0
     5bc:	02000000 	andeq	r0, r0, #0
     5c0:	709f3000 	addsvc	r3, pc, r0
     5c4:	74000000 	strvc	r0, [r0], #-0
     5c8:	06000000 	streq	r0, [r0], -r0
     5cc:	7e007300 	cdpvc	3, 0, cr7, cr0, cr0, {0}
     5d0:	749f1c00 	ldrvc	r1, [pc], #3072	; 5d8 <_back_addr-0x14ffa28>
     5d4:	78000000 	stmdavc	r0, {}	; <UNPREDICTABLE>
     5d8:	01000000 	mrseq	r0, (UNDEF: 0)
     5dc:	00785300 	rsbseq	r5, r8, r0, lsl #6
     5e0:	00840000 	addeq	r0, r4, r0
     5e4:	00020000 	andeq	r0, r2, r0
     5e8:	00849f30 	addeq	r9, r4, r0, lsr pc
     5ec:	00880000 	addeq	r0, r8, r0
     5f0:	00010000 	andeq	r0, r1, r0
     5f4:	00008853 	andeq	r8, r0, r3, asr r8
     5f8:	00008c00 	andeq	r8, r0, r0, lsl #24
     5fc:	50000100 	andpl	r0, r0, r0, lsl #2
     600:	0000008c 	andeq	r0, r0, ip, lsl #1
     604:	00000090 	muleq	r0, r0, r0
     608:	9f300002 	svcls	0x00300002
     60c:	00000090 	muleq	r0, r0, r0
     610:	00000094 	muleq	r0, r4, r0
     614:	00500001 	subseq	r0, r0, r1
     618:	00000000 	andeq	r0, r0, r0
     61c:	94000000 	strls	r0, [r0], #-0
     620:	30000000 	andcc	r0, r0, r0
     624:	03000001 	movweq	r0, #1
     628:	9fff0900 	svcls	0x00ff0900
     62c:	00000130 	andeq	r0, r0, r0, lsr r1
     630:	00000133 	andeq	r0, r0, r3, lsr r1
     634:	33500001 	cmpcc	r0, #1
     638:	40000001 	andmi	r0, r0, r1
     63c:	01000001 	tsteq	r0, r1
     640:	014c5600 	cmpeq	ip, r0, lsl #12
     644:	01500000 	cmpeq	r0, r0
     648:	00010000 	andeq	r0, r1, r0
     64c:	0001a056 	andeq	sl, r1, r6, asr r0
     650:	0001a300 	andeq	sl, r1, r0, lsl #6
     654:	50000100 	andpl	r0, r0, r0, lsl #2
     658:	000001a3 	andeq	r0, r0, r3, lsr #3
     65c:	000001c4 	andeq	r0, r0, r4, asr #3
     660:	14550001 	ldrbne	r0, [r5], #-1
     664:	17000002 	strne	r0, [r0, -r2]
     668:	01000002 	tsteq	r0, r2
     66c:	02175000 	andseq	r5, r7, #0
     670:	02280000 	eoreq	r0, r8, #0
     674:	00010000 	andeq	r0, r1, r0
     678:	00022855 	andeq	r2, r2, r5, asr r8
     67c:	00024400 	andeq	r4, r2, r0, lsl #8
     680:	09000300 	stmdbeq	r0, {r8, r9}
     684:	02509fff 	subseq	r9, r0, #1020	; 0x3fc
     688:	02540000 	subseq	r0, r4, #0
     68c:	00020000 	andeq	r0, r2, r0
     690:	00009f30 	andeq	r9, r0, r0, lsr pc
     694:	00000000 	andeq	r0, r0, r0
     698:	02640000 	rsbeq	r0, r4, #0
     69c:	02870000 	addeq	r0, r7, #0
     6a0:	00010000 	andeq	r0, r1, r0
     6a4:	00028750 	andeq	r8, r2, r0, asr r7
     6a8:	0002b400 	andeq	fp, r2, r0, lsl #8
     6ac:	f3000400 	vshl.u8	d0, d0, d0
     6b0:	009f5001 	addseq	r5, pc, r1
     6b4:	00000000 	andeq	r0, r0, r0
     6b8:	64000000 	strvs	r0, [r0], #-0
     6bc:	87000002 	strhi	r0, [r0, -r2]
     6c0:	01000002 	tsteq	r0, r2
     6c4:	02875100 	addeq	r5, r7, #0, 2
     6c8:	02b40000 	adcseq	r0, r4, #0
     6cc:	00040000 	andeq	r0, r4, r0
     6d0:	9f5101f3 	svcls	0x005101f3
	...
     6dc:	00000264 	andeq	r0, r0, r4, ror #4
     6e0:	00000294 	muleq	r0, r4, r2
     6e4:	ff090003 			; <UNDEFINED> instruction: 0xff090003
     6e8:	0002949f 	muleq	r2, pc, r4	; <UNPREDICTABLE>
     6ec:	00029c00 	andeq	r9, r2, r0, lsl #24
     6f0:	50000100 	andpl	r0, r0, r0, lsl #2
	...
     700:	00000034 	andeq	r0, r0, r4, lsr r0
     704:	34500001 	ldrbcc	r0, [r0], #-1
     708:	a8000000 	stmdage	r0, {}	; <UNPREDICTABLE>
     70c:	02000001 	andeq	r0, r0, #1
     710:	a8007d00 	stmdage	r0, {r8, sl, fp, ip, sp, lr}
     714:	b4000001 	strlt	r0, [r0], #-1
     718:	01000001 	tsteq	r0, r1
     71c:	01b45300 			; <UNDEFINED> instruction: 0x01b45300
     720:	01bc0000 			; <UNDEFINED> instruction: 0x01bc0000
     724:	00020000 	andeq	r0, r2, r0
     728:	01bc007d 			; <UNDEFINED> instruction: 0x01bc007d
     72c:	01c00000 	biceq	r0, r0, r0
     730:	00030000 	andeq	r0, r3, r0
     734:	c07f8091 			; <UNDEFINED> instruction: 0xc07f8091
     738:	d0000001 	andle	r0, r0, r1
     73c:	02000001 	andeq	r0, r0, #1
     740:	d0007d00 	andle	r7, r0, r0, lsl #26
     744:	dc000001 	stcle	0, cr0, [r0], {1}
     748:	01000001 	tsteq	r0, r1
     74c:	00005300 	andeq	r5, r0, r0, lsl #6
	...
     758:	00340000 	eorseq	r0, r4, r0
     75c:	00010000 	andeq	r0, r1, r0
     760:	00003451 	andeq	r3, r0, r1, asr r4
     764:	00008800 	andeq	r8, r0, r0, lsl #16
     768:	91000300 	mrsls	r0, LR_irq
     76c:	00887f84 	addeq	r7, r8, r4, lsl #31
     770:	01680000 	cmneq	r8, r0
     774:	00010000 	andeq	r0, r1, r0
     778:	0001ac56 	andeq	sl, r1, r6, asr ip
     77c:	0001c000 	andeq	ip, r1, r0
     780:	91000300 	mrsls	r0, LR_irq
     784:	00007f84 	andeq	r7, r0, r4, lsl #31
	...
     790:	001c0000 	andseq	r0, ip, r0
     794:	00010000 	andeq	r0, r1, r0
     798:	00001c52 	andeq	r1, r0, r2, asr ip
     79c:	0001dc00 	andeq	sp, r1, r0, lsl #24
     7a0:	f3000400 	vshl.u8	d0, d0, d0
     7a4:	009f5201 	addseq	r5, pc, r1, lsl #4
	...
     7b0:	40000000 	andmi	r0, r0, r0
     7b4:	01000000 	mrseq	r0, (UNDEF: 0)
     7b8:	00405300 	subeq	r5, r0, r0, lsl #6
     7bc:	01dc0000 	bicseq	r0, ip, r0
     7c0:	00010000 	andeq	r0, r1, r0
     7c4:	0000005b 	andeq	r0, r0, fp, asr r0
	...
     7d0:	00003400 	andeq	r3, r0, r0, lsl #8
     7d4:	91000200 	mrsls	r0, R8_usr
     7d8:	00003400 	andeq	r3, r0, r0, lsl #8
     7dc:	00008800 	andeq	r8, r0, r0, lsl #16
     7e0:	5a000100 	bpl	be8 <_back_addr-0x14ff418>
     7e4:	000001a8 	andeq	r0, r0, r8, lsr #3
     7e8:	000001c0 	andeq	r0, r0, r0, asr #3
     7ec:	d05a0001 	subsle	r0, sl, r1
     7f0:	dc000001 	stcle	0, cr0, [r0], {1}
     7f4:	01000001 	tsteq	r0, r1
     7f8:	00005a00 	andeq	r5, r0, r0, lsl #20
	...
     804:	00280000 	eoreq	r0, r8, r0
     808:	00020000 	andeq	r0, r2, r0
     80c:	00280891 	mlaeq	r8, r1, r8, r0
     810:	00300000 	eorseq	r0, r0, r0
     814:	00010000 	andeq	r0, r1, r0
     818:	00003057 	andeq	r3, r0, r7, asr r0
     81c:	00003400 	andeq	r3, r0, r0, lsl #8
     820:	08004700 	stmdaeq	r0, {r8, r9, sl, lr}
     824:	06009140 	streq	r9, [r0], -r0, asr #2
     828:	4b400072 	blmi	10009f8 <_back_addr-0x4ff608>
     82c:	400c2224 	andmi	r2, ip, r4, lsr #4
     830:	2b800000 	blcs	fe000838 <__bss_end__+0xfcaeccf8>
     834:	16000128 	strne	r0, [r0], -r8, lsr #2
     838:	7325f713 	msrvc	CPSR_sc, #4980736	; 0x4c0000
     83c:	1b25f700 	blne	97e444 <_back_addr-0xb81bbc>
     840:	400800f7 	strdmi	r0, [r8], -r7
     844:	72060091 	andvc	r0, r6, #145	; 0x91
     848:	244b4000 	strbcs	r4, [fp], #-0
     84c:	00400c22 	subeq	r0, r0, r2, lsr #24
     850:	282b8000 	stmdacs	fp!, {pc}
     854:	13160001 	tstne	r6, #1
     858:	4b400072 	blmi	1000a28 <_back_addr-0x4ff5d8>
     85c:	400c2224 	andmi	r2, ip, r4, lsr #4
     860:	2b800000 	blcs	fe000868 <__bss_end__+0xfcaecd28>
     864:	16000128 	strne	r0, [r0], -r8, lsr #2
     868:	00349f13 	eorseq	r9, r4, r3, lsl pc
     86c:	01dc0000 	bicseq	r0, ip, r0
     870:	00010000 	andeq	r0, r1, r0
     874:	00000057 	andeq	r0, r0, r7, asr r0
     878:	00000000 	andeq	r0, r0, r0
     87c:	00005800 	andeq	r5, r0, r0, lsl #16
     880:	00008800 	andeq	r8, r0, r0, lsl #16
     884:	30000200 	andcc	r0, r0, r0, lsl #4
     888:	0000889f 	muleq	r0, pc, r8	; <UNPREDICTABLE>
     88c:	00008c00 	andeq	r8, r0, r0, lsl #24
     890:	55000100 	strpl	r0, [r0, #-256]	; 0x100
     894:	0000008c 	andeq	r0, r0, ip, lsl #1
     898:	00000098 	muleq	r0, r8, r0
     89c:	7f750003 	svcvc	0x00750003
     8a0:	0000989f 	muleq	r0, pc, r8	; <UNPREDICTABLE>
     8a4:	0000ec00 	andeq	lr, r0, r0, lsl #24
     8a8:	55000100 	strpl	r0, [r0, #-256]	; 0x100
     8ac:	000000ec 	andeq	r0, r0, ip, ror #1
     8b0:	000000f8 	strdeq	r0, [r0], -r8
     8b4:	7f750003 	svcvc	0x00750003
     8b8:	0000f89f 	muleq	r0, pc, r8	; <UNPREDICTABLE>
     8bc:	00011800 	andeq	r1, r1, r0, lsl #16
     8c0:	55000100 	strpl	r0, [r0, #-256]	; 0x100
     8c4:	00000118 	andeq	r0, r0, r8, lsl r1
     8c8:	00000138 	andeq	r0, r0, r8, lsr r1
     8cc:	9f300002 	svcls	0x00300002
     8d0:	00000138 	andeq	r0, r0, r8, lsr r1
     8d4:	00000168 	andeq	r0, r0, r8, ror #2
     8d8:	00720008 	rsbseq	r0, r2, r8
     8dc:	231c7c91 	tstcs	ip, #37120	; 0x9100
     8e0:	00009f71 	andeq	r9, r0, r1, ror pc
     8e4:	00000000 	andeq	r0, r0, r0
     8e8:	00880000 	addeq	r0, r8, r0
     8ec:	008f0000 	addeq	r0, pc, r0
     8f0:	00010000 	andeq	r0, r1, r0
     8f4:	0000cc52 	andeq	ip, r0, r2, asr ip
     8f8:	0000ef00 	andeq	lr, r0, r0, lsl #30
     8fc:	52000100 	andpl	r0, r0, #0, 2
	...
     908:	00000204 	andeq	r0, r0, r4, lsl #4
     90c:	0000020c 	andeq	r0, r0, ip, lsl #4
     910:	0c500001 	mrrceq	0, 0, r0, r0, cr1	; <UNPREDICTABLE>
     914:	17000002 	strne	r0, [r0, -r2]
     918:	01000002 	tsteq	r0, r2
     91c:	024c5100 	subeq	r5, ip, #0, 2
     920:	02540000 	subseq	r0, r4, #0
     924:	00010000 	andeq	r0, r1, r0
     928:	00025450 	andeq	r5, r2, r0, asr r4
     92c:	00025f00 	andeq	r5, r2, r0, lsl #30
     930:	51000100 	mrspl	r0, (UNDEF: 16)
	...
     93c:	00000218 	andeq	r0, r0, r8, lsl r2
     940:	0000021c 	andeq	r0, r0, ip, lsl r2
     944:	00740009 	rsbseq	r0, r4, r9
     948:	51357f03 	teqpl	r5, r3, lsl #30
     94c:	1c9f1c01 	ldcne	12, cr1, [pc], {1}
     950:	2c000002 	stccs	0, cr0, [r0], {2}
     954:	09000002 	stmdbeq	r0, {r1}
     958:	03007400 	movweq	r7, #1024	; 0x400
     95c:	01513580 	cmpeq	r1, r0, lsl #11
     960:	022c9f1c 	eoreq	r9, ip, #28, 30	; 0x70
     964:	02480000 	subeq	r0, r8, #0
     968:	00090000 	andeq	r0, r9, r0
     96c:	7f030074 	svcvc	0x00030074
     970:	1c015135 	stfnes	f5, [r1], {53}	; 0x35
     974:	0002609f 	muleq	r2, pc, r0	; <UNPREDICTABLE>
     978:	00026400 	andeq	r6, r2, r0, lsl #8
     97c:	75000900 	strvc	r0, [r0, #-2304]	; 0x900
     980:	356f0300 	strbcc	r0, [pc, #-768]!	; 688 <_back_addr-0x14ff978>
     984:	9f1c0151 	svcls	0x001c0151
     988:	00000264 	andeq	r0, r0, r4, ror #4
     98c:	00000274 	andeq	r0, r0, r4, ror r2
     990:	00750009 	rsbseq	r0, r5, r9
     994:	51357003 	teqpl	r5, r3
     998:	749f1c01 	ldrvc	r1, [pc], #3073	; 9a0 <_back_addr-0x14ff660>
     99c:	8c000002 	stchi	0, cr0, [r0], {2}
     9a0:	09000002 	stmdbeq	r0, {r1}
     9a4:	03007500 	movweq	r7, #1280	; 0x500
     9a8:	0151356f 	cmpeq	r1, pc, ror #10
     9ac:	00009f1c 	andeq	r9, r0, ip, lsl pc
     9b0:	00000000 	andeq	r0, r0, r0
     9b4:	028c0000 	addeq	r0, ip, #0
     9b8:	02940000 	addseq	r0, r4, #0
     9bc:	00010000 	andeq	r0, r1, r0
     9c0:	00029450 	andeq	r9, r2, r0, asr r4
     9c4:	0002bc00 	andeq	fp, r2, r0, lsl #24
     9c8:	f3000400 	vshl.u8	d0, d0, d0
     9cc:	009f5001 	addseq	r5, pc, r1
     9d0:	00000000 	andeq	r0, r0, r0
     9d4:	8c000000 	stchi	0, cr0, [r0], {-0}
     9d8:	94000002 	strls	r0, [r0], #-2
     9dc:	02000002 	andeq	r0, r0, #2
     9e0:	949f3000 	ldrls	r3, [pc], #0	; 9e8 <_back_addr-0x14ff618>
     9e4:	9c000002 	stcls	0, cr0, [r0], {2}
     9e8:	01000002 	tsteq	r0, r2
     9ec:	029c5000 	addseq	r5, ip, #0
     9f0:	02bc0000 	adcseq	r0, ip, #0
     9f4:	00060000 	andeq	r0, r6, r0
     9f8:	335001f3 	cmpcc	r0, #-1073741764	; 0xc000003c
     9fc:	00009f25 	andeq	r9, r0, r5, lsr #30
     a00:	00000000 	andeq	r0, r0, r0
     a04:	028c0000 	addeq	r0, ip, #0
     a08:	02900000 	addseq	r0, r0, #0
     a0c:	00050000 	andeq	r0, r5, r0
     a10:	1a370070 	bne	dc0bd8 <_back_addr-0x73f428>
     a14:	0002909f 	muleq	r2, pc, r0	; <UNPREDICTABLE>
     a18:	0002bc00 	andeq	fp, r2, r0, lsl #24
     a1c:	52000100 	andpl	r0, r0, #0, 2
	...
     a28:	0000028c 	andeq	r0, r0, ip, lsl #5
     a2c:	00000294 	muleq	r0, r4, r2
     a30:	9f300002 	svcls	0x00300002
     a34:	00000294 	muleq	r0, r4, r2
     a38:	00000298 	muleq	r0, r8, r2
     a3c:	00700006 	rsbseq	r0, r0, r6
     a40:	9f1afc09 	svcls	0x001afc09
     a44:	00000298 	muleq	r0, r8, r2
     a48:	000002a0 	andeq	r0, r0, r0, lsr #5
     a4c:	a0530001 	subsge	r0, r3, r1
     a50:	a4000002 	strge	r0, [r0], #-2
     a54:	07000002 	streq	r0, [r0, -r2]
     a58:	80807300 	addhi	r7, r0, r0, lsl #6
     a5c:	9f06c080 	svcls	0x0006c080
     a60:	000002a4 	andeq	r0, r0, r4, lsr #5
     a64:	000002ac 	andeq	r0, r0, ip, lsr #5
     a68:	80730007 	rsbshi	r0, r3, r7
     a6c:	06bffaa0 	ldrteq	pc, [pc], r0, lsr #21	; <UNPREDICTABLE>
     a70:	0002ac9f 	muleq	r2, pc, ip	; <UNPREDICTABLE>
     a74:	0002bc00 	andeq	fp, r2, r0, lsl #24
     a78:	f3000900 	vmls.i8	d0, d0, d0
     a7c:	25335001 	ldrcs	r5, [r3, #-1]!
     a80:	9f1afc09 	svcls	0x001afc09
	...
     a8c:	0000028c 	andeq	r0, r0, ip, lsl #5
     a90:	00000294 	muleq	r0, r4, r2
     a94:	9f300002 	svcls	0x00300002
     a98:	00000294 	muleq	r0, r4, r2
     a9c:	0000029c 	muleq	r0, ip, r2
     aa0:	00700005 	rsbseq	r0, r0, r5
     aa4:	9c9f1a33 	vldmials	pc, {s2-s52}
     aa8:	a8000002 	stmdage	r0, {r1}
     aac:	01000002 	tsteq	r0, r2
     ab0:	02a85000 	adceq	r5, r8, #0
     ab4:	02bc0000 	adcseq	r0, ip, #0
     ab8:	00080000 	andeq	r0, r8, r0
     abc:	335001f3 	cmpcc	r0, #-1073741764	; 0xc000003c
     ac0:	9f1a3325 	svcls	0x001a3325
	...
     acc:	0000028c 	andeq	r0, r0, ip, lsl #5
     ad0:	000002ac 	andeq	r0, r0, ip, lsr #5
     ad4:	9f300002 	svcls	0x00300002
	...
     ae0:	00000294 	muleq	r0, r4, r2
     ae4:	0000029c 	muleq	r0, ip, r2
     ae8:	0070000c 	rsbseq	r0, r0, ip
     aec:	0c1afc09 	ldceq	12, cr15, [sl], {9}
     af0:	67fe9000 	ldrbvs	r9, [lr, r0]!
     af4:	029c9f1c 	addseq	r9, ip, #28, 30	; 0x70
     af8:	02bc0000 	adcseq	r0, ip, #0
     afc:	000f0000 	andeq	r0, pc, r0
     b00:	335001f3 	cmpcc	r0, #-1073741764	; 0xc000003c
     b04:	1afc0925 	bne	fff02fa0 <__bss_end__+0xfe9ef460>
     b08:	fe90000c 	cdp2	0, 9, cr0, cr0, cr12, {0}
     b0c:	009f1c67 	addseq	r1, pc, r7, ror #24
     b10:	00000000 	andeq	r0, r0, r0
     b14:	bc000000 	stclt	0, cr0, [r0], {-0}
     b18:	c8000002 	stmdagt	r0, {r1}
     b1c:	02000002 	andeq	r0, r0, #2
     b20:	c89f3000 	ldmgt	pc, {ip, sp}	; <UNPREDICTABLE>
     b24:	d0000002 	andle	r0, r0, r2
     b28:	01000002 	tsteq	r0, r2
     b2c:	00005000 	andeq	r5, r0, r0
     b30:	00000000 	andeq	r0, r0, r0
     b34:	02e80000 	rsceq	r0, r8, #0
     b38:	02f80000 	rscseq	r0, r8, #0
     b3c:	00010000 	andeq	r0, r1, r0
     b40:	0002f850 	andeq	pc, r2, r0, asr r8	; <UNPREDICTABLE>
     b44:	00033c00 	andeq	r3, r3, r0, lsl #24
     b48:	f3000400 	vshl.u8	d0, d0, d0
     b4c:	009f5001 	addseq	r5, pc, r1
     b50:	00000000 	andeq	r0, r0, r0
     b54:	e8000000 	stmda	r0, {}	; <UNPREDICTABLE>
     b58:	f8000002 			; <UNDEFINED> instruction: 0xf8000002
     b5c:	09000002 	stmdbeq	r0, {r1}
     b60:	33007000 	movwcc	r7, #0
     b64:	03ff0a26 	mvnseq	r0, #155648	; 0x26000
     b68:	02f89f1a 	rscseq	r9, r8, #26, 30	; 0x68
     b6c:	033c0000 	teqeq	ip, #0
     b70:	000a0000 	andeq	r0, sl, r0
     b74:	335001f3 	cmpcc	r0, #-1073741764	; 0xc000003c
     b78:	03ff0a26 	mvnseq	r0, #155648	; 0x26000
     b7c:	00009f1a 	andeq	r9, r0, sl, lsl pc
     b80:	00000000 	andeq	r0, r0, r0
     b84:	02e80000 	rsceq	r0, r8, #0
     b88:	02ec0000 	rsceq	r0, ip, #0
     b8c:	00050000 	andeq	r0, r5, r0
     b90:	1a370070 	bne	dc0d58 <_back_addr-0x73f2a8>
     b94:	0002ec9f 	muleq	r2, pc, ip	; <UNPREDICTABLE>
     b98:	00030800 	andeq	r0, r3, r0, lsl #16
     b9c:	52000100 	andpl	r0, r0, #0, 2
     ba0:	00000308 	andeq	r0, r0, r8, lsl #6
     ba4:	0000033c 	andeq	r0, r0, ip, lsr r3
     ba8:	01f30006 	mvnseq	r0, r6
     bac:	9f1a3750 	svcls	0x001a3750
	...
     bb8:	00000308 	andeq	r0, r0, r8, lsl #6
     bbc:	0000030c 	andeq	r0, r0, ip, lsl #6
     bc0:	0c520001 	mrrceq	0, 0, r0, r2, cr1
     bc4:	30000003 	andcc	r0, r0, r3
     bc8:	03000003 	movweq	r0, #3
     bcc:	08807100 	stmeq	r0, {r8, ip, sp, lr}
     bd0:	00000330 	andeq	r0, r0, r0, lsr r3
     bd4:	0000033c 	andeq	r0, r0, ip, lsr r3
     bd8:	01f30018 	mvnseq	r0, r8, lsl r0
     bdc:	3a1a3750 	bcc	68e924 <_back_addr-0xe716dc>
     be0:	5001f324 	andpl	pc, r1, r4, lsr #6
     be4:	0924f709 	stmdbeq	r4!, {r0, r3, r8, r9, sl, ip, sp, lr, pc}
     be8:	0c2125fa 	cfstr32eq	mvfx2, [r1], #-1000	; 0xfffffc18
     bec:	00c02000 	sbceq	r2, r0, r0
     bf0:	00009f21 	andeq	r9, r0, r1, lsr #30
     bf4:	00000000 	andeq	r0, r0, r0
     bf8:	03240000 	teqeq	r4, #0
     bfc:	03330000 	teqeq	r3, #0
     c00:	00010000 	andeq	r0, r1, r0
     c04:	00033352 	andeq	r3, r3, r2, asr r3
     c08:	00033c00 	andeq	r3, r3, r0, lsl #24
     c0c:	f3001800 	vsub.i8	d1, d0, d0
     c10:	1a375001 	bne	dd4c1c <_back_addr-0x72b3e4>
     c14:	01f3243a 	mvnseq	r2, sl, lsr r4
     c18:	24f70950 	ldrbtcs	r0, [r7], #2384	; 0x950
     c1c:	2125fa09 	msrcs	SP_usr, r9
     c20:	c0e0000c 	rscgt	r0, r0, ip
     c24:	009f2100 	addseq	r2, pc, r0, lsl #2
     c28:	00000000 	andeq	r0, r0, r0
     c2c:	68000000 	stmdavs	r0, {}	; <UNPREDICTABLE>
     c30:	78000003 	stmdavc	r0, {r0, r1}
     c34:	01000003 	tsteq	r0, r3
     c38:	03785000 	cmneq	r8, #0
     c3c:	03d40000 	bicseq	r0, r4, #0
     c40:	00010000 	andeq	r0, r1, r0
     c44:	0003d456 	andeq	sp, r3, r6, asr r4
     c48:	0003d800 	andeq	sp, r3, r0, lsl #16
     c4c:	f3000400 	vshl.u8	d0, d0, d0
     c50:	009f5001 	addseq	r5, pc, r1
     c54:	00000000 	andeq	r0, r0, r0
     c58:	68000000 	stmdavs	r0, {}	; <UNPREDICTABLE>
     c5c:	7f000003 	svcvc	0x00000003
     c60:	01000003 	tsteq	r0, r3
     c64:	037f5100 	cmneq	pc, #0, 2
     c68:	03840000 	orreq	r0, r4, #0
     c6c:	00010000 	andeq	r0, r1, r0
     c70:	00038455 	andeq	r8, r3, r5, asr r4
     c74:	0003d800 	andeq	sp, r3, r0, lsl #16
     c78:	f3000400 	vshl.u8	d0, d0, d0
     c7c:	009f5101 	addseq	r5, pc, r1, lsl #2
     c80:	00000000 	andeq	r0, r0, r0
     c84:	68000000 	stmdavs	r0, {}	; <UNPREDICTABLE>
     c88:	7f000003 	svcvc	0x00000003
     c8c:	01000003 	tsteq	r0, r3
     c90:	037f5200 	cmneq	pc, #0, 4
     c94:	03d40000 	bicseq	r0, r4, #0
     c98:	00010000 	andeq	r0, r1, r0
     c9c:	0003d457 	andeq	sp, r3, r7, asr r4
     ca0:	0003d800 	andeq	sp, r3, r0, lsl #16
     ca4:	f3000400 	vshl.u8	d0, d0, d0
     ca8:	009f5201 	addseq	r5, pc, r1, lsl #4
     cac:	00000000 	andeq	r0, r0, r0
     cb0:	80000000 	andhi	r0, r0, r0
     cb4:	94000003 	strls	r0, [r0], #-3
     cb8:	02000003 	andeq	r0, r0, #3
     cbc:	949f3000 	ldrls	r3, [pc], #0	; cc4 <_back_addr-0x14ff33c>
     cc0:	c0000003 	andgt	r0, r0, r3
     cc4:	01000003 	tsteq	r0, r3
     cc8:	03c05400 	biceq	r5, r0, #0, 8
     ccc:	03c40000 	biceq	r0, r4, #0
     cd0:	00030000 	andeq	r0, r3, r0
     cd4:	c49f7f74 	ldrgt	r7, [pc], #3956	; cdc <_back_addr-0x14ff324>
     cd8:	d0000003 	andle	r0, r0, r3
     cdc:	01000003 	tsteq	r0, r3
     ce0:	00005400 	andeq	r5, r0, r0, lsl #8
     ce4:	00000000 	andeq	r0, r0, r0
     ce8:	03800000 	orreq	r0, r0, #0
     cec:	03940000 	orrseq	r0, r4, #0
     cf0:	00020000 	andeq	r0, r2, r0
     cf4:	03a09f30 	moveq	r9, #48, 30	; 0xc0
     cf8:	03a80000 			; <UNDEFINED> instruction: 0x03a80000
     cfc:	00010000 	andeq	r0, r1, r0
     d00:	0003cc53 	andeq	ip, r3, r3, asr ip
     d04:	0003d000 	andeq	sp, r3, r0
     d08:	53000100 	movwpl	r0, #256	; 0x100
	...
     d14:	00000368 	andeq	r0, r0, r8, ror #6
     d18:	00000394 	muleq	r0, r4, r3
     d1c:	9f300002 	svcls	0x00300002
     d20:	000003a4 	andeq	r0, r0, r4, lsr #7
     d24:	000003a8 	andeq	r0, r0, r8, lsr #7
     d28:	00770012 	rsbseq	r0, r7, r2, lsl r0
     d2c:	94220073 	strtls	r0, [r2], #-115	; 0x73
     d30:	1aff0801 	bne	fffc2d3c <__bss_end__+0xfeaaf1fc>
     d34:	1a370074 	bne	dc0f0c <_back_addr-0x73f0f4>
     d38:	9f1a3126 	svcls	0x001a3126
	...
     d44:	00000368 	andeq	r0, r0, r8, ror #6
     d48:	00000394 	muleq	r0, r4, r3
     d4c:	9f300002 	svcls	0x00300002
     d50:	00000394 	muleq	r0, r4, r3
     d54:	000003a4 	andeq	r0, r0, r4, lsr #7
     d58:	a4500001 	ldrbge	r0, [r0], #-1
     d5c:	ac000003 	stcge	0, cr0, [r0], {3}
     d60:	05000003 	streq	r0, [r0, #-3]
     d64:	37007400 	strcc	r7, [r0, -r0, lsl #8]
     d68:	03ac9f1a 			; <UNDEFINED> instruction: 0x03ac9f1a
     d6c:	03bc0000 			; <UNDEFINED> instruction: 0x03bc0000
     d70:	00010000 	andeq	r0, r1, r0
     d74:	0003bc50 	andeq	fp, r3, r0, asr ip
     d78:	0003c000 	andeq	ip, r3, r0
     d7c:	74000500 	strvc	r0, [r0], #-1280	; 0x500
     d80:	9f1a3700 	svcls	0x001a3700
     d84:	000003c0 	andeq	r0, r0, r0, asr #7
     d88:	000003d0 	ldrdeq	r0, [r0], -r0	; <UNPREDICTABLE>
     d8c:	7f740005 	svcvc	0x00740005
     d90:	009f1a37 	addseq	r1, pc, r7, lsr sl	; <UNPREDICTABLE>
     d94:	00000000 	andeq	r0, r0, r0
     d98:	f8000000 			; <UNDEFINED> instruction: 0xf8000000
     d9c:	24000003 	strcs	r0, [r0], #-3
     da0:	01000004 	tsteq	r0, r4
     da4:	04245000 	strteq	r5, [r4], #-0
     da8:	04280000 	strteq	r0, [r8], #-0
     dac:	00040000 	andeq	r0, r4, r0
     db0:	9f20807e 	svcls	0x0020807e
     db4:	00000428 	andeq	r0, r0, r8, lsr #8
     db8:	0000042b 	andeq	r0, r0, fp, lsr #8
     dbc:	2b500001 	blcs	1400dc8 <_back_addr-0xff238>
     dc0:	34000004 	strcc	r0, [r0], #-4
     dc4:	04000004 	streq	r0, [r0], #-4
     dc8:	5001f300 	andpl	pc, r1, r0, lsl #6
     dcc:	0000009f 	muleq	r0, pc, r0	; <UNPREDICTABLE>
     dd0:	00000000 	andeq	r0, r0, r0
     dd4:	0003f800 	andeq	pc, r3, r0, lsl #16
     dd8:	00042b00 	andeq	r2, r4, r0, lsl #22
     ddc:	51000100 	mrspl	r0, (UNDEF: 16)
     de0:	0000042b 	andeq	r0, r0, fp, lsr #8
     de4:	00000434 	andeq	r0, r0, r4, lsr r4
     de8:	00540001 	subseq	r0, r4, r1
     dec:	00000000 	andeq	r0, r0, r0
     df0:	f8000000 			; <UNDEFINED> instruction: 0xf8000000
     df4:	2b000003 	blcs	e08 <_back_addr-0x14ff1f8>
     df8:	01000004 	tsteq	r0, r4
     dfc:	042b5200 	strteq	r5, [fp], #-512	; 0x200
     e00:	04340000 	ldrteq	r0, [r4], #-0
     e04:	00040000 	andeq	r0, r4, r0
     e08:	9f5201f3 	svcls	0x005201f3
	...
     e14:	00000434 	andeq	r0, r0, r4, lsr r4
     e18:	00000458 	andeq	r0, r0, r8, asr r4
     e1c:	58500001 	ldmdapl	r0, {r0}^
     e20:	64000004 	strvs	r0, [r0], #-4
     e24:	04000004 	streq	r0, [r0], #-4
     e28:	5001f300 	andpl	pc, r1, r0, lsl #6
     e2c:	0004649f 	muleq	r4, pc, r4	; <UNPREDICTABLE>
     e30:	00047000 	andeq	r7, r4, r0
     e34:	50000100 	andpl	r0, r0, r0, lsl #2
     e38:	00000470 	andeq	r0, r0, r0, ror r4
     e3c:	0000047c 	andeq	r0, r0, ip, ror r4
     e40:	01f30004 	mvnseq	r0, r4
     e44:	047c9f50 	ldrbteq	r9, [ip], #-3920	; 0xf50
     e48:	04880000 	streq	r0, [r8], #0
     e4c:	00010000 	andeq	r0, r1, r0
     e50:	00048850 	andeq	r8, r4, r0, asr r8
     e54:	0004a000 	andeq	sl, r4, r0
     e58:	f3000400 	vshl.u8	d0, d0, d0
     e5c:	009f5001 	addseq	r5, pc, r1
	...
     e68:	18000006 	stmdane	r0, {r1, r2}
     e6c:	01000006 	tsteq	r0, r6
     e70:	06185000 	ldreq	r5, [r8], -r0
     e74:	06380000 	ldrteq	r0, [r8], -r0
     e78:	00040000 	andeq	r0, r4, r0
     e7c:	9f5001f3 	svcls	0x005001f3
     e80:	00000638 	andeq	r0, r0, r8, lsr r6
     e84:	0000063c 	andeq	r0, r0, ip, lsr r6
     e88:	3c500001 	mrrccc	0, 0, r0, r0, cr1	; <UNPREDICTABLE>
     e8c:	6c000006 	stcvs	0, cr0, [r0], {6}
     e90:	04000006 	streq	r0, [r0], #-6
     e94:	5001f300 	andpl	pc, r1, r0, lsl #6
     e98:	0000009f 	muleq	r0, pc, r0	; <UNPREDICTABLE>
     e9c:	00000000 	andeq	r0, r0, r0
     ea0:	00061400 	andeq	r1, r6, r0, lsl #8
     ea4:	00063800 	andeq	r3, r6, r0, lsl #16
     ea8:	54000100 	strpl	r0, [r0], #-256	; 0x100
     eac:	0000064c 	andeq	r0, r0, ip, asr #12
     eb0:	0000066c 	andeq	r0, r0, ip, ror #12
     eb4:	00540001 	subseq	r0, r4, r1
     eb8:	00000000 	andeq	r0, r0, r0
     ebc:	6c000000 	stcvs	0, cr0, [r0], {-0}
     ec0:	84000006 	strhi	r0, [r0], #-6
     ec4:	01000006 	tsteq	r0, r6
     ec8:	06845000 	streq	r5, [r4], r0
     ecc:	06a40000 	strteq	r0, [r4], r0
     ed0:	00040000 	andeq	r0, r4, r0
     ed4:	9f5001f3 	svcls	0x005001f3
     ed8:	000006a4 	andeq	r0, r0, r4, lsr #13
     edc:	000006a8 	andeq	r0, r0, r8, lsr #13
     ee0:	a8500001 	ldmdage	r0, {r0}^
     ee4:	d8000006 	stmdale	r0, {r1, r2}
     ee8:	04000006 	streq	r0, [r0], #-6
     eec:	5001f300 	andpl	pc, r1, r0, lsl #6
     ef0:	0000009f 	muleq	r0, pc, r0	; <UNPREDICTABLE>
     ef4:	00000000 	andeq	r0, r0, r0
     ef8:	00068000 	andeq	r8, r6, r0
     efc:	0006a400 	andeq	sl, r6, r0, lsl #8
     f00:	54000100 	strpl	r0, [r0], #-256	; 0x100
     f04:	000006b8 			; <UNDEFINED> instruction: 0x000006b8
     f08:	000006d8 	ldrdeq	r0, [r0], -r8
     f0c:	00540001 	subseq	r0, r4, r1
     f10:	00000000 	andeq	r0, r0, r0
     f14:	74000000 	strvc	r0, [r0], #-0
     f18:	7c000007 	stcvc	0, cr0, [r0], {7}
     f1c:	01000007 	tsteq	r0, r7
     f20:	077c5000 	ldrbeq	r5, [ip, -r0]!
     f24:	07f40000 	ldrbeq	r0, [r4, r0]!
     f28:	00040000 	andeq	r0, r4, r0
     f2c:	9f5001f3 	svcls	0x005001f3
	...
     f38:	00000774 	andeq	r0, r0, r4, ror r7
     f3c:	0000079c 	muleq	r0, ip, r7
     f40:	9c510001 	mrrcls	0, 0, r0, r1, cr1
     f44:	ec000007 	stc	0, cr0, [r0], {7}
     f48:	04000007 	streq	r0, [r0], #-7
     f4c:	5101f300 	mrspl	pc, SP_irq	; <UNPREDICTABLE>
     f50:	0007ec9f 	muleq	r7, pc, ip	; <UNPREDICTABLE>
     f54:	0007f400 	andeq	pc, r7, r0, lsl #8
     f58:	51000100 	mrspl	r0, (UNDEF: 16)
	...
     f64:	00000774 	andeq	r0, r0, r4, ror r7
     f68:	00000794 	muleq	r0, r4, r7
     f6c:	94520001 	ldrbls	r0, [r2], #-1
     f70:	ec000007 	stc	0, cr0, [r0], {7}
     f74:	04000007 	streq	r0, [r0], #-7
     f78:	5201f300 	andpl	pc, r1, #0, 6
     f7c:	0007ec9f 	muleq	r7, pc, ip	; <UNPREDICTABLE>
     f80:	0007f400 	andeq	pc, r7, r0, lsl #8
     f84:	52000100 	andpl	r0, r0, #0, 2
	...
     f90:	00000774 	andeq	r0, r0, r4, ror r7
     f94:	0000079c 	muleq	r0, ip, r7
     f98:	9f300002 	svcls	0x00300002
     f9c:	000007ec 	andeq	r0, r0, ip, ror #15
     fa0:	000007f4 	strdeq	r0, [r0], -r4
     fa4:	9f300002 	svcls	0x00300002
	...
     fb0:	0000077c 	andeq	r0, r0, ip, ror r7
     fb4:	00000784 	andeq	r0, r0, r4, lsl #15
     fb8:	80700007 	rsbshi	r0, r0, r7
     fbc:	79c085e0 	stmibvc	r0, {r5, r6, r7, r8, sl, pc}^
     fc0:	0007849f 	muleq	r7, pc, r4	; <UNPREDICTABLE>
     fc4:	00079800 	andeq	r9, r7, r0, lsl #16
     fc8:	70000700 	andvc	r0, r0, r0, lsl #14
     fcc:	8085e080 	addhi	lr, r5, r0, lsl #1
     fd0:	07989f7a 			; <UNDEFINED> instruction: 0x07989f7a
     fd4:	079c0000 	ldreq	r0, [ip, r0]
     fd8:	00070000 	andeq	r0, r7, r0
     fdc:	80808070 	addhi	r8, r0, r0, ror r0
     fe0:	9c9f7a80 	vldmials	pc, {s14-s141}
     fe4:	ec000007 	stc	0, cr0, [r0], {7}
     fe8:	0d000007 	stceq	0, cr0, [r0, #-28]	; 0xffffffe4
     fec:	5001f300 	andpl	pc, r1, r0, lsl #6
     ff0:	0c1afc09 	ldceq	12, cr15, [sl], {9}
     ff4:	67fe9000 	ldrbvs	r9, [lr, r0]!
     ff8:	07ec9f1c 			; <UNDEFINED> instruction: 0x07ec9f1c
     ffc:	07f00000 	ldrbeq	r0, [r0, r0]!
    1000:	00070000 	andeq	r0, r7, r0
    1004:	85e08070 	strbhi	r8, [r0, #112]!	; 0x70
    1008:	f09f79c0 			; <UNDEFINED> instruction: 0xf09f79c0
    100c:	f4000007 	vst4.8	{d0-d3}, [r0], r7
    1010:	0d000007 	stceq	0, cr0, [r0, #-28]	; 0xffffffe4
    1014:	5001f300 	andpl	pc, r1, r0, lsl #6
    1018:	0c1afc09 	ldceq	12, cr15, [sl], {9}
    101c:	67fe9000 	ldrbvs	r9, [lr, r0]!
    1020:	00009f1c 	andeq	r9, r0, ip, lsl pc
    1024:	00000000 	andeq	r0, r0, r0
    1028:	079c0000 	ldreq	r0, [ip, r0]
    102c:	07a40000 	streq	r0, [r4, r0]!
    1030:	00070000 	andeq	r0, r7, r0
    1034:	80808070 	addhi	r8, r0, r0, ror r0
    1038:	a49f7a80 	ldrge	r7, [pc], #2688	; 1040 <_back_addr-0x14fefc0>
    103c:	b0000007 	andlt	r0, r0, r7
    1040:	07000007 	streq	r0, [r0, -r7]
    1044:	fffc7000 			; <UNDEFINED> instruction: 0xfffc7000
    1048:	9f79ffff 	svcls	0x0079ffff
    104c:	000007b0 			; <UNDEFINED> instruction: 0x000007b0
    1050:	000007c4 	andeq	r0, r0, r4, asr #15
    1054:	80700007 	rsbshi	r0, r0, r7
    1058:	7a808080 	bvc	fe021260 <__bss_end__+0xfcb0d720>
    105c:	0007c49f 	muleq	r7, pc, r4	; <UNPREDICTABLE>
    1060:	0007e400 	andeq	lr, r7, r0, lsl #8
    1064:	5e000100 	adfpls	f0, f0, f0
	...
    1070:	000007bc 			; <UNDEFINED> instruction: 0x000007bc
    1074:	000007c4 	andeq	r0, r0, r4, asr #15
    1078:	80700007 	rsbshi	r0, r0, r7
    107c:	7a808080 	bvc	fe021284 <__bss_end__+0xfcb0d744>
    1080:	0007c49f 	muleq	r7, pc, r4	; <UNPREDICTABLE>
    1084:	0007e400 	andeq	lr, r7, r0, lsl #8
    1088:	5e000100 	adfpls	f0, f0, f0
	...
    1094:	000007f4 	strdeq	r0, [r0], -r4
    1098:	000007fc 	strdeq	r0, [r0], -ip
    109c:	fc500001 	mrrc2	0, 0, r0, r0, cr1	; <UNPREDICTABLE>
    10a0:	48000007 	stmdami	r0, {r0, r1, r2}
    10a4:	04000008 	streq	r0, [r0], #-8
    10a8:	5001f300 	andpl	pc, r1, r0, lsl #6
    10ac:	0000009f 	muleq	r0, pc, r0	; <UNPREDICTABLE>
    10b0:	00000000 	andeq	r0, r0, r0
    10b4:	0007f400 	andeq	pc, r7, r0, lsl #8
    10b8:	00080800 	andeq	r0, r8, r0, lsl #16
    10bc:	51000100 	mrspl	r0, (UNDEF: 16)
    10c0:	00000808 	andeq	r0, r0, r8, lsl #16
    10c4:	00000840 	andeq	r0, r0, r0, asr #16
    10c8:	01f30004 	mvnseq	r0, r4
    10cc:	08409f51 	stmdaeq	r0, {r0, r4, r6, r8, r9, sl, fp, ip, pc}^
    10d0:	08480000 	stmdaeq	r8, {}^	; <UNPREDICTABLE>
    10d4:	00010000 	andeq	r0, r1, r0
    10d8:	00000051 	andeq	r0, r0, r1, asr r0
    10dc:	00000000 	andeq	r0, r0, r0
    10e0:	0007f400 	andeq	pc, r7, r0, lsl #8
    10e4:	00080800 	andeq	r0, r8, r0, lsl #16
    10e8:	30000200 	andcc	r0, r0, r0, lsl #4
    10ec:	0008089f 	muleq	r8, pc, r8	; <UNPREDICTABLE>
    10f0:	00084000 	andeq	r4, r8, r0
    10f4:	71000700 	tstvc	r0, r0, lsl #14
    10f8:	5101f300 	mrspl	pc, SP_irq	; <UNPREDICTABLE>
    10fc:	08409f1c 	stmdaeq	r0, {r2, r3, r4, r8, r9, sl, fp, ip, pc}^
    1100:	08480000 	stmdaeq	r8, {}^	; <UNPREDICTABLE>
    1104:	00020000 	andeq	r0, r2, r0
    1108:	00009f30 	andeq	r9, r0, r0, lsr pc
    110c:	00000000 	andeq	r0, r0, r0
    1110:	07f40000 	ldrbeq	r0, [r4, r0]!
    1114:	08080000 	stmdaeq	r8, {}	; <UNPREDICTABLE>
    1118:	00020000 	andeq	r0, r2, r0
    111c:	08409f30 	stmdaeq	r0, {r4, r5, r8, r9, sl, fp, ip, pc}^
    1120:	08480000 	stmdaeq	r8, {}^	; <UNPREDICTABLE>
    1124:	00020000 	andeq	r0, r2, r0
    1128:	00009f30 	andeq	r9, r0, r0, lsr pc
    112c:	00000000 	andeq	r0, r0, r0
    1130:	07f40000 	ldrbeq	r0, [r4, r0]!
    1134:	07fc0000 	ldrbeq	r0, [ip, r0]!
    1138:	00020000 	andeq	r0, r2, r0
    113c:	07fc9f30 			; <UNDEFINED> instruction: 0x07fc9f30
    1140:	08080000 	stmdaeq	r8, {}	; <UNPREDICTABLE>
    1144:	00010000 	andeq	r0, r1, r0
    1148:	00080850 	andeq	r0, r8, r0, asr r8
    114c:	00084000 	andeq	r4, r8, r0
    1150:	f3000700 	vabd.u8	d0, d0, d0
    1154:	fc095001 	stc2	0, cr5, [r9], {1}
    1158:	08409f1a 	stmdaeq	r0, {r1, r3, r4, r8, r9, sl, fp, ip, pc}^
    115c:	08440000 	stmdaeq	r4, {}^	; <UNPREDICTABLE>
    1160:	00010000 	andeq	r0, r1, r0
    1164:	00084450 	andeq	r4, r8, r0, asr r4
    1168:	00084800 	andeq	r4, r8, r0, lsl #16
    116c:	f3000700 	vabd.u8	d0, d0, d0
    1170:	fc095001 	stc2	0, cr5, [r9], {1}
    1174:	00009f1a 	andeq	r9, r0, sl, lsl pc
    1178:	00000000 	andeq	r0, r0, r0
    117c:	08480000 	stmdaeq	r8, {}^	; <UNPREDICTABLE>
    1180:	08700000 	ldmdaeq	r0!, {}^	; <UNPREDICTABLE>
    1184:	00010000 	andeq	r0, r1, r0
    1188:	00087050 	andeq	r7, r8, r0, asr r0
    118c:	00087400 	andeq	r7, r8, r0, lsl #8
    1190:	7e000400 	cfcpysvc	mvf0, mvf0
    1194:	749f2080 	ldrvc	r2, [pc], #128	; 119c <_back_addr-0x14fee64>
    1198:	83000008 	movwhi	r0, #8
    119c:	01000008 	tsteq	r0, r8
    11a0:	08835000 	stmeq	r3, {ip, lr}
    11a4:	088c0000 	stmeq	ip, {}	; <UNPREDICTABLE>
    11a8:	00040000 	andeq	r0, r4, r0
    11ac:	9f5001f3 	svcls	0x005001f3
	...
    11b8:	00000848 	andeq	r0, r0, r8, asr #16
    11bc:	00000880 	andeq	r0, r0, r0, lsl #17
    11c0:	80510001 	subshi	r0, r1, r1
    11c4:	83000008 	movwhi	r0, #8
    11c8:	01000008 	tsteq	r0, r8
    11cc:	08835200 	stmeq	r3, {r9, ip, lr}
    11d0:	088c0000 	stmeq	ip, {}	; <UNPREDICTABLE>
    11d4:	00040000 	andeq	r0, r4, r0
    11d8:	9f5101f3 	svcls	0x005101f3
	...
    11e4:	00000848 	andeq	r0, r0, r8, asr #16
    11e8:	0000087c 	andeq	r0, r0, ip, ror r8
    11ec:	7c520001 	mrrcvc	0, 0, r0, r2, cr1
    11f0:	83000008 	movwhi	r0, #8
    11f4:	01000008 	tsteq	r0, r8
    11f8:	08835300 	stmeq	r3, {r8, r9, ip, lr}
    11fc:	088c0000 	stmeq	ip, {}	; <UNPREDICTABLE>
    1200:	00040000 	andeq	r0, r4, r0
    1204:	9f5201f3 	svcls	0x005201f3
	...
    1210:	00000088 	andeq	r0, r0, r8, lsl #1
    1214:	00000098 	muleq	r0, r8, r0
    1218:	010c0009 	tsteq	ip, r9
    121c:	73000100 	movwvc	r0, #256	; 0x100
    1220:	989f1c00 	ldmls	pc, {sl, fp, ip}	; <UNPREDICTABLE>
    1224:	a4000000 	strge	r0, [r0], #-0
    1228:	07000000 	streq	r0, [r0, -r0]
    122c:	243c4000 	ldrtcs	r4, [ip], #-0
    1230:	9f1c0073 	svcls	0x001c0073
	...
    123c:	000000a4 	andeq	r0, r0, r4, lsr #1
    1240:	000000ef 	andeq	r0, r0, pc, ror #1
    1244:	ef500001 	svc	0x00500001
    1248:	a4000000 	strge	r0, [r0], #-0
    124c:	04000001 	streq	r0, [r0], #-1
    1250:	5001f300 	andpl	pc, r1, r0, lsl #6
    1254:	0001a49f 	muleq	r1, pc, r4	; <UNPREDICTABLE>
    1258:	0001a800 	andeq	sl, r1, r0, lsl #16
    125c:	50000100 	andpl	r0, r0, r0, lsl #2
    1260:	000001a8 	andeq	r0, r0, r8, lsr #3
    1264:	000001ac 	andeq	r0, r0, ip, lsr #3
    1268:	00530001 	subseq	r0, r3, r1
    126c:	00000000 	andeq	r0, r0, r0
    1270:	04000000 	streq	r0, [r0], #-0
    1274:	a4000001 	strge	r0, [r0], #-1
    1278:	02000001 	andeq	r0, r0, #1
    127c:	009f3000 	addseq	r3, pc, r0
    1280:	00000000 	andeq	r0, r0, r0
    1284:	ac000000 	stcge	0, cr0, [r0], {-0}
    1288:	a4000000 	strge	r0, [r0], #-0
    128c:	02000001 	andeq	r0, r0, #1
    1290:	009f3100 	addseq	r3, pc, r0, lsl #2
    1294:	00000000 	andeq	r0, r0, r0
    1298:	ac000000 	stcge	0, cr0, [r0], {-0}
    129c:	a4000000 	strge	r0, [r0], #-0
    12a0:	06000001 	streq	r0, [r0], -r1
    12a4:	34049e00 	strcc	r9, [r4], #-3584	; 0xe00
    12a8:	00980159 	addseq	r0, r8, r9, asr r1
    12ac:	00000000 	andeq	r0, r0, r0
    12b0:	d4000000 	strle	r0, [r0], #-0
    12b4:	a4000000 	strge	r0, [r0], #-0
    12b8:	02000001 	andeq	r0, r0, #1
    12bc:	009f3200 	addseq	r3, pc, r0, lsl #4
    12c0:	00000000 	andeq	r0, r0, r0
    12c4:	d4000000 	strle	r0, [r0], #-0
    12c8:	a4000000 	strge	r0, [r0], #-0
    12cc:	06000001 	streq	r0, [r0], -r1
    12d0:	00049e00 	andeq	r9, r4, r0, lsl #28
    12d4:	00980159 	addseq	r0, r8, r9, asr r1
    12d8:	00000000 	andeq	r0, r0, r0
    12dc:	cc000000 	stcgt	0, cr0, [r0], {-0}
    12e0:	a4000000 	strge	r0, [r0], #-0
    12e4:	03000001 	movweq	r0, #1
    12e8:	9ffe0800 	svcls	0x00fe0800
	...
    12f4:	000000cc 	andeq	r0, r0, ip, asr #1
    12f8:	000001a4 	andeq	r0, r0, r4, lsr #3
    12fc:	049e0006 	ldreq	r0, [lr], #6
    1300:	98015908 	stmdals	r1, {r3, r8, fp, ip, lr}
	...
    130c:	000000dc 	ldrdeq	r0, [r0], -ip
    1310:	000000ef 	andeq	r0, r0, pc, ror #1
    1314:	ef500001 	svc	0x00500001
    1318:	a4000000 	strge	r0, [r0], #-0
    131c:	04000001 	streq	r0, [r0], #-1
    1320:	5001f300 	andpl	pc, r1, r0, lsl #6
    1324:	0000009f 	muleq	r0, pc, r0	; <UNPREDICTABLE>
    1328:	00000000 	andeq	r0, r0, r0
    132c:	0000dc00 	andeq	sp, r0, r0, lsl #24
    1330:	0001a400 	andeq	sl, r1, r0, lsl #8
    1334:	9e000600 	cfmadd32ls	mvax0, mvfx0, mvfx0, mvfx0
    1338:	01590c04 	cmpeq	r9, r4, lsl #24
    133c:	00000098 	muleq	r0, r8, r0
    1340:	00000000 	andeq	r0, r0, r0
    1344:	0000dc00 	andeq	sp, r0, r0, lsl #24
    1348:	0000ef00 	andeq	lr, r0, r0, lsl #30
    134c:	5c000100 	stfpls	f0, [r0], {-0}
    1350:	000000ef 	andeq	r0, r0, pc, ror #1
    1354:	000001a4 	andeq	r0, r0, r4, lsr #3
    1358:	01f30006 	mvnseq	r0, r6
    135c:	9f702350 	svcls	0x00702350
	...
    1368:	000000dc 	ldrdeq	r0, [r0], -ip
    136c:	000001a4 	andeq	r0, r0, r4, lsr #3
    1370:	049e0006 	ldreq	r0, [lr], #6
    1374:	98015910 	stmdals	r1, {r4, r8, fp, ip, lr}
	...
    1380:	000000e4 	andeq	r0, r0, r4, ror #1
    1384:	000000ef 	andeq	r0, r0, pc, ror #1
    1388:	ef500001 	svc	0x00500001
    138c:	a4000000 	strge	r0, [r0], #-0
    1390:	04000001 	streq	r0, [r0], #-1
    1394:	5001f300 	andpl	pc, r1, r0, lsl #6
    1398:	0000009f 	muleq	r0, pc, r0	; <UNPREDICTABLE>
    139c:	00000000 	andeq	r0, r0, r0
    13a0:	0000e400 	andeq	lr, r0, r0, lsl #8
    13a4:	0001a400 	andeq	sl, r1, r0, lsl #8
    13a8:	9e000600 	cfmadd32ls	mvax0, mvfx0, mvfx0, mvfx0
    13ac:	01591404 	cmpeq	r9, r4, lsl #8
    13b0:	00000098 	muleq	r0, r8, r0
    13b4:	00000000 	andeq	r0, r0, r0
    13b8:	0000e400 	andeq	lr, r0, r0, lsl #8
    13bc:	0000ef00 	andeq	lr, r0, r0, lsl #30
    13c0:	52000100 	andpl	r0, r0, #0, 2
    13c4:	000000ef 	andeq	r0, r0, pc, ror #1
    13c8:	000001a4 	andeq	r0, r0, r4, lsr #3
    13cc:	01f30006 	mvnseq	r0, r6
    13d0:	9f382350 	svcls	0x00382350
	...
    13dc:	000000e4 	andeq	r0, r0, r4, ror #1
    13e0:	000001a4 	andeq	r0, r0, r4, lsr #3
    13e4:	049e0006 	ldreq	r0, [lr], #6
    13e8:	98015918 	stmdals	r1, {r3, r4, r8, fp, ip, lr}
	...
    13f4:	000000f8 	strdeq	r0, [r0], -r8
    13f8:	000001a4 	andeq	r0, r0, r4, lsr #3
    13fc:	9f330002 	svcls	0x00330002
	...
    1408:	000000f8 	strdeq	r0, [r0], -r8
    140c:	000001a4 	andeq	r0, r0, r4, lsr #3
    1410:	049e0006 	ldreq	r0, [lr], #6
    1414:	98015900 	stmdals	r1, {r8, fp, ip, lr}
	...
    1420:	00000104 	andeq	r0, r0, r4, lsl #2
    1424:	000001a4 	andeq	r0, r0, r4, lsr #3
    1428:	01f30004 	mvnseq	r0, r4
    142c:	00009f50 	andeq	r9, r0, r0, asr pc
    1430:	00000000 	andeq	r0, r0, r0
    1434:	015c0000 	cmpeq	ip, r0
    1438:	01780000 	cmneq	r8, r0
    143c:	00010000 	andeq	r0, r1, r0
    1440:	00000050 	andeq	r0, r0, r0, asr r0
    1444:	00000000 	andeq	r0, r0, r0
    1448:	00010400 	andeq	r0, r1, r0, lsl #8
    144c:	00011c00 	andeq	r1, r1, r0, lsl #24
    1450:	30000200 	andcc	r0, r0, r0, lsl #4
    1454:	00011c9f 	muleq	r1, pc, ip	; <UNPREDICTABLE>
    1458:	00012000 	andeq	r2, r1, r0
    145c:	40000700 	andmi	r0, r0, r0, lsl #14
    1460:	00742443 	rsbseq	r2, r4, r3, asr #8
    1464:	01209f1c 	teqeq	r0, ip, lsl pc
    1468:	01240000 	teqeq	r4, r0
    146c:	00090000 	andeq	r0, r9, r0
    1470:	7fffff0c 	svcvc	0x00ffff0c
    1474:	1c007400 	cfstrsne	mvf7, [r0], {-0}
    1478:	0001249f 	muleq	r1, pc, r4	; <UNPREDICTABLE>
    147c:	00014400 	andeq	r4, r1, r0, lsl #8
    1480:	40000700 	andmi	r0, r0, r0, lsl #14
    1484:	00742443 	rsbseq	r2, r4, r3, asr #8
    1488:	018c9f1c 	orreq	r9, ip, ip, lsl pc
    148c:	01a40000 			; <UNDEFINED> instruction: 0x01a40000
    1490:	00090000 	andeq	r0, r9, r0
    1494:	7fffff0c 	svcvc	0x00ffff0c
    1498:	1c007400 	cfstrsne	mvf7, [r0], {-0}
    149c:	0000009f 	muleq	r0, pc, r0	; <UNPREDICTABLE>
    14a0:	00000000 	andeq	r0, r0, r0
    14a4:	00010400 	andeq	r0, r1, r0, lsl #8
    14a8:	0001a400 	andeq	sl, r1, r0, lsl #8
    14ac:	9e000600 	cfmadd32ls	mvax0, mvfx0, mvfx0, mvfx0
    14b0:	01590404 	cmpeq	r9, r4, lsl #8
    14b4:	00000098 	muleq	r0, r8, r0
    14b8:	00000000 	andeq	r0, r0, r0
    14bc:	00014400 	andeq	r4, r1, r0, lsl #8
    14c0:	00018c00 	andeq	r8, r1, r0, lsl #24
    14c4:	9e000600 	cfmadd32ls	mvax0, mvfx0, mvfx0, mvfx0
    14c8:	01590404 	cmpeq	r9, r4, lsl #8
    14cc:	00000098 	muleq	r0, r8, r0
    14d0:	00000000 	andeq	r0, r0, r0
    14d4:	00015c00 	andeq	r5, r1, r0, lsl #24
    14d8:	00017800 	andeq	r7, r1, r0, lsl #16
    14dc:	32000200 	andcc	r0, r0, #0, 4
    14e0:	0000009f 	muleq	r0, pc, r0	; <UNPREDICTABLE>
    14e4:	00000000 	andeq	r0, r0, r0
    14e8:	00015c00 	andeq	r5, r1, r0, lsl #24
    14ec:	00017800 	andeq	r7, r1, r0, lsl #16
    14f0:	9e000600 	cfmadd32ls	mvax0, mvfx0, mvfx0, mvfx0
    14f4:	01590004 	cmpeq	r9, r4
    14f8:	00000098 	muleq	r0, r8, r0
    14fc:	00000000 	andeq	r0, r0, r0
    1500:	00017000 	andeq	r7, r1, r0
    1504:	00017800 	andeq	r7, r1, r0, lsl #16
    1508:	36000200 	strcc	r0, [r0], -r0, lsl #4
    150c:	0000009f 	muleq	r0, pc, r0	; <UNPREDICTABLE>
    1510:	00000000 	andeq	r0, r0, r0
    1514:	00017000 	andeq	r7, r1, r0
    1518:	00017800 	andeq	r7, r1, r0, lsl #16
    151c:	9e000600 	cfmadd32ls	mvax0, mvfx0, mvfx0, mvfx0
    1520:	01590404 	cmpeq	r9, r4, lsl #8
    1524:	00000098 	muleq	r0, r8, r0
    1528:	00000000 	andeq	r0, r0, r0
    152c:	00017800 	andeq	r7, r1, r0, lsl #16
    1530:	00018c00 	andeq	r8, r1, r0, lsl #24
    1534:	9e000600 	cfmadd32ls	mvax0, mvfx0, mvfx0, mvfx0
    1538:	01590404 	cmpeq	r9, r4, lsl #8
    153c:	00000098 	muleq	r0, r8, r0
    1540:	00000000 	andeq	r0, r0, r0
    1544:	00018c00 	andeq	r8, r1, r0, lsl #24
    1548:	0001a400 	andeq	sl, r1, r0, lsl #8
    154c:	32000200 	andcc	r0, r0, #0, 4
    1550:	0000009f 	muleq	r0, pc, r0	; <UNPREDICTABLE>
    1554:	00000000 	andeq	r0, r0, r0
    1558:	00018c00 	andeq	r8, r1, r0, lsl #24
    155c:	0001a400 	andeq	sl, r1, r0, lsl #8
    1560:	9e000600 	cfmadd32ls	mvax0, mvfx0, mvfx0, mvfx0
    1564:	01590004 	cmpeq	r9, r4
    1568:	00000098 	muleq	r0, r8, r0
    156c:	00000000 	andeq	r0, r0, r0
    1570:	00019800 	andeq	r9, r1, r0, lsl #16
    1574:	0001a400 	andeq	sl, r1, r0, lsl #8
    1578:	36000200 	strcc	r0, [r0], -r0, lsl #4
    157c:	0000009f 	muleq	r0, pc, r0	; <UNPREDICTABLE>
    1580:	00000000 	andeq	r0, r0, r0
    1584:	00019800 	andeq	r9, r1, r0, lsl #16
    1588:	0001a400 	andeq	sl, r1, r0, lsl #8
    158c:	9e000600 	cfmadd32ls	mvax0, mvfx0, mvfx0, mvfx0
    1590:	01590404 	cmpeq	r9, r4, lsl #8
    1594:	00000098 	muleq	r0, r8, r0
    1598:	00000000 	andeq	r0, r0, r0
    159c:	0001ac00 	andeq	sl, r1, r0, lsl #24
    15a0:	0001b000 	andeq	fp, r1, r0
    15a4:	50000100 	andpl	r0, r0, r0, lsl #2
    15a8:	000001b0 			; <UNDEFINED> instruction: 0x000001b0
    15ac:	000001b4 			; <UNDEFINED> instruction: 0x000001b4
    15b0:	01f30004 	mvnseq	r0, r4
    15b4:	00009f50 	andeq	r9, r0, r0, asr pc
    15b8:	00000000 	andeq	r0, r0, r0
    15bc:	01ac0000 			; <UNDEFINED> instruction: 0x01ac0000
    15c0:	01b00000 	movseq	r0, r0
    15c4:	001d0000 	andseq	r0, sp, r0
    15c8:	24480070 	strbcs	r0, [r8], #-112	; 0x70
    15cc:	25480070 	strbcs	r0, [r8, #-112]	; 0x70
    15d0:	08007021 	stmdaeq	r0, {r0, r5, ip, sp, lr}
    15d4:	1a2440ff 	bne	9119d8 <_back_addr-0xbee628>
    15d8:	70212538 	eorvc	r2, r1, r8, lsr r5
    15dc:	ff000a00 			; <UNDEFINED> instruction: 0xff000a00
    15e0:	2124381a 	teqcs	r4, sl, lsl r8
    15e4:	0001b09f 	muleq	r1, pc, r0	; <UNPREDICTABLE>
    15e8:	0001b400 	andeq	fp, r1, r0, lsl #8
    15ec:	f3002100 	vrhadd.u8	d2, d0, d0
    15f0:	24485001 	strbcs	r5, [r8], #-1
    15f4:	485001f3 	ldmdami	r0, {r0, r1, r4, r5, r6, r7, r8}^
    15f8:	01f32125 	mvnseq	r2, r5, lsr #2
    15fc:	40ff0850 	rscsmi	r0, pc, r0, asr r8	; <UNPREDICTABLE>
    1600:	25381a24 	ldrcs	r1, [r8, #-2596]!	; 0xa24
    1604:	5001f321 	andpl	pc, r1, r1, lsr #6
    1608:	1aff000a 	bne	fffc1638 <__bss_end__+0xfeaadaf8>
    160c:	9f212438 	svcls	0x00212438
	...
    1618:	000001b4 			; <UNDEFINED> instruction: 0x000001b4
    161c:	000002d4 	ldrdeq	r0, [r0], -r4
    1620:	d4500001 	ldrble	r0, [r0], #-1
    1624:	e0000002 	and	r0, r0, r2
    1628:	07000002 	streq	r0, [r0, -r2]
    162c:	ffe87400 			; <UNDEFINED> instruction: 0xffe87400
    1630:	9f03bfff 	svcls	0x0003bfff
    1634:	000002e0 	andeq	r0, r0, r0, ror #5
    1638:	00000314 	andeq	r0, r0, r4, lsl r3
    163c:	14500001 	ldrbne	r0, [r0], #-1
    1640:	1c000003 	stcne	0, cr0, [r0], {3}
    1644:	07000003 	streq	r0, [r0, -r3]
    1648:	ffe47200 			; <UNDEFINED> instruction: 0xffe47200
    164c:	9f03c0bf 	svcls	0x0003c0bf
    1650:	0000031c 	andeq	r0, r0, ip, lsl r3
    1654:	00000424 	andeq	r0, r0, r4, lsr #8
    1658:	00500001 	subseq	r0, r0, r1
    165c:	00000000 	andeq	r0, r0, r0
    1660:	b4000000 	strlt	r0, [r0], #-0
    1664:	d4000001 	strle	r0, [r0], #-1
    1668:	02000001 	andeq	r0, r0, #1
    166c:	009f3000 	addseq	r3, pc, r0
    1670:	00000000 	andeq	r0, r0, r0
    1674:	d4000000 	strle	r0, [r0], #-0
    1678:	e8000001 	stmda	r0, {r0}
    167c:	07000001 	streq	r0, [r0, -r1]
    1680:	80807300 	addhi	r7, r0, r0, lsl #6
    1684:	9f7a8080 	svcls	0x007a8080
    1688:	000001e8 	andeq	r0, r0, r8, ror #3
    168c:	000001fc 	strdeq	r0, [r0], -ip
    1690:	fc730007 	ldc2l	0, cr0, [r3], #-28	; 0xffffffe4
    1694:	79ffffff 	ldmibvc	pc!, {r0, r1, r2, r3, r4, r5, r6, r7, r8, r9, sl, fp, ip, sp, lr, pc}^	; <UNPREDICTABLE>
    1698:	0002e09f 	muleq	r2, pc, r0	; <UNPREDICTABLE>
    169c:	0002fc00 	andeq	pc, r2, r0, lsl #24
    16a0:	73000700 	movwvc	r0, #1792	; 0x700
    16a4:	80808080 	addhi	r8, r0, r0, lsl #1
    16a8:	00009f7a 	andeq	r9, r0, sl, ror pc
    16ac:	00000000 	andeq	r0, r0, r0
    16b0:	02e00000 	rsceq	r0, r0, #0
    16b4:	02fc0000 	rscseq	r0, ip, #0
    16b8:	00070000 	andeq	r0, r7, r0
    16bc:	80808073 	addhi	r8, r0, r3, ror r0
    16c0:	009f7a80 	addseq	r7, pc, r0, lsl #21
    16c4:	00000000 	andeq	r0, r0, r0
    16c8:	f8000000 			; <UNDEFINED> instruction: 0xf8000000
    16cc:	d4000001 	strle	r0, [r0], #-1
    16d0:	03000002 	movweq	r0, #2
    16d4:	9f1c7000 	svcls	0x001c7000
    16d8:	000002d4 	ldrdeq	r0, [r0], -r4
    16dc:	000002e0 	andeq	r0, r0, r0, ror #5
    16e0:	84740007 	ldrbthi	r0, [r4], #-7
    16e4:	03c08080 	biceq	r8, r0, #128	; 0x80
    16e8:	0002fc9f 	muleq	r2, pc, ip	; <UNPREDICTABLE>
    16ec:	00031400 	andeq	r1, r3, r0, lsl #8
    16f0:	70000300 	andvc	r0, r0, r0, lsl #6
    16f4:	03149f1c 	tsteq	r4, #28, 30	; 0x70
    16f8:	031c0000 	tsteq	ip, #0
    16fc:	00070000 	andeq	r0, r7, r0
    1700:	c0808072 	addgt	r8, r0, r2, ror r0
    1704:	1c9f03c0 	ldcne	3, cr0, [pc], {192}	; 0xc0
    1708:	24000003 	strcs	r0, [r0], #-3
    170c:	03000004 	movweq	r0, #4
    1710:	9f1c7000 	svcls	0x001c7000
	...
    171c:	00000214 	andeq	r0, r0, r4, lsl r2
    1720:	000002d4 	ldrdeq	r0, [r0], -r4
    1724:	d4500001 	ldrble	r0, [r0], #-1
    1728:	e0000002 	and	r0, r0, r2
    172c:	07000002 	streq	r0, [r0, -r2]
    1730:	ffe87400 			; <UNDEFINED> instruction: 0xffe87400
    1734:	9f03bfff 	svcls	0x0003bfff
    1738:	000002fc 	strdeq	r0, [r0], -ip
    173c:	00000314 	andeq	r0, r0, r4, lsl r3
    1740:	14500001 	ldrbne	r0, [r0], #-1
    1744:	1c000003 	stcne	0, cr0, [r0], {3}
    1748:	07000003 	streq	r0, [r0, -r3]
    174c:	ffe47200 			; <UNDEFINED> instruction: 0xffe47200
    1750:	9f03c0bf 	svcls	0x0003c0bf
    1754:	0000031c 	andeq	r0, r0, ip, lsl r3
    1758:	0000040c 	andeq	r0, r0, ip, lsl #8
    175c:	00500001 	subseq	r0, r0, r1
    1760:	00000000 	andeq	r0, r0, r0
    1764:	f4000000 	vst4.8	{d0-d3}, [r0], r0
    1768:	0c000003 	stceq	0, cr0, [r0], {3}
    176c:	01000004 	tsteq	r0, r4
    1770:	00005000 	andeq	r5, r0, r0
    1774:	00000000 	andeq	r0, r0, r0
    1778:	021c0000 	andseq	r0, ip, #0
    177c:	02d40000 	sbcseq	r0, r4, #0
    1780:	00030000 	andeq	r0, r3, r0
    1784:	d49f1870 	ldrle	r1, [pc], #2160	; 178c <_back_addr-0x14fe874>
    1788:	e0000002 	and	r0, r0, r2
    178c:	07000002 	streq	r0, [r0, -r2]
    1790:	80807400 	addhi	r7, r0, r0, lsl #8
    1794:	9f03c080 	svcls	0x0003c080
    1798:	000002fc 	strdeq	r0, [r0], -ip
    179c:	00000314 	andeq	r0, r0, r4, lsl r3
    17a0:	18700003 	ldmdane	r0!, {r0, r1}^
    17a4:	0003149f 	muleq	r3, pc, r4	; <UNPREDICTABLE>
    17a8:	00031c00 	andeq	r1, r3, r0, lsl #24
    17ac:	72000700 	andvc	r0, r0, #0, 14
    17b0:	c0bffffc 	ldrshtgt	pc, [pc], ip	; <UNPREDICTABLE>
    17b4:	031c9f03 	tsteq	ip, #3, 30
    17b8:	03f40000 	mvnseq	r0, #0
    17bc:	00030000 	andeq	r0, r3, r0
    17c0:	009f1870 	addseq	r1, pc, r0, ror r8	; <UNPREDICTABLE>
    17c4:	00000000 	andeq	r0, r0, r0
    17c8:	dc000000 	stcle	0, cr0, [r0], {-0}
    17cc:	f4000003 	vst4.8	{d0-d3}, [r0], r3
    17d0:	03000003 	movweq	r0, #3
    17d4:	9f187000 	svcls	0x00187000
	...
    17e0:	00000234 	andeq	r0, r0, r4, lsr r2
    17e4:	000002d4 	ldrdeq	r0, [r0], -r4
    17e8:	04700003 	ldrbteq	r0, [r0], #-3
    17ec:	0002d49f 	muleq	r2, pc, r4	; <UNPREDICTABLE>
    17f0:	0002e000 	andeq	lr, r2, r0
    17f4:	74000700 	strvc	r0, [r0], #-1792	; 0x700
    17f8:	bfffffec 	svclt	0x00ffffec
    17fc:	02fc9f03 	rscseq	r9, ip, #3, 30
    1800:	03140000 	tsteq	r4, #0
    1804:	00030000 	andeq	r0, r3, r0
    1808:	149f0470 	ldrne	r0, [pc], #1136	; 1810 <_back_addr-0x14fe7f0>
    180c:	1c000003 	stcne	0, cr0, [r0], {3}
    1810:	07000003 	streq	r0, [r0, -r3]
    1814:	ffe87200 			; <UNDEFINED> instruction: 0xffe87200
    1818:	9f03c0bf 	svcls	0x0003c0bf
    181c:	0000031c 	andeq	r0, r0, ip, lsl r3
    1820:	000003dc 	ldrdeq	r0, [r0], -ip
    1824:	04700003 	ldrbteq	r0, [r0], #-3
    1828:	0000009f 	muleq	r0, pc, r0	; <UNPREDICTABLE>
    182c:	00000000 	andeq	r0, r0, r0
    1830:	0003c400 	andeq	ip, r3, r0, lsl #8
    1834:	0003dc00 	andeq	sp, r3, r0, lsl #24
    1838:	70000300 	andvc	r0, r0, r0, lsl #6
    183c:	00009f04 	andeq	r9, r0, r4, lsl #30
    1840:	00000000 	andeq	r0, r0, r0
    1844:	02440000 	subeq	r0, r4, #0
    1848:	02d40000 	sbcseq	r0, r4, #0
    184c:	00030000 	andeq	r0, r3, r0
    1850:	d49f1470 	ldrle	r1, [pc], #1136	; 1858 <_back_addr-0x14fe7a8>
    1854:	e0000002 	and	r0, r0, r2
    1858:	07000002 	streq	r0, [r0, -r2]
    185c:	fffc7400 			; <UNDEFINED> instruction: 0xfffc7400
    1860:	9f03bfff 	svcls	0x0003bfff
    1864:	000002fc 	strdeq	r0, [r0], -ip
    1868:	00000314 	andeq	r0, r0, r4, lsl r3
    186c:	14700003 	ldrbtne	r0, [r0], #-3
    1870:	0003149f 	muleq	r3, pc, r4	; <UNPREDICTABLE>
    1874:	00031c00 	andeq	r1, r3, r0, lsl #24
    1878:	72000700 	andvc	r0, r0, #0, 14
    187c:	c0bffff8 	ldrshtgt	pc, [pc], r8	; <UNPREDICTABLE>
    1880:	031c9f03 	tsteq	ip, #3, 30
    1884:	03c40000 	biceq	r0, r4, #0
    1888:	00030000 	andeq	r0, r3, r0
    188c:	009f1470 	addseq	r1, pc, r0, ror r4	; <UNPREDICTABLE>
    1890:	00000000 	andeq	r0, r0, r0
    1894:	ac000000 	stcge	0, cr0, [r0], {-0}
    1898:	c4000003 	strgt	r0, [r0], #-3
    189c:	03000003 	movweq	r0, #3
    18a0:	9f147000 	svcls	0x00147000
	...
    18ac:	0000025c 	andeq	r0, r0, ip, asr r2
    18b0:	000002d4 	ldrdeq	r0, [r0], -r4
    18b4:	08700003 	ldmdaeq	r0!, {r0, r1}^
    18b8:	0002d49f 	muleq	r2, pc, r4	; <UNPREDICTABLE>
    18bc:	0002e000 	andeq	lr, r2, r0
    18c0:	74000700 	strvc	r0, [r0], #-1792	; 0x700
    18c4:	bffffff0 	svclt	0x00fffff0
    18c8:	02fc9f03 	rscseq	r9, ip, #3, 30
    18cc:	03140000 	tsteq	r4, #0
    18d0:	00030000 	andeq	r0, r3, r0
    18d4:	149f0870 	ldrne	r0, [pc], #2160	; 18dc <_back_addr-0x14fe724>
    18d8:	1c000003 	stcne	0, cr0, [r0], {3}
    18dc:	07000003 	streq	r0, [r0, -r3]
    18e0:	ffec7200 			; <UNDEFINED> instruction: 0xffec7200
    18e4:	9f03c0bf 	svcls	0x0003c0bf
    18e8:	0000031c 	andeq	r0, r0, ip, lsl r3
    18ec:	000003ac 	andeq	r0, r0, ip, lsr #7
    18f0:	08700003 	ldmdaeq	r0!, {r0, r1}^
    18f4:	0000009f 	muleq	r0, pc, r0	; <UNPREDICTABLE>
    18f8:	00000000 	andeq	r0, r0, r0
    18fc:	00039400 	andeq	r9, r3, r0, lsl #8
    1900:	0003ac00 	andeq	sl, r3, r0, lsl #24
    1904:	70000300 	andvc	r0, r0, r0, lsl #6
    1908:	00009f08 	andeq	r9, r0, r8, lsl #30
    190c:	00000000 	andeq	r0, r0, r0
    1910:	026c0000 	rsbeq	r0, ip, #0
    1914:	02d40000 	sbcseq	r0, r4, #0
    1918:	00030000 	andeq	r0, r3, r0
    191c:	d49f1070 	ldrle	r1, [pc], #112	; 1924 <_back_addr-0x14fe6dc>
    1920:	e0000002 	and	r0, r0, r2
    1924:	07000002 	streq	r0, [r0, -r2]
    1928:	fff87400 			; <UNDEFINED> instruction: 0xfff87400
    192c:	9f03bfff 	svcls	0x0003bfff
    1930:	000002fc 	strdeq	r0, [r0], -ip
    1934:	00000314 	andeq	r0, r0, r4, lsl r3
    1938:	10700003 	rsbsne	r0, r0, r3
    193c:	0003149f 	muleq	r3, pc, r4	; <UNPREDICTABLE>
    1940:	00031c00 	andeq	r1, r3, r0, lsl #24
    1944:	72000700 	andvc	r0, r0, #0, 14
    1948:	c0bffff4 	ldrshtgt	pc, [pc], r4	; <UNPREDICTABLE>
    194c:	031c9f03 	tsteq	ip, #3, 30
    1950:	03940000 	orrseq	r0, r4, #0
    1954:	00030000 	andeq	r0, r3, r0
    1958:	009f1070 	addseq	r1, pc, r0, ror r0	; <UNPREDICTABLE>
    195c:	00000000 	andeq	r0, r0, r0
    1960:	7c000000 	stcvc	0, cr0, [r0], {-0}
    1964:	94000003 	strls	r0, [r0], #-3
    1968:	03000003 	movweq	r0, #3
    196c:	9f107000 	svcls	0x00107000
	...
    1978:	00000284 	andeq	r0, r0, r4, lsl #5
    197c:	000002d4 	ldrdeq	r0, [r0], -r4
    1980:	0c700003 	ldcleq	0, cr0, [r0], #-12
    1984:	0002d49f 	muleq	r2, pc, r4	; <UNPREDICTABLE>
    1988:	0002e000 	andeq	lr, r2, r0
    198c:	74000700 	strvc	r0, [r0], #-1792	; 0x700
    1990:	bffffff4 	svclt	0x00fffff4
    1994:	02fc9f03 	rscseq	r9, ip, #3, 30
    1998:	03140000 	tsteq	r4, #0
    199c:	00030000 	andeq	r0, r3, r0
    19a0:	149f0c70 	ldrne	r0, [pc], #3184	; 19a8 <_back_addr-0x14fe658>
    19a4:	1c000003 	stcne	0, cr0, [r0], {3}
    19a8:	07000003 	streq	r0, [r0, -r3]
    19ac:	fff07200 			; <UNDEFINED> instruction: 0xfff07200
    19b0:	9f03c0bf 	svcls	0x0003c0bf
    19b4:	0000031c 	andeq	r0, r0, ip, lsl r3
    19b8:	0000037c 	andeq	r0, r0, ip, ror r3
    19bc:	0c700003 	ldcleq	0, cr0, [r0], #-12
    19c0:	0000009f 	muleq	r0, pc, r0	; <UNPREDICTABLE>
    19c4:	00000000 	andeq	r0, r0, r0
    19c8:	00036400 	andeq	r6, r3, r0, lsl #8
    19cc:	00037c00 	andeq	r7, r3, r0, lsl #24
    19d0:	70000300 	andvc	r0, r0, r0, lsl #6
    19d4:	00009f0c 	andeq	r9, r0, ip, lsl #30
    19d8:	00000000 	andeq	r0, r0, r0
    19dc:	029c0000 	addseq	r0, ip, #0
    19e0:	02ac0000 	adceq	r0, ip, #0
    19e4:	00010000 	andeq	r0, r1, r0
    19e8:	00034c53 	andeq	r4, r3, r3, asr ip
    19ec:	00036400 	andeq	r6, r3, r0, lsl #8
    19f0:	53000100 	movwpl	r0, #256	; 0x100
	...
    19fc:	0000029c 	muleq	r0, ip, r2
    1a00:	000002d4 	ldrdeq	r0, [r0], -r4
    1a04:	10700003 	rsbsne	r0, r0, r3
    1a08:	0002d49f 	muleq	r2, pc, r4	; <UNPREDICTABLE>
    1a0c:	0002e000 	andeq	lr, r2, r0
    1a10:	74000700 	strvc	r0, [r0], #-1792	; 0x700
    1a14:	bffffff8 	svclt	0x00fffff8
    1a18:	02fc9f03 	rscseq	r9, ip, #3, 30
    1a1c:	03140000 	tsteq	r4, #0
    1a20:	00030000 	andeq	r0, r3, r0
    1a24:	149f1070 	ldrne	r1, [pc], #112	; 1a2c <_back_addr-0x14fe5d4>
    1a28:	1c000003 	stcne	0, cr0, [r0], {3}
    1a2c:	07000003 	streq	r0, [r0, -r3]
    1a30:	fff47200 			; <UNDEFINED> instruction: 0xfff47200
    1a34:	9f03c0bf 	svcls	0x0003c0bf
    1a38:	0000031c 	andeq	r0, r0, ip, lsl r3
    1a3c:	00000364 	andeq	r0, r0, r4, ror #6
    1a40:	10700003 	rsbsne	r0, r0, r3
    1a44:	0000009f 	muleq	r0, pc, r0	; <UNPREDICTABLE>
    1a48:	00000000 	andeq	r0, r0, r0
    1a4c:	00034c00 	andeq	r4, r3, r0, lsl #24
    1a50:	00036400 	andeq	r6, r3, r0, lsl #8
    1a54:	53000100 	movwpl	r0, #256	; 0x100
	...
    1a60:	0000034c 	andeq	r0, r0, ip, asr #6
    1a64:	00000364 	andeq	r0, r0, r4, ror #6
    1a68:	10700003 	rsbsne	r0, r0, r3
    1a6c:	0000009f 	muleq	r0, pc, r0	; <UNPREDICTABLE>
    1a70:	00000000 	andeq	r0, r0, r0
    1a74:	0002ac00 	andeq	sl, r2, r0, lsl #24
    1a78:	0002bc00 	andeq	fp, r2, r0, lsl #24
    1a7c:	53000100 	movwpl	r0, #256	; 0x100
    1a80:	00000334 	andeq	r0, r0, r4, lsr r3
    1a84:	0000034c 	andeq	r0, r0, ip, asr #6
    1a88:	00530001 	subseq	r0, r3, r1
    1a8c:	00000000 	andeq	r0, r0, r0
    1a90:	ac000000 	stcge	0, cr0, [r0], {-0}
    1a94:	d4000002 	strle	r0, [r0], #-2
    1a98:	03000002 	movweq	r0, #2
    1a9c:	9f147000 	svcls	0x00147000
    1aa0:	000002d4 	ldrdeq	r0, [r0], -r4
    1aa4:	000002e0 	andeq	r0, r0, r0, ror #5
    1aa8:	fc740007 	ldc2l	0, cr0, [r4], #-28	; 0xffffffe4
    1aac:	03bfffff 			; <UNDEFINED> instruction: 0x03bfffff
    1ab0:	0002fc9f 	muleq	r2, pc, ip	; <UNPREDICTABLE>
    1ab4:	00031400 	andeq	r1, r3, r0, lsl #8
    1ab8:	70000300 	andvc	r0, r0, r0, lsl #6
    1abc:	03149f14 	tsteq	r4, #20, 30	; 0x50
    1ac0:	031c0000 	tsteq	ip, #0
    1ac4:	00070000 	andeq	r0, r7, r0
    1ac8:	bffff872 	svclt	0x00fff872
    1acc:	1c9f03c0 	ldcne	3, cr0, [pc], {192}	; 0xc0
    1ad0:	4c000003 	stcmi	0, cr0, [r0], {3}
    1ad4:	03000003 	movweq	r0, #3
    1ad8:	9f147000 	svcls	0x00147000
	...
    1ae4:	00000334 	andeq	r0, r0, r4, lsr r3
    1ae8:	0000034c 	andeq	r0, r0, ip, asr #6
    1aec:	00530001 	subseq	r0, r3, r1
    1af0:	00000000 	andeq	r0, r0, r0
    1af4:	34000000 	strcc	r0, [r0], #-0
    1af8:	4c000003 	stcmi	0, cr0, [r0], {3}
    1afc:	03000003 	movweq	r0, #3
    1b00:	9f147000 	svcls	0x00147000
	...
    1b0c:	000002bc 			; <UNDEFINED> instruction: 0x000002bc
    1b10:	000002cc 	andeq	r0, r0, ip, asr #5
    1b14:	1c530001 	mrrcne	0, 0, r0, r3, cr1
    1b18:	34000003 	strcc	r0, [r0], #-3
    1b1c:	01000003 	tsteq	r0, r3
    1b20:	00005300 	andeq	r5, r0, r0, lsl #6
    1b24:	00000000 	andeq	r0, r0, r0
    1b28:	02bc0000 	adcseq	r0, ip, #0
    1b2c:	02d40000 	sbcseq	r0, r4, #0
    1b30:	00030000 	andeq	r0, r3, r0
    1b34:	d49f1870 	ldrle	r1, [pc], #2160	; 1b3c <_back_addr-0x14fe4c4>
    1b38:	e0000002 	and	r0, r0, r2
    1b3c:	07000002 	streq	r0, [r0, -r2]
    1b40:	80807400 	addhi	r7, r0, r0, lsl #8
    1b44:	9f03c080 	svcls	0x0003c080
    1b48:	000002fc 	strdeq	r0, [r0], -ip
    1b4c:	00000314 	andeq	r0, r0, r4, lsl r3
    1b50:	18700003 	ldmdane	r0!, {r0, r1}^
    1b54:	0003149f 	muleq	r3, pc, r4	; <UNPREDICTABLE>
    1b58:	00031c00 	andeq	r1, r3, r0, lsl #24
    1b5c:	72000700 	andvc	r0, r0, #0, 14
    1b60:	c0bffffc 	ldrshtgt	pc, [pc], ip	; <UNPREDICTABLE>
    1b64:	031c9f03 	tsteq	ip, #3, 30
    1b68:	03340000 	teqeq	r4, #0
    1b6c:	00030000 	andeq	r0, r3, r0
    1b70:	009f1870 	addseq	r1, pc, r0, ror r8	; <UNPREDICTABLE>
    1b74:	00000000 	andeq	r0, r0, r0
    1b78:	1c000000 	stcne	0, cr0, [r0], {-0}
    1b7c:	34000003 	strcc	r0, [r0], #-3
    1b80:	01000003 	tsteq	r0, r3
    1b84:	00005300 	andeq	r5, r0, r0, lsl #6
    1b88:	00000000 	andeq	r0, r0, r0
    1b8c:	031c0000 	tsteq	ip, #0
    1b90:	03340000 	teqeq	r4, #0
    1b94:	00030000 	andeq	r0, r3, r0
    1b98:	009f1870 	addseq	r1, pc, r0, ror r8	; <UNPREDICTABLE>
    1b9c:	00000000 	andeq	r0, r0, r0
    1ba0:	cc000000 	stcgt	0, cr0, [r0], {-0}
    1ba4:	e0000002 	and	r0, r0, r2
    1ba8:	01000002 	tsteq	r0, r2
    1bac:	02fc5300 	rscseq	r5, ip, #0, 6
    1bb0:	031c0000 	tsteq	ip, #0
    1bb4:	00010000 	andeq	r0, r1, r0
    1bb8:	00000053 	andeq	r0, r0, r3, asr r0
    1bbc:	00000000 	andeq	r0, r0, r0
    1bc0:	0002cc00 	andeq	ip, r2, r0, lsl #24
    1bc4:	0002d400 	andeq	sp, r2, r0, lsl #8
    1bc8:	70000300 	andvc	r0, r0, r0, lsl #6
    1bcc:	02d49f1c 	sbcseq	r9, r4, #28, 30	; 0x70
    1bd0:	02e00000 	rsceq	r0, r0, #0
    1bd4:	00070000 	andeq	r0, r7, r0
    1bd8:	80808474 	addhi	r8, r0, r4, ror r4
    1bdc:	fc9f03c0 	ldc2	3, cr0, [pc], {192}	; 0xc0
    1be0:	14000002 	strne	r0, [r0], #-2
    1be4:	03000003 	movweq	r0, #3
    1be8:	9f1c7000 	svcls	0x001c7000
    1bec:	00000314 	andeq	r0, r0, r4, lsl r3
    1bf0:	0000031c 	andeq	r0, r0, ip, lsl r3
    1bf4:	80720007 	rsbshi	r0, r2, r7
    1bf8:	03c0c080 	biceq	ip, r0, #128	; 0x80
    1bfc:	0000009f 	muleq	r0, pc, r0	; <UNPREDICTABLE>
    1c00:	00000000 	andeq	r0, r0, r0
    1c04:	0002fc00 	andeq	pc, r2, r0, lsl #24
    1c08:	00031c00 	andeq	r1, r3, r0, lsl #24
    1c0c:	53000100 	movwpl	r0, #256	; 0x100
	...
    1c18:	000002fc 	strdeq	r0, [r0], -ip
    1c1c:	00000314 	andeq	r0, r0, r4, lsl r3
    1c20:	1c700003 	ldclne	0, cr0, [r0], #-12
    1c24:	0003149f 	muleq	r3, pc, r4	; <UNPREDICTABLE>
    1c28:	00031c00 	andeq	r1, r3, r0, lsl #24
    1c2c:	72000700 	andvc	r0, r0, #0, 14
    1c30:	c0c08080 	sbcgt	r8, r0, r0, lsl #1
    1c34:	00009f03 	andeq	r9, r0, r3, lsl #30
    1c38:	00000000 	andeq	r0, r0, r0
    1c3c:	04240000 	strteq	r0, [r4], #-0
    1c40:	043b0000 	ldrteq	r0, [fp], #-0
    1c44:	00010000 	andeq	r0, r1, r0
    1c48:	00043b50 	andeq	r3, r4, r0, asr fp
    1c4c:	00048800 	andeq	r8, r4, r0, lsl #16
    1c50:	58000100 	stmdapl	r0, {r8}
    1c54:	00000488 	andeq	r0, r0, r8, lsl #9
    1c58:	0000048b 	andeq	r0, r0, fp, lsl #9
    1c5c:	2c700002 	ldclcs	0, cr0, [r0], #-8
    1c60:	0000048b 	andeq	r0, r0, fp, lsl #9
    1c64:	0000048c 	andeq	r0, r0, ip, lsl #9
    1c68:	01f30004 	mvnseq	r0, r4
    1c6c:	048c9f50 	streq	r9, [ip], #3920	; 0xf50
    1c70:	04b40000 	ldrteq	r0, [r4], #0
    1c74:	00010000 	andeq	r0, r1, r0
    1c78:	00000058 	andeq	r0, r0, r8, asr r0
    1c7c:	00000000 	andeq	r0, r0, r0
    1c80:	00042400 	andeq	r2, r4, r0, lsl #8
    1c84:	00043b00 	andeq	r3, r4, r0, lsl #22
    1c88:	51000100 	mrspl	r0, (UNDEF: 16)
    1c8c:	0000043b 	andeq	r0, r0, fp, lsr r4
    1c90:	00000488 	andeq	r0, r0, r8, lsl #9
    1c94:	88560001 	ldmdahi	r6, {r0}^
    1c98:	8b000004 	blhi	1cb0 <_back_addr-0x14fe350>
    1c9c:	02000004 	andeq	r0, r0, #4
    1ca0:	8b347000 	blhi	d1dca8 <_back_addr-0x7e2358>
    1ca4:	8c000004 	stchi	0, cr0, [r0], {4}
    1ca8:	04000004 	streq	r0, [r0], #-4
    1cac:	5101f300 	mrspl	pc, SP_irq	; <UNPREDICTABLE>
    1cb0:	00048c9f 	muleq	r4, pc, ip	; <UNPREDICTABLE>
    1cb4:	0004b400 	andeq	fp, r4, r0, lsl #8
    1cb8:	56000100 	strpl	r0, [r0], -r0, lsl #2
	...
    1cc4:	00000424 	andeq	r0, r0, r4, lsr #8
    1cc8:	0000043b 	andeq	r0, r0, fp, lsr r4
    1ccc:	3b520001 	blcc	1481cd8 <_back_addr-0x7e328>
    1cd0:	88000004 	stmdahi	r0, {r2}
    1cd4:	01000004 	tsteq	r0, r4
    1cd8:	04885700 	streq	r5, [r8], #1792	; 0x700
    1cdc:	048b0000 	streq	r0, [fp], #0
    1ce0:	00020000 	andeq	r0, r2, r0
    1ce4:	048b3070 	streq	r3, [fp], #112	; 0x70
    1ce8:	048c0000 	streq	r0, [ip], #0
    1cec:	00040000 	andeq	r0, r4, r0
    1cf0:	9f5201f3 	svcls	0x005201f3
    1cf4:	0000048c 	andeq	r0, r0, ip, lsl #9
    1cf8:	000004b4 			; <UNDEFINED> instruction: 0x000004b4
    1cfc:	00570001 	subseq	r0, r7, r1
    1d00:	00000000 	andeq	r0, r0, r0
    1d04:	24000000 	strcs	r0, [r0], #-0
    1d08:	3b000004 	blcc	1d20 <_back_addr-0x14fe2e0>
    1d0c:	01000004 	tsteq	r0, r4
    1d10:	043b5300 	ldrteq	r5, [fp], #-768	; 0x300
    1d14:	04880000 	streq	r0, [r8], #0
    1d18:	00010000 	andeq	r0, r1, r0
    1d1c:	00048855 	andeq	r8, r4, r5, asr r8
    1d20:	00048c00 	andeq	r8, r4, r0, lsl #24
    1d24:	f3000400 	vshl.u8	d0, d0, d0
    1d28:	8c9f5301 	ldchi	3, cr5, [pc], {1}
    1d2c:	b4000004 	strlt	r0, [r0], #-4
    1d30:	01000004 	tsteq	r0, r4
    1d34:	00005500 	andeq	r5, r0, r0, lsl #10
    1d38:	00000000 	andeq	r0, r0, r0
    1d3c:	043c0000 	ldrteq	r0, [ip], #-0
    1d40:	04740000 	ldrbteq	r0, [r4], #-0
    1d44:	00010000 	andeq	r0, r1, r0
    1d48:	00047450 	andeq	r7, r4, r0, asr r4
    1d4c:	00048800 	andeq	r8, r4, r0, lsl #16
    1d50:	54000100 	strpl	r0, [r0], #-256	; 0x100
    1d54:	00000488 	andeq	r0, r0, r8, lsl #9
    1d58:	0000048b 	andeq	r0, r0, fp, lsl #9
    1d5c:	8c500001 	mrrchi	0, 0, r0, r0, cr1	; <UNPREDICTABLE>
    1d60:	8f000004 	svchi	0x00000004
    1d64:	01000004 	tsteq	r0, r4
    1d68:	048f5000 	streq	r5, [pc], #0	; 1d70 <_back_addr-0x14fe290>
    1d6c:	04a40000 	strteq	r0, [r4], #0
    1d70:	00010000 	andeq	r0, r1, r0
    1d74:	0004a454 	andeq	sl, r4, r4, asr r4
    1d78:	0004a800 	andeq	sl, r4, r0, lsl #16
    1d7c:	50000100 	andpl	r0, r0, r0, lsl #2
    1d80:	000004a8 	andeq	r0, r0, r8, lsr #9
    1d84:	000004b4 			; <UNDEFINED> instruction: 0x000004b4
    1d88:	00540001 	subseq	r0, r4, r1
    1d8c:	00000000 	andeq	r0, r0, r0
    1d90:	b4000000 	strlt	r0, [r0], #-0
    1d94:	cb000004 	blgt	1dac <_back_addr-0x14fe254>
    1d98:	01000004 	tsteq	r0, r4
    1d9c:	04cb5000 	strbeq	r5, [fp], #0
    1da0:	05180000 	ldreq	r0, [r8, #-0]
    1da4:	00010000 	andeq	r0, r1, r0
    1da8:	00051858 	andeq	r1, r5, r8, asr r8
    1dac:	00051b00 	andeq	r1, r5, r0, lsl #22
    1db0:	70000200 	andvc	r0, r0, r0, lsl #4
    1db4:	00051b2c 	andeq	r1, r5, ip, lsr #22
    1db8:	00051c00 	andeq	r1, r5, r0, lsl #24
    1dbc:	f3000400 	vshl.u8	d0, d0, d0
    1dc0:	1c9f5001 	ldcne	0, cr5, [pc], {1}
    1dc4:	44000005 	strmi	r0, [r0], #-5
    1dc8:	01000005 	tsteq	r0, r5
    1dcc:	00005800 	andeq	r5, r0, r0, lsl #16
    1dd0:	00000000 	andeq	r0, r0, r0
    1dd4:	04b40000 	ldrteq	r0, [r4], #0
    1dd8:	04cb0000 	strbeq	r0, [fp], #0
    1ddc:	00010000 	andeq	r0, r1, r0
    1de0:	0004cb51 	andeq	ip, r4, r1, asr fp
    1de4:	00051800 	andeq	r1, r5, r0, lsl #16
    1de8:	56000100 	strpl	r0, [r0], -r0, lsl #2
    1dec:	00000518 	andeq	r0, r0, r8, lsl r5
    1df0:	0000051b 	andeq	r0, r0, fp, lsl r5
    1df4:	34700002 	ldrbtcc	r0, [r0], #-2
    1df8:	0000051b 	andeq	r0, r0, fp, lsl r5
    1dfc:	0000051c 	andeq	r0, r0, ip, lsl r5
    1e00:	01f30004 	mvnseq	r0, r4
    1e04:	051c9f51 	ldreq	r9, [ip, #-3921]	; 0xf51
    1e08:	05440000 	strbeq	r0, [r4, #-0]
    1e0c:	00010000 	andeq	r0, r1, r0
    1e10:	00000056 	andeq	r0, r0, r6, asr r0
    1e14:	00000000 	andeq	r0, r0, r0
    1e18:	0004b400 	andeq	fp, r4, r0, lsl #8
    1e1c:	0004cb00 	andeq	ip, r4, r0, lsl #22
    1e20:	52000100 	andpl	r0, r0, #0, 2
    1e24:	000004cb 	andeq	r0, r0, fp, asr #9
    1e28:	00000518 	andeq	r0, r0, r8, lsl r5
    1e2c:	18570001 	ldmdane	r7, {r0}^
    1e30:	1b000005 	blne	1e4c <_back_addr-0x14fe1b4>
    1e34:	02000005 	andeq	r0, r0, #5
    1e38:	1b307000 	blne	c1de40 <_back_addr-0x8e21c0>
    1e3c:	1c000005 	stcne	0, cr0, [r0], {5}
    1e40:	04000005 	streq	r0, [r0], #-5
    1e44:	5201f300 	andpl	pc, r1, #0, 6
    1e48:	00051c9f 	muleq	r5, pc, ip	; <UNPREDICTABLE>
    1e4c:	00054400 	andeq	r4, r5, r0, lsl #8
    1e50:	57000100 	strpl	r0, [r0, -r0, lsl #2]
	...
    1e5c:	000004b4 			; <UNDEFINED> instruction: 0x000004b4
    1e60:	000004cb 	andeq	r0, r0, fp, asr #9
    1e64:	cb530001 	blgt	14c1e70 <_back_addr-0x3e190>
    1e68:	18000004 	stmdane	r0, {r2}
    1e6c:	01000005 	tsteq	r0, r5
    1e70:	05185500 	ldreq	r5, [r8, #-1280]	; 0x500
    1e74:	051c0000 	ldreq	r0, [ip, #-0]
    1e78:	00040000 	andeq	r0, r4, r0
    1e7c:	9f5301f3 	svcls	0x005301f3
    1e80:	0000051c 	andeq	r0, r0, ip, lsl r5
    1e84:	00000544 	andeq	r0, r0, r4, asr #10
    1e88:	00550001 	subseq	r0, r5, r1
    1e8c:	00000000 	andeq	r0, r0, r0
    1e90:	cc000000 	stcgt	0, cr0, [r0], {-0}
    1e94:	04000004 	streq	r0, [r0], #-4
    1e98:	01000005 	tsteq	r0, r5
    1e9c:	05045000 	streq	r5, [r4, #-0]
    1ea0:	05180000 	ldreq	r0, [r8, #-0]
    1ea4:	00010000 	andeq	r0, r1, r0
    1ea8:	00051854 	andeq	r1, r5, r4, asr r8
    1eac:	00051b00 	andeq	r1, r5, r0, lsl #22
    1eb0:	50000100 	andpl	r0, r0, r0, lsl #2
    1eb4:	0000051c 	andeq	r0, r0, ip, lsl r5
    1eb8:	0000051f 	andeq	r0, r0, pc, lsl r5
    1ebc:	1f500001 	svcne	0x00500001
    1ec0:	34000005 	strcc	r0, [r0], #-5
    1ec4:	01000005 	tsteq	r0, r5
    1ec8:	05345400 	ldreq	r5, [r4, #-1024]!	; 0x400
    1ecc:	05380000 	ldreq	r0, [r8, #-0]!
    1ed0:	00010000 	andeq	r0, r1, r0
    1ed4:	00053850 	andeq	r3, r5, r0, asr r8
    1ed8:	00054400 	andeq	r4, r5, r0, lsl #8
    1edc:	54000100 	strpl	r0, [r0], #-256	; 0x100
	...
    1ee8:	00000544 	andeq	r0, r0, r4, asr #10
    1eec:	0000055b 	andeq	r0, r0, fp, asr r5
    1ef0:	5b500001 	blpl	1401efc <_back_addr-0xfe104>
    1ef4:	a8000005 	stmdage	r0, {r0, r2}
    1ef8:	01000005 	tsteq	r0, r5
    1efc:	05a85800 	streq	r5, [r8, #2048]!	; 0x800
    1f00:	05ab0000 	streq	r0, [fp, #0]!
    1f04:	00020000 	andeq	r0, r2, r0
    1f08:	05ab2c70 	streq	r2, [fp, #3184]!	; 0xc70
    1f0c:	05ac0000 	streq	r0, [ip, #0]!
    1f10:	00040000 	andeq	r0, r4, r0
    1f14:	9f5001f3 	svcls	0x005001f3
    1f18:	000005ac 	andeq	r0, r0, ip, lsr #11
    1f1c:	000005d8 	ldrdeq	r0, [r0], -r8
    1f20:	00580001 	subseq	r0, r8, r1
    1f24:	00000000 	andeq	r0, r0, r0
    1f28:	44000000 	strmi	r0, [r0], #-0
    1f2c:	5b000005 	blpl	1f48 <_back_addr-0x14fe0b8>
    1f30:	01000005 	tsteq	r0, r5
    1f34:	055b5100 	ldrbeq	r5, [fp, #-256]	; 0x100
    1f38:	05a80000 	streq	r0, [r8, #0]!
    1f3c:	00010000 	andeq	r0, r1, r0
    1f40:	0005a856 	andeq	sl, r5, r6, asr r8
    1f44:	0005ab00 	andeq	sl, r5, r0, lsl #22
    1f48:	70000200 	andvc	r0, r0, r0, lsl #4
    1f4c:	0005ab34 	andeq	sl, r5, r4, lsr fp
    1f50:	0005ac00 	andeq	sl, r5, r0, lsl #24
    1f54:	f3000400 	vshl.u8	d0, d0, d0
    1f58:	ac9f5101 	ldfges	f5, [pc], {1}
    1f5c:	d8000005 	stmdale	r0, {r0, r2}
    1f60:	01000005 	tsteq	r0, r5
    1f64:	00005600 	andeq	r5, r0, r0, lsl #12
    1f68:	00000000 	andeq	r0, r0, r0
    1f6c:	05440000 	strbeq	r0, [r4, #-0]
    1f70:	055b0000 	ldrbeq	r0, [fp, #-0]
    1f74:	00010000 	andeq	r0, r1, r0
    1f78:	00055b52 	andeq	r5, r5, r2, asr fp
    1f7c:	0005a800 	andeq	sl, r5, r0, lsl #16
    1f80:	57000100 	strpl	r0, [r0, -r0, lsl #2]
    1f84:	000005a8 	andeq	r0, r0, r8, lsr #11
    1f88:	000005ab 	andeq	r0, r0, fp, lsr #11
    1f8c:	30700002 	rsbscc	r0, r0, r2
    1f90:	000005ab 	andeq	r0, r0, fp, lsr #11
    1f94:	000005ac 	andeq	r0, r0, ip, lsr #11
    1f98:	01f30004 	mvnseq	r0, r4
    1f9c:	05ac9f52 	streq	r9, [ip, #3922]!	; 0xf52
    1fa0:	05d80000 	ldrbeq	r0, [r8]
    1fa4:	00010000 	andeq	r0, r1, r0
    1fa8:	00000057 	andeq	r0, r0, r7, asr r0
    1fac:	00000000 	andeq	r0, r0, r0
    1fb0:	00054400 	andeq	r4, r5, r0, lsl #8
    1fb4:	00055b00 	andeq	r5, r5, r0, lsl #22
    1fb8:	53000100 	movwpl	r0, #256	; 0x100
    1fbc:	0000055b 	andeq	r0, r0, fp, asr r5
    1fc0:	000005a8 	andeq	r0, r0, r8, lsr #11
    1fc4:	a8550001 	ldmdage	r5, {r0}^
    1fc8:	ac000005 	stcge	0, cr0, [r0], {5}
    1fcc:	04000005 	streq	r0, [r0], #-5
    1fd0:	5301f300 	movwpl	pc, #4864	; 0x1300	; <UNPREDICTABLE>
    1fd4:	0005ac9f 	muleq	r5, pc, ip	; <UNPREDICTABLE>
    1fd8:	0005d800 	andeq	sp, r5, r0, lsl #16
    1fdc:	55000100 	strpl	r0, [r0, #-256]	; 0x100
	...
    1fe8:	0000055c 	andeq	r0, r0, ip, asr r5
    1fec:	00000594 	muleq	r0, r4, r5
    1ff0:	94500001 	ldrbls	r0, [r0], #-1
    1ff4:	a8000005 	stmdage	r0, {r0, r2}
    1ff8:	01000005 	tsteq	r0, r5
    1ffc:	05a85400 	streq	r5, [r8, #1024]!	; 0x400
    2000:	05ab0000 	streq	r0, [fp, #0]!
    2004:	00010000 	andeq	r0, r1, r0
    2008:	0005ac50 	andeq	sl, r5, r0, asr ip
    200c:	0005af00 	andeq	sl, r5, r0, lsl #30
    2010:	50000100 	andpl	r0, r0, r0, lsl #2
    2014:	000005af 	andeq	r0, r0, pc, lsr #11
    2018:	000005c8 	andeq	r0, r0, r8, asr #11
    201c:	c8540001 	ldmdagt	r4, {r0}^
    2020:	cc000005 	stcgt	0, cr0, [r0], {5}
    2024:	01000005 	tsteq	r0, r5
    2028:	05cc5000 	strbeq	r5, [ip]
    202c:	05d80000 	ldrbeq	r0, [r8]
    2030:	00010000 	andeq	r0, r1, r0
    2034:	00000054 	andeq	r0, r0, r4, asr r0
    2038:	00000000 	andeq	r0, r0, r0
    203c:	0005d800 	andeq	sp, r5, r0, lsl #16
    2040:	0005ef00 	andeq	lr, r5, r0, lsl #30
    2044:	50000100 	andpl	r0, r0, r0, lsl #2
    2048:	000005ef 	andeq	r0, r0, pc, ror #11
    204c:	000006c4 	andeq	r0, r0, r4, asr #13
    2050:	00580001 	subseq	r0, r8, r1
    2054:	00000000 	andeq	r0, r0, r0
    2058:	d8000000 	stmdale	r0, {}	; <UNPREDICTABLE>
    205c:	ef000005 	svc	0x00000005
    2060:	01000005 	tsteq	r0, r5
    2064:	05ef5100 	strbeq	r5, [pc, #256]!	; 216c <_back_addr-0x14fde94>
    2068:	06c40000 	strbeq	r0, [r4], r0
    206c:	00010000 	andeq	r0, r1, r0
    2070:	00000057 	andeq	r0, r0, r7, asr r0
    2074:	00000000 	andeq	r0, r0, r0
    2078:	0005d800 	andeq	sp, r5, r0, lsl #16
    207c:	0005ef00 	andeq	lr, r5, r0, lsl #30
    2080:	52000100 	andpl	r0, r0, #0, 2
    2084:	000005ef 	andeq	r0, r0, pc, ror #11
    2088:	000006c4 	andeq	r0, r0, r4, asr #13
    208c:	00560001 	subseq	r0, r6, r1
    2090:	00000000 	andeq	r0, r0, r0
    2094:	d8000000 	stmdale	r0, {}	; <UNPREDICTABLE>
    2098:	ef000005 	svc	0x00000005
    209c:	01000005 	tsteq	r0, r5
    20a0:	05ef5300 	strbeq	r5, [pc, #768]!	; 23a8 <_back_addr-0x14fdc58>
    20a4:	06c40000 	strbeq	r0, [r4], r0
    20a8:	00010000 	andeq	r0, r1, r0
    20ac:	00000055 	andeq	r0, r0, r5, asr r0
    20b0:	00000000 	andeq	r0, r0, r0
    20b4:	0005d800 	andeq	sp, r5, r0, lsl #16
    20b8:	00063c00 	andeq	r3, r6, r0, lsl #24
    20bc:	30000200 	andcc	r0, r0, r0, lsl #4
    20c0:	00063c9f 	muleq	r6, pc, ip	; <UNPREDICTABLE>
    20c4:	00066000 	andeq	r6, r6, r0
    20c8:	50000100 	andpl	r0, r0, r0, lsl #2
    20cc:	00000660 	andeq	r0, r0, r0, ror #12
    20d0:	000006c4 	andeq	r0, r0, r4, asr #13
    20d4:	9f300002 	svcls	0x00300002
	...
    20e0:	000005f0 	strdeq	r0, [r0], -r0	; <UNPREDICTABLE>
    20e4:	00000628 	andeq	r0, r0, r8, lsr #12
    20e8:	28500001 	ldmdacs	r0, {r0}^
    20ec:	40000006 	andmi	r0, r0, r6
    20f0:	01000006 	tsteq	r0, r6
    20f4:	06605400 	strbteq	r5, [r0], -r0, lsl #8
    20f8:	06630000 	strbteq	r0, [r3], -r0
    20fc:	00010000 	andeq	r0, r1, r0
    2100:	00066350 	andeq	r6, r6, r0, asr r3
    2104:	00069c00 	andeq	r9, r6, r0, lsl #24
    2108:	54000100 	strpl	r0, [r0], #-256	; 0x100
    210c:	0000069c 	muleq	r0, ip, r6
    2110:	000006b4 			; <UNDEFINED> instruction: 0x000006b4
    2114:	b4500001 	ldrblt	r0, [r0], #-1
    2118:	c4000006 	strgt	r0, [r0], #-6
    211c:	01000006 	tsteq	r0, r6
    2120:	00005400 	andeq	r5, r0, r0, lsl #8
    2124:	00000000 	andeq	r0, r0, r0
    2128:	06c40000 	strbeq	r0, [r4], r0
    212c:	06d70000 	ldrbeq	r0, [r7], r0
    2130:	00010000 	andeq	r0, r1, r0
    2134:	0006d750 	andeq	sp, r6, r0, asr r7
    2138:	00072800 	andeq	r2, r7, r0, lsl #16
    213c:	56000100 	strpl	r0, [r0], -r0, lsl #2
    2140:	00000728 	andeq	r0, r0, r8, lsr #14
    2144:	0000072b 	andeq	r0, r0, fp, lsr #14
    2148:	2c700002 	ldclcs	0, cr0, [r0], #-8
    214c:	0000072b 	andeq	r0, r0, fp, lsr #14
    2150:	0000072c 	andeq	r0, r0, ip, lsr #14
    2154:	01f30004 	mvnseq	r0, r4
    2158:	072c9f50 			; <UNDEFINED> instruction: 0x072c9f50
    215c:	07340000 	ldreq	r0, [r4, -r0]!
    2160:	00010000 	andeq	r0, r1, r0
    2164:	00000056 	andeq	r0, r0, r6, asr r0
    2168:	00000000 	andeq	r0, r0, r0
    216c:	0006c400 	andeq	ip, r6, r0, lsl #8
    2170:	0006d700 	andeq	sp, r6, r0, lsl #14
    2174:	51000100 	mrspl	r0, (UNDEF: 16)
    2178:	000006d7 	ldrdeq	r0, [r0], -r7
    217c:	00000728 	andeq	r0, r0, r8, lsr #14
    2180:	28540001 	ldmdacs	r4, {r0}^
    2184:	2b000007 	blcs	21a8 <_back_addr-0x14fde58>
    2188:	02000007 	andeq	r0, r0, #7
    218c:	2b347000 	blcs	d1e194 <_back_addr-0x7e1e6c>
    2190:	2c000007 	stccs	0, cr0, [r0], {7}
    2194:	04000007 	streq	r0, [r0], #-7
    2198:	5101f300 	mrspl	pc, SP_irq	; <UNPREDICTABLE>
    219c:	00072c9f 	muleq	r7, pc, ip	; <UNPREDICTABLE>
    21a0:	00073400 	andeq	r3, r7, r0, lsl #8
    21a4:	54000100 	strpl	r0, [r0], #-256	; 0x100
	...
    21b0:	000006c4 	andeq	r0, r0, r4, asr #13
    21b4:	000006d7 	ldrdeq	r0, [r0], -r7
    21b8:	d7520001 	ldrble	r0, [r2, -r1]
    21bc:	28000006 	stmdacs	r0, {r1, r2}
    21c0:	01000007 	tsteq	r0, r7
    21c4:	07285500 	streq	r5, [r8, -r0, lsl #10]!
    21c8:	072b0000 	streq	r0, [fp, -r0]!
    21cc:	00020000 	andeq	r0, r2, r0
    21d0:	072b3070 			; <UNDEFINED> instruction: 0x072b3070
    21d4:	072c0000 	streq	r0, [ip, -r0]!
    21d8:	00040000 	andeq	r0, r4, r0
    21dc:	9f5201f3 	svcls	0x005201f3
    21e0:	0000072c 	andeq	r0, r0, ip, lsr #14
    21e4:	00000734 	andeq	r0, r0, r4, lsr r7
    21e8:	00550001 	subseq	r0, r5, r1
    21ec:	00000000 	andeq	r0, r0, r0
    21f0:	d8000000 	stmdale	r0, {}	; <UNPREDICTABLE>
    21f4:	2b000006 	blcs	2214 <_back_addr-0x14fddec>
    21f8:	01000007 	tsteq	r0, r7
    21fc:	072c5000 	streq	r5, [ip, -r0]!
    2200:	07300000 	ldreq	r0, [r0, -r0]!
    2204:	00010000 	andeq	r0, r1, r0
    2208:	00073050 	andeq	r3, r7, r0, asr r0
    220c:	00073400 	andeq	r3, r7, r0, lsl #8
    2210:	53000100 	movwpl	r0, #256	; 0x100
	...
    221c:	00000734 	andeq	r0, r0, r4, lsr r7
    2220:	00000763 	andeq	r0, r0, r3, ror #14
    2224:	63500001 	cmpvs	r0, #1
    2228:	ac000007 	stcge	0, cr0, [r0], {7}
    222c:	01000007 	tsteq	r0, r7
    2230:	07ac5800 	streq	r5, [ip, r0, lsl #16]!
    2234:	08840000 	stmeq	r4, {}	; <UNPREDICTABLE>
    2238:	00040000 	andeq	r0, r4, r0
    223c:	9f5001f3 	svcls	0x005001f3
    2240:	00000884 	andeq	r0, r0, r4, lsl #17
    2244:	00000888 	andeq	r0, r0, r8, lsl #17
    2248:	88500001 	ldmdahi	r0, {r0}^
    224c:	8c000008 	stchi	0, cr0, [r0], {8}
    2250:	04000008 	streq	r0, [r0], #-8
    2254:	5001f300 	andpl	pc, r1, r0, lsl #6
    2258:	0000009f 	muleq	r0, pc, r0	; <UNPREDICTABLE>
    225c:	00000000 	andeq	r0, r0, r0
    2260:	00073400 	andeq	r3, r7, r0, lsl #8
    2264:	00076300 	andeq	r6, r7, r0, lsl #6
    2268:	51000100 	mrspl	r0, (UNDEF: 16)
    226c:	00000763 	andeq	r0, r0, r3, ror #14
    2270:	00000884 	andeq	r0, r0, r4, lsl #17
    2274:	84560001 	ldrbhi	r0, [r6], #-1
    2278:	8c000008 	stchi	0, cr0, [r0], {8}
    227c:	01000008 	tsteq	r0, r8
    2280:	00005100 	andeq	r5, r0, r0, lsl #2
    2284:	00000000 	andeq	r0, r0, r0
    2288:	07340000 	ldreq	r0, [r4, -r0]!
    228c:	07630000 	strbeq	r0, [r3, -r0]!
    2290:	00010000 	andeq	r0, r1, r0
    2294:	00076352 	andeq	r6, r7, r2, asr r3
    2298:	00087c00 	andeq	r7, r8, r0, lsl #24
    229c:	54000100 	strpl	r0, [r0], #-256	; 0x100
    22a0:	0000087c 	andeq	r0, r0, ip, ror r8
    22a4:	00000884 	andeq	r0, r0, r4, lsl #17
    22a8:	01f30004 	mvnseq	r0, r4
    22ac:	08849f52 	stmeq	r4, {r1, r4, r6, r8, r9, sl, fp, ip, pc}
    22b0:	088c0000 	stmeq	ip, {}	; <UNPREDICTABLE>
    22b4:	00010000 	andeq	r0, r1, r0
    22b8:	00000052 	andeq	r0, r0, r2, asr r0
    22bc:	00000000 	andeq	r0, r0, r0
    22c0:	00073400 	andeq	r3, r7, r0, lsl #8
    22c4:	00076300 	andeq	r6, r7, r0, lsl #6
    22c8:	53000100 	movwpl	r0, #256	; 0x100
    22cc:	00000763 	andeq	r0, r0, r3, ror #14
    22d0:	00000884 	andeq	r0, r0, r4, lsl #17
    22d4:	84570001 	ldrbhi	r0, [r7], #-1
    22d8:	8c000008 	stchi	0, cr0, [r0], {8}
    22dc:	01000008 	tsteq	r0, r8
    22e0:	00005300 	andeq	r5, r0, r0, lsl #6
    22e4:	00000000 	andeq	r0, r0, r0
    22e8:	07640000 	strbeq	r0, [r4, -r0]!
    22ec:	07ac0000 	streq	r0, [ip, r0]!
    22f0:	00010000 	andeq	r0, r1, r0
    22f4:	0007ac50 	andeq	sl, r7, r0, asr ip
    22f8:	00087c00 	andeq	r7, r8, r0, lsl #24
    22fc:	55000100 	strpl	r0, [r0, #-256]	; 0x100
	...
    2308:	000007a4 	andeq	r0, r0, r4, lsr #15
    230c:	0000087c 	andeq	r0, r0, ip, ror r8
    2310:	00580001 	subseq	r0, r8, r1
    2314:	00000000 	andeq	r0, r0, r0
    2318:	a4000000 	strge	r0, [r0], #-0
    231c:	ac000007 	stcge	0, cr0, [r0], {7}
    2320:	02000007 	andeq	r0, r0, #7
    2324:	489f3000 	ldmmi	pc, {ip, sp}	; <UNPREDICTABLE>
    2328:	6c000008 	stcvs	0, cr0, [r0], {8}
    232c:	02000008 	andeq	r0, r0, #8
    2330:	009f3000 	addseq	r3, pc, r0
    2334:	00000000 	andeq	r0, r0, r0
    2338:	ac000000 	stcge	0, cr0, [r0], {-0}
    233c:	48000007 	stmdami	r0, {r0, r1, r2}
    2340:	01000008 	tsteq	r0, r8
    2344:	086c5400 	stmdaeq	ip!, {sl, ip, lr}^
    2348:	087c0000 	ldmdaeq	ip!, {}^	; <UNPREDICTABLE>
    234c:	00010000 	andeq	r0, r1, r0
    2350:	00000054 	andeq	r0, r0, r4, asr r0
    2354:	00000000 	andeq	r0, r0, r0
    2358:	0007ac00 	andeq	sl, r7, r0, lsl #24
    235c:	00084800 	andeq	r4, r8, r0, lsl #16
    2360:	55000100 	strpl	r0, [r0, #-256]	; 0x100
    2364:	0000086c 	andeq	r0, r0, ip, ror #16
    2368:	0000087c 	andeq	r0, r0, ip, ror r8
    236c:	00550001 	subseq	r0, r5, r1
    2370:	00000000 	andeq	r0, r0, r0
    2374:	8c000000 	stchi	0, cr0, [r0], {-0}
    2378:	af000008 	svcge	0x00000008
    237c:	01000008 	tsteq	r0, r8
    2380:	08af5000 	stmiaeq	pc!, {ip, lr}	; <UNPREDICTABLE>
    2384:	09040000 	stmdbeq	r4, {}	; <UNPREDICTABLE>
    2388:	00010000 	andeq	r0, r1, r0
    238c:	00090456 	andeq	r0, r9, r6, asr r4
    2390:	00090700 	andeq	r0, r9, r0, lsl #14
    2394:	70000200 	andvc	r0, r0, r0, lsl #4
    2398:	0009072c 	andeq	r0, r9, ip, lsr #14
    239c:	00090800 	andeq	r0, r9, r0, lsl #16
    23a0:	f3000400 	vshl.u8	d0, d0, d0
    23a4:	089f5001 	ldmeq	pc, {r0, ip, lr}	; <UNPREDICTABLE>
    23a8:	48000009 	stmdami	r0, {r0, r3}
    23ac:	01000009 	tsteq	r0, r9
    23b0:	09485600 	stmdbeq	r8, {r9, sl, ip, lr}^
    23b4:	094c0000 	stmdbeq	ip, {}^	; <UNPREDICTABLE>
    23b8:	00010000 	andeq	r0, r1, r0
    23bc:	00094c50 	andeq	r4, r9, r0, asr ip
    23c0:	00095000 	andeq	r5, r9, r0
    23c4:	f3000400 	vshl.u8	d0, d0, d0
    23c8:	509f5001 	addspl	r5, pc, r1
    23cc:	58000009 	stmdapl	r0, {r0, r3}
    23d0:	01000009 	tsteq	r0, r9
    23d4:	00005600 	andeq	r5, r0, r0, lsl #12
    23d8:	00000000 	andeq	r0, r0, r0
    23dc:	088c0000 	stmeq	ip, {}	; <UNPREDICTABLE>
    23e0:	08af0000 	stmiaeq	pc!, {}	; <UNPREDICTABLE>
    23e4:	00010000 	andeq	r0, r1, r0
    23e8:	0008af51 	andeq	sl, r8, r1, asr pc
    23ec:	00090400 	andeq	r0, r9, r0, lsl #8
    23f0:	55000100 	strpl	r0, [r0, #-256]	; 0x100
    23f4:	00000904 	andeq	r0, r0, r4, lsl #18
    23f8:	00000907 	andeq	r0, r0, r7, lsl #18
    23fc:	34700002 	ldrbtcc	r0, [r0], #-2
    2400:	00000907 	andeq	r0, r0, r7, lsl #18
    2404:	00000908 	andeq	r0, r0, r8, lsl #18
    2408:	01f30004 	mvnseq	r0, r4
    240c:	09089f51 	stmdbeq	r8, {r0, r4, r6, r8, r9, sl, fp, ip, pc}
    2410:	09480000 	stmdbeq	r8, {}^	; <UNPREDICTABLE>
    2414:	00010000 	andeq	r0, r1, r0
    2418:	00094855 	andeq	r4, r9, r5, asr r8
    241c:	00095000 	andeq	r5, r9, r0
    2420:	51000100 	mrspl	r0, (UNDEF: 16)
    2424:	00000950 	andeq	r0, r0, r0, asr r9
    2428:	00000958 	andeq	r0, r0, r8, asr r9
    242c:	00550001 	subseq	r0, r5, r1
    2430:	00000000 	andeq	r0, r0, r0
    2434:	8c000000 	stchi	0, cr0, [r0], {-0}
    2438:	af000008 	svcge	0x00000008
    243c:	01000008 	tsteq	r0, r8
    2440:	08af5200 	stmiaeq	pc!, {r9, ip, lr}	; <UNPREDICTABLE>
    2444:	09040000 	stmdbeq	r4, {}	; <UNPREDICTABLE>
    2448:	00010000 	andeq	r0, r1, r0
    244c:	00090457 	andeq	r0, r9, r7, asr r4
    2450:	00090700 	andeq	r0, r9, r0, lsl #14
    2454:	70000200 	andvc	r0, r0, r0, lsl #4
    2458:	00090730 	andeq	r0, r9, r0, lsr r7
    245c:	00090800 	andeq	r0, r9, r0, lsl #16
    2460:	f3000400 	vshl.u8	d0, d0, d0
    2464:	089f5201 	ldmeq	pc, {r0, r9, ip, lr}	; <UNPREDICTABLE>
    2468:	48000009 	stmdami	r0, {r0, r3}
    246c:	01000009 	tsteq	r0, r9
    2470:	09485700 	stmdbeq	r8, {r8, r9, sl, ip, lr}^
    2474:	09500000 	ldmdbeq	r0, {}^	; <UNPREDICTABLE>
    2478:	00010000 	andeq	r0, r1, r0
    247c:	00095052 	andeq	r5, r9, r2, asr r0
    2480:	00095800 	andeq	r5, r9, r0, lsl #16
    2484:	57000100 	strpl	r0, [r0, -r0, lsl #2]
	...
    2490:	0000088c 	andeq	r0, r0, ip, lsl #17
    2494:	000008af 	andeq	r0, r0, pc, lsr #17
    2498:	af530001 	svcge	0x00530001
    249c:	04000008 	streq	r0, [r0], #-8
    24a0:	01000009 	tsteq	r0, r9
    24a4:	09045400 	stmdbeq	r4, {sl, ip, lr}
    24a8:	09080000 	stmdbeq	r8, {}	; <UNPREDICTABLE>
    24ac:	00040000 	andeq	r0, r4, r0
    24b0:	9f5301f3 	svcls	0x005301f3
    24b4:	00000908 	andeq	r0, r0, r8, lsl #18
    24b8:	00000948 	andeq	r0, r0, r8, asr #18
    24bc:	48540001 	ldmdami	r4, {r0}^
    24c0:	50000009 	andpl	r0, r0, r9
    24c4:	01000009 	tsteq	r0, r9
    24c8:	09505300 	ldmdbeq	r0, {r8, r9, ip, lr}^
    24cc:	09580000 	ldmdbeq	r8, {}^	; <UNPREDICTABLE>
    24d0:	00010000 	andeq	r0, r1, r0
    24d4:	00000054 	andeq	r0, r0, r4, asr r0
    24d8:	00000000 	andeq	r0, r0, r0
    24dc:	0008b000 	andeq	fp, r8, r0
    24e0:	0008f800 	andeq	pc, r8, r0, lsl #16
    24e4:	50000100 	andpl	r0, r0, r0, lsl #2
    24e8:	000008f8 	strdeq	r0, [r0], -r8
    24ec:	00000907 	andeq	r0, r0, r7, lsl #18
    24f0:	085c0001 	ldmdaeq	ip, {r0}^
    24f4:	48000009 	stmdami	r0, {r0, r3}
    24f8:	01000009 	tsteq	r0, r9
    24fc:	09505000 	ldmdbeq	r0, {ip, lr}^
    2500:	09540000 	ldmdbeq	r4, {}^	; <UNPREDICTABLE>
    2504:	00010000 	andeq	r0, r1, r0
    2508:	00095450 	andeq	r5, r9, r0, asr r4
    250c:	00095800 	andeq	r5, r9, r0, lsl #16
    2510:	5c000100 	stfpls	f0, [r0], {-0}
	...
    251c:	00000958 	andeq	r0, r0, r8, asr r9
    2520:	00000973 	andeq	r0, r0, r3, ror r9
    2524:	73500001 	cmpvc	r0, #1
    2528:	3c000009 	stccc	0, cr0, [r0], {9}
    252c:	0100000a 	tsteq	r0, sl
    2530:	0a3c5400 	beq	f17538 <_back_addr-0x5e8ac8>
    2534:	0abc0000 	beq	fef0253c <__bss_end__+0xfd9ee9fc>
    2538:	00040000 	andeq	r0, r4, r0
    253c:	9f5001f3 	svcls	0x005001f3
    2540:	00000abc 			; <UNDEFINED> instruction: 0x00000abc
    2544:	00000ad4 	ldrdeq	r0, [r0], -r4
    2548:	00540001 	subseq	r0, r4, r1
    254c:	00000000 	andeq	r0, r0, r0
    2550:	58000000 	stmdapl	r0, {}	; <UNPREDICTABLE>
    2554:	73000009 	movwvc	r0, #9
    2558:	01000009 	tsteq	r0, r9
    255c:	09735100 	ldmdbeq	r3!, {r8, ip, lr}^
    2560:	0a100000 	beq	402568 <_back_addr-0x10fda98>
    2564:	00010000 	andeq	r0, r1, r0
    2568:	000a1055 	andeq	r1, sl, r5, asr r0
    256c:	000abc00 	andeq	fp, sl, r0, lsl #24
    2570:	f3000400 	vshl.u8	d0, d0, d0
    2574:	bc9f5101 	ldflts	f5, [pc], {1}
    2578:	d400000a 	strle	r0, [r0], #-10
    257c:	0100000a 	tsteq	r0, sl
    2580:	00005500 	andeq	r5, r0, r0, lsl #10
    2584:	00000000 	andeq	r0, r0, r0
    2588:	09580000 	ldmdbeq	r8, {}^	; <UNPREDICTABLE>
    258c:	09730000 	ldmdbeq	r3!, {}^	; <UNPREDICTABLE>
    2590:	00010000 	andeq	r0, r1, r0
    2594:	00097352 	andeq	r7, r9, r2, asr r3
    2598:	000ad400 	andeq	sp, sl, r0, lsl #8
    259c:	56000100 	strpl	r0, [r0], -r0, lsl #2
	...
    25a8:	00000958 	andeq	r0, r0, r8, asr r9
    25ac:	00000a44 	andeq	r0, r0, r4, asr #20
    25b0:	9f300002 	svcls	0x00300002
    25b4:	00000a44 	andeq	r0, r0, r4, asr #20
    25b8:	00000a48 	andeq	r0, r0, r8, asr #20
    25bc:	ea0a0007 	b	2825e0 <_back_addr-0x127da20>
    25c0:	1c007403 	cfstrsne	mvf7, [r0], {3}
    25c4:	000a489f 	muleq	sl, pc, r8	; <UNPREDICTABLE>
    25c8:	000a4c00 	andeq	r4, sl, r0, lsl #24
    25cc:	0a000700 	beq	41d4 <_back_addr-0x14fbe2c>
    25d0:	007403e9 	rsbseq	r0, r4, r9, ror #7
    25d4:	0a4c9f1c 	beq	132a24c <_back_addr-0x1d5db4>
    25d8:	0a600000 	beq	18025e0 <__bss_end__+0x2eeaa0>
    25dc:	00070000 	andeq	r0, r7, r0
    25e0:	7403ea0a 	strvc	lr, [r3], #-2570	; 0xa0a
    25e4:	a49f1c00 	ldrge	r1, [pc], #3072	; 25ec <_back_addr-0x14fda14>
    25e8:	bc00000a 	stclt	0, cr0, [r0], {10}
    25ec:	0700000a 	streq	r0, [r0, -sl]
    25f0:	03e90a00 	mvneq	r0, #0, 20
    25f4:	9f1c0074 	svcls	0x001c0074
    25f8:	00000abc 			; <UNDEFINED> instruction: 0x00000abc
    25fc:	00000ad4 	ldrdeq	r0, [r0], -r4
    2600:	9f300002 	svcls	0x00300002
	...
    260c:	00000a20 	andeq	r0, r0, r0, lsr #20
    2610:	00000a24 	andeq	r0, r0, r4, lsr #20
    2614:	80740025 	rsbshi	r0, r4, r5, lsr #32
    2618:	24480604 	strbcs	r0, [r8], #-1540	; 0x604
    261c:	06048074 			; <UNDEFINED> instruction: 0x06048074
    2620:	74212548 	strtvc	r2, [r1], #-1352	; 0x548
    2624:	08060480 	stmdaeq	r6, {r7, sl}
    2628:	1a2440ff 	bne	912a2c <_back_addr-0xbed5d4>
    262c:	74212538 	strtvc	r2, [r1], #-1336	; 0x538
    2630:	0a060480 	beq	183838 <_back_addr-0x137c7c8>
    2634:	381aff00 	ldmdacc	sl, {r8, r9, sl, fp, ip, sp, lr, pc}
    2638:	009f2124 	addseq	r2, pc, r4, lsr #2
    263c:	00000000 	andeq	r0, r0, r0
    2640:	20000000 	andcs	r0, r0, r0
    2644:	bc00000a 	stclt	0, cr0, [r0], {10}
    2648:	0600000a 	streq	r0, [r0], -sl
    264c:	84049e00 	strhi	r9, [r4], #-3584	; 0xe00
    2650:	009804cf 	addseq	r0, r8, pc, asr #9
    2654:	00000000 	andeq	r0, r0, r0
    2658:	24000000 	strcs	r0, [r0], #-0
    265c:	bc00000a 	stclt	0, cr0, [r0], {10}
    2660:	0600000a 	streq	r0, [r0], -sl
    2664:	88049e00 	stmdahi	r4, {r9, sl, fp, ip, pc}
    2668:	009804cf 	addseq	r0, r8, pc, asr #9
    266c:	00000000 	andeq	r0, r0, r0
    2670:	2c000000 	stccs	0, cr0, [r0], {-0}
    2674:	3400000a 	strcc	r0, [r0], #-10
    2678:	0100000a 	tsteq	r0, sl
    267c:	0a345300 	beq	d17284 <_back_addr-0x7e8d7c>
    2680:	0a440000 	beq	1102688 <_back_addr-0x3fd978>
    2684:	00030000 	andeq	r0, r3, r0
    2688:	001f8875 	andseq	r8, pc, r5, ror r8	; <UNPREDICTABLE>
    268c:	00000000 	andeq	r0, r0, r0
    2690:	2c000000 	stccs	0, cr0, [r0], {-0}
    2694:	bc00000a 	stclt	0, cr0, [r0], {10}
    2698:	0600000a 	streq	r0, [r0], -sl
    269c:	88049e00 	stmdahi	r4, {r9, sl, fp, ip, pc}
    26a0:	009804cf 	addseq	r0, r8, pc, asr #9
    26a4:	00000000 	andeq	r0, r0, r0
    26a8:	30000000 	andcc	r0, r0, r0
    26ac:	bc00000a 	stclt	0, cr0, [r0], {10}
    26b0:	0600000a 	streq	r0, [r0], -sl
    26b4:	0c049e00 	stceq	14, cr9, [r4], {-0}
    26b8:	009804cf 	addseq	r0, r8, pc, asr #9
    26bc:	00000000 	andeq	r0, r0, r0
    26c0:	d4000000 	strle	r0, [r0], #-0
    26c4:	e400000a 	str	r0, [r0], #-10
    26c8:	0100000a 	tsteq	r0, sl
    26cc:	0ae45000 	beq	ff9166d4 <__bss_end__+0xfe402b94>
    26d0:	0ae80000 	beq	ffa026d8 <__bss_end__+0xfe4eeb98>
    26d4:	00040000 	andeq	r0, r4, r0
    26d8:	9f5001f3 	svcls	0x005001f3
    26dc:	00000ae8 	andeq	r0, r0, r8, ror #21
    26e0:	00000aff 	strdeq	r0, [r0], -pc	; <UNPREDICTABLE>
    26e4:	ff500001 			; <UNDEFINED> instruction: 0xff500001
    26e8:	6c00000a 	stcvs	0, cr0, [r0], {10}
    26ec:	0100000b 	tsteq	r0, fp
    26f0:	0b6c5600 	bleq	1b17ef8 <__bss_end__+0x6043b8>
    26f4:	0b6f0000 	bleq	1bc26fc <__bss_end__+0x6aebbc>
    26f8:	00020000 	andeq	r0, r2, r0
    26fc:	0b6f2c70 	bleq	1bcd8c4 <__bss_end__+0x6b9d84>
    2700:	0b700000 	bleq	1c02708 <__bss_end__+0x6eebc8>
    2704:	00040000 	andeq	r0, r4, r0
    2708:	9f5001f3 	svcls	0x005001f3
    270c:	00000b70 	andeq	r0, r0, r0, ror fp
    2710:	00000bdc 	ldrdeq	r0, [r0], -ip
    2714:	00560001 	subseq	r0, r6, r1
    2718:	00000000 	andeq	r0, r0, r0
    271c:	d4000000 	strle	r0, [r0], #-0
    2720:	ff00000a 			; <UNDEFINED> instruction: 0xff00000a
    2724:	0100000a 	tsteq	r0, sl
    2728:	0aff5100 	beq	fffd6b30 <__bss_end__+0xfeac2ff0>
    272c:	0b6c0000 	bleq	1b02734 <__bss_end__+0x5eebf4>
    2730:	00010000 	andeq	r0, r1, r0
    2734:	000b6c55 	andeq	r6, fp, r5, asr ip
    2738:	000b6f00 	andeq	r6, fp, r0, lsl #30
    273c:	70000200 	andvc	r0, r0, r0, lsl #4
    2740:	000b6f34 	andeq	r6, fp, r4, lsr pc
    2744:	000b7000 	andeq	r7, fp, r0
    2748:	f3000400 	vshl.u8	d0, d0, d0
    274c:	709f5101 	addsvc	r5, pc, r1, lsl #2
    2750:	dc00000b 	stcle	0, cr0, [r0], {11}
    2754:	0100000b 	tsteq	r0, fp
    2758:	00005500 	andeq	r5, r0, r0, lsl #10
    275c:	00000000 	andeq	r0, r0, r0
    2760:	0ad40000 	beq	ff502768 <__bss_end__+0xfdfeec28>
    2764:	0aff0000 	beq	fffc276c <__bss_end__+0xfeaaec2c>
    2768:	00010000 	andeq	r0, r1, r0
    276c:	000aff52 	andeq	pc, sl, r2, asr pc	; <UNPREDICTABLE>
    2770:	000b6c00 	andeq	r6, fp, r0, lsl #24
    2774:	57000100 	strpl	r0, [r0, -r0, lsl #2]
    2778:	00000b6c 	andeq	r0, r0, ip, ror #22
    277c:	00000b6f 	andeq	r0, r0, pc, ror #22
    2780:	30700002 	rsbscc	r0, r0, r2
    2784:	00000b6f 	andeq	r0, r0, pc, ror #22
    2788:	00000b70 	andeq	r0, r0, r0, ror fp
    278c:	01f30004 	mvnseq	r0, r4
    2790:	0b709f52 	bleq	1c2a4e0 <__bss_end__+0x7169a0>
    2794:	0bdc0000 	bleq	ff70279c <__bss_end__+0xfe1eec5c>
    2798:	00010000 	andeq	r0, r1, r0
    279c:	00000057 	andeq	r0, r0, r7, asr r0
    27a0:	00000000 	andeq	r0, r0, r0
    27a4:	000ad400 	andeq	sp, sl, r0, lsl #8
    27a8:	000aff00 	andeq	pc, sl, r0, lsl #30
    27ac:	53000100 	movwpl	r0, #256	; 0x100
    27b0:	00000aff 	strdeq	r0, [r0], -pc	; <UNPREDICTABLE>
    27b4:	00000b6c 	andeq	r0, r0, ip, ror #22
    27b8:	6c540001 	mrrcvs	0, 0, r0, r4, cr1
    27bc:	7000000b 	andvc	r0, r0, fp
    27c0:	0400000b 	streq	r0, [r0], #-11
    27c4:	5301f300 	movwpl	pc, #4864	; 0x1300	; <UNPREDICTABLE>
    27c8:	000b709f 	muleq	fp, pc, r0	; <UNPREDICTABLE>
    27cc:	000bdc00 	andeq	sp, fp, r0, lsl #24
    27d0:	54000100 	strpl	r0, [r0], #-256	; 0x100
	...
    27dc:	00000b00 	andeq	r0, r0, r0, lsl #22
    27e0:	00000b60 	andeq	r0, r0, r0, ror #22
    27e4:	60500001 	subsvs	r0, r0, r1
    27e8:	6f00000b 	svcvs	0x0000000b
    27ec:	0100000b 	tsteq	r0, fp
    27f0:	0b705c00 	bleq	1c197f8 <__bss_end__+0x705cb8>
    27f4:	0b740000 	bleq	1d027fc <__bss_end__+0x7eecbc>
    27f8:	00010000 	andeq	r0, r1, r0
    27fc:	000b7450 	andeq	r7, fp, r0, asr r4
    2800:	000b7800 	andeq	r7, fp, r0, lsl #16
    2804:	5c000100 	stfpls	f0, [r0], {-0}
    2808:	00000b78 	andeq	r0, r0, r8, ror fp
    280c:	00000bdc 	ldrdeq	r0, [r0], -ip
    2810:	00500001 	subseq	r0, r0, r1
    2814:	00000000 	andeq	r0, r0, r0
    2818:	dc000000 	stcle	0, cr0, [r0], {-0}
    281c:	e800000b 	stmda	r0, {r0, r1, r3}
    2820:	0100000b 	tsteq	r0, fp
    2824:	0be85000 	bleq	ffa1682c <__bss_end__+0xfe502cec>
    2828:	0c040000 	stceq	0, cr0, [r4], {-0}
    282c:	00040000 	andeq	r0, r4, r0
    2830:	9f7f807c 	svcls	0x007f807c
	...
    283c:	00000bdc 	ldrdeq	r0, [r0], -ip
    2840:	00000be8 	andeq	r0, r0, r8, ror #23
    2844:	9f300002 	svcls	0x00300002
    2848:	00000be8 	andeq	r0, r0, r8, ror #23
    284c:	00000bf0 	strdeq	r0, [r0], -r0	; <UNPREDICTABLE>
    2850:	00720009 	rsbseq	r0, r2, r9
    2854:	231c007c 	tstcs	ip, #124	; 0x7c
    2858:	f09f0181 			; <UNDEFINED> instruction: 0xf09f0181
    285c:	fc00000b 	stc2	0, cr0, [r0], {11}
    2860:	0900000b 	stmdbeq	r0, {r0, r1, r3}
    2864:	7c007200 	sfmvc	f7, 4, [r0], {-0}
    2868:	80231c00 	eorhi	r1, r3, r0, lsl #24
    286c:	0bfc9f01 	bleq	fff2a478 <__bss_end__+0xfea16938>
    2870:	0c040000 	stceq	0, cr0, [r4], {-0}
    2874:	00090000 	andeq	r0, r9, r0
    2878:	007c0072 	rsbseq	r0, ip, r2, ror r0
    287c:	0181231c 	orreq	r2, r1, ip, lsl r3
    2880:	0000009f 	muleq	r0, pc, r0	; <UNPREDICTABLE>
	...
    288c:	00001800 	andeq	r1, r0, r0, lsl #16
    2890:	50000100 	andpl	r0, r0, r0, lsl #2
    2894:	00000018 	andeq	r0, r0, r8, lsl r0
    2898:	000001bc 			; <UNDEFINED> instruction: 0x000001bc
    289c:	01f30004 	mvnseq	r0, r4
    28a0:	00009f50 	andeq	r9, r0, r0, asr pc
	...
    28ac:	00140000 	andseq	r0, r4, r0
    28b0:	00010000 	andeq	r0, r1, r0
    28b4:	00001451 	andeq	r1, r0, r1, asr r4
    28b8:	0001bc00 	andeq	fp, r1, r0, lsl #24
    28bc:	56000100 	strpl	r0, [r0], -r0, lsl #2
	...
    28cc:	00000027 	andeq	r0, r0, r7, lsr #32
    28d0:	27520001 	ldrbcs	r0, [r2, -r1]
    28d4:	bc000000 	stclt	0, cr0, [r0], {-0}
    28d8:	01000001 	tsteq	r0, r1
    28dc:	00005500 	andeq	r5, r0, r0, lsl #10
	...
    28e8:	00d40000 	sbcseq	r0, r4, r0
    28ec:	00020000 	andeq	r0, r2, r0
    28f0:	01589f30 	cmpeq	r8, r0, lsr pc
    28f4:	01ac0000 			; <UNDEFINED> instruction: 0x01ac0000
    28f8:	00020000 	andeq	r0, r2, r0
    28fc:	00009f30 	andeq	r9, r0, r0, lsr pc
    2900:	00000000 	andeq	r0, r0, r0
    2904:	01bc0000 			; <UNDEFINED> instruction: 0x01bc0000
    2908:	01dc0000 	bicseq	r0, ip, r0
    290c:	00010000 	andeq	r0, r1, r0
    2910:	0001dc50 	andeq	sp, r1, r0, asr ip
    2914:	0002b000 	andeq	fp, r2, r0
    2918:	56000100 	strpl	r0, [r0], -r0, lsl #2
	...
    2924:	000001bc 			; <UNDEFINED> instruction: 0x000001bc
    2928:	000001dc 	ldrdeq	r0, [r0], -ip
    292c:	dc510001 	mrrcle	0, 0, r0, r1, cr1
    2930:	b0000001 	andlt	r0, r0, r1
    2934:	01000002 	tsteq	r0, r2
    2938:	00005700 	andeq	r5, r0, r0, lsl #14
    293c:	00000000 	andeq	r0, r0, r0
    2940:	01bc0000 			; <UNDEFINED> instruction: 0x01bc0000
    2944:	01dc0000 	bicseq	r0, ip, r0
    2948:	00010000 	andeq	r0, r1, r0
    294c:	0001dc52 	andeq	sp, r1, r2, asr ip
    2950:	0002b000 	andeq	fp, r2, r0
    2954:	55000100 	strpl	r0, [r0, #-256]	; 0x100
	...
    2960:	000001bc 			; <UNDEFINED> instruction: 0x000001bc
    2964:	000001dc 	ldrdeq	r0, [r0], -ip
    2968:	9f300002 	svcls	0x00300002
    296c:	00000234 	andeq	r0, r0, r4, lsr r2
    2970:	0000025c 	andeq	r0, r0, ip, asr r2
    2974:	9f300002 	svcls	0x00300002
	...
    2980:	000002b0 			; <UNDEFINED> instruction: 0x000002b0
    2984:	000002f0 	strdeq	r0, [r0], -r0	; <UNPREDICTABLE>
    2988:	f0500001 			; <UNDEFINED> instruction: 0xf0500001
    298c:	c0000002 	andgt	r0, r0, r2
    2990:	01000003 	tsteq	r0, r3
    2994:	03c05400 	biceq	r5, r0, #0, 8
    2998:	03c80000 	biceq	r0, r8, #0
    299c:	00040000 	andeq	r0, r4, r0
    29a0:	9f5001f3 	svcls	0x005001f3
    29a4:	000003c8 	andeq	r0, r0, r8, asr #7
    29a8:	000003e0 	andeq	r0, r0, r0, ror #7
    29ac:	e0540001 	subs	r0, r4, r1
    29b0:	0c000003 	stceq	0, cr0, [r0], {3}
    29b4:	04000006 	streq	r0, [r0], #-6
    29b8:	5001f300 	andpl	pc, r1, r0, lsl #6
    29bc:	00060c9f 	muleq	r6, pc, ip	; <UNPREDICTABLE>
    29c0:	00064000 	andeq	r4, r6, r0
    29c4:	54000100 	strpl	r0, [r0], #-256	; 0x100
    29c8:	00000640 	andeq	r0, r0, r0, asr #12
    29cc:	00000934 	andeq	r0, r0, r4, lsr r9
    29d0:	01f30004 	mvnseq	r0, r4
    29d4:	00009f50 	andeq	r9, r0, r0, asr pc
    29d8:	00000000 	andeq	r0, r0, r0
    29dc:	02b00000 	adcseq	r0, r0, #0
    29e0:	03080000 	movweq	r0, #32768	; 0x8000
    29e4:	00010000 	andeq	r0, r1, r0
    29e8:	00030851 	andeq	r0, r3, r1, asr r8
    29ec:	00093400 	andeq	r3, r9, r0, lsl #8
    29f0:	59000100 	stmdbpl	r0, {r8}
	...
    29fc:	000002b0 			; <UNDEFINED> instruction: 0x000002b0
    2a00:	0000030c 	andeq	r0, r0, ip, lsl #6
    2a04:	0c520001 	mrrceq	0, 0, r0, r2, cr1
    2a08:	34000003 	strcc	r0, [r0], #-3
    2a0c:	01000009 	tsteq	r0, r9
    2a10:	00005a00 	andeq	r5, r0, r0, lsl #20
    2a14:	00000000 	andeq	r0, r0, r0
    2a18:	02b00000 	adcseq	r0, r0, #0
    2a1c:	03140000 	tsteq	r4, #0
    2a20:	00010000 	andeq	r0, r1, r0
    2a24:	00031453 	andeq	r1, r3, r3, asr r4
    2a28:	00093400 	andeq	r3, r9, r0, lsl #8
    2a2c:	5b000100 	blpl	2e34 <_back_addr-0x14fd1cc>
	...
    2a38:	000002b0 			; <UNDEFINED> instruction: 0x000002b0
    2a3c:	000003c0 	andeq	r0, r0, r0, asr #7
    2a40:	04910002 	ldreq	r0, [r1], #2
    2a44:	000003c8 	andeq	r0, r0, r8, asr #7
    2a48:	000003e0 	andeq	r0, r0, r0, ror #7
    2a4c:	04910002 	ldreq	r0, [r1], #2
    2a50:	000003e0 	andeq	r0, r0, r0, ror #7
    2a54:	0000060c 	andeq	r0, r0, ip, lsl #12
    2a58:	0c540001 	mrrceq	0, 0, r0, r4, cr1
    2a5c:	44000006 	strmi	r0, [r0], #-6
    2a60:	02000006 	andeq	r0, r0, #6
    2a64:	44049100 	strmi	r9, [r4], #-256	; 0x100
    2a68:	28000006 	stmdacs	r0, {r1, r2}
    2a6c:	01000009 	tsteq	r0, r9
    2a70:	09285400 	stmdbeq	r8!, {sl, ip, lr}
    2a74:	09340000 	ldmdbeq	r4!, {}	; <UNPREDICTABLE>
    2a78:	00070000 	andeq	r0, r7, r0
    2a7c:	09067c91 	stmdbeq	r6, {r0, r4, r7, sl, fp, ip, sp, lr}
    2a80:	009f1af0 			; <UNDEFINED> instruction: 0x009f1af0
    2a84:	00000000 	andeq	r0, r0, r0
    2a88:	b0000000 	andlt	r0, r0, r0
    2a8c:	c0000002 	andgt	r0, r0, r2
    2a90:	02000003 	andeq	r0, r0, #3
    2a94:	c89f3100 	ldmgt	pc, {r8, ip, sp}	; <UNPREDICTABLE>
    2a98:	fc000003 	stc2	0, cr0, [r0], {3}
    2a9c:	02000003 	andeq	r0, r0, #3
    2aa0:	f49f3100 			; <UNDEFINED> instruction: 0xf49f3100
    2aa4:	f7000005 			; <UNDEFINED> instruction: 0xf7000005
    2aa8:	01000005 	tsteq	r0, r5
    2aac:	05f75000 	ldrbeq	r5, [r7, #0]!
    2ab0:	060c0000 	streq	r0, [ip], -r0
    2ab4:	00010000 	andeq	r0, r1, r0
    2ab8:	00060c56 	andeq	r0, r6, r6, asr ip
    2abc:	0006d800 	andeq	sp, r6, r0, lsl #16
    2ac0:	31000200 	mrscc	r0, R8_usr
    2ac4:	0008189f 	muleq	r8, pc, r8	; <UNPREDICTABLE>
    2ac8:	00082000 	andeq	r2, r8, r0
    2acc:	50000100 	andpl	r0, r0, r0, lsl #2
    2ad0:	00000820 	andeq	r0, r0, r0, lsr #16
    2ad4:	00000834 	andeq	r0, r0, r4, lsr r8
    2ad8:	34570001 	ldrbcc	r0, [r7], #-1
    2adc:	48000008 	stmdami	r0, {r3}
    2ae0:	01000008 	tsteq	r0, r8
    2ae4:	08785600 	ldmdaeq	r8!, {r9, sl, ip, lr}^
    2ae8:	087b0000 	ldmdaeq	fp!, {}^	; <UNPREDICTABLE>
    2aec:	00010000 	andeq	r0, r1, r0
    2af0:	00087b50 	andeq	r7, r8, r0, asr fp
    2af4:	00089800 	andeq	r9, r8, r0, lsl #16
    2af8:	56000100 	strpl	r0, [r0], -r0, lsl #2
    2afc:	000008c8 	andeq	r0, r0, r8, asr #17
    2b00:	000008cb 	andeq	r0, r0, fp, asr #17
    2b04:	cb500001 	blgt	1402b10 <_back_addr-0xfd4f0>
    2b08:	28000008 	stmdacs	r0, {r3}
    2b0c:	01000009 	tsteq	r0, r9
    2b10:	09285500 	stmdbeq	r8!, {r8, sl, ip, lr}
    2b14:	092b0000 	stmdbeq	fp!, {}	; <UNPREDICTABLE>
    2b18:	00010000 	andeq	r0, r1, r0
    2b1c:	00092b50 	andeq	r2, r9, r0, asr fp
    2b20:	00093400 	andeq	r3, r9, r0, lsl #8
    2b24:	54000100 	strpl	r0, [r0], #-256	; 0x100
	...
    2b30:	00000318 	andeq	r0, r0, r8, lsl r3
    2b34:	00000344 	andeq	r0, r0, r4, asr #6
    2b38:	9f300002 	svcls	0x00300002
    2b3c:	00000344 	andeq	r0, r0, r4, asr #6
    2b40:	000003c0 	andeq	r0, r0, r0, asr #7
    2b44:	c8550001 	ldmdagt	r5, {r0}^
    2b48:	0c000003 	stceq	0, cr0, [r0], {3}
    2b4c:	01000006 	tsteq	r0, r6
    2b50:	060c5500 	streq	r5, [ip], -r0, lsl #10
    2b54:	062c0000 	strteq	r0, [ip], -r0
    2b58:	00010000 	andeq	r0, r1, r0
    2b5c:	00062c59 	andeq	r2, r6, r9, asr ip
    2b60:	0008c800 	andeq	ip, r8, r0, lsl #16
    2b64:	55000100 	strpl	r0, [r0, #-256]	; 0x100
	...
    2b70:	00000934 	andeq	r0, r0, r4, lsr r9
    2b74:	00000b50 	andeq	r0, r0, r0, asr fp
    2b78:	9f300002 	svcls	0x00300002
    2b7c:	00000b50 	andeq	r0, r0, r0, asr fp
    2b80:	00000b94 	muleq	r0, r4, fp
    2b84:	74350005 	ldrtvc	r0, [r5], #-5
    2b88:	949f1c00 	ldrls	r1, [pc], #3072	; 2b90 <_back_addr-0x14fd470>
    2b8c:	9800000b 	stmdals	r0, {r0, r1, r3}
    2b90:	0500000b 	streq	r0, [r0, #-11]
    2b94:	00743600 	rsbseq	r3, r4, r0, lsl #12
    2b98:	0b989f1c 	bleq	fe62a810 <__bss_end__+0xfd116cd0>
    2b9c:	0ba80000 	bleq	fea02ba4 <__bss_end__+0xfd4ef064>
    2ba0:	00050000 	andeq	r0, r5, r0
    2ba4:	1c007435 	cfstrsne	mvf7, [r0], {53}	; 0x35
    2ba8:	000be89f 	muleq	fp, pc, r8	; <UNPREDICTABLE>
    2bac:	000bf800 	andeq	pc, fp, r0, lsl #16
    2bb0:	35000500 	strcc	r0, [r0, #-1280]	; 0x500
    2bb4:	9f1c0074 	svcls	0x001c0074
	...
    2bc4:	0000000c 	andeq	r0, r0, ip
    2bc8:	0c500001 	mrrceq	0, 0, r0, r0, cr1	; <UNPREDICTABLE>
    2bcc:	10000000 	andne	r0, r0, r0
    2bd0:	04000000 	streq	r0, [r0], #-0
    2bd4:	5001f300 	andpl	pc, r1, r0, lsl #6
    2bd8:	0000109f 	muleq	r0, pc, r0	; <UNPREDICTABLE>
    2bdc:	00002c00 	andeq	r2, r0, r0, lsl #24
    2be0:	50000100 	andpl	r0, r0, r0, lsl #2
    2be4:	0000002c 	andeq	r0, r0, ip, lsr #32
    2be8:	00000048 	andeq	r0, r0, r8, asr #32
    2bec:	7f700003 	svcvc	0x00700003
    2bf0:	0000489f 	muleq	r0, pc, r8	; <UNPREDICTABLE>
    2bf4:	00005800 	andeq	r5, r0, r0, lsl #16
    2bf8:	f3000400 	vshl.u8	d0, d0, d0
    2bfc:	009f5001 	addseq	r5, pc, r1
    2c00:	00000000 	andeq	r0, r0, r0
    2c04:	10000000 	andne	r0, r0, r0
    2c08:	2c000000 	stccs	0, cr0, [r0], {-0}
    2c0c:	01000000 	mrseq	r0, (UNDEF: 0)
    2c10:	002c5000 	eoreq	r5, ip, r0
    2c14:	00480000 	subeq	r0, r8, r0
    2c18:	00030000 	andeq	r0, r3, r0
    2c1c:	489f7f70 	ldmmi	pc, {r4, r5, r6, r8, r9, sl, fp, ip, sp, lr}	; <UNPREDICTABLE>
    2c20:	58000000 	stmdapl	r0, {}	; <UNPREDICTABLE>
    2c24:	04000000 	streq	r0, [r0], #-0
    2c28:	5001f300 	andpl	pc, r1, r0, lsl #6
    2c2c:	0000009f 	muleq	r0, pc, r0	; <UNPREDICTABLE>
    2c30:	00000000 	andeq	r0, r0, r0
    2c34:	00005800 	andeq	r5, r0, r0, lsl #16
    2c38:	00007000 	andeq	r7, r0, r0
    2c3c:	50000100 	andpl	r0, r0, r0, lsl #2
    2c40:	00000070 	andeq	r0, r0, r0, ror r0
    2c44:	00000084 	andeq	r0, r0, r4, lsl #1
    2c48:	01f30004 	mvnseq	r0, r4
    2c4c:	00009f50 	andeq	r9, r0, r0, asr pc
    2c50:	00000000 	andeq	r0, r0, r0
    2c54:	00840000 	addeq	r0, r4, r0
    2c58:	00900000 	addseq	r0, r0, r0
    2c5c:	00010000 	andeq	r0, r1, r0
    2c60:	00009050 	andeq	r9, r0, r0, asr r0
    2c64:	00009400 	andeq	r9, r0, r0, lsl #8
    2c68:	f3000400 	vshl.u8	d0, d0, d0
    2c6c:	949f5001 	ldrls	r5, [pc], #1	; 2c74 <_back_addr-0x14fd38c>
    2c70:	a0000000 	andge	r0, r0, r0
    2c74:	01000000 	mrseq	r0, (UNDEF: 0)
    2c78:	00a05000 	adceq	r5, r0, r0
    2c7c:	00b40000 	adcseq	r0, r4, r0
    2c80:	00040000 	andeq	r0, r4, r0
    2c84:	9f5001f3 	svcls	0x005001f3
	...
    2c90:	00000094 	muleq	r0, r4, r0
    2c94:	000000a0 	andeq	r0, r0, r0, lsr #1
    2c98:	a0500001 	subsge	r0, r0, r1
    2c9c:	ac000000 	stcge	0, cr0, [r0], {-0}
    2ca0:	03000000 	movweq	r0, #0
    2ca4:	9f7f7000 	svcls	0x007f7000
    2ca8:	000000ac 	andeq	r0, r0, ip, lsr #1
    2cac:	000000b4 	strheq	r0, [r0], -r4
    2cb0:	01f30004 	mvnseq	r0, r4
    2cb4:	00009f50 	andeq	r9, r0, r0, asr pc
    2cb8:	00000000 	andeq	r0, r0, r0
    2cbc:	00b40000 	adcseq	r0, r4, r0
    2cc0:	00c80000 	sbceq	r0, r8, r0
    2cc4:	00010000 	andeq	r0, r1, r0
    2cc8:	0000c850 	andeq	ip, r0, r0, asr r8
    2ccc:	00011000 	andeq	r1, r1, r0
    2cd0:	f3000400 	vshl.u8	d0, d0, d0
    2cd4:	009f5001 	addseq	r5, pc, r1
    2cd8:	00000000 	andeq	r0, r0, r0
    2cdc:	b4000000 	strlt	r0, [r0], #-0
    2ce0:	ec000000 	stc	0, cr0, [r0], {-0}
    2ce4:	02000000 	andeq	r0, r0, #0
    2ce8:	ec9f3000 	ldc	0, cr3, [pc], {0}
    2cec:	10000000 	andne	r0, r0, r0
    2cf0:	01000001 	tsteq	r0, r1
    2cf4:	00005100 	andeq	r5, r0, r0, lsl #2
    2cf8:	00000000 	andeq	r0, r0, r0
    2cfc:	01100000 	tsteq	r0, r0
    2d00:	01200000 	teqeq	r0, r0
    2d04:	00010000 	andeq	r0, r1, r0
    2d08:	00012050 	andeq	r2, r1, r0, asr r0
    2d0c:	00016800 	andeq	r6, r1, r0, lsl #16
    2d10:	f3000400 	vshl.u8	d0, d0, d0
    2d14:	009f5001 	addseq	r5, pc, r1
    2d18:	00000000 	andeq	r0, r0, r0
    2d1c:	10000000 	andne	r0, r0, r0
    2d20:	44000001 	strmi	r0, [r0], #-1
    2d24:	02000001 	andeq	r0, r0, #1
    2d28:	449f3000 	ldrmi	r3, [pc], #0	; 2d30 <_back_addr-0x14fd2d0>
    2d2c:	68000001 	stmdavs	r0, {r0}
    2d30:	01000001 	tsteq	r0, r1
    2d34:	00005100 	andeq	r5, r0, r0, lsl #2
    2d38:	00000000 	andeq	r0, r0, r0
    2d3c:	002c0000 	eoreq	r0, ip, r0
    2d40:	003c0000 	eorseq	r0, ip, r0
    2d44:	00090000 	andeq	r0, r9, r0
    2d48:	ff110072 			; <UNDEFINED> instruction: 0xff110072
    2d4c:	1a78809f 	bne	1e22fd0 <__bss_end__+0x90f490>
    2d50:	0000009f 	muleq	r0, pc, r0	; <UNPREDICTABLE>
    2d54:	00000000 	andeq	r0, r0, r0
    2d58:	00009800 	andeq	r9, r0, r0, lsl #16
    2d5c:	0000b400 	andeq	fp, r0, r0, lsl #8
    2d60:	50000100 	andpl	r0, r0, r0, lsl #2
    2d64:	000000b4 	strheq	r0, [r0], -r4
    2d68:	000000d8 	ldrdeq	r0, [r0], -r8
    2d6c:	01700003 	cmneq	r0, r3
    2d70:	0000d89f 	muleq	r0, pc, r8	; <UNPREDICTABLE>
    2d74:	0000e400 	andeq	lr, r0, r0, lsl #8
    2d78:	50000100 	andpl	r0, r0, r0, lsl #2
    2d7c:	000000e4 	andeq	r0, r0, r4, ror #1
    2d80:	00000100 	andeq	r0, r0, r0, lsl #2
    2d84:	01700003 	cmneq	r0, r3
    2d88:	0000009f 	muleq	r0, pc, r0	; <UNPREDICTABLE>
    2d8c:	00000000 	andeq	r0, r0, r0
    2d90:	0000b400 	andeq	fp, r0, r0, lsl #8
    2d94:	0000c000 	andeq	ip, r0, r0
    2d98:	53000100 	movwpl	r0, #256	; 0x100
    2d9c:	000000f8 	strdeq	r0, [r0], -r8
    2da0:	000000fc 	strdeq	r0, [r0], -ip
    2da4:	9f3a0002 	svcls	0x003a0002
	...
    2db0:	00000100 	andeq	r0, r0, r0, lsl #2
    2db4:	00000128 	andeq	r0, r0, r8, lsr #2
    2db8:	28500001 	ldmdacs	r0, {r0}^
    2dbc:	58000001 	stmdapl	r0, {r0}
    2dc0:	01000001 	tsteq	r0, r1
    2dc4:	01585500 	cmpeq	r8, r0, lsl #10
    2dc8:	015c0000 	cmpeq	ip, r0
    2dcc:	00040000 	andeq	r0, r4, r0
    2dd0:	9f5001f3 	svcls	0x005001f3
    2dd4:	0000015c 	andeq	r0, r0, ip, asr r1
    2dd8:	00000160 	andeq	r0, r0, r0, ror #2
    2ddc:	00500001 	subseq	r0, r0, r1
	...
    2de8:	28000001 	stmdacs	r0, {r0}
    2dec:	01000001 	tsteq	r0, r1
    2df0:	01285100 	teqeq	r8, r0, lsl #2
    2df4:	01580000 	cmpeq	r8, r0
    2df8:	00010000 	andeq	r0, r1, r0
    2dfc:	00015856 	andeq	r5, r1, r6, asr r8
    2e00:	00015c00 	andeq	r5, r1, r0, lsl #24
    2e04:	f3000400 	vshl.u8	d0, d0, d0
    2e08:	5c9f5101 	ldfpls	f5, [pc], {1}
    2e0c:	60000001 	andvs	r0, r0, r1
    2e10:	01000001 	tsteq	r0, r1
    2e14:	00005100 	andeq	r5, r0, r0, lsl #2
    2e18:	00000000 	andeq	r0, r0, r0
    2e1c:	01000000 	mrseq	r0, (UNDEF: 0)
    2e20:	01280000 	teqeq	r8, r0
    2e24:	00010000 	andeq	r0, r1, r0
    2e28:	00012852 	andeq	r2, r1, r2, asr r8
    2e2c:	00015800 	andeq	r5, r1, r0, lsl #16
    2e30:	57000100 	strpl	r0, [r0, -r0, lsl #2]
    2e34:	00000158 	andeq	r0, r0, r8, asr r1
    2e38:	0000015c 	andeq	r0, r0, ip, asr r1
    2e3c:	01f30004 	mvnseq	r0, r4
    2e40:	015c9f52 	cmpeq	ip, r2, asr pc
    2e44:	01600000 	cmneq	r0, r0
    2e48:	00010000 	andeq	r0, r1, r0
    2e4c:	00000052 	andeq	r0, r0, r2, asr r0
    2e50:	00000000 	andeq	r0, r0, r0
    2e54:	00010000 	andeq	r0, r1, r0
    2e58:	00012800 	andeq	r2, r1, r0, lsl #16
    2e5c:	30000200 	andcc	r0, r0, r0, lsl #4
    2e60:	0001289f 	muleq	r1, pc, r8	; <UNPREDICTABLE>
    2e64:	00012c00 	andeq	r2, r1, r0, lsl #24
    2e68:	0a000700 	beq	4a70 <_back_addr-0x14fb590>
    2e6c:	00740bba 	ldrhteq	r0, [r4], #-186	; 0xffffff46
    2e70:	012c9f1c 	teqeq	ip, ip, lsl pc
    2e74:	01300000 	teqeq	r0, r0
    2e78:	00070000 	andeq	r0, r7, r0
    2e7c:	740bb90a 	strvc	fp, [fp], #-2314	; 0x90a
    2e80:	309f1c00 	addscc	r1, pc, r0, lsl #24
    2e84:	4c000001 	stcmi	0, cr0, [r0], {1}
    2e88:	07000001 	streq	r0, [r0, -r1]
    2e8c:	0bba0a00 	bleq	fee85694 <__bss_end__+0xfd971b54>
    2e90:	9f1c0074 	svcls	0x001c0074
    2e94:	0000014c 	andeq	r0, r0, ip, asr #2
    2e98:	00000158 	andeq	r0, r0, r8, asr r1
    2e9c:	b90a0007 	stmdblt	sl, {r0, r1, r2}
    2ea0:	1c00740b 	cfstrsne	mvf7, [r0], {11}
    2ea4:	00015c9f 	muleq	r1, pc, ip	; <UNPREDICTABLE>
    2ea8:	00016000 	andeq	r6, r1, r0
    2eac:	30000200 	andcc	r0, r0, r0, lsl #4
    2eb0:	0000009f 	muleq	r0, pc, r0	; <UNPREDICTABLE>
    2eb4:	00000000 	andeq	r0, r0, r0
    2eb8:	00016000 	andeq	r6, r1, r0
    2ebc:	00016c00 	andeq	r6, r1, r0, lsl #24
    2ec0:	51000100 	mrspl	r0, (UNDEF: 16)
    2ec4:	0000016c 	andeq	r0, r0, ip, ror #2
    2ec8:	000001b0 			; <UNDEFINED> instruction: 0x000001b0
    2ecc:	00510001 	subseq	r0, r1, r1
    2ed0:	00000000 	andeq	r0, r0, r0
    2ed4:	7c000000 	stcvc	0, cr0, [r0], {-0}
    2ed8:	8c000001 	stchi	0, cr0, [r0], {1}
    2edc:	01000001 	tsteq	r0, r1
    2ee0:	018c5300 	orreq	r5, ip, r0, lsl #6
    2ee4:	01b00000 	movseq	r0, r0
    2ee8:	00010000 	andeq	r0, r1, r0
    2eec:	0000005c 	andeq	r0, r0, ip, asr r0
    2ef0:	00000000 	andeq	r0, r0, r0
    2ef4:	0001b000 	andeq	fp, r1, r0
    2ef8:	0001b700 	andeq	fp, r1, r0, lsl #14
    2efc:	50000100 	andpl	r0, r0, r0, lsl #2
    2f00:	000001b7 			; <UNDEFINED> instruction: 0x000001b7
    2f04:	000001b8 			; <UNDEFINED> instruction: 0x000001b8
    2f08:	01f30004 	mvnseq	r0, r4
    2f0c:	00009f50 	andeq	r9, r0, r0, asr pc
    2f10:	00000000 	andeq	r0, r0, r0
    2f14:	01e00000 	mvneq	r0, r0
    2f18:	01eb0000 	mvneq	r0, r0
    2f1c:	00010000 	andeq	r0, r1, r0
    2f20:	0001eb50 	andeq	lr, r1, r0, asr fp
    2f24:	0001ec00 	andeq	lr, r1, r0, lsl #24
    2f28:	f3000400 	vshl.u8	d0, d0, d0
    2f2c:	009f5001 	addseq	r5, pc, r1
    2f30:	00000000 	andeq	r0, r0, r0
    2f34:	ec000000 	stc	0, cr0, [r0], {-0}
    2f38:	20000001 	andcs	r0, r0, r1
    2f3c:	01000002 	tsteq	r0, r2
    2f40:	02205000 	eoreq	r5, r0, #0
    2f44:	02300000 	eorseq	r0, r0, #0
    2f48:	00010000 	andeq	r0, r1, r0
    2f4c:	00023850 	andeq	r3, r2, r0, asr r8
    2f50:	00023c00 	andeq	r3, r2, r0, lsl #24
    2f54:	50000100 	andpl	r0, r0, r0, lsl #2
    2f58:	0000023c 	andeq	r0, r0, ip, lsr r2
    2f5c:	00000240 	andeq	r0, r0, r0, asr #4
    2f60:	01f30004 	mvnseq	r0, r4
    2f64:	00009f50 	andeq	r9, r0, r0, asr pc
    2f68:	00000000 	andeq	r0, r0, r0
    2f6c:	021c0000 	andseq	r0, ip, #0
    2f70:	02380000 	eorseq	r0, r8, #0
    2f74:	00010000 	andeq	r0, r1, r0
    2f78:	00000051 	andeq	r0, r0, r1, asr r0
    2f7c:	00000000 	andeq	r0, r0, r0
    2f80:	00024000 	andeq	r4, r2, r0
    2f84:	00025c00 	andeq	r5, r2, r0, lsl #24
    2f88:	50000100 	andpl	r0, r0, r0, lsl #2
    2f8c:	0000025c 	andeq	r0, r0, ip, asr r2
    2f90:	0000026c 	andeq	r0, r0, ip, ror #4
    2f94:	01f30004 	mvnseq	r0, r4
    2f98:	026c9f50 	rsbeq	r9, ip, #80, 30	; 0x140
    2f9c:	02700000 	rsbseq	r0, r0, #0
    2fa0:	00010000 	andeq	r0, r1, r0
    2fa4:	00027050 	andeq	r7, r2, r0, asr r0
    2fa8:	00027400 	andeq	r7, r2, r0, lsl #8
    2fac:	f3000400 	vshl.u8	d0, d0, d0
    2fb0:	009f5001 	addseq	r5, pc, r1
    2fb4:	00000000 	andeq	r0, r0, r0
    2fb8:	74000000 	strvc	r0, [r0], #-0
    2fbc:	9c000002 	stcls	0, cr0, [r0], {2}
    2fc0:	01000002 	tsteq	r0, r2
    2fc4:	029c5000 	addseq	r5, ip, #0
    2fc8:	03140000 	tsteq	r4, #0
    2fcc:	00040000 	andeq	r0, r4, r0
    2fd0:	9f5001f3 	svcls	0x005001f3
    2fd4:	00000314 	andeq	r0, r0, r4, lsl r3
    2fd8:	00000318 	andeq	r0, r0, r8, lsl r3
    2fdc:	18500001 	ldmdane	r0, {r0}^
    2fe0:	24000003 	strcs	r0, [r0], #-3
    2fe4:	04000003 	streq	r0, [r0], #-3
    2fe8:	5001f300 	andpl	pc, r1, r0, lsl #6
    2fec:	0000009f 	muleq	r0, pc, r0	; <UNPREDICTABLE>
    2ff0:	00000000 	andeq	r0, r0, r0
    2ff4:	00027400 	andeq	r7, r2, r0, lsl #8
    2ff8:	0002a700 	andeq	sl, r2, r0, lsl #14
    2ffc:	51000100 	mrspl	r0, (UNDEF: 16)
    3000:	000002a7 	andeq	r0, r0, r7, lsr #5
    3004:	000002c0 	andeq	r0, r0, r0, asr #5
    3008:	c0550001 	subsgt	r0, r5, r1
    300c:	c3000002 	movwgt	r0, #2
    3010:	01000002 	tsteq	r0, r2
    3014:	02c35000 	sbceq	r5, r3, #0
    3018:	02d00000 	sbcseq	r0, r0, #0
    301c:	00030000 	andeq	r0, r3, r0
    3020:	d09f0175 	addsle	r0, pc, r5, ror r1	; <UNPREDICTABLE>
    3024:	14000002 	strne	r0, [r0], #-2
    3028:	04000003 	streq	r0, [r0], #-3
    302c:	5101f300 	mrspl	pc, SP_irq	; <UNPREDICTABLE>
    3030:	0003149f 	muleq	r3, pc, r4	; <UNPREDICTABLE>
    3034:	00032300 	andeq	r2, r3, r0, lsl #6
    3038:	51000100 	mrspl	r0, (UNDEF: 16)
    303c:	00000323 	andeq	r0, r0, r3, lsr #6
    3040:	00000324 	andeq	r0, r0, r4, lsr #6
    3044:	01f30004 	mvnseq	r0, r4
    3048:	00009f51 	andeq	r9, r0, r1, asr pc
    304c:	00000000 	andeq	r0, r0, r0
    3050:	02740000 	rsbseq	r0, r4, #0
    3054:	02a70000 	adceq	r0, r7, #0
    3058:	00010000 	andeq	r0, r1, r0
    305c:	0002a752 	andeq	sl, r2, r2, asr r7
    3060:	00031000 	andeq	r1, r3, r0
    3064:	56000100 	strpl	r0, [r0], -r0, lsl #2
    3068:	00000310 	andeq	r0, r0, r0, lsl r3
    306c:	00000314 	andeq	r0, r0, r4, lsl r3
    3070:	01f30004 	mvnseq	r0, r4
    3074:	03149f52 	tsteq	r4, #328	; 0x148
    3078:	03230000 	teqeq	r3, #0
    307c:	00010000 	andeq	r0, r1, r0
    3080:	00032352 	andeq	r2, r3, r2, asr r3
    3084:	00032400 	andeq	r2, r3, r0, lsl #8
    3088:	f3000400 	vshl.u8	d0, d0, d0
    308c:	009f5201 	addseq	r5, pc, r1, lsl #4
    3090:	00000000 	andeq	r0, r0, r0
    3094:	d0000000 	andle	r0, r0, r0
    3098:	f8000002 			; <UNDEFINED> instruction: 0xf8000002
    309c:	01000002 	tsteq	r0, r2
    30a0:	02f85400 	rscseq	r5, r8, #0, 8
    30a4:	02fc0000 	rscseq	r0, ip, #0
    30a8:	00030000 	andeq	r0, r3, r0
    30ac:	fc9f7f74 	ldc2	15, cr7, [pc], {116}	; 0x74
    30b0:	10000002 	andne	r0, r0, r2
    30b4:	01000003 	tsteq	r0, r3
    30b8:	00005400 	andeq	r5, r0, r0, lsl #8
    30bc:	00000000 	andeq	r0, r0, r0
    30c0:	02b40000 	adcseq	r0, r4, #0
    30c4:	02c00000 	sbceq	r0, r0, #0
    30c8:	00010000 	andeq	r0, r1, r0
    30cc:	0002c055 	andeq	ip, r2, r5, asr r0
    30d0:	0002c300 	andeq	ip, r2, r0, lsl #6
    30d4:	50000100 	andpl	r0, r0, r0, lsl #2
    30d8:	000002c3 	andeq	r0, r0, r3, asr #5
    30dc:	000002d0 	ldrdeq	r0, [r0], -r0	; <UNPREDICTABLE>
    30e0:	01750003 	cmneq	r5, r3
    30e4:	0002d09f 	muleq	r2, pc, r0	; <UNPREDICTABLE>
    30e8:	00031400 	andeq	r1, r3, r0, lsl #8
    30ec:	f3000400 	vshl.u8	d0, d0, d0
    30f0:	009f5101 	addseq	r5, pc, r1, lsl #2
    30f4:	00000000 	andeq	r0, r0, r0
    30f8:	24000000 	strcs	r0, [r0], #-0
    30fc:	2c000003 	stccs	0, cr0, [r0], {3}
    3100:	01000003 	tsteq	r0, r3
    3104:	032c5100 	teqeq	ip, #0, 2
    3108:	03480000 	movteq	r0, #32768	; 0x8000
    310c:	00040000 	andeq	r0, r4, r0
    3110:	9f5101f3 	svcls	0x005101f3
	...
    311c:	00000324 	andeq	r0, r0, r4, lsr #6
    3120:	00000334 	andeq	r0, r0, r4, lsr r3
    3124:	34520001 	ldrbcc	r0, [r2], #-1
    3128:	48000003 	stmdami	r0, {r0, r1}
    312c:	04000003 	streq	r0, [r0], #-3
    3130:	5201f300 	andpl	pc, r1, #0, 6
    3134:	0000009f 	muleq	r0, pc, r0	; <UNPREDICTABLE>
    3138:	00000000 	andeq	r0, r0, r0
    313c:	00032c00 	andeq	r2, r3, r0, lsl #24
    3140:	00033400 	andeq	r3, r3, r0, lsl #8
    3144:	52000100 	andpl	r0, r0, #0, 2
    3148:	00000334 	andeq	r0, r0, r4, lsr r3
    314c:	00000348 	andeq	r0, r0, r8, asr #6
    3150:	01f30004 	mvnseq	r0, r4
    3154:	00009f52 	andeq	r9, r0, r2, asr pc
    3158:	00000000 	andeq	r0, r0, r0
    315c:	032c0000 	teqeq	ip, #0
    3160:	03380000 	teqeq	r8, #0
    3164:	00020000 	andeq	r0, r2, r0
    3168:	00009f30 	andeq	r9, r0, r0, lsr pc
    316c:	00000000 	andeq	r0, r0, r0
    3170:	03480000 	movteq	r0, #32768	; 0x8000
    3174:	03540000 	cmpeq	r4, #0
    3178:	00010000 	andeq	r0, r1, r0
    317c:	00035450 	andeq	r5, r3, r0, asr r4
    3180:	00036400 	andeq	r6, r3, r0, lsl #8
    3184:	f3000400 	vshl.u8	d0, d0, d0
    3188:	009f5001 	addseq	r5, pc, r1
    318c:	00000000 	andeq	r0, r0, r0
    3190:	48000000 	stmdami	r0, {}	; <UNPREDICTABLE>
    3194:	54000003 	strpl	r0, [r0], #-3
    3198:	01000003 	tsteq	r0, r3
    319c:	03545200 	cmpeq	r4, #0, 4
    31a0:	03640000 	cmneq	r4, #0
    31a4:	00040000 	andeq	r0, r4, r0
    31a8:	9f5201f3 	svcls	0x005201f3
	...
    31b4:	00000348 	andeq	r0, r0, r8, asr #6
    31b8:	00000354 	andeq	r0, r0, r4, asr r3
    31bc:	9f300002 	svcls	0x00300002
    31c0:	00000354 	andeq	r0, r0, r4, asr r3
    31c4:	00000358 	andeq	r0, r0, r8, asr r3
    31c8:	00700007 	rsbseq	r0, r0, r7
    31cc:	1c5001f3 	ldfnee	f0, [r0], {243}	; 0xf3
    31d0:	0003589f 	muleq	r3, pc, r8	; <UNPREDICTABLE>
    31d4:	00036400 	andeq	r6, r3, r0, lsl #8
    31d8:	70000900 	andvc	r0, r0, r0, lsl #18
    31dc:	5001f300 	andpl	pc, r1, r0, lsl #6
    31e0:	9f01231c 	svcls	0x0001231c
	...
    31ec:	00000400 	andeq	r0, r0, r0, lsl #8
    31f0:	00000444 	andeq	r0, r0, r4, asr #8
    31f4:	44500001 	ldrbmi	r0, [r0], #-1
    31f8:	48000004 	stmdami	r0, {r2}
    31fc:	04000004 	streq	r0, [r0], #-4
    3200:	5001f300 	andpl	pc, r1, r0, lsl #6
    3204:	0004489f 	muleq	r4, pc, r8	; <UNPREDICTABLE>
    3208:	00044c00 	andeq	r4, r4, r0, lsl #24
    320c:	50000100 	andpl	r0, r0, r0, lsl #2
    3210:	0000044c 	andeq	r0, r0, ip, asr #8
    3214:	00000450 	andeq	r0, r0, r0, asr r4
    3218:	01f30004 	mvnseq	r0, r4
    321c:	04509f50 	ldrbeq	r9, [r0], #-3920	; 0xf50
    3220:	04540000 	ldrbeq	r0, [r4], #-0
    3224:	00010000 	andeq	r0, r1, r0
    3228:	00045450 	andeq	r5, r4, r0, asr r4
    322c:	00045800 	andeq	r5, r4, r0, lsl #16
    3230:	f3000400 	vshl.u8	d0, d0, d0
    3234:	009f5001 	addseq	r5, pc, r1
	...
    3240:	28000004 	stmdacs	r0, {r2}
    3244:	01000004 	tsteq	r0, r4
    3248:	04285100 	strteq	r5, [r8], #-256	; 0x100
    324c:	04500000 	ldrbeq	r0, [r0], #-0
    3250:	00040000 	andeq	r0, r4, r0
    3254:	9f5101f3 	svcls	0x005101f3
    3258:	00000450 	andeq	r0, r0, r0, asr r4
    325c:	00000458 	andeq	r0, r0, r8, asr r4
    3260:	00510001 	subseq	r0, r1, r1
	...
    326c:	1c000004 	stcne	0, cr0, [r0], {4}
    3270:	01000004 	tsteq	r0, r4
    3274:	041c5200 	ldreq	r5, [ip], #-512	; 0x200
    3278:	04500000 	ldrbeq	r0, [r0], #-0
    327c:	00040000 	andeq	r0, r4, r0
    3280:	9f5201f3 	svcls	0x005201f3
    3284:	00000450 	andeq	r0, r0, r0, asr r4
    3288:	00000458 	andeq	r0, r0, r8, asr r4
    328c:	00520001 	subseq	r0, r2, r1
    3290:	00000000 	andeq	r0, r0, r0
    3294:	04000000 	streq	r0, [r0], #-0
    3298:	28000004 	stmdacs	r0, {r2}
    329c:	02000004 	andeq	r0, r0, #4
    32a0:	289f3000 	ldmcs	pc, {ip, sp}	; <UNPREDICTABLE>
    32a4:	2c000004 	stccs	0, cr0, [r0], {4}
    32a8:	06000004 	streq	r0, [r0], -r4
    32ac:	70007300 	andvc	r7, r0, r0, lsl #6
    32b0:	2c9f1c00 	ldccs	12, cr1, [pc], {0}
    32b4:	38000004 	stmdacc	r0, {r2}
    32b8:	07000004 	streq	r0, [r0, -r4]
    32bc:	20007000 	andcs	r7, r0, r0
    32c0:	9f220073 	svcls	0x00220073
    32c4:	00000438 	andeq	r0, r0, r8, lsr r4
    32c8:	00000444 	andeq	r0, r0, r4, asr #8
    32cc:	00730006 	rsbseq	r0, r3, r6
    32d0:	9f1c0070 	svcls	0x001c0070
    32d4:	00000444 	andeq	r0, r0, r4, asr #8
    32d8:	00000448 	andeq	r0, r0, r8, asr #8
    32dc:	00730007 	rsbseq	r0, r3, r7
    32e0:	1c5001f3 	ldfnee	f0, [r0], {243}	; 0xf3
    32e4:	0004509f 	muleq	r4, pc, r0	; <UNPREDICTABLE>
    32e8:	00045800 	andeq	r5, r4, r0, lsl #16
    32ec:	30000200 	andcc	r0, r0, r0, lsl #4
    32f0:	0000009f 	muleq	r0, pc, r0	; <UNPREDICTABLE>
    32f4:	00000000 	andeq	r0, r0, r0
    32f8:	00040400 	andeq	r0, r4, r0, lsl #8
    32fc:	00042800 	andeq	r2, r4, r0, lsl #16
    3300:	51000100 	mrspl	r0, (UNDEF: 16)
    3304:	00000428 	andeq	r0, r0, r8, lsr #8
    3308:	00000450 	andeq	r0, r0, r0, asr r4
    330c:	01f30004 	mvnseq	r0, r4
    3310:	04509f51 	ldrbeq	r9, [r0], #-3921	; 0xf51
    3314:	04580000 	ldrbeq	r0, [r8], #-0
    3318:	00010000 	andeq	r0, r1, r0
    331c:	00000051 	andeq	r0, r0, r1, asr r0
    3320:	00000000 	andeq	r0, r0, r0
    3324:	00045800 	andeq	r5, r4, r0, lsl #16
    3328:	00047400 	andeq	r7, r4, r0, lsl #8
    332c:	50000100 	andpl	r0, r0, r0, lsl #2
    3330:	00000474 	andeq	r0, r0, r4, ror r4
    3334:	0000049c 	muleq	r0, ip, r4
    3338:	01f30004 	mvnseq	r0, r4
    333c:	00009f50 	andeq	r9, r0, r0, asr pc
    3340:	00000000 	andeq	r0, r0, r0
    3344:	04580000 	ldrbeq	r0, [r8], #-0
    3348:	04740000 	ldrbteq	r0, [r4], #-0
    334c:	00010000 	andeq	r0, r1, r0
    3350:	00047451 	andeq	r7, r4, r1, asr r4
    3354:	00049c00 	andeq	r9, r4, r0, lsl #24
    3358:	f3000400 	vshl.u8	d0, d0, d0
    335c:	009f5101 	addseq	r5, pc, r1, lsl #2
    3360:	00000000 	andeq	r0, r0, r0
    3364:	58000000 	stmdapl	r0, {}	; <UNPREDICTABLE>
    3368:	74000004 	strvc	r0, [r0], #-4
    336c:	02000004 	andeq	r0, r0, #4
    3370:	749f3000 	ldrvc	r3, [pc], #0	; 3378 <_back_addr-0x14fcc88>
    3374:	80000004 	andhi	r0, r0, r4
    3378:	07000004 	streq	r0, [r0, -r4]
    337c:	f3007000 	vhadd.u8	d7, d0, d0
    3380:	9f1c5001 	svcls	0x001c5001
    3384:	00000480 	andeq	r0, r0, r0, lsl #9
    3388:	00000484 	andeq	r0, r0, r4, lsl #9
    338c:	00700009 	rsbseq	r0, r0, r9
    3390:	1c5001f3 	ldfnee	f0, [r0], {243}	; 0xf3
    3394:	849f0123 	ldrhi	r0, [pc], #291	; 339c <_back_addr-0x14fcc64>
    3398:	8c000004 	stchi	0, cr0, [r0], {4}
    339c:	07000004 	streq	r0, [r0, -r4]
    33a0:	f3007000 	vhadd.u8	d7, d0, d0
    33a4:	9f1c5001 	svcls	0x001c5001
	...
    33b0:	00000008 	andeq	r0, r0, r8
    33b4:	00000014 	andeq	r0, r0, r4, lsl r0
    33b8:	9f300002 	svcls	0x00300002
    33bc:	00000014 	andeq	r0, r0, r4, lsl r0
    33c0:	000000e4 	andeq	r0, r0, r4, ror #1
    33c4:	00550001 	subseq	r0, r5, r1
    33c8:	00000000 	andeq	r0, r0, r0
    33cc:	14000000 	strne	r0, [r0], #-0
    33d0:	18000000 	stmdane	r0, {}	; <UNPREDICTABLE>
    33d4:	08000000 	stmdaeq	r0, {}	; <UNPREDICTABLE>
    33d8:	7e007700 	cdpvc	7, 0, cr7, cr0, cr0, {0}
    33dc:	1a372500 	bne	dcc7e4 <_back_addr-0x73381c>
    33e0:	0000189f 	muleq	r0, pc, r8	; <UNPREDICTABLE>
    33e4:	00002400 	andeq	r2, r0, r0, lsl #8
    33e8:	77000800 	strvc	r0, [r0, -r0, lsl #16]
    33ec:	257d7e00 	ldrbcs	r7, [sp, #-3584]!	; 0xe00
    33f0:	249f1a37 	ldrcs	r1, [pc], #2615	; 33f8 <_back_addr-0x14fcc08>
    33f4:	2c000000 	stccs	0, cr0, [r0], {-0}
    33f8:	08000000 	stmdaeq	r0, {}	; <UNPREDICTABLE>
    33fc:	7e007700 	cdpvc	7, 0, cr7, cr0, cr0, {0}
    3400:	1a372500 	bne	dcc808 <_back_addr-0x7337f8>
    3404:	00002c9f 	muleq	r0, pc, ip	; <UNPREDICTABLE>
    3408:	00003000 	andeq	r3, r0, r0
    340c:	53000100 	movwpl	r0, #256	; 0x100
    3410:	00000030 	andeq	r0, r0, r0, lsr r0
    3414:	00000058 	andeq	r0, r0, r8, asr r0
    3418:	02730003 	rsbseq	r0, r3, #3
    341c:	0000589f 	muleq	r0, pc, r8	; <UNPREDICTABLE>
    3420:	0000b000 	andeq	fp, r0, r0
    3424:	77000800 	strvc	r0, [r0, -r0, lsl #16]
    3428:	25007e00 	strcs	r7, [r0, #-3584]	; 0xe00
    342c:	b09f1a37 	addslt	r1, pc, r7, lsr sl	; <UNPREDICTABLE>
    3430:	bc000000 	stclt	0, cr0, [r0], {-0}
    3434:	08000000 	stmdaeq	r0, {}	; <UNPREDICTABLE>
    3438:	7e007700 	cdpvc	7, 0, cr7, cr0, cr0, {0}
    343c:	1a37257d 	bne	dcca38 <_back_addr-0x7335c8>
    3440:	0000c09f 	muleq	r0, pc, r0	; <UNPREDICTABLE>
    3444:	0000e400 	andeq	lr, r0, r0, lsl #8
    3448:	77000800 	strvc	r0, [r0, -r0, lsl #16]
    344c:	25007e00 	strcs	r7, [r0, #-3584]	; 0xe00
    3450:	009f1a37 	addseq	r1, pc, r7, lsr sl	; <UNPREDICTABLE>
	...
    345c:	14000000 	strne	r0, [r0], #-0
    3460:	02000000 	andeq	r0, r0, #0
    3464:	149f3000 	ldrne	r3, [pc], #0	; 346c <_back_addr-0x14fcb94>
    3468:	e4000000 	str	r0, [r0], #-0
    346c:	01000000 	mrseq	r0, (UNDEF: 0)
    3470:	00005e00 	andeq	r5, r0, r0, lsl #28
    3474:	00000000 	andeq	r0, r0, r0
    3478:	00380000 	eorseq	r0, r8, r0
    347c:	00b40000 	adcseq	r0, r4, r0
    3480:	00010000 	andeq	r0, r1, r0
    3484:	0000b455 	andeq	fp, r0, r5, asr r4
    3488:	0000bc00 	andeq	fp, r0, r0, lsl #24
    348c:	75000300 	strvc	r0, [r0, #-768]	; 0x300
    3490:	00c09f7f 	sbceq	r9, r0, pc, ror pc
    3494:	00e40000 	rsceq	r0, r4, r0
    3498:	00010000 	andeq	r0, r1, r0
    349c:	00000055 	andeq	r0, r0, r5, asr r0
    34a0:	00000000 	andeq	r0, r0, r0
    34a4:	00005c00 	andeq	r5, r0, r0, lsl #24
    34a8:	0000bc00 	andeq	fp, r0, r0, lsl #24
    34ac:	74000300 	strvc	r0, [r0], #-768	; 0x300
    34b0:	00c09f01 	sbceq	r9, r0, r1, lsl #30
    34b4:	00e40000 	rsceq	r0, r4, r0
    34b8:	00030000 	andeq	r0, r3, r0
    34bc:	009f0174 	addseq	r0, pc, r4, ror r1	; <UNPREDICTABLE>
    34c0:	00000000 	andeq	r0, r0, r0
    34c4:	54000000 	strpl	r0, [r0], #-0
    34c8:	5c000000 	stcpl	0, cr0, [r0], {-0}
    34cc:	0b000000 	bleq	34d4 <_back_addr-0x14fcb2c>
    34d0:	0a007400 	beq	204d8 <_back_addr-0x14dfb28>
    34d4:	331a1ff8 	tstcc	sl, #248, 30	; 0x3e0
    34d8:	9f012325 	svcls	0x00012325
	...
    34e4:	00000044 	andeq	r0, r0, r4, asr #32
    34e8:	00000054 	andeq	r0, r0, r4, asr r0
    34ec:	00740007 	rsbseq	r0, r4, r7
    34f0:	02231a37 	eoreq	r1, r3, #225280	; 0x37000
    34f4:	0000549f 	muleq	r0, pc, r4	; <UNPREDICTABLE>
    34f8:	0000bc00 	andeq	fp, r0, r0, lsl #24
    34fc:	52000100 	andpl	r0, r0, #0, 2
    3500:	000000c0 	andeq	r0, r0, r0, asr #1
    3504:	000000e4 	andeq	r0, r0, r4, ror #1
    3508:	00520001 	subseq	r0, r2, r1
    350c:	00000000 	andeq	r0, r0, r0
    3510:	74000000 	strvc	r0, [r0], #-0
    3514:	88000000 	stmdahi	r0, {}	; <UNPREDICTABLE>
    3518:	01000000 	mrseq	r0, (UNDEF: 0)
    351c:	00005100 	andeq	r5, r0, r0, lsl #2
    3520:	00000000 	andeq	r0, r0, r0
    3524:	007c0000 	rsbseq	r0, ip, r0
    3528:	00bc0000 	adcseq	r0, ip, r0
    352c:	00010000 	andeq	r0, r1, r0
    3530:	0000c058 	andeq	ip, r0, r8, asr r0
    3534:	0000e400 	andeq	lr, r0, r0, lsl #8
    3538:	58000100 	stmdapl	r0, {r8}
	...
    3544:	00000038 	andeq	r0, r0, r8, lsr r0
    3548:	000000bc 	strheq	r0, [r0], -ip
    354c:	9f300002 	svcls	0x00300002
    3550:	000000c0 	andeq	r0, r0, r0, asr #1
    3554:	000000e4 	andeq	r0, r0, r4, ror #1
    3558:	9f300002 	svcls	0x00300002
	...
    3564:	0000003c 	andeq	r0, r0, ip, lsr r0
    3568:	000000bc 	strheq	r0, [r0], -ip
    356c:	c0560001 	subsgt	r0, r6, r1
    3570:	e4000000 	str	r0, [r0], #-0
    3574:	01000000 	mrseq	r0, (UNDEF: 0)
    3578:	00005600 	andeq	r5, r0, r0, lsl #12
    357c:	00000000 	andeq	r0, r0, r0
    3580:	00440000 	subeq	r0, r4, r0
    3584:	005c0000 	subseq	r0, ip, r0
    3588:	00010000 	andeq	r0, r1, r0
    358c:	00000054 	andeq	r0, r0, r4, asr r0
    3590:	00000000 	andeq	r0, r0, r0
    3594:	00005c00 	andeq	r5, r0, r0, lsl #24
    3598:	00006000 	andeq	r6, r0, r0
    359c:	09000300 	stmdbeq	r0, {r8, r9}
    35a0:	00609fff 	strdeq	r9, [r0], #-255	; 0xffffff01	; <UNPREDICTABLE>
    35a4:	00740000 	rsbseq	r0, r4, r0
    35a8:	00010000 	andeq	r0, r1, r0
    35ac:	00000051 	andeq	r0, r0, r1, asr r0
    35b0:	00000000 	andeq	r0, r0, r0
    35b4:	00006000 	andeq	r6, r0, r0
    35b8:	00006400 	andeq	r6, r0, r0, lsl #8
    35bc:	53000100 	movwpl	r0, #256	; 0x100
	...
    35c8:	00000088 	andeq	r0, r0, r8, lsl #1
    35cc:	000000a4 	andeq	r0, r0, r4, lsr #1
    35d0:	a4590001 	ldrbge	r0, [r9], #-1
    35d4:	a8000000 	stmdage	r0, {}	; <UNPREDICTABLE>
    35d8:	03000000 	movweq	r0, #0
    35dc:	9f017900 	svcls	0x00017900
	...
    35e8:	00000090 	muleq	r0, r0, r0
    35ec:	0000009c 	muleq	r0, ip, r0
    35f0:	9c530001 	mrrcls	0, 0, r0, r3, cr1
    35f4:	a8000000 	stmdage	r0, {}	; <UNPREDICTABLE>
    35f8:	03000000 	movweq	r0, #0
    35fc:	9f017300 	svcls	0x00017300
	...
    3608:	00000090 	muleq	r0, r0, r0
    360c:	00000094 	muleq	r0, r4, r0
    3610:	00730009 	rsbseq	r0, r3, r9
    3614:	7c240072 	stcvc	0, cr0, [r4], #-456	; 0xfffffe38
    3618:	949f2100 	ldrls	r2, [pc], #256	; 3620 <_back_addr-0x14fc9e0>
    361c:	a8000000 	stmdage	r0, {}	; <UNPREDICTABLE>
    3620:	01000000 	mrseq	r0, (UNDEF: 0)
    3624:	00005100 	andeq	r5, r0, r0, lsl #2
    3628:	00000000 	andeq	r0, r0, r0
    362c:	00c00000 	sbceq	r0, r0, r0
    3630:	00c40000 	sbceq	r0, r4, r0
    3634:	00010000 	andeq	r0, r1, r0
    3638:	0000c459 	andeq	ip, r0, r9, asr r4
    363c:	0000c800 	andeq	ip, r0, r0, lsl #16
    3640:	79000300 	stmdbvc	r0, {r8, r9}
    3644:	00c89f01 	sbceq	r9, r8, r1, lsl #30
    3648:	00e40000 	rsceq	r0, r4, r0
    364c:	00010000 	andeq	r0, r1, r0
    3650:	00000059 	andeq	r0, r0, r9, asr r0
    3654:	00000000 	andeq	r0, r0, r0
    3658:	0000c000 	andeq	ip, r0, r0
    365c:	0000c800 	andeq	ip, r0, r0, lsl #16
    3660:	73000300 	movwvc	r0, #768	; 0x300
    3664:	00d09f01 	sbcseq	r9, r0, r1, lsl #30
    3668:	00dc0000 	sbcseq	r0, ip, r0
    366c:	00010000 	andeq	r0, r1, r0
    3670:	0000dc53 	andeq	sp, r0, r3, asr ip
    3674:	0000e400 	andeq	lr, r0, r0, lsl #8
    3678:	73000300 	movwvc	r0, #768	; 0x300
    367c:	00009f01 	andeq	r9, r0, r1, lsl #30
    3680:	00000000 	andeq	r0, r0, r0
    3684:	00c00000 	sbceq	r0, r0, r0
    3688:	00c80000 	sbceq	r0, r8, r0
    368c:	00010000 	andeq	r0, r1, r0
    3690:	0000d051 	andeq	sp, r0, r1, asr r0
    3694:	0000d400 	andeq	sp, r0, r0, lsl #8
    3698:	73000900 	movwvc	r0, #2304	; 0x900
    369c:	24007200 	strcs	r7, [r0], #-512	; 0x200
    36a0:	9f21007c 	svcls	0x0021007c
    36a4:	000000d4 	ldrdeq	r0, [r0], -r4
    36a8:	000000e4 	andeq	r0, r0, r4, ror #1
    36ac:	00510001 	subseq	r0, r1, r1
    36b0:	00000000 	andeq	r0, r0, r0
    36b4:	68000000 	stmdavs	r0, {}	; <UNPREDICTABLE>
    36b8:	a3000001 	movwge	r0, #1
    36bc:	01000001 	tsteq	r0, r1
    36c0:	01a35000 			; <UNDEFINED> instruction: 0x01a35000
    36c4:	01a40000 			; <UNDEFINED> instruction: 0x01a40000
    36c8:	00040000 	andeq	r0, r4, r0
    36cc:	9f5001f3 	svcls	0x005001f3
	...
    36d8:	00000168 	andeq	r0, r0, r8, ror #2
    36dc:	000001a3 	andeq	r0, r0, r3, lsr #3
    36e0:	a3510001 	cmpge	r1, #1
    36e4:	a4000001 	strge	r0, [r0], #-1
    36e8:	04000001 	streq	r0, [r0], #-1
    36ec:	5101f300 	mrspl	pc, SP_irq	; <UNPREDICTABLE>
    36f0:	0000009f 	muleq	r0, pc, r0	; <UNPREDICTABLE>
    36f4:	00000000 	andeq	r0, r0, r0
    36f8:	00016c00 	andeq	r6, r1, r0, lsl #24
    36fc:	00017000 	andeq	r7, r1, r0
    3700:	72000700 	andvc	r0, r0, #0, 14
    3704:	231a3700 	tstcs	sl, #0, 14
    3708:	01789f04 	cmneq	r8, r4, lsl #30
    370c:	01a30000 			; <UNDEFINED> instruction: 0x01a30000
    3710:	00010000 	andeq	r0, r1, r0
    3714:	00000052 	andeq	r0, r0, r2, asr r0
    3718:	00000000 	andeq	r0, r0, r0
    371c:	00016c00 	andeq	r6, r1, r0, lsl #24
    3720:	00017000 	andeq	r7, r1, r0
    3724:	52000100 	andpl	r0, r0, #0, 2
	...
    3730:	0000017c 	andeq	r0, r0, ip, ror r1
    3734:	000001a3 	andeq	r0, r0, r3, lsr #3
    3738:	00520001 	subseq	r0, r2, r1
    373c:	00000000 	andeq	r0, r0, r0
    3740:	7c000000 	stcvc	0, cr0, [r0], {-0}
    3744:	a3000001 	movwge	r0, #1
    3748:	01000001 	tsteq	r0, r1
    374c:	01a35100 			; <UNDEFINED> instruction: 0x01a35100
    3750:	01a40000 			; <UNDEFINED> instruction: 0x01a40000
    3754:	00040000 	andeq	r0, r4, r0
    3758:	9f5101f3 	svcls	0x005101f3
	...
    3764:	0000017c 	andeq	r0, r0, ip, ror r1
    3768:	00000184 	andeq	r0, r0, r4, lsl #3
    376c:	84500001 	ldrbhi	r0, [r0], #-1
    3770:	8c000001 	stchi	0, cr0, [r0], {1}
    3774:	01000001 	tsteq	r0, r1
    3778:	018c5300 	orreq	r5, ip, r0, lsl #6
    377c:	01a30000 			; <UNDEFINED> instruction: 0x01a30000
    3780:	00070000 	andeq	r0, r7, r0
    3784:	701f0072 	andsvc	r0, pc, r2, ror r0	; <UNPREDICTABLE>
    3788:	009f1a00 	addseq	r1, pc, r0, lsl #20
    378c:	00000000 	andeq	r0, r0, r0
    3790:	84000000 	strhi	r0, [r0], #-0
    3794:	a3000001 	movwge	r0, #1
    3798:	01000001 	tsteq	r0, r1
    379c:	00005300 	andeq	r5, r0, r0, lsl #6
    37a0:	00000000 	andeq	r0, r0, r0
    37a4:	01a40000 			; <UNDEFINED> instruction: 0x01a40000
    37a8:	01ab0000 			; <UNDEFINED> instruction: 0x01ab0000
    37ac:	00010000 	andeq	r0, r1, r0
    37b0:	0001ab50 	andeq	sl, r1, r0, asr fp
    37b4:	0001ac00 	andeq	sl, r1, r0, lsl #24
    37b8:	f3000400 	vshl.u8	d0, d0, d0
    37bc:	009f5001 	addseq	r5, pc, r1
    37c0:	00000000 	andeq	r0, r0, r0
    37c4:	a4000000 	strge	r0, [r0], #-0
    37c8:	a8000001 	stmdage	r0, {r0}
    37cc:	01000001 	tsteq	r0, r1
    37d0:	01a85100 			; <UNDEFINED> instruction: 0x01a85100
    37d4:	01ac0000 			; <UNDEFINED> instruction: 0x01ac0000
    37d8:	00040000 	andeq	r0, r4, r0
    37dc:	9f5101f3 	svcls	0x005101f3
	...
    37e8:	000001b0 			; <UNDEFINED> instruction: 0x000001b0
    37ec:	00000217 	andeq	r0, r0, r7, lsl r2
    37f0:	17500001 	ldrbne	r0, [r0, -r1]
    37f4:	18000002 	stmdane	r0, {r1}
    37f8:	04000002 	streq	r0, [r0], #-2
    37fc:	5001f300 	andpl	pc, r1, r0, lsl #6
    3800:	0000009f 	muleq	r0, pc, r0	; <UNPREDICTABLE>
    3804:	00000000 	andeq	r0, r0, r0
    3808:	0001b000 	andeq	fp, r1, r0
    380c:	00021700 	andeq	r1, r2, r0, lsl #14
    3810:	51000100 	mrspl	r0, (UNDEF: 16)
    3814:	00000217 	andeq	r0, r0, r7, lsl r2
    3818:	00000218 	andeq	r0, r0, r8, lsl r2
    381c:	01f30004 	mvnseq	r0, r4
    3820:	00009f51 	andeq	r9, r0, r1, asr pc
    3824:	00000000 	andeq	r0, r0, r0
    3828:	01b80000 			; <UNDEFINED> instruction: 0x01b80000
    382c:	01bc0000 			; <UNDEFINED> instruction: 0x01bc0000
    3830:	00070000 	andeq	r0, r7, r0
    3834:	1a37007c 	bne	dc3a2c <_back_addr-0x73c5d4>
    3838:	c49f0423 	ldrgt	r0, [pc], #1059	; 3840 <_back_addr-0x14fc7c0>
    383c:	17000001 	strne	r0, [r0, -r1]
    3840:	01000002 	tsteq	r0, r2
    3844:	00005c00 	andeq	r5, r0, r0, lsl #24
    3848:	00000000 	andeq	r0, r0, r0
    384c:	01b80000 			; <UNDEFINED> instruction: 0x01b80000
    3850:	01bc0000 			; <UNDEFINED> instruction: 0x01bc0000
    3854:	00010000 	andeq	r0, r1, r0
    3858:	0000005c 	andeq	r0, r0, ip, asr r0
    385c:	00000000 	andeq	r0, r0, r0
    3860:	0001c800 	andeq	ip, r1, r0, lsl #16
    3864:	00021700 	andeq	r1, r2, r0, lsl #14
    3868:	5c000100 	stfpls	f0, [r0], {-0}
	...
    3874:	000001c8 	andeq	r0, r0, r8, asr #3
    3878:	000001f4 	strdeq	r0, [r0], -r4
    387c:	f4510001 			; <UNDEFINED> instruction: 0xf4510001
    3880:	17000001 	strne	r0, [r0, -r1]
    3884:	01000002 	tsteq	r0, r2
    3888:	00005200 	andeq	r5, r0, r0, lsl #4
    388c:	00000000 	andeq	r0, r0, r0
    3890:	01c80000 	biceq	r0, r8, r0
    3894:	01e40000 	mvneq	r0, r0
    3898:	00010000 	andeq	r0, r1, r0
    389c:	0001e450 	andeq	lr, r1, r0, asr r4
    38a0:	0001fc00 	andeq	pc, r1, r0, lsl #24
    38a4:	53000100 	movwpl	r0, #256	; 0x100
	...
    38b0:	000001f4 	strdeq	r0, [r0], -r4
    38b4:	00000217 	andeq	r0, r0, r7, lsl r2
    38b8:	00530001 	subseq	r0, r3, r1
    38bc:	00000000 	andeq	r0, r0, r0
    38c0:	Address 0x000038c0 is out of bounds.


Disassembly of section .debug_ranges:

00000000 <.debug_ranges>:
   0:	00000038 	andeq	r0, r0, r8, lsr r0
   4:	0000003c 	andeq	r0, r0, ip, lsr r0
   8:	00000040 	andeq	r0, r0, r0, asr #32
   c:	000001ac 	andeq	r0, r0, ip, lsr #3
  10:	000001c0 	andeq	r0, r0, r0, asr #3
  14:	000001d4 	ldrdeq	r0, [r0], -r4
	...
  20:	00000038 	andeq	r0, r0, r8, lsr r0
  24:	0000003c 	andeq	r0, r0, ip, lsr r0
  28:	0000008c 	andeq	r0, r0, ip, lsl #1
  2c:	00000090 	muleq	r0, r0, r0
  30:	00000094 	muleq	r0, r4, r0
  34:	00000098 	muleq	r0, r8, r0
  38:	0000009c 	muleq	r0, ip, r0
  3c:	000000e8 	andeq	r0, r0, r8, ror #1
  40:	000000ec 	andeq	r0, r0, ip, ror #1
  44:	000000f0 	strdeq	r0, [r0], -r0	; <UNPREDICTABLE>
  48:	000000f4 	strdeq	r0, [r0], -r4
  4c:	000000f8 	strdeq	r0, [r0], -r8
	...
  58:	000002ec 	andeq	r0, r0, ip, ror #5
  5c:	000002f4 	strdeq	r0, [r0], -r4
  60:	00000308 	andeq	r0, r0, r8, lsl #6
  64:	0000030c 	andeq	r0, r0, ip, lsl #6
	...
  70:	000002f8 	strdeq	r0, [r0], -r8
  74:	000002fc 	strdeq	r0, [r0], -ip
  78:	0000030c 	andeq	r0, r0, ip, lsl #6
  7c:	00000318 	andeq	r0, r0, r8, lsl r3
	...
  88:	0000033c 	andeq	r0, r0, ip, lsr r3
  8c:	00000344 	andeq	r0, r0, r4, asr #6
  90:	00000348 	andeq	r0, r0, r8, asr #6
  94:	0000034c 	andeq	r0, r0, ip, asr #6
	...
  a0:	000003b8 			; <UNDEFINED> instruction: 0x000003b8
  a4:	000003bc 			; <UNDEFINED> instruction: 0x000003bc
  a8:	000003c0 	andeq	r0, r0, r0, asr #7
  ac:	000003c4 	andeq	r0, r0, r4, asr #7
	...
  b8:	00000614 	andeq	r0, r0, r4, lsl r6
  bc:	00000634 	andeq	r0, r0, r4, lsr r6
  c0:	0000064c 	andeq	r0, r0, ip, asr #12
  c4:	0000066c 	andeq	r0, r0, ip, ror #12
	...
  d0:	00000680 	andeq	r0, r0, r0, lsl #13
  d4:	000006a0 	andeq	r0, r0, r0, lsr #13
  d8:	000006b8 			; <UNDEFINED> instruction: 0x000006b8
  dc:	000006d8 	ldrdeq	r0, [r0], -r8
	...
  e8:	00000784 	andeq	r0, r0, r4, lsl #15
  ec:	0000078c 	andeq	r0, r0, ip, lsl #15
  f0:	0000079c 	muleq	r0, ip, r7
  f4:	000007a4 	andeq	r0, r0, r4, lsr #15
  f8:	000007b4 			; <UNDEFINED> instruction: 0x000007b4
  fc:	000007d4 	ldrdeq	r0, [r0], -r4
	...
 108:	0000079c 	muleq	r0, ip, r7
 10c:	000007a4 	andeq	r0, r0, r4, lsr #15
 110:	000007c8 	andeq	r0, r0, r8, asr #15
 114:	000007d4 	ldrdeq	r0, [r0], -r4
	...
 120:	00000070 	andeq	r0, r0, r0, ror r0
 124:	0000007c 	andeq	r0, r0, ip, ror r0
 128:	00000080 	andeq	r0, r0, r0, lsl #1
 12c:	00000088 	andeq	r0, r0, r8, lsl #1
	...
 138:	0000007c 	andeq	r0, r0, ip, ror r0
 13c:	00000080 	andeq	r0, r0, r0, lsl #1
 140:	00000088 	andeq	r0, r0, r8, lsl #1
 144:	0000008c 	andeq	r0, r0, ip, lsl #1
	...
 150:	000000b0 	strheq	r0, [r0], -r0	; <UNPREDICTABLE>
 154:	000000b8 	strheq	r0, [r0], -r8
 158:	000000c0 	andeq	r0, r0, r0, asr #1
 15c:	000000c4 	andeq	r0, r0, r4, asr #1
 160:	000000c8 	andeq	r0, r0, r8, asr #1
 164:	000000cc 	andeq	r0, r0, ip, asr #1
	...
 170:	000000b8 	strheq	r0, [r0], -r8
 174:	000000bc 	strheq	r0, [r0], -ip
 178:	000000d8 	ldrdeq	r0, [r0], -r8
 17c:	000000dc 	ldrdeq	r0, [r0], -ip
	...
 188:	000000c4 	andeq	r0, r0, r4, asr #1
 18c:	000000c8 	andeq	r0, r0, r8, asr #1
 190:	000000d0 	ldrdeq	r0, [r0], -r0	; <UNPREDICTABLE>
 194:	000000d4 	ldrdeq	r0, [r0], -r4
	...
 1a0:	00000104 	andeq	r0, r0, r4, lsl #2
 1a4:	00000108 	andeq	r0, r0, r8, lsl #2
 1a8:	00000130 	andeq	r0, r0, r0, lsr r1
 1ac:	0000013c 	andeq	r0, r0, ip, lsr r1
	...
 1b8:	0000015c 	andeq	r0, r0, ip, asr r1
 1bc:	00000168 	andeq	r0, r0, r8, ror #2
 1c0:	0000016c 	andeq	r0, r0, ip, ror #2
 1c4:	00000170 	andeq	r0, r0, r0, ror r1
	...
 1d0:	00000168 	andeq	r0, r0, r8, ror #2
 1d4:	0000016c 	andeq	r0, r0, ip, ror #2
 1d8:	00000170 	andeq	r0, r0, r0, ror r1
 1dc:	00000178 	andeq	r0, r0, r8, ror r1
	...
 1e8:	0000018c 	andeq	r0, r0, ip, lsl #3
 1ec:	00000190 	muleq	r0, r0, r1
 1f0:	00000194 	muleq	r0, r4, r1
 1f4:	00000198 	muleq	r0, r8, r1
	...
 200:	00000190 	muleq	r0, r0, r1
 204:	00000194 	muleq	r0, r4, r1
 208:	0000019c 	muleq	r0, ip, r1
 20c:	000001a4 	andeq	r0, r0, r4, lsr #3
	...
 218:	000001bc 			; <UNDEFINED> instruction: 0x000001bc
 21c:	000001c4 	andeq	r0, r0, r4, asr #3
 220:	000001d8 	ldrdeq	r0, [r0], -r8
 224:	000001ec 	andeq	r0, r0, ip, ror #3
 228:	000002ec 	andeq	r0, r0, ip, ror #5
 22c:	000002fc 	strdeq	r0, [r0], -ip
	...
 238:	000001e0 	andeq	r0, r0, r0, ror #3
 23c:	000001ec 	andeq	r0, r0, ip, ror #3
 240:	000002ec 	andeq	r0, r0, ip, ror #5
 244:	000002fc 	strdeq	r0, [r0], -ip
	...
 250:	000001f8 	strdeq	r0, [r0], -r8
 254:	0000020c 	andeq	r0, r0, ip, lsl #4
 258:	0000040c 	andeq	r0, r0, ip, lsl #8
 25c:	00000424 	andeq	r0, r0, r4, lsr #8
	...
 268:	00000208 	andeq	r0, r0, r8, lsl #4
 26c:	0000020c 	andeq	r0, r0, ip, lsl #4
 270:	0000040c 	andeq	r0, r0, ip, lsl #8
 274:	00000424 	andeq	r0, r0, r4, lsr #8
	...
 280:	0000020c 	andeq	r0, r0, ip, lsl #4
 284:	0000021c 	andeq	r0, r0, ip, lsl r2
 288:	000003f4 	strdeq	r0, [r0], -r4
 28c:	0000040c 	andeq	r0, r0, ip, lsl #8
	...
 298:	00000218 	andeq	r0, r0, r8, lsl r2
 29c:	0000021c 	andeq	r0, r0, ip, lsl r2
 2a0:	000003f4 	strdeq	r0, [r0], -r4
 2a4:	0000040c 	andeq	r0, r0, ip, lsl #8
	...
 2b0:	0000021c 	andeq	r0, r0, ip, lsl r2
 2b4:	0000022c 	andeq	r0, r0, ip, lsr #4
 2b8:	000003dc 	ldrdeq	r0, [r0], -ip
 2bc:	000003f4 	strdeq	r0, [r0], -r4
	...
 2c8:	00000228 	andeq	r0, r0, r8, lsr #4
 2cc:	0000022c 	andeq	r0, r0, ip, lsr #4
 2d0:	000003dc 	ldrdeq	r0, [r0], -ip
 2d4:	000003f4 	strdeq	r0, [r0], -r4
	...
 2e0:	0000022c 	andeq	r0, r0, ip, lsr #4
 2e4:	00000244 	andeq	r0, r0, r4, asr #4
 2e8:	000003c4 	andeq	r0, r0, r4, asr #7
 2ec:	000003dc 	ldrdeq	r0, [r0], -ip
	...
 2f8:	0000023c 	andeq	r0, r0, ip, lsr r2
 2fc:	00000244 	andeq	r0, r0, r4, asr #4
 300:	000003c4 	andeq	r0, r0, r4, asr #7
 304:	000003dc 	ldrdeq	r0, [r0], -ip
	...
 310:	00000244 	andeq	r0, r0, r4, asr #4
 314:	00000254 	andeq	r0, r0, r4, asr r2
 318:	000003ac 	andeq	r0, r0, ip, lsr #7
 31c:	000003c4 	andeq	r0, r0, r4, asr #7
	...
 328:	00000250 	andeq	r0, r0, r0, asr r2
 32c:	00000254 	andeq	r0, r0, r4, asr r2
 330:	000003ac 	andeq	r0, r0, ip, lsr #7
 334:	000003c4 	andeq	r0, r0, r4, asr #7
	...
 340:	00000254 	andeq	r0, r0, r4, asr r2
 344:	0000026c 	andeq	r0, r0, ip, ror #4
 348:	00000394 	muleq	r0, r4, r3
 34c:	000003ac 	andeq	r0, r0, ip, lsr #7
	...
 358:	00000264 	andeq	r0, r0, r4, ror #4
 35c:	0000026c 	andeq	r0, r0, ip, ror #4
 360:	00000394 	muleq	r0, r4, r3
 364:	000003ac 	andeq	r0, r0, ip, lsr #7
	...
 370:	0000026c 	andeq	r0, r0, ip, ror #4
 374:	0000027c 	andeq	r0, r0, ip, ror r2
 378:	0000037c 	andeq	r0, r0, ip, ror r3
 37c:	00000394 	muleq	r0, r4, r3
	...
 388:	00000278 	andeq	r0, r0, r8, ror r2
 38c:	0000027c 	andeq	r0, r0, ip, ror r2
 390:	0000037c 	andeq	r0, r0, ip, ror r3
 394:	00000394 	muleq	r0, r4, r3
	...
 3a0:	0000027c 	andeq	r0, r0, ip, ror r2
 3a4:	00000294 	muleq	r0, r4, r2
 3a8:	00000364 	andeq	r0, r0, r4, ror #6
 3ac:	0000037c 	andeq	r0, r0, ip, ror r3
	...
 3b8:	0000028c 	andeq	r0, r0, ip, lsl #5
 3bc:	00000294 	muleq	r0, r4, r2
 3c0:	00000364 	andeq	r0, r0, r4, ror #6
 3c4:	0000037c 	andeq	r0, r0, ip, ror r3
	...
 3d0:	00000294 	muleq	r0, r4, r2
 3d4:	00000298 	muleq	r0, r8, r2
 3d8:	0000029c 	muleq	r0, ip, r2
 3dc:	000002a4 	andeq	r0, r0, r4, lsr #5
 3e0:	0000034c 	andeq	r0, r0, ip, asr #6
 3e4:	00000364 	andeq	r0, r0, r4, ror #6
	...
 3f0:	000002a0 	andeq	r0, r0, r0, lsr #5
 3f4:	000002a4 	andeq	r0, r0, r4, lsr #5
 3f8:	0000034c 	andeq	r0, r0, ip, asr #6
 3fc:	00000364 	andeq	r0, r0, r4, ror #6
	...
 408:	000002a4 	andeq	r0, r0, r4, lsr #5
 40c:	000002a8 	andeq	r0, r0, r8, lsr #5
 410:	000002ac 	andeq	r0, r0, ip, lsr #5
 414:	000002b4 			; <UNDEFINED> instruction: 0x000002b4
 418:	00000334 	andeq	r0, r0, r4, lsr r3
 41c:	0000034c 	andeq	r0, r0, ip, asr #6
	...
 428:	000002b0 			; <UNDEFINED> instruction: 0x000002b0
 42c:	000002b4 			; <UNDEFINED> instruction: 0x000002b4
 430:	00000334 	andeq	r0, r0, r4, lsr r3
 434:	0000034c 	andeq	r0, r0, ip, asr #6
	...
 440:	000002b4 			; <UNDEFINED> instruction: 0x000002b4
 444:	000002b8 			; <UNDEFINED> instruction: 0x000002b8
 448:	000002bc 			; <UNDEFINED> instruction: 0x000002bc
 44c:	000002c4 	andeq	r0, r0, r4, asr #5
 450:	0000031c 	andeq	r0, r0, ip, lsl r3
 454:	00000334 	andeq	r0, r0, r4, lsr r3
	...
 460:	000002c0 	andeq	r0, r0, r0, asr #5
 464:	000002c4 	andeq	r0, r0, r4, asr #5
 468:	0000031c 	andeq	r0, r0, ip, lsl r3
 46c:	00000334 	andeq	r0, r0, r4, lsr r3
	...
 478:	000002c4 	andeq	r0, r0, r4, asr #5
 47c:	000002c8 	andeq	r0, r0, r8, asr #5
 480:	000002cc 	andeq	r0, r0, ip, asr #5
 484:	000002d0 	ldrdeq	r0, [r0], -r0	; <UNPREDICTABLE>
 488:	000002d4 	ldrdeq	r0, [r0], -r4
 48c:	000002d8 	ldrdeq	r0, [r0], -r8
 490:	000002fc 	strdeq	r0, [r0], -ip
 494:	00000310 	andeq	r0, r0, r0, lsl r3
	...
 4a0:	000002d4 	ldrdeq	r0, [r0], -r4
 4a4:	000002d8 	ldrdeq	r0, [r0], -r8
 4a8:	000002fc 	strdeq	r0, [r0], -ip
 4ac:	00000310 	andeq	r0, r0, r0, lsl r3
	...
 4b8:	000007b4 			; <UNDEFINED> instruction: 0x000007b4
 4bc:	000007cc 	andeq	r0, r0, ip, asr #15
 4c0:	000007d4 	ldrdeq	r0, [r0], -r4
 4c4:	000007dc 	ldrdeq	r0, [r0], -ip
 4c8:	000007e0 	andeq	r0, r0, r0, ror #15
 4cc:	00000848 	andeq	r0, r0, r8, asr #16
	...
 4d8:	00000974 	andeq	r0, r0, r4, ror r9
 4dc:	0000097c 	andeq	r0, r0, ip, ror r9
 4e0:	00000980 	andeq	r0, r0, r0, lsl #19
 4e4:	00000984 	andeq	r0, r0, r4, lsl #19
 4e8:	00000988 	andeq	r0, r0, r8, lsl #19
 4ec:	0000098c 	andeq	r0, r0, ip, lsl #19
	...
 4f8:	00000984 	andeq	r0, r0, r4, lsl #19
 4fc:	00000988 	andeq	r0, r0, r8, lsl #19
 500:	0000098c 	andeq	r0, r0, ip, lsl #19
 504:	00000990 	muleq	r0, r0, r9
	...
 510:	00000a0c 	andeq	r0, r0, ip, lsl #20
 514:	00000a14 	andeq	r0, r0, r4, lsl sl
 518:	00000a20 	andeq	r0, r0, r0, lsr #20
 51c:	00000a24 	andeq	r0, r0, r4, lsr #20
	...
 528:	00000a30 	andeq	r0, r0, r0, lsr sl
 52c:	00000a34 	andeq	r0, r0, r4, lsr sl
 530:	00000a54 	andeq	r0, r0, r4, asr sl
 534:	00000a58 	andeq	r0, r0, r8, asr sl
	...
 540:	000003c8 	andeq	r0, r0, r8, asr #7
 544:	00000604 	andeq	r0, r0, r4, lsl #12
 548:	0000060c 	andeq	r0, r0, ip, lsl #12
 54c:	00000620 	andeq	r0, r0, r0, lsr #12
 550:	0000062c 	andeq	r0, r0, ip, lsr #12
 554:	0000082c 	andeq	r0, r0, ip, lsr #16
 558:	00000834 	andeq	r0, r0, r4, lsr r8
 55c:	00000934 	andeq	r0, r0, r4, lsr r9
	...
 568:	00000b50 	andeq	r0, r0, r0, asr fp
 56c:	00000b94 	muleq	r0, r4, fp
 570:	00000be8 	andeq	r0, r0, r8, ror #23
 574:	00000bf8 	strdeq	r0, [r0], -r8
	...
 580:	00000010 	andeq	r0, r0, r0, lsl r0
 584:	0000002c 	andeq	r0, r0, ip, lsr #32
 588:	00000030 	andeq	r0, r0, r0, lsr r0
 58c:	00000058 	andeq	r0, r0, r8, asr r0
	...
 598:	000000c8 	andeq	r0, r0, r8, asr #1
 59c:	000000d0 	ldrdeq	r0, [r0], -r0	; <UNPREDICTABLE>
 5a0:	000000d8 	ldrdeq	r0, [r0], -r8
 5a4:	000000e4 	andeq	r0, r0, r4, ror #1
 5a8:	000000ec 	andeq	r0, r0, ip, ror #1
 5ac:	00000100 	andeq	r0, r0, r0, lsl #2
	...
 5b8:	000000e4 	andeq	r0, r0, r4, ror #1
 5bc:	000000e8 	andeq	r0, r0, r8, ror #1
 5c0:	00000100 	andeq	r0, r0, r0, lsl #2
 5c4:	0000010c 	andeq	r0, r0, ip, lsl #2
	...
 5d0:	00000120 	andeq	r0, r0, r0, lsr #2
 5d4:	00000128 	andeq	r0, r0, r8, lsr #2
 5d8:	00000130 	andeq	r0, r0, r0, lsr r1
 5dc:	0000013c 	andeq	r0, r0, ip, lsr r1
 5e0:	00000144 	andeq	r0, r0, r4, asr #2
 5e4:	00000158 	andeq	r0, r0, r8, asr r1
	...
 5f0:	0000013c 	andeq	r0, r0, ip, lsr r1
 5f4:	00000140 	andeq	r0, r0, r0, asr #2
 5f8:	00000158 	andeq	r0, r0, r8, asr r1
 5fc:	00000164 	andeq	r0, r0, r4, ror #2
	...
 608:	000000ac 	andeq	r0, r0, ip, lsr #1
 60c:	000000b4 	strheq	r0, [r0], -r4
 610:	000000e4 	andeq	r0, r0, r4, ror #1
 614:	00000100 	andeq	r0, r0, r0, lsl #2
	...
 620:	00000128 	andeq	r0, r0, r8, lsr #2
 624:	00000138 	andeq	r0, r0, r8, lsr r1
 628:	0000014c 	andeq	r0, r0, ip, asr #2
 62c:	00000154 	andeq	r0, r0, r4, asr r1
 630:	00000158 	andeq	r0, r0, r8, asr r1
 634:	00000160 	andeq	r0, r0, r0, ror #2
	...
 640:	0000018c 	andeq	r0, r0, ip, lsl #3
 644:	0000019c 	muleq	r0, ip, r1
 648:	000001a0 	andeq	r0, r0, r0, lsr #3
 64c:	000001a4 	andeq	r0, r0, r4, lsr #3
	...
 658:	00000324 	andeq	r0, r0, r4, lsr #6
 65c:	00000328 	andeq	r0, r0, r8, lsr #6
 660:	0000032c 	andeq	r0, r0, ip, lsr #6
 664:	00000344 	andeq	r0, r0, r4, asr #6
	...
 670:	00000038 	andeq	r0, r0, r8, lsr r0
 674:	000000ac 	andeq	r0, r0, ip, lsr #1
 678:	000000c0 	andeq	r0, r0, r0, asr #1
 67c:	000000e4 	andeq	r0, r0, r4, ror #1
	...
 688:	00000054 	andeq	r0, r0, r4, asr r0
 68c:	00000058 	andeq	r0, r0, r8, asr r0
 690:	0000005c 	andeq	r0, r0, ip, asr r0
 694:	00000074 	andeq	r0, r0, r4, ror r0
	...
